ARM GAS  /var/folders/v3/wysfpd052nz8jkbx04pk0ym80000gn/T//cctWkQYp.s 			page 1


   1              		.cpu cortex-m4
   2              		.eabi_attribute 27, 1
   3              		.eabi_attribute 28, 1
   4              		.eabi_attribute 20, 1
   5              		.eabi_attribute 21, 1
   6              		.eabi_attribute 23, 3
   7              		.eabi_attribute 24, 1
   8              		.eabi_attribute 25, 1
   9              		.eabi_attribute 26, 1
  10              		.eabi_attribute 30, 1
  11              		.eabi_attribute 34, 1
  12              		.eabi_attribute 18, 4
  13              		.file	"adc.c"
  14              		.text
  15              	.Ltext0:
  16              		.cfi_sections	.debug_frame
  17              		.section	.text.MX_ADC1_Init,"ax",%progbits
  18              		.align	1
  19              		.global	MX_ADC1_Init
  20              		.syntax unified
  21              		.thumb
  22              		.thumb_func
  23              		.fpu fpv4-sp-d16
  25              	MX_ADC1_Init:
  26              	.LFB126:
  27              		.file 1 "Src/adc.c"
   1:Src/adc.c     **** /**
   2:Src/adc.c     ****   ******************************************************************************
   3:Src/adc.c     ****   * File Name          : ADC.c
   4:Src/adc.c     ****   * Description        : This file provides code for the configuration
   5:Src/adc.c     ****   *                      of the ADC instances.
   6:Src/adc.c     ****   ******************************************************************************
   7:Src/adc.c     ****   ** This notice applies to any and all portions of this file
   8:Src/adc.c     ****   * that are not between comment pairs USER CODE BEGIN and
   9:Src/adc.c     ****   * USER CODE END. Other portions of this file, whether 
  10:Src/adc.c     ****   * inserted by the user or by software development tools
  11:Src/adc.c     ****   * are owned by their respective copyright owners.
  12:Src/adc.c     ****   *
  13:Src/adc.c     ****   * COPYRIGHT(c) 2018 STMicroelectronics
  14:Src/adc.c     ****   *
  15:Src/adc.c     ****   * Redistribution and use in source and binary forms, with or without modification,
  16:Src/adc.c     ****   * are permitted provided that the following conditions are met:
  17:Src/adc.c     ****   *   1. Redistributions of source code must retain the above copyright notice,
  18:Src/adc.c     ****   *      this list of conditions and the following disclaimer.
  19:Src/adc.c     ****   *   2. Redistributions in binary form must reproduce the above copyright notice,
  20:Src/adc.c     ****   *      this list of conditions and the following disclaimer in the documentation
  21:Src/adc.c     ****   *      and/or other materials provided with the distribution.
  22:Src/adc.c     ****   *   3. Neither the name of STMicroelectronics nor the names of its contributors
  23:Src/adc.c     ****   *      may be used to endorse or promote products derived from this software
  24:Src/adc.c     ****   *      without specific prior written permission.
  25:Src/adc.c     ****   *
  26:Src/adc.c     ****   * THIS SOFTWARE IS PROVIDED BY THE COPYRIGHT HOLDERS AND CONTRIBUTORS "AS IS"
  27:Src/adc.c     ****   * AND ANY EXPRESS OR IMPLIED WARRANTIES, INCLUDING, BUT NOT LIMITED TO, THE
  28:Src/adc.c     ****   * IMPLIED WARRANTIES OF MERCHANTABILITY AND FITNESS FOR A PARTICULAR PURPOSE ARE
  29:Src/adc.c     ****   * DISCLAIMED. IN NO EVENT SHALL THE COPYRIGHT HOLDER OR CONTRIBUTORS BE LIABLE
  30:Src/adc.c     ****   * FOR ANY DIRECT, INDIRECT, INCIDENTAL, SPECIAL, EXEMPLARY, OR CONSEQUENTIAL
  31:Src/adc.c     ****   * DAMAGES (INCLUDING, BUT NOT LIMITED TO, PROCUREMENT OF SUBSTITUTE GOODS OR
ARM GAS  /var/folders/v3/wysfpd052nz8jkbx04pk0ym80000gn/T//cctWkQYp.s 			page 2


  32:Src/adc.c     ****   * SERVICES; LOSS OF USE, DATA, OR PROFITS; OR BUSINESS INTERRUPTION) HOWEVER
  33:Src/adc.c     ****   * CAUSED AND ON ANY THEORY OF LIABILITY, WHETHER IN CONTRACT, STRICT LIABILITY,
  34:Src/adc.c     ****   * OR TORT (INCLUDING NEGLIGENCE OR OTHERWISE) ARISING IN ANY WAY OUT OF THE USE
  35:Src/adc.c     ****   * OF THIS SOFTWARE, EVEN IF ADVISED OF THE POSSIBILITY OF SUCH DAMAGE.
  36:Src/adc.c     ****   *
  37:Src/adc.c     ****   ******************************************************************************
  38:Src/adc.c     ****   */
  39:Src/adc.c     **** 
  40:Src/adc.c     **** /* Includes ------------------------------------------------------------------*/
  41:Src/adc.c     **** #include "adc.h"
  42:Src/adc.c     **** 
  43:Src/adc.c     **** #include "gpio.h"
  44:Src/adc.c     **** #include "dma.h"
  45:Src/adc.c     **** 
  46:Src/adc.c     **** /* USER CODE BEGIN 0 */
  47:Src/adc.c     **** 
  48:Src/adc.c     **** /* USER CODE END 0 */
  49:Src/adc.c     **** 
  50:Src/adc.c     **** ADC_HandleTypeDef hadc1;
  51:Src/adc.c     **** DMA_HandleTypeDef hdma_adc1;
  52:Src/adc.c     **** 
  53:Src/adc.c     **** /* ADC1 init function */
  54:Src/adc.c     **** void MX_ADC1_Init(void)
  55:Src/adc.c     **** {
  28              		.loc 1 55 0
  29              		.cfi_startproc
  30              		@ args = 0, pretend = 0, frame = 40
  31              		@ frame_needed = 0, uses_anonymous_args = 0
  32 0000 00B5     		push	{lr}
  33              	.LCFI0:
  34              		.cfi_def_cfa_offset 4
  35              		.cfi_offset 14, -4
  36 0002 8BB0     		sub	sp, sp, #44
  37              	.LCFI1:
  38              		.cfi_def_cfa_offset 48
  56:Src/adc.c     ****   ADC_MultiModeTypeDef multimode;
  57:Src/adc.c     ****   ADC_ChannelConfTypeDef sConfig;
  58:Src/adc.c     **** 
  59:Src/adc.c     ****     /**Common config 
  60:Src/adc.c     ****     */
  61:Src/adc.c     ****   hadc1.Instance = ADC1;
  39              		.loc 1 61 0
  40 0004 2048     		ldr	r0, .L9
  41 0006 4FF0A043 		mov	r3, #1342177280
  42 000a 0360     		str	r3, [r0]
  62:Src/adc.c     ****   hadc1.Init.ClockPrescaler = ADC_CLOCK_SYNC_PCLK_DIV4;
  43              		.loc 1 62 0
  44 000c 4FF44033 		mov	r3, #196608
  45 0010 4360     		str	r3, [r0, #4]
  63:Src/adc.c     ****   hadc1.Init.Resolution = ADC_RESOLUTION_8B;
  46              		.loc 1 63 0
  47 0012 1023     		movs	r3, #16
  48 0014 8360     		str	r3, [r0, #8]
  64:Src/adc.c     ****   hadc1.Init.ScanConvMode = ADC_SCAN_DISABLE;
  49              		.loc 1 64 0
  50 0016 0023     		movs	r3, #0
  51 0018 0361     		str	r3, [r0, #16]
ARM GAS  /var/folders/v3/wysfpd052nz8jkbx04pk0ym80000gn/T//cctWkQYp.s 			page 3


  65:Src/adc.c     ****   hadc1.Init.ContinuousConvMode = ENABLE;
  52              		.loc 1 65 0
  53 001a 0122     		movs	r2, #1
  54 001c C261     		str	r2, [r0, #28]
  66:Src/adc.c     ****   hadc1.Init.DiscontinuousConvMode = DISABLE;
  55              		.loc 1 66 0
  56 001e 4362     		str	r3, [r0, #36]
  67:Src/adc.c     ****   hadc1.Init.ExternalTrigConvEdge = ADC_EXTERNALTRIGCONVEDGE_NONE;
  57              		.loc 1 67 0
  58 0020 0363     		str	r3, [r0, #48]
  68:Src/adc.c     ****   hadc1.Init.ExternalTrigConv = ADC_SOFTWARE_START;
  59              		.loc 1 68 0
  60 0022 C262     		str	r2, [r0, #44]
  69:Src/adc.c     ****   hadc1.Init.DataAlign = ADC_DATAALIGN_RIGHT;
  61              		.loc 1 69 0
  62 0024 C360     		str	r3, [r0, #12]
  70:Src/adc.c     ****   hadc1.Init.NbrOfConversion = 1;
  63              		.loc 1 70 0
  64 0026 0262     		str	r2, [r0, #32]
  71:Src/adc.c     ****   hadc1.Init.DMAContinuousRequests = ENABLE;
  65              		.loc 1 71 0
  66 0028 4263     		str	r2, [r0, #52]
  72:Src/adc.c     ****   hadc1.Init.EOCSelection = ADC_EOC_SINGLE_CONV;
  67              		.loc 1 72 0
  68 002a 0422     		movs	r2, #4
  69 002c 4261     		str	r2, [r0, #20]
  73:Src/adc.c     ****   hadc1.Init.LowPowerAutoWait = DISABLE;
  70              		.loc 1 73 0
  71 002e 8361     		str	r3, [r0, #24]
  74:Src/adc.c     ****   hadc1.Init.Overrun = ADC_OVR_DATA_OVERWRITTEN;
  72              		.loc 1 74 0
  73 0030 8363     		str	r3, [r0, #56]
  75:Src/adc.c     ****   if (HAL_ADC_Init(&hadc1) != HAL_OK)
  74              		.loc 1 75 0
  75 0032 FFF7FEFF 		bl	HAL_ADC_Init
  76              	.LVL0:
  77 0036 B8B9     		cbnz	r0, .L6
  78              	.L2:
  76:Src/adc.c     ****   {
  77:Src/adc.c     ****     _Error_Handler(__FILE__, __LINE__);
  78:Src/adc.c     ****   }
  79:Src/adc.c     **** 
  80:Src/adc.c     ****     /**Configure the ADC multi-mode 
  81:Src/adc.c     ****     */
  82:Src/adc.c     ****   multimode.Mode = ADC_MODE_INDEPENDENT;
  79              		.loc 1 82 0
  80 0038 0AA9     		add	r1, sp, #40
  81 003a 0023     		movs	r3, #0
  82 003c 41F80C3D 		str	r3, [r1, #-12]!
  83:Src/adc.c     ****   if (HAL_ADCEx_MultiModeConfigChannel(&hadc1, &multimode) != HAL_OK)
  83              		.loc 1 83 0
  84 0040 1148     		ldr	r0, .L9
  85 0042 FFF7FEFF 		bl	HAL_ADCEx_MultiModeConfigChannel
  86              	.LVL1:
  87 0046 A0B9     		cbnz	r0, .L7
  88              	.L3:
  84:Src/adc.c     ****   {
ARM GAS  /var/folders/v3/wysfpd052nz8jkbx04pk0ym80000gn/T//cctWkQYp.s 			page 4


  85:Src/adc.c     ****     _Error_Handler(__FILE__, __LINE__);
  86:Src/adc.c     ****   }
  87:Src/adc.c     **** 
  88:Src/adc.c     ****     /**Configure Regular Channel 
  89:Src/adc.c     ****     */
  90:Src/adc.c     ****   sConfig.Channel = ADC_CHANNEL_1;
  89              		.loc 1 90 0
  90 0048 0123     		movs	r3, #1
  91 004a 0193     		str	r3, [sp, #4]
  91:Src/adc.c     ****   sConfig.Rank = 1;
  92              		.loc 1 91 0
  93 004c 0293     		str	r3, [sp, #8]
  92:Src/adc.c     ****   sConfig.SingleDiff = ADC_SINGLE_ENDED;
  94              		.loc 1 92 0
  95 004e 0023     		movs	r3, #0
  96 0050 0493     		str	r3, [sp, #16]
  93:Src/adc.c     ****   sConfig.SamplingTime = ADC_SAMPLETIME_1CYCLE_5;
  97              		.loc 1 93 0
  98 0052 0393     		str	r3, [sp, #12]
  94:Src/adc.c     ****   sConfig.OffsetNumber = ADC_OFFSET_NONE;
  99              		.loc 1 94 0
 100 0054 0593     		str	r3, [sp, #20]
  95:Src/adc.c     ****   sConfig.Offset = 0;
 101              		.loc 1 95 0
 102 0056 0693     		str	r3, [sp, #24]
  96:Src/adc.c     ****   if (HAL_ADC_ConfigChannel(&hadc1, &sConfig) != HAL_OK)
 103              		.loc 1 96 0
 104 0058 01A9     		add	r1, sp, #4
 105 005a 0B48     		ldr	r0, .L9
 106 005c FFF7FEFF 		bl	HAL_ADC_ConfigChannel
 107              	.LVL2:
 108 0060 60B9     		cbnz	r0, .L8
 109              	.L1:
  97:Src/adc.c     ****   {
  98:Src/adc.c     ****     _Error_Handler(__FILE__, __LINE__);
  99:Src/adc.c     ****   }
 100:Src/adc.c     **** 
 101:Src/adc.c     **** }
 110              		.loc 1 101 0
 111 0062 0BB0     		add	sp, sp, #44
 112              	.LCFI2:
 113              		.cfi_remember_state
 114              		.cfi_def_cfa_offset 4
 115              		@ sp needed
 116 0064 5DF804FB 		ldr	pc, [sp], #4
 117              	.L6:
 118              	.LCFI3:
 119              		.cfi_restore_state
  77:Src/adc.c     ****   }
 120              		.loc 1 77 0
 121 0068 4D21     		movs	r1, #77
 122 006a 0848     		ldr	r0, .L9+4
 123 006c FFF7FEFF 		bl	_Error_Handler
 124              	.LVL3:
 125 0070 E2E7     		b	.L2
 126              	.L7:
  85:Src/adc.c     ****   }
ARM GAS  /var/folders/v3/wysfpd052nz8jkbx04pk0ym80000gn/T//cctWkQYp.s 			page 5


 127              		.loc 1 85 0
 128 0072 5521     		movs	r1, #85
 129 0074 0548     		ldr	r0, .L9+4
 130 0076 FFF7FEFF 		bl	_Error_Handler
 131              	.LVL4:
 132 007a E5E7     		b	.L3
 133              	.L8:
  98:Src/adc.c     ****   }
 134              		.loc 1 98 0
 135 007c 6221     		movs	r1, #98
 136 007e 0348     		ldr	r0, .L9+4
 137 0080 FFF7FEFF 		bl	_Error_Handler
 138              	.LVL5:
 139              		.loc 1 101 0
 140 0084 EDE7     		b	.L1
 141              	.L10:
 142 0086 00BF     		.align	2
 143              	.L9:
 144 0088 00000000 		.word	hadc1
 145 008c 00000000 		.word	.LC0
 146              		.cfi_endproc
 147              	.LFE126:
 149              		.section	.text.HAL_ADC_MspInit,"ax",%progbits
 150              		.align	1
 151              		.global	HAL_ADC_MspInit
 152              		.syntax unified
 153              		.thumb
 154              		.thumb_func
 155              		.fpu fpv4-sp-d16
 157              	HAL_ADC_MspInit:
 158              	.LFB127:
 102:Src/adc.c     **** 
 103:Src/adc.c     **** void HAL_ADC_MspInit(ADC_HandleTypeDef* adcHandle)
 104:Src/adc.c     **** {
 159              		.loc 1 104 0
 160              		.cfi_startproc
 161              		@ args = 0, pretend = 0, frame = 24
 162              		@ frame_needed = 0, uses_anonymous_args = 0
 163              	.LVL6:
 105:Src/adc.c     **** 
 106:Src/adc.c     ****   GPIO_InitTypeDef GPIO_InitStruct;
 107:Src/adc.c     ****   if(adcHandle->Instance==ADC1)
 164              		.loc 1 107 0
 165 0000 0368     		ldr	r3, [r0]
 166 0002 B3F1A04F 		cmp	r3, #1342177280
 167 0006 00D0     		beq	.L18
 168 0008 7047     		bx	lr
 169              	.L18:
 104:Src/adc.c     **** 
 170              		.loc 1 104 0
 171 000a 30B5     		push	{r4, r5, lr}
 172              	.LCFI4:
 173              		.cfi_def_cfa_offset 12
 174              		.cfi_offset 4, -12
 175              		.cfi_offset 5, -8
 176              		.cfi_offset 14, -4
 177 000c 87B0     		sub	sp, sp, #28
ARM GAS  /var/folders/v3/wysfpd052nz8jkbx04pk0ym80000gn/T//cctWkQYp.s 			page 6


 178              	.LCFI5:
 179              		.cfi_def_cfa_offset 40
 180 000e 0446     		mov	r4, r0
 181              	.LBB2:
 108:Src/adc.c     ****   {
 109:Src/adc.c     ****   /* USER CODE BEGIN ADC1_MspInit 0 */
 110:Src/adc.c     **** 
 111:Src/adc.c     ****   /* USER CODE END ADC1_MspInit 0 */
 112:Src/adc.c     ****     /* ADC1 clock enable */
 113:Src/adc.c     ****     __HAL_RCC_ADC12_CLK_ENABLE();
 182              		.loc 1 113 0
 183 0010 03F17043 		add	r3, r3, #-268435456
 184 0014 03F50433 		add	r3, r3, #135168
 185 0018 5A69     		ldr	r2, [r3, #20]
 186 001a 42F08052 		orr	r2, r2, #268435456
 187 001e 5A61     		str	r2, [r3, #20]
 188 0020 5B69     		ldr	r3, [r3, #20]
 189 0022 03F08053 		and	r3, r3, #268435456
 190 0026 0093     		str	r3, [sp]
 191 0028 009B     		ldr	r3, [sp]
 192              	.LBE2:
 114:Src/adc.c     ****   
 115:Src/adc.c     ****     /**ADC1 GPIO Configuration    
 116:Src/adc.c     ****     PA0     ------> ADC1_IN1
 117:Src/adc.c     ****     PA1     ------> ADC1_IN2 
 118:Src/adc.c     ****     */
 119:Src/adc.c     ****     GPIO_InitStruct.Pin = GPIO_PIN_0|GPIO_PIN_1;
 193              		.loc 1 119 0
 194 002a 0323     		movs	r3, #3
 195 002c 0193     		str	r3, [sp, #4]
 120:Src/adc.c     ****     GPIO_InitStruct.Mode = GPIO_MODE_ANALOG;
 196              		.loc 1 120 0
 197 002e 0293     		str	r3, [sp, #8]
 121:Src/adc.c     ****     GPIO_InitStruct.Pull = GPIO_NOPULL;
 198              		.loc 1 121 0
 199 0030 0025     		movs	r5, #0
 200 0032 0395     		str	r5, [sp, #12]
 122:Src/adc.c     ****     HAL_GPIO_Init(GPIOA, &GPIO_InitStruct);
 201              		.loc 1 122 0
 202 0034 01A9     		add	r1, sp, #4
 203 0036 4FF09040 		mov	r0, #1207959552
 204              	.LVL7:
 205 003a FFF7FEFF 		bl	HAL_GPIO_Init
 206              	.LVL8:
 123:Src/adc.c     **** 
 124:Src/adc.c     ****     /* ADC1 DMA Init */
 125:Src/adc.c     ****     /* ADC1 Init */
 126:Src/adc.c     ****     hdma_adc1.Instance = DMA1_Channel1;
 207              		.loc 1 126 0
 208 003e 0E48     		ldr	r0, .L20
 209 0040 0E4B     		ldr	r3, .L20+4
 210 0042 0360     		str	r3, [r0]
 127:Src/adc.c     ****     hdma_adc1.Init.Direction = DMA_PERIPH_TO_MEMORY;
 211              		.loc 1 127 0
 212 0044 4560     		str	r5, [r0, #4]
 128:Src/adc.c     ****     hdma_adc1.Init.PeriphInc = DMA_PINC_DISABLE;
 213              		.loc 1 128 0
ARM GAS  /var/folders/v3/wysfpd052nz8jkbx04pk0ym80000gn/T//cctWkQYp.s 			page 7


 214 0046 8560     		str	r5, [r0, #8]
 129:Src/adc.c     ****     hdma_adc1.Init.MemInc = DMA_MINC_ENABLE;
 215              		.loc 1 129 0
 216 0048 8023     		movs	r3, #128
 217 004a C360     		str	r3, [r0, #12]
 130:Src/adc.c     ****     hdma_adc1.Init.PeriphDataAlignment = DMA_PDATAALIGN_HALFWORD;
 218              		.loc 1 130 0
 219 004c 4FF48073 		mov	r3, #256
 220 0050 0361     		str	r3, [r0, #16]
 131:Src/adc.c     ****     hdma_adc1.Init.MemDataAlignment = DMA_MDATAALIGN_HALFWORD;
 221              		.loc 1 131 0
 222 0052 4FF48063 		mov	r3, #1024
 223 0056 4361     		str	r3, [r0, #20]
 132:Src/adc.c     ****     hdma_adc1.Init.Mode = DMA_CIRCULAR;
 224              		.loc 1 132 0
 225 0058 2023     		movs	r3, #32
 226 005a 8361     		str	r3, [r0, #24]
 133:Src/adc.c     ****     hdma_adc1.Init.Priority = DMA_PRIORITY_LOW;
 227              		.loc 1 133 0
 228 005c C561     		str	r5, [r0, #28]
 134:Src/adc.c     ****     if (HAL_DMA_Init(&hdma_adc1) != HAL_OK)
 229              		.loc 1 134 0
 230 005e FFF7FEFF 		bl	HAL_DMA_Init
 231              	.LVL9:
 232 0062 20B9     		cbnz	r0, .L19
 233              	.L13:
 135:Src/adc.c     ****     {
 136:Src/adc.c     ****       _Error_Handler(__FILE__, __LINE__);
 137:Src/adc.c     ****     }
 138:Src/adc.c     **** 
 139:Src/adc.c     ****     __HAL_LINKDMA(adcHandle,DMA_Handle,hdma_adc1);
 234              		.loc 1 139 0
 235 0064 044B     		ldr	r3, .L20
 236 0066 E363     		str	r3, [r4, #60]
 237 0068 5C62     		str	r4, [r3, #36]
 140:Src/adc.c     **** 
 141:Src/adc.c     ****   /* USER CODE BEGIN ADC1_MspInit 1 */
 142:Src/adc.c     **** 
 143:Src/adc.c     ****   /* USER CODE END ADC1_MspInit 1 */
 144:Src/adc.c     ****   }
 145:Src/adc.c     **** }
 238              		.loc 1 145 0
 239 006a 07B0     		add	sp, sp, #28
 240              	.LCFI6:
 241              		.cfi_remember_state
 242              		.cfi_def_cfa_offset 12
 243              		@ sp needed
 244 006c 30BD     		pop	{r4, r5, pc}
 245              	.LVL10:
 246              	.L19:
 247              	.LCFI7:
 248              		.cfi_restore_state
 136:Src/adc.c     ****     }
 249              		.loc 1 136 0
 250 006e 8821     		movs	r1, #136
 251 0070 0348     		ldr	r0, .L20+8
 252 0072 FFF7FEFF 		bl	_Error_Handler
ARM GAS  /var/folders/v3/wysfpd052nz8jkbx04pk0ym80000gn/T//cctWkQYp.s 			page 8


 253              	.LVL11:
 254 0076 F5E7     		b	.L13
 255              	.L21:
 256              		.align	2
 257              	.L20:
 258 0078 00000000 		.word	hdma_adc1
 259 007c 08000240 		.word	1073872904
 260 0080 00000000 		.word	.LC0
 261              		.cfi_endproc
 262              	.LFE127:
 264              		.section	.text.HAL_ADC_MspDeInit,"ax",%progbits
 265              		.align	1
 266              		.global	HAL_ADC_MspDeInit
 267              		.syntax unified
 268              		.thumb
 269              		.thumb_func
 270              		.fpu fpv4-sp-d16
 272              	HAL_ADC_MspDeInit:
 273              	.LFB128:
 146:Src/adc.c     **** 
 147:Src/adc.c     **** void HAL_ADC_MspDeInit(ADC_HandleTypeDef* adcHandle)
 148:Src/adc.c     **** {
 274              		.loc 1 148 0
 275              		.cfi_startproc
 276              		@ args = 0, pretend = 0, frame = 0
 277              		@ frame_needed = 0, uses_anonymous_args = 0
 278              	.LVL12:
 149:Src/adc.c     **** 
 150:Src/adc.c     ****   if(adcHandle->Instance==ADC1)
 279              		.loc 1 150 0
 280 0000 0368     		ldr	r3, [r0]
 281 0002 B3F1A04F 		cmp	r3, #1342177280
 282 0006 00D0     		beq	.L28
 283 0008 7047     		bx	lr
 284              	.L28:
 148:Src/adc.c     **** 
 285              		.loc 1 148 0
 286 000a 10B5     		push	{r4, lr}
 287              	.LCFI8:
 288              		.cfi_def_cfa_offset 8
 289              		.cfi_offset 4, -8
 290              		.cfi_offset 14, -4
 291 000c 0446     		mov	r4, r0
 151:Src/adc.c     ****   {
 152:Src/adc.c     ****   /* USER CODE BEGIN ADC1_MspDeInit 0 */
 153:Src/adc.c     **** 
 154:Src/adc.c     ****   /* USER CODE END ADC1_MspDeInit 0 */
 155:Src/adc.c     ****     /* Peripheral clock disable */
 156:Src/adc.c     ****     __HAL_RCC_ADC12_CLK_DISABLE();
 292              		.loc 1 156 0
 293 000e 074A     		ldr	r2, .L29
 294 0010 5369     		ldr	r3, [r2, #20]
 295 0012 23F08053 		bic	r3, r3, #268435456
 296 0016 5361     		str	r3, [r2, #20]
 157:Src/adc.c     ****   
 158:Src/adc.c     ****     /**ADC1 GPIO Configuration    
 159:Src/adc.c     ****     PA0     ------> ADC1_IN1
ARM GAS  /var/folders/v3/wysfpd052nz8jkbx04pk0ym80000gn/T//cctWkQYp.s 			page 9


 160:Src/adc.c     ****     PA1     ------> ADC1_IN2 
 161:Src/adc.c     ****     */
 162:Src/adc.c     ****     HAL_GPIO_DeInit(GPIOA, GPIO_PIN_0|GPIO_PIN_1);
 297              		.loc 1 162 0
 298 0018 0321     		movs	r1, #3
 299 001a 4FF09040 		mov	r0, #1207959552
 300              	.LVL13:
 301 001e FFF7FEFF 		bl	HAL_GPIO_DeInit
 302              	.LVL14:
 163:Src/adc.c     **** 
 164:Src/adc.c     ****     /* ADC1 DMA DeInit */
 165:Src/adc.c     ****     HAL_DMA_DeInit(adcHandle->DMA_Handle);
 303              		.loc 1 165 0
 304 0022 E06B     		ldr	r0, [r4, #60]
 305 0024 FFF7FEFF 		bl	HAL_DMA_DeInit
 306              	.LVL15:
 166:Src/adc.c     ****   /* USER CODE BEGIN ADC1_MspDeInit 1 */
 167:Src/adc.c     **** 
 168:Src/adc.c     ****   /* USER CODE END ADC1_MspDeInit 1 */
 169:Src/adc.c     ****   }
 170:Src/adc.c     **** } 
 307              		.loc 1 170 0
 308 0028 10BD     		pop	{r4, pc}
 309              	.LVL16:
 310              	.L30:
 311 002a 00BF     		.align	2
 312              	.L29:
 313 002c 00100240 		.word	1073876992
 314              		.cfi_endproc
 315              	.LFE128:
 317              		.comm	hdma_adc1,68,4
 318              		.comm	hadc1,84,4
 319              		.section	.rodata.MX_ADC1_Init.str1.4,"aMS",%progbits,1
 320              		.align	2
 321              	.LC0:
 322 0000 5372632F 		.ascii	"Src/adc.c\000"
 322      6164632E 
 322      6300
 323              		.text
 324              	.Letext0:
 325              		.file 2 "/usr/local/gcc-arm-none-eabi-7-2018-q2-update/arm-none-eabi/include/machine/_default_type
 326              		.file 3 "/usr/local/gcc-arm-none-eabi-7-2018-q2-update/arm-none-eabi/include/sys/_stdint.h"
 327              		.file 4 "Drivers/CMSIS/Include/core_cm4.h"
 328              		.file 5 "Drivers/CMSIS/Device/ST/STM32F3xx/Include/system_stm32f3xx.h"
 329              		.file 6 "Drivers/CMSIS/Device/ST/STM32F3xx/Include/stm32f303x8.h"
 330              		.file 7 "/usr/local/gcc-arm-none-eabi-7-2018-q2-update/arm-none-eabi/include/sys/lock.h"
 331              		.file 8 "/usr/local/gcc-arm-none-eabi-7-2018-q2-update/arm-none-eabi/include/sys/_types.h"
 332              		.file 9 "/usr/local/gcc-arm-none-eabi-7-2018-q2-update/lib/gcc/arm-none-eabi/7.3.1/include/stddef.
 333              		.file 10 "/usr/local/gcc-arm-none-eabi-7-2018-q2-update/arm-none-eabi/include/sys/reent.h"
 334              		.file 11 "Drivers/CMSIS/Device/ST/STM32F3xx/Include/stm32f3xx.h"
 335              		.file 12 "Drivers/STM32F3xx_HAL_Driver/Inc/stm32f3xx_hal_def.h"
 336              		.file 13 "Drivers/STM32F3xx_HAL_Driver/Inc/stm32f3xx_hal_gpio.h"
 337              		.file 14 "Drivers/STM32F3xx_HAL_Driver/Inc/stm32f3xx_hal_dma.h"
 338              		.file 15 "Drivers/STM32F3xx_HAL_Driver/Inc/stm32f3xx_hal_adc_ex.h"
 339              		.file 16 "Drivers/STM32F3xx_HAL_Driver/Inc/stm32f3xx_hal_adc.h"
 340              		.file 17 "Inc/adc.h"
 341              		.file 18 "Inc/dma.h"
ARM GAS  /var/folders/v3/wysfpd052nz8jkbx04pk0ym80000gn/T//cctWkQYp.s 			page 10


ARM GAS  /var/folders/v3/wysfpd052nz8jkbx04pk0ym80000gn/T//cctWkQYp.s 			page 11


DEFINED SYMBOLS
                            *ABS*:0000000000000000 adc.c
/var/folders/v3/wysfpd052nz8jkbx04pk0ym80000gn/T//cctWkQYp.s:18     .text.MX_ADC1_Init:0000000000000000 $t
/var/folders/v3/wysfpd052nz8jkbx04pk0ym80000gn/T//cctWkQYp.s:25     .text.MX_ADC1_Init:0000000000000000 MX_ADC1_Init
/var/folders/v3/wysfpd052nz8jkbx04pk0ym80000gn/T//cctWkQYp.s:144    .text.MX_ADC1_Init:0000000000000088 $d
                            *COM*:0000000000000054 hadc1
/var/folders/v3/wysfpd052nz8jkbx04pk0ym80000gn/T//cctWkQYp.s:150    .text.HAL_ADC_MspInit:0000000000000000 $t
/var/folders/v3/wysfpd052nz8jkbx04pk0ym80000gn/T//cctWkQYp.s:157    .text.HAL_ADC_MspInit:0000000000000000 HAL_ADC_MspInit
/var/folders/v3/wysfpd052nz8jkbx04pk0ym80000gn/T//cctWkQYp.s:258    .text.HAL_ADC_MspInit:0000000000000078 $d
                            *COM*:0000000000000044 hdma_adc1
/var/folders/v3/wysfpd052nz8jkbx04pk0ym80000gn/T//cctWkQYp.s:265    .text.HAL_ADC_MspDeInit:0000000000000000 $t
/var/folders/v3/wysfpd052nz8jkbx04pk0ym80000gn/T//cctWkQYp.s:272    .text.HAL_ADC_MspDeInit:0000000000000000 HAL_ADC_MspDeInit
/var/folders/v3/wysfpd052nz8jkbx04pk0ym80000gn/T//cctWkQYp.s:313    .text.HAL_ADC_MspDeInit:000000000000002c $d
/var/folders/v3/wysfpd052nz8jkbx04pk0ym80000gn/T//cctWkQYp.s:320    .rodata.MX_ADC1_Init.str1.4:0000000000000000 $d

UNDEFINED SYMBOLS
HAL_ADC_Init
HAL_ADCEx_MultiModeConfigChannel
HAL_ADC_ConfigChannel
_Error_Handler
HAL_GPIO_Init
HAL_DMA_Init
HAL_GPIO_DeInit
HAL_DMA_DeInit
