ARM GAS  /var/folders/v3/wysfpd052nz8jkbx04pk0ym80000gn/T//ccHPQrhF.s 			page 1


   1              		.cpu cortex-m4
   2              		.eabi_attribute 27, 1
   3              		.eabi_attribute 28, 1
   4              		.eabi_attribute 20, 1
   5              		.eabi_attribute 21, 1
   6              		.eabi_attribute 23, 3
   7              		.eabi_attribute 24, 1
   8              		.eabi_attribute 25, 1
   9              		.eabi_attribute 26, 1
  10              		.eabi_attribute 30, 1
  11              		.eabi_attribute 34, 1
  12              		.eabi_attribute 18, 4
  13              		.file	"basic.c"
  14              		.text
  15              	.Ltext0:
  16              		.cfi_sections	.debug_frame
  17              		.section	.text.StrLength,"ax",%progbits
  18              		.align	1
  19              		.global	StrLength
  20              		.syntax unified
  21              		.thumb
  22              		.thumb_func
  23              		.fpu fpv4-sp-d16
  25              	StrLength:
  26              	.LFB126:
  27              		.file 1 "/Users/imashio/Electronics/ARM/_Library/basic.c"
   1:/Users/imashio/Electronics/ARM/_Library/basic.c **** /* Includes ------------------------------------------------------------------*/
   2:/Users/imashio/Electronics/ARM/_Library/basic.c **** #include "main.h"
   3:/Users/imashio/Electronics/ARM/_Library/basic.c **** #include "stm32f3xx_hal.h"
   4:/Users/imashio/Electronics/ARM/_Library/basic.c **** 
   5:/Users/imashio/Electronics/ARM/_Library/basic.c **** // Count character length
   6:/Users/imashio/Electronics/ARM/_Library/basic.c **** int StrLength(const char *s){
  28              		.loc 1 6 0
  29              		.cfi_startproc
  30              		@ args = 0, pretend = 0, frame = 0
  31              		@ frame_needed = 0, uses_anonymous_args = 0
  32              		@ link register save eliminated.
  33              	.LVL0:
   7:/Users/imashio/Electronics/ARM/_Library/basic.c ****     uint8_t n = 0;
  34              		.loc 1 7 0
  35 0000 0023     		movs	r3, #0
   8:/Users/imashio/Electronics/ARM/_Library/basic.c ****     while (*s++ != '\0')
  36              		.loc 1 8 0
  37 0002 02E0     		b	.L2
  38              	.LVL1:
  39              	.L3:
   9:/Users/imashio/Electronics/ARM/_Library/basic.c ****         n++;
  40              		.loc 1 9 0
  41 0004 0133     		adds	r3, r3, #1
  42              	.LVL2:
  43 0006 DBB2     		uxtb	r3, r3
  44              	.LVL3:
   8:/Users/imashio/Electronics/ARM/_Library/basic.c ****     while (*s++ != '\0')
  45              		.loc 1 8 0
  46 0008 0846     		mov	r0, r1
  47              	.LVL4:
  48              	.L2:
ARM GAS  /var/folders/v3/wysfpd052nz8jkbx04pk0ym80000gn/T//ccHPQrhF.s 			page 2


  49 000a 411C     		adds	r1, r0, #1
  50              	.LVL5:
  51 000c 0278     		ldrb	r2, [r0]	@ zero_extendqisi2
  52 000e 002A     		cmp	r2, #0
  53 0010 F8D1     		bne	.L3
  10:/Users/imashio/Electronics/ARM/_Library/basic.c ****     return (n);
  11:/Users/imashio/Electronics/ARM/_Library/basic.c **** }
  54              		.loc 1 11 0
  55 0012 1846     		mov	r0, r3
  56 0014 7047     		bx	lr
  57              		.cfi_endproc
  58              	.LFE126:
  60              		.section	.text.delayInit,"ax",%progbits
  61              		.align	1
  62              		.global	delayInit
  63              		.syntax unified
  64              		.thumb
  65              		.thumb_func
  66              		.fpu fpv4-sp-d16
  68              	delayInit:
  69              	.LFB127:
  12:/Users/imashio/Electronics/ARM/_Library/basic.c **** 
  13:/Users/imashio/Electronics/ARM/_Library/basic.c **** 
  14:/Users/imashio/Electronics/ARM/_Library/basic.c **** 
  15:/Users/imashio/Electronics/ARM/_Library/basic.c **** // SYSTICK delay (DO NOT USE with intteruput)
  16:/Users/imashio/Electronics/ARM/_Library/basic.c **** __IO uint32_t DelayCnt;
  17:/Users/imashio/Electronics/ARM/_Library/basic.c **** uint32_t Cnt_ms;
  18:/Users/imashio/Electronics/ARM/_Library/basic.c **** uint32_t Cnt_us;
  19:/Users/imashio/Electronics/ARM/_Library/basic.c **** uint32_t Cnt_100ns;
  20:/Users/imashio/Electronics/ARM/_Library/basic.c **** 
  21:/Users/imashio/Electronics/ARM/_Library/basic.c **** void delayInit(void)
  22:/Users/imashio/Electronics/ARM/_Library/basic.c **** {
  70              		.loc 1 22 0
  71              		.cfi_startproc
  72              		@ args = 0, pretend = 0, frame = 0
  73              		@ frame_needed = 0, uses_anonymous_args = 0
  74 0000 08B5     		push	{r3, lr}
  75              	.LCFI0:
  76              		.cfi_def_cfa_offset 8
  77              		.cfi_offset 3, -8
  78              		.cfi_offset 14, -4
  23:/Users/imashio/Electronics/ARM/_Library/basic.c ****   uint32_t freq;
  24:/Users/imashio/Electronics/ARM/_Library/basic.c ****   freq = HAL_RCC_GetHCLKFreq();
  79              		.loc 1 24 0
  80 0002 FFF7FEFF 		bl	HAL_RCC_GetHCLKFreq
  81              	.LVL6:
  25:/Users/imashio/Electronics/ARM/_Library/basic.c ****   Cnt_ms = 1 * (freq/1000);
  82              		.loc 1 25 0
  83 0006 064B     		ldr	r3, .L6
  84 0008 A3FB0023 		umull	r2, r3, r3, r0
  85 000c 9B09     		lsrs	r3, r3, #6
  86 000e 054A     		ldr	r2, .L6+4
  87 0010 1360     		str	r3, [r2]
  26:/Users/imashio/Electronics/ARM/_Library/basic.c ****   Cnt_us = 1 * (freq/1000000);
  88              		.loc 1 26 0
  89 0012 054B     		ldr	r3, .L6+8
  90 0014 A3FB0030 		umull	r3, r0, r3, r0
ARM GAS  /var/folders/v3/wysfpd052nz8jkbx04pk0ym80000gn/T//ccHPQrhF.s 			page 3


  91              	.LVL7:
  92 0018 800C     		lsrs	r0, r0, #18
  93 001a 044B     		ldr	r3, .L6+12
  94 001c 1860     		str	r0, [r3]
  27:/Users/imashio/Electronics/ARM/_Library/basic.c **** }
  95              		.loc 1 27 0
  96 001e 08BD     		pop	{r3, pc}
  97              	.L7:
  98              		.align	2
  99              	.L6:
 100 0020 D34D6210 		.word	274877907
 101 0024 00000000 		.word	Cnt_ms
 102 0028 83DE1B43 		.word	1125899907
 103 002c 00000000 		.word	Cnt_us
 104              		.cfi_endproc
 105              	.LFE127:
 107              		.section	.text.delay_us,"ax",%progbits
 108              		.align	1
 109              		.global	delay_us
 110              		.syntax unified
 111              		.thumb
 112              		.thumb_func
 113              		.fpu fpv4-sp-d16
 115              	delay_us:
 116              	.LFB128:
  28:/Users/imashio/Electronics/ARM/_Library/basic.c **** 
  29:/Users/imashio/Electronics/ARM/_Library/basic.c **** void delay_us(uint32_t t_us)
  30:/Users/imashio/Electronics/ARM/_Library/basic.c **** {
 117              		.loc 1 30 0
 118              		.cfi_startproc
 119              		@ args = 0, pretend = 0, frame = 0
 120              		@ frame_needed = 0, uses_anonymous_args = 0
 121              	.LVL8:
 122 0000 10B5     		push	{r4, lr}
 123              	.LCFI1:
 124              		.cfi_def_cfa_offset 8
 125              		.cfi_offset 4, -8
 126              		.cfi_offset 14, -4
 127 0002 0446     		mov	r4, r0
  31:/Users/imashio/Electronics/ARM/_Library/basic.c **** 	HAL_SYSTICK_Config(Cnt_us-1);
 128              		.loc 1 31 0
 129 0004 054B     		ldr	r3, .L11
 130 0006 1868     		ldr	r0, [r3]
 131              	.LVL9:
 132 0008 0138     		subs	r0, r0, #1
 133 000a FFF7FEFF 		bl	HAL_SYSTICK_Config
 134              	.LVL10:
  32:/Users/imashio/Electronics/ARM/_Library/basic.c **** 	DelayCnt = t_us;
 135              		.loc 1 32 0
 136 000e 044B     		ldr	r3, .L11+4
 137 0010 1C60     		str	r4, [r3]
 138              	.L9:
  33:/Users/imashio/Electronics/ARM/_Library/basic.c **** 	while( DelayCnt != 0 );
 139              		.loc 1 33 0 discriminator 1
 140 0012 034B     		ldr	r3, .L11+4
 141 0014 1B68     		ldr	r3, [r3]
 142 0016 002B     		cmp	r3, #0
ARM GAS  /var/folders/v3/wysfpd052nz8jkbx04pk0ym80000gn/T//ccHPQrhF.s 			page 4


 143 0018 FBD1     		bne	.L9
  34:/Users/imashio/Electronics/ARM/_Library/basic.c **** }
 144              		.loc 1 34 0
 145 001a 10BD     		pop	{r4, pc}
 146              	.LVL11:
 147              	.L12:
 148              		.align	2
 149              	.L11:
 150 001c 00000000 		.word	Cnt_us
 151 0020 00000000 		.word	DelayCnt
 152              		.cfi_endproc
 153              	.LFE128:
 155              		.section	.text.delay_ms,"ax",%progbits
 156              		.align	1
 157              		.global	delay_ms
 158              		.syntax unified
 159              		.thumb
 160              		.thumb_func
 161              		.fpu fpv4-sp-d16
 163              	delay_ms:
 164              	.LFB129:
  35:/Users/imashio/Electronics/ARM/_Library/basic.c **** 
  36:/Users/imashio/Electronics/ARM/_Library/basic.c **** void delay_ms(uint32_t t_ms)
  37:/Users/imashio/Electronics/ARM/_Library/basic.c **** {
 165              		.loc 1 37 0
 166              		.cfi_startproc
 167              		@ args = 0, pretend = 0, frame = 0
 168              		@ frame_needed = 0, uses_anonymous_args = 0
 169              	.LVL12:
 170 0000 10B5     		push	{r4, lr}
 171              	.LCFI2:
 172              		.cfi_def_cfa_offset 8
 173              		.cfi_offset 4, -8
 174              		.cfi_offset 14, -4
 175 0002 0446     		mov	r4, r0
  38:/Users/imashio/Electronics/ARM/_Library/basic.c **** 	HAL_SYSTICK_Config(Cnt_ms-1);
 176              		.loc 1 38 0
 177 0004 054B     		ldr	r3, .L16
 178 0006 1868     		ldr	r0, [r3]
 179              	.LVL13:
 180 0008 0138     		subs	r0, r0, #1
 181 000a FFF7FEFF 		bl	HAL_SYSTICK_Config
 182              	.LVL14:
  39:/Users/imashio/Electronics/ARM/_Library/basic.c **** 	DelayCnt = t_ms;
 183              		.loc 1 39 0
 184 000e 044B     		ldr	r3, .L16+4
 185 0010 1C60     		str	r4, [r3]
 186              	.L14:
  40:/Users/imashio/Electronics/ARM/_Library/basic.c **** 	while( DelayCnt != 0 );
 187              		.loc 1 40 0 discriminator 1
 188 0012 034B     		ldr	r3, .L16+4
 189 0014 1B68     		ldr	r3, [r3]
 190 0016 002B     		cmp	r3, #0
 191 0018 FBD1     		bne	.L14
  41:/Users/imashio/Electronics/ARM/_Library/basic.c **** }
 192              		.loc 1 41 0
 193 001a 10BD     		pop	{r4, pc}
ARM GAS  /var/folders/v3/wysfpd052nz8jkbx04pk0ym80000gn/T//ccHPQrhF.s 			page 5


 194              	.LVL15:
 195              	.L17:
 196              		.align	2
 197              	.L16:
 198 001c 00000000 		.word	Cnt_ms
 199 0020 00000000 		.word	DelayCnt
 200              		.cfi_endproc
 201              	.LFE129:
 203              		.comm	Cnt_100ns,4,4
 204              		.comm	Cnt_us,4,4
 205              		.comm	Cnt_ms,4,4
 206              		.comm	DelayCnt,4,4
 207              		.text
 208              	.Letext0:
 209              		.file 2 "/usr/local/gcc-arm-none-eabi-7-2018-q2-update/arm-none-eabi/include/machine/_default_type
 210              		.file 3 "/usr/local/gcc-arm-none-eabi-7-2018-q2-update/arm-none-eabi/include/sys/_stdint.h"
 211              		.file 4 "Drivers/CMSIS/Include/core_cm4.h"
 212              		.file 5 "Drivers/CMSIS/Device/ST/STM32F3xx/Include/system_stm32f3xx.h"
 213              		.file 6 "/usr/local/gcc-arm-none-eabi-7-2018-q2-update/arm-none-eabi/include/sys/lock.h"
 214              		.file 7 "/usr/local/gcc-arm-none-eabi-7-2018-q2-update/arm-none-eabi/include/sys/_types.h"
 215              		.file 8 "/usr/local/gcc-arm-none-eabi-7-2018-q2-update/lib/gcc/arm-none-eabi/7.3.1/include/stddef.
 216              		.file 9 "/usr/local/gcc-arm-none-eabi-7-2018-q2-update/arm-none-eabi/include/sys/reent.h"
 217              		.file 10 "Drivers/STM32F3xx_HAL_Driver/Inc/stm32f3xx_hal_cortex.h"
 218              		.file 11 "Drivers/STM32F3xx_HAL_Driver/Inc/stm32f3xx_hal_rcc.h"
ARM GAS  /var/folders/v3/wysfpd052nz8jkbx04pk0ym80000gn/T//ccHPQrhF.s 			page 6


DEFINED SYMBOLS
                            *ABS*:0000000000000000 basic.c
/var/folders/v3/wysfpd052nz8jkbx04pk0ym80000gn/T//ccHPQrhF.s:18     .text.StrLength:0000000000000000 $t
/var/folders/v3/wysfpd052nz8jkbx04pk0ym80000gn/T//ccHPQrhF.s:25     .text.StrLength:0000000000000000 StrLength
/var/folders/v3/wysfpd052nz8jkbx04pk0ym80000gn/T//ccHPQrhF.s:61     .text.delayInit:0000000000000000 $t
/var/folders/v3/wysfpd052nz8jkbx04pk0ym80000gn/T//ccHPQrhF.s:68     .text.delayInit:0000000000000000 delayInit
/var/folders/v3/wysfpd052nz8jkbx04pk0ym80000gn/T//ccHPQrhF.s:100    .text.delayInit:0000000000000020 $d
                            *COM*:0000000000000004 Cnt_ms
                            *COM*:0000000000000004 Cnt_us
/var/folders/v3/wysfpd052nz8jkbx04pk0ym80000gn/T//ccHPQrhF.s:108    .text.delay_us:0000000000000000 $t
/var/folders/v3/wysfpd052nz8jkbx04pk0ym80000gn/T//ccHPQrhF.s:115    .text.delay_us:0000000000000000 delay_us
/var/folders/v3/wysfpd052nz8jkbx04pk0ym80000gn/T//ccHPQrhF.s:150    .text.delay_us:000000000000001c $d
                            *COM*:0000000000000004 DelayCnt
/var/folders/v3/wysfpd052nz8jkbx04pk0ym80000gn/T//ccHPQrhF.s:156    .text.delay_ms:0000000000000000 $t
/var/folders/v3/wysfpd052nz8jkbx04pk0ym80000gn/T//ccHPQrhF.s:163    .text.delay_ms:0000000000000000 delay_ms
/var/folders/v3/wysfpd052nz8jkbx04pk0ym80000gn/T//ccHPQrhF.s:198    .text.delay_ms:000000000000001c $d
                            *COM*:0000000000000004 Cnt_100ns

UNDEFINED SYMBOLS
HAL_RCC_GetHCLKFreq
HAL_SYSTICK_Config
