ARM GAS  /var/folders/v3/wysfpd052nz8jkbx04pk0ym80000gn/T//ccxb8FLR.s 			page 1


   1              		.cpu cortex-m4
   2              		.eabi_attribute 27, 1
   3              		.eabi_attribute 28, 1
   4              		.eabi_attribute 20, 1
   5              		.eabi_attribute 21, 1
   6              		.eabi_attribute 23, 3
   7              		.eabi_attribute 24, 1
   8              		.eabi_attribute 25, 1
   9              		.eabi_attribute 26, 1
  10              		.eabi_attribute 30, 2
  11              		.eabi_attribute 34, 1
  12              		.eabi_attribute 18, 4
  13              		.file	"draw_Value.c"
  14              		.text
  15              	.Ltext0:
  16              		.cfi_sections	.debug_frame
  17              		.section	.text.draw_MeasLabelUnit,"ax",%progbits
  18              		.align	1
  19              		.p2align 2,,3
  20              		.global	draw_MeasLabelUnit
  21              		.syntax unified
  22              		.thumb
  23              		.thumb_func
  24              		.fpu fpv4-sp-d16
  26              	draw_MeasLabelUnit:
  27              	.LFB0:
  28              		.file 1 "/Users/imashio/Electronics/ARM/_Library/draw_Value.c"
   1:/Users/imashio/Electronics/ARM/_Library/draw_Value.c **** /*
   2:/Users/imashio/Electronics/ARM/_Library/draw_Value.c ****  * drawStr.c
   3:/Users/imashio/Electronics/ARM/_Library/draw_Value.c ****  *
   4:/Users/imashio/Electronics/ARM/_Library/draw_Value.c ****  *  Created on: Jan 29, 2018
   5:/Users/imashio/Electronics/ARM/_Library/draw_Value.c ****  *      Author: imashio
   6:/Users/imashio/Electronics/ARM/_Library/draw_Value.c ****  */
   7:/Users/imashio/Electronics/ARM/_Library/draw_Value.c **** 
   8:/Users/imashio/Electronics/ARM/_Library/draw_Value.c **** #include "u8g2.h"		// graphic display library
   9:/Users/imashio/Electronics/ARM/_Library/draw_Value.c **** 
  10:/Users/imashio/Electronics/ARM/_Library/draw_Value.c **** 
  11:/Users/imashio/Electronics/ARM/_Library/draw_Value.c **** #define	meas_label_font		u8g2_font_5x8_tf
  12:/Users/imashio/Electronics/ARM/_Library/draw_Value.c **** #define	meas_label_font_b	u8g2_font_7x14B_tf
  13:/Users/imashio/Electronics/ARM/_Library/draw_Value.c **** #define	meas_unit_font		u8g2_font_4x6_tf
  14:/Users/imashio/Electronics/ARM/_Library/draw_Value.c **** #define	meas_unit_font_b	u8g2_font_7x14B_tf
  15:/Users/imashio/Electronics/ARM/_Library/draw_Value.c **** #define	meas_value_font		u8g2_font_7x14B_tf
  16:/Users/imashio/Electronics/ARM/_Library/draw_Value.c **** #define	meas_value_font_b	u8g2_font_10x20_tn
  17:/Users/imashio/Electronics/ARM/_Library/draw_Value.c **** //#define	meas_value_font_b	u8g2_font_logisoso16_tf // display BUG
  18:/Users/imashio/Electronics/ARM/_Library/draw_Value.c **** #define	meas_value_font_s	u8g2_font_6x10_tf
  19:/Users/imashio/Electronics/ARM/_Library/draw_Value.c **** #define	meas_value_font_xs	u8g2_font_5x8_tf
  20:/Users/imashio/Electronics/ARM/_Library/draw_Value.c **** 
  21:/Users/imashio/Electronics/ARM/_Library/draw_Value.c **** #define font_width			7
  22:/Users/imashio/Electronics/ARM/_Library/draw_Value.c **** #define font_width_b		10
  23:/Users/imashio/Electronics/ARM/_Library/draw_Value.c **** #define font_width_s		6
  24:/Users/imashio/Electronics/ARM/_Library/draw_Value.c **** #define font_width_xs		5
  25:/Users/imashio/Electronics/ARM/_Library/draw_Value.c **** 
  26:/Users/imashio/Electronics/ARM/_Library/draw_Value.c **** void draw_MeasLabelUnit(u8g2_t *u8g2, uint8_t x, uint8_t y, uint8_t width, uint8_t height, const ch
  29              		.loc 1 26 0
  30              		.cfi_startproc
  31              		@ args = 12, pretend = 0, frame = 0
  32              		@ frame_needed = 0, uses_anonymous_args = 0
ARM GAS  /var/folders/v3/wysfpd052nz8jkbx04pk0ym80000gn/T//ccxb8FLR.s 			page 2


  33              	.LVL0:
  34 0000 2DE9F047 		push	{r4, r5, r6, r7, r8, r9, r10, lr}
  35              	.LCFI0:
  36              		.cfi_def_cfa_offset 32
  37              		.cfi_offset 4, -32
  38              		.cfi_offset 5, -28
  39              		.cfi_offset 6, -24
  40              		.cfi_offset 7, -20
  41              		.cfi_offset 8, -16
  42              		.cfi_offset 9, -12
  43              		.cfi_offset 10, -8
  44              		.cfi_offset 14, -4
  45              		.loc 1 26 0
  46 0004 9DF820A0 		ldrb	r10, [sp, #32]	@ zero_extendqisi2
  47 0008 DDE90998 		ldrd	r9, r8, [sp, #36]
  48 000c 1546     		mov	r5, r2
  27:/Users/imashio/Electronics/ARM/_Library/draw_Value.c **** 	uint8_t	str_offset;
  28:/Users/imashio/Electronics/ARM/_Library/draw_Value.c **** 	u8g2_SetFont(u8g2, meas_label_font);
  29:/Users/imashio/Electronics/ARM/_Library/draw_Value.c **** 	u8g2_DrawStr(u8g2, x, y+height-2, name );
  49              		.loc 1 29 0
  50 000e AAF1020A 		sub	r10, r10, #2
  51 0012 5544     		add	r5, r5, r10
  26:/Users/imashio/Electronics/ARM/_Library/draw_Value.c **** 	uint8_t	str_offset;
  52              		.loc 1 26 0
  53 0014 0646     		mov	r6, r0
  54 0016 0C46     		mov	r4, r1
  55              		.loc 1 29 0
  56 0018 EDB2     		uxtb	r5, r5
  28:/Users/imashio/Electronics/ARM/_Library/draw_Value.c **** 	u8g2_DrawStr(u8g2, x, y+height-2, name );
  57              		.loc 1 28 0
  58 001a 0E49     		ldr	r1, .L4
  59              	.LVL1:
  26:/Users/imashio/Electronics/ARM/_Library/draw_Value.c **** 	uint8_t	str_offset;
  60              		.loc 1 26 0
  61 001c 1F46     		mov	r7, r3
  28:/Users/imashio/Electronics/ARM/_Library/draw_Value.c **** 	u8g2_DrawStr(u8g2, x, y+height-2, name );
  62              		.loc 1 28 0
  63 001e FFF7FEFF 		bl	u8g2_SetFont
  64              	.LVL2:
  65              		.loc 1 29 0
  66 0022 4B46     		mov	r3, r9
  67 0024 2A46     		mov	r2, r5
  68 0026 2146     		mov	r1, r4
  69 0028 3046     		mov	r0, r6
  70 002a FFF7FEFF 		bl	u8g2_DrawStr
  71              	.LVL3:
  30:/Users/imashio/Electronics/ARM/_Library/draw_Value.c **** 	u8g2_SetFont(u8g2, meas_unit_font);
  72              		.loc 1 30 0
  73 002e 3046     		mov	r0, r6
  74 0030 0949     		ldr	r1, .L4+4
  75 0032 FFF7FEFF 		bl	u8g2_SetFont
  76              	.LVL4:
  31:/Users/imashio/Electronics/ARM/_Library/draw_Value.c **** 	str_offset = (width-1) - (StrLength(unit)*4);
  77              		.loc 1 31 0
  78 0036 4046     		mov	r0, r8
  79 0038 FFF7FEFF 		bl	StrLength
  80              	.LVL5:
ARM GAS  /var/folders/v3/wysfpd052nz8jkbx04pk0ym80000gn/T//ccxb8FLR.s 			page 3


  32:/Users/imashio/Electronics/ARM/_Library/draw_Value.c **** 	u8g2_DrawStr(u8g2, x+str_offset, y+height-2, unit );
  81              		.loc 1 32 0
  82 003c 791E     		subs	r1, r7, #1
  83 003e 2144     		add	r1, r1, r4
  84 0040 A1EB8001 		sub	r1, r1, r0, lsl #2
  85 0044 2A46     		mov	r2, r5
  86 0046 4346     		mov	r3, r8
  87 0048 3046     		mov	r0, r6
  88              	.LVL6:
  89 004a C9B2     		uxtb	r1, r1
  33:/Users/imashio/Electronics/ARM/_Library/draw_Value.c **** }
  90              		.loc 1 33 0
  91 004c BDE8F047 		pop	{r4, r5, r6, r7, r8, r9, r10, lr}
  92              	.LCFI1:
  93              		.cfi_restore 14
  94              		.cfi_restore 10
  95              		.cfi_restore 9
  96              		.cfi_restore 8
  97              		.cfi_restore 7
  98              		.cfi_restore 6
  99              		.cfi_restore 5
 100              		.cfi_restore 4
 101              		.cfi_def_cfa_offset 0
 102              	.LVL7:
  32:/Users/imashio/Electronics/ARM/_Library/draw_Value.c **** 	u8g2_DrawStr(u8g2, x+str_offset, y+height-2, unit );
 103              		.loc 1 32 0
 104 0050 FFF7FEBF 		b	u8g2_DrawStr
 105              	.LVL8:
 106              	.L5:
 107              		.align	2
 108              	.L4:
 109 0054 00000000 		.word	u8g2_font_5x8_tf
 110 0058 00000000 		.word	u8g2_font_4x6_tf
 111              		.cfi_endproc
 112              	.LFE0:
 114              		.section	.text.draw_MeasLabelUnit_b,"ax",%progbits
 115              		.align	1
 116              		.p2align 2,,3
 117              		.global	draw_MeasLabelUnit_b
 118              		.syntax unified
 119              		.thumb
 120              		.thumb_func
 121              		.fpu fpv4-sp-d16
 123              	draw_MeasLabelUnit_b:
 124              	.LFB1:
  34:/Users/imashio/Electronics/ARM/_Library/draw_Value.c **** 
  35:/Users/imashio/Electronics/ARM/_Library/draw_Value.c **** void draw_MeasLabelUnit_b(u8g2_t *u8g2, uint8_t x, uint8_t y, uint8_t width, uint8_t height, const 
 125              		.loc 1 35 0
 126              		.cfi_startproc
 127              		@ args = 12, pretend = 0, frame = 0
 128              		@ frame_needed = 0, uses_anonymous_args = 0
 129              	.LVL9:
 130 0000 2DE9F04F 		push	{r4, r5, r6, r7, r8, r9, r10, fp, lr}
 131              	.LCFI2:
 132              		.cfi_def_cfa_offset 36
 133              		.cfi_offset 4, -36
 134              		.cfi_offset 5, -32
ARM GAS  /var/folders/v3/wysfpd052nz8jkbx04pk0ym80000gn/T//ccxb8FLR.s 			page 4


 135              		.cfi_offset 6, -28
 136              		.cfi_offset 7, -24
 137              		.cfi_offset 8, -20
 138              		.cfi_offset 9, -16
 139              		.cfi_offset 10, -12
 140              		.cfi_offset 11, -8
 141              		.cfi_offset 14, -4
 142 0004 81B0     		sub	sp, sp, #4
 143              	.LCFI3:
 144              		.cfi_def_cfa_offset 40
 145              		.loc 1 35 0
 146 0006 DDE90BA7 		ldrd	r10, r7, [sp, #44]
 147 000a 9DF828B0 		ldrb	fp, [sp, #40]	@ zero_extendqisi2
  36:/Users/imashio/Electronics/ARM/_Library/draw_Value.c **** 	uint8_t	str_offset;
  37:/Users/imashio/Electronics/ARM/_Library/draw_Value.c **** 	u8g2_SetFont(u8g2, meas_label_font_b);
 148              		.loc 1 37 0
 149 000e DFF85490 		ldr	r9, .L8
  35:/Users/imashio/Electronics/ARM/_Library/draw_Value.c **** 	uint8_t	str_offset;
 150              		.loc 1 35 0
 151 0012 1546     		mov	r5, r2
  38:/Users/imashio/Electronics/ARM/_Library/draw_Value.c **** 	u8g2_DrawStr(u8g2, x, y+height-2, name );
 152              		.loc 1 38 0
 153 0014 ABF1020B 		sub	fp, fp, #2
 154 0018 5D44     		add	r5, r5, fp
  35:/Users/imashio/Electronics/ARM/_Library/draw_Value.c **** 	uint8_t	str_offset;
 155              		.loc 1 35 0
 156 001a 0646     		mov	r6, r0
 157 001c 0C46     		mov	r4, r1
 158              		.loc 1 38 0
 159 001e EDB2     		uxtb	r5, r5
  37:/Users/imashio/Electronics/ARM/_Library/draw_Value.c **** 	u8g2_DrawStr(u8g2, x, y+height-2, name );
 160              		.loc 1 37 0
 161 0020 4946     		mov	r1, r9
 162              	.LVL10:
  35:/Users/imashio/Electronics/ARM/_Library/draw_Value.c **** 	uint8_t	str_offset;
 163              		.loc 1 35 0
 164 0022 9846     		mov	r8, r3
  37:/Users/imashio/Electronics/ARM/_Library/draw_Value.c **** 	u8g2_DrawStr(u8g2, x, y+height-2, name );
 165              		.loc 1 37 0
 166 0024 FFF7FEFF 		bl	u8g2_SetFont
 167              	.LVL11:
 168              		.loc 1 38 0
 169 0028 5346     		mov	r3, r10
 170 002a 2A46     		mov	r2, r5
 171 002c 2146     		mov	r1, r4
 172 002e 3046     		mov	r0, r6
 173 0030 FFF7FEFF 		bl	u8g2_DrawStr
 174              	.LVL12:
  39:/Users/imashio/Electronics/ARM/_Library/draw_Value.c **** 	u8g2_SetFont(u8g2, meas_unit_font_b);
 175              		.loc 1 39 0
 176 0034 4946     		mov	r1, r9
 177 0036 3046     		mov	r0, r6
 178 0038 FFF7FEFF 		bl	u8g2_SetFont
 179              	.LVL13:
  40:/Users/imashio/Electronics/ARM/_Library/draw_Value.c **** 	str_offset = (width-1) - (StrLength(unit)*7);
 180              		.loc 1 40 0
 181 003c 3846     		mov	r0, r7
ARM GAS  /var/folders/v3/wysfpd052nz8jkbx04pk0ym80000gn/T//ccxb8FLR.s 			page 5


 182 003e FFF7FEFF 		bl	StrLength
 183              	.LVL14:
  41:/Users/imashio/Electronics/ARM/_Library/draw_Value.c **** 	u8g2_DrawStr(u8g2, x+str_offset, y+height-2, unit );
 184              		.loc 1 41 0
 185 0042 08F1FF31 		add	r1, r8, #-1
  40:/Users/imashio/Electronics/ARM/_Library/draw_Value.c **** 	str_offset = (width-1) - (StrLength(unit)*7);
 186              		.loc 1 40 0
 187 0046 C0EB4012 		rsb	r2, r0, r0, lsl #5
 188              		.loc 1 41 0
 189 004a 0C44     		add	r4, r4, r1
  40:/Users/imashio/Electronics/ARM/_Library/draw_Value.c **** 	str_offset = (width-1) - (StrLength(unit)*7);
 190              		.loc 1 40 0
 191 004c 00EBC201 		add	r1, r0, r2, lsl #3
 192              		.loc 1 41 0
 193 0050 2144     		add	r1, r1, r4
 194 0052 2A46     		mov	r2, r5
 195 0054 3B46     		mov	r3, r7
 196 0056 C9B2     		uxtb	r1, r1
 197 0058 3046     		mov	r0, r6
 198              	.LVL15:
  42:/Users/imashio/Electronics/ARM/_Library/draw_Value.c **** }
 199              		.loc 1 42 0
 200 005a 01B0     		add	sp, sp, #4
 201              	.LCFI4:
 202              		.cfi_def_cfa_offset 36
 203              		@ sp needed
 204 005c BDE8F04F 		pop	{r4, r5, r6, r7, r8, r9, r10, fp, lr}
 205              	.LCFI5:
 206              		.cfi_restore 14
 207              		.cfi_restore 11
 208              		.cfi_restore 10
 209              		.cfi_restore 9
 210              		.cfi_restore 8
 211              		.cfi_restore 7
 212              		.cfi_restore 6
 213              		.cfi_restore 5
 214              		.cfi_restore 4
 215              		.cfi_def_cfa_offset 0
 216              	.LVL16:
  41:/Users/imashio/Electronics/ARM/_Library/draw_Value.c **** 	u8g2_DrawStr(u8g2, x+str_offset, y+height-2, unit );
 217              		.loc 1 41 0
 218 0060 FFF7FEBF 		b	u8g2_DrawStr
 219              	.LVL17:
 220              	.L9:
 221              		.align	2
 222              	.L8:
 223 0064 00000000 		.word	u8g2_font_7x14B_tf
 224              		.cfi_endproc
 225              	.LFE1:
 227              		.section	.text.draw_MeasLabel,"ax",%progbits
 228              		.align	1
 229              		.p2align 2,,3
 230              		.global	draw_MeasLabel
 231              		.syntax unified
 232              		.thumb
 233              		.thumb_func
 234              		.fpu fpv4-sp-d16
ARM GAS  /var/folders/v3/wysfpd052nz8jkbx04pk0ym80000gn/T//ccxb8FLR.s 			page 6


 236              	draw_MeasLabel:
 237              	.LFB2:
  43:/Users/imashio/Electronics/ARM/_Library/draw_Value.c **** 
  44:/Users/imashio/Electronics/ARM/_Library/draw_Value.c **** void draw_MeasLabel(u8g2_t *u8g2, uint8_t x, uint8_t y, uint8_t width, uint8_t height, const char *
 238              		.loc 1 44 0
 239              		.cfi_startproc
 240              		@ args = 8, pretend = 0, frame = 0
 241              		@ frame_needed = 0, uses_anonymous_args = 0
 242              	.LVL18:
 243 0000 2DE9F041 		push	{r4, r5, r6, r7, r8, lr}
 244              	.LCFI6:
 245              		.cfi_def_cfa_offset 24
 246              		.cfi_offset 4, -24
 247              		.cfi_offset 5, -20
 248              		.cfi_offset 6, -16
 249              		.cfi_offset 7, -12
 250              		.cfi_offset 8, -8
 251              		.cfi_offset 14, -4
 252              		.loc 1 44 0
 253 0004 9DF81850 		ldrb	r5, [sp, #24]	@ zero_extendqisi2
 254 0008 DDF81C80 		ldr	r8, [sp, #28]
 255 000c 0F46     		mov	r7, r1
  45:/Users/imashio/Electronics/ARM/_Library/draw_Value.c **** 	u8g2_SetFont(u8g2, meas_label_font);
 256              		.loc 1 45 0
 257 000e 0749     		ldr	r1, .L12
 258              	.LVL19:
  44:/Users/imashio/Electronics/ARM/_Library/draw_Value.c **** 	u8g2_SetFont(u8g2, meas_label_font);
 259              		.loc 1 44 0
 260 0010 1446     		mov	r4, r2
 261 0012 0646     		mov	r6, r0
 262              		.loc 1 45 0
 263 0014 FFF7FEFF 		bl	u8g2_SetFont
 264              	.LVL20:
  46:/Users/imashio/Electronics/ARM/_Library/draw_Value.c **** 	u8g2_DrawStr(u8g2, x, y+height-2, name );
 265              		.loc 1 46 0
 266 0018 AA1E     		subs	r2, r5, #2
 267 001a 2244     		add	r2, r2, r4
 268 001c 4346     		mov	r3, r8
 269 001e 3946     		mov	r1, r7
 270 0020 3046     		mov	r0, r6
 271 0022 D2B2     		uxtb	r2, r2
  47:/Users/imashio/Electronics/ARM/_Library/draw_Value.c **** }
 272              		.loc 1 47 0
 273 0024 BDE8F041 		pop	{r4, r5, r6, r7, r8, lr}
 274              	.LCFI7:
 275              		.cfi_restore 14
 276              		.cfi_restore 8
 277              		.cfi_restore 7
 278              		.cfi_restore 6
 279              		.cfi_restore 5
 280              		.cfi_restore 4
 281              		.cfi_def_cfa_offset 0
 282              	.LVL21:
  46:/Users/imashio/Electronics/ARM/_Library/draw_Value.c **** 	u8g2_DrawStr(u8g2, x, y+height-2, name );
 283              		.loc 1 46 0
 284 0028 FFF7FEBF 		b	u8g2_DrawStr
 285              	.LVL22:
ARM GAS  /var/folders/v3/wysfpd052nz8jkbx04pk0ym80000gn/T//ccxb8FLR.s 			page 7


 286              	.L13:
 287              		.align	2
 288              	.L12:
 289 002c 00000000 		.word	u8g2_font_5x8_tf
 290              		.cfi_endproc
 291              	.LFE2:
 293              		.section	.text.draw_MeasUnit,"ax",%progbits
 294              		.align	1
 295              		.p2align 2,,3
 296              		.global	draw_MeasUnit
 297              		.syntax unified
 298              		.thumb
 299              		.thumb_func
 300              		.fpu fpv4-sp-d16
 302              	draw_MeasUnit:
 303              	.LFB3:
  48:/Users/imashio/Electronics/ARM/_Library/draw_Value.c **** 
  49:/Users/imashio/Electronics/ARM/_Library/draw_Value.c **** void draw_MeasUnit(u8g2_t *u8g2, uint8_t x, uint8_t y, uint8_t width, uint8_t height, const char *u
 304              		.loc 1 49 0
 305              		.cfi_startproc
 306              		@ args = 8, pretend = 0, frame = 0
 307              		@ frame_needed = 0, uses_anonymous_args = 0
 308              	.LVL23:
 309 0000 2DE9F047 		push	{r4, r5, r6, r7, r8, r9, r10, lr}
 310              	.LCFI8:
 311              		.cfi_def_cfa_offset 32
 312              		.cfi_offset 4, -32
 313              		.cfi_offset 5, -28
 314              		.cfi_offset 6, -24
 315              		.cfi_offset 7, -20
 316              		.cfi_offset 8, -16
 317              		.cfi_offset 9, -12
 318              		.cfi_offset 10, -8
 319              		.cfi_offset 14, -4
 320              		.loc 1 49 0
 321 0004 099F     		ldr	r7, [sp, #36]
 322 0006 9DF82060 		ldrb	r6, [sp, #32]	@ zero_extendqisi2
 323 000a 8946     		mov	r9, r1
  50:/Users/imashio/Electronics/ARM/_Library/draw_Value.c **** 	uint8_t	str_offset;
  51:/Users/imashio/Electronics/ARM/_Library/draw_Value.c **** 	u8g2_SetFont(u8g2, meas_unit_font);
 324              		.loc 1 51 0
 325 000c 0B49     		ldr	r1, .L16
 326              	.LVL24:
  49:/Users/imashio/Electronics/ARM/_Library/draw_Value.c **** 	uint8_t	str_offset;
 327              		.loc 1 49 0
 328 000e 1546     		mov	r5, r2
 329 0010 1C46     		mov	r4, r3
 330 0012 8046     		mov	r8, r0
 331              		.loc 1 51 0
 332 0014 FFF7FEFF 		bl	u8g2_SetFont
 333              	.LVL25:
  52:/Users/imashio/Electronics/ARM/_Library/draw_Value.c **** 	str_offset = (width-1) - (StrLength(unit)*4);
 334              		.loc 1 52 0
 335 0018 3846     		mov	r0, r7
 336 001a FFF7FEFF 		bl	StrLength
 337              	.LVL26:
  53:/Users/imashio/Electronics/ARM/_Library/draw_Value.c **** 	u8g2_DrawStr(u8g2, x+str_offset, y+height-2, unit );
ARM GAS  /var/folders/v3/wysfpd052nz8jkbx04pk0ym80000gn/T//ccxb8FLR.s 			page 8


 338              		.loc 1 53 0
 339 001e 09F1FF39 		add	r9, r9, #-1
 340 0022 4C44     		add	r4, r4, r9
 341              	.LVL27:
 342 0024 B21E     		subs	r2, r6, #2
 343 0026 A4EB8004 		sub	r4, r4, r0, lsl #2
 344 002a 2A44     		add	r2, r2, r5
 345 002c E1B2     		uxtb	r1, r4
 346 002e 3B46     		mov	r3, r7
 347 0030 4046     		mov	r0, r8
 348 0032 D2B2     		uxtb	r2, r2
  54:/Users/imashio/Electronics/ARM/_Library/draw_Value.c **** }
 349              		.loc 1 54 0
 350 0034 BDE8F047 		pop	{r4, r5, r6, r7, r8, r9, r10, lr}
 351              	.LCFI9:
 352              		.cfi_restore 14
 353              		.cfi_restore 10
 354              		.cfi_restore 9
 355              		.cfi_restore 8
 356              		.cfi_restore 7
 357              		.cfi_restore 6
 358              		.cfi_restore 5
 359              		.cfi_restore 4
 360              		.cfi_def_cfa_offset 0
 361              	.LVL28:
  53:/Users/imashio/Electronics/ARM/_Library/draw_Value.c **** 	u8g2_DrawStr(u8g2, x+str_offset, y+height-2, unit );
 362              		.loc 1 53 0
 363 0038 FFF7FEBF 		b	u8g2_DrawStr
 364              	.LVL29:
 365              	.L17:
 366              		.align	2
 367              	.L16:
 368 003c 00000000 		.word	u8g2_font_4x6_tf
 369              		.cfi_endproc
 370              	.LFE3:
 372              		.global	__aeabi_i2d
 373              		.global	__aeabi_dcmpge
 374              		.global	__aeabi_ui2d
 375              		.global	__aeabi_d2uiz
 376              		.section	.text.draw_Value,"ax",%progbits
 377              		.align	1
 378              		.p2align 2,,3
 379              		.global	draw_Value
 380              		.syntax unified
 381              		.thumb
 382              		.thumb_func
 383              		.fpu fpv4-sp-d16
 385              	draw_Value:
 386              	.LFB4:
  55:/Users/imashio/Electronics/ARM/_Library/draw_Value.c **** 
  56:/Users/imashio/Electronics/ARM/_Library/draw_Value.c **** void draw_Value(u8g2_t *u8g2, uint8_t x, uint8_t y, uint8_t width, uint8_t height, int16_t value, u
 387              		.loc 1 56 0
 388              		.cfi_startproc
 389              		@ args = 24, pretend = 0, frame = 24
 390              		@ frame_needed = 0, uses_anonymous_args = 0
 391              	.LVL30:
 392 0000 2DE9F04F 		push	{r4, r5, r6, r7, r8, r9, r10, fp, lr}
ARM GAS  /var/folders/v3/wysfpd052nz8jkbx04pk0ym80000gn/T//ccxb8FLR.s 			page 9


 393              	.LCFI10:
 394              		.cfi_def_cfa_offset 36
 395              		.cfi_offset 4, -36
 396              		.cfi_offset 5, -32
 397              		.cfi_offset 6, -28
 398              		.cfi_offset 7, -24
 399              		.cfi_offset 8, -20
 400              		.cfi_offset 9, -16
 401              		.cfi_offset 10, -12
 402              		.cfi_offset 11, -8
 403              		.cfi_offset 14, -4
 404 0004 2DED028B 		vpush.64	{d8}
 405              	.LCFI11:
 406              		.cfi_def_cfa_offset 44
 407              		.cfi_offset 80, -44
 408              		.cfi_offset 81, -40
 409 0008 89B0     		sub	sp, sp, #36
 410              	.LCFI12:
 411              		.cfi_def_cfa_offset 80
 412              		.loc 1 56 0
 413 000a 8946     		mov	r9, r1
 414 000c 199C     		ldr	r4, [sp, #100]
 415 000e BDF95470 		ldrsh	r7, [sp, #84]
 416 0012 9DF85C50 		ldrb	r5, [sp, #92]	@ zero_extendqisi2
  57:/Users/imashio/Electronics/ARM/_Library/draw_Value.c **** 	int16_t int_value;
  58:/Users/imashio/Electronics/ARM/_Library/draw_Value.c **** 	int16_t sub_value;
  59:/Users/imashio/Electronics/ARM/_Library/draw_Value.c **** 	uint16_t pow10 = 1;
  60:/Users/imashio/Electronics/ARM/_Library/draw_Value.c **** 	uint8_t valid_digit = digit;
  61:/Users/imashio/Electronics/ARM/_Library/draw_Value.c **** 	uint8_t int_digit = digit-frac;
  62:/Users/imashio/Electronics/ARM/_Library/draw_Value.c **** 	uint8_t	str_offset;
  63:/Users/imashio/Electronics/ARM/_Library/draw_Value.c **** 
  64:/Users/imashio/Electronics/ARM/_Library/draw_Value.c **** 	u8g2_SetFont(u8g2, meas_value_font);
 417              		.loc 1 64 0
 418 0016 7E49     		ldr	r1, .L38+8
 419              	.LVL31:
  56:/Users/imashio/Electronics/ARM/_Library/draw_Value.c **** 	int16_t int_value;
 420              		.loc 1 56 0
 421 0018 0697     		str	r7, [sp, #24]
 422 001a 9DF86070 		ldrb	r7, [sp, #96]	@ zero_extendqisi2
 423 001e 9DF85860 		ldrb	r6, [sp, #88]	@ zero_extendqisi2
 424              	.LVL32:
 425 0022 0797     		str	r7, [sp, #28]
 426 0024 9246     		mov	r10, r2
 427 0026 1F46     		mov	r7, r3
 428 0028 8046     		mov	r8, r0
  61:/Users/imashio/Electronics/ARM/_Library/draw_Value.c **** 	uint8_t	str_offset;
 429              		.loc 1 61 0
 430 002a 0595     		str	r5, [sp, #20]
  56:/Users/imashio/Electronics/ARM/_Library/draw_Value.c **** 	int16_t int_value;
 431              		.loc 1 56 0
 432 002c 9DF850B0 		ldrb	fp, [sp, #80]	@ zero_extendqisi2
 433              		.loc 1 64 0
 434 0030 FFF7FEFF 		bl	u8g2_SetFont
 435              	.LVL33:
  65:/Users/imashio/Electronics/ARM/_Library/draw_Value.c **** 
  66:/Users/imashio/Electronics/ARM/_Library/draw_Value.c **** 	str_offset = (width-1) - ( StrLength(unit)*4 + ((sign!=0)+digit)*font_width + ((frac!=0)*font_widt
 436              		.loc 1 66 0
ARM GAS  /var/folders/v3/wysfpd052nz8jkbx04pk0ym80000gn/T//ccxb8FLR.s 			page 10


 437 0034 2046     		mov	r0, r4
 438 0036 FFF7FEFF 		bl	StrLength
 439              	.LVL34:
 440 003a 079B     		ldr	r3, [sp, #28]
 441 003c 059A     		ldr	r2, [sp, #20]
 442 003e 002B     		cmp	r3, #0
 443 0040 0CBF     		ite	eq
 444 0042 3446     		moveq	r4, r6
 445 0044 741C     		addne	r4, r6, #1
 446 0046 023F     		subs	r7, r7, #2
 447 0048 C4EBC404 		rsb	r4, r4, r4, lsl #3
 448 004c FFB2     		uxtb	r7, r7
  61:/Users/imashio/Electronics/ARM/_Library/draw_Value.c **** 	uint8_t	str_offset;
 449              		.loc 1 61 0
 450 004e 751B     		subs	r5, r6, r5
 451              		.loc 1 66 0
 452 0050 8000     		lsls	r0, r0, #2
 453 0052 E4B2     		uxtb	r4, r4
 454 0054 002A     		cmp	r2, #0
 455 0056 C0B2     		uxtb	r0, r0
 456 0058 A7EB0404 		sub	r4, r7, r4
  61:/Users/imashio/Electronics/ARM/_Library/draw_Value.c **** 	uint8_t	str_offset;
 457              		.loc 1 61 0
 458 005c EDB2     		uxtb	r5, r5
 459              	.LVL35:
 460              		.loc 1 66 0
 461 005e 0CBF     		ite	eq
 462 0060 0023     		moveq	r3, #0
 463 0062 0323     		movne	r3, #3
 464 0064 241A     		subs	r4, r4, r0
  67:/Users/imashio/Electronics/ARM/_Library/draw_Value.c **** 
  68:/Users/imashio/Electronics/ARM/_Library/draw_Value.c **** 	// erase blank space
  69:/Users/imashio/Electronics/ARM/_Library/draw_Value.c **** 	u8g2_SetDrawColor(u8g2, 0); // erase color
 465              		.loc 1 69 0
 466 0066 0021     		movs	r1, #0
 467 0068 4046     		mov	r0, r8
 468              	.LBB2:
  70:/Users/imashio/Electronics/ARM/_Library/draw_Value.c **** 	for( uint8_t n=int_digit-1; n>0; n-- ){
 469              		.loc 1 70 0
 470 006a 6F1E     		subs	r7, r5, #1
 471              	.LBE2:
  66:/Users/imashio/Electronics/ARM/_Library/draw_Value.c **** 
 472              		.loc 1 66 0
 473 006c E41A     		subs	r4, r4, r3
  69:/Users/imashio/Electronics/ARM/_Library/draw_Value.c **** 	for( uint8_t n=int_digit-1; n>0; n-- ){
 474              		.loc 1 69 0
 475 006e FFF7FEFF 		bl	u8g2_SetDrawColor
 476              	.LVL36:
 477              	.LBB7:
 478              		.loc 1 70 0
 479 0072 17F0FF07 		ands	r7, r7, #255
 480              	.LBE7:
  66:/Users/imashio/Electronics/ARM/_Library/draw_Value.c **** 
 481              		.loc 1 66 0
 482 0076 E4B2     		uxtb	r4, r4
 483              	.LVL37:
 484              	.LBB8:
ARM GAS  /var/folders/v3/wysfpd052nz8jkbx04pk0ym80000gn/T//ccxb8FLR.s 			page 11


 485              		.loc 1 70 0
 486 0078 00F08C80 		beq	.L20
 487 007c 0698     		ldr	r0, [sp, #24]
 488 007e FFF7FEFF 		bl	__aeabi_i2d
 489              	.LVL38:
 490 0082 059A     		ldr	r2, [sp, #20]
 491 0084 023D     		subs	r5, r5, #2
 492              	.LVL39:
 493 0086 531E     		subs	r3, r2, #1
 494 0088 3B44     		add	r3, r3, r7
 495 008a EDB2     		uxtb	r5, r5
 496              	.LVL40:
 497 008c 5B1B     		subs	r3, r3, r5
 498 008e CDE90201 		strd	r0, [sp, #8]
 499              	.LBB3:
  71:/Users/imashio/Electronics/ARM/_Library/draw_Value.c **** 		if( value >= pow(10, n+frac) ){
 500              		.loc 1 71 0
 501 0092 9FED5D8B 		vldr.64	d8, .L38
 502 0096 0493     		str	r3, [sp, #16]
 503 0098 1744     		add	r7, r7, r2
 504 009a 0BE0     		b	.L22
 505              	.LVL41:
 506              	.L34:
  72:/Users/imashio/Electronics/ARM/_Library/draw_Value.c **** 			break;
  73:/Users/imashio/Electronics/ARM/_Library/draw_Value.c **** 		}else{
  74:/Users/imashio/Electronics/ARM/_Library/draw_Value.c **** 			u8g2_DrawBox(u8g2, x+str_offset, y, font_width, height );
 507              		.loc 1 74 0 discriminator 2
 508 009c CDF800B0 		str	fp, [sp]
 509 00a0 4046     		mov	r0, r8
 510 00a2 FFF7FEFF 		bl	u8g2_DrawBox
 511              	.LVL42:
 512              	.LBE3:
  70:/Users/imashio/Electronics/ARM/_Library/draw_Value.c **** 		if( value >= pow(10, n+frac) ){
 513              		.loc 1 70 0 discriminator 2
 514 00a6 049B     		ldr	r3, [sp, #16]
 515              	.LBB4:
  75:/Users/imashio/Electronics/ARM/_Library/draw_Value.c **** 			str_offset = str_offset + font_width;
 516              		.loc 1 75 0 discriminator 2
 517 00a8 0734     		adds	r4, r4, #7
 518              	.LVL43:
  76:/Users/imashio/Electronics/ARM/_Library/draw_Value.c **** 			valid_digit--;
 519              		.loc 1 76 0 discriminator 2
 520 00aa 013E     		subs	r6, r6, #1
 521              	.LVL44:
 522              	.LBE4:
  70:/Users/imashio/Electronics/ARM/_Library/draw_Value.c **** 		if( value >= pow(10, n+frac) ){
 523              		.loc 1 70 0 discriminator 2
 524 00ac 9F42     		cmp	r7, r3
 525              	.LBB5:
  75:/Users/imashio/Electronics/ARM/_Library/draw_Value.c **** 			str_offset = str_offset + font_width;
 526              		.loc 1 75 0 discriminator 2
 527 00ae E4B2     		uxtb	r4, r4
 528              	.LVL45:
 529              		.loc 1 76 0 discriminator 2
 530 00b0 F6B2     		uxtb	r6, r6
 531              	.LVL46:
 532              	.LBE5:
ARM GAS  /var/folders/v3/wysfpd052nz8jkbx04pk0ym80000gn/T//ccxb8FLR.s 			page 12


  70:/Users/imashio/Electronics/ARM/_Library/draw_Value.c **** 		if( value >= pow(10, n+frac) ){
 533              		.loc 1 70 0 discriminator 2
 534 00b2 6FD0     		beq	.L20
 535              	.LVL47:
 536              	.L22:
 537              	.LBB6:
  71:/Users/imashio/Electronics/ARM/_Library/draw_Value.c **** 			break;
 538              		.loc 1 71 0
 539 00b4 3846     		mov	r0, r7
 540 00b6 FFF7FEFF 		bl	__aeabi_i2d
 541              	.LVL48:
 542 00ba B0EE480A 		vmov.f32	s0, s16
 543 00be F0EE680A 		vmov.f32	s1, s17
 544 00c2 41EC110B 		vmov	d1, r0, r1
 545 00c6 FFF7FEFF 		bl	pow
 546              	.LVL49:
 547 00ca DDE90201 		ldrd	r0, [sp, #8]
 548 00ce 53EC102B 		vmov	r2, r3, d0
 549 00d2 FFF7FEFF 		bl	__aeabi_dcmpge
 550              	.LVL50:
 551 00d6 09EB0405 		add	r5, r9, r4
 552 00da EDB2     		uxtb	r5, r5
  74:/Users/imashio/Electronics/ARM/_Library/draw_Value.c **** 			str_offset = str_offset + font_width;
 553              		.loc 1 74 0
 554 00dc 0723     		movs	r3, #7
 555 00de 5246     		mov	r2, r10
 556 00e0 2946     		mov	r1, r5
 557 00e2 013F     		subs	r7, r7, #1
  71:/Users/imashio/Electronics/ARM/_Library/draw_Value.c **** 			break;
 558              		.loc 1 71 0
 559 00e4 0028     		cmp	r0, #0
 560 00e6 D9D0     		beq	.L34
 561              	.LVL51:
 562              	.L21:
 563              	.LBE6:
 564              	.LBE8:
  77:/Users/imashio/Electronics/ARM/_Library/draw_Value.c **** 		}
  78:/Users/imashio/Electronics/ARM/_Library/draw_Value.c **** 	}
  79:/Users/imashio/Electronics/ARM/_Library/draw_Value.c **** 	u8g2_SetDrawColor(u8g2, 1); // default color
 565              		.loc 1 79 0
 566 00e8 0121     		movs	r1, #1
 567 00ea 4046     		mov	r0, r8
 568 00ec FFF7FEFF 		bl	u8g2_SetDrawColor
 569              	.LVL52:
 570 00f0 ABF10207 		sub	r7, fp, #2
  80:/Users/imashio/Electronics/ARM/_Library/draw_Value.c **** 
  81:/Users/imashio/Electronics/ARM/_Library/draw_Value.c **** 	// sign
  82:/Users/imashio/Electronics/ARM/_Library/draw_Value.c **** 	if( sign!=0 ){
 571              		.loc 1 82 0
 572 00f4 079B     		ldr	r3, [sp, #28]
 573 00f6 5744     		add	r7, r7, r10
 574 00f8 FFB2     		uxtb	r7, r7
 575 00fa 002B     		cmp	r3, #0
 576 00fc 57D1     		bne	.L35
 577              	.LVL53:
 578              	.L23:
  83:/Users/imashio/Electronics/ARM/_Library/draw_Value.c **** 		// erase previous sign
ARM GAS  /var/folders/v3/wysfpd052nz8jkbx04pk0ym80000gn/T//ccxb8FLR.s 			page 13


  84:/Users/imashio/Electronics/ARM/_Library/draw_Value.c **** 		u8g2_SetDrawColor(u8g2, 0); // erase color
  85:/Users/imashio/Electronics/ARM/_Library/draw_Value.c **** 		u8g2_DrawBox(u8g2, x+str_offset, y, font_width, height );
  86:/Users/imashio/Electronics/ARM/_Library/draw_Value.c **** 		u8g2_SetDrawColor(u8g2, 1); // default color
  87:/Users/imashio/Electronics/ARM/_Library/draw_Value.c **** 
  88:/Users/imashio/Electronics/ARM/_Library/draw_Value.c **** 		if(	value < 0 ){
  89:/Users/imashio/Electronics/ARM/_Library/draw_Value.c **** 			u8g2_DrawStr(u8g2, x+str_offset, y+height-2, "-");
  90:/Users/imashio/Electronics/ARM/_Library/draw_Value.c **** 			value = -value;
  91:/Users/imashio/Electronics/ARM/_Library/draw_Value.c **** 			str_offset = str_offset + font_width;
  92:/Users/imashio/Electronics/ARM/_Library/draw_Value.c **** 		}else if( value >= 0 ){
  93:/Users/imashio/Electronics/ARM/_Library/draw_Value.c **** 			u8g2_DrawStr(u8g2, x+str_offset, y+height-2, "+");
  94:/Users/imashio/Electronics/ARM/_Library/draw_Value.c **** 			str_offset = str_offset + font_width;
  95:/Users/imashio/Electronics/ARM/_Library/draw_Value.c **** 		}
  96:/Users/imashio/Electronics/ARM/_Library/draw_Value.c **** 	}
  97:/Users/imashio/Electronics/ARM/_Library/draw_Value.c **** 
  98:/Users/imashio/Electronics/ARM/_Library/draw_Value.c **** 	//int
  99:/Users/imashio/Electronics/ARM/_Library/draw_Value.c **** 	if( frac==0 ){
 579              		.loc 1 99 0
 580 00fe 059B     		ldr	r3, [sp, #20]
 581 0100 002B     		cmp	r3, #0
 582 0102 4BD0     		beq	.L36
 583              	.LBB9:
 100:/Users/imashio/Electronics/ARM/_Library/draw_Value.c **** 		u8g2_DrawStr(u8g2, x+str_offset, y+height-2, u8g2_u16toa(value, valid_digit) );
 101:/Users/imashio/Electronics/ARM/_Library/draw_Value.c **** 	}else{
 102:/Users/imashio/Electronics/ARM/_Library/draw_Value.c **** 		pow10 = pow(10, frac);
 584              		.loc 1 102 0
 585 0104 DDF814A0 		ldr	r10, [sp, #20]
 586 0108 5046     		mov	r0, r10
 587 010a FFF7FEFF 		bl	__aeabi_ui2d
 588              	.LVL54:
 589 010e 9FED3E0B 		vldr.64	d0, .L38
 590 0112 41EC110B 		vmov	d1, r0, r1
 591 0116 FFF7FEFF 		bl	pow
 592              	.LVL55:
 593 011a 51EC100B 		vmov	r0, r1, d0
 594 011e FFF7FEFF 		bl	__aeabi_d2uiz
 595              	.LVL56:
 103:/Users/imashio/Electronics/ARM/_Library/draw_Value.c **** 		int_value = value / pow10;
 104:/Users/imashio/Electronics/ARM/_Library/draw_Value.c **** 		u8g2_DrawStr(u8g2, x+str_offset, y+height-2, u8g2_u16toa(int_value, valid_digit-frac) );
 596              		.loc 1 104 0
 597 0122 5346     		mov	r3, r10
 598 0124 F61A     		subs	r6, r6, r3
 599              	.LVL57:
 103:/Users/imashio/Electronics/ARM/_Library/draw_Value.c **** 		int_value = value / pow10;
 600              		.loc 1 103 0
 601 0126 069A     		ldr	r2, [sp, #24]
 602              		.loc 1 104 0
 603 0128 CDF814A0 		str	r10, [sp, #20]
 604              	.LVL58:
 605 012c F6B2     		uxtb	r6, r6
 102:/Users/imashio/Electronics/ARM/_Library/draw_Value.c **** 		int_value = value / pow10;
 606              		.loc 1 102 0
 607 012e 1FFA80FA 		uxth	r10, r0
 608              	.LVL59:
 103:/Users/imashio/Electronics/ARM/_Library/draw_Value.c **** 		int_value = value / pow10;
 609              		.loc 1 103 0
 610 0132 92FBFAFB 		sdiv	fp, r2, r10
 611              		.loc 1 104 0
ARM GAS  /var/folders/v3/wysfpd052nz8jkbx04pk0ym80000gn/T//ccxb8FLR.s 			page 14


 612 0136 1FFA8BFB 		uxth	fp, fp
 613 013a 3146     		mov	r1, r6
 614 013c 5846     		mov	r0, fp
 615 013e FFF7FEFF 		bl	u8x8_u16toa
 616              	.LVL60:
 105:/Users/imashio/Electronics/ARM/_Library/draw_Value.c **** 		str_offset = str_offset + (valid_digit-frac)*font_width;
 617              		.loc 1 105 0
 618 0142 C6EBC606 		rsb	r6, r6, r6, lsl #3
 104:/Users/imashio/Electronics/ARM/_Library/draw_Value.c **** 		str_offset = str_offset + (valid_digit-frac)*font_width;
 619              		.loc 1 104 0
 620 0146 0346     		mov	r3, r0
 621 0148 3A46     		mov	r2, r7
 622 014a 2946     		mov	r1, r5
 623 014c 4046     		mov	r0, r8
 624              		.loc 1 105 0
 625 014e 3444     		add	r4, r4, r6
 626              	.LVL61:
 104:/Users/imashio/Electronics/ARM/_Library/draw_Value.c **** 		str_offset = str_offset + (valid_digit-frac)*font_width;
 627              		.loc 1 104 0
 628 0150 FFF7FEFF 		bl	u8g2_DrawStr
 629              	.LVL62:
 630              		.loc 1 105 0
 631 0154 E4B2     		uxtb	r4, r4
 632              	.LVL63:
 106:/Users/imashio/Electronics/ARM/_Library/draw_Value.c **** 
 107:/Users/imashio/Electronics/ARM/_Library/draw_Value.c **** 		u8g2_DrawStr(u8g2, x+str_offset - ( (font_width>>1)-(font_width>>2) ), y+height-2, ".");
 633              		.loc 1 107 0
 634 0156 A9F10201 		sub	r1, r9, #2
 635 015a 2144     		add	r1, r1, r4
 636 015c 2D4B     		ldr	r3, .L38+12
 637 015e C9B2     		uxtb	r1, r1
 638 0160 3A46     		mov	r2, r7
 639 0162 4046     		mov	r0, r8
 640 0164 FFF7FEFF 		bl	u8g2_DrawStr
 641              	.LVL64:
 108:/Users/imashio/Electronics/ARM/_Library/draw_Value.c **** 		str_offset = str_offset + (font_width>>1);
 109:/Users/imashio/Electronics/ARM/_Library/draw_Value.c **** 
 110:/Users/imashio/Electronics/ARM/_Library/draw_Value.c **** 		sub_value = int_value * pow10;
 111:/Users/imashio/Electronics/ARM/_Library/draw_Value.c **** 		uint8_t frac_value = value - sub_value;
 642              		.loc 1 111 0
 643 0168 069A     		ldr	r2, [sp, #24]
 112:/Users/imashio/Electronics/ARM/_Library/draw_Value.c **** 
 113:/Users/imashio/Electronics/ARM/_Library/draw_Value.c **** 		u8g2_DrawStr(u8g2, x+str_offset, y+height-2, u8g2_u16toa(frac_value, frac) );
 644              		.loc 1 113 0
 645 016a 0599     		ldr	r1, [sp, #20]
 111:/Users/imashio/Electronics/ARM/_Library/draw_Value.c **** 
 646              		.loc 1 111 0
 647 016c 0BFB1A20 		mls	r0, fp, r10, r2
 648              		.loc 1 113 0
 649 0170 C0B2     		uxtb	r0, r0
 650 0172 FFF7FEFF 		bl	u8x8_u16toa
 651              	.LVL65:
 652 0176 09F10309 		add	r9, r9, #3
 653 017a 4C44     		add	r4, r4, r9
 654              	.LVL66:
 655 017c E4B2     		uxtb	r4, r4
 656 017e 0346     		mov	r3, r0
ARM GAS  /var/folders/v3/wysfpd052nz8jkbx04pk0ym80000gn/T//ccxb8FLR.s 			page 15


 657 0180 3A46     		mov	r2, r7
 658 0182 2146     		mov	r1, r4
 659              	.LVL67:
 660              	.L33:
 661 0184 4046     		mov	r0, r8
 662              	.LBE9:
 114:/Users/imashio/Electronics/ARM/_Library/draw_Value.c **** 	}
 115:/Users/imashio/Electronics/ARM/_Library/draw_Value.c **** }
 663              		.loc 1 115 0
 664 0186 09B0     		add	sp, sp, #36
 665              	.LCFI13:
 666              		.cfi_remember_state
 667              		.cfi_def_cfa_offset 44
 668              		@ sp needed
 669 0188 BDEC028B 		vldm	sp!, {d8}
 670              	.LCFI14:
 671              		.cfi_restore 80
 672              		.cfi_restore 81
 673              		.cfi_def_cfa_offset 36
 674 018c BDE8F04F 		pop	{r4, r5, r6, r7, r8, r9, r10, fp, lr}
 675              	.LCFI15:
 676              		.cfi_restore 14
 677              		.cfi_restore 11
 678              		.cfi_restore 10
 679              		.cfi_restore 9
 680              		.cfi_restore 8
 681              		.cfi_restore 7
 682              		.cfi_restore 6
 683              		.cfi_restore 5
 684              		.cfi_restore 4
 685              		.cfi_def_cfa_offset 0
 686              	.LVL68:
 687              	.LBB10:
 113:/Users/imashio/Electronics/ARM/_Library/draw_Value.c **** 	}
 688              		.loc 1 113 0
 689 0190 FFF7FEBF 		b	u8g2_DrawStr
 690              	.LVL69:
 691              	.L20:
 692              	.LCFI16:
 693              		.cfi_restore_state
 694 0194 04EB0905 		add	r5, r4, r9
 695 0198 EDB2     		uxtb	r5, r5
 696 019a A5E7     		b	.L21
 697              	.LVL70:
 698              	.L36:
 699              	.LBE10:
 100:/Users/imashio/Electronics/ARM/_Library/draw_Value.c **** 	}else{
 700              		.loc 1 100 0
 701 019c 3146     		mov	r1, r6
 702 019e BDF81800 		ldrh	r0, [sp, #24]
 703 01a2 FFF7FEFF 		bl	u8x8_u16toa
 704              	.LVL71:
 705 01a6 3A46     		mov	r2, r7
 706 01a8 0346     		mov	r3, r0
 707 01aa 2946     		mov	r1, r5
 708 01ac EAE7     		b	.L33
 709              	.LVL72:
ARM GAS  /var/folders/v3/wysfpd052nz8jkbx04pk0ym80000gn/T//ccxb8FLR.s 			page 16


 710              	.L35:
  84:/Users/imashio/Electronics/ARM/_Library/draw_Value.c **** 		u8g2_DrawBox(u8g2, x+str_offset, y, font_width, height );
 711              		.loc 1 84 0
 712 01ae 0021     		movs	r1, #0
 713 01b0 4046     		mov	r0, r8
 714 01b2 FFF7FEFF 		bl	u8g2_SetDrawColor
 715              	.LVL73:
  85:/Users/imashio/Electronics/ARM/_Library/draw_Value.c **** 		u8g2_SetDrawColor(u8g2, 1); // default color
 716              		.loc 1 85 0
 717 01b6 5246     		mov	r2, r10
 718 01b8 0723     		movs	r3, #7
 719 01ba 2946     		mov	r1, r5
 720 01bc 4046     		mov	r0, r8
 721 01be CDF800B0 		str	fp, [sp]
 722 01c2 FFF7FEFF 		bl	u8g2_DrawBox
 723              	.LVL74:
  86:/Users/imashio/Electronics/ARM/_Library/draw_Value.c **** 
 724              		.loc 1 86 0
 725 01c6 0121     		movs	r1, #1
 726 01c8 4046     		mov	r0, r8
 727 01ca FFF7FEFF 		bl	u8g2_SetDrawColor
 728              	.LVL75:
 729 01ce 0734     		adds	r4, r4, #7
 730              	.LVL76:
  88:/Users/imashio/Electronics/ARM/_Library/draw_Value.c **** 			u8g2_DrawStr(u8g2, x+str_offset, y+height-2, "-");
 731              		.loc 1 88 0
 732 01d0 069B     		ldr	r3, [sp, #24]
 733 01d2 E4B2     		uxtb	r4, r4
 734 01d4 09EB040A 		add	r10, r9, r4
 735 01d8 002B     		cmp	r3, #0
 736 01da 5FFA8AFA 		uxtb	r10, r10
  89:/Users/imashio/Electronics/ARM/_Library/draw_Value.c **** 			value = -value;
 737              		.loc 1 89 0
 738 01de 2946     		mov	r1, r5
  88:/Users/imashio/Electronics/ARM/_Library/draw_Value.c **** 			u8g2_DrawStr(u8g2, x+str_offset, y+height-2, "-");
 739              		.loc 1 88 0
 740 01e0 06DB     		blt	.L37
  93:/Users/imashio/Electronics/ARM/_Library/draw_Value.c **** 			str_offset = str_offset + font_width;
 741              		.loc 1 93 0
 742 01e2 0D4B     		ldr	r3, .L38+16
 743 01e4 3A46     		mov	r2, r7
 744 01e6 4046     		mov	r0, r8
 745 01e8 FFF7FEFF 		bl	u8g2_DrawStr
 746              	.LVL77:
 747 01ec 5546     		mov	r5, r10
 748 01ee 86E7     		b	.L23
 749              	.LVL78:
 750              	.L37:
  89:/Users/imashio/Electronics/ARM/_Library/draw_Value.c **** 			value = -value;
 751              		.loc 1 89 0
 752 01f0 0A4B     		ldr	r3, .L38+20
 753 01f2 3A46     		mov	r2, r7
 754 01f4 4046     		mov	r0, r8
 755 01f6 FFF7FEFF 		bl	u8g2_DrawStr
 756              	.LVL79:
  90:/Users/imashio/Electronics/ARM/_Library/draw_Value.c **** 			str_offset = str_offset + font_width;
 757              		.loc 1 90 0
ARM GAS  /var/folders/v3/wysfpd052nz8jkbx04pk0ym80000gn/T//ccxb8FLR.s 			page 17


 758 01fa 069B     		ldr	r3, [sp, #24]
 759 01fc 5842     		negs	r0, r3
 760 01fe 03B2     		sxth	r3, r0
 761 0200 5546     		mov	r5, r10
 762 0202 0693     		str	r3, [sp, #24]
 763              	.LVL80:
 764 0204 7BE7     		b	.L23
 765              	.L39:
 766 0206 00BF     		.align	3
 767              	.L38:
 768 0208 00000000 		.word	0
 769 020c 00002440 		.word	1076101120
 770 0210 00000000 		.word	u8g2_font_7x14B_tf
 771 0214 08000000 		.word	.LC2
 772 0218 04000000 		.word	.LC1
 773 021c 00000000 		.word	.LC0
 774              		.cfi_endproc
 775              	.LFE4:
 777              		.section	.text.draw_Value_b,"ax",%progbits
 778              		.align	1
 779              		.p2align 2,,3
 780              		.global	draw_Value_b
 781              		.syntax unified
 782              		.thumb
 783              		.thumb_func
 784              		.fpu fpv4-sp-d16
 786              	draw_Value_b:
 787              	.LFB5:
 116:/Users/imashio/Electronics/ARM/_Library/draw_Value.c **** 
 117:/Users/imashio/Electronics/ARM/_Library/draw_Value.c **** void draw_Value_b(u8g2_t *u8g2, uint8_t x, uint8_t y, uint8_t width, uint8_t height, int16_t value,
 788              		.loc 1 117 0
 789              		.cfi_startproc
 790              		@ args = 24, pretend = 0, frame = 24
 791              		@ frame_needed = 0, uses_anonymous_args = 0
 792              	.LVL81:
 793 0000 2DE9F04F 		push	{r4, r5, r6, r7, r8, r9, r10, fp, lr}
 794              	.LCFI17:
 795              		.cfi_def_cfa_offset 36
 796              		.cfi_offset 4, -36
 797              		.cfi_offset 5, -32
 798              		.cfi_offset 6, -28
 799              		.cfi_offset 7, -24
 800              		.cfi_offset 8, -20
 801              		.cfi_offset 9, -16
 802              		.cfi_offset 10, -12
 803              		.cfi_offset 11, -8
 804              		.cfi_offset 14, -4
 805 0004 2DED028B 		vpush.64	{d8}
 806              	.LCFI18:
 807              		.cfi_def_cfa_offset 44
 808              		.cfi_offset 80, -44
 809              		.cfi_offset 81, -40
 810 0008 89B0     		sub	sp, sp, #36
 811              	.LCFI19:
 812              		.cfi_def_cfa_offset 80
 813              		.loc 1 117 0
 814 000a 8946     		mov	r9, r1
ARM GAS  /var/folders/v3/wysfpd052nz8jkbx04pk0ym80000gn/T//ccxb8FLR.s 			page 18


 815 000c 199C     		ldr	r4, [sp, #100]
 816 000e BDF95470 		ldrsh	r7, [sp, #84]
 817 0012 9DF85C50 		ldrb	r5, [sp, #92]	@ zero_extendqisi2
 118:/Users/imashio/Electronics/ARM/_Library/draw_Value.c **** 	int16_t int_value;
 119:/Users/imashio/Electronics/ARM/_Library/draw_Value.c **** 	int16_t sub_value;
 120:/Users/imashio/Electronics/ARM/_Library/draw_Value.c **** 	uint16_t pow10 = 1;
 121:/Users/imashio/Electronics/ARM/_Library/draw_Value.c **** 	uint8_t valid_digit = digit;
 122:/Users/imashio/Electronics/ARM/_Library/draw_Value.c **** 	uint8_t int_digit = digit-frac;
 123:/Users/imashio/Electronics/ARM/_Library/draw_Value.c **** 	uint8_t	str_offset;
 124:/Users/imashio/Electronics/ARM/_Library/draw_Value.c **** 
 125:/Users/imashio/Electronics/ARM/_Library/draw_Value.c **** 	u8g2_SetFont(u8g2, meas_value_font_b);
 818              		.loc 1 125 0
 819 0016 7E49     		ldr	r1, .L60+8
 820              	.LVL82:
 117:/Users/imashio/Electronics/ARM/_Library/draw_Value.c **** 	int16_t int_value;
 821              		.loc 1 117 0
 822 0018 0697     		str	r7, [sp, #24]
 823 001a 9DF86070 		ldrb	r7, [sp, #96]	@ zero_extendqisi2
 824 001e 9DF85860 		ldrb	r6, [sp, #88]	@ zero_extendqisi2
 825              	.LVL83:
 826 0022 0797     		str	r7, [sp, #28]
 827 0024 9246     		mov	r10, r2
 828 0026 1F46     		mov	r7, r3
 829 0028 8046     		mov	r8, r0
 122:/Users/imashio/Electronics/ARM/_Library/draw_Value.c **** 	uint8_t	str_offset;
 830              		.loc 1 122 0
 831 002a 0595     		str	r5, [sp, #20]
 117:/Users/imashio/Electronics/ARM/_Library/draw_Value.c **** 	int16_t int_value;
 832              		.loc 1 117 0
 833 002c 9DF850B0 		ldrb	fp, [sp, #80]	@ zero_extendqisi2
 834              		.loc 1 125 0
 835 0030 FFF7FEFF 		bl	u8g2_SetFont
 836              	.LVL84:
 126:/Users/imashio/Electronics/ARM/_Library/draw_Value.c **** 
 127:/Users/imashio/Electronics/ARM/_Library/draw_Value.c **** 	str_offset = (width-1) - ( StrLength(unit)*font_width_b + ((sign!=0)+digit)*font_width_b + ((frac!
 837              		.loc 1 127 0
 838 0034 2046     		mov	r0, r4
 839 0036 FFF7FEFF 		bl	StrLength
 840              	.LVL85:
 841 003a 079B     		ldr	r3, [sp, #28]
 842 003c 059A     		ldr	r2, [sp, #20]
 843 003e 002B     		cmp	r3, #0
 844 0040 0CBF     		ite	eq
 845 0042 3346     		moveq	r3, r6
 846 0044 731C     		addne	r3, r6, #1
 847 0046 1844     		add	r0, r0, r3
 848 0048 00EB8000 		add	r0, r0, r0, lsl #2
 849 004c 4000     		lsls	r0, r0, #1
 850 004e C0B2     		uxtb	r0, r0
 851 0050 002A     		cmp	r2, #0
 852 0052 A7F10204 		sub	r4, r7, #2
 122:/Users/imashio/Electronics/ARM/_Library/draw_Value.c **** 	uint8_t	str_offset;
 853              		.loc 1 122 0
 854 0056 A6EB0505 		sub	r5, r6, r5
 855              		.loc 1 127 0
 856 005a A4EB0004 		sub	r4, r4, r0
 122:/Users/imashio/Electronics/ARM/_Library/draw_Value.c **** 	uint8_t	str_offset;
ARM GAS  /var/folders/v3/wysfpd052nz8jkbx04pk0ym80000gn/T//ccxb8FLR.s 			page 19


 857              		.loc 1 122 0
 858 005e EDB2     		uxtb	r5, r5
 859              	.LVL86:
 860              		.loc 1 127 0
 861 0060 0CBF     		ite	eq
 862 0062 0020     		moveq	r0, #0
 863 0064 0520     		movne	r0, #5
 864 0066 241A     		subs	r4, r4, r0
 128:/Users/imashio/Electronics/ARM/_Library/draw_Value.c **** 
 129:/Users/imashio/Electronics/ARM/_Library/draw_Value.c **** 	// erase blank space
 130:/Users/imashio/Electronics/ARM/_Library/draw_Value.c **** 	u8g2_SetDrawColor(u8g2, 0); // erase color
 865              		.loc 1 130 0
 866 0068 0021     		movs	r1, #0
 867 006a 4046     		mov	r0, r8
 868              	.LBB11:
 131:/Users/imashio/Electronics/ARM/_Library/draw_Value.c **** 	for( uint8_t n=int_digit-1; n>0; n-- ){
 869              		.loc 1 131 0
 870 006c 6F1E     		subs	r7, r5, #1
 871              	.LBE11:
 130:/Users/imashio/Electronics/ARM/_Library/draw_Value.c **** 	for( uint8_t n=int_digit-1; n>0; n-- ){
 872              		.loc 1 130 0
 873 006e FFF7FEFF 		bl	u8g2_SetDrawColor
 874              	.LVL87:
 875              	.LBB16:
 876              		.loc 1 131 0
 877 0072 17F0FF07 		ands	r7, r7, #255
 878              	.LBE16:
 127:/Users/imashio/Electronics/ARM/_Library/draw_Value.c **** 
 879              		.loc 1 127 0
 880 0076 E4B2     		uxtb	r4, r4
 881              	.LVL88:
 882              	.LBB17:
 883              		.loc 1 131 0
 884 0078 00F08D80 		beq	.L42
 885 007c 0698     		ldr	r0, [sp, #24]
 886 007e FFF7FEFF 		bl	__aeabi_i2d
 887              	.LVL89:
 888 0082 059A     		ldr	r2, [sp, #20]
 889 0084 023D     		subs	r5, r5, #2
 890              	.LVL90:
 891 0086 531E     		subs	r3, r2, #1
 892 0088 3B44     		add	r3, r3, r7
 893 008a EDB2     		uxtb	r5, r5
 894              	.LVL91:
 895 008c 5B1B     		subs	r3, r3, r5
 896 008e CDE90201 		strd	r0, [sp, #8]
 897              	.LBB12:
 132:/Users/imashio/Electronics/ARM/_Library/draw_Value.c **** 		if( value >= pow(10, n+frac) ){
 898              		.loc 1 132 0
 899 0092 9FED5D8B 		vldr.64	d8, .L60
 900 0096 0493     		str	r3, [sp, #16]
 901 0098 1744     		add	r7, r7, r2
 902 009a 0BE0     		b	.L44
 903              	.LVL92:
 904              	.L56:
 133:/Users/imashio/Electronics/ARM/_Library/draw_Value.c **** 			break;
 134:/Users/imashio/Electronics/ARM/_Library/draw_Value.c **** 		}else{
ARM GAS  /var/folders/v3/wysfpd052nz8jkbx04pk0ym80000gn/T//ccxb8FLR.s 			page 20


 135:/Users/imashio/Electronics/ARM/_Library/draw_Value.c **** 			u8g2_DrawBox(u8g2, x+str_offset, y, font_width_b, height );
 905              		.loc 1 135 0 discriminator 2
 906 009c CDF800B0 		str	fp, [sp]
 907 00a0 4046     		mov	r0, r8
 908 00a2 FFF7FEFF 		bl	u8g2_DrawBox
 909              	.LVL93:
 910              	.LBE12:
 131:/Users/imashio/Electronics/ARM/_Library/draw_Value.c **** 		if( value >= pow(10, n+frac) ){
 911              		.loc 1 131 0 discriminator 2
 912 00a6 049B     		ldr	r3, [sp, #16]
 913              	.LBB13:
 136:/Users/imashio/Electronics/ARM/_Library/draw_Value.c **** 			str_offset = str_offset + font_width_b;
 914              		.loc 1 136 0 discriminator 2
 915 00a8 0A34     		adds	r4, r4, #10
 916              	.LVL94:
 137:/Users/imashio/Electronics/ARM/_Library/draw_Value.c **** 			valid_digit--;
 917              		.loc 1 137 0 discriminator 2
 918 00aa 013E     		subs	r6, r6, #1
 919              	.LVL95:
 920              	.LBE13:
 131:/Users/imashio/Electronics/ARM/_Library/draw_Value.c **** 		if( value >= pow(10, n+frac) ){
 921              		.loc 1 131 0 discriminator 2
 922 00ac 9F42     		cmp	r7, r3
 923              	.LBB14:
 136:/Users/imashio/Electronics/ARM/_Library/draw_Value.c **** 			str_offset = str_offset + font_width_b;
 924              		.loc 1 136 0 discriminator 2
 925 00ae E4B2     		uxtb	r4, r4
 926              	.LVL96:
 927              		.loc 1 137 0 discriminator 2
 928 00b0 F6B2     		uxtb	r6, r6
 929              	.LVL97:
 930              	.LBE14:
 131:/Users/imashio/Electronics/ARM/_Library/draw_Value.c **** 		if( value >= pow(10, n+frac) ){
 931              		.loc 1 131 0 discriminator 2
 932 00b2 70D0     		beq	.L42
 933              	.LVL98:
 934              	.L44:
 935              	.LBB15:
 132:/Users/imashio/Electronics/ARM/_Library/draw_Value.c **** 			break;
 936              		.loc 1 132 0
 937 00b4 3846     		mov	r0, r7
 938 00b6 FFF7FEFF 		bl	__aeabi_i2d
 939              	.LVL99:
 940 00ba B0EE480A 		vmov.f32	s0, s16
 941 00be F0EE680A 		vmov.f32	s1, s17
 942 00c2 41EC110B 		vmov	d1, r0, r1
 943 00c6 FFF7FEFF 		bl	pow
 944              	.LVL100:
 945 00ca DDE90201 		ldrd	r0, [sp, #8]
 946 00ce 53EC102B 		vmov	r2, r3, d0
 947 00d2 FFF7FEFF 		bl	__aeabi_dcmpge
 948              	.LVL101:
 949 00d6 09EB0405 		add	r5, r9, r4
 950 00da EDB2     		uxtb	r5, r5
 135:/Users/imashio/Electronics/ARM/_Library/draw_Value.c **** 			str_offset = str_offset + font_width_b;
 951              		.loc 1 135 0
 952 00dc 0A23     		movs	r3, #10
ARM GAS  /var/folders/v3/wysfpd052nz8jkbx04pk0ym80000gn/T//ccxb8FLR.s 			page 21


 953 00de 5246     		mov	r2, r10
 954 00e0 2946     		mov	r1, r5
 955 00e2 013F     		subs	r7, r7, #1
 132:/Users/imashio/Electronics/ARM/_Library/draw_Value.c **** 			break;
 956              		.loc 1 132 0
 957 00e4 0028     		cmp	r0, #0
 958 00e6 D9D0     		beq	.L56
 959              	.LVL102:
 960              	.L43:
 961              	.LBE15:
 962              	.LBE17:
 138:/Users/imashio/Electronics/ARM/_Library/draw_Value.c **** 		}
 139:/Users/imashio/Electronics/ARM/_Library/draw_Value.c **** 	}
 140:/Users/imashio/Electronics/ARM/_Library/draw_Value.c **** 	u8g2_SetDrawColor(u8g2, 1); // default color
 963              		.loc 1 140 0
 964 00e8 0121     		movs	r1, #1
 965 00ea 4046     		mov	r0, r8
 966 00ec FFF7FEFF 		bl	u8g2_SetDrawColor
 967              	.LVL103:
 968 00f0 ABF10207 		sub	r7, fp, #2
 141:/Users/imashio/Electronics/ARM/_Library/draw_Value.c **** 
 142:/Users/imashio/Electronics/ARM/_Library/draw_Value.c **** 	// sign
 143:/Users/imashio/Electronics/ARM/_Library/draw_Value.c **** 	if( sign!=0 ){
 969              		.loc 1 143 0
 970 00f4 079B     		ldr	r3, [sp, #28]
 971 00f6 5744     		add	r7, r7, r10
 972 00f8 FFB2     		uxtb	r7, r7
 973 00fa 002B     		cmp	r3, #0
 974 00fc 58D1     		bne	.L57
 975              	.LVL104:
 976              	.L45:
 144:/Users/imashio/Electronics/ARM/_Library/draw_Value.c **** 		// erase previous sign
 145:/Users/imashio/Electronics/ARM/_Library/draw_Value.c **** 		u8g2_SetDrawColor(u8g2, 0); // erase color
 146:/Users/imashio/Electronics/ARM/_Library/draw_Value.c **** 		u8g2_DrawBox(u8g2, x+str_offset, y, font_width_b, height );
 147:/Users/imashio/Electronics/ARM/_Library/draw_Value.c **** 		u8g2_SetDrawColor(u8g2, 1); // default color
 148:/Users/imashio/Electronics/ARM/_Library/draw_Value.c **** 
 149:/Users/imashio/Electronics/ARM/_Library/draw_Value.c **** 		if(	value < 0 ){
 150:/Users/imashio/Electronics/ARM/_Library/draw_Value.c **** 			u8g2_DrawStr(u8g2, x+str_offset, y+height-2, "-");
 151:/Users/imashio/Electronics/ARM/_Library/draw_Value.c **** 			value = -value;
 152:/Users/imashio/Electronics/ARM/_Library/draw_Value.c **** 			str_offset = str_offset + font_width_b;
 153:/Users/imashio/Electronics/ARM/_Library/draw_Value.c **** 		}else if( value >= 0 ){
 154:/Users/imashio/Electronics/ARM/_Library/draw_Value.c **** 			u8g2_DrawStr(u8g2, x+str_offset, y+height-2, "+");
 155:/Users/imashio/Electronics/ARM/_Library/draw_Value.c **** 			str_offset = str_offset + font_width_b;
 156:/Users/imashio/Electronics/ARM/_Library/draw_Value.c **** 		}
 157:/Users/imashio/Electronics/ARM/_Library/draw_Value.c **** 	}
 158:/Users/imashio/Electronics/ARM/_Library/draw_Value.c **** 
 159:/Users/imashio/Electronics/ARM/_Library/draw_Value.c **** 	//int
 160:/Users/imashio/Electronics/ARM/_Library/draw_Value.c **** 	if( frac==0 ){
 977              		.loc 1 160 0
 978 00fe 059B     		ldr	r3, [sp, #20]
 979 0100 002B     		cmp	r3, #0
 980 0102 4CD0     		beq	.L58
 981              	.LBB18:
 161:/Users/imashio/Electronics/ARM/_Library/draw_Value.c **** 		u8g2_DrawStr(u8g2, x+str_offset, y+height-2, u8g2_u16toa(value, valid_digit) );
 162:/Users/imashio/Electronics/ARM/_Library/draw_Value.c **** 	}else{
 163:/Users/imashio/Electronics/ARM/_Library/draw_Value.c **** 		pow10 = pow(10, frac);
 982              		.loc 1 163 0
ARM GAS  /var/folders/v3/wysfpd052nz8jkbx04pk0ym80000gn/T//ccxb8FLR.s 			page 22


 983 0104 DDF814A0 		ldr	r10, [sp, #20]
 984 0108 5046     		mov	r0, r10
 985 010a FFF7FEFF 		bl	__aeabi_ui2d
 986              	.LVL105:
 987 010e 9FED3E0B 		vldr.64	d0, .L60
 988 0112 41EC110B 		vmov	d1, r0, r1
 989 0116 FFF7FEFF 		bl	pow
 990              	.LVL106:
 991 011a 51EC100B 		vmov	r0, r1, d0
 992 011e FFF7FEFF 		bl	__aeabi_d2uiz
 993              	.LVL107:
 164:/Users/imashio/Electronics/ARM/_Library/draw_Value.c **** 		int_value = value / pow10;
 165:/Users/imashio/Electronics/ARM/_Library/draw_Value.c **** 		u8g2_DrawStr(u8g2, x+str_offset, y+height-2, u8g2_u16toa(int_value, valid_digit-frac) );
 994              		.loc 1 165 0
 995 0122 5346     		mov	r3, r10
 996 0124 F61A     		subs	r6, r6, r3
 997              	.LVL108:
 164:/Users/imashio/Electronics/ARM/_Library/draw_Value.c **** 		int_value = value / pow10;
 998              		.loc 1 164 0
 999 0126 069A     		ldr	r2, [sp, #24]
 1000              		.loc 1 165 0
 1001 0128 CDF814A0 		str	r10, [sp, #20]
 1002              	.LVL109:
 1003 012c F6B2     		uxtb	r6, r6
 163:/Users/imashio/Electronics/ARM/_Library/draw_Value.c **** 		int_value = value / pow10;
 1004              		.loc 1 163 0
 1005 012e 1FFA80FA 		uxth	r10, r0
 1006              	.LVL110:
 164:/Users/imashio/Electronics/ARM/_Library/draw_Value.c **** 		int_value = value / pow10;
 1007              		.loc 1 164 0
 1008 0132 92FBFAFB 		sdiv	fp, r2, r10
 1009              		.loc 1 165 0
 1010 0136 1FFA8BFB 		uxth	fp, fp
 1011 013a 3146     		mov	r1, r6
 1012 013c 5846     		mov	r0, fp
 1013 013e FFF7FEFF 		bl	u8x8_u16toa
 1014              	.LVL111:
 166:/Users/imashio/Electronics/ARM/_Library/draw_Value.c **** 		str_offset = str_offset + (valid_digit-frac)*font_width_b;
 1015              		.loc 1 166 0
 1016 0142 06EB8606 		add	r6, r6, r6, lsl #2
 165:/Users/imashio/Electronics/ARM/_Library/draw_Value.c **** 		str_offset = str_offset + (valid_digit-frac)*font_width_b;
 1017              		.loc 1 165 0
 1018 0146 0346     		mov	r3, r0
 1019 0148 3A46     		mov	r2, r7
 1020 014a 2946     		mov	r1, r5
 1021 014c 4046     		mov	r0, r8
 1022              		.loc 1 166 0
 1023 014e 04EB4604 		add	r4, r4, r6, lsl #1
 1024              	.LVL112:
 165:/Users/imashio/Electronics/ARM/_Library/draw_Value.c **** 		str_offset = str_offset + (valid_digit-frac)*font_width_b;
 1025              		.loc 1 165 0
 1026 0152 FFF7FEFF 		bl	u8g2_DrawStr
 1027              	.LVL113:
 1028              		.loc 1 166 0
 1029 0156 E4B2     		uxtb	r4, r4
 1030              	.LVL114:
 167:/Users/imashio/Electronics/ARM/_Library/draw_Value.c **** 
ARM GAS  /var/folders/v3/wysfpd052nz8jkbx04pk0ym80000gn/T//ccxb8FLR.s 			page 23


 168:/Users/imashio/Electronics/ARM/_Library/draw_Value.c **** 		u8g2_DrawStr(u8g2, x+str_offset - ( (font_width_b>>1)-(font_width_b>>2) ), y+height-2, ".");
 1031              		.loc 1 168 0
 1032 0158 A9F10301 		sub	r1, r9, #3
 1033 015c 2144     		add	r1, r1, r4
 1034 015e 2D4B     		ldr	r3, .L60+12
 1035 0160 C9B2     		uxtb	r1, r1
 1036 0162 3A46     		mov	r2, r7
 1037 0164 4046     		mov	r0, r8
 1038 0166 FFF7FEFF 		bl	u8g2_DrawStr
 1039              	.LVL115:
 169:/Users/imashio/Electronics/ARM/_Library/draw_Value.c **** 		str_offset = str_offset + (font_width_b>>1);
 170:/Users/imashio/Electronics/ARM/_Library/draw_Value.c **** 
 171:/Users/imashio/Electronics/ARM/_Library/draw_Value.c **** 		sub_value = int_value * pow10;
 172:/Users/imashio/Electronics/ARM/_Library/draw_Value.c **** 		uint8_t frac_value = value - sub_value;
 1040              		.loc 1 172 0
 1041 016a 069A     		ldr	r2, [sp, #24]
 173:/Users/imashio/Electronics/ARM/_Library/draw_Value.c **** 
 174:/Users/imashio/Electronics/ARM/_Library/draw_Value.c **** 		u8g2_DrawStr(u8g2, x+str_offset, y+height-2, u8g2_u16toa(frac_value, frac) );
 1042              		.loc 1 174 0
 1043 016c 0599     		ldr	r1, [sp, #20]
 172:/Users/imashio/Electronics/ARM/_Library/draw_Value.c **** 
 1044              		.loc 1 172 0
 1045 016e 0BFB1A20 		mls	r0, fp, r10, r2
 1046              		.loc 1 174 0
 1047 0172 C0B2     		uxtb	r0, r0
 1048 0174 FFF7FEFF 		bl	u8x8_u16toa
 1049              	.LVL116:
 1050 0178 09F10509 		add	r9, r9, #5
 1051 017c 4C44     		add	r4, r4, r9
 1052              	.LVL117:
 1053 017e E4B2     		uxtb	r4, r4
 1054 0180 0346     		mov	r3, r0
 1055 0182 3A46     		mov	r2, r7
 1056 0184 2146     		mov	r1, r4
 1057              	.LVL118:
 1058              	.L55:
 1059 0186 4046     		mov	r0, r8
 1060              	.LBE18:
 175:/Users/imashio/Electronics/ARM/_Library/draw_Value.c **** 	}
 176:/Users/imashio/Electronics/ARM/_Library/draw_Value.c **** }
 1061              		.loc 1 176 0
 1062 0188 09B0     		add	sp, sp, #36
 1063              	.LCFI20:
 1064              		.cfi_remember_state
 1065              		.cfi_def_cfa_offset 44
 1066              		@ sp needed
 1067 018a BDEC028B 		vldm	sp!, {d8}
 1068              	.LCFI21:
 1069              		.cfi_restore 80
 1070              		.cfi_restore 81
 1071              		.cfi_def_cfa_offset 36
 1072 018e BDE8F04F 		pop	{r4, r5, r6, r7, r8, r9, r10, fp, lr}
 1073              	.LCFI22:
 1074              		.cfi_restore 14
 1075              		.cfi_restore 11
 1076              		.cfi_restore 10
 1077              		.cfi_restore 9
ARM GAS  /var/folders/v3/wysfpd052nz8jkbx04pk0ym80000gn/T//ccxb8FLR.s 			page 24


 1078              		.cfi_restore 8
 1079              		.cfi_restore 7
 1080              		.cfi_restore 6
 1081              		.cfi_restore 5
 1082              		.cfi_restore 4
 1083              		.cfi_def_cfa_offset 0
 1084              	.LVL119:
 1085              	.LBB19:
 174:/Users/imashio/Electronics/ARM/_Library/draw_Value.c **** 	}
 1086              		.loc 1 174 0
 1087 0192 FFF7FEBF 		b	u8g2_DrawStr
 1088              	.LVL120:
 1089              	.L42:
 1090              	.LCFI23:
 1091              		.cfi_restore_state
 1092 0196 04EB0905 		add	r5, r4, r9
 1093 019a EDB2     		uxtb	r5, r5
 1094 019c A4E7     		b	.L43
 1095              	.LVL121:
 1096              	.L58:
 1097              	.LBE19:
 161:/Users/imashio/Electronics/ARM/_Library/draw_Value.c **** 	}else{
 1098              		.loc 1 161 0
 1099 019e 3146     		mov	r1, r6
 1100 01a0 BDF81800 		ldrh	r0, [sp, #24]
 1101 01a4 FFF7FEFF 		bl	u8x8_u16toa
 1102              	.LVL122:
 1103 01a8 3A46     		mov	r2, r7
 1104 01aa 0346     		mov	r3, r0
 1105 01ac 2946     		mov	r1, r5
 1106 01ae EAE7     		b	.L55
 1107              	.LVL123:
 1108              	.L57:
 145:/Users/imashio/Electronics/ARM/_Library/draw_Value.c **** 		u8g2_DrawBox(u8g2, x+str_offset, y, font_width_b, height );
 1109              		.loc 1 145 0
 1110 01b0 0021     		movs	r1, #0
 1111 01b2 4046     		mov	r0, r8
 1112 01b4 FFF7FEFF 		bl	u8g2_SetDrawColor
 1113              	.LVL124:
 146:/Users/imashio/Electronics/ARM/_Library/draw_Value.c **** 		u8g2_SetDrawColor(u8g2, 1); // default color
 1114              		.loc 1 146 0
 1115 01b8 5246     		mov	r2, r10
 1116 01ba 0A23     		movs	r3, #10
 1117 01bc 2946     		mov	r1, r5
 1118 01be 4046     		mov	r0, r8
 1119 01c0 CDF800B0 		str	fp, [sp]
 1120 01c4 FFF7FEFF 		bl	u8g2_DrawBox
 1121              	.LVL125:
 147:/Users/imashio/Electronics/ARM/_Library/draw_Value.c **** 
 1122              		.loc 1 147 0
 1123 01c8 0121     		movs	r1, #1
 1124 01ca 4046     		mov	r0, r8
 1125 01cc FFF7FEFF 		bl	u8g2_SetDrawColor
 1126              	.LVL126:
 1127 01d0 0A34     		adds	r4, r4, #10
 1128              	.LVL127:
 149:/Users/imashio/Electronics/ARM/_Library/draw_Value.c **** 			u8g2_DrawStr(u8g2, x+str_offset, y+height-2, "-");
ARM GAS  /var/folders/v3/wysfpd052nz8jkbx04pk0ym80000gn/T//ccxb8FLR.s 			page 25


 1129              		.loc 1 149 0
 1130 01d2 069B     		ldr	r3, [sp, #24]
 1131 01d4 E4B2     		uxtb	r4, r4
 1132 01d6 09EB040A 		add	r10, r9, r4
 1133 01da 002B     		cmp	r3, #0
 1134 01dc 5FFA8AFA 		uxtb	r10, r10
 150:/Users/imashio/Electronics/ARM/_Library/draw_Value.c **** 			value = -value;
 1135              		.loc 1 150 0
 1136 01e0 2946     		mov	r1, r5
 149:/Users/imashio/Electronics/ARM/_Library/draw_Value.c **** 			u8g2_DrawStr(u8g2, x+str_offset, y+height-2, "-");
 1137              		.loc 1 149 0
 1138 01e2 06DB     		blt	.L59
 154:/Users/imashio/Electronics/ARM/_Library/draw_Value.c **** 			str_offset = str_offset + font_width_b;
 1139              		.loc 1 154 0
 1140 01e4 0C4B     		ldr	r3, .L60+16
 1141 01e6 3A46     		mov	r2, r7
 1142 01e8 4046     		mov	r0, r8
 1143 01ea FFF7FEFF 		bl	u8g2_DrawStr
 1144              	.LVL128:
 1145 01ee 5546     		mov	r5, r10
 1146 01f0 85E7     		b	.L45
 1147              	.LVL129:
 1148              	.L59:
 150:/Users/imashio/Electronics/ARM/_Library/draw_Value.c **** 			value = -value;
 1149              		.loc 1 150 0
 1150 01f2 0A4B     		ldr	r3, .L60+20
 1151 01f4 3A46     		mov	r2, r7
 1152 01f6 4046     		mov	r0, r8
 1153 01f8 FFF7FEFF 		bl	u8g2_DrawStr
 1154              	.LVL130:
 151:/Users/imashio/Electronics/ARM/_Library/draw_Value.c **** 			str_offset = str_offset + font_width_b;
 1155              		.loc 1 151 0
 1156 01fc 069B     		ldr	r3, [sp, #24]
 1157 01fe 5842     		negs	r0, r3
 1158 0200 03B2     		sxth	r3, r0
 1159 0202 5546     		mov	r5, r10
 1160 0204 0693     		str	r3, [sp, #24]
 1161              	.LVL131:
 1162 0206 7AE7     		b	.L45
 1163              	.L61:
 1164              		.align	3
 1165              	.L60:
 1166 0208 00000000 		.word	0
 1167 020c 00002440 		.word	1076101120
 1168 0210 00000000 		.word	u8g2_font_10x20_tn
 1169 0214 08000000 		.word	.LC2
 1170 0218 04000000 		.word	.LC1
 1171 021c 00000000 		.word	.LC0
 1172              		.cfi_endproc
 1173              	.LFE5:
 1175              		.section	.text.draw_Value_s,"ax",%progbits
 1176              		.align	1
 1177              		.p2align 2,,3
 1178              		.global	draw_Value_s
 1179              		.syntax unified
 1180              		.thumb
 1181              		.thumb_func
ARM GAS  /var/folders/v3/wysfpd052nz8jkbx04pk0ym80000gn/T//ccxb8FLR.s 			page 26


 1182              		.fpu fpv4-sp-d16
 1184              	draw_Value_s:
 1185              	.LFB6:
 177:/Users/imashio/Electronics/ARM/_Library/draw_Value.c **** 
 178:/Users/imashio/Electronics/ARM/_Library/draw_Value.c **** 
 179:/Users/imashio/Electronics/ARM/_Library/draw_Value.c **** void draw_Value_s(u8g2_t *u8g2, uint8_t x, uint8_t y, uint8_t width, uint8_t height, int16_t value,
 1186              		.loc 1 179 0
 1187              		.cfi_startproc
 1188              		@ args = 24, pretend = 0, frame = 24
 1189              		@ frame_needed = 0, uses_anonymous_args = 0
 1190              	.LVL132:
 1191 0000 2DE9F04F 		push	{r4, r5, r6, r7, r8, r9, r10, fp, lr}
 1192              	.LCFI24:
 1193              		.cfi_def_cfa_offset 36
 1194              		.cfi_offset 4, -36
 1195              		.cfi_offset 5, -32
 1196              		.cfi_offset 6, -28
 1197              		.cfi_offset 7, -24
 1198              		.cfi_offset 8, -20
 1199              		.cfi_offset 9, -16
 1200              		.cfi_offset 10, -12
 1201              		.cfi_offset 11, -8
 1202              		.cfi_offset 14, -4
 1203 0004 2DED028B 		vpush.64	{d8}
 1204              	.LCFI25:
 1205              		.cfi_def_cfa_offset 44
 1206              		.cfi_offset 80, -44
 1207              		.cfi_offset 81, -40
 1208 0008 89B0     		sub	sp, sp, #36
 1209              	.LCFI26:
 1210              		.cfi_def_cfa_offset 80
 1211              		.loc 1 179 0
 1212 000a 8946     		mov	r9, r1
 1213 000c 9DF86040 		ldrb	r4, [sp, #96]	@ zero_extendqisi2
 1214 0010 0794     		str	r4, [sp, #28]
 1215 0012 199C     		ldr	r4, [sp, #100]
 1216 0014 9DF85C50 		ldrb	r5, [sp, #92]	@ zero_extendqisi2
 1217 0018 BDF95470 		ldrsh	r7, [sp, #84]
 180:/Users/imashio/Electronics/ARM/_Library/draw_Value.c **** 	int16_t int_value;
 181:/Users/imashio/Electronics/ARM/_Library/draw_Value.c **** 	int16_t sub_value;
 182:/Users/imashio/Electronics/ARM/_Library/draw_Value.c **** 	uint16_t pow10 = 1;
 183:/Users/imashio/Electronics/ARM/_Library/draw_Value.c **** 	uint8_t valid_digit = digit;
 184:/Users/imashio/Electronics/ARM/_Library/draw_Value.c **** 	uint8_t int_digit = digit-frac;
 185:/Users/imashio/Electronics/ARM/_Library/draw_Value.c **** 	uint8_t	str_offset;
 186:/Users/imashio/Electronics/ARM/_Library/draw_Value.c **** 
 187:/Users/imashio/Electronics/ARM/_Library/draw_Value.c **** 	u8g2_SetFont(u8g2, meas_value_font_s);
 1218              		.loc 1 187 0
 1219 001c 7E49     		ldr	r1, .L82+8
 1220              	.LVL133:
 179:/Users/imashio/Electronics/ARM/_Library/draw_Value.c **** 	int16_t int_value;
 1221              		.loc 1 179 0
 1222 001e 9DF85860 		ldrb	r6, [sp, #88]	@ zero_extendqisi2
 1223              	.LVL134:
 1224 0022 0697     		str	r7, [sp, #24]
 1225 0024 9246     		mov	r10, r2
 1226 0026 1F46     		mov	r7, r3
 1227 0028 8046     		mov	r8, r0
ARM GAS  /var/folders/v3/wysfpd052nz8jkbx04pk0ym80000gn/T//ccxb8FLR.s 			page 27


 184:/Users/imashio/Electronics/ARM/_Library/draw_Value.c **** 	uint8_t	str_offset;
 1228              		.loc 1 184 0
 1229 002a 0595     		str	r5, [sp, #20]
 179:/Users/imashio/Electronics/ARM/_Library/draw_Value.c **** 	int16_t int_value;
 1230              		.loc 1 179 0
 1231 002c 9DF850B0 		ldrb	fp, [sp, #80]	@ zero_extendqisi2
 1232              		.loc 1 187 0
 1233 0030 FFF7FEFF 		bl	u8g2_SetFont
 1234              	.LVL135:
 188:/Users/imashio/Electronics/ARM/_Library/draw_Value.c **** 
 189:/Users/imashio/Electronics/ARM/_Library/draw_Value.c **** 	str_offset = (width-1) - ( StrLength(unit)*4 + ((sign!=0)+digit)*font_width_s + ((frac!=0)*font_wi
 1235              		.loc 1 189 0
 1236 0034 2046     		mov	r0, r4
 1237 0036 FFF7FEFF 		bl	StrLength
 1238              	.LVL136:
 1239 003a 079C     		ldr	r4, [sp, #28]
 1240 003c 059A     		ldr	r2, [sp, #20]
 1241 003e 002C     		cmp	r4, #0
 1242 0040 0CBF     		ite	eq
 1243 0042 3446     		moveq	r4, r6
 1244 0044 741C     		addne	r4, r6, #1
 1245 0046 04EB4404 		add	r4, r4, r4, lsl #1
 1246 004a 023F     		subs	r7, r7, #2
 1247 004c 6400     		lsls	r4, r4, #1
 1248 004e FFB2     		uxtb	r7, r7
 184:/Users/imashio/Electronics/ARM/_Library/draw_Value.c **** 	uint8_t	str_offset;
 1249              		.loc 1 184 0
 1250 0050 751B     		subs	r5, r6, r5
 1251              		.loc 1 189 0
 1252 0052 8000     		lsls	r0, r0, #2
 1253 0054 E4B2     		uxtb	r4, r4
 1254 0056 002A     		cmp	r2, #0
 1255 0058 C0B2     		uxtb	r0, r0
 1256 005a A7EB0404 		sub	r4, r7, r4
 184:/Users/imashio/Electronics/ARM/_Library/draw_Value.c **** 	uint8_t	str_offset;
 1257              		.loc 1 184 0
 1258 005e EDB2     		uxtb	r5, r5
 1259              	.LVL137:
 1260              		.loc 1 189 0
 1261 0060 0CBF     		ite	eq
 1262 0062 0023     		moveq	r3, #0
 1263 0064 0323     		movne	r3, #3
 1264 0066 241A     		subs	r4, r4, r0
 190:/Users/imashio/Electronics/ARM/_Library/draw_Value.c **** 
 191:/Users/imashio/Electronics/ARM/_Library/draw_Value.c **** 	// erase blank space
 192:/Users/imashio/Electronics/ARM/_Library/draw_Value.c **** 	u8g2_SetDrawColor(u8g2, 0); // erase color
 1265              		.loc 1 192 0
 1266 0068 0021     		movs	r1, #0
 1267 006a 4046     		mov	r0, r8
 1268              	.LBB20:
 193:/Users/imashio/Electronics/ARM/_Library/draw_Value.c **** 	for( uint8_t n=int_digit-1; n>0; n-- ){
 1269              		.loc 1 193 0
 1270 006c 6F1E     		subs	r7, r5, #1
 1271              	.LBE20:
 189:/Users/imashio/Electronics/ARM/_Library/draw_Value.c **** 
 1272              		.loc 1 189 0
 1273 006e E41A     		subs	r4, r4, r3
ARM GAS  /var/folders/v3/wysfpd052nz8jkbx04pk0ym80000gn/T//ccxb8FLR.s 			page 28


 192:/Users/imashio/Electronics/ARM/_Library/draw_Value.c **** 	for( uint8_t n=int_digit-1; n>0; n-- ){
 1274              		.loc 1 192 0
 1275 0070 FFF7FEFF 		bl	u8g2_SetDrawColor
 1276              	.LVL138:
 1277              	.LBB25:
 1278              		.loc 1 193 0
 1279 0074 17F0FF07 		ands	r7, r7, #255
 1280              	.LBE25:
 189:/Users/imashio/Electronics/ARM/_Library/draw_Value.c **** 
 1281              		.loc 1 189 0
 1282 0078 E4B2     		uxtb	r4, r4
 1283              	.LVL139:
 1284              	.LBB26:
 1285              		.loc 1 193 0
 1286 007a 00F08D80 		beq	.L64
 1287 007e 0698     		ldr	r0, [sp, #24]
 1288 0080 FFF7FEFF 		bl	__aeabi_i2d
 1289              	.LVL140:
 1290 0084 059A     		ldr	r2, [sp, #20]
 1291 0086 023D     		subs	r5, r5, #2
 1292              	.LVL141:
 1293 0088 531E     		subs	r3, r2, #1
 1294 008a 3B44     		add	r3, r3, r7
 1295 008c EDB2     		uxtb	r5, r5
 1296              	.LVL142:
 1297 008e 5B1B     		subs	r3, r3, r5
 1298 0090 CDE90201 		strd	r0, [sp, #8]
 1299              	.LBB21:
 194:/Users/imashio/Electronics/ARM/_Library/draw_Value.c **** 		if( value >= pow(10, n+frac) ){
 1300              		.loc 1 194 0
 1301 0094 9FED5E8B 		vldr.64	d8, .L82
 1302 0098 0493     		str	r3, [sp, #16]
 1303 009a 1744     		add	r7, r7, r2
 1304 009c 0BE0     		b	.L66
 1305              	.LVL143:
 1306              	.L78:
 195:/Users/imashio/Electronics/ARM/_Library/draw_Value.c **** 			break;
 196:/Users/imashio/Electronics/ARM/_Library/draw_Value.c **** 		}else{
 197:/Users/imashio/Electronics/ARM/_Library/draw_Value.c **** 			u8g2_DrawBox(u8g2, x+str_offset, y, font_width_s, height );
 1307              		.loc 1 197 0 discriminator 2
 1308 009e CDF800B0 		str	fp, [sp]
 1309 00a2 4046     		mov	r0, r8
 1310 00a4 FFF7FEFF 		bl	u8g2_DrawBox
 1311              	.LVL144:
 1312              	.LBE21:
 193:/Users/imashio/Electronics/ARM/_Library/draw_Value.c **** 		if( value >= pow(10, n+frac) ){
 1313              		.loc 1 193 0 discriminator 2
 1314 00a8 049B     		ldr	r3, [sp, #16]
 1315              	.LBB22:
 198:/Users/imashio/Electronics/ARM/_Library/draw_Value.c **** 			str_offset = str_offset + font_width_s;
 1316              		.loc 1 198 0 discriminator 2
 1317 00aa 0634     		adds	r4, r4, #6
 1318              	.LVL145:
 199:/Users/imashio/Electronics/ARM/_Library/draw_Value.c **** 			valid_digit--;
 1319              		.loc 1 199 0 discriminator 2
 1320 00ac 013E     		subs	r6, r6, #1
 1321              	.LVL146:
ARM GAS  /var/folders/v3/wysfpd052nz8jkbx04pk0ym80000gn/T//ccxb8FLR.s 			page 29


 1322              	.LBE22:
 193:/Users/imashio/Electronics/ARM/_Library/draw_Value.c **** 		if( value >= pow(10, n+frac) ){
 1323              		.loc 1 193 0 discriminator 2
 1324 00ae 9F42     		cmp	r7, r3
 1325              	.LBB23:
 198:/Users/imashio/Electronics/ARM/_Library/draw_Value.c **** 			str_offset = str_offset + font_width_s;
 1326              		.loc 1 198 0 discriminator 2
 1327 00b0 E4B2     		uxtb	r4, r4
 1328              	.LVL147:
 1329              		.loc 1 199 0 discriminator 2
 1330 00b2 F6B2     		uxtb	r6, r6
 1331              	.LVL148:
 1332              	.LBE23:
 193:/Users/imashio/Electronics/ARM/_Library/draw_Value.c **** 		if( value >= pow(10, n+frac) ){
 1333              		.loc 1 193 0 discriminator 2
 1334 00b4 70D0     		beq	.L64
 1335              	.LVL149:
 1336              	.L66:
 1337              	.LBB24:
 194:/Users/imashio/Electronics/ARM/_Library/draw_Value.c **** 			break;
 1338              		.loc 1 194 0
 1339 00b6 3846     		mov	r0, r7
 1340 00b8 FFF7FEFF 		bl	__aeabi_i2d
 1341              	.LVL150:
 1342 00bc B0EE480A 		vmov.f32	s0, s16
 1343 00c0 F0EE680A 		vmov.f32	s1, s17
 1344 00c4 41EC110B 		vmov	d1, r0, r1
 1345 00c8 FFF7FEFF 		bl	pow
 1346              	.LVL151:
 1347 00cc DDE90201 		ldrd	r0, [sp, #8]
 1348 00d0 53EC102B 		vmov	r2, r3, d0
 1349 00d4 FFF7FEFF 		bl	__aeabi_dcmpge
 1350              	.LVL152:
 1351 00d8 09EB0405 		add	r5, r9, r4
 1352 00dc EDB2     		uxtb	r5, r5
 197:/Users/imashio/Electronics/ARM/_Library/draw_Value.c **** 			str_offset = str_offset + font_width_s;
 1353              		.loc 1 197 0
 1354 00de 0623     		movs	r3, #6
 1355 00e0 5246     		mov	r2, r10
 1356 00e2 2946     		mov	r1, r5
 1357 00e4 013F     		subs	r7, r7, #1
 194:/Users/imashio/Electronics/ARM/_Library/draw_Value.c **** 			break;
 1358              		.loc 1 194 0
 1359 00e6 0028     		cmp	r0, #0
 1360 00e8 D9D0     		beq	.L78
 1361              	.LVL153:
 1362              	.L65:
 1363              	.LBE24:
 1364              	.LBE26:
 200:/Users/imashio/Electronics/ARM/_Library/draw_Value.c **** 		}
 201:/Users/imashio/Electronics/ARM/_Library/draw_Value.c **** 	}
 202:/Users/imashio/Electronics/ARM/_Library/draw_Value.c **** 	u8g2_SetDrawColor(u8g2, 1); // default color
 1365              		.loc 1 202 0
 1366 00ea 0121     		movs	r1, #1
 1367 00ec 4046     		mov	r0, r8
 1368 00ee FFF7FEFF 		bl	u8g2_SetDrawColor
 1369              	.LVL154:
ARM GAS  /var/folders/v3/wysfpd052nz8jkbx04pk0ym80000gn/T//ccxb8FLR.s 			page 30


 1370 00f2 ABF10207 		sub	r7, fp, #2
 203:/Users/imashio/Electronics/ARM/_Library/draw_Value.c **** 
 204:/Users/imashio/Electronics/ARM/_Library/draw_Value.c **** 	// sign
 205:/Users/imashio/Electronics/ARM/_Library/draw_Value.c **** 	if( sign!=0 ){
 1371              		.loc 1 205 0
 1372 00f6 079B     		ldr	r3, [sp, #28]
 1373 00f8 5744     		add	r7, r7, r10
 1374 00fa FFB2     		uxtb	r7, r7
 1375 00fc 002B     		cmp	r3, #0
 1376 00fe 58D1     		bne	.L79
 1377              	.LVL155:
 1378              	.L67:
 206:/Users/imashio/Electronics/ARM/_Library/draw_Value.c **** 		// erase previous sign
 207:/Users/imashio/Electronics/ARM/_Library/draw_Value.c **** 		u8g2_SetDrawColor(u8g2, 0); // erase color
 208:/Users/imashio/Electronics/ARM/_Library/draw_Value.c **** 		u8g2_DrawBox(u8g2, x+str_offset, y, font_width_s, height );
 209:/Users/imashio/Electronics/ARM/_Library/draw_Value.c **** 		u8g2_SetDrawColor(u8g2, 1); // default color
 210:/Users/imashio/Electronics/ARM/_Library/draw_Value.c **** 
 211:/Users/imashio/Electronics/ARM/_Library/draw_Value.c **** 		if(	value < 0 ){
 212:/Users/imashio/Electronics/ARM/_Library/draw_Value.c **** 			u8g2_DrawStr(u8g2, x+str_offset, y+height-2, "-");
 213:/Users/imashio/Electronics/ARM/_Library/draw_Value.c **** 			value = -value;
 214:/Users/imashio/Electronics/ARM/_Library/draw_Value.c **** 			str_offset = str_offset + font_width_s;
 215:/Users/imashio/Electronics/ARM/_Library/draw_Value.c **** 		}else if( value >= 0 ){
 216:/Users/imashio/Electronics/ARM/_Library/draw_Value.c **** 			u8g2_DrawStr(u8g2, x+str_offset, y+height-2, "+");
 217:/Users/imashio/Electronics/ARM/_Library/draw_Value.c **** 			str_offset = str_offset + font_width_s;
 218:/Users/imashio/Electronics/ARM/_Library/draw_Value.c **** 		}
 219:/Users/imashio/Electronics/ARM/_Library/draw_Value.c **** 	}
 220:/Users/imashio/Electronics/ARM/_Library/draw_Value.c **** 
 221:/Users/imashio/Electronics/ARM/_Library/draw_Value.c **** 	//int
 222:/Users/imashio/Electronics/ARM/_Library/draw_Value.c **** 	if( frac==0 ){
 1379              		.loc 1 222 0
 1380 0100 059B     		ldr	r3, [sp, #20]
 1381 0102 002B     		cmp	r3, #0
 1382 0104 4CD0     		beq	.L80
 1383              	.LBB27:
 223:/Users/imashio/Electronics/ARM/_Library/draw_Value.c **** 		u8g2_DrawStr(u8g2, x+str_offset, y+height-2, u8g2_u16toa(value, valid_digit) );
 224:/Users/imashio/Electronics/ARM/_Library/draw_Value.c **** 	}else{
 225:/Users/imashio/Electronics/ARM/_Library/draw_Value.c **** 		pow10 = pow(10, frac);
 1384              		.loc 1 225 0
 1385 0106 DDF814A0 		ldr	r10, [sp, #20]
 1386 010a 5046     		mov	r0, r10
 1387 010c FFF7FEFF 		bl	__aeabi_ui2d
 1388              	.LVL156:
 1389 0110 9FED3F0B 		vldr.64	d0, .L82
 1390 0114 41EC110B 		vmov	d1, r0, r1
 1391 0118 FFF7FEFF 		bl	pow
 1392              	.LVL157:
 1393 011c 51EC100B 		vmov	r0, r1, d0
 1394 0120 FFF7FEFF 		bl	__aeabi_d2uiz
 1395              	.LVL158:
 226:/Users/imashio/Electronics/ARM/_Library/draw_Value.c **** 		int_value = value / pow10;
 227:/Users/imashio/Electronics/ARM/_Library/draw_Value.c **** 		u8g2_DrawStr(u8g2, x+str_offset, y+height-2, u8g2_u16toa(int_value, valid_digit-frac) );
 1396              		.loc 1 227 0
 1397 0124 5346     		mov	r3, r10
 1398 0126 F61A     		subs	r6, r6, r3
 1399              	.LVL159:
 226:/Users/imashio/Electronics/ARM/_Library/draw_Value.c **** 		int_value = value / pow10;
 1400              		.loc 1 226 0
ARM GAS  /var/folders/v3/wysfpd052nz8jkbx04pk0ym80000gn/T//ccxb8FLR.s 			page 31


 1401 0128 069A     		ldr	r2, [sp, #24]
 1402              		.loc 1 227 0
 1403 012a CDF814A0 		str	r10, [sp, #20]
 1404              	.LVL160:
 1405 012e F6B2     		uxtb	r6, r6
 225:/Users/imashio/Electronics/ARM/_Library/draw_Value.c **** 		int_value = value / pow10;
 1406              		.loc 1 225 0
 1407 0130 1FFA80FA 		uxth	r10, r0
 1408              	.LVL161:
 226:/Users/imashio/Electronics/ARM/_Library/draw_Value.c **** 		int_value = value / pow10;
 1409              		.loc 1 226 0
 1410 0134 92FBFAFB 		sdiv	fp, r2, r10
 1411              		.loc 1 227 0
 1412 0138 1FFA8BFB 		uxth	fp, fp
 1413 013c 3146     		mov	r1, r6
 1414 013e 5846     		mov	r0, fp
 1415 0140 FFF7FEFF 		bl	u8x8_u16toa
 1416              	.LVL162:
 228:/Users/imashio/Electronics/ARM/_Library/draw_Value.c **** 		str_offset = str_offset + (valid_digit-frac)*font_width_s;
 1417              		.loc 1 228 0
 1418 0144 06EB4606 		add	r6, r6, r6, lsl #1
 227:/Users/imashio/Electronics/ARM/_Library/draw_Value.c **** 		str_offset = str_offset + (valid_digit-frac)*font_width_s;
 1419              		.loc 1 227 0
 1420 0148 0346     		mov	r3, r0
 1421 014a 3A46     		mov	r2, r7
 1422 014c 2946     		mov	r1, r5
 1423 014e 4046     		mov	r0, r8
 1424              		.loc 1 228 0
 1425 0150 04EB4604 		add	r4, r4, r6, lsl #1
 1426              	.LVL163:
 227:/Users/imashio/Electronics/ARM/_Library/draw_Value.c **** 		str_offset = str_offset + (valid_digit-frac)*font_width_s;
 1427              		.loc 1 227 0
 1428 0154 FFF7FEFF 		bl	u8g2_DrawStr
 1429              	.LVL164:
 1430              		.loc 1 228 0
 1431 0158 E4B2     		uxtb	r4, r4
 1432              	.LVL165:
 229:/Users/imashio/Electronics/ARM/_Library/draw_Value.c **** 
 230:/Users/imashio/Electronics/ARM/_Library/draw_Value.c **** 		u8g2_DrawStr(u8g2, x+str_offset - ( (font_width_s>>1)-(font_width_s>>2) ), y+height-2, ".");
 1433              		.loc 1 230 0
 1434 015a A9F10201 		sub	r1, r9, #2
 1435 015e 2144     		add	r1, r1, r4
 1436 0160 2E4B     		ldr	r3, .L82+12
 1437 0162 C9B2     		uxtb	r1, r1
 1438 0164 3A46     		mov	r2, r7
 1439 0166 4046     		mov	r0, r8
 1440 0168 FFF7FEFF 		bl	u8g2_DrawStr
 1441              	.LVL166:
 231:/Users/imashio/Electronics/ARM/_Library/draw_Value.c **** 		str_offset = str_offset + (font_width_s>>1);
 232:/Users/imashio/Electronics/ARM/_Library/draw_Value.c **** 
 233:/Users/imashio/Electronics/ARM/_Library/draw_Value.c **** 		sub_value = int_value * pow10;
 234:/Users/imashio/Electronics/ARM/_Library/draw_Value.c **** 		uint8_t frac_value = value - sub_value;
 1442              		.loc 1 234 0
 1443 016c 069A     		ldr	r2, [sp, #24]
 235:/Users/imashio/Electronics/ARM/_Library/draw_Value.c **** 
 236:/Users/imashio/Electronics/ARM/_Library/draw_Value.c **** 		u8g2_DrawStr(u8g2, x+str_offset, y+height-2, u8g2_u16toa(frac_value, frac) );
 1444              		.loc 1 236 0
ARM GAS  /var/folders/v3/wysfpd052nz8jkbx04pk0ym80000gn/T//ccxb8FLR.s 			page 32


 1445 016e 0599     		ldr	r1, [sp, #20]
 234:/Users/imashio/Electronics/ARM/_Library/draw_Value.c **** 
 1446              		.loc 1 234 0
 1447 0170 0BFB1A20 		mls	r0, fp, r10, r2
 1448              		.loc 1 236 0
 1449 0174 C0B2     		uxtb	r0, r0
 1450 0176 FFF7FEFF 		bl	u8x8_u16toa
 1451              	.LVL167:
 1452 017a 09F10309 		add	r9, r9, #3
 1453 017e 4C44     		add	r4, r4, r9
 1454              	.LVL168:
 1455 0180 E4B2     		uxtb	r4, r4
 1456 0182 0346     		mov	r3, r0
 1457 0184 3A46     		mov	r2, r7
 1458 0186 2146     		mov	r1, r4
 1459              	.LVL169:
 1460              	.L77:
 1461 0188 4046     		mov	r0, r8
 1462              	.LBE27:
 237:/Users/imashio/Electronics/ARM/_Library/draw_Value.c **** 	}
 238:/Users/imashio/Electronics/ARM/_Library/draw_Value.c **** }
 1463              		.loc 1 238 0
 1464 018a 09B0     		add	sp, sp, #36
 1465              	.LCFI27:
 1466              		.cfi_remember_state
 1467              		.cfi_def_cfa_offset 44
 1468              		@ sp needed
 1469 018c BDEC028B 		vldm	sp!, {d8}
 1470              	.LCFI28:
 1471              		.cfi_restore 80
 1472              		.cfi_restore 81
 1473              		.cfi_def_cfa_offset 36
 1474 0190 BDE8F04F 		pop	{r4, r5, r6, r7, r8, r9, r10, fp, lr}
 1475              	.LCFI29:
 1476              		.cfi_restore 14
 1477              		.cfi_restore 11
 1478              		.cfi_restore 10
 1479              		.cfi_restore 9
 1480              		.cfi_restore 8
 1481              		.cfi_restore 7
 1482              		.cfi_restore 6
 1483              		.cfi_restore 5
 1484              		.cfi_restore 4
 1485              		.cfi_def_cfa_offset 0
 1486              	.LVL170:
 1487              	.LBB28:
 236:/Users/imashio/Electronics/ARM/_Library/draw_Value.c **** 	}
 1488              		.loc 1 236 0
 1489 0194 FFF7FEBF 		b	u8g2_DrawStr
 1490              	.LVL171:
 1491              	.L64:
 1492              	.LCFI30:
 1493              		.cfi_restore_state
 1494 0198 04EB0905 		add	r5, r4, r9
 1495 019c EDB2     		uxtb	r5, r5
 1496 019e A4E7     		b	.L65
 1497              	.LVL172:
ARM GAS  /var/folders/v3/wysfpd052nz8jkbx04pk0ym80000gn/T//ccxb8FLR.s 			page 33


 1498              	.L80:
 1499              	.LBE28:
 223:/Users/imashio/Electronics/ARM/_Library/draw_Value.c **** 	}else{
 1500              		.loc 1 223 0
 1501 01a0 3146     		mov	r1, r6
 1502 01a2 BDF81800 		ldrh	r0, [sp, #24]
 1503 01a6 FFF7FEFF 		bl	u8x8_u16toa
 1504              	.LVL173:
 1505 01aa 3A46     		mov	r2, r7
 1506 01ac 0346     		mov	r3, r0
 1507 01ae 2946     		mov	r1, r5
 1508 01b0 EAE7     		b	.L77
 1509              	.LVL174:
 1510              	.L79:
 207:/Users/imashio/Electronics/ARM/_Library/draw_Value.c **** 		u8g2_DrawBox(u8g2, x+str_offset, y, font_width_s, height );
 1511              		.loc 1 207 0
 1512 01b2 0021     		movs	r1, #0
 1513 01b4 4046     		mov	r0, r8
 1514 01b6 FFF7FEFF 		bl	u8g2_SetDrawColor
 1515              	.LVL175:
 208:/Users/imashio/Electronics/ARM/_Library/draw_Value.c **** 		u8g2_SetDrawColor(u8g2, 1); // default color
 1516              		.loc 1 208 0
 1517 01ba 5246     		mov	r2, r10
 1518 01bc 0623     		movs	r3, #6
 1519 01be 2946     		mov	r1, r5
 1520 01c0 4046     		mov	r0, r8
 1521 01c2 CDF800B0 		str	fp, [sp]
 1522 01c6 FFF7FEFF 		bl	u8g2_DrawBox
 1523              	.LVL176:
 209:/Users/imashio/Electronics/ARM/_Library/draw_Value.c **** 
 1524              		.loc 1 209 0
 1525 01ca 0121     		movs	r1, #1
 1526 01cc 4046     		mov	r0, r8
 1527 01ce FFF7FEFF 		bl	u8g2_SetDrawColor
 1528              	.LVL177:
 1529 01d2 0634     		adds	r4, r4, #6
 1530              	.LVL178:
 211:/Users/imashio/Electronics/ARM/_Library/draw_Value.c **** 			u8g2_DrawStr(u8g2, x+str_offset, y+height-2, "-");
 1531              		.loc 1 211 0
 1532 01d4 069B     		ldr	r3, [sp, #24]
 1533 01d6 E4B2     		uxtb	r4, r4
 1534 01d8 09EB040A 		add	r10, r9, r4
 1535 01dc 002B     		cmp	r3, #0
 1536 01de 5FFA8AFA 		uxtb	r10, r10
 212:/Users/imashio/Electronics/ARM/_Library/draw_Value.c **** 			value = -value;
 1537              		.loc 1 212 0
 1538 01e2 2946     		mov	r1, r5
 211:/Users/imashio/Electronics/ARM/_Library/draw_Value.c **** 			u8g2_DrawStr(u8g2, x+str_offset, y+height-2, "-");
 1539              		.loc 1 211 0
 1540 01e4 06DB     		blt	.L81
 216:/Users/imashio/Electronics/ARM/_Library/draw_Value.c **** 			str_offset = str_offset + font_width_s;
 1541              		.loc 1 216 0
 1542 01e6 0E4B     		ldr	r3, .L82+16
 1543 01e8 3A46     		mov	r2, r7
 1544 01ea 4046     		mov	r0, r8
 1545 01ec FFF7FEFF 		bl	u8g2_DrawStr
 1546              	.LVL179:
ARM GAS  /var/folders/v3/wysfpd052nz8jkbx04pk0ym80000gn/T//ccxb8FLR.s 			page 34


 1547 01f0 5546     		mov	r5, r10
 1548 01f2 85E7     		b	.L67
 1549              	.LVL180:
 1550              	.L81:
 212:/Users/imashio/Electronics/ARM/_Library/draw_Value.c **** 			value = -value;
 1551              		.loc 1 212 0
 1552 01f4 0B4B     		ldr	r3, .L82+20
 1553 01f6 3A46     		mov	r2, r7
 1554 01f8 4046     		mov	r0, r8
 1555 01fa FFF7FEFF 		bl	u8g2_DrawStr
 1556              	.LVL181:
 213:/Users/imashio/Electronics/ARM/_Library/draw_Value.c **** 			str_offset = str_offset + font_width_s;
 1557              		.loc 1 213 0
 1558 01fe 069B     		ldr	r3, [sp, #24]
 1559 0200 5842     		negs	r0, r3
 1560 0202 03B2     		sxth	r3, r0
 1561 0204 5546     		mov	r5, r10
 1562 0206 0693     		str	r3, [sp, #24]
 1563              	.LVL182:
 1564 0208 7AE7     		b	.L67
 1565              	.L83:
 1566 020a 00BFAFF3 		.align	3
 1566      0080
 1567              	.L82:
 1568 0210 00000000 		.word	0
 1569 0214 00002440 		.word	1076101120
 1570 0218 00000000 		.word	u8g2_font_6x10_tf
 1571 021c 08000000 		.word	.LC2
 1572 0220 04000000 		.word	.LC1
 1573 0224 00000000 		.word	.LC0
 1574              		.cfi_endproc
 1575              	.LFE6:
 1577              		.section	.text.draw_Value_xs,"ax",%progbits
 1578              		.align	1
 1579              		.p2align 2,,3
 1580              		.global	draw_Value_xs
 1581              		.syntax unified
 1582              		.thumb
 1583              		.thumb_func
 1584              		.fpu fpv4-sp-d16
 1586              	draw_Value_xs:
 1587              	.LFB7:
 239:/Users/imashio/Electronics/ARM/_Library/draw_Value.c **** 
 240:/Users/imashio/Electronics/ARM/_Library/draw_Value.c **** 
 241:/Users/imashio/Electronics/ARM/_Library/draw_Value.c **** void draw_Value_xs(u8g2_t *u8g2, uint8_t x, uint8_t y, uint8_t width, uint8_t height, int16_t value
 1588              		.loc 1 241 0
 1589              		.cfi_startproc
 1590              		@ args = 24, pretend = 0, frame = 24
 1591              		@ frame_needed = 0, uses_anonymous_args = 0
 1592              	.LVL183:
 1593 0000 2DE9F04F 		push	{r4, r5, r6, r7, r8, r9, r10, fp, lr}
 1594              	.LCFI31:
 1595              		.cfi_def_cfa_offset 36
 1596              		.cfi_offset 4, -36
 1597              		.cfi_offset 5, -32
 1598              		.cfi_offset 6, -28
 1599              		.cfi_offset 7, -24
ARM GAS  /var/folders/v3/wysfpd052nz8jkbx04pk0ym80000gn/T//ccxb8FLR.s 			page 35


 1600              		.cfi_offset 8, -20
 1601              		.cfi_offset 9, -16
 1602              		.cfi_offset 10, -12
 1603              		.cfi_offset 11, -8
 1604              		.cfi_offset 14, -4
 1605 0004 2DED028B 		vpush.64	{d8}
 1606              	.LCFI32:
 1607              		.cfi_def_cfa_offset 44
 1608              		.cfi_offset 80, -44
 1609              		.cfi_offset 81, -40
 1610 0008 89B0     		sub	sp, sp, #36
 1611              	.LCFI33:
 1612              		.cfi_def_cfa_offset 80
 1613              		.loc 1 241 0
 1614 000a 8946     		mov	r9, r1
 1615 000c 199C     		ldr	r4, [sp, #100]
 1616 000e BDF95470 		ldrsh	r7, [sp, #84]
 1617 0012 9DF85C50 		ldrb	r5, [sp, #92]	@ zero_extendqisi2
 242:/Users/imashio/Electronics/ARM/_Library/draw_Value.c **** 	int16_t int_value;
 243:/Users/imashio/Electronics/ARM/_Library/draw_Value.c **** 	int16_t sub_value;
 244:/Users/imashio/Electronics/ARM/_Library/draw_Value.c **** 	uint16_t pow10 = 1;
 245:/Users/imashio/Electronics/ARM/_Library/draw_Value.c **** 	uint8_t valid_digit = digit;
 246:/Users/imashio/Electronics/ARM/_Library/draw_Value.c **** 	uint8_t int_digit = digit-frac;
 247:/Users/imashio/Electronics/ARM/_Library/draw_Value.c **** 	uint8_t	str_offset;
 248:/Users/imashio/Electronics/ARM/_Library/draw_Value.c **** 
 249:/Users/imashio/Electronics/ARM/_Library/draw_Value.c **** 	u8g2_SetFont(u8g2, meas_value_font_xs);
 1618              		.loc 1 249 0
 1619 0016 7E49     		ldr	r1, .L104+8
 1620              	.LVL184:
 241:/Users/imashio/Electronics/ARM/_Library/draw_Value.c **** 	int16_t int_value;
 1621              		.loc 1 241 0
 1622 0018 0697     		str	r7, [sp, #24]
 1623 001a 9DF86070 		ldrb	r7, [sp, #96]	@ zero_extendqisi2
 1624 001e 9DF85860 		ldrb	r6, [sp, #88]	@ zero_extendqisi2
 1625              	.LVL185:
 1626 0022 0797     		str	r7, [sp, #28]
 1627 0024 9246     		mov	r10, r2
 1628 0026 1F46     		mov	r7, r3
 1629 0028 8046     		mov	r8, r0
 246:/Users/imashio/Electronics/ARM/_Library/draw_Value.c **** 	uint8_t	str_offset;
 1630              		.loc 1 246 0
 1631 002a 0595     		str	r5, [sp, #20]
 241:/Users/imashio/Electronics/ARM/_Library/draw_Value.c **** 	int16_t int_value;
 1632              		.loc 1 241 0
 1633 002c 9DF850B0 		ldrb	fp, [sp, #80]	@ zero_extendqisi2
 1634              		.loc 1 249 0
 1635 0030 FFF7FEFF 		bl	u8g2_SetFont
 1636              	.LVL186:
 250:/Users/imashio/Electronics/ARM/_Library/draw_Value.c **** 
 251:/Users/imashio/Electronics/ARM/_Library/draw_Value.c **** 	str_offset = (width-1) - ( StrLength(unit)*4 + ((sign!=0)+digit)*font_width_xs + ((frac!=0)*font_w
 1637              		.loc 1 251 0
 1638 0034 2046     		mov	r0, r4
 1639 0036 FFF7FEFF 		bl	StrLength
 1640              	.LVL187:
 1641 003a 079B     		ldr	r3, [sp, #28]
 1642 003c 059A     		ldr	r2, [sp, #20]
 1643 003e 002B     		cmp	r3, #0
ARM GAS  /var/folders/v3/wysfpd052nz8jkbx04pk0ym80000gn/T//ccxb8FLR.s 			page 36


 1644 0040 0CBF     		ite	eq
 1645 0042 3446     		moveq	r4, r6
 1646 0044 741C     		addne	r4, r6, #1
 1647 0046 023F     		subs	r7, r7, #2
 1648 0048 04EB8404 		add	r4, r4, r4, lsl #2
 1649 004c FFB2     		uxtb	r7, r7
 246:/Users/imashio/Electronics/ARM/_Library/draw_Value.c **** 	uint8_t	str_offset;
 1650              		.loc 1 246 0
 1651 004e 751B     		subs	r5, r6, r5
 1652              		.loc 1 251 0
 1653 0050 8000     		lsls	r0, r0, #2
 1654 0052 E4B2     		uxtb	r4, r4
 1655 0054 002A     		cmp	r2, #0
 1656 0056 C0B2     		uxtb	r0, r0
 1657 0058 A7EB0404 		sub	r4, r7, r4
 246:/Users/imashio/Electronics/ARM/_Library/draw_Value.c **** 	uint8_t	str_offset;
 1658              		.loc 1 246 0
 1659 005c EDB2     		uxtb	r5, r5
 1660              	.LVL188:
 1661              		.loc 1 251 0
 1662 005e 0CBF     		ite	eq
 1663 0060 0023     		moveq	r3, #0
 1664 0062 0223     		movne	r3, #2
 1665 0064 241A     		subs	r4, r4, r0
 252:/Users/imashio/Electronics/ARM/_Library/draw_Value.c **** 
 253:/Users/imashio/Electronics/ARM/_Library/draw_Value.c **** 	// erase blank space
 254:/Users/imashio/Electronics/ARM/_Library/draw_Value.c **** 	u8g2_SetDrawColor(u8g2, 0); // erase color
 1666              		.loc 1 254 0
 1667 0066 0021     		movs	r1, #0
 1668 0068 4046     		mov	r0, r8
 1669              	.LBB29:
 255:/Users/imashio/Electronics/ARM/_Library/draw_Value.c **** 	for( uint8_t n=int_digit-1; n>0; n-- ){
 1670              		.loc 1 255 0
 1671 006a 6F1E     		subs	r7, r5, #1
 1672              	.LBE29:
 251:/Users/imashio/Electronics/ARM/_Library/draw_Value.c **** 
 1673              		.loc 1 251 0
 1674 006c E41A     		subs	r4, r4, r3
 254:/Users/imashio/Electronics/ARM/_Library/draw_Value.c **** 	for( uint8_t n=int_digit-1; n>0; n-- ){
 1675              		.loc 1 254 0
 1676 006e FFF7FEFF 		bl	u8g2_SetDrawColor
 1677              	.LVL189:
 1678              	.LBB34:
 1679              		.loc 1 255 0
 1680 0072 17F0FF07 		ands	r7, r7, #255
 1681              	.LBE34:
 251:/Users/imashio/Electronics/ARM/_Library/draw_Value.c **** 
 1682              		.loc 1 251 0
 1683 0076 E4B2     		uxtb	r4, r4
 1684              	.LVL190:
 1685              	.LBB35:
 1686              		.loc 1 255 0
 1687 0078 00F08C80 		beq	.L86
 1688 007c 0698     		ldr	r0, [sp, #24]
 1689 007e FFF7FEFF 		bl	__aeabi_i2d
 1690              	.LVL191:
 1691 0082 059A     		ldr	r2, [sp, #20]
ARM GAS  /var/folders/v3/wysfpd052nz8jkbx04pk0ym80000gn/T//ccxb8FLR.s 			page 37


 1692 0084 023D     		subs	r5, r5, #2
 1693              	.LVL192:
 1694 0086 531E     		subs	r3, r2, #1
 1695 0088 3B44     		add	r3, r3, r7
 1696 008a EDB2     		uxtb	r5, r5
 1697              	.LVL193:
 1698 008c 5B1B     		subs	r3, r3, r5
 1699 008e CDE90201 		strd	r0, [sp, #8]
 1700              	.LBB30:
 256:/Users/imashio/Electronics/ARM/_Library/draw_Value.c **** 		if( value >= pow(10, n+frac) ){
 1701              		.loc 1 256 0
 1702 0092 9FED5D8B 		vldr.64	d8, .L104
 1703 0096 0493     		str	r3, [sp, #16]
 1704 0098 1744     		add	r7, r7, r2
 1705 009a 0BE0     		b	.L88
 1706              	.LVL194:
 1707              	.L100:
 257:/Users/imashio/Electronics/ARM/_Library/draw_Value.c **** 			break;
 258:/Users/imashio/Electronics/ARM/_Library/draw_Value.c **** 		}else{
 259:/Users/imashio/Electronics/ARM/_Library/draw_Value.c **** 			u8g2_DrawBox(u8g2, x+str_offset, y, font_width_xs, height );
 1708              		.loc 1 259 0 discriminator 2
 1709 009c CDF800B0 		str	fp, [sp]
 1710 00a0 4046     		mov	r0, r8
 1711 00a2 FFF7FEFF 		bl	u8g2_DrawBox
 1712              	.LVL195:
 1713              	.LBE30:
 255:/Users/imashio/Electronics/ARM/_Library/draw_Value.c **** 		if( value >= pow(10, n+frac) ){
 1714              		.loc 1 255 0 discriminator 2
 1715 00a6 049B     		ldr	r3, [sp, #16]
 1716              	.LBB31:
 260:/Users/imashio/Electronics/ARM/_Library/draw_Value.c **** 			str_offset = str_offset + font_width_xs;
 1717              		.loc 1 260 0 discriminator 2
 1718 00a8 0534     		adds	r4, r4, #5
 1719              	.LVL196:
 261:/Users/imashio/Electronics/ARM/_Library/draw_Value.c **** 			valid_digit--;
 1720              		.loc 1 261 0 discriminator 2
 1721 00aa 013E     		subs	r6, r6, #1
 1722              	.LVL197:
 1723              	.LBE31:
 255:/Users/imashio/Electronics/ARM/_Library/draw_Value.c **** 		if( value >= pow(10, n+frac) ){
 1724              		.loc 1 255 0 discriminator 2
 1725 00ac 9F42     		cmp	r7, r3
 1726              	.LBB32:
 260:/Users/imashio/Electronics/ARM/_Library/draw_Value.c **** 			str_offset = str_offset + font_width_xs;
 1727              		.loc 1 260 0 discriminator 2
 1728 00ae E4B2     		uxtb	r4, r4
 1729              	.LVL198:
 1730              		.loc 1 261 0 discriminator 2
 1731 00b0 F6B2     		uxtb	r6, r6
 1732              	.LVL199:
 1733              	.LBE32:
 255:/Users/imashio/Electronics/ARM/_Library/draw_Value.c **** 		if( value >= pow(10, n+frac) ){
 1734              		.loc 1 255 0 discriminator 2
 1735 00b2 6FD0     		beq	.L86
 1736              	.LVL200:
 1737              	.L88:
 1738              	.LBB33:
ARM GAS  /var/folders/v3/wysfpd052nz8jkbx04pk0ym80000gn/T//ccxb8FLR.s 			page 38


 256:/Users/imashio/Electronics/ARM/_Library/draw_Value.c **** 			break;
 1739              		.loc 1 256 0
 1740 00b4 3846     		mov	r0, r7
 1741 00b6 FFF7FEFF 		bl	__aeabi_i2d
 1742              	.LVL201:
 1743 00ba B0EE480A 		vmov.f32	s0, s16
 1744 00be F0EE680A 		vmov.f32	s1, s17
 1745 00c2 41EC110B 		vmov	d1, r0, r1
 1746 00c6 FFF7FEFF 		bl	pow
 1747              	.LVL202:
 1748 00ca DDE90201 		ldrd	r0, [sp, #8]
 1749 00ce 53EC102B 		vmov	r2, r3, d0
 1750 00d2 FFF7FEFF 		bl	__aeabi_dcmpge
 1751              	.LVL203:
 1752 00d6 09EB0405 		add	r5, r9, r4
 1753 00da EDB2     		uxtb	r5, r5
 259:/Users/imashio/Electronics/ARM/_Library/draw_Value.c **** 			str_offset = str_offset + font_width_xs;
 1754              		.loc 1 259 0
 1755 00dc 0523     		movs	r3, #5
 1756 00de 5246     		mov	r2, r10
 1757 00e0 2946     		mov	r1, r5
 1758 00e2 013F     		subs	r7, r7, #1
 256:/Users/imashio/Electronics/ARM/_Library/draw_Value.c **** 			break;
 1759              		.loc 1 256 0
 1760 00e4 0028     		cmp	r0, #0
 1761 00e6 D9D0     		beq	.L100
 1762              	.LVL204:
 1763              	.L87:
 1764              	.LBE33:
 1765              	.LBE35:
 262:/Users/imashio/Electronics/ARM/_Library/draw_Value.c **** 		}
 263:/Users/imashio/Electronics/ARM/_Library/draw_Value.c **** 	}
 264:/Users/imashio/Electronics/ARM/_Library/draw_Value.c **** 	u8g2_SetDrawColor(u8g2, 1); // default color
 1766              		.loc 1 264 0
 1767 00e8 0121     		movs	r1, #1
 1768 00ea 4046     		mov	r0, r8
 1769 00ec FFF7FEFF 		bl	u8g2_SetDrawColor
 1770              	.LVL205:
 1771 00f0 ABF10207 		sub	r7, fp, #2
 265:/Users/imashio/Electronics/ARM/_Library/draw_Value.c **** 
 266:/Users/imashio/Electronics/ARM/_Library/draw_Value.c **** 	// sign
 267:/Users/imashio/Electronics/ARM/_Library/draw_Value.c **** 	if( sign!=0 ){
 1772              		.loc 1 267 0
 1773 00f4 079B     		ldr	r3, [sp, #28]
 1774 00f6 5744     		add	r7, r7, r10
 1775 00f8 FFB2     		uxtb	r7, r7
 1776 00fa 002B     		cmp	r3, #0
 1777 00fc 57D1     		bne	.L101
 1778              	.LVL206:
 1779              	.L89:
 268:/Users/imashio/Electronics/ARM/_Library/draw_Value.c **** 		// erase previous sign
 269:/Users/imashio/Electronics/ARM/_Library/draw_Value.c **** 		u8g2_SetDrawColor(u8g2, 0); // erase color
 270:/Users/imashio/Electronics/ARM/_Library/draw_Value.c **** 		u8g2_DrawBox(u8g2, x+str_offset, y, font_width_xs, height );
 271:/Users/imashio/Electronics/ARM/_Library/draw_Value.c **** 		u8g2_SetDrawColor(u8g2, 1); // default color
 272:/Users/imashio/Electronics/ARM/_Library/draw_Value.c **** 
 273:/Users/imashio/Electronics/ARM/_Library/draw_Value.c **** 		if(	value < 0 ){
 274:/Users/imashio/Electronics/ARM/_Library/draw_Value.c **** 			u8g2_DrawStr(u8g2, x+str_offset, y+height-2, "-");
ARM GAS  /var/folders/v3/wysfpd052nz8jkbx04pk0ym80000gn/T//ccxb8FLR.s 			page 39


 275:/Users/imashio/Electronics/ARM/_Library/draw_Value.c **** 			value = -value;
 276:/Users/imashio/Electronics/ARM/_Library/draw_Value.c **** 			str_offset = str_offset + font_width_xs;
 277:/Users/imashio/Electronics/ARM/_Library/draw_Value.c **** 		}else if( value >= 0 ){
 278:/Users/imashio/Electronics/ARM/_Library/draw_Value.c **** 			u8g2_DrawStr(u8g2, x+str_offset, y+height-2, "+");
 279:/Users/imashio/Electronics/ARM/_Library/draw_Value.c **** 			str_offset = str_offset + font_width_xs;
 280:/Users/imashio/Electronics/ARM/_Library/draw_Value.c **** 		}
 281:/Users/imashio/Electronics/ARM/_Library/draw_Value.c **** 	}
 282:/Users/imashio/Electronics/ARM/_Library/draw_Value.c **** 
 283:/Users/imashio/Electronics/ARM/_Library/draw_Value.c **** 	//int
 284:/Users/imashio/Electronics/ARM/_Library/draw_Value.c **** 	if( frac==0 ){
 1780              		.loc 1 284 0
 1781 00fe 059B     		ldr	r3, [sp, #20]
 1782 0100 002B     		cmp	r3, #0
 1783 0102 4BD0     		beq	.L102
 1784              	.LBB36:
 285:/Users/imashio/Electronics/ARM/_Library/draw_Value.c **** 		u8g2_DrawStr(u8g2, x+str_offset, y+height-2, u8g2_u16toa(value, valid_digit) );
 286:/Users/imashio/Electronics/ARM/_Library/draw_Value.c **** 	}else{
 287:/Users/imashio/Electronics/ARM/_Library/draw_Value.c **** 		pow10 = pow(10, frac);
 1785              		.loc 1 287 0
 1786 0104 DDF814A0 		ldr	r10, [sp, #20]
 1787 0108 5046     		mov	r0, r10
 1788 010a FFF7FEFF 		bl	__aeabi_ui2d
 1789              	.LVL207:
 1790 010e 9FED3E0B 		vldr.64	d0, .L104
 1791 0112 41EC110B 		vmov	d1, r0, r1
 1792 0116 FFF7FEFF 		bl	pow
 1793              	.LVL208:
 1794 011a 51EC100B 		vmov	r0, r1, d0
 1795 011e FFF7FEFF 		bl	__aeabi_d2uiz
 1796              	.LVL209:
 288:/Users/imashio/Electronics/ARM/_Library/draw_Value.c **** 		int_value = value / pow10;
 289:/Users/imashio/Electronics/ARM/_Library/draw_Value.c **** 		u8g2_DrawStr(u8g2, x+str_offset, y+height-2, u8g2_u16toa(int_value, valid_digit-frac) );
 1797              		.loc 1 289 0
 1798 0122 5346     		mov	r3, r10
 1799 0124 F61A     		subs	r6, r6, r3
 1800              	.LVL210:
 288:/Users/imashio/Electronics/ARM/_Library/draw_Value.c **** 		int_value = value / pow10;
 1801              		.loc 1 288 0
 1802 0126 069A     		ldr	r2, [sp, #24]
 1803              		.loc 1 289 0
 1804 0128 CDF814A0 		str	r10, [sp, #20]
 1805              	.LVL211:
 1806 012c F6B2     		uxtb	r6, r6
 287:/Users/imashio/Electronics/ARM/_Library/draw_Value.c **** 		int_value = value / pow10;
 1807              		.loc 1 287 0
 1808 012e 1FFA80FA 		uxth	r10, r0
 1809              	.LVL212:
 288:/Users/imashio/Electronics/ARM/_Library/draw_Value.c **** 		int_value = value / pow10;
 1810              		.loc 1 288 0
 1811 0132 92FBFAFB 		sdiv	fp, r2, r10
 1812              		.loc 1 289 0
 1813 0136 1FFA8BFB 		uxth	fp, fp
 1814 013a 3146     		mov	r1, r6
 1815 013c 5846     		mov	r0, fp
 1816 013e FFF7FEFF 		bl	u8x8_u16toa
 1817              	.LVL213:
 290:/Users/imashio/Electronics/ARM/_Library/draw_Value.c **** 		str_offset = str_offset + (valid_digit-frac)*font_width_xs;
ARM GAS  /var/folders/v3/wysfpd052nz8jkbx04pk0ym80000gn/T//ccxb8FLR.s 			page 40


 1818              		.loc 1 290 0
 1819 0142 06EB8606 		add	r6, r6, r6, lsl #2
 289:/Users/imashio/Electronics/ARM/_Library/draw_Value.c **** 		str_offset = str_offset + (valid_digit-frac)*font_width_xs;
 1820              		.loc 1 289 0
 1821 0146 0346     		mov	r3, r0
 1822 0148 3A46     		mov	r2, r7
 1823 014a 2946     		mov	r1, r5
 1824 014c 4046     		mov	r0, r8
 1825              		.loc 1 290 0
 1826 014e 3444     		add	r4, r4, r6
 1827              	.LVL214:
 289:/Users/imashio/Electronics/ARM/_Library/draw_Value.c **** 		str_offset = str_offset + (valid_digit-frac)*font_width_xs;
 1828              		.loc 1 289 0
 1829 0150 FFF7FEFF 		bl	u8g2_DrawStr
 1830              	.LVL215:
 1831              		.loc 1 290 0
 1832 0154 E4B2     		uxtb	r4, r4
 1833              	.LVL216:
 291:/Users/imashio/Electronics/ARM/_Library/draw_Value.c **** 
 292:/Users/imashio/Electronics/ARM/_Library/draw_Value.c **** 		u8g2_DrawStr(u8g2, x+str_offset - ( (font_width_xs>>1)-(font_width_xs>>2) ), y+height-2, ".");
 1834              		.loc 1 292 0
 1835 0156 09F1FF31 		add	r1, r9, #-1
 1836 015a 2144     		add	r1, r1, r4
 1837 015c 2D4B     		ldr	r3, .L104+12
 1838 015e C9B2     		uxtb	r1, r1
 1839 0160 3A46     		mov	r2, r7
 1840 0162 4046     		mov	r0, r8
 1841 0164 FFF7FEFF 		bl	u8g2_DrawStr
 1842              	.LVL217:
 293:/Users/imashio/Electronics/ARM/_Library/draw_Value.c **** 		str_offset = str_offset + (font_width_xs>>1);
 294:/Users/imashio/Electronics/ARM/_Library/draw_Value.c **** 
 295:/Users/imashio/Electronics/ARM/_Library/draw_Value.c **** 		sub_value = int_value * pow10;
 296:/Users/imashio/Electronics/ARM/_Library/draw_Value.c **** 		uint8_t frac_value = value - sub_value;
 1843              		.loc 1 296 0
 1844 0168 069A     		ldr	r2, [sp, #24]
 297:/Users/imashio/Electronics/ARM/_Library/draw_Value.c **** 
 298:/Users/imashio/Electronics/ARM/_Library/draw_Value.c **** 		u8g2_DrawStr(u8g2, x+str_offset, y+height-2, u8g2_u16toa(frac_value, frac) );
 1845              		.loc 1 298 0
 1846 016a 0599     		ldr	r1, [sp, #20]
 296:/Users/imashio/Electronics/ARM/_Library/draw_Value.c **** 
 1847              		.loc 1 296 0
 1848 016c 0BFB1A20 		mls	r0, fp, r10, r2
 1849              		.loc 1 298 0
 1850 0170 C0B2     		uxtb	r0, r0
 1851 0172 FFF7FEFF 		bl	u8x8_u16toa
 1852              	.LVL218:
 1853 0176 09F10209 		add	r9, r9, #2
 1854 017a 4C44     		add	r4, r4, r9
 1855              	.LVL219:
 1856 017c E4B2     		uxtb	r4, r4
 1857 017e 0346     		mov	r3, r0
 1858 0180 3A46     		mov	r2, r7
 1859 0182 2146     		mov	r1, r4
 1860              	.LVL220:
 1861              	.L99:
 1862 0184 4046     		mov	r0, r8
 1863              	.LBE36:
ARM GAS  /var/folders/v3/wysfpd052nz8jkbx04pk0ym80000gn/T//ccxb8FLR.s 			page 41


 299:/Users/imashio/Electronics/ARM/_Library/draw_Value.c **** 	}
 300:/Users/imashio/Electronics/ARM/_Library/draw_Value.c **** }
 1864              		.loc 1 300 0
 1865 0186 09B0     		add	sp, sp, #36
 1866              	.LCFI34:
 1867              		.cfi_remember_state
 1868              		.cfi_def_cfa_offset 44
 1869              		@ sp needed
 1870 0188 BDEC028B 		vldm	sp!, {d8}
 1871              	.LCFI35:
 1872              		.cfi_restore 80
 1873              		.cfi_restore 81
 1874              		.cfi_def_cfa_offset 36
 1875 018c BDE8F04F 		pop	{r4, r5, r6, r7, r8, r9, r10, fp, lr}
 1876              	.LCFI36:
 1877              		.cfi_restore 14
 1878              		.cfi_restore 11
 1879              		.cfi_restore 10
 1880              		.cfi_restore 9
 1881              		.cfi_restore 8
 1882              		.cfi_restore 7
 1883              		.cfi_restore 6
 1884              		.cfi_restore 5
 1885              		.cfi_restore 4
 1886              		.cfi_def_cfa_offset 0
 1887              	.LVL221:
 1888              	.LBB37:
 298:/Users/imashio/Electronics/ARM/_Library/draw_Value.c **** 	}
 1889              		.loc 1 298 0
 1890 0190 FFF7FEBF 		b	u8g2_DrawStr
 1891              	.LVL222:
 1892              	.L86:
 1893              	.LCFI37:
 1894              		.cfi_restore_state
 1895 0194 04EB0905 		add	r5, r4, r9
 1896 0198 EDB2     		uxtb	r5, r5
 1897 019a A5E7     		b	.L87
 1898              	.LVL223:
 1899              	.L102:
 1900              	.LBE37:
 285:/Users/imashio/Electronics/ARM/_Library/draw_Value.c **** 	}else{
 1901              		.loc 1 285 0
 1902 019c 3146     		mov	r1, r6
 1903 019e BDF81800 		ldrh	r0, [sp, #24]
 1904 01a2 FFF7FEFF 		bl	u8x8_u16toa
 1905              	.LVL224:
 1906 01a6 3A46     		mov	r2, r7
 1907 01a8 0346     		mov	r3, r0
 1908 01aa 2946     		mov	r1, r5
 1909 01ac EAE7     		b	.L99
 1910              	.LVL225:
 1911              	.L101:
 269:/Users/imashio/Electronics/ARM/_Library/draw_Value.c **** 		u8g2_DrawBox(u8g2, x+str_offset, y, font_width_xs, height );
 1912              		.loc 1 269 0
 1913 01ae 0021     		movs	r1, #0
 1914 01b0 4046     		mov	r0, r8
 1915 01b2 FFF7FEFF 		bl	u8g2_SetDrawColor
ARM GAS  /var/folders/v3/wysfpd052nz8jkbx04pk0ym80000gn/T//ccxb8FLR.s 			page 42


 1916              	.LVL226:
 270:/Users/imashio/Electronics/ARM/_Library/draw_Value.c **** 		u8g2_SetDrawColor(u8g2, 1); // default color
 1917              		.loc 1 270 0
 1918 01b6 5246     		mov	r2, r10
 1919 01b8 0523     		movs	r3, #5
 1920 01ba 2946     		mov	r1, r5
 1921 01bc 4046     		mov	r0, r8
 1922 01be CDF800B0 		str	fp, [sp]
 1923 01c2 FFF7FEFF 		bl	u8g2_DrawBox
 1924              	.LVL227:
 271:/Users/imashio/Electronics/ARM/_Library/draw_Value.c **** 
 1925              		.loc 1 271 0
 1926 01c6 0121     		movs	r1, #1
 1927 01c8 4046     		mov	r0, r8
 1928 01ca FFF7FEFF 		bl	u8g2_SetDrawColor
 1929              	.LVL228:
 1930 01ce 0534     		adds	r4, r4, #5
 1931              	.LVL229:
 273:/Users/imashio/Electronics/ARM/_Library/draw_Value.c **** 			u8g2_DrawStr(u8g2, x+str_offset, y+height-2, "-");
 1932              		.loc 1 273 0
 1933 01d0 069B     		ldr	r3, [sp, #24]
 1934 01d2 E4B2     		uxtb	r4, r4
 1935 01d4 09EB040A 		add	r10, r9, r4
 1936 01d8 002B     		cmp	r3, #0
 1937 01da 5FFA8AFA 		uxtb	r10, r10
 274:/Users/imashio/Electronics/ARM/_Library/draw_Value.c **** 			value = -value;
 1938              		.loc 1 274 0
 1939 01de 2946     		mov	r1, r5
 273:/Users/imashio/Electronics/ARM/_Library/draw_Value.c **** 			u8g2_DrawStr(u8g2, x+str_offset, y+height-2, "-");
 1940              		.loc 1 273 0
 1941 01e0 06DB     		blt	.L103
 278:/Users/imashio/Electronics/ARM/_Library/draw_Value.c **** 			str_offset = str_offset + font_width_xs;
 1942              		.loc 1 278 0
 1943 01e2 0D4B     		ldr	r3, .L104+16
 1944 01e4 3A46     		mov	r2, r7
 1945 01e6 4046     		mov	r0, r8
 1946 01e8 FFF7FEFF 		bl	u8g2_DrawStr
 1947              	.LVL230:
 1948 01ec 5546     		mov	r5, r10
 1949 01ee 86E7     		b	.L89
 1950              	.LVL231:
 1951              	.L103:
 274:/Users/imashio/Electronics/ARM/_Library/draw_Value.c **** 			value = -value;
 1952              		.loc 1 274 0
 1953 01f0 0A4B     		ldr	r3, .L104+20
 1954 01f2 3A46     		mov	r2, r7
 1955 01f4 4046     		mov	r0, r8
 1956 01f6 FFF7FEFF 		bl	u8g2_DrawStr
 1957              	.LVL232:
 275:/Users/imashio/Electronics/ARM/_Library/draw_Value.c **** 			str_offset = str_offset + font_width_xs;
 1958              		.loc 1 275 0
 1959 01fa 069B     		ldr	r3, [sp, #24]
 1960 01fc 5842     		negs	r0, r3
 1961 01fe 03B2     		sxth	r3, r0
 1962 0200 5546     		mov	r5, r10
 1963 0202 0693     		str	r3, [sp, #24]
 1964              	.LVL233:
ARM GAS  /var/folders/v3/wysfpd052nz8jkbx04pk0ym80000gn/T//ccxb8FLR.s 			page 43


 1965 0204 7BE7     		b	.L89
 1966              	.L105:
 1967 0206 00BF     		.align	3
 1968              	.L104:
 1969 0208 00000000 		.word	0
 1970 020c 00002440 		.word	1076101120
 1971 0210 00000000 		.word	u8g2_font_5x8_tf
 1972 0214 08000000 		.word	.LC2
 1973 0218 04000000 		.word	.LC1
 1974 021c 00000000 		.word	.LC0
 1975              		.cfi_endproc
 1976              	.LFE7:
 1978              		.section	.rodata.draw_Value.str1.4,"aMS",%progbits,1
 1979              		.align	2
 1980              	.LC0:
 1981 0000 2D00     		.ascii	"-\000"
 1982 0002 0000     		.space	2
 1983              	.LC1:
 1984 0004 2B00     		.ascii	"+\000"
 1985 0006 0000     		.space	2
 1986              	.LC2:
 1987 0008 2E00     		.ascii	".\000"
 1988              		.text
 1989              	.Letext0:
 1990              		.file 2 "/usr/local/gcc-arm-none-eabi-7-2018-q2-update/arm-none-eabi/include/machine/_default_type
 1991              		.file 3 "/usr/local/gcc-arm-none-eabi-7-2018-q2-update/arm-none-eabi/include/sys/_stdint.h"
 1992              		.file 4 "/Users/imashio/Electronics/ARM/_Library/u8x8.h"
 1993              		.file 5 "/Users/imashio/Electronics/ARM/_Library/u8g2.h"
 1994              		.file 6 "<built-in>"
ARM GAS  /var/folders/v3/wysfpd052nz8jkbx04pk0ym80000gn/T//ccxb8FLR.s 			page 44

