ARM GAS  /var/folders/v3/wysfpd052nz8jkbx04pk0ym80000gn/T//cc332yHx.s 			page 1


   1              		.cpu cortex-m4
   2              		.eabi_attribute 27, 1
   3              		.eabi_attribute 28, 1
   4              		.eabi_attribute 20, 1
   5              		.eabi_attribute 21, 1
   6              		.eabi_attribute 23, 3
   7              		.eabi_attribute 24, 1
   8              		.eabi_attribute 25, 1
   9              		.eabi_attribute 26, 1
  10              		.eabi_attribute 30, 2
  11              		.eabi_attribute 34, 1
  12              		.eabi_attribute 18, 4
  13              		.file	"draw_IndicatorBox.c"
  14              		.text
  15              	.Ltext0:
  16              		.cfi_sections	.debug_frame
  17              		.section	.text.draw_IndicatorBox,"ax",%progbits
  18              		.align	1
  19              		.p2align 2,,3
  20              		.global	draw_IndicatorBox
  21              		.syntax unified
  22              		.thumb
  23              		.thumb_func
  24              		.fpu fpv4-sp-d16
  26              	draw_IndicatorBox:
  27              	.LFB0:
  28              		.file 1 "/Users/imashio/Electronics/ARM/_Library/draw_IndicatorBox.c"
   1:/Users/imashio/Electronics/ARM/_Library/draw_IndicatorBox.c **** /*
   2:/Users/imashio/Electronics/ARM/_Library/draw_IndicatorBox.c ****  * drawIndicatorBox.c
   3:/Users/imashio/Electronics/ARM/_Library/draw_IndicatorBox.c ****  *
   4:/Users/imashio/Electronics/ARM/_Library/draw_IndicatorBox.c ****  *  Created on: Jan 29, 2018
   5:/Users/imashio/Electronics/ARM/_Library/draw_IndicatorBox.c ****  *      Author: imashio
   6:/Users/imashio/Electronics/ARM/_Library/draw_IndicatorBox.c ****  */
   7:/Users/imashio/Electronics/ARM/_Library/draw_IndicatorBox.c **** 
   8:/Users/imashio/Electronics/ARM/_Library/draw_IndicatorBox.c **** #include "u8g2.h"		// graphic display library
   9:/Users/imashio/Electronics/ARM/_Library/draw_IndicatorBox.c **** 
  10:/Users/imashio/Electronics/ARM/_Library/draw_IndicatorBox.c **** 
  11:/Users/imashio/Electronics/ARM/_Library/draw_IndicatorBox.c **** #define	idct_font		u8g2_font_micro_tr
  12:/Users/imashio/Electronics/ARM/_Library/draw_IndicatorBox.c **** 
  13:/Users/imashio/Electronics/ARM/_Library/draw_IndicatorBox.c **** void draw_IndicatorBox(u8g2_t *u8g2, uint8_t x, uint8_t y, uint8_t width, uint8_t height, uint8_t c
  29              		.loc 1 13 0
  30              		.cfi_startproc
  31              		@ args = 12, pretend = 0, frame = 0
  32              		@ frame_needed = 0, uses_anonymous_args = 0
  33              	.LVL0:
  34 0000 2DE9F04F 		push	{r4, r5, r6, r7, r8, r9, r10, fp, lr}
  35              	.LCFI0:
  36              		.cfi_def_cfa_offset 36
  37              		.cfi_offset 4, -36
  38              		.cfi_offset 5, -32
  39              		.cfi_offset 6, -28
  40              		.cfi_offset 7, -24
  41              		.cfi_offset 8, -20
  42              		.cfi_offset 9, -16
  43              		.cfi_offset 10, -12
  44              		.cfi_offset 11, -8
  45              		.cfi_offset 14, -4
ARM GAS  /var/folders/v3/wysfpd052nz8jkbx04pk0ym80000gn/T//cc332yHx.s 			page 2


  46 0004 83B0     		sub	sp, sp, #12
  47              	.LCFI1:
  48              		.cfi_def_cfa_offset 48
  49              		.loc 1 13 0
  50 0006 0546     		mov	r5, r0
  51 0008 9DF834A0 		ldrb	r10, [sp, #52]	@ zero_extendqisi2
  52 000c 9DF83090 		ldrb	r9, [sp, #48]	@ zero_extendqisi2
  53 0010 DDF83880 		ldr	r8, [sp, #56]
  54 0014 0C46     		mov	r4, r1
  14:/Users/imashio/Electronics/ARM/_Library/draw_IndicatorBox.c **** 	uint8_t	str_offset;
  15:/Users/imashio/Electronics/ARM/_Library/draw_IndicatorBox.c **** 	u8g2_SetDrawColor(u8g2, 1); // default color
  55              		.loc 1 15 0
  56 0016 0121     		movs	r1, #1
  57              	.LVL1:
  13:/Users/imashio/Electronics/ARM/_Library/draw_IndicatorBox.c **** 	uint8_t	str_offset;
  58              		.loc 1 13 0
  59 0018 1646     		mov	r6, r2
  60 001a 1F46     		mov	r7, r3
  61              		.loc 1 15 0
  62 001c FFF7FEFF 		bl	u8g2_SetDrawColor
  63              	.LVL2:
  16:/Users/imashio/Electronics/ARM/_Library/draw_IndicatorBox.c **** 	u8g2_SetFont(u8g2, idct_font);
  64              		.loc 1 16 0
  65 0020 2846     		mov	r0, r5
  66 0022 1F49     		ldr	r1, .L7
  67 0024 FFF7FEFF 		bl	u8g2_SetFont
  68              	.LVL3:
  17:/Users/imashio/Electronics/ARM/_Library/draw_IndicatorBox.c **** 	if( color == 1 ){
  69              		.loc 1 17 0
  70 0028 BAF1010F 		cmp	r10, #1
  71 002c 24D0     		beq	.L6
  18:/Users/imashio/Electronics/ARM/_Library/draw_IndicatorBox.c **** 		u8g2_DrawRBox(u8g2, x, y, width, height, 2);
  19:/Users/imashio/Electronics/ARM/_Library/draw_IndicatorBox.c **** 		u8g2_SetDrawColor(u8g2, 2); // xor color
  20:/Users/imashio/Electronics/ARM/_Library/draw_IndicatorBox.c **** 		u8g2_SetFontMode(u8g2, 1); // set font mode transparent
  21:/Users/imashio/Electronics/ARM/_Library/draw_IndicatorBox.c **** 	}else{
  22:/Users/imashio/Electronics/ARM/_Library/draw_IndicatorBox.c **** 	  u8g2_DrawRFrame(u8g2, x, y, width, height, 2);
  72              		.loc 1 22 0
  73 002e 0223     		movs	r3, #2
  74 0030 CDE90093 		strd	r9, r3, [sp]
  75 0034 3246     		mov	r2, r6
  76 0036 3B46     		mov	r3, r7
  77 0038 2146     		mov	r1, r4
  78 003a 2846     		mov	r0, r5
  79 003c FFF7FEFF 		bl	u8g2_DrawRFrame
  80              	.LVL4:
  81              	.L3:
  23:/Users/imashio/Electronics/ARM/_Library/draw_IndicatorBox.c **** 	}
  24:/Users/imashio/Electronics/ARM/_Library/draw_IndicatorBox.c **** 	str_offset = ( (width - StrLength(str)*4)>>1 ) + 1;
  82              		.loc 1 24 0
  83 0040 4046     		mov	r0, r8
  84 0042 FFF7FEFF 		bl	StrLength
  85              	.LVL5:
  25:/Users/imashio/Electronics/ARM/_Library/draw_IndicatorBox.c **** 	u8g2_DrawStr(u8g2, x+str_offset, y+(height-2), str);
  86              		.loc 1 25 0
  87 0046 0134     		adds	r4, r4, #1
  24:/Users/imashio/Electronics/ARM/_Library/draw_IndicatorBox.c **** 	u8g2_DrawStr(u8g2, x+str_offset, y+(height-2), str);
  88              		.loc 1 24 0
ARM GAS  /var/folders/v3/wysfpd052nz8jkbx04pk0ym80000gn/T//cc332yHx.s 			page 3


  89 0048 A7EB8001 		sub	r1, r7, r0, lsl #2
  90              		.loc 1 25 0
  91 004c A9F10202 		sub	r2, r9, #2
  92 0050 3244     		add	r2, r2, r6
  93 0052 04EB6101 		add	r1, r4, r1, asr #1
  94 0056 D2B2     		uxtb	r2, r2
  95 0058 4346     		mov	r3, r8
  96 005a C9B2     		uxtb	r1, r1
  97 005c 2846     		mov	r0, r5
  98              	.LVL6:
  99 005e FFF7FEFF 		bl	u8g2_DrawStr
 100              	.LVL7:
  26:/Users/imashio/Electronics/ARM/_Library/draw_IndicatorBox.c **** 	u8g2_SetFontMode(u8g2, 0); // set font mode normal
 101              		.loc 1 26 0
 102 0062 2846     		mov	r0, r5
 103 0064 0021     		movs	r1, #0
 104 0066 FFF7FEFF 		bl	u8g2_SetFontMode
 105              	.LVL8:
  27:/Users/imashio/Electronics/ARM/_Library/draw_IndicatorBox.c **** 	u8g2_SetDrawColor(u8g2, 1); // default color
 106              		.loc 1 27 0
 107 006a 2846     		mov	r0, r5
 108 006c 0121     		movs	r1, #1
  28:/Users/imashio/Electronics/ARM/_Library/draw_IndicatorBox.c **** }
 109              		.loc 1 28 0
 110 006e 03B0     		add	sp, sp, #12
 111              	.LCFI2:
 112              		.cfi_remember_state
 113              		.cfi_def_cfa_offset 36
 114              		@ sp needed
 115 0070 BDE8F04F 		pop	{r4, r5, r6, r7, r8, r9, r10, fp, lr}
 116              	.LCFI3:
 117              		.cfi_restore 14
 118              		.cfi_restore 11
 119              		.cfi_restore 10
 120              		.cfi_restore 9
 121              		.cfi_restore 8
 122              		.cfi_restore 7
 123              		.cfi_restore 6
 124              		.cfi_restore 5
 125              		.cfi_restore 4
 126              		.cfi_def_cfa_offset 0
 127              	.LVL9:
  27:/Users/imashio/Electronics/ARM/_Library/draw_IndicatorBox.c **** 	u8g2_SetDrawColor(u8g2, 1); // default color
 128              		.loc 1 27 0
 129 0074 FFF7FEBF 		b	u8g2_SetDrawColor
 130              	.LVL10:
 131              	.L6:
 132              	.LCFI4:
 133              		.cfi_restore_state
  18:/Users/imashio/Electronics/ARM/_Library/draw_IndicatorBox.c **** 		u8g2_SetDrawColor(u8g2, 2); // xor color
 134              		.loc 1 18 0
 135 0078 4FF0020B 		mov	fp, #2
 136 007c 3B46     		mov	r3, r7
 137 007e 3246     		mov	r2, r6
 138 0080 2146     		mov	r1, r4
 139 0082 2846     		mov	r0, r5
 140 0084 CDE9009B 		strd	r9, fp, [sp]
ARM GAS  /var/folders/v3/wysfpd052nz8jkbx04pk0ym80000gn/T//cc332yHx.s 			page 4


 141 0088 FFF7FEFF 		bl	u8g2_DrawRBox
 142              	.LVL11:
  19:/Users/imashio/Electronics/ARM/_Library/draw_IndicatorBox.c **** 		u8g2_SetFontMode(u8g2, 1); // set font mode transparent
 143              		.loc 1 19 0
 144 008c 5946     		mov	r1, fp
 145 008e 2846     		mov	r0, r5
 146 0090 FFF7FEFF 		bl	u8g2_SetDrawColor
 147              	.LVL12:
  20:/Users/imashio/Electronics/ARM/_Library/draw_IndicatorBox.c **** 	}else{
 148              		.loc 1 20 0
 149 0094 5146     		mov	r1, r10
 150 0096 2846     		mov	r0, r5
 151 0098 FFF7FEFF 		bl	u8g2_SetFontMode
 152              	.LVL13:
 153 009c D0E7     		b	.L3
 154              	.L8:
 155 009e 00BF     		.align	2
 156              	.L7:
 157 00a0 00000000 		.word	u8g2_font_micro_tr
 158              		.cfi_endproc
 159              	.LFE0:
 161              		.text
 162              	.Letext0:
 163              		.file 2 "/usr/local/gcc-arm-none-eabi-7-2018-q2-update/arm-none-eabi/include/machine/_default_type
 164              		.file 3 "/usr/local/gcc-arm-none-eabi-7-2018-q2-update/arm-none-eabi/include/sys/_stdint.h"
 165              		.file 4 "/Users/imashio/Electronics/ARM/_Library/u8x8.h"
 166              		.file 5 "/Users/imashio/Electronics/ARM/_Library/u8g2.h"
ARM GAS  /var/folders/v3/wysfpd052nz8jkbx04pk0ym80000gn/T//cc332yHx.s 			page 5

