ARM GAS  /var/folders/v3/wysfpd052nz8jkbx04pk0ym80000gn/T//ccBlCFWU.s 			page 1


   1              		.cpu cortex-m4
   2              		.eabi_attribute 27, 1
   3              		.eabi_attribute 28, 1
   4              		.eabi_attribute 20, 1
   5              		.eabi_attribute 21, 1
   6              		.eabi_attribute 23, 3
   7              		.eabi_attribute 24, 1
   8              		.eabi_attribute 25, 1
   9              		.eabi_attribute 26, 1
  10              		.eabi_attribute 30, 2
  11              		.eabi_attribute 34, 1
  12              		.eabi_attribute 18, 4
  13              		.file	"draw_Value.c"
  14              		.text
  15              	.Ltext0:
  16              		.cfi_sections	.debug_frame
  17              		.section	.text.draw_MeasLabelUnit,"ax",%progbits
  18              		.align	1
  19              		.p2align 2,,3
  20              		.global	draw_MeasLabelUnit
  21              		.syntax unified
  22              		.thumb
  23              		.thumb_func
  24              		.fpu fpv4-sp-d16
  26              	draw_MeasLabelUnit:
  27              	.LFB0:
  28              		.file 1 "/Users/imashio/Electronics/ARM/_Library/draw_Value.c"
   1:/Users/imashio/Electronics/ARM/_Library/draw_Value.c **** /*
   2:/Users/imashio/Electronics/ARM/_Library/draw_Value.c ****  * drawStr.c
   3:/Users/imashio/Electronics/ARM/_Library/draw_Value.c ****  *
   4:/Users/imashio/Electronics/ARM/_Library/draw_Value.c ****  *  Created on: Jan 29, 2018
   5:/Users/imashio/Electronics/ARM/_Library/draw_Value.c ****  *      Author: imashio
   6:/Users/imashio/Electronics/ARM/_Library/draw_Value.c ****  */
   7:/Users/imashio/Electronics/ARM/_Library/draw_Value.c **** 
   8:/Users/imashio/Electronics/ARM/_Library/draw_Value.c **** #include "u8g2.h"		// graphic display library
   9:/Users/imashio/Electronics/ARM/_Library/draw_Value.c **** 
  10:/Users/imashio/Electronics/ARM/_Library/draw_Value.c **** 
  11:/Users/imashio/Electronics/ARM/_Library/draw_Value.c **** #define	meas_label_font		u8g2_font_5x8_tf
  12:/Users/imashio/Electronics/ARM/_Library/draw_Value.c **** #define	meas_unit_font		u8g2_font_4x6_tf
  13:/Users/imashio/Electronics/ARM/_Library/draw_Value.c **** #define	meas_value_font		u8g2_font_7x14B_tf
  14:/Users/imashio/Electronics/ARM/_Library/draw_Value.c **** #define	meas_value_font_s	u8g2_font_6x10_tf
  15:/Users/imashio/Electronics/ARM/_Library/draw_Value.c **** #define	meas_value_font_xs	u8g2_font_5x8_tf
  16:/Users/imashio/Electronics/ARM/_Library/draw_Value.c **** 
  17:/Users/imashio/Electronics/ARM/_Library/draw_Value.c **** #define font_width			7
  18:/Users/imashio/Electronics/ARM/_Library/draw_Value.c **** #define font_width_s		6
  19:/Users/imashio/Electronics/ARM/_Library/draw_Value.c **** #define font_width_xs		5
  20:/Users/imashio/Electronics/ARM/_Library/draw_Value.c **** 
  21:/Users/imashio/Electronics/ARM/_Library/draw_Value.c **** void draw_MeasLabelUnit(u8g2_t *u8g2, uint8_t x, uint8_t y, uint8_t width, uint8_t height, const ch
  29              		.loc 1 21 0
  30              		.cfi_startproc
  31              		@ args = 12, pretend = 0, frame = 0
  32              		@ frame_needed = 0, uses_anonymous_args = 0
  33              	.LVL0:
  34 0000 2DE9F047 		push	{r4, r5, r6, r7, r8, r9, r10, lr}
  35              	.LCFI0:
  36              		.cfi_def_cfa_offset 32
  37              		.cfi_offset 4, -32
ARM GAS  /var/folders/v3/wysfpd052nz8jkbx04pk0ym80000gn/T//ccBlCFWU.s 			page 2


  38              		.cfi_offset 5, -28
  39              		.cfi_offset 6, -24
  40              		.cfi_offset 7, -20
  41              		.cfi_offset 8, -16
  42              		.cfi_offset 9, -12
  43              		.cfi_offset 10, -8
  44              		.cfi_offset 14, -4
  45              		.loc 1 21 0
  46 0004 9DF820A0 		ldrb	r10, [sp, #32]	@ zero_extendqisi2
  47 0008 DDE90998 		ldrd	r9, r8, [sp, #36]
  48 000c 1546     		mov	r5, r2
  22:/Users/imashio/Electronics/ARM/_Library/draw_Value.c **** 	uint8_t	str_offset;
  23:/Users/imashio/Electronics/ARM/_Library/draw_Value.c **** 	u8g2_SetFont(u8g2, meas_label_font);
  24:/Users/imashio/Electronics/ARM/_Library/draw_Value.c **** 	u8g2_DrawStr(u8g2, x, y+height-2, name );
  49              		.loc 1 24 0
  50 000e AAF1020A 		sub	r10, r10, #2
  51 0012 5544     		add	r5, r5, r10
  21:/Users/imashio/Electronics/ARM/_Library/draw_Value.c **** 	uint8_t	str_offset;
  52              		.loc 1 21 0
  53 0014 0646     		mov	r6, r0
  54 0016 0C46     		mov	r4, r1
  55              		.loc 1 24 0
  56 0018 EDB2     		uxtb	r5, r5
  23:/Users/imashio/Electronics/ARM/_Library/draw_Value.c **** 	u8g2_DrawStr(u8g2, x, y+height-2, name );
  57              		.loc 1 23 0
  58 001a 0E49     		ldr	r1, .L4
  59              	.LVL1:
  21:/Users/imashio/Electronics/ARM/_Library/draw_Value.c **** 	uint8_t	str_offset;
  60              		.loc 1 21 0
  61 001c 1F46     		mov	r7, r3
  23:/Users/imashio/Electronics/ARM/_Library/draw_Value.c **** 	u8g2_DrawStr(u8g2, x, y+height-2, name );
  62              		.loc 1 23 0
  63 001e FFF7FEFF 		bl	u8g2_SetFont
  64              	.LVL2:
  65              		.loc 1 24 0
  66 0022 4B46     		mov	r3, r9
  67 0024 2A46     		mov	r2, r5
  68 0026 2146     		mov	r1, r4
  69 0028 3046     		mov	r0, r6
  70 002a FFF7FEFF 		bl	u8g2_DrawStr
  71              	.LVL3:
  25:/Users/imashio/Electronics/ARM/_Library/draw_Value.c **** 	u8g2_SetFont(u8g2, meas_unit_font);
  72              		.loc 1 25 0
  73 002e 3046     		mov	r0, r6
  74 0030 0949     		ldr	r1, .L4+4
  75 0032 FFF7FEFF 		bl	u8g2_SetFont
  76              	.LVL4:
  26:/Users/imashio/Electronics/ARM/_Library/draw_Value.c **** 	str_offset = (width-1) - (StrLength(unit)*4);
  77              		.loc 1 26 0
  78 0036 4046     		mov	r0, r8
  79 0038 FFF7FEFF 		bl	StrLength
  80              	.LVL5:
  27:/Users/imashio/Electronics/ARM/_Library/draw_Value.c **** 	u8g2_DrawStr(u8g2, x+str_offset, y+height-2, unit );
  81              		.loc 1 27 0
  82 003c 791E     		subs	r1, r7, #1
  83 003e 2144     		add	r1, r1, r4
  84 0040 A1EB8001 		sub	r1, r1, r0, lsl #2
ARM GAS  /var/folders/v3/wysfpd052nz8jkbx04pk0ym80000gn/T//ccBlCFWU.s 			page 3


  85 0044 2A46     		mov	r2, r5
  86 0046 4346     		mov	r3, r8
  87 0048 3046     		mov	r0, r6
  88              	.LVL6:
  89 004a C9B2     		uxtb	r1, r1
  28:/Users/imashio/Electronics/ARM/_Library/draw_Value.c **** }
  90              		.loc 1 28 0
  91 004c BDE8F047 		pop	{r4, r5, r6, r7, r8, r9, r10, lr}
  92              	.LCFI1:
  93              		.cfi_restore 14
  94              		.cfi_restore 10
  95              		.cfi_restore 9
  96              		.cfi_restore 8
  97              		.cfi_restore 7
  98              		.cfi_restore 6
  99              		.cfi_restore 5
 100              		.cfi_restore 4
 101              		.cfi_def_cfa_offset 0
 102              	.LVL7:
  27:/Users/imashio/Electronics/ARM/_Library/draw_Value.c **** 	u8g2_DrawStr(u8g2, x+str_offset, y+height-2, unit );
 103              		.loc 1 27 0
 104 0050 FFF7FEBF 		b	u8g2_DrawStr
 105              	.LVL8:
 106              	.L5:
 107              		.align	2
 108              	.L4:
 109 0054 00000000 		.word	u8g2_font_5x8_tf
 110 0058 00000000 		.word	u8g2_font_4x6_tf
 111              		.cfi_endproc
 112              	.LFE0:
 114              		.section	.text.draw_MeasLabel,"ax",%progbits
 115              		.align	1
 116              		.p2align 2,,3
 117              		.global	draw_MeasLabel
 118              		.syntax unified
 119              		.thumb
 120              		.thumb_func
 121              		.fpu fpv4-sp-d16
 123              	draw_MeasLabel:
 124              	.LFB1:
  29:/Users/imashio/Electronics/ARM/_Library/draw_Value.c **** 
  30:/Users/imashio/Electronics/ARM/_Library/draw_Value.c **** void draw_MeasLabel(u8g2_t *u8g2, uint8_t x, uint8_t y, uint8_t width, uint8_t height, const char *
 125              		.loc 1 30 0
 126              		.cfi_startproc
 127              		@ args = 8, pretend = 0, frame = 0
 128              		@ frame_needed = 0, uses_anonymous_args = 0
 129              	.LVL9:
 130 0000 2DE9F041 		push	{r4, r5, r6, r7, r8, lr}
 131              	.LCFI2:
 132              		.cfi_def_cfa_offset 24
 133              		.cfi_offset 4, -24
 134              		.cfi_offset 5, -20
 135              		.cfi_offset 6, -16
 136              		.cfi_offset 7, -12
 137              		.cfi_offset 8, -8
 138              		.cfi_offset 14, -4
 139              		.loc 1 30 0
ARM GAS  /var/folders/v3/wysfpd052nz8jkbx04pk0ym80000gn/T//ccBlCFWU.s 			page 4


 140 0004 9DF81850 		ldrb	r5, [sp, #24]	@ zero_extendqisi2
 141 0008 DDF81C80 		ldr	r8, [sp, #28]
 142 000c 0F46     		mov	r7, r1
  31:/Users/imashio/Electronics/ARM/_Library/draw_Value.c **** 	u8g2_SetFont(u8g2, meas_label_font);
 143              		.loc 1 31 0
 144 000e 0749     		ldr	r1, .L8
 145              	.LVL10:
  30:/Users/imashio/Electronics/ARM/_Library/draw_Value.c **** 	u8g2_SetFont(u8g2, meas_label_font);
 146              		.loc 1 30 0
 147 0010 1446     		mov	r4, r2
 148 0012 0646     		mov	r6, r0
 149              		.loc 1 31 0
 150 0014 FFF7FEFF 		bl	u8g2_SetFont
 151              	.LVL11:
  32:/Users/imashio/Electronics/ARM/_Library/draw_Value.c **** 	u8g2_DrawStr(u8g2, x, y+height-2, name );
 152              		.loc 1 32 0
 153 0018 AA1E     		subs	r2, r5, #2
 154 001a 2244     		add	r2, r2, r4
 155 001c 4346     		mov	r3, r8
 156 001e 3946     		mov	r1, r7
 157 0020 3046     		mov	r0, r6
 158 0022 D2B2     		uxtb	r2, r2
  33:/Users/imashio/Electronics/ARM/_Library/draw_Value.c **** }
 159              		.loc 1 33 0
 160 0024 BDE8F041 		pop	{r4, r5, r6, r7, r8, lr}
 161              	.LCFI3:
 162              		.cfi_restore 14
 163              		.cfi_restore 8
 164              		.cfi_restore 7
 165              		.cfi_restore 6
 166              		.cfi_restore 5
 167              		.cfi_restore 4
 168              		.cfi_def_cfa_offset 0
 169              	.LVL12:
  32:/Users/imashio/Electronics/ARM/_Library/draw_Value.c **** 	u8g2_DrawStr(u8g2, x, y+height-2, name );
 170              		.loc 1 32 0
 171 0028 FFF7FEBF 		b	u8g2_DrawStr
 172              	.LVL13:
 173              	.L9:
 174              		.align	2
 175              	.L8:
 176 002c 00000000 		.word	u8g2_font_5x8_tf
 177              		.cfi_endproc
 178              	.LFE1:
 180              		.section	.text.draw_MeasUnit,"ax",%progbits
 181              		.align	1
 182              		.p2align 2,,3
 183              		.global	draw_MeasUnit
 184              		.syntax unified
 185              		.thumb
 186              		.thumb_func
 187              		.fpu fpv4-sp-d16
 189              	draw_MeasUnit:
 190              	.LFB2:
  34:/Users/imashio/Electronics/ARM/_Library/draw_Value.c **** 
  35:/Users/imashio/Electronics/ARM/_Library/draw_Value.c **** void draw_MeasUnit(u8g2_t *u8g2, uint8_t x, uint8_t y, uint8_t width, uint8_t height, const char *u
 191              		.loc 1 35 0
ARM GAS  /var/folders/v3/wysfpd052nz8jkbx04pk0ym80000gn/T//ccBlCFWU.s 			page 5


 192              		.cfi_startproc
 193              		@ args = 8, pretend = 0, frame = 0
 194              		@ frame_needed = 0, uses_anonymous_args = 0
 195              	.LVL14:
 196 0000 2DE9F047 		push	{r4, r5, r6, r7, r8, r9, r10, lr}
 197              	.LCFI4:
 198              		.cfi_def_cfa_offset 32
 199              		.cfi_offset 4, -32
 200              		.cfi_offset 5, -28
 201              		.cfi_offset 6, -24
 202              		.cfi_offset 7, -20
 203              		.cfi_offset 8, -16
 204              		.cfi_offset 9, -12
 205              		.cfi_offset 10, -8
 206              		.cfi_offset 14, -4
 207              		.loc 1 35 0
 208 0004 099F     		ldr	r7, [sp, #36]
 209 0006 9DF82060 		ldrb	r6, [sp, #32]	@ zero_extendqisi2
 210 000a 8946     		mov	r9, r1
  36:/Users/imashio/Electronics/ARM/_Library/draw_Value.c **** 	uint8_t	str_offset;
  37:/Users/imashio/Electronics/ARM/_Library/draw_Value.c **** 	u8g2_SetFont(u8g2, meas_unit_font);
 211              		.loc 1 37 0
 212 000c 0B49     		ldr	r1, .L12
 213              	.LVL15:
  35:/Users/imashio/Electronics/ARM/_Library/draw_Value.c **** 	uint8_t	str_offset;
 214              		.loc 1 35 0
 215 000e 1546     		mov	r5, r2
 216 0010 1C46     		mov	r4, r3
 217 0012 8046     		mov	r8, r0
 218              		.loc 1 37 0
 219 0014 FFF7FEFF 		bl	u8g2_SetFont
 220              	.LVL16:
  38:/Users/imashio/Electronics/ARM/_Library/draw_Value.c **** 	str_offset = (width-1) - (StrLength(unit)*4);
 221              		.loc 1 38 0
 222 0018 3846     		mov	r0, r7
 223 001a FFF7FEFF 		bl	StrLength
 224              	.LVL17:
  39:/Users/imashio/Electronics/ARM/_Library/draw_Value.c **** 	u8g2_DrawStr(u8g2, x+str_offset, y+height-2, unit );
 225              		.loc 1 39 0
 226 001e 09F1FF39 		add	r9, r9, #-1
 227 0022 4C44     		add	r4, r4, r9
 228              	.LVL18:
 229 0024 B21E     		subs	r2, r6, #2
 230 0026 A4EB8004 		sub	r4, r4, r0, lsl #2
 231 002a 2A44     		add	r2, r2, r5
 232 002c E1B2     		uxtb	r1, r4
 233 002e 3B46     		mov	r3, r7
 234 0030 4046     		mov	r0, r8
 235 0032 D2B2     		uxtb	r2, r2
  40:/Users/imashio/Electronics/ARM/_Library/draw_Value.c **** }
 236              		.loc 1 40 0
 237 0034 BDE8F047 		pop	{r4, r5, r6, r7, r8, r9, r10, lr}
 238              	.LCFI5:
 239              		.cfi_restore 14
 240              		.cfi_restore 10
 241              		.cfi_restore 9
 242              		.cfi_restore 8
ARM GAS  /var/folders/v3/wysfpd052nz8jkbx04pk0ym80000gn/T//ccBlCFWU.s 			page 6


 243              		.cfi_restore 7
 244              		.cfi_restore 6
 245              		.cfi_restore 5
 246              		.cfi_restore 4
 247              		.cfi_def_cfa_offset 0
 248              	.LVL19:
  39:/Users/imashio/Electronics/ARM/_Library/draw_Value.c **** 	u8g2_DrawStr(u8g2, x+str_offset, y+height-2, unit );
 249              		.loc 1 39 0
 250 0038 FFF7FEBF 		b	u8g2_DrawStr
 251              	.LVL20:
 252              	.L13:
 253              		.align	2
 254              	.L12:
 255 003c 00000000 		.word	u8g2_font_4x6_tf
 256              		.cfi_endproc
 257              	.LFE2:
 259              		.global	__aeabi_i2d
 260              		.global	__aeabi_dcmpge
 261              		.global	__aeabi_ui2d
 262              		.global	__aeabi_d2uiz
 263              		.section	.text.draw_Value,"ax",%progbits
 264              		.align	1
 265              		.p2align 2,,3
 266              		.global	draw_Value
 267              		.syntax unified
 268              		.thumb
 269              		.thumb_func
 270              		.fpu fpv4-sp-d16
 272              	draw_Value:
 273              	.LFB3:
  41:/Users/imashio/Electronics/ARM/_Library/draw_Value.c **** 
  42:/Users/imashio/Electronics/ARM/_Library/draw_Value.c **** void draw_Value(u8g2_t *u8g2, uint8_t x, uint8_t y, uint8_t width, uint8_t height, int16_t value, u
 274              		.loc 1 42 0
 275              		.cfi_startproc
 276              		@ args = 24, pretend = 0, frame = 24
 277              		@ frame_needed = 0, uses_anonymous_args = 0
 278              	.LVL21:
 279 0000 2DE9F04F 		push	{r4, r5, r6, r7, r8, r9, r10, fp, lr}
 280              	.LCFI6:
 281              		.cfi_def_cfa_offset 36
 282              		.cfi_offset 4, -36
 283              		.cfi_offset 5, -32
 284              		.cfi_offset 6, -28
 285              		.cfi_offset 7, -24
 286              		.cfi_offset 8, -20
 287              		.cfi_offset 9, -16
 288              		.cfi_offset 10, -12
 289              		.cfi_offset 11, -8
 290              		.cfi_offset 14, -4
 291 0004 2DED028B 		vpush.64	{d8}
 292              	.LCFI7:
 293              		.cfi_def_cfa_offset 44
 294              		.cfi_offset 80, -44
 295              		.cfi_offset 81, -40
 296 0008 89B0     		sub	sp, sp, #36
 297              	.LCFI8:
 298              		.cfi_def_cfa_offset 80
ARM GAS  /var/folders/v3/wysfpd052nz8jkbx04pk0ym80000gn/T//ccBlCFWU.s 			page 7


 299              		.loc 1 42 0
 300 000a 8946     		mov	r9, r1
 301 000c 199C     		ldr	r4, [sp, #100]
 302 000e BDF95470 		ldrsh	r7, [sp, #84]
 303 0012 9DF85C50 		ldrb	r5, [sp, #92]	@ zero_extendqisi2
  43:/Users/imashio/Electronics/ARM/_Library/draw_Value.c **** 	int16_t int_value;
  44:/Users/imashio/Electronics/ARM/_Library/draw_Value.c **** 	int16_t sub_value;
  45:/Users/imashio/Electronics/ARM/_Library/draw_Value.c **** 	uint16_t pow10 = 1;
  46:/Users/imashio/Electronics/ARM/_Library/draw_Value.c **** 	uint8_t valid_digit = digit;
  47:/Users/imashio/Electronics/ARM/_Library/draw_Value.c **** 	uint8_t int_digit = digit-frac;
  48:/Users/imashio/Electronics/ARM/_Library/draw_Value.c **** 	uint8_t	str_offset;
  49:/Users/imashio/Electronics/ARM/_Library/draw_Value.c **** 
  50:/Users/imashio/Electronics/ARM/_Library/draw_Value.c **** 	u8g2_SetFont(u8g2, meas_value_font);
 304              		.loc 1 50 0
 305 0016 7E49     		ldr	r1, .L34+8
 306              	.LVL22:
  42:/Users/imashio/Electronics/ARM/_Library/draw_Value.c **** 	int16_t int_value;
 307              		.loc 1 42 0
 308 0018 0697     		str	r7, [sp, #24]
 309 001a 9DF86070 		ldrb	r7, [sp, #96]	@ zero_extendqisi2
 310 001e 9DF85860 		ldrb	r6, [sp, #88]	@ zero_extendqisi2
 311              	.LVL23:
 312 0022 0797     		str	r7, [sp, #28]
 313 0024 9246     		mov	r10, r2
 314 0026 1F46     		mov	r7, r3
 315 0028 8046     		mov	r8, r0
  47:/Users/imashio/Electronics/ARM/_Library/draw_Value.c **** 	uint8_t	str_offset;
 316              		.loc 1 47 0
 317 002a 0595     		str	r5, [sp, #20]
  42:/Users/imashio/Electronics/ARM/_Library/draw_Value.c **** 	int16_t int_value;
 318              		.loc 1 42 0
 319 002c 9DF850B0 		ldrb	fp, [sp, #80]	@ zero_extendqisi2
 320              		.loc 1 50 0
 321 0030 FFF7FEFF 		bl	u8g2_SetFont
 322              	.LVL24:
  51:/Users/imashio/Electronics/ARM/_Library/draw_Value.c **** 
  52:/Users/imashio/Electronics/ARM/_Library/draw_Value.c **** 	str_offset = (width-1) - ( StrLength(unit)*4 + ((sign!=0)+digit)*font_width + ((frac!=0)*font_widt
 323              		.loc 1 52 0
 324 0034 2046     		mov	r0, r4
 325 0036 FFF7FEFF 		bl	StrLength
 326              	.LVL25:
 327 003a 079B     		ldr	r3, [sp, #28]
 328 003c 059A     		ldr	r2, [sp, #20]
 329 003e 002B     		cmp	r3, #0
 330 0040 0CBF     		ite	eq
 331 0042 3446     		moveq	r4, r6
 332 0044 741C     		addne	r4, r6, #1
 333 0046 023F     		subs	r7, r7, #2
 334 0048 C4EBC404 		rsb	r4, r4, r4, lsl #3
 335 004c FFB2     		uxtb	r7, r7
  47:/Users/imashio/Electronics/ARM/_Library/draw_Value.c **** 	uint8_t	str_offset;
 336              		.loc 1 47 0
 337 004e 751B     		subs	r5, r6, r5
 338              		.loc 1 52 0
 339 0050 8000     		lsls	r0, r0, #2
 340 0052 E4B2     		uxtb	r4, r4
 341 0054 002A     		cmp	r2, #0
ARM GAS  /var/folders/v3/wysfpd052nz8jkbx04pk0ym80000gn/T//ccBlCFWU.s 			page 8


 342 0056 C0B2     		uxtb	r0, r0
 343 0058 A7EB0404 		sub	r4, r7, r4
  47:/Users/imashio/Electronics/ARM/_Library/draw_Value.c **** 	uint8_t	str_offset;
 344              		.loc 1 47 0
 345 005c EDB2     		uxtb	r5, r5
 346              	.LVL26:
 347              		.loc 1 52 0
 348 005e 0CBF     		ite	eq
 349 0060 0023     		moveq	r3, #0
 350 0062 0323     		movne	r3, #3
 351 0064 241A     		subs	r4, r4, r0
  53:/Users/imashio/Electronics/ARM/_Library/draw_Value.c **** 
  54:/Users/imashio/Electronics/ARM/_Library/draw_Value.c **** 	// erase blank space
  55:/Users/imashio/Electronics/ARM/_Library/draw_Value.c **** 	u8g2_SetDrawColor(u8g2, 0); // erase color
 352              		.loc 1 55 0
 353 0066 0021     		movs	r1, #0
 354 0068 4046     		mov	r0, r8
 355              	.LBB2:
  56:/Users/imashio/Electronics/ARM/_Library/draw_Value.c **** 	for( uint8_t n=int_digit-1; n>0; n-- ){
 356              		.loc 1 56 0
 357 006a 6F1E     		subs	r7, r5, #1
 358              	.LBE2:
  52:/Users/imashio/Electronics/ARM/_Library/draw_Value.c **** 
 359              		.loc 1 52 0
 360 006c E41A     		subs	r4, r4, r3
  55:/Users/imashio/Electronics/ARM/_Library/draw_Value.c **** 	for( uint8_t n=int_digit-1; n>0; n-- ){
 361              		.loc 1 55 0
 362 006e FFF7FEFF 		bl	u8g2_SetDrawColor
 363              	.LVL27:
 364              	.LBB7:
 365              		.loc 1 56 0
 366 0072 17F0FF07 		ands	r7, r7, #255
 367              	.LBE7:
  52:/Users/imashio/Electronics/ARM/_Library/draw_Value.c **** 
 368              		.loc 1 52 0
 369 0076 E4B2     		uxtb	r4, r4
 370              	.LVL28:
 371              	.LBB8:
 372              		.loc 1 56 0
 373 0078 00F08C80 		beq	.L16
 374 007c 0698     		ldr	r0, [sp, #24]
 375 007e FFF7FEFF 		bl	__aeabi_i2d
 376              	.LVL29:
 377 0082 059A     		ldr	r2, [sp, #20]
 378 0084 023D     		subs	r5, r5, #2
 379              	.LVL30:
 380 0086 531E     		subs	r3, r2, #1
 381 0088 3B44     		add	r3, r3, r7
 382 008a EDB2     		uxtb	r5, r5
 383              	.LVL31:
 384 008c 5B1B     		subs	r3, r3, r5
 385 008e CDE90201 		strd	r0, [sp, #8]
 386              	.LBB3:
  57:/Users/imashio/Electronics/ARM/_Library/draw_Value.c **** 		if( value >= pow(10, n+frac) ){
 387              		.loc 1 57 0
 388 0092 9FED5D8B 		vldr.64	d8, .L34
 389 0096 0493     		str	r3, [sp, #16]
ARM GAS  /var/folders/v3/wysfpd052nz8jkbx04pk0ym80000gn/T//ccBlCFWU.s 			page 9


 390 0098 1744     		add	r7, r7, r2
 391 009a 0BE0     		b	.L18
 392              	.LVL32:
 393              	.L30:
  58:/Users/imashio/Electronics/ARM/_Library/draw_Value.c **** 			break;
  59:/Users/imashio/Electronics/ARM/_Library/draw_Value.c **** 		}else{
  60:/Users/imashio/Electronics/ARM/_Library/draw_Value.c **** 			u8g2_DrawBox(u8g2, x+str_offset, y, font_width, height );
 394              		.loc 1 60 0 discriminator 2
 395 009c CDF800B0 		str	fp, [sp]
 396 00a0 4046     		mov	r0, r8
 397 00a2 FFF7FEFF 		bl	u8g2_DrawBox
 398              	.LVL33:
 399              	.LBE3:
  56:/Users/imashio/Electronics/ARM/_Library/draw_Value.c **** 		if( value >= pow(10, n+frac) ){
 400              		.loc 1 56 0 discriminator 2
 401 00a6 049B     		ldr	r3, [sp, #16]
 402              	.LBB4:
  61:/Users/imashio/Electronics/ARM/_Library/draw_Value.c **** 			str_offset = str_offset + font_width;
 403              		.loc 1 61 0 discriminator 2
 404 00a8 0734     		adds	r4, r4, #7
 405              	.LVL34:
  62:/Users/imashio/Electronics/ARM/_Library/draw_Value.c **** 			valid_digit--;
 406              		.loc 1 62 0 discriminator 2
 407 00aa 013E     		subs	r6, r6, #1
 408              	.LVL35:
 409              	.LBE4:
  56:/Users/imashio/Electronics/ARM/_Library/draw_Value.c **** 		if( value >= pow(10, n+frac) ){
 410              		.loc 1 56 0 discriminator 2
 411 00ac 9F42     		cmp	r7, r3
 412              	.LBB5:
  61:/Users/imashio/Electronics/ARM/_Library/draw_Value.c **** 			str_offset = str_offset + font_width;
 413              		.loc 1 61 0 discriminator 2
 414 00ae E4B2     		uxtb	r4, r4
 415              	.LVL36:
 416              		.loc 1 62 0 discriminator 2
 417 00b0 F6B2     		uxtb	r6, r6
 418              	.LVL37:
 419              	.LBE5:
  56:/Users/imashio/Electronics/ARM/_Library/draw_Value.c **** 		if( value >= pow(10, n+frac) ){
 420              		.loc 1 56 0 discriminator 2
 421 00b2 6FD0     		beq	.L16
 422              	.LVL38:
 423              	.L18:
 424              	.LBB6:
  57:/Users/imashio/Electronics/ARM/_Library/draw_Value.c **** 			break;
 425              		.loc 1 57 0
 426 00b4 3846     		mov	r0, r7
 427 00b6 FFF7FEFF 		bl	__aeabi_i2d
 428              	.LVL39:
 429 00ba B0EE480A 		vmov.f32	s0, s16
 430 00be F0EE680A 		vmov.f32	s1, s17
 431 00c2 41EC110B 		vmov	d1, r0, r1
 432 00c6 FFF7FEFF 		bl	pow
 433              	.LVL40:
 434 00ca DDE90201 		ldrd	r0, [sp, #8]
 435 00ce 53EC102B 		vmov	r2, r3, d0
 436 00d2 FFF7FEFF 		bl	__aeabi_dcmpge
ARM GAS  /var/folders/v3/wysfpd052nz8jkbx04pk0ym80000gn/T//ccBlCFWU.s 			page 10


 437              	.LVL41:
 438 00d6 09EB0405 		add	r5, r9, r4
 439 00da EDB2     		uxtb	r5, r5
  60:/Users/imashio/Electronics/ARM/_Library/draw_Value.c **** 			str_offset = str_offset + font_width;
 440              		.loc 1 60 0
 441 00dc 0723     		movs	r3, #7
 442 00de 5246     		mov	r2, r10
 443 00e0 2946     		mov	r1, r5
 444 00e2 013F     		subs	r7, r7, #1
  57:/Users/imashio/Electronics/ARM/_Library/draw_Value.c **** 			break;
 445              		.loc 1 57 0
 446 00e4 0028     		cmp	r0, #0
 447 00e6 D9D0     		beq	.L30
 448              	.LVL42:
 449              	.L17:
 450              	.LBE6:
 451              	.LBE8:
  63:/Users/imashio/Electronics/ARM/_Library/draw_Value.c **** 		}
  64:/Users/imashio/Electronics/ARM/_Library/draw_Value.c **** 	}
  65:/Users/imashio/Electronics/ARM/_Library/draw_Value.c **** 	u8g2_SetDrawColor(u8g2, 1); // default color
 452              		.loc 1 65 0
 453 00e8 0121     		movs	r1, #1
 454 00ea 4046     		mov	r0, r8
 455 00ec FFF7FEFF 		bl	u8g2_SetDrawColor
 456              	.LVL43:
 457 00f0 ABF10207 		sub	r7, fp, #2
  66:/Users/imashio/Electronics/ARM/_Library/draw_Value.c **** 
  67:/Users/imashio/Electronics/ARM/_Library/draw_Value.c **** 	// sign
  68:/Users/imashio/Electronics/ARM/_Library/draw_Value.c **** 	if( sign!=0 ){
 458              		.loc 1 68 0
 459 00f4 079B     		ldr	r3, [sp, #28]
 460 00f6 5744     		add	r7, r7, r10
 461 00f8 FFB2     		uxtb	r7, r7
 462 00fa 002B     		cmp	r3, #0
 463 00fc 57D1     		bne	.L31
 464              	.LVL44:
 465              	.L19:
  69:/Users/imashio/Electronics/ARM/_Library/draw_Value.c **** 		// erase previous sign
  70:/Users/imashio/Electronics/ARM/_Library/draw_Value.c **** 		u8g2_SetDrawColor(u8g2, 0); // erase color
  71:/Users/imashio/Electronics/ARM/_Library/draw_Value.c **** 		u8g2_DrawBox(u8g2, x+str_offset, y, font_width, height );
  72:/Users/imashio/Electronics/ARM/_Library/draw_Value.c **** 		u8g2_SetDrawColor(u8g2, 1); // default color
  73:/Users/imashio/Electronics/ARM/_Library/draw_Value.c **** 
  74:/Users/imashio/Electronics/ARM/_Library/draw_Value.c **** 		if(	value < 0 ){
  75:/Users/imashio/Electronics/ARM/_Library/draw_Value.c **** 			u8g2_DrawStr(u8g2, x+str_offset, y+height-2, "-");
  76:/Users/imashio/Electronics/ARM/_Library/draw_Value.c **** 			value = -value;
  77:/Users/imashio/Electronics/ARM/_Library/draw_Value.c **** 			str_offset = str_offset + font_width;
  78:/Users/imashio/Electronics/ARM/_Library/draw_Value.c **** 		}else if( value >= 0 ){
  79:/Users/imashio/Electronics/ARM/_Library/draw_Value.c **** 			u8g2_DrawStr(u8g2, x+str_offset, y+height-2, "+");
  80:/Users/imashio/Electronics/ARM/_Library/draw_Value.c **** 			str_offset = str_offset + font_width;
  81:/Users/imashio/Electronics/ARM/_Library/draw_Value.c **** 		}
  82:/Users/imashio/Electronics/ARM/_Library/draw_Value.c **** 	}
  83:/Users/imashio/Electronics/ARM/_Library/draw_Value.c **** 
  84:/Users/imashio/Electronics/ARM/_Library/draw_Value.c **** 	//int
  85:/Users/imashio/Electronics/ARM/_Library/draw_Value.c **** 	if( frac==0 ){
 466              		.loc 1 85 0
 467 00fe 059B     		ldr	r3, [sp, #20]
 468 0100 002B     		cmp	r3, #0
ARM GAS  /var/folders/v3/wysfpd052nz8jkbx04pk0ym80000gn/T//ccBlCFWU.s 			page 11


 469 0102 4BD0     		beq	.L32
 470              	.LBB9:
  86:/Users/imashio/Electronics/ARM/_Library/draw_Value.c **** 		u8g2_DrawStr(u8g2, x+str_offset, y+height-2, u8g2_u16toa(value, valid_digit) );
  87:/Users/imashio/Electronics/ARM/_Library/draw_Value.c **** 	}else{
  88:/Users/imashio/Electronics/ARM/_Library/draw_Value.c **** 		pow10 = pow(10, frac);
 471              		.loc 1 88 0
 472 0104 DDF814A0 		ldr	r10, [sp, #20]
 473 0108 5046     		mov	r0, r10
 474 010a FFF7FEFF 		bl	__aeabi_ui2d
 475              	.LVL45:
 476 010e 9FED3E0B 		vldr.64	d0, .L34
 477 0112 41EC110B 		vmov	d1, r0, r1
 478 0116 FFF7FEFF 		bl	pow
 479              	.LVL46:
 480 011a 51EC100B 		vmov	r0, r1, d0
 481 011e FFF7FEFF 		bl	__aeabi_d2uiz
 482              	.LVL47:
  89:/Users/imashio/Electronics/ARM/_Library/draw_Value.c **** 		int_value = value / pow10;
  90:/Users/imashio/Electronics/ARM/_Library/draw_Value.c **** 		u8g2_DrawStr(u8g2, x+str_offset, y+height-2, u8g2_u16toa(int_value, valid_digit-frac) );
 483              		.loc 1 90 0
 484 0122 5346     		mov	r3, r10
 485 0124 F61A     		subs	r6, r6, r3
 486              	.LVL48:
  89:/Users/imashio/Electronics/ARM/_Library/draw_Value.c **** 		int_value = value / pow10;
 487              		.loc 1 89 0
 488 0126 069A     		ldr	r2, [sp, #24]
 489              		.loc 1 90 0
 490 0128 CDF814A0 		str	r10, [sp, #20]
 491              	.LVL49:
 492 012c F6B2     		uxtb	r6, r6
  88:/Users/imashio/Electronics/ARM/_Library/draw_Value.c **** 		int_value = value / pow10;
 493              		.loc 1 88 0
 494 012e 1FFA80FA 		uxth	r10, r0
 495              	.LVL50:
  89:/Users/imashio/Electronics/ARM/_Library/draw_Value.c **** 		int_value = value / pow10;
 496              		.loc 1 89 0
 497 0132 92FBFAFB 		sdiv	fp, r2, r10
 498              		.loc 1 90 0
 499 0136 1FFA8BFB 		uxth	fp, fp
 500 013a 3146     		mov	r1, r6
 501 013c 5846     		mov	r0, fp
 502 013e FFF7FEFF 		bl	u8x8_u16toa
 503              	.LVL51:
  91:/Users/imashio/Electronics/ARM/_Library/draw_Value.c **** 		str_offset = str_offset + (valid_digit-frac)*font_width;
 504              		.loc 1 91 0
 505 0142 C6EBC606 		rsb	r6, r6, r6, lsl #3
  90:/Users/imashio/Electronics/ARM/_Library/draw_Value.c **** 		str_offset = str_offset + (valid_digit-frac)*font_width;
 506              		.loc 1 90 0
 507 0146 0346     		mov	r3, r0
 508 0148 3A46     		mov	r2, r7
 509 014a 2946     		mov	r1, r5
 510 014c 4046     		mov	r0, r8
 511              		.loc 1 91 0
 512 014e 3444     		add	r4, r4, r6
 513              	.LVL52:
  90:/Users/imashio/Electronics/ARM/_Library/draw_Value.c **** 		str_offset = str_offset + (valid_digit-frac)*font_width;
 514              		.loc 1 90 0
ARM GAS  /var/folders/v3/wysfpd052nz8jkbx04pk0ym80000gn/T//ccBlCFWU.s 			page 12


 515 0150 FFF7FEFF 		bl	u8g2_DrawStr
 516              	.LVL53:
 517              		.loc 1 91 0
 518 0154 E4B2     		uxtb	r4, r4
 519              	.LVL54:
  92:/Users/imashio/Electronics/ARM/_Library/draw_Value.c **** 
  93:/Users/imashio/Electronics/ARM/_Library/draw_Value.c **** 		u8g2_DrawStr(u8g2, x+str_offset - ( (font_width>>1)-(font_width>>2) ), y+height-2, ".");
 520              		.loc 1 93 0
 521 0156 A9F10201 		sub	r1, r9, #2
 522 015a 2144     		add	r1, r1, r4
 523 015c 2D4B     		ldr	r3, .L34+12
 524 015e C9B2     		uxtb	r1, r1
 525 0160 3A46     		mov	r2, r7
 526 0162 4046     		mov	r0, r8
 527 0164 FFF7FEFF 		bl	u8g2_DrawStr
 528              	.LVL55:
  94:/Users/imashio/Electronics/ARM/_Library/draw_Value.c **** 		str_offset = str_offset + (font_width>>1);
  95:/Users/imashio/Electronics/ARM/_Library/draw_Value.c **** 
  96:/Users/imashio/Electronics/ARM/_Library/draw_Value.c **** 		sub_value = int_value * pow10;
  97:/Users/imashio/Electronics/ARM/_Library/draw_Value.c **** 		uint8_t frac_value = value - sub_value;
 529              		.loc 1 97 0
 530 0168 069A     		ldr	r2, [sp, #24]
  98:/Users/imashio/Electronics/ARM/_Library/draw_Value.c **** 
  99:/Users/imashio/Electronics/ARM/_Library/draw_Value.c **** 		u8g2_DrawStr(u8g2, x+str_offset, y+height-2, u8g2_u16toa(frac_value, frac) );
 531              		.loc 1 99 0
 532 016a 0599     		ldr	r1, [sp, #20]
  97:/Users/imashio/Electronics/ARM/_Library/draw_Value.c **** 
 533              		.loc 1 97 0
 534 016c 0BFB1A20 		mls	r0, fp, r10, r2
 535              		.loc 1 99 0
 536 0170 C0B2     		uxtb	r0, r0
 537 0172 FFF7FEFF 		bl	u8x8_u16toa
 538              	.LVL56:
 539 0176 09F10309 		add	r9, r9, #3
 540 017a 4C44     		add	r4, r4, r9
 541              	.LVL57:
 542 017c E4B2     		uxtb	r4, r4
 543 017e 0346     		mov	r3, r0
 544 0180 3A46     		mov	r2, r7
 545 0182 2146     		mov	r1, r4
 546              	.LVL58:
 547              	.L29:
 548 0184 4046     		mov	r0, r8
 549              	.LBE9:
 100:/Users/imashio/Electronics/ARM/_Library/draw_Value.c **** 	}
 101:/Users/imashio/Electronics/ARM/_Library/draw_Value.c **** }
 550              		.loc 1 101 0
 551 0186 09B0     		add	sp, sp, #36
 552              	.LCFI9:
 553              		.cfi_remember_state
 554              		.cfi_def_cfa_offset 44
 555              		@ sp needed
 556 0188 BDEC028B 		vldm	sp!, {d8}
 557              	.LCFI10:
 558              		.cfi_restore 80
 559              		.cfi_restore 81
 560              		.cfi_def_cfa_offset 36
ARM GAS  /var/folders/v3/wysfpd052nz8jkbx04pk0ym80000gn/T//ccBlCFWU.s 			page 13


 561 018c BDE8F04F 		pop	{r4, r5, r6, r7, r8, r9, r10, fp, lr}
 562              	.LCFI11:
 563              		.cfi_restore 14
 564              		.cfi_restore 11
 565              		.cfi_restore 10
 566              		.cfi_restore 9
 567              		.cfi_restore 8
 568              		.cfi_restore 7
 569              		.cfi_restore 6
 570              		.cfi_restore 5
 571              		.cfi_restore 4
 572              		.cfi_def_cfa_offset 0
 573              	.LVL59:
 574              	.LBB10:
  99:/Users/imashio/Electronics/ARM/_Library/draw_Value.c **** 	}
 575              		.loc 1 99 0
 576 0190 FFF7FEBF 		b	u8g2_DrawStr
 577              	.LVL60:
 578              	.L16:
 579              	.LCFI12:
 580              		.cfi_restore_state
 581 0194 04EB0905 		add	r5, r4, r9
 582 0198 EDB2     		uxtb	r5, r5
 583 019a A5E7     		b	.L17
 584              	.LVL61:
 585              	.L32:
 586              	.LBE10:
  86:/Users/imashio/Electronics/ARM/_Library/draw_Value.c **** 	}else{
 587              		.loc 1 86 0
 588 019c 3146     		mov	r1, r6
 589 019e BDF81800 		ldrh	r0, [sp, #24]
 590 01a2 FFF7FEFF 		bl	u8x8_u16toa
 591              	.LVL62:
 592 01a6 3A46     		mov	r2, r7
 593 01a8 0346     		mov	r3, r0
 594 01aa 2946     		mov	r1, r5
 595 01ac EAE7     		b	.L29
 596              	.LVL63:
 597              	.L31:
  70:/Users/imashio/Electronics/ARM/_Library/draw_Value.c **** 		u8g2_DrawBox(u8g2, x+str_offset, y, font_width, height );
 598              		.loc 1 70 0
 599 01ae 0021     		movs	r1, #0
 600 01b0 4046     		mov	r0, r8
 601 01b2 FFF7FEFF 		bl	u8g2_SetDrawColor
 602              	.LVL64:
  71:/Users/imashio/Electronics/ARM/_Library/draw_Value.c **** 		u8g2_SetDrawColor(u8g2, 1); // default color
 603              		.loc 1 71 0
 604 01b6 5246     		mov	r2, r10
 605 01b8 0723     		movs	r3, #7
 606 01ba 2946     		mov	r1, r5
 607 01bc 4046     		mov	r0, r8
 608 01be CDF800B0 		str	fp, [sp]
 609 01c2 FFF7FEFF 		bl	u8g2_DrawBox
 610              	.LVL65:
  72:/Users/imashio/Electronics/ARM/_Library/draw_Value.c **** 
 611              		.loc 1 72 0
 612 01c6 0121     		movs	r1, #1
ARM GAS  /var/folders/v3/wysfpd052nz8jkbx04pk0ym80000gn/T//ccBlCFWU.s 			page 14


 613 01c8 4046     		mov	r0, r8
 614 01ca FFF7FEFF 		bl	u8g2_SetDrawColor
 615              	.LVL66:
 616 01ce 0734     		adds	r4, r4, #7
 617              	.LVL67:
  74:/Users/imashio/Electronics/ARM/_Library/draw_Value.c **** 			u8g2_DrawStr(u8g2, x+str_offset, y+height-2, "-");
 618              		.loc 1 74 0
 619 01d0 069B     		ldr	r3, [sp, #24]
 620 01d2 E4B2     		uxtb	r4, r4
 621 01d4 09EB040A 		add	r10, r9, r4
 622 01d8 002B     		cmp	r3, #0
 623 01da 5FFA8AFA 		uxtb	r10, r10
  75:/Users/imashio/Electronics/ARM/_Library/draw_Value.c **** 			value = -value;
 624              		.loc 1 75 0
 625 01de 2946     		mov	r1, r5
  74:/Users/imashio/Electronics/ARM/_Library/draw_Value.c **** 			u8g2_DrawStr(u8g2, x+str_offset, y+height-2, "-");
 626              		.loc 1 74 0
 627 01e0 06DB     		blt	.L33
  79:/Users/imashio/Electronics/ARM/_Library/draw_Value.c **** 			str_offset = str_offset + font_width;
 628              		.loc 1 79 0
 629 01e2 0D4B     		ldr	r3, .L34+16
 630 01e4 3A46     		mov	r2, r7
 631 01e6 4046     		mov	r0, r8
 632 01e8 FFF7FEFF 		bl	u8g2_DrawStr
 633              	.LVL68:
 634 01ec 5546     		mov	r5, r10
 635 01ee 86E7     		b	.L19
 636              	.LVL69:
 637              	.L33:
  75:/Users/imashio/Electronics/ARM/_Library/draw_Value.c **** 			value = -value;
 638              		.loc 1 75 0
 639 01f0 0A4B     		ldr	r3, .L34+20
 640 01f2 3A46     		mov	r2, r7
 641 01f4 4046     		mov	r0, r8
 642 01f6 FFF7FEFF 		bl	u8g2_DrawStr
 643              	.LVL70:
  76:/Users/imashio/Electronics/ARM/_Library/draw_Value.c **** 			str_offset = str_offset + font_width;
 644              		.loc 1 76 0
 645 01fa 069B     		ldr	r3, [sp, #24]
 646 01fc 5842     		negs	r0, r3
 647 01fe 03B2     		sxth	r3, r0
 648 0200 5546     		mov	r5, r10
 649 0202 0693     		str	r3, [sp, #24]
 650              	.LVL71:
 651 0204 7BE7     		b	.L19
 652              	.L35:
 653 0206 00BF     		.align	3
 654              	.L34:
 655 0208 00000000 		.word	0
 656 020c 00002440 		.word	1076101120
 657 0210 00000000 		.word	u8g2_font_7x14B_tf
 658 0214 08000000 		.word	.LC2
 659 0218 04000000 		.word	.LC1
 660 021c 00000000 		.word	.LC0
 661              		.cfi_endproc
 662              	.LFE3:
 664              		.section	.text.draw_Value_s,"ax",%progbits
ARM GAS  /var/folders/v3/wysfpd052nz8jkbx04pk0ym80000gn/T//ccBlCFWU.s 			page 15


 665              		.align	1
 666              		.p2align 2,,3
 667              		.global	draw_Value_s
 668              		.syntax unified
 669              		.thumb
 670              		.thumb_func
 671              		.fpu fpv4-sp-d16
 673              	draw_Value_s:
 674              	.LFB4:
 102:/Users/imashio/Electronics/ARM/_Library/draw_Value.c **** 
 103:/Users/imashio/Electronics/ARM/_Library/draw_Value.c **** 
 104:/Users/imashio/Electronics/ARM/_Library/draw_Value.c **** void draw_Value_s(u8g2_t *u8g2, uint8_t x, uint8_t y, uint8_t width, uint8_t height, int16_t value,
 675              		.loc 1 104 0
 676              		.cfi_startproc
 677              		@ args = 24, pretend = 0, frame = 24
 678              		@ frame_needed = 0, uses_anonymous_args = 0
 679              	.LVL72:
 680 0000 2DE9F04F 		push	{r4, r5, r6, r7, r8, r9, r10, fp, lr}
 681              	.LCFI13:
 682              		.cfi_def_cfa_offset 36
 683              		.cfi_offset 4, -36
 684              		.cfi_offset 5, -32
 685              		.cfi_offset 6, -28
 686              		.cfi_offset 7, -24
 687              		.cfi_offset 8, -20
 688              		.cfi_offset 9, -16
 689              		.cfi_offset 10, -12
 690              		.cfi_offset 11, -8
 691              		.cfi_offset 14, -4
 692 0004 2DED028B 		vpush.64	{d8}
 693              	.LCFI14:
 694              		.cfi_def_cfa_offset 44
 695              		.cfi_offset 80, -44
 696              		.cfi_offset 81, -40
 697 0008 89B0     		sub	sp, sp, #36
 698              	.LCFI15:
 699              		.cfi_def_cfa_offset 80
 700              		.loc 1 104 0
 701 000a 8946     		mov	r9, r1
 702 000c 9DF86040 		ldrb	r4, [sp, #96]	@ zero_extendqisi2
 703 0010 0794     		str	r4, [sp, #28]
 704 0012 199C     		ldr	r4, [sp, #100]
 705 0014 9DF85C50 		ldrb	r5, [sp, #92]	@ zero_extendqisi2
 706 0018 BDF95470 		ldrsh	r7, [sp, #84]
 105:/Users/imashio/Electronics/ARM/_Library/draw_Value.c **** 	int16_t int_value;
 106:/Users/imashio/Electronics/ARM/_Library/draw_Value.c **** 	int16_t sub_value;
 107:/Users/imashio/Electronics/ARM/_Library/draw_Value.c **** 	uint16_t pow10 = 1;
 108:/Users/imashio/Electronics/ARM/_Library/draw_Value.c **** 	uint8_t valid_digit = digit;
 109:/Users/imashio/Electronics/ARM/_Library/draw_Value.c **** 	uint8_t int_digit = digit-frac;
 110:/Users/imashio/Electronics/ARM/_Library/draw_Value.c **** 	uint8_t	str_offset;
 111:/Users/imashio/Electronics/ARM/_Library/draw_Value.c **** 
 112:/Users/imashio/Electronics/ARM/_Library/draw_Value.c **** 	u8g2_SetFont(u8g2, meas_value_font_s);
 707              		.loc 1 112 0
 708 001c 7E49     		ldr	r1, .L56+8
 709              	.LVL73:
 104:/Users/imashio/Electronics/ARM/_Library/draw_Value.c **** 	int16_t int_value;
 710              		.loc 1 104 0
ARM GAS  /var/folders/v3/wysfpd052nz8jkbx04pk0ym80000gn/T//ccBlCFWU.s 			page 16


 711 001e 9DF85860 		ldrb	r6, [sp, #88]	@ zero_extendqisi2
 712              	.LVL74:
 713 0022 0697     		str	r7, [sp, #24]
 714 0024 9246     		mov	r10, r2
 715 0026 1F46     		mov	r7, r3
 716 0028 8046     		mov	r8, r0
 109:/Users/imashio/Electronics/ARM/_Library/draw_Value.c **** 	uint8_t	str_offset;
 717              		.loc 1 109 0
 718 002a 0595     		str	r5, [sp, #20]
 104:/Users/imashio/Electronics/ARM/_Library/draw_Value.c **** 	int16_t int_value;
 719              		.loc 1 104 0
 720 002c 9DF850B0 		ldrb	fp, [sp, #80]	@ zero_extendqisi2
 721              		.loc 1 112 0
 722 0030 FFF7FEFF 		bl	u8g2_SetFont
 723              	.LVL75:
 113:/Users/imashio/Electronics/ARM/_Library/draw_Value.c **** 
 114:/Users/imashio/Electronics/ARM/_Library/draw_Value.c **** 	str_offset = (width-1) - ( StrLength(unit)*4 + ((sign!=0)+digit)*font_width_s + ((frac!=0)*font_wi
 724              		.loc 1 114 0
 725 0034 2046     		mov	r0, r4
 726 0036 FFF7FEFF 		bl	StrLength
 727              	.LVL76:
 728 003a 079C     		ldr	r4, [sp, #28]
 729 003c 059A     		ldr	r2, [sp, #20]
 730 003e 002C     		cmp	r4, #0
 731 0040 0CBF     		ite	eq
 732 0042 3446     		moveq	r4, r6
 733 0044 741C     		addne	r4, r6, #1
 734 0046 04EB4404 		add	r4, r4, r4, lsl #1
 735 004a 023F     		subs	r7, r7, #2
 736 004c 6400     		lsls	r4, r4, #1
 737 004e FFB2     		uxtb	r7, r7
 109:/Users/imashio/Electronics/ARM/_Library/draw_Value.c **** 	uint8_t	str_offset;
 738              		.loc 1 109 0
 739 0050 751B     		subs	r5, r6, r5
 740              		.loc 1 114 0
 741 0052 8000     		lsls	r0, r0, #2
 742 0054 E4B2     		uxtb	r4, r4
 743 0056 002A     		cmp	r2, #0
 744 0058 C0B2     		uxtb	r0, r0
 745 005a A7EB0404 		sub	r4, r7, r4
 109:/Users/imashio/Electronics/ARM/_Library/draw_Value.c **** 	uint8_t	str_offset;
 746              		.loc 1 109 0
 747 005e EDB2     		uxtb	r5, r5
 748              	.LVL77:
 749              		.loc 1 114 0
 750 0060 0CBF     		ite	eq
 751 0062 0023     		moveq	r3, #0
 752 0064 0323     		movne	r3, #3
 753 0066 241A     		subs	r4, r4, r0
 115:/Users/imashio/Electronics/ARM/_Library/draw_Value.c **** 
 116:/Users/imashio/Electronics/ARM/_Library/draw_Value.c **** 	// erase blank space
 117:/Users/imashio/Electronics/ARM/_Library/draw_Value.c **** 	u8g2_SetDrawColor(u8g2, 0); // erase color
 754              		.loc 1 117 0
 755 0068 0021     		movs	r1, #0
 756 006a 4046     		mov	r0, r8
 757              	.LBB11:
 118:/Users/imashio/Electronics/ARM/_Library/draw_Value.c **** 	for( uint8_t n=int_digit-1; n>0; n-- ){
ARM GAS  /var/folders/v3/wysfpd052nz8jkbx04pk0ym80000gn/T//ccBlCFWU.s 			page 17


 758              		.loc 1 118 0
 759 006c 6F1E     		subs	r7, r5, #1
 760              	.LBE11:
 114:/Users/imashio/Electronics/ARM/_Library/draw_Value.c **** 
 761              		.loc 1 114 0
 762 006e E41A     		subs	r4, r4, r3
 117:/Users/imashio/Electronics/ARM/_Library/draw_Value.c **** 	for( uint8_t n=int_digit-1; n>0; n-- ){
 763              		.loc 1 117 0
 764 0070 FFF7FEFF 		bl	u8g2_SetDrawColor
 765              	.LVL78:
 766              	.LBB16:
 767              		.loc 1 118 0
 768 0074 17F0FF07 		ands	r7, r7, #255
 769              	.LBE16:
 114:/Users/imashio/Electronics/ARM/_Library/draw_Value.c **** 
 770              		.loc 1 114 0
 771 0078 E4B2     		uxtb	r4, r4
 772              	.LVL79:
 773              	.LBB17:
 774              		.loc 1 118 0
 775 007a 00F08D80 		beq	.L38
 776 007e 0698     		ldr	r0, [sp, #24]
 777 0080 FFF7FEFF 		bl	__aeabi_i2d
 778              	.LVL80:
 779 0084 059A     		ldr	r2, [sp, #20]
 780 0086 023D     		subs	r5, r5, #2
 781              	.LVL81:
 782 0088 531E     		subs	r3, r2, #1
 783 008a 3B44     		add	r3, r3, r7
 784 008c EDB2     		uxtb	r5, r5
 785              	.LVL82:
 786 008e 5B1B     		subs	r3, r3, r5
 787 0090 CDE90201 		strd	r0, [sp, #8]
 788              	.LBB12:
 119:/Users/imashio/Electronics/ARM/_Library/draw_Value.c **** 		if( value >= pow(10, n+frac) ){
 789              		.loc 1 119 0
 790 0094 9FED5E8B 		vldr.64	d8, .L56
 791 0098 0493     		str	r3, [sp, #16]
 792 009a 1744     		add	r7, r7, r2
 793 009c 0BE0     		b	.L40
 794              	.LVL83:
 795              	.L52:
 120:/Users/imashio/Electronics/ARM/_Library/draw_Value.c **** 			break;
 121:/Users/imashio/Electronics/ARM/_Library/draw_Value.c **** 		}else{
 122:/Users/imashio/Electronics/ARM/_Library/draw_Value.c **** 			u8g2_DrawBox(u8g2, x+str_offset, y, font_width_s, height );
 796              		.loc 1 122 0 discriminator 2
 797 009e CDF800B0 		str	fp, [sp]
 798 00a2 4046     		mov	r0, r8
 799 00a4 FFF7FEFF 		bl	u8g2_DrawBox
 800              	.LVL84:
 801              	.LBE12:
 118:/Users/imashio/Electronics/ARM/_Library/draw_Value.c **** 		if( value >= pow(10, n+frac) ){
 802              		.loc 1 118 0 discriminator 2
 803 00a8 049B     		ldr	r3, [sp, #16]
 804              	.LBB13:
 123:/Users/imashio/Electronics/ARM/_Library/draw_Value.c **** 			str_offset = str_offset + font_width_s;
 805              		.loc 1 123 0 discriminator 2
ARM GAS  /var/folders/v3/wysfpd052nz8jkbx04pk0ym80000gn/T//ccBlCFWU.s 			page 18


 806 00aa 0634     		adds	r4, r4, #6
 807              	.LVL85:
 124:/Users/imashio/Electronics/ARM/_Library/draw_Value.c **** 			valid_digit--;
 808              		.loc 1 124 0 discriminator 2
 809 00ac 013E     		subs	r6, r6, #1
 810              	.LVL86:
 811              	.LBE13:
 118:/Users/imashio/Electronics/ARM/_Library/draw_Value.c **** 		if( value >= pow(10, n+frac) ){
 812              		.loc 1 118 0 discriminator 2
 813 00ae 9F42     		cmp	r7, r3
 814              	.LBB14:
 123:/Users/imashio/Electronics/ARM/_Library/draw_Value.c **** 			str_offset = str_offset + font_width_s;
 815              		.loc 1 123 0 discriminator 2
 816 00b0 E4B2     		uxtb	r4, r4
 817              	.LVL87:
 818              		.loc 1 124 0 discriminator 2
 819 00b2 F6B2     		uxtb	r6, r6
 820              	.LVL88:
 821              	.LBE14:
 118:/Users/imashio/Electronics/ARM/_Library/draw_Value.c **** 		if( value >= pow(10, n+frac) ){
 822              		.loc 1 118 0 discriminator 2
 823 00b4 70D0     		beq	.L38
 824              	.LVL89:
 825              	.L40:
 826              	.LBB15:
 119:/Users/imashio/Electronics/ARM/_Library/draw_Value.c **** 			break;
 827              		.loc 1 119 0
 828 00b6 3846     		mov	r0, r7
 829 00b8 FFF7FEFF 		bl	__aeabi_i2d
 830              	.LVL90:
 831 00bc B0EE480A 		vmov.f32	s0, s16
 832 00c0 F0EE680A 		vmov.f32	s1, s17
 833 00c4 41EC110B 		vmov	d1, r0, r1
 834 00c8 FFF7FEFF 		bl	pow
 835              	.LVL91:
 836 00cc DDE90201 		ldrd	r0, [sp, #8]
 837 00d0 53EC102B 		vmov	r2, r3, d0
 838 00d4 FFF7FEFF 		bl	__aeabi_dcmpge
 839              	.LVL92:
 840 00d8 09EB0405 		add	r5, r9, r4
 841 00dc EDB2     		uxtb	r5, r5
 122:/Users/imashio/Electronics/ARM/_Library/draw_Value.c **** 			str_offset = str_offset + font_width_s;
 842              		.loc 1 122 0
 843 00de 0623     		movs	r3, #6
 844 00e0 5246     		mov	r2, r10
 845 00e2 2946     		mov	r1, r5
 846 00e4 013F     		subs	r7, r7, #1
 119:/Users/imashio/Electronics/ARM/_Library/draw_Value.c **** 			break;
 847              		.loc 1 119 0
 848 00e6 0028     		cmp	r0, #0
 849 00e8 D9D0     		beq	.L52
 850              	.LVL93:
 851              	.L39:
 852              	.LBE15:
 853              	.LBE17:
 125:/Users/imashio/Electronics/ARM/_Library/draw_Value.c **** 		}
 126:/Users/imashio/Electronics/ARM/_Library/draw_Value.c **** 	}
ARM GAS  /var/folders/v3/wysfpd052nz8jkbx04pk0ym80000gn/T//ccBlCFWU.s 			page 19


 127:/Users/imashio/Electronics/ARM/_Library/draw_Value.c **** 	u8g2_SetDrawColor(u8g2, 1); // default color
 854              		.loc 1 127 0
 855 00ea 0121     		movs	r1, #1
 856 00ec 4046     		mov	r0, r8
 857 00ee FFF7FEFF 		bl	u8g2_SetDrawColor
 858              	.LVL94:
 859 00f2 ABF10207 		sub	r7, fp, #2
 128:/Users/imashio/Electronics/ARM/_Library/draw_Value.c **** 
 129:/Users/imashio/Electronics/ARM/_Library/draw_Value.c **** 	// sign
 130:/Users/imashio/Electronics/ARM/_Library/draw_Value.c **** 	if( sign!=0 ){
 860              		.loc 1 130 0
 861 00f6 079B     		ldr	r3, [sp, #28]
 862 00f8 5744     		add	r7, r7, r10
 863 00fa FFB2     		uxtb	r7, r7
 864 00fc 002B     		cmp	r3, #0
 865 00fe 58D1     		bne	.L53
 866              	.LVL95:
 867              	.L41:
 131:/Users/imashio/Electronics/ARM/_Library/draw_Value.c **** 		// erase previous sign
 132:/Users/imashio/Electronics/ARM/_Library/draw_Value.c **** 		u8g2_SetDrawColor(u8g2, 0); // erase color
 133:/Users/imashio/Electronics/ARM/_Library/draw_Value.c **** 		u8g2_DrawBox(u8g2, x+str_offset, y, font_width_s, height );
 134:/Users/imashio/Electronics/ARM/_Library/draw_Value.c **** 		u8g2_SetDrawColor(u8g2, 1); // default color
 135:/Users/imashio/Electronics/ARM/_Library/draw_Value.c **** 
 136:/Users/imashio/Electronics/ARM/_Library/draw_Value.c **** 		if(	value < 0 ){
 137:/Users/imashio/Electronics/ARM/_Library/draw_Value.c **** 			u8g2_DrawStr(u8g2, x+str_offset, y+height-2, "-");
 138:/Users/imashio/Electronics/ARM/_Library/draw_Value.c **** 			value = -value;
 139:/Users/imashio/Electronics/ARM/_Library/draw_Value.c **** 			str_offset = str_offset + font_width_s;
 140:/Users/imashio/Electronics/ARM/_Library/draw_Value.c **** 		}else if( value >= 0 ){
 141:/Users/imashio/Electronics/ARM/_Library/draw_Value.c **** 			u8g2_DrawStr(u8g2, x+str_offset, y+height-2, "+");
 142:/Users/imashio/Electronics/ARM/_Library/draw_Value.c **** 			str_offset = str_offset + font_width_s;
 143:/Users/imashio/Electronics/ARM/_Library/draw_Value.c **** 		}
 144:/Users/imashio/Electronics/ARM/_Library/draw_Value.c **** 	}
 145:/Users/imashio/Electronics/ARM/_Library/draw_Value.c **** 
 146:/Users/imashio/Electronics/ARM/_Library/draw_Value.c **** 	//int
 147:/Users/imashio/Electronics/ARM/_Library/draw_Value.c **** 	if( frac==0 ){
 868              		.loc 1 147 0
 869 0100 059B     		ldr	r3, [sp, #20]
 870 0102 002B     		cmp	r3, #0
 871 0104 4CD0     		beq	.L54
 872              	.LBB18:
 148:/Users/imashio/Electronics/ARM/_Library/draw_Value.c **** 		u8g2_DrawStr(u8g2, x+str_offset, y+height-2, u8g2_u16toa(value, valid_digit) );
 149:/Users/imashio/Electronics/ARM/_Library/draw_Value.c **** 	}else{
 150:/Users/imashio/Electronics/ARM/_Library/draw_Value.c **** 		pow10 = pow(10, frac);
 873              		.loc 1 150 0
 874 0106 DDF814A0 		ldr	r10, [sp, #20]
 875 010a 5046     		mov	r0, r10
 876 010c FFF7FEFF 		bl	__aeabi_ui2d
 877              	.LVL96:
 878 0110 9FED3F0B 		vldr.64	d0, .L56
 879 0114 41EC110B 		vmov	d1, r0, r1
 880 0118 FFF7FEFF 		bl	pow
 881              	.LVL97:
 882 011c 51EC100B 		vmov	r0, r1, d0
 883 0120 FFF7FEFF 		bl	__aeabi_d2uiz
 884              	.LVL98:
 151:/Users/imashio/Electronics/ARM/_Library/draw_Value.c **** 		int_value = value / pow10;
 152:/Users/imashio/Electronics/ARM/_Library/draw_Value.c **** 		u8g2_DrawStr(u8g2, x+str_offset, y+height-2, u8g2_u16toa(int_value, valid_digit-frac) );
ARM GAS  /var/folders/v3/wysfpd052nz8jkbx04pk0ym80000gn/T//ccBlCFWU.s 			page 20


 885              		.loc 1 152 0
 886 0124 5346     		mov	r3, r10
 887 0126 F61A     		subs	r6, r6, r3
 888              	.LVL99:
 151:/Users/imashio/Electronics/ARM/_Library/draw_Value.c **** 		int_value = value / pow10;
 889              		.loc 1 151 0
 890 0128 069A     		ldr	r2, [sp, #24]
 891              		.loc 1 152 0
 892 012a CDF814A0 		str	r10, [sp, #20]
 893              	.LVL100:
 894 012e F6B2     		uxtb	r6, r6
 150:/Users/imashio/Electronics/ARM/_Library/draw_Value.c **** 		int_value = value / pow10;
 895              		.loc 1 150 0
 896 0130 1FFA80FA 		uxth	r10, r0
 897              	.LVL101:
 151:/Users/imashio/Electronics/ARM/_Library/draw_Value.c **** 		int_value = value / pow10;
 898              		.loc 1 151 0
 899 0134 92FBFAFB 		sdiv	fp, r2, r10
 900              		.loc 1 152 0
 901 0138 1FFA8BFB 		uxth	fp, fp
 902 013c 3146     		mov	r1, r6
 903 013e 5846     		mov	r0, fp
 904 0140 FFF7FEFF 		bl	u8x8_u16toa
 905              	.LVL102:
 153:/Users/imashio/Electronics/ARM/_Library/draw_Value.c **** 		str_offset = str_offset + (valid_digit-frac)*font_width_s;
 906              		.loc 1 153 0
 907 0144 06EB4606 		add	r6, r6, r6, lsl #1
 152:/Users/imashio/Electronics/ARM/_Library/draw_Value.c **** 		str_offset = str_offset + (valid_digit-frac)*font_width_s;
 908              		.loc 1 152 0
 909 0148 0346     		mov	r3, r0
 910 014a 3A46     		mov	r2, r7
 911 014c 2946     		mov	r1, r5
 912 014e 4046     		mov	r0, r8
 913              		.loc 1 153 0
 914 0150 04EB4604 		add	r4, r4, r6, lsl #1
 915              	.LVL103:
 152:/Users/imashio/Electronics/ARM/_Library/draw_Value.c **** 		str_offset = str_offset + (valid_digit-frac)*font_width_s;
 916              		.loc 1 152 0
 917 0154 FFF7FEFF 		bl	u8g2_DrawStr
 918              	.LVL104:
 919              		.loc 1 153 0
 920 0158 E4B2     		uxtb	r4, r4
 921              	.LVL105:
 154:/Users/imashio/Electronics/ARM/_Library/draw_Value.c **** 
 155:/Users/imashio/Electronics/ARM/_Library/draw_Value.c **** 		u8g2_DrawStr(u8g2, x+str_offset - ( (font_width_s>>1)-(font_width_s>>2) ), y+height-2, ".");
 922              		.loc 1 155 0
 923 015a A9F10201 		sub	r1, r9, #2
 924 015e 2144     		add	r1, r1, r4
 925 0160 2E4B     		ldr	r3, .L56+12
 926 0162 C9B2     		uxtb	r1, r1
 927 0164 3A46     		mov	r2, r7
 928 0166 4046     		mov	r0, r8
 929 0168 FFF7FEFF 		bl	u8g2_DrawStr
 930              	.LVL106:
 156:/Users/imashio/Electronics/ARM/_Library/draw_Value.c **** 		str_offset = str_offset + (font_width_s>>1);
 157:/Users/imashio/Electronics/ARM/_Library/draw_Value.c **** 
 158:/Users/imashio/Electronics/ARM/_Library/draw_Value.c **** 		sub_value = int_value * pow10;
ARM GAS  /var/folders/v3/wysfpd052nz8jkbx04pk0ym80000gn/T//ccBlCFWU.s 			page 21


 159:/Users/imashio/Electronics/ARM/_Library/draw_Value.c **** 		uint8_t frac_value = value - sub_value;
 931              		.loc 1 159 0
 932 016c 069A     		ldr	r2, [sp, #24]
 160:/Users/imashio/Electronics/ARM/_Library/draw_Value.c **** 
 161:/Users/imashio/Electronics/ARM/_Library/draw_Value.c **** 		u8g2_DrawStr(u8g2, x+str_offset, y+height-2, u8g2_u16toa(frac_value, frac) );
 933              		.loc 1 161 0
 934 016e 0599     		ldr	r1, [sp, #20]
 159:/Users/imashio/Electronics/ARM/_Library/draw_Value.c **** 
 935              		.loc 1 159 0
 936 0170 0BFB1A20 		mls	r0, fp, r10, r2
 937              		.loc 1 161 0
 938 0174 C0B2     		uxtb	r0, r0
 939 0176 FFF7FEFF 		bl	u8x8_u16toa
 940              	.LVL107:
 941 017a 09F10309 		add	r9, r9, #3
 942 017e 4C44     		add	r4, r4, r9
 943              	.LVL108:
 944 0180 E4B2     		uxtb	r4, r4
 945 0182 0346     		mov	r3, r0
 946 0184 3A46     		mov	r2, r7
 947 0186 2146     		mov	r1, r4
 948              	.LVL109:
 949              	.L51:
 950 0188 4046     		mov	r0, r8
 951              	.LBE18:
 162:/Users/imashio/Electronics/ARM/_Library/draw_Value.c **** 	}
 163:/Users/imashio/Electronics/ARM/_Library/draw_Value.c **** }
 952              		.loc 1 163 0
 953 018a 09B0     		add	sp, sp, #36
 954              	.LCFI16:
 955              		.cfi_remember_state
 956              		.cfi_def_cfa_offset 44
 957              		@ sp needed
 958 018c BDEC028B 		vldm	sp!, {d8}
 959              	.LCFI17:
 960              		.cfi_restore 80
 961              		.cfi_restore 81
 962              		.cfi_def_cfa_offset 36
 963 0190 BDE8F04F 		pop	{r4, r5, r6, r7, r8, r9, r10, fp, lr}
 964              	.LCFI18:
 965              		.cfi_restore 14
 966              		.cfi_restore 11
 967              		.cfi_restore 10
 968              		.cfi_restore 9
 969              		.cfi_restore 8
 970              		.cfi_restore 7
 971              		.cfi_restore 6
 972              		.cfi_restore 5
 973              		.cfi_restore 4
 974              		.cfi_def_cfa_offset 0
 975              	.LVL110:
 976              	.LBB19:
 161:/Users/imashio/Electronics/ARM/_Library/draw_Value.c **** 	}
 977              		.loc 1 161 0
 978 0194 FFF7FEBF 		b	u8g2_DrawStr
 979              	.LVL111:
 980              	.L38:
ARM GAS  /var/folders/v3/wysfpd052nz8jkbx04pk0ym80000gn/T//ccBlCFWU.s 			page 22


 981              	.LCFI19:
 982              		.cfi_restore_state
 983 0198 04EB0905 		add	r5, r4, r9
 984 019c EDB2     		uxtb	r5, r5
 985 019e A4E7     		b	.L39
 986              	.LVL112:
 987              	.L54:
 988              	.LBE19:
 148:/Users/imashio/Electronics/ARM/_Library/draw_Value.c **** 	}else{
 989              		.loc 1 148 0
 990 01a0 3146     		mov	r1, r6
 991 01a2 BDF81800 		ldrh	r0, [sp, #24]
 992 01a6 FFF7FEFF 		bl	u8x8_u16toa
 993              	.LVL113:
 994 01aa 3A46     		mov	r2, r7
 995 01ac 0346     		mov	r3, r0
 996 01ae 2946     		mov	r1, r5
 997 01b0 EAE7     		b	.L51
 998              	.LVL114:
 999              	.L53:
 132:/Users/imashio/Electronics/ARM/_Library/draw_Value.c **** 		u8g2_DrawBox(u8g2, x+str_offset, y, font_width_s, height );
 1000              		.loc 1 132 0
 1001 01b2 0021     		movs	r1, #0
 1002 01b4 4046     		mov	r0, r8
 1003 01b6 FFF7FEFF 		bl	u8g2_SetDrawColor
 1004              	.LVL115:
 133:/Users/imashio/Electronics/ARM/_Library/draw_Value.c **** 		u8g2_SetDrawColor(u8g2, 1); // default color
 1005              		.loc 1 133 0
 1006 01ba 5246     		mov	r2, r10
 1007 01bc 0623     		movs	r3, #6
 1008 01be 2946     		mov	r1, r5
 1009 01c0 4046     		mov	r0, r8
 1010 01c2 CDF800B0 		str	fp, [sp]
 1011 01c6 FFF7FEFF 		bl	u8g2_DrawBox
 1012              	.LVL116:
 134:/Users/imashio/Electronics/ARM/_Library/draw_Value.c **** 
 1013              		.loc 1 134 0
 1014 01ca 0121     		movs	r1, #1
 1015 01cc 4046     		mov	r0, r8
 1016 01ce FFF7FEFF 		bl	u8g2_SetDrawColor
 1017              	.LVL117:
 1018 01d2 0634     		adds	r4, r4, #6
 1019              	.LVL118:
 136:/Users/imashio/Electronics/ARM/_Library/draw_Value.c **** 			u8g2_DrawStr(u8g2, x+str_offset, y+height-2, "-");
 1020              		.loc 1 136 0
 1021 01d4 069B     		ldr	r3, [sp, #24]
 1022 01d6 E4B2     		uxtb	r4, r4
 1023 01d8 09EB040A 		add	r10, r9, r4
 1024 01dc 002B     		cmp	r3, #0
 1025 01de 5FFA8AFA 		uxtb	r10, r10
 137:/Users/imashio/Electronics/ARM/_Library/draw_Value.c **** 			value = -value;
 1026              		.loc 1 137 0
 1027 01e2 2946     		mov	r1, r5
 136:/Users/imashio/Electronics/ARM/_Library/draw_Value.c **** 			u8g2_DrawStr(u8g2, x+str_offset, y+height-2, "-");
 1028              		.loc 1 136 0
 1029 01e4 06DB     		blt	.L55
 141:/Users/imashio/Electronics/ARM/_Library/draw_Value.c **** 			str_offset = str_offset + font_width_s;
ARM GAS  /var/folders/v3/wysfpd052nz8jkbx04pk0ym80000gn/T//ccBlCFWU.s 			page 23


 1030              		.loc 1 141 0
 1031 01e6 0E4B     		ldr	r3, .L56+16
 1032 01e8 3A46     		mov	r2, r7
 1033 01ea 4046     		mov	r0, r8
 1034 01ec FFF7FEFF 		bl	u8g2_DrawStr
 1035              	.LVL119:
 1036 01f0 5546     		mov	r5, r10
 1037 01f2 85E7     		b	.L41
 1038              	.LVL120:
 1039              	.L55:
 137:/Users/imashio/Electronics/ARM/_Library/draw_Value.c **** 			value = -value;
 1040              		.loc 1 137 0
 1041 01f4 0B4B     		ldr	r3, .L56+20
 1042 01f6 3A46     		mov	r2, r7
 1043 01f8 4046     		mov	r0, r8
 1044 01fa FFF7FEFF 		bl	u8g2_DrawStr
 1045              	.LVL121:
 138:/Users/imashio/Electronics/ARM/_Library/draw_Value.c **** 			str_offset = str_offset + font_width_s;
 1046              		.loc 1 138 0
 1047 01fe 069B     		ldr	r3, [sp, #24]
 1048 0200 5842     		negs	r0, r3
 1049 0202 03B2     		sxth	r3, r0
 1050 0204 5546     		mov	r5, r10
 1051 0206 0693     		str	r3, [sp, #24]
 1052              	.LVL122:
 1053 0208 7AE7     		b	.L41
 1054              	.L57:
 1055 020a 00BFAFF3 		.align	3
 1055      0080
 1056              	.L56:
 1057 0210 00000000 		.word	0
 1058 0214 00002440 		.word	1076101120
 1059 0218 00000000 		.word	u8g2_font_6x10_tf
 1060 021c 08000000 		.word	.LC2
 1061 0220 04000000 		.word	.LC1
 1062 0224 00000000 		.word	.LC0
 1063              		.cfi_endproc
 1064              	.LFE4:
 1066              		.section	.text.draw_Value_xs,"ax",%progbits
 1067              		.align	1
 1068              		.p2align 2,,3
 1069              		.global	draw_Value_xs
 1070              		.syntax unified
 1071              		.thumb
 1072              		.thumb_func
 1073              		.fpu fpv4-sp-d16
 1075              	draw_Value_xs:
 1076              	.LFB5:
 164:/Users/imashio/Electronics/ARM/_Library/draw_Value.c **** 
 165:/Users/imashio/Electronics/ARM/_Library/draw_Value.c **** 
 166:/Users/imashio/Electronics/ARM/_Library/draw_Value.c **** void draw_Value_xs(u8g2_t *u8g2, uint8_t x, uint8_t y, uint8_t width, uint8_t height, int16_t value
 1077              		.loc 1 166 0
 1078              		.cfi_startproc
 1079              		@ args = 24, pretend = 0, frame = 24
 1080              		@ frame_needed = 0, uses_anonymous_args = 0
 1081              	.LVL123:
 1082 0000 2DE9F04F 		push	{r4, r5, r6, r7, r8, r9, r10, fp, lr}
ARM GAS  /var/folders/v3/wysfpd052nz8jkbx04pk0ym80000gn/T//ccBlCFWU.s 			page 24


 1083              	.LCFI20:
 1084              		.cfi_def_cfa_offset 36
 1085              		.cfi_offset 4, -36
 1086              		.cfi_offset 5, -32
 1087              		.cfi_offset 6, -28
 1088              		.cfi_offset 7, -24
 1089              		.cfi_offset 8, -20
 1090              		.cfi_offset 9, -16
 1091              		.cfi_offset 10, -12
 1092              		.cfi_offset 11, -8
 1093              		.cfi_offset 14, -4
 1094 0004 2DED028B 		vpush.64	{d8}
 1095              	.LCFI21:
 1096              		.cfi_def_cfa_offset 44
 1097              		.cfi_offset 80, -44
 1098              		.cfi_offset 81, -40
 1099 0008 89B0     		sub	sp, sp, #36
 1100              	.LCFI22:
 1101              		.cfi_def_cfa_offset 80
 1102              		.loc 1 166 0
 1103 000a 8946     		mov	r9, r1
 1104 000c 199C     		ldr	r4, [sp, #100]
 1105 000e BDF95470 		ldrsh	r7, [sp, #84]
 1106 0012 9DF85C50 		ldrb	r5, [sp, #92]	@ zero_extendqisi2
 167:/Users/imashio/Electronics/ARM/_Library/draw_Value.c **** 	int16_t int_value;
 168:/Users/imashio/Electronics/ARM/_Library/draw_Value.c **** 	int16_t sub_value;
 169:/Users/imashio/Electronics/ARM/_Library/draw_Value.c **** 	uint16_t pow10 = 1;
 170:/Users/imashio/Electronics/ARM/_Library/draw_Value.c **** 	uint8_t valid_digit = digit;
 171:/Users/imashio/Electronics/ARM/_Library/draw_Value.c **** 	uint8_t int_digit = digit-frac;
 172:/Users/imashio/Electronics/ARM/_Library/draw_Value.c **** 	uint8_t	str_offset;
 173:/Users/imashio/Electronics/ARM/_Library/draw_Value.c **** 
 174:/Users/imashio/Electronics/ARM/_Library/draw_Value.c **** 	u8g2_SetFont(u8g2, meas_value_font_xs);
 1107              		.loc 1 174 0
 1108 0016 7E49     		ldr	r1, .L78+8
 1109              	.LVL124:
 166:/Users/imashio/Electronics/ARM/_Library/draw_Value.c **** 	int16_t int_value;
 1110              		.loc 1 166 0
 1111 0018 0697     		str	r7, [sp, #24]
 1112 001a 9DF86070 		ldrb	r7, [sp, #96]	@ zero_extendqisi2
 1113 001e 9DF85860 		ldrb	r6, [sp, #88]	@ zero_extendqisi2
 1114              	.LVL125:
 1115 0022 0797     		str	r7, [sp, #28]
 1116 0024 9246     		mov	r10, r2
 1117 0026 1F46     		mov	r7, r3
 1118 0028 8046     		mov	r8, r0
 171:/Users/imashio/Electronics/ARM/_Library/draw_Value.c **** 	uint8_t	str_offset;
 1119              		.loc 1 171 0
 1120 002a 0595     		str	r5, [sp, #20]
 166:/Users/imashio/Electronics/ARM/_Library/draw_Value.c **** 	int16_t int_value;
 1121              		.loc 1 166 0
 1122 002c 9DF850B0 		ldrb	fp, [sp, #80]	@ zero_extendqisi2
 1123              		.loc 1 174 0
 1124 0030 FFF7FEFF 		bl	u8g2_SetFont
 1125              	.LVL126:
 175:/Users/imashio/Electronics/ARM/_Library/draw_Value.c **** 
 176:/Users/imashio/Electronics/ARM/_Library/draw_Value.c **** 	str_offset = (width-1) - ( StrLength(unit)*4 + ((sign!=0)+digit)*font_width_xs + ((frac!=0)*font_w
 1126              		.loc 1 176 0
ARM GAS  /var/folders/v3/wysfpd052nz8jkbx04pk0ym80000gn/T//ccBlCFWU.s 			page 25


 1127 0034 2046     		mov	r0, r4
 1128 0036 FFF7FEFF 		bl	StrLength
 1129              	.LVL127:
 1130 003a 079B     		ldr	r3, [sp, #28]
 1131 003c 059A     		ldr	r2, [sp, #20]
 1132 003e 002B     		cmp	r3, #0
 1133 0040 0CBF     		ite	eq
 1134 0042 3446     		moveq	r4, r6
 1135 0044 741C     		addne	r4, r6, #1
 1136 0046 023F     		subs	r7, r7, #2
 1137 0048 04EB8404 		add	r4, r4, r4, lsl #2
 1138 004c FFB2     		uxtb	r7, r7
 171:/Users/imashio/Electronics/ARM/_Library/draw_Value.c **** 	uint8_t	str_offset;
 1139              		.loc 1 171 0
 1140 004e 751B     		subs	r5, r6, r5
 1141              		.loc 1 176 0
 1142 0050 8000     		lsls	r0, r0, #2
 1143 0052 E4B2     		uxtb	r4, r4
 1144 0054 002A     		cmp	r2, #0
 1145 0056 C0B2     		uxtb	r0, r0
 1146 0058 A7EB0404 		sub	r4, r7, r4
 171:/Users/imashio/Electronics/ARM/_Library/draw_Value.c **** 	uint8_t	str_offset;
 1147              		.loc 1 171 0
 1148 005c EDB2     		uxtb	r5, r5
 1149              	.LVL128:
 1150              		.loc 1 176 0
 1151 005e 0CBF     		ite	eq
 1152 0060 0023     		moveq	r3, #0
 1153 0062 0223     		movne	r3, #2
 1154 0064 241A     		subs	r4, r4, r0
 177:/Users/imashio/Electronics/ARM/_Library/draw_Value.c **** 
 178:/Users/imashio/Electronics/ARM/_Library/draw_Value.c **** 	// erase blank space
 179:/Users/imashio/Electronics/ARM/_Library/draw_Value.c **** 	u8g2_SetDrawColor(u8g2, 0); // erase color
 1155              		.loc 1 179 0
 1156 0066 0021     		movs	r1, #0
 1157 0068 4046     		mov	r0, r8
 1158              	.LBB20:
 180:/Users/imashio/Electronics/ARM/_Library/draw_Value.c **** 	for( uint8_t n=int_digit-1; n>0; n-- ){
 1159              		.loc 1 180 0
 1160 006a 6F1E     		subs	r7, r5, #1
 1161              	.LBE20:
 176:/Users/imashio/Electronics/ARM/_Library/draw_Value.c **** 
 1162              		.loc 1 176 0
 1163 006c E41A     		subs	r4, r4, r3
 179:/Users/imashio/Electronics/ARM/_Library/draw_Value.c **** 	for( uint8_t n=int_digit-1; n>0; n-- ){
 1164              		.loc 1 179 0
 1165 006e FFF7FEFF 		bl	u8g2_SetDrawColor
 1166              	.LVL129:
 1167              	.LBB25:
 1168              		.loc 1 180 0
 1169 0072 17F0FF07 		ands	r7, r7, #255
 1170              	.LBE25:
 176:/Users/imashio/Electronics/ARM/_Library/draw_Value.c **** 
 1171              		.loc 1 176 0
 1172 0076 E4B2     		uxtb	r4, r4
 1173              	.LVL130:
 1174              	.LBB26:
ARM GAS  /var/folders/v3/wysfpd052nz8jkbx04pk0ym80000gn/T//ccBlCFWU.s 			page 26


 1175              		.loc 1 180 0
 1176 0078 00F08C80 		beq	.L60
 1177 007c 0698     		ldr	r0, [sp, #24]
 1178 007e FFF7FEFF 		bl	__aeabi_i2d
 1179              	.LVL131:
 1180 0082 059A     		ldr	r2, [sp, #20]
 1181 0084 023D     		subs	r5, r5, #2
 1182              	.LVL132:
 1183 0086 531E     		subs	r3, r2, #1
 1184 0088 3B44     		add	r3, r3, r7
 1185 008a EDB2     		uxtb	r5, r5
 1186              	.LVL133:
 1187 008c 5B1B     		subs	r3, r3, r5
 1188 008e CDE90201 		strd	r0, [sp, #8]
 1189              	.LBB21:
 181:/Users/imashio/Electronics/ARM/_Library/draw_Value.c **** 		if( value >= pow(10, n+frac) ){
 1190              		.loc 1 181 0
 1191 0092 9FED5D8B 		vldr.64	d8, .L78
 1192 0096 0493     		str	r3, [sp, #16]
 1193 0098 1744     		add	r7, r7, r2
 1194 009a 0BE0     		b	.L62
 1195              	.LVL134:
 1196              	.L74:
 182:/Users/imashio/Electronics/ARM/_Library/draw_Value.c **** 			break;
 183:/Users/imashio/Electronics/ARM/_Library/draw_Value.c **** 		}else{
 184:/Users/imashio/Electronics/ARM/_Library/draw_Value.c **** 			u8g2_DrawBox(u8g2, x+str_offset, y, font_width_xs, height );
 1197              		.loc 1 184 0 discriminator 2
 1198 009c CDF800B0 		str	fp, [sp]
 1199 00a0 4046     		mov	r0, r8
 1200 00a2 FFF7FEFF 		bl	u8g2_DrawBox
 1201              	.LVL135:
 1202              	.LBE21:
 180:/Users/imashio/Electronics/ARM/_Library/draw_Value.c **** 		if( value >= pow(10, n+frac) ){
 1203              		.loc 1 180 0 discriminator 2
 1204 00a6 049B     		ldr	r3, [sp, #16]
 1205              	.LBB22:
 185:/Users/imashio/Electronics/ARM/_Library/draw_Value.c **** 			str_offset = str_offset + font_width_xs;
 1206              		.loc 1 185 0 discriminator 2
 1207 00a8 0534     		adds	r4, r4, #5
 1208              	.LVL136:
 186:/Users/imashio/Electronics/ARM/_Library/draw_Value.c **** 			valid_digit--;
 1209              		.loc 1 186 0 discriminator 2
 1210 00aa 013E     		subs	r6, r6, #1
 1211              	.LVL137:
 1212              	.LBE22:
 180:/Users/imashio/Electronics/ARM/_Library/draw_Value.c **** 		if( value >= pow(10, n+frac) ){
 1213              		.loc 1 180 0 discriminator 2
 1214 00ac 9F42     		cmp	r7, r3
 1215              	.LBB23:
 185:/Users/imashio/Electronics/ARM/_Library/draw_Value.c **** 			str_offset = str_offset + font_width_xs;
 1216              		.loc 1 185 0 discriminator 2
 1217 00ae E4B2     		uxtb	r4, r4
 1218              	.LVL138:
 1219              		.loc 1 186 0 discriminator 2
 1220 00b0 F6B2     		uxtb	r6, r6
 1221              	.LVL139:
 1222              	.LBE23:
ARM GAS  /var/folders/v3/wysfpd052nz8jkbx04pk0ym80000gn/T//ccBlCFWU.s 			page 27


 180:/Users/imashio/Electronics/ARM/_Library/draw_Value.c **** 		if( value >= pow(10, n+frac) ){
 1223              		.loc 1 180 0 discriminator 2
 1224 00b2 6FD0     		beq	.L60
 1225              	.LVL140:
 1226              	.L62:
 1227              	.LBB24:
 181:/Users/imashio/Electronics/ARM/_Library/draw_Value.c **** 			break;
 1228              		.loc 1 181 0
 1229 00b4 3846     		mov	r0, r7
 1230 00b6 FFF7FEFF 		bl	__aeabi_i2d
 1231              	.LVL141:
 1232 00ba B0EE480A 		vmov.f32	s0, s16
 1233 00be F0EE680A 		vmov.f32	s1, s17
 1234 00c2 41EC110B 		vmov	d1, r0, r1
 1235 00c6 FFF7FEFF 		bl	pow
 1236              	.LVL142:
 1237 00ca DDE90201 		ldrd	r0, [sp, #8]
 1238 00ce 53EC102B 		vmov	r2, r3, d0
 1239 00d2 FFF7FEFF 		bl	__aeabi_dcmpge
 1240              	.LVL143:
 1241 00d6 09EB0405 		add	r5, r9, r4
 1242 00da EDB2     		uxtb	r5, r5
 184:/Users/imashio/Electronics/ARM/_Library/draw_Value.c **** 			str_offset = str_offset + font_width_xs;
 1243              		.loc 1 184 0
 1244 00dc 0523     		movs	r3, #5
 1245 00de 5246     		mov	r2, r10
 1246 00e0 2946     		mov	r1, r5
 1247 00e2 013F     		subs	r7, r7, #1
 181:/Users/imashio/Electronics/ARM/_Library/draw_Value.c **** 			break;
 1248              		.loc 1 181 0
 1249 00e4 0028     		cmp	r0, #0
 1250 00e6 D9D0     		beq	.L74
 1251              	.LVL144:
 1252              	.L61:
 1253              	.LBE24:
 1254              	.LBE26:
 187:/Users/imashio/Electronics/ARM/_Library/draw_Value.c **** 		}
 188:/Users/imashio/Electronics/ARM/_Library/draw_Value.c **** 	}
 189:/Users/imashio/Electronics/ARM/_Library/draw_Value.c **** 	u8g2_SetDrawColor(u8g2, 1); // default color
 1255              		.loc 1 189 0
 1256 00e8 0121     		movs	r1, #1
 1257 00ea 4046     		mov	r0, r8
 1258 00ec FFF7FEFF 		bl	u8g2_SetDrawColor
 1259              	.LVL145:
 1260 00f0 ABF10207 		sub	r7, fp, #2
 190:/Users/imashio/Electronics/ARM/_Library/draw_Value.c **** 
 191:/Users/imashio/Electronics/ARM/_Library/draw_Value.c **** 	// sign
 192:/Users/imashio/Electronics/ARM/_Library/draw_Value.c **** 	if( sign!=0 ){
 1261              		.loc 1 192 0
 1262 00f4 079B     		ldr	r3, [sp, #28]
 1263 00f6 5744     		add	r7, r7, r10
 1264 00f8 FFB2     		uxtb	r7, r7
 1265 00fa 002B     		cmp	r3, #0
 1266 00fc 57D1     		bne	.L75
 1267              	.LVL146:
 1268              	.L63:
 193:/Users/imashio/Electronics/ARM/_Library/draw_Value.c **** 		// erase previous sign
ARM GAS  /var/folders/v3/wysfpd052nz8jkbx04pk0ym80000gn/T//ccBlCFWU.s 			page 28


 194:/Users/imashio/Electronics/ARM/_Library/draw_Value.c **** 		u8g2_SetDrawColor(u8g2, 0); // erase color
 195:/Users/imashio/Electronics/ARM/_Library/draw_Value.c **** 		u8g2_DrawBox(u8g2, x+str_offset, y, font_width_xs, height );
 196:/Users/imashio/Electronics/ARM/_Library/draw_Value.c **** 		u8g2_SetDrawColor(u8g2, 1); // default color
 197:/Users/imashio/Electronics/ARM/_Library/draw_Value.c **** 
 198:/Users/imashio/Electronics/ARM/_Library/draw_Value.c **** 		if(	value < 0 ){
 199:/Users/imashio/Electronics/ARM/_Library/draw_Value.c **** 			u8g2_DrawStr(u8g2, x+str_offset, y+height-2, "-");
 200:/Users/imashio/Electronics/ARM/_Library/draw_Value.c **** 			value = -value;
 201:/Users/imashio/Electronics/ARM/_Library/draw_Value.c **** 			str_offset = str_offset + font_width_xs;
 202:/Users/imashio/Electronics/ARM/_Library/draw_Value.c **** 		}else if( value >= 0 ){
 203:/Users/imashio/Electronics/ARM/_Library/draw_Value.c **** 			u8g2_DrawStr(u8g2, x+str_offset, y+height-2, "+");
 204:/Users/imashio/Electronics/ARM/_Library/draw_Value.c **** 			str_offset = str_offset + font_width_xs;
 205:/Users/imashio/Electronics/ARM/_Library/draw_Value.c **** 		}
 206:/Users/imashio/Electronics/ARM/_Library/draw_Value.c **** 	}
 207:/Users/imashio/Electronics/ARM/_Library/draw_Value.c **** 
 208:/Users/imashio/Electronics/ARM/_Library/draw_Value.c **** 	//int
 209:/Users/imashio/Electronics/ARM/_Library/draw_Value.c **** 	if( frac==0 ){
 1269              		.loc 1 209 0
 1270 00fe 059B     		ldr	r3, [sp, #20]
 1271 0100 002B     		cmp	r3, #0
 1272 0102 4BD0     		beq	.L76
 1273              	.LBB27:
 210:/Users/imashio/Electronics/ARM/_Library/draw_Value.c **** 		u8g2_DrawStr(u8g2, x+str_offset, y+height-2, u8g2_u16toa(value, valid_digit) );
 211:/Users/imashio/Electronics/ARM/_Library/draw_Value.c **** 	}else{
 212:/Users/imashio/Electronics/ARM/_Library/draw_Value.c **** 		pow10 = pow(10, frac);
 1274              		.loc 1 212 0
 1275 0104 DDF814A0 		ldr	r10, [sp, #20]
 1276 0108 5046     		mov	r0, r10
 1277 010a FFF7FEFF 		bl	__aeabi_ui2d
 1278              	.LVL147:
 1279 010e 9FED3E0B 		vldr.64	d0, .L78
 1280 0112 41EC110B 		vmov	d1, r0, r1
 1281 0116 FFF7FEFF 		bl	pow
 1282              	.LVL148:
 1283 011a 51EC100B 		vmov	r0, r1, d0
 1284 011e FFF7FEFF 		bl	__aeabi_d2uiz
 1285              	.LVL149:
 213:/Users/imashio/Electronics/ARM/_Library/draw_Value.c **** 		int_value = value / pow10;
 214:/Users/imashio/Electronics/ARM/_Library/draw_Value.c **** 		u8g2_DrawStr(u8g2, x+str_offset, y+height-2, u8g2_u16toa(int_value, valid_digit-frac) );
 1286              		.loc 1 214 0
 1287 0122 5346     		mov	r3, r10
 1288 0124 F61A     		subs	r6, r6, r3
 1289              	.LVL150:
 213:/Users/imashio/Electronics/ARM/_Library/draw_Value.c **** 		int_value = value / pow10;
 1290              		.loc 1 213 0
 1291 0126 069A     		ldr	r2, [sp, #24]
 1292              		.loc 1 214 0
 1293 0128 CDF814A0 		str	r10, [sp, #20]
 1294              	.LVL151:
 1295 012c F6B2     		uxtb	r6, r6
 212:/Users/imashio/Electronics/ARM/_Library/draw_Value.c **** 		int_value = value / pow10;
 1296              		.loc 1 212 0
 1297 012e 1FFA80FA 		uxth	r10, r0
 1298              	.LVL152:
 213:/Users/imashio/Electronics/ARM/_Library/draw_Value.c **** 		int_value = value / pow10;
 1299              		.loc 1 213 0
 1300 0132 92FBFAFB 		sdiv	fp, r2, r10
 1301              		.loc 1 214 0
ARM GAS  /var/folders/v3/wysfpd052nz8jkbx04pk0ym80000gn/T//ccBlCFWU.s 			page 29


 1302 0136 1FFA8BFB 		uxth	fp, fp
 1303 013a 3146     		mov	r1, r6
 1304 013c 5846     		mov	r0, fp
 1305 013e FFF7FEFF 		bl	u8x8_u16toa
 1306              	.LVL153:
 215:/Users/imashio/Electronics/ARM/_Library/draw_Value.c **** 		str_offset = str_offset + (valid_digit-frac)*font_width_xs;
 1307              		.loc 1 215 0
 1308 0142 06EB8606 		add	r6, r6, r6, lsl #2
 214:/Users/imashio/Electronics/ARM/_Library/draw_Value.c **** 		str_offset = str_offset + (valid_digit-frac)*font_width_xs;
 1309              		.loc 1 214 0
 1310 0146 0346     		mov	r3, r0
 1311 0148 3A46     		mov	r2, r7
 1312 014a 2946     		mov	r1, r5
 1313 014c 4046     		mov	r0, r8
 1314              		.loc 1 215 0
 1315 014e 3444     		add	r4, r4, r6
 1316              	.LVL154:
 214:/Users/imashio/Electronics/ARM/_Library/draw_Value.c **** 		str_offset = str_offset + (valid_digit-frac)*font_width_xs;
 1317              		.loc 1 214 0
 1318 0150 FFF7FEFF 		bl	u8g2_DrawStr
 1319              	.LVL155:
 1320              		.loc 1 215 0
 1321 0154 E4B2     		uxtb	r4, r4
 1322              	.LVL156:
 216:/Users/imashio/Electronics/ARM/_Library/draw_Value.c **** 
 217:/Users/imashio/Electronics/ARM/_Library/draw_Value.c **** 		u8g2_DrawStr(u8g2, x+str_offset - ( (font_width_xs>>1)-(font_width_xs>>2) ), y+height-2, ".");
 1323              		.loc 1 217 0
 1324 0156 09F1FF31 		add	r1, r9, #-1
 1325 015a 2144     		add	r1, r1, r4
 1326 015c 2D4B     		ldr	r3, .L78+12
 1327 015e C9B2     		uxtb	r1, r1
 1328 0160 3A46     		mov	r2, r7
 1329 0162 4046     		mov	r0, r8
 1330 0164 FFF7FEFF 		bl	u8g2_DrawStr
 1331              	.LVL157:
 218:/Users/imashio/Electronics/ARM/_Library/draw_Value.c **** 		str_offset = str_offset + (font_width_xs>>1);
 219:/Users/imashio/Electronics/ARM/_Library/draw_Value.c **** 
 220:/Users/imashio/Electronics/ARM/_Library/draw_Value.c **** 		sub_value = int_value * pow10;
 221:/Users/imashio/Electronics/ARM/_Library/draw_Value.c **** 		uint8_t frac_value = value - sub_value;
 1332              		.loc 1 221 0
 1333 0168 069A     		ldr	r2, [sp, #24]
 222:/Users/imashio/Electronics/ARM/_Library/draw_Value.c **** 
 223:/Users/imashio/Electronics/ARM/_Library/draw_Value.c **** 		u8g2_DrawStr(u8g2, x+str_offset, y+height-2, u8g2_u16toa(frac_value, frac) );
 1334              		.loc 1 223 0
 1335 016a 0599     		ldr	r1, [sp, #20]
 221:/Users/imashio/Electronics/ARM/_Library/draw_Value.c **** 
 1336              		.loc 1 221 0
 1337 016c 0BFB1A20 		mls	r0, fp, r10, r2
 1338              		.loc 1 223 0
 1339 0170 C0B2     		uxtb	r0, r0
 1340 0172 FFF7FEFF 		bl	u8x8_u16toa
 1341              	.LVL158:
 1342 0176 09F10209 		add	r9, r9, #2
 1343 017a 4C44     		add	r4, r4, r9
 1344              	.LVL159:
 1345 017c E4B2     		uxtb	r4, r4
 1346 017e 0346     		mov	r3, r0
ARM GAS  /var/folders/v3/wysfpd052nz8jkbx04pk0ym80000gn/T//ccBlCFWU.s 			page 30


 1347 0180 3A46     		mov	r2, r7
 1348 0182 2146     		mov	r1, r4
 1349              	.LVL160:
 1350              	.L73:
 1351 0184 4046     		mov	r0, r8
 1352              	.LBE27:
 224:/Users/imashio/Electronics/ARM/_Library/draw_Value.c **** 	}
 225:/Users/imashio/Electronics/ARM/_Library/draw_Value.c **** }
 1353              		.loc 1 225 0
 1354 0186 09B0     		add	sp, sp, #36
 1355              	.LCFI23:
 1356              		.cfi_remember_state
 1357              		.cfi_def_cfa_offset 44
 1358              		@ sp needed
 1359 0188 BDEC028B 		vldm	sp!, {d8}
 1360              	.LCFI24:
 1361              		.cfi_restore 80
 1362              		.cfi_restore 81
 1363              		.cfi_def_cfa_offset 36
 1364 018c BDE8F04F 		pop	{r4, r5, r6, r7, r8, r9, r10, fp, lr}
 1365              	.LCFI25:
 1366              		.cfi_restore 14
 1367              		.cfi_restore 11
 1368              		.cfi_restore 10
 1369              		.cfi_restore 9
 1370              		.cfi_restore 8
 1371              		.cfi_restore 7
 1372              		.cfi_restore 6
 1373              		.cfi_restore 5
 1374              		.cfi_restore 4
 1375              		.cfi_def_cfa_offset 0
 1376              	.LVL161:
 1377              	.LBB28:
 223:/Users/imashio/Electronics/ARM/_Library/draw_Value.c **** 	}
 1378              		.loc 1 223 0
 1379 0190 FFF7FEBF 		b	u8g2_DrawStr
 1380              	.LVL162:
 1381              	.L60:
 1382              	.LCFI26:
 1383              		.cfi_restore_state
 1384 0194 04EB0905 		add	r5, r4, r9
 1385 0198 EDB2     		uxtb	r5, r5
 1386 019a A5E7     		b	.L61
 1387              	.LVL163:
 1388              	.L76:
 1389              	.LBE28:
 210:/Users/imashio/Electronics/ARM/_Library/draw_Value.c **** 	}else{
 1390              		.loc 1 210 0
 1391 019c 3146     		mov	r1, r6
 1392 019e BDF81800 		ldrh	r0, [sp, #24]
 1393 01a2 FFF7FEFF 		bl	u8x8_u16toa
 1394              	.LVL164:
 1395 01a6 3A46     		mov	r2, r7
 1396 01a8 0346     		mov	r3, r0
 1397 01aa 2946     		mov	r1, r5
 1398 01ac EAE7     		b	.L73
 1399              	.LVL165:
ARM GAS  /var/folders/v3/wysfpd052nz8jkbx04pk0ym80000gn/T//ccBlCFWU.s 			page 31


 1400              	.L75:
 194:/Users/imashio/Electronics/ARM/_Library/draw_Value.c **** 		u8g2_DrawBox(u8g2, x+str_offset, y, font_width_xs, height );
 1401              		.loc 1 194 0
 1402 01ae 0021     		movs	r1, #0
 1403 01b0 4046     		mov	r0, r8
 1404 01b2 FFF7FEFF 		bl	u8g2_SetDrawColor
 1405              	.LVL166:
 195:/Users/imashio/Electronics/ARM/_Library/draw_Value.c **** 		u8g2_SetDrawColor(u8g2, 1); // default color
 1406              		.loc 1 195 0
 1407 01b6 5246     		mov	r2, r10
 1408 01b8 0523     		movs	r3, #5
 1409 01ba 2946     		mov	r1, r5
 1410 01bc 4046     		mov	r0, r8
 1411 01be CDF800B0 		str	fp, [sp]
 1412 01c2 FFF7FEFF 		bl	u8g2_DrawBox
 1413              	.LVL167:
 196:/Users/imashio/Electronics/ARM/_Library/draw_Value.c **** 
 1414              		.loc 1 196 0
 1415 01c6 0121     		movs	r1, #1
 1416 01c8 4046     		mov	r0, r8
 1417 01ca FFF7FEFF 		bl	u8g2_SetDrawColor
 1418              	.LVL168:
 1419 01ce 0534     		adds	r4, r4, #5
 1420              	.LVL169:
 198:/Users/imashio/Electronics/ARM/_Library/draw_Value.c **** 			u8g2_DrawStr(u8g2, x+str_offset, y+height-2, "-");
 1421              		.loc 1 198 0
 1422 01d0 069B     		ldr	r3, [sp, #24]
 1423 01d2 E4B2     		uxtb	r4, r4
 1424 01d4 09EB040A 		add	r10, r9, r4
 1425 01d8 002B     		cmp	r3, #0
 1426 01da 5FFA8AFA 		uxtb	r10, r10
 199:/Users/imashio/Electronics/ARM/_Library/draw_Value.c **** 			value = -value;
 1427              		.loc 1 199 0
 1428 01de 2946     		mov	r1, r5
 198:/Users/imashio/Electronics/ARM/_Library/draw_Value.c **** 			u8g2_DrawStr(u8g2, x+str_offset, y+height-2, "-");
 1429              		.loc 1 198 0
 1430 01e0 06DB     		blt	.L77
 203:/Users/imashio/Electronics/ARM/_Library/draw_Value.c **** 			str_offset = str_offset + font_width_xs;
 1431              		.loc 1 203 0
 1432 01e2 0D4B     		ldr	r3, .L78+16
 1433 01e4 3A46     		mov	r2, r7
 1434 01e6 4046     		mov	r0, r8
 1435 01e8 FFF7FEFF 		bl	u8g2_DrawStr
 1436              	.LVL170:
 1437 01ec 5546     		mov	r5, r10
 1438 01ee 86E7     		b	.L63
 1439              	.LVL171:
 1440              	.L77:
 199:/Users/imashio/Electronics/ARM/_Library/draw_Value.c **** 			value = -value;
 1441              		.loc 1 199 0
 1442 01f0 0A4B     		ldr	r3, .L78+20
 1443 01f2 3A46     		mov	r2, r7
 1444 01f4 4046     		mov	r0, r8
 1445 01f6 FFF7FEFF 		bl	u8g2_DrawStr
 1446              	.LVL172:
 200:/Users/imashio/Electronics/ARM/_Library/draw_Value.c **** 			str_offset = str_offset + font_width_xs;
 1447              		.loc 1 200 0
ARM GAS  /var/folders/v3/wysfpd052nz8jkbx04pk0ym80000gn/T//ccBlCFWU.s 			page 32


 1448 01fa 069B     		ldr	r3, [sp, #24]
 1449 01fc 5842     		negs	r0, r3
 1450 01fe 03B2     		sxth	r3, r0
 1451 0200 5546     		mov	r5, r10
 1452 0202 0693     		str	r3, [sp, #24]
 1453              	.LVL173:
 1454 0204 7BE7     		b	.L63
 1455              	.L79:
 1456 0206 00BF     		.align	3
 1457              	.L78:
 1458 0208 00000000 		.word	0
 1459 020c 00002440 		.word	1076101120
 1460 0210 00000000 		.word	u8g2_font_5x8_tf
 1461 0214 08000000 		.word	.LC2
 1462 0218 04000000 		.word	.LC1
 1463 021c 00000000 		.word	.LC0
 1464              		.cfi_endproc
 1465              	.LFE5:
 1467              		.section	.rodata.draw_Value.str1.4,"aMS",%progbits,1
 1468              		.align	2
 1469              	.LC0:
 1470 0000 2D00     		.ascii	"-\000"
 1471 0002 0000     		.space	2
 1472              	.LC1:
 1473 0004 2B00     		.ascii	"+\000"
 1474 0006 0000     		.space	2
 1475              	.LC2:
 1476 0008 2E00     		.ascii	".\000"
 1477              		.text
 1478              	.Letext0:
 1479              		.file 2 "/usr/local/gcc-arm-none-eabi-7-2018-q2-update/arm-none-eabi/include/machine/_default_type
 1480              		.file 3 "/usr/local/gcc-arm-none-eabi-7-2018-q2-update/arm-none-eabi/include/sys/_stdint.h"
 1481              		.file 4 "/Users/imashio/Electronics/ARM/_Library/u8x8.h"
 1482              		.file 5 "/Users/imashio/Electronics/ARM/_Library/u8g2.h"
 1483              		.file 6 "<built-in>"
ARM GAS  /var/folders/v3/wysfpd052nz8jkbx04pk0ym80000gn/T//ccBlCFWU.s 			page 33


DEFINED SYMBOLS
                            *ABS*:0000000000000000 draw_Value.c
/var/folders/v3/wysfpd052nz8jkbx04pk0ym80000gn/T//ccBlCFWU.s:18     .text.draw_MeasLabelUnit:0000000000000000 $t
/var/folders/v3/wysfpd052nz8jkbx04pk0ym80000gn/T//ccBlCFWU.s:26     .text.draw_MeasLabelUnit:0000000000000000 draw_MeasLabelUnit
/var/folders/v3/wysfpd052nz8jkbx04pk0ym80000gn/T//ccBlCFWU.s:109    .text.draw_MeasLabelUnit:0000000000000054 $d
/var/folders/v3/wysfpd052nz8jkbx04pk0ym80000gn/T//ccBlCFWU.s:115    .text.draw_MeasLabel:0000000000000000 $t
/var/folders/v3/wysfpd052nz8jkbx04pk0ym80000gn/T//ccBlCFWU.s:123    .text.draw_MeasLabel:0000000000000000 draw_MeasLabel
/var/folders/v3/wysfpd052nz8jkbx04pk0ym80000gn/T//ccBlCFWU.s:176    .text.draw_MeasLabel:000000000000002c $d
/var/folders/v3/wysfpd052nz8jkbx04pk0ym80000gn/T//ccBlCFWU.s:181    .text.draw_MeasUnit:0000000000000000 $t
/var/folders/v3/wysfpd052nz8jkbx04pk0ym80000gn/T//ccBlCFWU.s:189    .text.draw_MeasUnit:0000000000000000 draw_MeasUnit
/var/folders/v3/wysfpd052nz8jkbx04pk0ym80000gn/T//ccBlCFWU.s:255    .text.draw_MeasUnit:000000000000003c $d
/var/folders/v3/wysfpd052nz8jkbx04pk0ym80000gn/T//ccBlCFWU.s:264    .text.draw_Value:0000000000000000 $t
/var/folders/v3/wysfpd052nz8jkbx04pk0ym80000gn/T//ccBlCFWU.s:272    .text.draw_Value:0000000000000000 draw_Value
/var/folders/v3/wysfpd052nz8jkbx04pk0ym80000gn/T//ccBlCFWU.s:655    .text.draw_Value:0000000000000208 $d
/var/folders/v3/wysfpd052nz8jkbx04pk0ym80000gn/T//ccBlCFWU.s:665    .text.draw_Value_s:0000000000000000 $t
/var/folders/v3/wysfpd052nz8jkbx04pk0ym80000gn/T//ccBlCFWU.s:673    .text.draw_Value_s:0000000000000000 draw_Value_s
/var/folders/v3/wysfpd052nz8jkbx04pk0ym80000gn/T//ccBlCFWU.s:1057   .text.draw_Value_s:0000000000000210 $d
/var/folders/v3/wysfpd052nz8jkbx04pk0ym80000gn/T//ccBlCFWU.s:1067   .text.draw_Value_xs:0000000000000000 $t
/var/folders/v3/wysfpd052nz8jkbx04pk0ym80000gn/T//ccBlCFWU.s:1075   .text.draw_Value_xs:0000000000000000 draw_Value_xs
/var/folders/v3/wysfpd052nz8jkbx04pk0ym80000gn/T//ccBlCFWU.s:1458   .text.draw_Value_xs:0000000000000208 $d
/var/folders/v3/wysfpd052nz8jkbx04pk0ym80000gn/T//ccBlCFWU.s:1468   .rodata.draw_Value.str1.4:0000000000000000 $d

UNDEFINED SYMBOLS
u8g2_SetFont
u8g2_DrawStr
StrLength
u8g2_font_5x8_tf
u8g2_font_4x6_tf
__aeabi_i2d
__aeabi_dcmpge
__aeabi_ui2d
__aeabi_d2uiz
u8g2_SetDrawColor
u8g2_DrawBox
pow
u8x8_u16toa
u8g2_font_7x14B_tf
u8g2_font_6x10_tf
