ARM GAS  /var/folders/v3/wysfpd052nz8jkbx04pk0ym80000gn/T//cc3ZRlZ8.s 			page 1


   1              		.cpu cortex-m4
   2              		.eabi_attribute 27, 1
   3              		.eabi_attribute 28, 1
   4              		.eabi_attribute 20, 1
   5              		.eabi_attribute 21, 1
   6              		.eabi_attribute 23, 3
   7              		.eabi_attribute 24, 1
   8              		.eabi_attribute 25, 1
   9              		.eabi_attribute 26, 1
  10              		.eabi_attribute 30, 1
  11              		.eabi_attribute 34, 1
  12              		.eabi_attribute 18, 4
  13              		.file	"gpio.c"
  14              		.text
  15              	.Ltext0:
  16              		.cfi_sections	.debug_frame
  17              		.section	.text.MX_GPIO_Init,"ax",%progbits
  18              		.align	1
  19              		.global	MX_GPIO_Init
  20              		.syntax unified
  21              		.thumb
  22              		.thumb_func
  23              		.fpu fpv4-sp-d16
  25              	MX_GPIO_Init:
  26              	.LFB126:
  27              		.file 1 "Src/gpio.c"
   1:Src/gpio.c    **** /**
   2:Src/gpio.c    ****   ******************************************************************************
   3:Src/gpio.c    ****   * File Name          : gpio.c
   4:Src/gpio.c    ****   * Description        : This file provides code for the configuration
   5:Src/gpio.c    ****   *                      of all used GPIO pins.
   6:Src/gpio.c    ****   ******************************************************************************
   7:Src/gpio.c    ****   ** This notice applies to any and all portions of this file
   8:Src/gpio.c    ****   * that are not between comment pairs USER CODE BEGIN and
   9:Src/gpio.c    ****   * USER CODE END. Other portions of this file, whether 
  10:Src/gpio.c    ****   * inserted by the user or by software development tools
  11:Src/gpio.c    ****   * are owned by their respective copyright owners.
  12:Src/gpio.c    ****   *
  13:Src/gpio.c    ****   * COPYRIGHT(c) 2019 STMicroelectronics
  14:Src/gpio.c    ****   *
  15:Src/gpio.c    ****   * Redistribution and use in source and binary forms, with or without modification,
  16:Src/gpio.c    ****   * are permitted provided that the following conditions are met:
  17:Src/gpio.c    ****   *   1. Redistributions of source code must retain the above copyright notice,
  18:Src/gpio.c    ****   *      this list of conditions and the following disclaimer.
  19:Src/gpio.c    ****   *   2. Redistributions in binary form must reproduce the above copyright notice,
  20:Src/gpio.c    ****   *      this list of conditions and the following disclaimer in the documentation
  21:Src/gpio.c    ****   *      and/or other materials provided with the distribution.
  22:Src/gpio.c    ****   *   3. Neither the name of STMicroelectronics nor the names of its contributors
  23:Src/gpio.c    ****   *      may be used to endorse or promote products derived from this software
  24:Src/gpio.c    ****   *      without specific prior written permission.
  25:Src/gpio.c    ****   *
  26:Src/gpio.c    ****   * THIS SOFTWARE IS PROVIDED BY THE COPYRIGHT HOLDERS AND CONTRIBUTORS "AS IS"
  27:Src/gpio.c    ****   * AND ANY EXPRESS OR IMPLIED WARRANTIES, INCLUDING, BUT NOT LIMITED TO, THE
  28:Src/gpio.c    ****   * IMPLIED WARRANTIES OF MERCHANTABILITY AND FITNESS FOR A PARTICULAR PURPOSE ARE
  29:Src/gpio.c    ****   * DISCLAIMED. IN NO EVENT SHALL THE COPYRIGHT HOLDER OR CONTRIBUTORS BE LIABLE
  30:Src/gpio.c    ****   * FOR ANY DIRECT, INDIRECT, INCIDENTAL, SPECIAL, EXEMPLARY, OR CONSEQUENTIAL
  31:Src/gpio.c    ****   * DAMAGES (INCLUDING, BUT NOT LIMITED TO, PROCUREMENT OF SUBSTITUTE GOODS OR
ARM GAS  /var/folders/v3/wysfpd052nz8jkbx04pk0ym80000gn/T//cc3ZRlZ8.s 			page 2


  32:Src/gpio.c    ****   * SERVICES; LOSS OF USE, DATA, OR PROFITS; OR BUSINESS INTERRUPTION) HOWEVER
  33:Src/gpio.c    ****   * CAUSED AND ON ANY THEORY OF LIABILITY, WHETHER IN CONTRACT, STRICT LIABILITY,
  34:Src/gpio.c    ****   * OR TORT (INCLUDING NEGLIGENCE OR OTHERWISE) ARISING IN ANY WAY OUT OF THE USE
  35:Src/gpio.c    ****   * OF THIS SOFTWARE, EVEN IF ADVISED OF THE POSSIBILITY OF SUCH DAMAGE.
  36:Src/gpio.c    ****   *
  37:Src/gpio.c    ****   ******************************************************************************
  38:Src/gpio.c    ****   */
  39:Src/gpio.c    **** 
  40:Src/gpio.c    **** /* Includes ------------------------------------------------------------------*/
  41:Src/gpio.c    **** #include "gpio.h"
  42:Src/gpio.c    **** /* USER CODE BEGIN 0 */
  43:Src/gpio.c    **** 
  44:Src/gpio.c    **** /* USER CODE END 0 */
  45:Src/gpio.c    **** 
  46:Src/gpio.c    **** /*----------------------------------------------------------------------------*/
  47:Src/gpio.c    **** /* Configure GPIO                                                             */
  48:Src/gpio.c    **** /*----------------------------------------------------------------------------*/
  49:Src/gpio.c    **** /* USER CODE BEGIN 1 */
  50:Src/gpio.c    **** 
  51:Src/gpio.c    **** /* USER CODE END 1 */
  52:Src/gpio.c    **** 
  53:Src/gpio.c    **** /** Configure pins as 
  54:Src/gpio.c    ****         * Analog 
  55:Src/gpio.c    ****         * Input 
  56:Src/gpio.c    ****         * Output
  57:Src/gpio.c    ****         * EVENT_OUT
  58:Src/gpio.c    ****         * EXTI
  59:Src/gpio.c    **** */
  60:Src/gpio.c    **** void MX_GPIO_Init(void)
  61:Src/gpio.c    **** {
  28              		.loc 1 61 0
  29              		.cfi_startproc
  30              		@ args = 0, pretend = 0, frame = 32
  31              		@ frame_needed = 0, uses_anonymous_args = 0
  32 0000 F0B5     		push	{r4, r5, r6, r7, lr}
  33              	.LCFI0:
  34              		.cfi_def_cfa_offset 20
  35              		.cfi_offset 4, -20
  36              		.cfi_offset 5, -16
  37              		.cfi_offset 6, -12
  38              		.cfi_offset 7, -8
  39              		.cfi_offset 14, -4
  40 0002 89B0     		sub	sp, sp, #36
  41              	.LCFI1:
  42              		.cfi_def_cfa_offset 56
  43              	.LBB2:
  62:Src/gpio.c    **** 
  63:Src/gpio.c    ****   GPIO_InitTypeDef GPIO_InitStruct;
  64:Src/gpio.c    **** 
  65:Src/gpio.c    ****   /* GPIO Ports Clock Enable */
  66:Src/gpio.c    ****   __HAL_RCC_GPIOF_CLK_ENABLE();
  44              		.loc 1 66 0
  45 0004 2B4B     		ldr	r3, .L3
  46 0006 5A69     		ldr	r2, [r3, #20]
  47 0008 42F48002 		orr	r2, r2, #4194304
  48 000c 5A61     		str	r2, [r3, #20]
  49 000e 5A69     		ldr	r2, [r3, #20]
ARM GAS  /var/folders/v3/wysfpd052nz8jkbx04pk0ym80000gn/T//cc3ZRlZ8.s 			page 3


  50 0010 02F48002 		and	r2, r2, #4194304
  51 0014 0092     		str	r2, [sp]
  52 0016 009A     		ldr	r2, [sp]
  53              	.LBE2:
  54              	.LBB3:
  67:Src/gpio.c    ****   __HAL_RCC_GPIOA_CLK_ENABLE();
  55              		.loc 1 67 0
  56 0018 5A69     		ldr	r2, [r3, #20]
  57 001a 42F40032 		orr	r2, r2, #131072
  58 001e 5A61     		str	r2, [r3, #20]
  59 0020 5A69     		ldr	r2, [r3, #20]
  60 0022 02F40032 		and	r2, r2, #131072
  61 0026 0192     		str	r2, [sp, #4]
  62 0028 019A     		ldr	r2, [sp, #4]
  63              	.LBE3:
  64              	.LBB4:
  68:Src/gpio.c    ****   __HAL_RCC_GPIOB_CLK_ENABLE();
  65              		.loc 1 68 0
  66 002a 5A69     		ldr	r2, [r3, #20]
  67 002c 42F48022 		orr	r2, r2, #262144
  68 0030 5A61     		str	r2, [r3, #20]
  69 0032 5B69     		ldr	r3, [r3, #20]
  70 0034 03F48023 		and	r3, r3, #262144
  71 0038 0293     		str	r3, [sp, #8]
  72 003a 029B     		ldr	r3, [sp, #8]
  73              	.LBE4:
  69:Src/gpio.c    **** 
  70:Src/gpio.c    ****   /*Configure GPIO pin Output Level */
  71:Src/gpio.c    ****   HAL_GPIO_WritePin(GPIOB, OLED__CS_Pin|OLED__D_C_Pin|OLED__RES_Pin, GPIO_PIN_RESET);
  74              		.loc 1 71 0
  75 003c 1E4D     		ldr	r5, .L3+4
  76 003e 0022     		movs	r2, #0
  77 0040 0B21     		movs	r1, #11
  78 0042 2846     		mov	r0, r5
  79 0044 FFF7FEFF 		bl	HAL_GPIO_WritePin
  80              	.LVL0:
  72:Src/gpio.c    **** 
  73:Src/gpio.c    ****   /*Configure GPIO pin : PtPin */
  74:Src/gpio.c    ****   GPIO_InitStruct.Pin = EXTI__SW_Enter_Pin;
  81              		.loc 1 74 0
  82 0048 0223     		movs	r3, #2
  83 004a 0393     		str	r3, [sp, #12]
  75:Src/gpio.c    ****   GPIO_InitStruct.Mode = GPIO_MODE_IT_FALLING;
  84              		.loc 1 75 0
  85 004c 1B4F     		ldr	r7, .L3+8
  86 004e 0497     		str	r7, [sp, #16]
  76:Src/gpio.c    ****   GPIO_InitStruct.Pull = GPIO_PULLUP;
  87              		.loc 1 76 0
  88 0050 0126     		movs	r6, #1
  89 0052 0596     		str	r6, [sp, #20]
  77:Src/gpio.c    ****   HAL_GPIO_Init(EXTI__SW_Enter_GPIO_Port, &GPIO_InitStruct);
  90              		.loc 1 77 0
  91 0054 03A9     		add	r1, sp, #12
  92 0056 1A48     		ldr	r0, .L3+12
  93 0058 FFF7FEFF 		bl	HAL_GPIO_Init
  94              	.LVL1:
  78:Src/gpio.c    **** 
ARM GAS  /var/folders/v3/wysfpd052nz8jkbx04pk0ym80000gn/T//cc3ZRlZ8.s 			page 4


  79:Src/gpio.c    ****   /*Configure GPIO pins : PBPin PBPin PBPin */
  80:Src/gpio.c    ****   GPIO_InitStruct.Pin = OLED__CS_Pin|OLED__D_C_Pin|OLED__RES_Pin;
  95              		.loc 1 80 0
  96 005c 0B23     		movs	r3, #11
  97 005e 0393     		str	r3, [sp, #12]
  81:Src/gpio.c    ****   GPIO_InitStruct.Mode = GPIO_MODE_OUTPUT_PP;
  98              		.loc 1 81 0
  99 0060 0496     		str	r6, [sp, #16]
  82:Src/gpio.c    ****   GPIO_InitStruct.Pull = GPIO_NOPULL;
 100              		.loc 1 82 0
 101 0062 0024     		movs	r4, #0
 102 0064 0594     		str	r4, [sp, #20]
  83:Src/gpio.c    ****   GPIO_InitStruct.Speed = GPIO_SPEED_FREQ_LOW;
 103              		.loc 1 83 0
 104 0066 0694     		str	r4, [sp, #24]
  84:Src/gpio.c    ****   HAL_GPIO_Init(GPIOB, &GPIO_InitStruct);
 105              		.loc 1 84 0
 106 0068 03A9     		add	r1, sp, #12
 107 006a 2846     		mov	r0, r5
 108 006c FFF7FEFF 		bl	HAL_GPIO_Init
 109              	.LVL2:
  85:Src/gpio.c    **** 
  86:Src/gpio.c    ****   /*Configure GPIO pins : PBPin PBPin PBPin */
  87:Src/gpio.c    ****   GPIO_InitStruct.Pin = EXTI__Tacho_Pin|EXTI__SW_Up_Pin|EXTI__SW_Dn_Pin;
 110              		.loc 1 87 0
 111 0070 B023     		movs	r3, #176
 112 0072 0393     		str	r3, [sp, #12]
  88:Src/gpio.c    ****   GPIO_InitStruct.Mode = GPIO_MODE_IT_FALLING;
 113              		.loc 1 88 0
 114 0074 0497     		str	r7, [sp, #16]
  89:Src/gpio.c    ****   GPIO_InitStruct.Pull = GPIO_PULLUP;
 115              		.loc 1 89 0
 116 0076 0596     		str	r6, [sp, #20]
  90:Src/gpio.c    ****   HAL_GPIO_Init(GPIOB, &GPIO_InitStruct);
 117              		.loc 1 90 0
 118 0078 03A9     		add	r1, sp, #12
 119 007a 2846     		mov	r0, r5
 120 007c FFF7FEFF 		bl	HAL_GPIO_Init
 121              	.LVL3:
  91:Src/gpio.c    **** 
  92:Src/gpio.c    ****   /* EXTI interrupt init*/
  93:Src/gpio.c    ****   HAL_NVIC_SetPriority(EXTI1_IRQn, 0, 0);
 122              		.loc 1 93 0
 123 0080 2246     		mov	r2, r4
 124 0082 2146     		mov	r1, r4
 125 0084 0720     		movs	r0, #7
 126 0086 FFF7FEFF 		bl	HAL_NVIC_SetPriority
 127              	.LVL4:
  94:Src/gpio.c    ****   HAL_NVIC_EnableIRQ(EXTI1_IRQn);
 128              		.loc 1 94 0
 129 008a 0720     		movs	r0, #7
 130 008c FFF7FEFF 		bl	HAL_NVIC_EnableIRQ
 131              	.LVL5:
  95:Src/gpio.c    **** 
  96:Src/gpio.c    ****   HAL_NVIC_SetPriority(EXTI4_IRQn, 0, 0);
 132              		.loc 1 96 0
 133 0090 2246     		mov	r2, r4
ARM GAS  /var/folders/v3/wysfpd052nz8jkbx04pk0ym80000gn/T//cc3ZRlZ8.s 			page 5


 134 0092 2146     		mov	r1, r4
 135 0094 0A20     		movs	r0, #10
 136 0096 FFF7FEFF 		bl	HAL_NVIC_SetPriority
 137              	.LVL6:
  97:Src/gpio.c    ****   HAL_NVIC_EnableIRQ(EXTI4_IRQn);
 138              		.loc 1 97 0
 139 009a 0A20     		movs	r0, #10
 140 009c FFF7FEFF 		bl	HAL_NVIC_EnableIRQ
 141              	.LVL7:
  98:Src/gpio.c    **** 
  99:Src/gpio.c    ****   HAL_NVIC_SetPriority(EXTI9_5_IRQn, 0, 0);
 142              		.loc 1 99 0
 143 00a0 2246     		mov	r2, r4
 144 00a2 2146     		mov	r1, r4
 145 00a4 1720     		movs	r0, #23
 146 00a6 FFF7FEFF 		bl	HAL_NVIC_SetPriority
 147              	.LVL8:
 100:Src/gpio.c    ****   HAL_NVIC_EnableIRQ(EXTI9_5_IRQn);
 148              		.loc 1 100 0
 149 00aa 1720     		movs	r0, #23
 150 00ac FFF7FEFF 		bl	HAL_NVIC_EnableIRQ
 151              	.LVL9:
 101:Src/gpio.c    **** 
 102:Src/gpio.c    **** }
 152              		.loc 1 102 0
 153 00b0 09B0     		add	sp, sp, #36
 154              	.LCFI2:
 155              		.cfi_def_cfa_offset 20
 156              		@ sp needed
 157 00b2 F0BD     		pop	{r4, r5, r6, r7, pc}
 158              	.L4:
 159              		.align	2
 160              	.L3:
 161 00b4 00100240 		.word	1073876992
 162 00b8 00040048 		.word	1207960576
 163 00bc 00002110 		.word	270598144
 164 00c0 00140048 		.word	1207964672
 165              		.cfi_endproc
 166              	.LFE126:
 168              		.text
 169              	.Letext0:
 170              		.file 2 "/usr/local/gcc-arm-none-eabi-7-2018-q2-update/arm-none-eabi/include/machine/_default_type
 171              		.file 3 "/usr/local/gcc-arm-none-eabi-7-2018-q2-update/arm-none-eabi/include/sys/_stdint.h"
 172              		.file 4 "Drivers/CMSIS/Include/core_cm4.h"
 173              		.file 5 "Drivers/CMSIS/Device/ST/STM32F3xx/Include/system_stm32f3xx.h"
 174              		.file 6 "Drivers/CMSIS/Device/ST/STM32F3xx/Include/stm32f303x8.h"
 175              		.file 7 "/usr/local/gcc-arm-none-eabi-7-2018-q2-update/arm-none-eabi/include/sys/lock.h"
 176              		.file 8 "/usr/local/gcc-arm-none-eabi-7-2018-q2-update/arm-none-eabi/include/sys/_types.h"
 177              		.file 9 "/usr/local/gcc-arm-none-eabi-7-2018-q2-update/lib/gcc/arm-none-eabi/7.3.1/include/stddef.
 178              		.file 10 "/usr/local/gcc-arm-none-eabi-7-2018-q2-update/arm-none-eabi/include/sys/reent.h"
 179              		.file 11 "Drivers/STM32F3xx_HAL_Driver/Inc/stm32f3xx_hal_gpio.h"
 180              		.file 12 "Drivers/STM32F3xx_HAL_Driver/Inc/stm32f3xx_hal_cortex.h"
ARM GAS  /var/folders/v3/wysfpd052nz8jkbx04pk0ym80000gn/T//cc3ZRlZ8.s 			page 6


DEFINED SYMBOLS
                            *ABS*:0000000000000000 gpio.c
/var/folders/v3/wysfpd052nz8jkbx04pk0ym80000gn/T//cc3ZRlZ8.s:18     .text.MX_GPIO_Init:0000000000000000 $t
/var/folders/v3/wysfpd052nz8jkbx04pk0ym80000gn/T//cc3ZRlZ8.s:25     .text.MX_GPIO_Init:0000000000000000 MX_GPIO_Init
/var/folders/v3/wysfpd052nz8jkbx04pk0ym80000gn/T//cc3ZRlZ8.s:161    .text.MX_GPIO_Init:00000000000000b4 $d

UNDEFINED SYMBOLS
HAL_GPIO_WritePin
HAL_GPIO_Init
HAL_NVIC_SetPriority
HAL_NVIC_EnableIRQ
