ARM GAS  /var/folders/v3/wysfpd052nz8jkbx04pk0ym80000gn/T//ccJK6Apf.s 			page 1


   1              		.cpu cortex-m4
   2              		.eabi_attribute 27, 1
   3              		.eabi_attribute 28, 1
   4              		.eabi_attribute 20, 1
   5              		.eabi_attribute 21, 1
   6              		.eabi_attribute 23, 3
   7              		.eabi_attribute 24, 1
   8              		.eabi_attribute 25, 1
   9              		.eabi_attribute 26, 1
  10              		.eabi_attribute 30, 2
  11              		.eabi_attribute 34, 1
  12              		.eabi_attribute 18, 4
  13              		.file	"gpio.c"
  14              		.text
  15              	.Ltext0:
  16              		.cfi_sections	.debug_frame
  17              		.section	.text.MX_GPIO_Init,"ax",%progbits
  18              		.align	1
  19              		.p2align 2,,3
  20              		.global	MX_GPIO_Init
  21              		.syntax unified
  22              		.thumb
  23              		.thumb_func
  24              		.fpu fpv4-sp-d16
  26              	MX_GPIO_Init:
  27              	.LFB123:
  28              		.file 1 "Src/gpio.c"
   1:Src/gpio.c    **** /**
   2:Src/gpio.c    ****   ******************************************************************************
   3:Src/gpio.c    ****   * File Name          : gpio.c
   4:Src/gpio.c    ****   * Description        : This file provides code for the configuration
   5:Src/gpio.c    ****   *                      of all used GPIO pins.
   6:Src/gpio.c    ****   ******************************************************************************
   7:Src/gpio.c    ****   * @attention
   8:Src/gpio.c    ****   *
   9:Src/gpio.c    ****   * <h2><center>&copy; Copyright (c) 2020 STMicroelectronics.
  10:Src/gpio.c    ****   * All rights reserved.</center></h2>
  11:Src/gpio.c    ****   *
  12:Src/gpio.c    ****   * This software component is licensed by ST under BSD 3-Clause license,
  13:Src/gpio.c    ****   * the "License"; You may not use this file except in compliance with the
  14:Src/gpio.c    ****   * License. You may obtain a copy of the License at:
  15:Src/gpio.c    ****   *                        opensource.org/licenses/BSD-3-Clause
  16:Src/gpio.c    ****   *
  17:Src/gpio.c    ****   ******************************************************************************
  18:Src/gpio.c    ****   */
  19:Src/gpio.c    **** 
  20:Src/gpio.c    **** /* Includes ------------------------------------------------------------------*/
  21:Src/gpio.c    **** #include "gpio.h"
  22:Src/gpio.c    **** /* USER CODE BEGIN 0 */
  23:Src/gpio.c    **** 
  24:Src/gpio.c    **** /* USER CODE END 0 */
  25:Src/gpio.c    **** 
  26:Src/gpio.c    **** /*----------------------------------------------------------------------------*/
  27:Src/gpio.c    **** /* Configure GPIO                                                             */
  28:Src/gpio.c    **** /*----------------------------------------------------------------------------*/
  29:Src/gpio.c    **** /* USER CODE BEGIN 1 */
  30:Src/gpio.c    **** 
ARM GAS  /var/folders/v3/wysfpd052nz8jkbx04pk0ym80000gn/T//ccJK6Apf.s 			page 2


  31:Src/gpio.c    **** /* USER CODE END 1 */
  32:Src/gpio.c    **** 
  33:Src/gpio.c    **** /** Configure pins as 
  34:Src/gpio.c    ****         * Analog 
  35:Src/gpio.c    ****         * Input 
  36:Src/gpio.c    ****         * Output
  37:Src/gpio.c    ****         * EVENT_OUT
  38:Src/gpio.c    ****         * EXTI
  39:Src/gpio.c    **** */
  40:Src/gpio.c    **** void MX_GPIO_Init(void)
  41:Src/gpio.c    **** {
  29              		.loc 1 41 0
  30              		.cfi_startproc
  31              		@ args = 0, pretend = 0, frame = 32
  32              		@ frame_needed = 0, uses_anonymous_args = 0
  33 0000 2DE9F041 		push	{r4, r5, r6, r7, r8, lr}
  34              	.LCFI0:
  35              		.cfi_def_cfa_offset 24
  36              		.cfi_offset 4, -24
  37              		.cfi_offset 5, -20
  38              		.cfi_offset 6, -16
  39              		.cfi_offset 7, -12
  40              		.cfi_offset 8, -8
  41              		.cfi_offset 14, -4
  42:Src/gpio.c    **** 
  43:Src/gpio.c    ****   GPIO_InitTypeDef GPIO_InitStruct = {0};
  42              		.loc 1 43 0
  43 0004 0024     		movs	r4, #0
  41:Src/gpio.c    **** 
  44              		.loc 1 41 0
  45 0006 88B0     		sub	sp, sp, #32
  46              	.LCFI1:
  47              		.cfi_def_cfa_offset 56
  48              		.loc 1 43 0
  49 0008 CDE90344 		strd	r4, r4, [sp, #12]
  50 000c CDE90544 		strd	r4, r4, [sp, #20]
  51              	.LBB2:
  44:Src/gpio.c    **** 
  45:Src/gpio.c    ****   /* GPIO Ports Clock Enable */
  46:Src/gpio.c    ****   __HAL_RCC_GPIOF_CLK_ENABLE();
  52              		.loc 1 46 0
  53 0010 364B     		ldr	r3, .L4
  54              	.LBE2:
  43:Src/gpio.c    **** 
  55              		.loc 1 43 0
  56 0012 0794     		str	r4, [sp, #28]
  57              	.LBB3:
  58              		.loc 1 46 0
  59 0014 5A69     		ldr	r2, [r3, #20]
  60              	.LBE3:
  47:Src/gpio.c    ****   __HAL_RCC_GPIOA_CLK_ENABLE();
  48:Src/gpio.c    ****   __HAL_RCC_GPIOB_CLK_ENABLE();
  49:Src/gpio.c    **** 
  50:Src/gpio.c    ****   /*Configure GPIO pin Output Level */
  51:Src/gpio.c    ****   HAL_GPIO_WritePin(GPIOB, OLED__CS_Pin|OLED__D_C_Pin|OLED__RES_Pin, GPIO_PIN_RESET);
  61              		.loc 1 51 0
  62 0016 364E     		ldr	r6, .L4+4
ARM GAS  /var/folders/v3/wysfpd052nz8jkbx04pk0ym80000gn/T//ccJK6Apf.s 			page 3


  52:Src/gpio.c    **** 
  53:Src/gpio.c    ****   /*Configure GPIO pin : PtPin */
  54:Src/gpio.c    ****   GPIO_InitStruct.Pin = EXTI__SW_Enter_Pin;
  55:Src/gpio.c    ****   GPIO_InitStruct.Mode = GPIO_MODE_IT_FALLING;
  63              		.loc 1 55 0
  64 0018 364F     		ldr	r7, .L4+8
  65              	.LBB4:
  46:Src/gpio.c    ****   __HAL_RCC_GPIOA_CLK_ENABLE();
  66              		.loc 1 46 0
  67 001a 42F48002 		orr	r2, r2, #4194304
  68 001e 5A61     		str	r2, [r3, #20]
  69 0020 5A69     		ldr	r2, [r3, #20]
  70 0022 02F48002 		and	r2, r2, #4194304
  71 0026 0092     		str	r2, [sp]
  72 0028 009A     		ldr	r2, [sp]
  73              	.LBE4:
  74              	.LBB5:
  47:Src/gpio.c    ****   __HAL_RCC_GPIOA_CLK_ENABLE();
  75              		.loc 1 47 0
  76 002a 5A69     		ldr	r2, [r3, #20]
  77 002c 42F40032 		orr	r2, r2, #131072
  78 0030 5A61     		str	r2, [r3, #20]
  79 0032 5A69     		ldr	r2, [r3, #20]
  80 0034 02F40032 		and	r2, r2, #131072
  81 0038 0192     		str	r2, [sp, #4]
  82 003a 019A     		ldr	r2, [sp, #4]
  83              	.LBE5:
  84              	.LBB6:
  48:Src/gpio.c    **** 
  85              		.loc 1 48 0
  86 003c 5A69     		ldr	r2, [r3, #20]
  87 003e 42F48022 		orr	r2, r2, #262144
  88 0042 5A61     		str	r2, [r3, #20]
  89 0044 5B69     		ldr	r3, [r3, #20]
  90 0046 03F48023 		and	r3, r3, #262144
  91              	.LBE6:
  51:Src/gpio.c    **** 
  92              		.loc 1 51 0
  93 004a 2246     		mov	r2, r4
  94              	.LBB7:
  48:Src/gpio.c    **** 
  95              		.loc 1 48 0
  96 004c 0293     		str	r3, [sp, #8]
  97              	.LBE7:
  51:Src/gpio.c    **** 
  98              		.loc 1 51 0
  99 004e 3046     		mov	r0, r6
 100 0050 0B21     		movs	r1, #11
  56:Src/gpio.c    ****   GPIO_InitStruct.Pull = GPIO_PULLUP;
 101              		.loc 1 56 0
 102 0052 0125     		movs	r5, #1
 103              	.LBB8:
  48:Src/gpio.c    **** 
 104              		.loc 1 48 0
 105 0054 029B     		ldr	r3, [sp, #8]
 106              	.LBE8:
  54:Src/gpio.c    ****   GPIO_InitStruct.Mode = GPIO_MODE_IT_FALLING;
ARM GAS  /var/folders/v3/wysfpd052nz8jkbx04pk0ym80000gn/T//ccJK6Apf.s 			page 4


 107              		.loc 1 54 0
 108 0056 4FF00208 		mov	r8, #2
  51:Src/gpio.c    **** 
 109              		.loc 1 51 0
 110 005a FFF7FEFF 		bl	HAL_GPIO_WritePin
 111              	.LVL0:
  57:Src/gpio.c    ****   HAL_GPIO_Init(EXTI__SW_Enter_GPIO_Port, &GPIO_InitStruct);
 112              		.loc 1 57 0
 113 005e 03A9     		add	r1, sp, #12
 114 0060 2548     		ldr	r0, .L4+12
  56:Src/gpio.c    ****   GPIO_InitStruct.Pull = GPIO_PULLUP;
 115              		.loc 1 56 0
 116 0062 0595     		str	r5, [sp, #20]
  55:Src/gpio.c    ****   GPIO_InitStruct.Pull = GPIO_PULLUP;
 117              		.loc 1 55 0
 118 0064 CDE90387 		strd	r8, r7, [sp, #12]
 119              		.loc 1 57 0
 120 0068 FFF7FEFF 		bl	HAL_GPIO_Init
 121              	.LVL1:
  58:Src/gpio.c    **** 
  59:Src/gpio.c    ****   /*Configure GPIO pin : PtPin */
  60:Src/gpio.c    ****   GPIO_InitStruct.Pin = IN__Spped_Pin;
  61:Src/gpio.c    ****   GPIO_InitStruct.Mode = GPIO_MODE_INPUT;
  62:Src/gpio.c    ****   GPIO_InitStruct.Pull = GPIO_PULLUP;
  63:Src/gpio.c    ****   HAL_GPIO_Init(IN__Spped_GPIO_Port, &GPIO_InitStruct);
 122              		.loc 1 63 0
 123 006c 03A9     		add	r1, sp, #12
  60:Src/gpio.c    ****   GPIO_InitStruct.Mode = GPIO_MODE_INPUT;
 124              		.loc 1 60 0
 125 006e 1023     		movs	r3, #16
 126              		.loc 1 63 0
 127 0070 4FF09040 		mov	r0, #1207959552
  60:Src/gpio.c    ****   GPIO_InitStruct.Mode = GPIO_MODE_INPUT;
 128              		.loc 1 60 0
 129 0074 0393     		str	r3, [sp, #12]
  62:Src/gpio.c    ****   HAL_GPIO_Init(IN__Spped_GPIO_Port, &GPIO_InitStruct);
 130              		.loc 1 62 0
 131 0076 CDE90445 		strd	r4, r5, [sp, #16]
 132              		.loc 1 63 0
 133 007a FFF7FEFF 		bl	HAL_GPIO_Init
 134              	.LVL2:
  64:Src/gpio.c    **** 
  65:Src/gpio.c    ****   /*Configure GPIO pin : PtPin */
  66:Src/gpio.c    ****   GPIO_InitStruct.Pin = EXTI__SW_Down_Pin;
  67:Src/gpio.c    ****   GPIO_InitStruct.Mode = GPIO_MODE_IT_RISING;
 135              		.loc 1 67 0
 136 007e 1F4B     		ldr	r3, .L4+16
  68:Src/gpio.c    ****   GPIO_InitStruct.Pull = GPIO_PULLUP;
 137              		.loc 1 68 0
 138 0080 0595     		str	r5, [sp, #20]
  66:Src/gpio.c    ****   GPIO_InitStruct.Mode = GPIO_MODE_IT_RISING;
 139              		.loc 1 66 0
 140 0082 4022     		movs	r2, #64
  69:Src/gpio.c    ****   HAL_GPIO_Init(EXTI__SW_Down_GPIO_Port, &GPIO_InitStruct);
 141              		.loc 1 69 0
 142 0084 03A9     		add	r1, sp, #12
 143 0086 4FF09040 		mov	r0, #1207959552
ARM GAS  /var/folders/v3/wysfpd052nz8jkbx04pk0ym80000gn/T//ccJK6Apf.s 			page 5


  67:Src/gpio.c    ****   GPIO_InitStruct.Pull = GPIO_PULLUP;
 144              		.loc 1 67 0
 145 008a CDE90323 		strd	r2, r3, [sp, #12]
 146              		.loc 1 69 0
 147 008e FFF7FEFF 		bl	HAL_GPIO_Init
 148              	.LVL3:
  70:Src/gpio.c    **** 
  71:Src/gpio.c    ****   /*Configure GPIO pins : PBPin PBPin PBPin */
  72:Src/gpio.c    ****   GPIO_InitStruct.Pin = OLED__CS_Pin|OLED__D_C_Pin|OLED__RES_Pin;
  73:Src/gpio.c    ****   GPIO_InitStruct.Mode = GPIO_MODE_OUTPUT_PP;
  74:Src/gpio.c    ****   GPIO_InitStruct.Pull = GPIO_NOPULL;
  75:Src/gpio.c    ****   GPIO_InitStruct.Speed = GPIO_SPEED_FREQ_LOW;
  76:Src/gpio.c    ****   HAL_GPIO_Init(GPIOB, &GPIO_InitStruct);
 149              		.loc 1 76 0
 150 0092 03A9     		add	r1, sp, #12
 151 0094 3046     		mov	r0, r6
  72:Src/gpio.c    ****   GPIO_InitStruct.Mode = GPIO_MODE_OUTPUT_PP;
 152              		.loc 1 72 0
 153 0096 0B23     		movs	r3, #11
 154 0098 0393     		str	r3, [sp, #12]
  74:Src/gpio.c    ****   GPIO_InitStruct.Speed = GPIO_SPEED_FREQ_LOW;
 155              		.loc 1 74 0
 156 009a CDE90454 		strd	r5, r4, [sp, #16]
  75:Src/gpio.c    ****   HAL_GPIO_Init(GPIOB, &GPIO_InitStruct);
 157              		.loc 1 75 0
 158 009e 0694     		str	r4, [sp, #24]
 159              		.loc 1 76 0
 160 00a0 FFF7FEFF 		bl	HAL_GPIO_Init
 161              	.LVL4:
  77:Src/gpio.c    **** 
  78:Src/gpio.c    ****   /*Configure GPIO pins : PBPin PBPin */
  79:Src/gpio.c    ****   GPIO_InitStruct.Pin = EXTI__Tacho_Pin|EXTI__SW_Up_Pin;
 162              		.loc 1 79 0
 163 00a4 3023     		movs	r3, #48
  80:Src/gpio.c    ****   GPIO_InitStruct.Mode = GPIO_MODE_IT_FALLING;
  81:Src/gpio.c    ****   GPIO_InitStruct.Pull = GPIO_PULLUP;
  82:Src/gpio.c    ****   HAL_GPIO_Init(GPIOB, &GPIO_InitStruct);
 164              		.loc 1 82 0
 165 00a6 03A9     		add	r1, sp, #12
 166 00a8 3046     		mov	r0, r6
  79:Src/gpio.c    ****   GPIO_InitStruct.Mode = GPIO_MODE_IT_FALLING;
 167              		.loc 1 79 0
 168 00aa 0393     		str	r3, [sp, #12]
  81:Src/gpio.c    ****   HAL_GPIO_Init(GPIOB, &GPIO_InitStruct);
 169              		.loc 1 81 0
 170 00ac CDE90475 		strd	r7, r5, [sp, #16]
 171              		.loc 1 82 0
 172 00b0 FFF7FEFF 		bl	HAL_GPIO_Init
 173              	.LVL5:
  83:Src/gpio.c    **** 
  84:Src/gpio.c    ****   /* EXTI interrupt init*/
  85:Src/gpio.c    ****   HAL_NVIC_SetPriority(EXTI1_IRQn, 10, 0);
 174              		.loc 1 85 0
 175 00b4 2246     		mov	r2, r4
 176 00b6 0A21     		movs	r1, #10
 177 00b8 0720     		movs	r0, #7
 178 00ba FFF7FEFF 		bl	HAL_NVIC_SetPriority
ARM GAS  /var/folders/v3/wysfpd052nz8jkbx04pk0ym80000gn/T//ccJK6Apf.s 			page 6


 179              	.LVL6:
  86:Src/gpio.c    ****   HAL_NVIC_EnableIRQ(EXTI1_IRQn);
 180              		.loc 1 86 0
 181 00be 0720     		movs	r0, #7
 182 00c0 FFF7FEFF 		bl	HAL_NVIC_EnableIRQ
 183              	.LVL7:
  87:Src/gpio.c    **** 
  88:Src/gpio.c    ****   HAL_NVIC_SetPriority(EXTI4_IRQn, 2, 0);
 184              		.loc 1 88 0
 185 00c4 2246     		mov	r2, r4
 186 00c6 4146     		mov	r1, r8
 187 00c8 0A20     		movs	r0, #10
 188 00ca FFF7FEFF 		bl	HAL_NVIC_SetPriority
 189              	.LVL8:
  89:Src/gpio.c    ****   HAL_NVIC_EnableIRQ(EXTI4_IRQn);
 190              		.loc 1 89 0
 191 00ce 0A20     		movs	r0, #10
 192 00d0 FFF7FEFF 		bl	HAL_NVIC_EnableIRQ
 193              	.LVL9:
  90:Src/gpio.c    **** 
  91:Src/gpio.c    ****   HAL_NVIC_SetPriority(EXTI9_5_IRQn, 10, 0);
 194              		.loc 1 91 0
 195 00d4 2246     		mov	r2, r4
 196 00d6 0A21     		movs	r1, #10
 197 00d8 1720     		movs	r0, #23
 198 00da FFF7FEFF 		bl	HAL_NVIC_SetPriority
 199              	.LVL10:
  92:Src/gpio.c    ****   HAL_NVIC_EnableIRQ(EXTI9_5_IRQn);
 200              		.loc 1 92 0
 201 00de 1720     		movs	r0, #23
 202 00e0 FFF7FEFF 		bl	HAL_NVIC_EnableIRQ
 203              	.LVL11:
  93:Src/gpio.c    **** 
  94:Src/gpio.c    **** }
 204              		.loc 1 94 0
 205 00e4 08B0     		add	sp, sp, #32
 206              	.LCFI2:
 207              		.cfi_def_cfa_offset 24
 208              		@ sp needed
 209 00e6 BDE8F081 		pop	{r4, r5, r6, r7, r8, pc}
 210              	.L5:
 211 00ea 00BF     		.align	2
 212              	.L4:
 213 00ec 00100240 		.word	1073876992
 214 00f0 00040048 		.word	1207960576
 215 00f4 00002110 		.word	270598144
 216 00f8 00140048 		.word	1207964672
 217 00fc 00001110 		.word	269549568
 218              		.cfi_endproc
 219              	.LFE123:
 221              		.text
 222              	.Letext0:
 223              		.file 2 "/usr/local/gcc-arm-none-eabi-7-2018-q2-update/arm-none-eabi/include/machine/_default_type
 224              		.file 3 "/usr/local/gcc-arm-none-eabi-7-2018-q2-update/arm-none-eabi/include/sys/_stdint.h"
 225              		.file 4 "Drivers/CMSIS/Include/core_cm4.h"
 226              		.file 5 "Drivers/CMSIS/Device/ST/STM32F3xx/Include/system_stm32f3xx.h"
 227              		.file 6 "Drivers/CMSIS/Device/ST/STM32F3xx/Include/stm32f303x8.h"
ARM GAS  /var/folders/v3/wysfpd052nz8jkbx04pk0ym80000gn/T//ccJK6Apf.s 			page 7


 228              		.file 7 "Drivers/STM32F3xx_HAL_Driver/Inc/stm32f3xx_hal_gpio.h"
 229              		.file 8 "Drivers/STM32F3xx_HAL_Driver/Inc/stm32f3xx_hal.h"
 230              		.file 9 "Drivers/STM32F3xx_HAL_Driver/Inc/stm32f3xx_hal_cortex.h"
ARM GAS  /var/folders/v3/wysfpd052nz8jkbx04pk0ym80000gn/T//ccJK6Apf.s 			page 8

