ARM GAS  /var/folders/v3/wysfpd052nz8jkbx04pk0ym80000gn/T//ccpd6stH.s 			page 1


   1              		.cpu cortex-m4
   2              		.eabi_attribute 27, 1
   3              		.eabi_attribute 28, 1
   4              		.eabi_attribute 20, 1
   5              		.eabi_attribute 21, 1
   6              		.eabi_attribute 23, 3
   7              		.eabi_attribute 24, 1
   8              		.eabi_attribute 25, 1
   9              		.eabi_attribute 26, 1
  10              		.eabi_attribute 30, 2
  11              		.eabi_attribute 34, 1
  12              		.eabi_attribute 18, 4
  13              		.file	"spi.c"
  14              		.text
  15              	.Ltext0:
  16              		.cfi_sections	.debug_frame
  17              		.section	.text.MX_SPI1_Init,"ax",%progbits
  18              		.align	1
  19              		.p2align 2,,3
  20              		.global	MX_SPI1_Init
  21              		.syntax unified
  22              		.thumb
  23              		.thumb_func
  24              		.fpu fpv4-sp-d16
  26              	MX_SPI1_Init:
  27              	.LFB123:
  28              		.file 1 "Src/spi.c"
   1:Src/spi.c     **** /**
   2:Src/spi.c     ****   ******************************************************************************
   3:Src/spi.c     ****   * File Name          : SPI.c
   4:Src/spi.c     ****   * Description        : This file provides code for the configuration
   5:Src/spi.c     ****   *                      of the SPI instances.
   6:Src/spi.c     ****   ******************************************************************************
   7:Src/spi.c     ****   * @attention
   8:Src/spi.c     ****   *
   9:Src/spi.c     ****   * <h2><center>&copy; Copyright (c) 2020 STMicroelectronics.
  10:Src/spi.c     ****   * All rights reserved.</center></h2>
  11:Src/spi.c     ****   *
  12:Src/spi.c     ****   * This software component is licensed by ST under BSD 3-Clause license,
  13:Src/spi.c     ****   * the "License"; You may not use this file except in compliance with the
  14:Src/spi.c     ****   * License. You may obtain a copy of the License at:
  15:Src/spi.c     ****   *                        opensource.org/licenses/BSD-3-Clause
  16:Src/spi.c     ****   *
  17:Src/spi.c     ****   ******************************************************************************
  18:Src/spi.c     ****   */
  19:Src/spi.c     **** 
  20:Src/spi.c     **** /* Includes ------------------------------------------------------------------*/
  21:Src/spi.c     **** #include "spi.h"
  22:Src/spi.c     **** 
  23:Src/spi.c     **** /* USER CODE BEGIN 0 */
  24:Src/spi.c     **** 
  25:Src/spi.c     **** /* USER CODE END 0 */
  26:Src/spi.c     **** 
  27:Src/spi.c     **** SPI_HandleTypeDef hspi1;
  28:Src/spi.c     **** 
  29:Src/spi.c     **** /* SPI1 init function */
  30:Src/spi.c     **** void MX_SPI1_Init(void)
ARM GAS  /var/folders/v3/wysfpd052nz8jkbx04pk0ym80000gn/T//ccpd6stH.s 			page 2


  31:Src/spi.c     **** {
  29              		.loc 1 31 0
  30              		.cfi_startproc
  31              		@ args = 0, pretend = 0, frame = 0
  32              		@ frame_needed = 0, uses_anonymous_args = 0
  33 0000 38B5     		push	{r3, r4, r5, lr}
  34              	.LCFI0:
  35              		.cfi_def_cfa_offset 16
  36              		.cfi_offset 3, -16
  37              		.cfi_offset 4, -12
  38              		.cfi_offset 5, -8
  39              		.cfi_offset 14, -4
  32:Src/spi.c     **** 
  33:Src/spi.c     ****   hspi1.Instance = SPI1;
  40              		.loc 1 33 0
  41 0002 114B     		ldr	r3, .L6
  42 0004 114A     		ldr	r2, .L6+4
  43 0006 1A60     		str	r2, [r3]
  34:Src/spi.c     ****   hspi1.Init.Mode = SPI_MODE_MASTER;
  44              		.loc 1 34 0
  45 0008 4FF48271 		mov	r1, #260
  35:Src/spi.c     ****   hspi1.Init.Direction = SPI_DIRECTION_2LINES;
  36:Src/spi.c     ****   hspi1.Init.DataSize = SPI_DATASIZE_8BIT;
  46              		.loc 1 36 0
  47 000c 4FF4E060 		mov	r0, #1792
  37:Src/spi.c     ****   hspi1.Init.CLKPolarity = SPI_POLARITY_LOW;
  38:Src/spi.c     ****   hspi1.Init.CLKPhase = SPI_PHASE_1EDGE;
  39:Src/spi.c     ****   hspi1.Init.NSS = SPI_NSS_SOFT;
  48              		.loc 1 39 0
  49 0010 4FF40072 		mov	r2, #512
  40:Src/spi.c     ****   hspi1.Init.BaudRatePrescaler = SPI_BAUDRATEPRESCALER_8;
  50              		.loc 1 40 0
  51 0014 1025     		movs	r5, #16
  41:Src/spi.c     ****   hspi1.Init.FirstBit = SPI_FIRSTBIT_MSB;
  42:Src/spi.c     ****   hspi1.Init.TIMode = SPI_TIMODE_DISABLE;
  43:Src/spi.c     ****   hspi1.Init.CRCCalculation = SPI_CRCCALCULATION_DISABLE;
  44:Src/spi.c     ****   hspi1.Init.CRCPolynomial = 7;
  52              		.loc 1 44 0
  53 0016 0724     		movs	r4, #7
  34:Src/spi.c     ****   hspi1.Init.Direction = SPI_DIRECTION_2LINES;
  54              		.loc 1 34 0
  55 0018 5960     		str	r1, [r3, #4]
  36:Src/spi.c     ****   hspi1.Init.CLKPolarity = SPI_POLARITY_LOW;
  56              		.loc 1 36 0
  57 001a D860     		str	r0, [r3, #12]
  45:Src/spi.c     ****   hspi1.Init.CRCLength = SPI_CRC_LENGTH_DATASIZE;
  46:Src/spi.c     ****   hspi1.Init.NSSPMode = SPI_NSS_PULSE_ENABLE;
  58              		.loc 1 46 0
  59 001c 0821     		movs	r1, #8
  39:Src/spi.c     ****   hspi1.Init.BaudRatePrescaler = SPI_BAUDRATEPRESCALER_8;
  60              		.loc 1 39 0
  61 001e 9A61     		str	r2, [r3, #24]
  47:Src/spi.c     ****   if (HAL_SPI_Init(&hspi1) != HAL_OK)
  62              		.loc 1 47 0
  63 0020 1846     		mov	r0, r3
  35:Src/spi.c     ****   hspi1.Init.DataSize = SPI_DATASIZE_8BIT;
  64              		.loc 1 35 0
ARM GAS  /var/folders/v3/wysfpd052nz8jkbx04pk0ym80000gn/T//ccpd6stH.s 			page 3


  65 0022 0022     		movs	r2, #0
  40:Src/spi.c     ****   hspi1.Init.FirstBit = SPI_FIRSTBIT_MSB;
  66              		.loc 1 40 0
  67 0024 DD61     		str	r5, [r3, #28]
  44:Src/spi.c     ****   hspi1.Init.CRCLength = SPI_CRC_LENGTH_DATASIZE;
  68              		.loc 1 44 0
  69 0026 DC62     		str	r4, [r3, #44]
  46:Src/spi.c     ****   if (HAL_SPI_Init(&hspi1) != HAL_OK)
  70              		.loc 1 46 0
  71 0028 5963     		str	r1, [r3, #52]
  35:Src/spi.c     ****   hspi1.Init.DataSize = SPI_DATASIZE_8BIT;
  72              		.loc 1 35 0
  73 002a 9A60     		str	r2, [r3, #8]
  38:Src/spi.c     ****   hspi1.Init.NSS = SPI_NSS_SOFT;
  74              		.loc 1 38 0
  75 002c C3E90422 		strd	r2, r2, [r3, #16]
  42:Src/spi.c     ****   hspi1.Init.CRCCalculation = SPI_CRCCALCULATION_DISABLE;
  76              		.loc 1 42 0
  77 0030 C3E90822 		strd	r2, r2, [r3, #32]
  43:Src/spi.c     ****   hspi1.Init.CRCPolynomial = 7;
  78              		.loc 1 43 0
  79 0034 9A62     		str	r2, [r3, #40]
  45:Src/spi.c     ****   hspi1.Init.NSSPMode = SPI_NSS_PULSE_ENABLE;
  80              		.loc 1 45 0
  81 0036 1A63     		str	r2, [r3, #48]
  82              		.loc 1 47 0
  83 0038 FFF7FEFF 		bl	HAL_SPI_Init
  84              	.LVL0:
  85 003c 00B9     		cbnz	r0, .L5
  48:Src/spi.c     ****   {
  49:Src/spi.c     ****     Error_Handler();
  50:Src/spi.c     ****   }
  51:Src/spi.c     **** 
  52:Src/spi.c     **** }
  86              		.loc 1 52 0
  87 003e 38BD     		pop	{r3, r4, r5, pc}
  88              	.L5:
  89 0040 BDE83840 		pop	{r3, r4, r5, lr}
  90              	.LCFI1:
  91              		.cfi_restore 14
  92              		.cfi_restore 5
  93              		.cfi_restore 4
  94              		.cfi_restore 3
  95              		.cfi_def_cfa_offset 0
  49:Src/spi.c     ****   }
  96              		.loc 1 49 0
  97 0044 FFF7FEBF 		b	Error_Handler
  98              	.LVL1:
  99              	.L7:
 100              		.align	2
 101              	.L6:
 102 0048 00000000 		.word	hspi1
 103 004c 00300140 		.word	1073819648
 104              		.cfi_endproc
 105              	.LFE123:
 107              		.section	.text.HAL_SPI_MspInit,"ax",%progbits
 108              		.align	1
ARM GAS  /var/folders/v3/wysfpd052nz8jkbx04pk0ym80000gn/T//ccpd6stH.s 			page 4


 109              		.p2align 2,,3
 110              		.global	HAL_SPI_MspInit
 111              		.syntax unified
 112              		.thumb
 113              		.thumb_func
 114              		.fpu fpv4-sp-d16
 116              	HAL_SPI_MspInit:
 117              	.LFB124:
  53:Src/spi.c     **** 
  54:Src/spi.c     **** void HAL_SPI_MspInit(SPI_HandleTypeDef* spiHandle)
  55:Src/spi.c     **** {
 118              		.loc 1 55 0
 119              		.cfi_startproc
 120              		@ args = 0, pretend = 0, frame = 32
 121              		@ frame_needed = 0, uses_anonymous_args = 0
 122              	.LVL2:
 123 0000 70B5     		push	{r4, r5, r6, lr}
 124              	.LCFI2:
 125              		.cfi_def_cfa_offset 16
 126              		.cfi_offset 4, -16
 127              		.cfi_offset 5, -12
 128              		.cfi_offset 6, -8
 129              		.cfi_offset 14, -4
  56:Src/spi.c     **** 
  57:Src/spi.c     ****   GPIO_InitTypeDef GPIO_InitStruct = {0};
  58:Src/spi.c     ****   if(spiHandle->Instance==SPI1)
 130              		.loc 1 58 0
 131 0002 0168     		ldr	r1, [r0]
 132 0004 184A     		ldr	r2, .L12
  55:Src/spi.c     **** 
 133              		.loc 1 55 0
 134 0006 88B0     		sub	sp, sp, #32
 135              	.LCFI3:
 136              		.cfi_def_cfa_offset 48
  57:Src/spi.c     ****   if(spiHandle->Instance==SPI1)
 137              		.loc 1 57 0
 138 0008 0023     		movs	r3, #0
 139              		.loc 1 58 0
 140 000a 9142     		cmp	r1, r2
  57:Src/spi.c     ****   if(spiHandle->Instance==SPI1)
 141              		.loc 1 57 0
 142 000c CDE90333 		strd	r3, r3, [sp, #12]
 143 0010 CDE90533 		strd	r3, r3, [sp, #20]
 144 0014 0793     		str	r3, [sp, #28]
 145              		.loc 1 58 0
 146 0016 01D0     		beq	.L11
  59:Src/spi.c     ****   {
  60:Src/spi.c     ****   /* USER CODE BEGIN SPI1_MspInit 0 */
  61:Src/spi.c     **** 
  62:Src/spi.c     ****   /* USER CODE END SPI1_MspInit 0 */
  63:Src/spi.c     ****     /* SPI1 clock enable */
  64:Src/spi.c     ****     __HAL_RCC_SPI1_CLK_ENABLE();
  65:Src/spi.c     ****   
  66:Src/spi.c     ****     __HAL_RCC_GPIOA_CLK_ENABLE();
  67:Src/spi.c     ****     /**SPI1 GPIO Configuration    
  68:Src/spi.c     ****     PA5     ------> SPI1_SCK
  69:Src/spi.c     ****     PA7     ------> SPI1_MOSI 
ARM GAS  /var/folders/v3/wysfpd052nz8jkbx04pk0ym80000gn/T//ccpd6stH.s 			page 5


  70:Src/spi.c     ****     */
  71:Src/spi.c     ****     GPIO_InitStruct.Pin = GPIO_PIN_5|GPIO_PIN_7;
  72:Src/spi.c     ****     GPIO_InitStruct.Mode = GPIO_MODE_AF_PP;
  73:Src/spi.c     ****     GPIO_InitStruct.Pull = GPIO_NOPULL;
  74:Src/spi.c     ****     GPIO_InitStruct.Speed = GPIO_SPEED_FREQ_HIGH;
  75:Src/spi.c     ****     GPIO_InitStruct.Alternate = GPIO_AF5_SPI1;
  76:Src/spi.c     ****     HAL_GPIO_Init(GPIOA, &GPIO_InitStruct);
  77:Src/spi.c     **** 
  78:Src/spi.c     ****   /* USER CODE BEGIN SPI1_MspInit 1 */
  79:Src/spi.c     **** 
  80:Src/spi.c     ****   /* USER CODE END SPI1_MspInit 1 */
  81:Src/spi.c     ****   }
  82:Src/spi.c     **** }
 147              		.loc 1 82 0
 148 0018 08B0     		add	sp, sp, #32
 149              	.LCFI4:
 150              		.cfi_remember_state
 151              		.cfi_def_cfa_offset 16
 152              		@ sp needed
 153 001a 70BD     		pop	{r4, r5, r6, pc}
 154              	.L11:
 155              	.LCFI5:
 156              		.cfi_restore_state
 157              	.LBB2:
  64:Src/spi.c     ****   
 158              		.loc 1 64 0
 159 001c 03F18043 		add	r3, r3, #1073741824
 160 0020 03F50433 		add	r3, r3, #135168
 161              	.LBE2:
  76:Src/spi.c     **** 
 162              		.loc 1 76 0
 163 0024 03A9     		add	r1, sp, #12
 164              	.LBB3:
  64:Src/spi.c     ****   
 165              		.loc 1 64 0
 166 0026 9A69     		ldr	r2, [r3, #24]
 167 0028 42F48052 		orr	r2, r2, #4096
 168 002c 9A61     		str	r2, [r3, #24]
 169 002e 9A69     		ldr	r2, [r3, #24]
 170 0030 02F48052 		and	r2, r2, #4096
 171 0034 0192     		str	r2, [sp, #4]
 172 0036 019A     		ldr	r2, [sp, #4]
 173              	.LBE3:
 174              	.LBB4:
  66:Src/spi.c     ****     /**SPI1 GPIO Configuration    
 175              		.loc 1 66 0
 176 0038 5A69     		ldr	r2, [r3, #20]
 177 003a 42F40032 		orr	r2, r2, #131072
 178 003e 5A61     		str	r2, [r3, #20]
 179 0040 5B69     		ldr	r3, [r3, #20]
 180 0042 03F40033 		and	r3, r3, #131072
 181 0046 0293     		str	r3, [sp, #8]
 182              	.LBE4:
  74:Src/spi.c     ****     GPIO_InitStruct.Alternate = GPIO_AF5_SPI1;
 183              		.loc 1 74 0
 184 0048 0322     		movs	r2, #3
  75:Src/spi.c     ****     HAL_GPIO_Init(GPIOA, &GPIO_InitStruct);
ARM GAS  /var/folders/v3/wysfpd052nz8jkbx04pk0ym80000gn/T//ccpd6stH.s 			page 6


 185              		.loc 1 75 0
 186 004a 0523     		movs	r3, #5
  71:Src/spi.c     ****     GPIO_InitStruct.Mode = GPIO_MODE_AF_PP;
 187              		.loc 1 71 0
 188 004c A025     		movs	r5, #160
  72:Src/spi.c     ****     GPIO_InitStruct.Pull = GPIO_NOPULL;
 189              		.loc 1 72 0
 190 004e 0224     		movs	r4, #2
  76:Src/spi.c     **** 
 191              		.loc 1 76 0
 192 0050 4FF09040 		mov	r0, #1207959552
 193              	.LVL3:
 194              	.LBB5:
  66:Src/spi.c     ****     /**SPI1 GPIO Configuration    
 195              		.loc 1 66 0
 196 0054 029E     		ldr	r6, [sp, #8]
 197              	.LBE5:
  72:Src/spi.c     ****     GPIO_InitStruct.Pull = GPIO_NOPULL;
 198              		.loc 1 72 0
 199 0056 CDE90354 		strd	r5, r4, [sp, #12]
  75:Src/spi.c     ****     HAL_GPIO_Init(GPIOA, &GPIO_InitStruct);
 200              		.loc 1 75 0
 201 005a CDE90623 		strd	r2, r3, [sp, #24]
  76:Src/spi.c     **** 
 202              		.loc 1 76 0
 203 005e FFF7FEFF 		bl	HAL_GPIO_Init
 204              	.LVL4:
 205              		.loc 1 82 0
 206 0062 08B0     		add	sp, sp, #32
 207              	.LCFI6:
 208              		.cfi_def_cfa_offset 16
 209              		@ sp needed
 210 0064 70BD     		pop	{r4, r5, r6, pc}
 211              	.L13:
 212 0066 00BF     		.align	2
 213              	.L12:
 214 0068 00300140 		.word	1073819648
 215              		.cfi_endproc
 216              	.LFE124:
 218              		.section	.text.HAL_SPI_MspDeInit,"ax",%progbits
 219              		.align	1
 220              		.p2align 2,,3
 221              		.global	HAL_SPI_MspDeInit
 222              		.syntax unified
 223              		.thumb
 224              		.thumb_func
 225              		.fpu fpv4-sp-d16
 227              	HAL_SPI_MspDeInit:
 228              	.LFB125:
  83:Src/spi.c     **** 
  84:Src/spi.c     **** void HAL_SPI_MspDeInit(SPI_HandleTypeDef* spiHandle)
  85:Src/spi.c     **** {
 229              		.loc 1 85 0
 230              		.cfi_startproc
 231              		@ args = 0, pretend = 0, frame = 0
 232              		@ frame_needed = 0, uses_anonymous_args = 0
 233              		@ link register save eliminated.
ARM GAS  /var/folders/v3/wysfpd052nz8jkbx04pk0ym80000gn/T//ccpd6stH.s 			page 7


 234              	.LVL5:
  86:Src/spi.c     **** 
  87:Src/spi.c     ****   if(spiHandle->Instance==SPI1)
 235              		.loc 1 87 0
 236 0000 0268     		ldr	r2, [r0]
 237 0002 074B     		ldr	r3, .L17
 238 0004 9A42     		cmp	r2, r3
 239 0006 00D0     		beq	.L16
  88:Src/spi.c     ****   {
  89:Src/spi.c     ****   /* USER CODE BEGIN SPI1_MspDeInit 0 */
  90:Src/spi.c     **** 
  91:Src/spi.c     ****   /* USER CODE END SPI1_MspDeInit 0 */
  92:Src/spi.c     ****     /* Peripheral clock disable */
  93:Src/spi.c     ****     __HAL_RCC_SPI1_CLK_DISABLE();
  94:Src/spi.c     ****   
  95:Src/spi.c     ****     /**SPI1 GPIO Configuration    
  96:Src/spi.c     ****     PA5     ------> SPI1_SCK
  97:Src/spi.c     ****     PA7     ------> SPI1_MOSI 
  98:Src/spi.c     ****     */
  99:Src/spi.c     ****     HAL_GPIO_DeInit(GPIOA, GPIO_PIN_5|GPIO_PIN_7);
 100:Src/spi.c     **** 
 101:Src/spi.c     ****   /* USER CODE BEGIN SPI1_MspDeInit 1 */
 102:Src/spi.c     **** 
 103:Src/spi.c     ****   /* USER CODE END SPI1_MspDeInit 1 */
 104:Src/spi.c     ****   }
 105:Src/spi.c     **** } 
 240              		.loc 1 105 0
 241 0008 7047     		bx	lr
 242              	.L16:
  93:Src/spi.c     ****   
 243              		.loc 1 93 0
 244 000a 064A     		ldr	r2, .L17+4
 245 000c 9369     		ldr	r3, [r2, #24]
 246 000e 23F48053 		bic	r3, r3, #4096
 247 0012 9361     		str	r3, [r2, #24]
  99:Src/spi.c     **** 
 248              		.loc 1 99 0
 249 0014 A021     		movs	r1, #160
 250 0016 4FF09040 		mov	r0, #1207959552
 251              	.LVL6:
 252 001a FFF7FEBF 		b	HAL_GPIO_DeInit
 253              	.LVL7:
 254              	.L18:
 255 001e 00BF     		.align	2
 256              	.L17:
 257 0020 00300140 		.word	1073819648
 258 0024 00100240 		.word	1073876992
 259              		.cfi_endproc
 260              	.LFE125:
 262              		.comm	hspi1,100,4
 263              		.text
 264              	.Letext0:
 265              		.file 2 "/usr/local/gcc-arm-none-eabi-7-2018-q2-update/arm-none-eabi/include/machine/_default_type
 266              		.file 3 "/usr/local/gcc-arm-none-eabi-7-2018-q2-update/arm-none-eabi/include/sys/_stdint.h"
 267              		.file 4 "Drivers/CMSIS/Include/core_cm4.h"
 268              		.file 5 "Drivers/CMSIS/Device/ST/STM32F3xx/Include/system_stm32f3xx.h"
 269              		.file 6 "Drivers/CMSIS/Device/ST/STM32F3xx/Include/stm32f303x8.h"
ARM GAS  /var/folders/v3/wysfpd052nz8jkbx04pk0ym80000gn/T//ccpd6stH.s 			page 8


 270              		.file 7 "Drivers/STM32F3xx_HAL_Driver/Inc/stm32f3xx_hal_def.h"
 271              		.file 8 "Drivers/STM32F3xx_HAL_Driver/Inc/stm32f3xx_hal_gpio.h"
 272              		.file 9 "Drivers/STM32F3xx_HAL_Driver/Inc/stm32f3xx_hal_dma.h"
 273              		.file 10 "Drivers/STM32F3xx_HAL_Driver/Inc/stm32f3xx_hal_spi.h"
 274              		.file 11 "Drivers/STM32F3xx_HAL_Driver/Inc/stm32f3xx_hal.h"
 275              		.file 12 "Inc/spi.h"
 276              		.file 13 "Inc/main.h"
ARM GAS  /var/folders/v3/wysfpd052nz8jkbx04pk0ym80000gn/T//ccpd6stH.s 			page 9


DEFINED SYMBOLS
                            *ABS*:0000000000000000 spi.c
/var/folders/v3/wysfpd052nz8jkbx04pk0ym80000gn/T//ccpd6stH.s:18     .text.MX_SPI1_Init:0000000000000000 $t
/var/folders/v3/wysfpd052nz8jkbx04pk0ym80000gn/T//ccpd6stH.s:26     .text.MX_SPI1_Init:0000000000000000 MX_SPI1_Init
/var/folders/v3/wysfpd052nz8jkbx04pk0ym80000gn/T//ccpd6stH.s:102    .text.MX_SPI1_Init:0000000000000048 $d
                            *COM*:0000000000000064 hspi1
/var/folders/v3/wysfpd052nz8jkbx04pk0ym80000gn/T//ccpd6stH.s:108    .text.HAL_SPI_MspInit:0000000000000000 $t
/var/folders/v3/wysfpd052nz8jkbx04pk0ym80000gn/T//ccpd6stH.s:116    .text.HAL_SPI_MspInit:0000000000000000 HAL_SPI_MspInit
/var/folders/v3/wysfpd052nz8jkbx04pk0ym80000gn/T//ccpd6stH.s:214    .text.HAL_SPI_MspInit:0000000000000068 $d
/var/folders/v3/wysfpd052nz8jkbx04pk0ym80000gn/T//ccpd6stH.s:219    .text.HAL_SPI_MspDeInit:0000000000000000 $t
/var/folders/v3/wysfpd052nz8jkbx04pk0ym80000gn/T//ccpd6stH.s:227    .text.HAL_SPI_MspDeInit:0000000000000000 HAL_SPI_MspDeInit
/var/folders/v3/wysfpd052nz8jkbx04pk0ym80000gn/T//ccpd6stH.s:257    .text.HAL_SPI_MspDeInit:0000000000000020 $d

UNDEFINED SYMBOLS
HAL_SPI_Init
Error_Handler
HAL_GPIO_Init
HAL_GPIO_DeInit
