ARM GAS  /var/folders/v3/wysfpd052nz8jkbx04pk0ym80000gn/T//cc1s3eL5.s 			page 1


   1              		.cpu cortex-m4
   2              		.eabi_attribute 27, 1
   3              		.eabi_attribute 28, 1
   4              		.eabi_attribute 20, 1
   5              		.eabi_attribute 21, 1
   6              		.eabi_attribute 23, 3
   7              		.eabi_attribute 24, 1
   8              		.eabi_attribute 25, 1
   9              		.eabi_attribute 26, 1
  10              		.eabi_attribute 30, 2
  11              		.eabi_attribute 34, 1
  12              		.eabi_attribute 18, 4
  13              		.file	"u8g2_setup.c"
  14              		.text
  15              	.Ltext0:
  16              		.cfi_sections	.debug_frame
  17              		.section	.text.u8g2_update_dimension_common,"ax",%progbits
  18              		.align	1
  19              		.p2align 2,,3
  20              		.syntax unified
  21              		.thumb
  22              		.thumb_func
  23              		.fpu fpv4-sp-d16
  25              	u8g2_update_dimension_common:
  26              	.LFB2:
  27              		.file 1 "/Users/imashio/Electronics/ARM/_Library/u8g2_setup.c"
   1:/Users/imashio/Electronics/ARM/_Library/u8g2_setup.c **** /*
   2:/Users/imashio/Electronics/ARM/_Library/u8g2_setup.c **** 
   3:/Users/imashio/Electronics/ARM/_Library/u8g2_setup.c ****   u8g2_setup.c
   4:/Users/imashio/Electronics/ARM/_Library/u8g2_setup.c **** 
   5:/Users/imashio/Electronics/ARM/_Library/u8g2_setup.c ****   Universal 8bit Graphics Library (https://github.com/olikraus/u8g2/)
   6:/Users/imashio/Electronics/ARM/_Library/u8g2_setup.c **** 
   7:/Users/imashio/Electronics/ARM/_Library/u8g2_setup.c ****   Copyright (c) 2016, olikraus@gmail.com
   8:/Users/imashio/Electronics/ARM/_Library/u8g2_setup.c ****   All rights reserved.
   9:/Users/imashio/Electronics/ARM/_Library/u8g2_setup.c **** 
  10:/Users/imashio/Electronics/ARM/_Library/u8g2_setup.c ****   Redistribution and use in source and binary forms, with or without modification, 
  11:/Users/imashio/Electronics/ARM/_Library/u8g2_setup.c ****   are permitted provided that the following conditions are met:
  12:/Users/imashio/Electronics/ARM/_Library/u8g2_setup.c **** 
  13:/Users/imashio/Electronics/ARM/_Library/u8g2_setup.c ****   * Redistributions of source code must retain the above copyright notice, this list 
  14:/Users/imashio/Electronics/ARM/_Library/u8g2_setup.c ****     of conditions and the following disclaimer.
  15:/Users/imashio/Electronics/ARM/_Library/u8g2_setup.c ****     
  16:/Users/imashio/Electronics/ARM/_Library/u8g2_setup.c ****   * Redistributions in binary form must reproduce the above copyright notice, this 
  17:/Users/imashio/Electronics/ARM/_Library/u8g2_setup.c ****     list of conditions and the following disclaimer in the documentation and/or other 
  18:/Users/imashio/Electronics/ARM/_Library/u8g2_setup.c ****     materials provided with the distribution.
  19:/Users/imashio/Electronics/ARM/_Library/u8g2_setup.c **** 
  20:/Users/imashio/Electronics/ARM/_Library/u8g2_setup.c ****   THIS SOFTWARE IS PROVIDED BY THE COPYRIGHT HOLDERS AND 
  21:/Users/imashio/Electronics/ARM/_Library/u8g2_setup.c ****   CONTRIBUTORS "AS IS" AND ANY EXPRESS OR IMPLIED WARRANTIES, 
  22:/Users/imashio/Electronics/ARM/_Library/u8g2_setup.c ****   INCLUDING, BUT NOT LIMITED TO, THE IMPLIED WARRANTIES OF 
  23:/Users/imashio/Electronics/ARM/_Library/u8g2_setup.c ****   MERCHANTABILITY AND FITNESS FOR A PARTICULAR PURPOSE ARE 
  24:/Users/imashio/Electronics/ARM/_Library/u8g2_setup.c ****   DISCLAIMED. IN NO EVENT SHALL THE COPYRIGHT HOLDER OR 
  25:/Users/imashio/Electronics/ARM/_Library/u8g2_setup.c ****   CONTRIBUTORS BE LIABLE FOR ANY DIRECT, INDIRECT, INCIDENTAL, 
  26:/Users/imashio/Electronics/ARM/_Library/u8g2_setup.c ****   SPECIAL, EXEMPLARY, OR CONSEQUENTIAL DAMAGES (INCLUDING, BUT 
  27:/Users/imashio/Electronics/ARM/_Library/u8g2_setup.c ****   NOT LIMITED TO, PROCUREMENT OF SUBSTITUTE GOODS OR SERVICES; 
  28:/Users/imashio/Electronics/ARM/_Library/u8g2_setup.c ****   LOSS OF USE, DATA, OR PROFITS; OR BUSINESS INTERRUPTION) HOWEVER 
  29:/Users/imashio/Electronics/ARM/_Library/u8g2_setup.c ****   CAUSED AND ON ANY THEORY OF LIABILITY, WHETHER IN CONTRACT, 
  30:/Users/imashio/Electronics/ARM/_Library/u8g2_setup.c ****   STRICT LIABILITY, OR TORT (INCLUDING NEGLIGENCE OR OTHERWISE) 
  31:/Users/imashio/Electronics/ARM/_Library/u8g2_setup.c ****   ARISING IN ANY WAY OUT OF THE USE OF THIS SOFTWARE, EVEN IF 
ARM GAS  /var/folders/v3/wysfpd052nz8jkbx04pk0ym80000gn/T//cc1s3eL5.s 			page 2


  32:/Users/imashio/Electronics/ARM/_Library/u8g2_setup.c ****   ADVISED OF THE POSSIBILITY OF SUCH DAMAGE.  
  33:/Users/imashio/Electronics/ARM/_Library/u8g2_setup.c **** 
  34:/Users/imashio/Electronics/ARM/_Library/u8g2_setup.c **** */
  35:/Users/imashio/Electronics/ARM/_Library/u8g2_setup.c **** 
  36:/Users/imashio/Electronics/ARM/_Library/u8g2_setup.c **** #include "u8g2.h"
  37:/Users/imashio/Electronics/ARM/_Library/u8g2_setup.c **** #include <string.h>
  38:/Users/imashio/Electronics/ARM/_Library/u8g2_setup.c **** 
  39:/Users/imashio/Electronics/ARM/_Library/u8g2_setup.c **** /*============================================*/
  40:/Users/imashio/Electronics/ARM/_Library/u8g2_setup.c **** /*
  41:/Users/imashio/Electronics/ARM/_Library/u8g2_setup.c ****   This procedure is called after setting up the display (u8x8 structure).
  42:/Users/imashio/Electronics/ARM/_Library/u8g2_setup.c ****   --> This is the central init procedure for u8g2 object
  43:/Users/imashio/Electronics/ARM/_Library/u8g2_setup.c **** */
  44:/Users/imashio/Electronics/ARM/_Library/u8g2_setup.c **** void u8g2_SetupBuffer(u8g2_t *u8g2, uint8_t *buf, uint8_t tile_buf_height, u8g2_draw_ll_hvline_cb l
  45:/Users/imashio/Electronics/ARM/_Library/u8g2_setup.c **** {
  46:/Users/imashio/Electronics/ARM/_Library/u8g2_setup.c ****   u8g2->font = NULL;
  47:/Users/imashio/Electronics/ARM/_Library/u8g2_setup.c ****   //u8g2->kerning = NULL;
  48:/Users/imashio/Electronics/ARM/_Library/u8g2_setup.c ****   //u8g2->get_kerning_cb = u8g2_GetNullKerning;
  49:/Users/imashio/Electronics/ARM/_Library/u8g2_setup.c ****   
  50:/Users/imashio/Electronics/ARM/_Library/u8g2_setup.c ****   //u8g2->ll_hvline = u8g2_ll_hvline_vertical_top_lsb;
  51:/Users/imashio/Electronics/ARM/_Library/u8g2_setup.c ****   u8g2->ll_hvline = ll_hvline_cb;
  52:/Users/imashio/Electronics/ARM/_Library/u8g2_setup.c ****   
  53:/Users/imashio/Electronics/ARM/_Library/u8g2_setup.c ****   u8g2->tile_buf_ptr = buf;
  54:/Users/imashio/Electronics/ARM/_Library/u8g2_setup.c ****   u8g2->tile_buf_height = tile_buf_height;
  55:/Users/imashio/Electronics/ARM/_Library/u8g2_setup.c ****   
  56:/Users/imashio/Electronics/ARM/_Library/u8g2_setup.c ****   u8g2->tile_curr_row = 0;
  57:/Users/imashio/Electronics/ARM/_Library/u8g2_setup.c ****   
  58:/Users/imashio/Electronics/ARM/_Library/u8g2_setup.c ****   u8g2->font_decode.is_transparent = 0; /* issue 443 */
  59:/Users/imashio/Electronics/ARM/_Library/u8g2_setup.c ****   u8g2->bitmap_transparency = 0;
  60:/Users/imashio/Electronics/ARM/_Library/u8g2_setup.c ****   
  61:/Users/imashio/Electronics/ARM/_Library/u8g2_setup.c ****   u8g2->draw_color = 1;
  62:/Users/imashio/Electronics/ARM/_Library/u8g2_setup.c ****   u8g2->is_auto_page_clear = 1;
  63:/Users/imashio/Electronics/ARM/_Library/u8g2_setup.c ****   
  64:/Users/imashio/Electronics/ARM/_Library/u8g2_setup.c ****   u8g2->cb = u8g2_cb;
  65:/Users/imashio/Electronics/ARM/_Library/u8g2_setup.c ****   u8g2->cb->update(u8g2);
  66:/Users/imashio/Electronics/ARM/_Library/u8g2_setup.c **** 
  67:/Users/imashio/Electronics/ARM/_Library/u8g2_setup.c ****   u8g2_SetFontPosBaseline(u8g2);  /* issue 195 */
  68:/Users/imashio/Electronics/ARM/_Library/u8g2_setup.c ****   
  69:/Users/imashio/Electronics/ARM/_Library/u8g2_setup.c **** #ifdef U8G2_WITH_FONT_ROTATION  
  70:/Users/imashio/Electronics/ARM/_Library/u8g2_setup.c ****   u8g2->font_decode.dir = 0;
  71:/Users/imashio/Electronics/ARM/_Library/u8g2_setup.c **** #endif
  72:/Users/imashio/Electronics/ARM/_Library/u8g2_setup.c **** }
  73:/Users/imashio/Electronics/ARM/_Library/u8g2_setup.c **** 
  74:/Users/imashio/Electronics/ARM/_Library/u8g2_setup.c **** /*
  75:/Users/imashio/Electronics/ARM/_Library/u8g2_setup.c ****   Usually the display rotation is set initially, but it could be done later also
  76:/Users/imashio/Electronics/ARM/_Library/u8g2_setup.c ****   u8g2_cb can be U8G2_R0..U8G2_R3
  77:/Users/imashio/Electronics/ARM/_Library/u8g2_setup.c **** */
  78:/Users/imashio/Electronics/ARM/_Library/u8g2_setup.c **** void u8g2_SetDisplayRotation(u8g2_t *u8g2, const u8g2_cb_t *u8g2_cb)
  79:/Users/imashio/Electronics/ARM/_Library/u8g2_setup.c **** {
  80:/Users/imashio/Electronics/ARM/_Library/u8g2_setup.c ****   u8g2->cb = u8g2_cb;
  81:/Users/imashio/Electronics/ARM/_Library/u8g2_setup.c ****   u8g2->cb->update(u8g2);
  82:/Users/imashio/Electronics/ARM/_Library/u8g2_setup.c **** }
  83:/Users/imashio/Electronics/ARM/_Library/u8g2_setup.c **** 
  84:/Users/imashio/Electronics/ARM/_Library/u8g2_setup.c **** 
  85:/Users/imashio/Electronics/ARM/_Library/u8g2_setup.c **** /*============================================*/
  86:/Users/imashio/Electronics/ARM/_Library/u8g2_setup.c **** /* 
  87:/Users/imashio/Electronics/ARM/_Library/u8g2_setup.c ****   update dimension: 
  88:/Users/imashio/Electronics/ARM/_Library/u8g2_setup.c ****   calculate the following variables:
ARM GAS  /var/folders/v3/wysfpd052nz8jkbx04pk0ym80000gn/T//cc1s3eL5.s 			page 3


  89:/Users/imashio/Electronics/ARM/_Library/u8g2_setup.c ****     u8g2_uint_t buf_x0;	left corner of the buffer
  90:/Users/imashio/Electronics/ARM/_Library/u8g2_setup.c ****     u8g2_uint_t buf_x1;	right corner of the buffer (excluded)
  91:/Users/imashio/Electronics/ARM/_Library/u8g2_setup.c ****     u8g2_uint_t buf_y0;
  92:/Users/imashio/Electronics/ARM/_Library/u8g2_setup.c ****     u8g2_uint_t buf_y1; 	
  93:/Users/imashio/Electronics/ARM/_Library/u8g2_setup.c **** */
  94:/Users/imashio/Electronics/ARM/_Library/u8g2_setup.c **** 
  95:/Users/imashio/Electronics/ARM/_Library/u8g2_setup.c **** static void u8g2_update_dimension_common(u8g2_t *u8g2)
  96:/Users/imashio/Electronics/ARM/_Library/u8g2_setup.c **** {
  28              		.loc 1 96 0
  29              		.cfi_startproc
  30              		@ args = 0, pretend = 0, frame = 0
  31              		@ frame_needed = 0, uses_anonymous_args = 0
  32              		@ link register save eliminated.
  33              	.LVL0:
  34 0000 70B4     		push	{r4, r5, r6}
  35              	.LCFI0:
  36              		.cfi_def_cfa_offset 12
  37              		.cfi_offset 4, -12
  38              		.cfi_offset 5, -8
  39              		.cfi_offset 6, -4
  97:/Users/imashio/Electronics/ARM/_Library/u8g2_setup.c ****   u8g2_uint_t t;
  98:/Users/imashio/Electronics/ARM/_Library/u8g2_setup.c ****   
  99:/Users/imashio/Electronics/ARM/_Library/u8g2_setup.c ****   t = u8g2->tile_buf_height;
  40              		.loc 1 99 0
  41 0002 90F83850 		ldrb	r5, [r0, #56]	@ zero_extendqisi2
  42              	.LVL1:
 100:/Users/imashio/Electronics/ARM/_Library/u8g2_setup.c ****   t *= 8;
 101:/Users/imashio/Electronics/ARM/_Library/u8g2_setup.c ****   u8g2->pixel_buf_height = t;
 102:/Users/imashio/Electronics/ARM/_Library/u8g2_setup.c ****   
 103:/Users/imashio/Electronics/ARM/_Library/u8g2_setup.c ****   t = u8g2_GetU8x8(u8g2)->display_info->tile_width;
  43              		.loc 1 103 0
  44 0006 0468     		ldr	r4, [r0]
 104:/Users/imashio/Electronics/ARM/_Library/u8g2_setup.c **** #ifndef U8G2_16BIT
 105:/Users/imashio/Electronics/ARM/_Library/u8g2_setup.c ****   if ( t >= 32 )
 106:/Users/imashio/Electronics/ARM/_Library/u8g2_setup.c ****     t = 31;
 107:/Users/imashio/Electronics/ARM/_Library/u8g2_setup.c **** #endif
 108:/Users/imashio/Electronics/ARM/_Library/u8g2_setup.c ****   t *= 8;
 109:/Users/imashio/Electronics/ARM/_Library/u8g2_setup.c ****   u8g2->pixel_buf_width = t;
 110:/Users/imashio/Electronics/ARM/_Library/u8g2_setup.c ****   
 111:/Users/imashio/Electronics/ARM/_Library/u8g2_setup.c ****   t = u8g2->tile_curr_row;
  45              		.loc 1 111 0
  46 0008 90F83960 		ldrb	r6, [r0, #57]	@ zero_extendqisi2
 100:/Users/imashio/Electronics/ARM/_Library/u8g2_setup.c ****   t *= 8;
  47              		.loc 1 100 0
  48 000c EB00     		lsls	r3, r5, #3
  49 000e DBB2     		uxtb	r3, r3
  50              	.LVL2:
 101:/Users/imashio/Electronics/ARM/_Library/u8g2_setup.c ****   
  51              		.loc 1 101 0
  52 0010 80F83B30 		strb	r3, [r0, #59]
 103:/Users/imashio/Electronics/ARM/_Library/u8g2_setup.c **** #ifndef U8G2_16BIT
  53              		.loc 1 103 0
  54 0014 217C     		ldrb	r1, [r4, #16]	@ zero_extendqisi2
  55              	.LVL3:
  56 0016 1F29     		cmp	r1, #31
  57 0018 28BF     		it	cs
  58 001a 1F21     		movcs	r1, #31
ARM GAS  /var/folders/v3/wysfpd052nz8jkbx04pk0ym80000gn/T//cc1s3eL5.s 			page 4


  59              	.LVL4:
 112:/Users/imashio/Electronics/ARM/_Library/u8g2_setup.c ****   t *= 8;
  60              		.loc 1 112 0
  61 001c F200     		lsls	r2, r6, #3
 108:/Users/imashio/Electronics/ARM/_Library/u8g2_setup.c ****   u8g2->pixel_buf_width = t;
  62              		.loc 1 108 0
  63 001e C900     		lsls	r1, r1, #3
  64              		.loc 1 112 0
  65 0020 D2B2     		uxtb	r2, r2
  66              	.LVL5:
 109:/Users/imashio/Electronics/ARM/_Library/u8g2_setup.c ****   
  67              		.loc 1 109 0
  68 0022 80F83A10 		strb	r1, [r0, #58]
 113:/Users/imashio/Electronics/ARM/_Library/u8g2_setup.c ****   u8g2->pixel_curr_row = t;
  69              		.loc 1 113 0
  70 0026 80F83C20 		strb	r2, [r0, #60]
  71              	.LVL6:
 114:/Users/imashio/Electronics/ARM/_Library/u8g2_setup.c ****   
 115:/Users/imashio/Electronics/ARM/_Library/u8g2_setup.c ****   t = u8g2->tile_buf_height;
 116:/Users/imashio/Electronics/ARM/_Library/u8g2_setup.c ****   /* handle the case, where the buffer is larger than the (remaining) part of the display */
 117:/Users/imashio/Electronics/ARM/_Library/u8g2_setup.c ****   if ( t + u8g2->tile_curr_row > u8g2_GetU8x8(u8g2)->display_info->tile_height )
  72              		.loc 1 117 0
  73 002a 617C     		ldrb	r1, [r4, #17]	@ zero_extendqisi2
  74 002c 3544     		add	r5, r5, r6
  75              	.LVL7:
  76 002e 8D42     		cmp	r5, r1
  77 0030 02DD     		ble	.L2
  78              	.LVL8:
 118:/Users/imashio/Electronics/ARM/_Library/u8g2_setup.c ****     t = u8g2_GetU8x8(u8g2)->display_info->tile_height - u8g2->tile_curr_row;
  79              		.loc 1 118 0
  80 0032 8B1B     		subs	r3, r1, r6
  81 0034 DB00     		lsls	r3, r3, #3
  82 0036 DBB2     		uxtb	r3, r3
  83              	.LVL9:
  84              	.L2:
 119:/Users/imashio/Electronics/ARM/_Library/u8g2_setup.c ****   t *= 8;
 120:/Users/imashio/Electronics/ARM/_Library/u8g2_setup.c ****   
 121:/Users/imashio/Electronics/ARM/_Library/u8g2_setup.c ****   u8g2->buf_y0 = u8g2->pixel_curr_row;   
 122:/Users/imashio/Electronics/ARM/_Library/u8g2_setup.c ****   u8g2->buf_y1 = u8g2->buf_y0;
 123:/Users/imashio/Electronics/ARM/_Library/u8g2_setup.c ****   u8g2->buf_y1 += t;
  85              		.loc 1 123 0
  86 0038 1344     		add	r3, r3, r2
 124:/Users/imashio/Electronics/ARM/_Library/u8g2_setup.c **** 
 125:/Users/imashio/Electronics/ARM/_Library/u8g2_setup.c ****   
 126:/Users/imashio/Electronics/ARM/_Library/u8g2_setup.c **** #ifdef U8G2_16BIT
 127:/Users/imashio/Electronics/ARM/_Library/u8g2_setup.c ****   u8g2->width = u8g2_GetU8x8(u8g2)->display_info->pixel_width;
 128:/Users/imashio/Electronics/ARM/_Library/u8g2_setup.c ****   u8g2->height = u8g2_GetU8x8(u8g2)->display_info->pixel_height;
 129:/Users/imashio/Electronics/ARM/_Library/u8g2_setup.c **** #else
 130:/Users/imashio/Electronics/ARM/_Library/u8g2_setup.c ****   u8g2->width = 240;
  87              		.loc 1 130 0
  88 003a F021     		movs	r1, #240
  89 003c 80F83F10 		strb	r1, [r0, #63]
 123:/Users/imashio/Electronics/ARM/_Library/u8g2_setup.c **** 
  90              		.loc 1 123 0
  91 0040 80F83E30 		strb	r3, [r0, #62]
 121:/Users/imashio/Electronics/ARM/_Library/u8g2_setup.c ****   u8g2->buf_y1 = u8g2->buf_y0;
  92              		.loc 1 121 0
ARM GAS  /var/folders/v3/wysfpd052nz8jkbx04pk0ym80000gn/T//cc1s3eL5.s 			page 5


  93 0044 80F83D20 		strb	r2, [r0, #61]
 131:/Users/imashio/Electronics/ARM/_Library/u8g2_setup.c ****   if ( u8g2_GetU8x8(u8g2)->display_info->pixel_width <= 240 )
  94              		.loc 1 131 0
  95 0048 A38A     		ldrh	r3, [r4, #20]
  96 004a 8B42     		cmp	r3, r1
 132:/Users/imashio/Electronics/ARM/_Library/u8g2_setup.c ****     u8g2->width = u8g2_GetU8x8(u8g2)->display_info->pixel_width;
  97              		.loc 1 132 0
  98 004c 98BF     		it	ls
  99 004e 80F83F30 		strbls	r3, [r0, #63]
 133:/Users/imashio/Electronics/ARM/_Library/u8g2_setup.c ****   u8g2->height = u8g2_GetU8x8(u8g2)->display_info->pixel_height;
 100              		.loc 1 133 0
 101 0052 E38A     		ldrh	r3, [r4, #22]
 102 0054 80F84030 		strb	r3, [r0, #64]
 134:/Users/imashio/Electronics/ARM/_Library/u8g2_setup.c **** #endif
 135:/Users/imashio/Electronics/ARM/_Library/u8g2_setup.c **** 
 136:/Users/imashio/Electronics/ARM/_Library/u8g2_setup.c **** }
 103              		.loc 1 136 0
 104 0058 70BC     		pop	{r4, r5, r6}
 105              	.LCFI1:
 106              		.cfi_restore 6
 107              		.cfi_restore 5
 108              		.cfi_restore 4
 109              		.cfi_def_cfa_offset 0
 110 005a 7047     		bx	lr
 111              		.cfi_endproc
 112              	.LFE2:
 114              		.section	.text.u8g2_update_dimension_r0,"ax",%progbits
 115              		.align	1
 116              		.p2align 2,,3
 117              		.global	u8g2_update_dimension_r0
 118              		.syntax unified
 119              		.thumb
 120              		.thumb_func
 121              		.fpu fpv4-sp-d16
 123              	u8g2_update_dimension_r0:
 124              	.LFB3:
 137:/Users/imashio/Electronics/ARM/_Library/u8g2_setup.c **** 
 138:/Users/imashio/Electronics/ARM/_Library/u8g2_setup.c **** void u8g2_update_dimension_r0(u8g2_t *u8g2)
 139:/Users/imashio/Electronics/ARM/_Library/u8g2_setup.c **** {
 125              		.loc 1 139 0
 126              		.cfi_startproc
 127              		@ args = 0, pretend = 0, frame = 0
 128              		@ frame_needed = 0, uses_anonymous_args = 0
 129              	.LVL10:
 130 0000 10B5     		push	{r4, lr}
 131              	.LCFI2:
 132              		.cfi_def_cfa_offset 8
 133              		.cfi_offset 4, -8
 134              		.cfi_offset 14, -4
 135              		.loc 1 139 0
 136 0002 0446     		mov	r4, r0
 140:/Users/imashio/Electronics/ARM/_Library/u8g2_setup.c ****   u8g2_update_dimension_common(u8g2);
 137              		.loc 1 140 0
 138 0004 FFF7FEFF 		bl	u8g2_update_dimension_common
 139              	.LVL11:
 141:/Users/imashio/Electronics/ARM/_Library/u8g2_setup.c **** 
 142:/Users/imashio/Electronics/ARM/_Library/u8g2_setup.c ****   u8g2->user_x0 = 0;
ARM GAS  /var/folders/v3/wysfpd052nz8jkbx04pk0ym80000gn/T//cc1s3eL5.s 			page 6


 140              		.loc 1 142 0
 141 0008 0020     		movs	r0, #0
 142              	.LVL12:
 143:/Users/imashio/Electronics/ARM/_Library/u8g2_setup.c ****   u8g2->user_x1 = u8g2->pixel_buf_width;	/* pixel_buf_width replaced with width */
 143              		.loc 1 143 0
 144 000a 94F83A10 		ldrb	r1, [r4, #58]	@ zero_extendqisi2
 144:/Users/imashio/Electronics/ARM/_Library/u8g2_setup.c ****   
 145:/Users/imashio/Electronics/ARM/_Library/u8g2_setup.c ****   u8g2->user_y0 = u8g2->buf_y0;
 145              		.loc 1 145 0
 146 000e 94F83D20 		ldrb	r2, [r4, #61]	@ zero_extendqisi2
 146:/Users/imashio/Electronics/ARM/_Library/u8g2_setup.c ****   u8g2->user_y1 = u8g2->buf_y1;
 147              		.loc 1 146 0
 148 0012 94F83E30 		ldrb	r3, [r4, #62]	@ zero_extendqisi2
 142:/Users/imashio/Electronics/ARM/_Library/u8g2_setup.c ****   u8g2->user_x1 = u8g2->pixel_buf_width;	/* pixel_buf_width replaced with width */
 149              		.loc 1 142 0
 150 0016 84F84100 		strb	r0, [r4, #65]
 143:/Users/imashio/Electronics/ARM/_Library/u8g2_setup.c ****   
 151              		.loc 1 143 0
 152 001a 84F84210 		strb	r1, [r4, #66]
 145:/Users/imashio/Electronics/ARM/_Library/u8g2_setup.c ****   u8g2->user_y1 = u8g2->buf_y1;
 153              		.loc 1 145 0
 154 001e 84F84320 		strb	r2, [r4, #67]
 155              		.loc 1 146 0
 156 0022 84F84430 		strb	r3, [r4, #68]
 147:/Users/imashio/Electronics/ARM/_Library/u8g2_setup.c ****   
 148:/Users/imashio/Electronics/ARM/_Library/u8g2_setup.c **** //  printf("x0=%d x1=%d y0=%d y1=%d\n", 
 149:/Users/imashio/Electronics/ARM/_Library/u8g2_setup.c **** //      u8g2->user_x0, u8g2->user_x1, u8g2->user_y0, u8g2->user_y1);
 150:/Users/imashio/Electronics/ARM/_Library/u8g2_setup.c **** }
 157              		.loc 1 150 0
 158 0026 10BD     		pop	{r4, pc}
 159              		.cfi_endproc
 160              	.LFE3:
 162              		.section	.text.u8g2_update_dimension_r1,"ax",%progbits
 163              		.align	1
 164              		.p2align 2,,3
 165              		.global	u8g2_update_dimension_r1
 166              		.syntax unified
 167              		.thumb
 168              		.thumb_func
 169              		.fpu fpv4-sp-d16
 171              	u8g2_update_dimension_r1:
 172              	.LFB4:
 151:/Users/imashio/Electronics/ARM/_Library/u8g2_setup.c **** 
 152:/Users/imashio/Electronics/ARM/_Library/u8g2_setup.c **** void u8g2_update_dimension_r1(u8g2_t *u8g2)
 153:/Users/imashio/Electronics/ARM/_Library/u8g2_setup.c **** {
 173              		.loc 1 153 0
 174              		.cfi_startproc
 175              		@ args = 0, pretend = 0, frame = 0
 176              		@ frame_needed = 0, uses_anonymous_args = 0
 177              	.LVL13:
 178 0000 10B5     		push	{r4, lr}
 179              	.LCFI3:
 180              		.cfi_def_cfa_offset 8
 181              		.cfi_offset 4, -8
 182              		.cfi_offset 14, -4
 183              		.loc 1 153 0
 184 0002 0446     		mov	r4, r0
ARM GAS  /var/folders/v3/wysfpd052nz8jkbx04pk0ym80000gn/T//cc1s3eL5.s 			page 7


 154:/Users/imashio/Electronics/ARM/_Library/u8g2_setup.c ****   u8g2_update_dimension_common(u8g2);
 185              		.loc 1 154 0
 186 0004 FFF7FEFF 		bl	u8g2_update_dimension_common
 187              	.LVL14:
 155:/Users/imashio/Electronics/ARM/_Library/u8g2_setup.c ****   
 156:/Users/imashio/Electronics/ARM/_Library/u8g2_setup.c ****   u8g2->height = u8g2_GetU8x8(u8g2)->display_info->pixel_width;
 188              		.loc 1 156 0
 189 0008 0268     		ldr	r2, [r0]
 157:/Users/imashio/Electronics/ARM/_Library/u8g2_setup.c ****   u8g2->width = u8g2_GetU8x8(u8g2)->display_info->pixel_height;
 158:/Users/imashio/Electronics/ARM/_Library/u8g2_setup.c ****   
 159:/Users/imashio/Electronics/ARM/_Library/u8g2_setup.c ****   u8g2->user_x0 = u8g2->buf_y0;
 190              		.loc 1 159 0
 191 000a 90F83D00 		ldrb	r0, [r0, #61]	@ zero_extendqisi2
 192              	.LVL15:
 156:/Users/imashio/Electronics/ARM/_Library/u8g2_setup.c ****   u8g2->width = u8g2_GetU8x8(u8g2)->display_info->pixel_height;
 193              		.loc 1 156 0
 194 000e 137D     		ldrb	r3, [r2, #20]	@ zero_extendqisi2
 195 0010 84F84030 		strb	r3, [r4, #64]
 157:/Users/imashio/Electronics/ARM/_Library/u8g2_setup.c ****   u8g2->width = u8g2_GetU8x8(u8g2)->display_info->pixel_height;
 196              		.loc 1 157 0
 197 0014 D28A     		ldrh	r2, [r2, #22]
 160:/Users/imashio/Electronics/ARM/_Library/u8g2_setup.c ****   u8g2->user_x1 = u8g2->buf_y1;
 198              		.loc 1 160 0
 199 0016 94F83E10 		ldrb	r1, [r4, #62]	@ zero_extendqisi2
 157:/Users/imashio/Electronics/ARM/_Library/u8g2_setup.c ****   u8g2->width = u8g2_GetU8x8(u8g2)->display_info->pixel_height;
 200              		.loc 1 157 0
 201 001a 84F83F20 		strb	r2, [r4, #63]
 161:/Users/imashio/Electronics/ARM/_Library/u8g2_setup.c ****   
 162:/Users/imashio/Electronics/ARM/_Library/u8g2_setup.c ****   u8g2->user_y0 = 0;
 202              		.loc 1 162 0
 203 001e 0022     		movs	r2, #0
 163:/Users/imashio/Electronics/ARM/_Library/u8g2_setup.c ****   u8g2->user_y1 = u8g2->height;	/* pixel_buf_width replaced with height (which is the real pixel wi
 204              		.loc 1 163 0
 205 0020 84F84430 		strb	r3, [r4, #68]
 159:/Users/imashio/Electronics/ARM/_Library/u8g2_setup.c ****   u8g2->user_x1 = u8g2->buf_y1;
 206              		.loc 1 159 0
 207 0024 84F84100 		strb	r0, [r4, #65]
 160:/Users/imashio/Electronics/ARM/_Library/u8g2_setup.c ****   
 208              		.loc 1 160 0
 209 0028 84F84210 		strb	r1, [r4, #66]
 162:/Users/imashio/Electronics/ARM/_Library/u8g2_setup.c ****   u8g2->user_y1 = u8g2->height;	/* pixel_buf_width replaced with height (which is the real pixel wi
 210              		.loc 1 162 0
 211 002c 84F84320 		strb	r2, [r4, #67]
 164:/Users/imashio/Electronics/ARM/_Library/u8g2_setup.c ****   
 165:/Users/imashio/Electronics/ARM/_Library/u8g2_setup.c ****   //printf("x0=%d x1=%d y0=%d y1=%d\n", 
 166:/Users/imashio/Electronics/ARM/_Library/u8g2_setup.c ****    //   u8g2->user_x0, u8g2->user_x1, u8g2->user_y0, u8g2->user_y1);
 167:/Users/imashio/Electronics/ARM/_Library/u8g2_setup.c **** }
 212              		.loc 1 167 0
 213 0030 10BD     		pop	{r4, pc}
 214              		.cfi_endproc
 215              	.LFE4:
 217 0032 00BF     		.section	.text.u8g2_update_dimension_r2,"ax",%progbits
 218              		.align	1
 219              		.p2align 2,,3
 220              		.global	u8g2_update_dimension_r2
 221              		.syntax unified
 222              		.thumb
ARM GAS  /var/folders/v3/wysfpd052nz8jkbx04pk0ym80000gn/T//cc1s3eL5.s 			page 8


 223              		.thumb_func
 224              		.fpu fpv4-sp-d16
 226              	u8g2_update_dimension_r2:
 227              	.LFB5:
 168:/Users/imashio/Electronics/ARM/_Library/u8g2_setup.c **** 
 169:/Users/imashio/Electronics/ARM/_Library/u8g2_setup.c **** void u8g2_update_dimension_r2(u8g2_t *u8g2)
 170:/Users/imashio/Electronics/ARM/_Library/u8g2_setup.c **** {
 228              		.loc 1 170 0
 229              		.cfi_startproc
 230              		@ args = 0, pretend = 0, frame = 0
 231              		@ frame_needed = 0, uses_anonymous_args = 0
 232              	.LVL16:
 233 0000 10B5     		push	{r4, lr}
 234              	.LCFI4:
 235              		.cfi_def_cfa_offset 8
 236              		.cfi_offset 4, -8
 237              		.cfi_offset 14, -4
 238              		.loc 1 170 0
 239 0002 0446     		mov	r4, r0
 171:/Users/imashio/Electronics/ARM/_Library/u8g2_setup.c ****   u8g2_update_dimension_common(u8g2);
 240              		.loc 1 171 0
 241 0004 FFF7FEFF 		bl	u8g2_update_dimension_common
 242              	.LVL17:
 172:/Users/imashio/Electronics/ARM/_Library/u8g2_setup.c **** 
 173:/Users/imashio/Electronics/ARM/_Library/u8g2_setup.c ****   u8g2->user_x0 = 0;
 174:/Users/imashio/Electronics/ARM/_Library/u8g2_setup.c ****   u8g2->user_x1 = u8g2->width;	/* pixel_buf_width replaced with width */
 175:/Users/imashio/Electronics/ARM/_Library/u8g2_setup.c ****   
 176:/Users/imashio/Electronics/ARM/_Library/u8g2_setup.c ****   u8g2->user_y0 = u8g2->height - u8g2->buf_y1;
 243              		.loc 1 176 0
 244 0008 90F84030 		ldrb	r3, [r0, #64]	@ zero_extendqisi2
 245 000c 90F83E20 		ldrb	r2, [r0, #62]	@ zero_extendqisi2
 177:/Users/imashio/Electronics/ARM/_Library/u8g2_setup.c ****   u8g2->user_y1 = u8g2->height - u8g2->buf_y0;
 246              		.loc 1 177 0
 247 0010 90F83D00 		ldrb	r0, [r0, #61]	@ zero_extendqisi2
 248              	.LVL18:
 174:/Users/imashio/Electronics/ARM/_Library/u8g2_setup.c ****   
 249              		.loc 1 174 0
 250 0014 94F83F10 		ldrb	r1, [r4, #63]	@ zero_extendqisi2
 251 0018 84F84210 		strb	r1, [r4, #66]
 176:/Users/imashio/Electronics/ARM/_Library/u8g2_setup.c ****   u8g2->user_y1 = u8g2->height - u8g2->buf_y0;
 252              		.loc 1 176 0
 253 001c 9A1A     		subs	r2, r3, r2
 173:/Users/imashio/Electronics/ARM/_Library/u8g2_setup.c ****   u8g2->user_x1 = u8g2->width;	/* pixel_buf_width replaced with width */
 254              		.loc 1 173 0
 255 001e 0021     		movs	r1, #0
 256              		.loc 1 177 0
 257 0020 1B1A     		subs	r3, r3, r0
 173:/Users/imashio/Electronics/ARM/_Library/u8g2_setup.c ****   u8g2->user_x1 = u8g2->width;	/* pixel_buf_width replaced with width */
 258              		.loc 1 173 0
 259 0022 84F84110 		strb	r1, [r4, #65]
 176:/Users/imashio/Electronics/ARM/_Library/u8g2_setup.c ****   u8g2->user_y1 = u8g2->height - u8g2->buf_y0;
 260              		.loc 1 176 0
 261 0026 84F84320 		strb	r2, [r4, #67]
 262              		.loc 1 177 0
 263 002a 84F84430 		strb	r3, [r4, #68]
 178:/Users/imashio/Electronics/ARM/_Library/u8g2_setup.c **** 
 179:/Users/imashio/Electronics/ARM/_Library/u8g2_setup.c **** //  printf("x0=%d x1=%d y0=%d y1=%d\n", 
ARM GAS  /var/folders/v3/wysfpd052nz8jkbx04pk0ym80000gn/T//cc1s3eL5.s 			page 9


 180:/Users/imashio/Electronics/ARM/_Library/u8g2_setup.c **** //      u8g2->user_x0, u8g2->user_x1, u8g2->user_y0, u8g2->user_y1);
 181:/Users/imashio/Electronics/ARM/_Library/u8g2_setup.c **** }
 264              		.loc 1 181 0
 265 002e 10BD     		pop	{r4, pc}
 266              		.cfi_endproc
 267              	.LFE5:
 269              		.section	.text.u8g2_update_dimension_r3,"ax",%progbits
 270              		.align	1
 271              		.p2align 2,,3
 272              		.global	u8g2_update_dimension_r3
 273              		.syntax unified
 274              		.thumb
 275              		.thumb_func
 276              		.fpu fpv4-sp-d16
 278              	u8g2_update_dimension_r3:
 279              	.LFB6:
 182:/Users/imashio/Electronics/ARM/_Library/u8g2_setup.c **** 
 183:/Users/imashio/Electronics/ARM/_Library/u8g2_setup.c **** void u8g2_update_dimension_r3(u8g2_t *u8g2)
 184:/Users/imashio/Electronics/ARM/_Library/u8g2_setup.c **** {
 280              		.loc 1 184 0
 281              		.cfi_startproc
 282              		@ args = 0, pretend = 0, frame = 0
 283              		@ frame_needed = 0, uses_anonymous_args = 0
 284              	.LVL19:
 285 0000 10B5     		push	{r4, lr}
 286              	.LCFI5:
 287              		.cfi_def_cfa_offset 8
 288              		.cfi_offset 4, -8
 289              		.cfi_offset 14, -4
 290              		.loc 1 184 0
 291 0002 0446     		mov	r4, r0
 185:/Users/imashio/Electronics/ARM/_Library/u8g2_setup.c ****   u8g2_update_dimension_common(u8g2);
 292              		.loc 1 185 0
 293 0004 FFF7FEFF 		bl	u8g2_update_dimension_common
 294              	.LVL20:
 186:/Users/imashio/Electronics/ARM/_Library/u8g2_setup.c ****   
 187:/Users/imashio/Electronics/ARM/_Library/u8g2_setup.c ****   u8g2->height = u8g2_GetU8x8(u8g2)->display_info->pixel_width;
 295              		.loc 1 187 0
 296 0008 0368     		ldr	r3, [r0]
 188:/Users/imashio/Electronics/ARM/_Library/u8g2_setup.c ****   u8g2->width = u8g2_GetU8x8(u8g2)->display_info->pixel_height;
 189:/Users/imashio/Electronics/ARM/_Library/u8g2_setup.c **** 
 190:/Users/imashio/Electronics/ARM/_Library/u8g2_setup.c ****   u8g2->user_x0 = u8g2->width - u8g2->buf_y1;
 297              		.loc 1 190 0
 298 000a 90F83E20 		ldrb	r2, [r0, #62]	@ zero_extendqisi2
 187:/Users/imashio/Electronics/ARM/_Library/u8g2_setup.c ****   u8g2->width = u8g2_GetU8x8(u8g2)->display_info->pixel_height;
 299              		.loc 1 187 0
 300 000e 197D     		ldrb	r1, [r3, #20]	@ zero_extendqisi2
 301 0010 80F84010 		strb	r1, [r0, #64]
 188:/Users/imashio/Electronics/ARM/_Library/u8g2_setup.c ****   u8g2->width = u8g2_GetU8x8(u8g2)->display_info->pixel_height;
 302              		.loc 1 188 0
 303 0014 9B7D     		ldrb	r3, [r3, #22]	@ zero_extendqisi2
 191:/Users/imashio/Electronics/ARM/_Library/u8g2_setup.c ****   u8g2->user_x1 = u8g2->width - u8g2->buf_y0;
 304              		.loc 1 191 0
 305 0016 90F83D00 		ldrb	r0, [r0, #61]	@ zero_extendqisi2
 306              	.LVL21:
 188:/Users/imashio/Electronics/ARM/_Library/u8g2_setup.c ****   u8g2->width = u8g2_GetU8x8(u8g2)->display_info->pixel_height;
 307              		.loc 1 188 0
ARM GAS  /var/folders/v3/wysfpd052nz8jkbx04pk0ym80000gn/T//cc1s3eL5.s 			page 10


 308 001a 84F83F30 		strb	r3, [r4, #63]
 190:/Users/imashio/Electronics/ARM/_Library/u8g2_setup.c ****   u8g2->user_x1 = u8g2->width - u8g2->buf_y0;
 309              		.loc 1 190 0
 310 001e 9A1A     		subs	r2, r3, r2
 311              		.loc 1 191 0
 312 0020 1B1A     		subs	r3, r3, r0
 192:/Users/imashio/Electronics/ARM/_Library/u8g2_setup.c ****   
 193:/Users/imashio/Electronics/ARM/_Library/u8g2_setup.c ****   u8g2->user_y0 = 0;
 313              		.loc 1 193 0
 314 0022 0020     		movs	r0, #0
 194:/Users/imashio/Electronics/ARM/_Library/u8g2_setup.c ****   u8g2->user_y1 = u8g2->height;	/* pixel_buf_width replaced with height (pixel_width) */
 315              		.loc 1 194 0
 316 0024 84F84410 		strb	r1, [r4, #68]
 190:/Users/imashio/Electronics/ARM/_Library/u8g2_setup.c ****   u8g2->user_x1 = u8g2->width - u8g2->buf_y0;
 317              		.loc 1 190 0
 318 0028 84F84120 		strb	r2, [r4, #65]
 191:/Users/imashio/Electronics/ARM/_Library/u8g2_setup.c ****   
 319              		.loc 1 191 0
 320 002c 84F84230 		strb	r3, [r4, #66]
 193:/Users/imashio/Electronics/ARM/_Library/u8g2_setup.c ****   u8g2->user_y1 = u8g2->height;	/* pixel_buf_width replaced with height (pixel_width) */
 321              		.loc 1 193 0
 322 0030 84F84300 		strb	r0, [r4, #67]
 195:/Users/imashio/Electronics/ARM/_Library/u8g2_setup.c **** 
 196:/Users/imashio/Electronics/ARM/_Library/u8g2_setup.c **** //  printf("x0=%d x1=%d y0=%d y1=%d\n", 
 197:/Users/imashio/Electronics/ARM/_Library/u8g2_setup.c **** //      u8g2->user_x0, u8g2->user_x1, u8g2->user_y0, u8g2->user_y1);
 198:/Users/imashio/Electronics/ARM/_Library/u8g2_setup.c **** }
 323              		.loc 1 198 0
 324 0034 10BD     		pop	{r4, pc}
 325              		.cfi_endproc
 326              	.LFE6:
 328 0036 00BF     		.section	.text.u8g2_draw_l90_r0,"ax",%progbits
 329              		.align	1
 330              		.p2align 2,,3
 331              		.global	u8g2_draw_l90_r0
 332              		.syntax unified
 333              		.thumb
 334              		.thumb_func
 335              		.fpu fpv4-sp-d16
 337              	u8g2_draw_l90_r0:
 338              	.LFB7:
 199:/Users/imashio/Electronics/ARM/_Library/u8g2_setup.c **** 
 200:/Users/imashio/Electronics/ARM/_Library/u8g2_setup.c **** /*============================================*/
 201:/Users/imashio/Electronics/ARM/_Library/u8g2_setup.c **** extern void u8g2_draw_hv_line_4dir(u8g2_t *u8g2, u8g2_uint_t x, u8g2_uint_t y, u8g2_uint_t len, uin
 202:/Users/imashio/Electronics/ARM/_Library/u8g2_setup.c **** 
 203:/Users/imashio/Electronics/ARM/_Library/u8g2_setup.c **** 
 204:/Users/imashio/Electronics/ARM/_Library/u8g2_setup.c **** void u8g2_draw_l90_r0(u8g2_t *u8g2, u8g2_uint_t x, u8g2_uint_t y, u8g2_uint_t len, uint8_t dir)
 205:/Users/imashio/Electronics/ARM/_Library/u8g2_setup.c **** {
 339              		.loc 1 205 0
 340              		.cfi_startproc
 341              		@ args = 4, pretend = 0, frame = 0
 342              		@ frame_needed = 0, uses_anonymous_args = 0
 343              		@ link register save eliminated.
 344              	.LVL22:
 345 0000 10B4     		push	{r4}
 346              	.LCFI6:
 347              		.cfi_def_cfa_offset 4
 348              		.cfi_offset 4, -4
ARM GAS  /var/folders/v3/wysfpd052nz8jkbx04pk0ym80000gn/T//cc1s3eL5.s 			page 11


 349              		.loc 1 205 0
 350 0002 9DF80440 		ldrb	r4, [sp, #4]	@ zero_extendqisi2
 206:/Users/imashio/Electronics/ARM/_Library/u8g2_setup.c ****   u8g2_draw_hv_line_4dir(u8g2, x, y, len, dir);
 351              		.loc 1 206 0
 352 0006 0194     		str	r4, [sp, #4]
 353              	.LVL23:
 207:/Users/imashio/Electronics/ARM/_Library/u8g2_setup.c **** }
 354              		.loc 1 207 0
 355 0008 5DF8044B 		ldr	r4, [sp], #4
 356              	.LCFI7:
 357              		.cfi_restore 4
 358              		.cfi_def_cfa_offset 0
 206:/Users/imashio/Electronics/ARM/_Library/u8g2_setup.c ****   u8g2_draw_hv_line_4dir(u8g2, x, y, len, dir);
 359              		.loc 1 206 0
 360 000c FFF7FEBF 		b	u8g2_draw_hv_line_4dir
 361              	.LVL24:
 362              		.cfi_endproc
 363              	.LFE7:
 365              		.section	.text.u8g2_draw_l90_mirrorr_r0,"ax",%progbits
 366              		.align	1
 367              		.p2align 2,,3
 368              		.global	u8g2_draw_l90_mirrorr_r0
 369              		.syntax unified
 370              		.thumb
 371              		.thumb_func
 372              		.fpu fpv4-sp-d16
 374              	u8g2_draw_l90_mirrorr_r0:
 375              	.LFB8:
 208:/Users/imashio/Electronics/ARM/_Library/u8g2_setup.c **** 
 209:/Users/imashio/Electronics/ARM/_Library/u8g2_setup.c **** void u8g2_draw_l90_mirrorr_r0(u8g2_t *u8g2, u8g2_uint_t x, u8g2_uint_t y, u8g2_uint_t len, uint8_t 
 210:/Users/imashio/Electronics/ARM/_Library/u8g2_setup.c **** {
 376              		.loc 1 210 0
 377              		.cfi_startproc
 378              		@ args = 4, pretend = 0, frame = 0
 379              		@ frame_needed = 0, uses_anonymous_args = 0
 380              		@ link register save eliminated.
 381              	.LVL25:
 382 0000 30B4     		push	{r4, r5}
 383              	.LCFI8:
 384              		.cfi_def_cfa_offset 8
 385              		.cfi_offset 4, -8
 386              		.cfi_offset 5, -4
 211:/Users/imashio/Electronics/ARM/_Library/u8g2_setup.c ****   u8g2_uint_t xx;
 212:/Users/imashio/Electronics/ARM/_Library/u8g2_setup.c ****   xx = u8g2->width;
 387              		.loc 1 212 0
 388 0002 90F83F40 		ldrb	r4, [r0, #63]	@ zero_extendqisi2
 389              	.LVL26:
 210:/Users/imashio/Electronics/ARM/_Library/u8g2_setup.c ****   u8g2_uint_t xx;
 390              		.loc 1 210 0
 391 0006 9DF80850 		ldrb	r5, [sp, #8]	@ zero_extendqisi2
 213:/Users/imashio/Electronics/ARM/_Library/u8g2_setup.c ****   xx -= x;
 214:/Users/imashio/Electronics/ARM/_Library/u8g2_setup.c ****   if ( (dir & 1) == 0 )
 215:/Users/imashio/Electronics/ARM/_Library/u8g2_setup.c ****   {
 216:/Users/imashio/Electronics/ARM/_Library/u8g2_setup.c ****     xx -= len;
 217:/Users/imashio/Electronics/ARM/_Library/u8g2_setup.c ****   }
 218:/Users/imashio/Electronics/ARM/_Library/u8g2_setup.c ****   else
 219:/Users/imashio/Electronics/ARM/_Library/u8g2_setup.c ****   {
ARM GAS  /var/folders/v3/wysfpd052nz8jkbx04pk0ym80000gn/T//cc1s3eL5.s 			page 12


 220:/Users/imashio/Electronics/ARM/_Library/u8g2_setup.c ****     xx--;
 221:/Users/imashio/Electronics/ARM/_Library/u8g2_setup.c ****   }
 222:/Users/imashio/Electronics/ARM/_Library/u8g2_setup.c ****   u8g2_draw_hv_line_4dir(u8g2, xx, y, len, dir);
 392              		.loc 1 222 0
 393 000a 0295     		str	r5, [sp, #8]
 394              	.LVL27:
 213:/Users/imashio/Electronics/ARM/_Library/u8g2_setup.c ****   xx -= x;
 395              		.loc 1 213 0
 396 000c 611A     		subs	r1, r4, r1
 397              	.LVL28:
 398 000e C9B2     		uxtb	r1, r1
 399              	.LVL29:
 214:/Users/imashio/Electronics/ARM/_Library/u8g2_setup.c ****   {
 400              		.loc 1 214 0
 401 0010 EC07     		lsls	r4, r5, #31
 216:/Users/imashio/Electronics/ARM/_Library/u8g2_setup.c ****   }
 402              		.loc 1 216 0
 403 0012 54BF     		ite	pl
 404 0014 C91A     		subpl	r1, r1, r3
 405              	.LVL30:
 220:/Users/imashio/Electronics/ARM/_Library/u8g2_setup.c ****   }
 406              		.loc 1 220 0
 407 0016 01F1FF31 		addmi	r1, r1, #-1
 408 001a C9B2     		uxtb	r1, r1
 409              	.LVL31:
 223:/Users/imashio/Electronics/ARM/_Library/u8g2_setup.c **** }
 410              		.loc 1 223 0
 411 001c 30BC     		pop	{r4, r5}
 412              	.LCFI9:
 413              		.cfi_restore 5
 414              		.cfi_restore 4
 415              		.cfi_def_cfa_offset 0
 222:/Users/imashio/Electronics/ARM/_Library/u8g2_setup.c **** }
 416              		.loc 1 222 0
 417 001e FFF7FEBF 		b	u8g2_draw_hv_line_4dir
 418              	.LVL32:
 419              		.cfi_endproc
 420              	.LFE8:
 422 0022 00BF     		.section	.text.u8g2_draw_l90_r1,"ax",%progbits
 423              		.align	1
 424              		.p2align 2,,3
 425              		.global	u8g2_draw_l90_r1
 426              		.syntax unified
 427              		.thumb
 428              		.thumb_func
 429              		.fpu fpv4-sp-d16
 431              	u8g2_draw_l90_r1:
 432              	.LFB9:
 224:/Users/imashio/Electronics/ARM/_Library/u8g2_setup.c **** 
 225:/Users/imashio/Electronics/ARM/_Library/u8g2_setup.c **** 
 226:/Users/imashio/Electronics/ARM/_Library/u8g2_setup.c **** 
 227:/Users/imashio/Electronics/ARM/_Library/u8g2_setup.c **** void u8g2_draw_l90_r1(u8g2_t *u8g2, u8g2_uint_t x, u8g2_uint_t y, u8g2_uint_t len, uint8_t dir)
 228:/Users/imashio/Electronics/ARM/_Library/u8g2_setup.c **** {
 433              		.loc 1 228 0
 434              		.cfi_startproc
 435              		@ args = 4, pretend = 0, frame = 0
 436              		@ frame_needed = 0, uses_anonymous_args = 0
ARM GAS  /var/folders/v3/wysfpd052nz8jkbx04pk0ym80000gn/T//cc1s3eL5.s 			page 13


 437              		@ link register save eliminated.
 438              	.LVL33:
 439 0000 30B4     		push	{r4, r5}
 440              	.LCFI10:
 441              		.cfi_def_cfa_offset 8
 442              		.cfi_offset 4, -8
 443              		.cfi_offset 5, -4
 444              		.loc 1 228 0
 445 0002 9DF80840 		ldrb	r4, [sp, #8]	@ zero_extendqisi2
 229:/Users/imashio/Electronics/ARM/_Library/u8g2_setup.c ****   u8g2_uint_t xx, yy;
 230:/Users/imashio/Electronics/ARM/_Library/u8g2_setup.c ****   
 231:/Users/imashio/Electronics/ARM/_Library/u8g2_setup.c ****   yy = x;
 232:/Users/imashio/Electronics/ARM/_Library/u8g2_setup.c ****   
 233:/Users/imashio/Electronics/ARM/_Library/u8g2_setup.c ****   xx = u8g2->height;
 446              		.loc 1 233 0
 447 0006 90F84050 		ldrb	r5, [r0, #64]	@ zero_extendqisi2
 448              	.LVL34:
 234:/Users/imashio/Electronics/ARM/_Library/u8g2_setup.c ****   xx -= y;
 235:/Users/imashio/Electronics/ARM/_Library/u8g2_setup.c ****   xx--;
 449              		.loc 1 235 0
 450 000a D243     		mvns	r2, r2
 451              	.LVL35:
 236:/Users/imashio/Electronics/ARM/_Library/u8g2_setup.c ****   
 237:/Users/imashio/Electronics/ARM/_Library/u8g2_setup.c ****   dir ++;
 452              		.loc 1 237 0
 453 000c 0134     		adds	r4, r4, #1
 454              	.LVL36:
 235:/Users/imashio/Electronics/ARM/_Library/u8g2_setup.c ****   
 455              		.loc 1 235 0
 456 000e 1544     		add	r5, r5, r2
 457              	.LVL37:
 238:/Users/imashio/Electronics/ARM/_Library/u8g2_setup.c ****   dir &= 3;
 239:/Users/imashio/Electronics/ARM/_Library/u8g2_setup.c ****   u8g2_draw_hv_line_4dir(u8g2, xx, yy, len, dir);
 458              		.loc 1 239 0
 459 0010 04F00304 		and	r4, r4, #3
 460              	.LVL38:
 461 0014 0A46     		mov	r2, r1
 462 0016 0294     		str	r4, [sp, #8]
 463              	.LVL39:
 464 0018 E9B2     		uxtb	r1, r5
 465              	.LVL40:
 240:/Users/imashio/Electronics/ARM/_Library/u8g2_setup.c **** }
 466              		.loc 1 240 0
 467 001a 30BC     		pop	{r4, r5}
 468              	.LCFI11:
 469              		.cfi_restore 5
 470              		.cfi_restore 4
 471              		.cfi_def_cfa_offset 0
 239:/Users/imashio/Electronics/ARM/_Library/u8g2_setup.c **** }
 472              		.loc 1 239 0
 473 001c FFF7FEBF 		b	u8g2_draw_hv_line_4dir
 474              	.LVL41:
 475              		.cfi_endproc
 476              	.LFE9:
 478              		.section	.text.u8g2_draw_l90_r2,"ax",%progbits
 479              		.align	1
 480              		.p2align 2,,3
ARM GAS  /var/folders/v3/wysfpd052nz8jkbx04pk0ym80000gn/T//cc1s3eL5.s 			page 14


 481              		.global	u8g2_draw_l90_r2
 482              		.syntax unified
 483              		.thumb
 484              		.thumb_func
 485              		.fpu fpv4-sp-d16
 487              	u8g2_draw_l90_r2:
 488              	.LFB10:
 241:/Users/imashio/Electronics/ARM/_Library/u8g2_setup.c **** 
 242:/Users/imashio/Electronics/ARM/_Library/u8g2_setup.c **** void u8g2_draw_l90_r2(u8g2_t *u8g2, u8g2_uint_t x, u8g2_uint_t y, u8g2_uint_t len, uint8_t dir)
 243:/Users/imashio/Electronics/ARM/_Library/u8g2_setup.c **** {
 489              		.loc 1 243 0
 490              		.cfi_startproc
 491              		@ args = 4, pretend = 0, frame = 0
 492              		@ frame_needed = 0, uses_anonymous_args = 0
 493              		@ link register save eliminated.
 494              	.LVL42:
 495 0000 70B4     		push	{r4, r5, r6}
 496              	.LCFI12:
 497              		.cfi_def_cfa_offset 12
 498              		.cfi_offset 4, -12
 499              		.cfi_offset 5, -8
 500              		.cfi_offset 6, -4
 501              		.loc 1 243 0
 502 0002 9DF80C40 		ldrb	r4, [sp, #12]	@ zero_extendqisi2
 244:/Users/imashio/Electronics/ARM/_Library/u8g2_setup.c ****   u8g2_uint_t xx, yy;
 245:/Users/imashio/Electronics/ARM/_Library/u8g2_setup.c **** 
 246:/Users/imashio/Electronics/ARM/_Library/u8g2_setup.c ****   yy = u8g2->height;
 503              		.loc 1 246 0
 504 0006 90F84060 		ldrb	r6, [r0, #64]	@ zero_extendqisi2
 505              	.LVL43:
 247:/Users/imashio/Electronics/ARM/_Library/u8g2_setup.c ****   yy -= y;
 248:/Users/imashio/Electronics/ARM/_Library/u8g2_setup.c ****   yy--;
 249:/Users/imashio/Electronics/ARM/_Library/u8g2_setup.c ****   
 250:/Users/imashio/Electronics/ARM/_Library/u8g2_setup.c ****   xx = u8g2->width;
 506              		.loc 1 250 0
 507 000a 90F83F50 		ldrb	r5, [r0, #63]	@ zero_extendqisi2
 508              	.LVL44:
 248:/Users/imashio/Electronics/ARM/_Library/u8g2_setup.c ****   
 509              		.loc 1 248 0
 510 000e D243     		mvns	r2, r2
 511              	.LVL45:
 251:/Users/imashio/Electronics/ARM/_Library/u8g2_setup.c ****   xx -= x;
 252:/Users/imashio/Electronics/ARM/_Library/u8g2_setup.c ****   xx--;
 512              		.loc 1 252 0
 513 0010 C943     		mvns	r1, r1
 514              	.LVL46:
 253:/Users/imashio/Electronics/ARM/_Library/u8g2_setup.c ****   
 254:/Users/imashio/Electronics/ARM/_Library/u8g2_setup.c ****   dir +=2;
 515              		.loc 1 254 0
 516 0012 0234     		adds	r4, r4, #2
 517              	.LVL47:
 248:/Users/imashio/Electronics/ARM/_Library/u8g2_setup.c ****   
 518              		.loc 1 248 0
 519 0014 3244     		add	r2, r2, r6
 252:/Users/imashio/Electronics/ARM/_Library/u8g2_setup.c ****   
 520              		.loc 1 252 0
 521 0016 2944     		add	r1, r1, r5
ARM GAS  /var/folders/v3/wysfpd052nz8jkbx04pk0ym80000gn/T//cc1s3eL5.s 			page 15


 255:/Users/imashio/Electronics/ARM/_Library/u8g2_setup.c ****   dir &= 3;
 256:/Users/imashio/Electronics/ARM/_Library/u8g2_setup.c ****   u8g2_draw_hv_line_4dir(u8g2, xx, yy, len, dir);
 522              		.loc 1 256 0
 523 0018 04F00304 		and	r4, r4, #3
 524              	.LVL48:
 525 001c 0394     		str	r4, [sp, #12]
 526              	.LVL49:
 527 001e D2B2     		uxtb	r2, r2
 528 0020 C9B2     		uxtb	r1, r1
 257:/Users/imashio/Electronics/ARM/_Library/u8g2_setup.c **** }
 529              		.loc 1 257 0
 530 0022 70BC     		pop	{r4, r5, r6}
 531              	.LCFI13:
 532              		.cfi_restore 6
 533              		.cfi_restore 5
 534              		.cfi_restore 4
 535              		.cfi_def_cfa_offset 0
 536              	.LVL50:
 256:/Users/imashio/Electronics/ARM/_Library/u8g2_setup.c **** }
 537              		.loc 1 256 0
 538 0024 FFF7FEBF 		b	u8g2_draw_hv_line_4dir
 539              	.LVL51:
 540              		.cfi_endproc
 541              	.LFE10:
 543              		.section	.text.u8g2_draw_l90_r3,"ax",%progbits
 544              		.align	1
 545              		.p2align 2,,3
 546              		.global	u8g2_draw_l90_r3
 547              		.syntax unified
 548              		.thumb
 549              		.thumb_func
 550              		.fpu fpv4-sp-d16
 552              	u8g2_draw_l90_r3:
 553              	.LFB11:
 258:/Users/imashio/Electronics/ARM/_Library/u8g2_setup.c **** 
 259:/Users/imashio/Electronics/ARM/_Library/u8g2_setup.c **** void u8g2_draw_l90_r3(u8g2_t *u8g2, u8g2_uint_t x, u8g2_uint_t y, u8g2_uint_t len, uint8_t dir)
 260:/Users/imashio/Electronics/ARM/_Library/u8g2_setup.c **** {
 554              		.loc 1 260 0
 555              		.cfi_startproc
 556              		@ args = 4, pretend = 0, frame = 0
 557              		@ frame_needed = 0, uses_anonymous_args = 0
 558              		@ link register save eliminated.
 559              	.LVL52:
 560 0000 30B4     		push	{r4, r5}
 561              	.LCFI14:
 562              		.cfi_def_cfa_offset 8
 563              		.cfi_offset 4, -8
 564              		.cfi_offset 5, -4
 565              		.loc 1 260 0
 566 0002 9DF80840 		ldrb	r4, [sp, #8]	@ zero_extendqisi2
 261:/Users/imashio/Electronics/ARM/_Library/u8g2_setup.c ****   u8g2_uint_t xx, yy;
 262:/Users/imashio/Electronics/ARM/_Library/u8g2_setup.c **** 
 263:/Users/imashio/Electronics/ARM/_Library/u8g2_setup.c ****   xx = y;
 264:/Users/imashio/Electronics/ARM/_Library/u8g2_setup.c ****   
 265:/Users/imashio/Electronics/ARM/_Library/u8g2_setup.c ****   yy = u8g2->width;
 567              		.loc 1 265 0
 568 0006 90F83F50 		ldrb	r5, [r0, #63]	@ zero_extendqisi2
ARM GAS  /var/folders/v3/wysfpd052nz8jkbx04pk0ym80000gn/T//cc1s3eL5.s 			page 16


 266:/Users/imashio/Electronics/ARM/_Library/u8g2_setup.c ****   yy -= x;
 267:/Users/imashio/Electronics/ARM/_Library/u8g2_setup.c ****   yy--;
 569              		.loc 1 267 0
 570 000a C943     		mvns	r1, r1
 571              	.LVL53:
 268:/Users/imashio/Electronics/ARM/_Library/u8g2_setup.c ****   
 269:/Users/imashio/Electronics/ARM/_Library/u8g2_setup.c ****   dir +=3;
 572              		.loc 1 269 0
 573 000c 0334     		adds	r4, r4, #3
 574              	.LVL54:
 267:/Users/imashio/Electronics/ARM/_Library/u8g2_setup.c ****   
 575              		.loc 1 267 0
 576 000e 0D44     		add	r5, r5, r1
 577              	.LVL55:
 270:/Users/imashio/Electronics/ARM/_Library/u8g2_setup.c ****   dir &= 3;
 271:/Users/imashio/Electronics/ARM/_Library/u8g2_setup.c ****   u8g2_draw_hv_line_4dir(u8g2, xx, yy, len, dir);
 578              		.loc 1 271 0
 579 0010 04F00304 		and	r4, r4, #3
 580              	.LVL56:
 581 0014 1146     		mov	r1, r2
 582 0016 0294     		str	r4, [sp, #8]
 583              	.LVL57:
 584 0018 EAB2     		uxtb	r2, r5
 585              	.LVL58:
 272:/Users/imashio/Electronics/ARM/_Library/u8g2_setup.c **** }
 586              		.loc 1 272 0
 587 001a 30BC     		pop	{r4, r5}
 588              	.LCFI15:
 589              		.cfi_restore 5
 590              		.cfi_restore 4
 591              		.cfi_def_cfa_offset 0
 271:/Users/imashio/Electronics/ARM/_Library/u8g2_setup.c **** }
 592              		.loc 1 271 0
 593 001c FFF7FEBF 		b	u8g2_draw_hv_line_4dir
 594              	.LVL59:
 595              		.cfi_endproc
 596              	.LFE11:
 598              		.section	.text.u8g2_SetupBuffer,"ax",%progbits
 599              		.align	1
 600              		.p2align 2,,3
 601              		.global	u8g2_SetupBuffer
 602              		.syntax unified
 603              		.thumb
 604              		.thumb_func
 605              		.fpu fpv4-sp-d16
 607              	u8g2_SetupBuffer:
 608              	.LFB0:
  45:/Users/imashio/Electronics/ARM/_Library/u8g2_setup.c ****   u8g2->font = NULL;
 609              		.loc 1 45 0
 610              		.cfi_startproc
 611              		@ args = 4, pretend = 0, frame = 0
 612              		@ frame_needed = 0, uses_anonymous_args = 0
 613              	.LVL60:
 614 0000 38B5     		push	{r3, r4, r5, lr}
 615              	.LCFI16:
 616              		.cfi_def_cfa_offset 16
 617              		.cfi_offset 3, -16
ARM GAS  /var/folders/v3/wysfpd052nz8jkbx04pk0ym80000gn/T//cc1s3eL5.s 			page 17


 618              		.cfi_offset 4, -12
 619              		.cfi_offset 5, -8
 620              		.cfi_offset 14, -4
  54:/Users/imashio/Electronics/ARM/_Library/u8g2_setup.c ****   
 621              		.loc 1 54 0
 622 0002 80F83820 		strb	r2, [r0, #56]
  59:/Users/imashio/Electronics/ARM/_Library/u8g2_setup.c ****   
 623              		.loc 1 59 0
 624 0006 4FF48075 		mov	r5, #256
  61:/Users/imashio/Electronics/ARM/_Library/u8g2_setup.c ****   u8g2->is_auto_page_clear = 1;
 625              		.loc 1 61 0
 626 000a 0122     		movs	r2, #1
 627              	.LVL61:
  59:/Users/imashio/Electronics/ARM/_Library/u8g2_setup.c ****   
 628              		.loc 1 59 0
 629 000c A0F87C50 		strh	r5, [r0, #124]	@ movhi
  61:/Users/imashio/Electronics/ARM/_Library/u8g2_setup.c ****   u8g2->is_auto_page_clear = 1;
 630              		.loc 1 61 0
 631 0010 80F87E20 		strb	r2, [r0, #126]
  46:/Users/imashio/Electronics/ARM/_Library/u8g2_setup.c ****   //u8g2->kerning = NULL;
 632              		.loc 1 46 0
 633 0014 0025     		movs	r5, #0
  45:/Users/imashio/Electronics/ARM/_Library/u8g2_setup.c ****   u8g2->font = NULL;
 634              		.loc 1 45 0
 635 0016 049A     		ldr	r2, [sp, #16]
  56:/Users/imashio/Electronics/ARM/_Library/u8g2_setup.c ****   
 636              		.loc 1 56 0
 637 0018 80F83950 		strb	r5, [r0, #57]
  58:/Users/imashio/Electronics/ARM/_Library/u8g2_setup.c ****   u8g2->bitmap_transparency = 0;
 638              		.loc 1 58 0
 639 001c 80F85B50 		strb	r5, [r0, #91]
  45:/Users/imashio/Electronics/ARM/_Library/u8g2_setup.c ****   u8g2->font = NULL;
 640              		.loc 1 45 0
 641 0020 0446     		mov	r4, r0
  51:/Users/imashio/Electronics/ARM/_Library/u8g2_setup.c ****   
 642              		.loc 1 51 0
 643 0022 C362     		str	r3, [r0, #44]
  53:/Users/imashio/Electronics/ARM/_Library/u8g2_setup.c ****   u8g2->tile_buf_height = tile_buf_height;
 644              		.loc 1 53 0
 645 0024 4163     		str	r1, [r0, #52]
  64:/Users/imashio/Electronics/ARM/_Library/u8g2_setup.c ****   u8g2->cb->update(u8g2);
 646              		.loc 1 64 0
 647 0026 0263     		str	r2, [r0, #48]
  46:/Users/imashio/Electronics/ARM/_Library/u8g2_setup.c ****   //u8g2->kerning = NULL;
 648              		.loc 1 46 0
 649 0028 8564     		str	r5, [r0, #72]
  65:/Users/imashio/Electronics/ARM/_Library/u8g2_setup.c **** 
 650              		.loc 1 65 0
 651 002a 1368     		ldr	r3, [r2]
 652              	.LVL62:
 653 002c 9847     		blx	r3
 654              	.LVL63:
  67:/Users/imashio/Electronics/ARM/_Library/u8g2_setup.c ****   
 655              		.loc 1 67 0
 656 002e 2046     		mov	r0, r4
 657 0030 FFF7FEFF 		bl	u8g2_SetFontPosBaseline
 658              	.LVL64:
ARM GAS  /var/folders/v3/wysfpd052nz8jkbx04pk0ym80000gn/T//cc1s3eL5.s 			page 18


  70:/Users/imashio/Electronics/ARM/_Library/u8g2_setup.c **** #endif
 659              		.loc 1 70 0
 660 0034 84F85E50 		strb	r5, [r4, #94]
  72:/Users/imashio/Electronics/ARM/_Library/u8g2_setup.c **** 
 661              		.loc 1 72 0
 662 0038 38BD     		pop	{r3, r4, r5, pc}
 663              		.cfi_endproc
 664              	.LFE0:
 666 003a 00BF     		.section	.text.u8g2_SetDisplayRotation,"ax",%progbits
 667              		.align	1
 668              		.p2align 2,,3
 669              		.global	u8g2_SetDisplayRotation
 670              		.syntax unified
 671              		.thumb
 672              		.thumb_func
 673              		.fpu fpv4-sp-d16
 675              	u8g2_SetDisplayRotation:
 676              	.LFB1:
  79:/Users/imashio/Electronics/ARM/_Library/u8g2_setup.c ****   u8g2->cb = u8g2_cb;
 677              		.loc 1 79 0
 678              		.cfi_startproc
 679              		@ args = 0, pretend = 0, frame = 0
 680              		@ frame_needed = 0, uses_anonymous_args = 0
 681              		@ link register save eliminated.
 682              	.LVL65:
  80:/Users/imashio/Electronics/ARM/_Library/u8g2_setup.c ****   u8g2->cb->update(u8g2);
 683              		.loc 1 80 0
 684 0000 0163     		str	r1, [r0, #48]
  81:/Users/imashio/Electronics/ARM/_Library/u8g2_setup.c **** }
 685              		.loc 1 81 0
 686 0002 0B68     		ldr	r3, [r1]
 687 0004 1847     		bx	r3	@ indirect register sibling call
 688              	.LVL66:
 689              		.cfi_endproc
 690              	.LFE1:
 692              		.global	u8g2_cb_mirror
 693              		.global	u8g2_cb_r3
 694              		.global	u8g2_cb_r2
 695              		.global	u8g2_cb_r1
 696              		.global	u8g2_cb_r0
 697 0006 00BF     		.section	.rodata.u8g2_cb_mirror,"a",%progbits
 698              		.align	2
 701              	u8g2_cb_mirror:
 702 0000 00000000 		.word	u8g2_update_dimension_r0
 703 0004 00000000 		.word	u8g2_draw_l90_mirrorr_r0
 704              		.section	.rodata.u8g2_cb_r0,"a",%progbits
 705              		.align	2
 708              	u8g2_cb_r0:
 709 0000 00000000 		.word	u8g2_update_dimension_r0
 710 0004 00000000 		.word	u8g2_draw_l90_r0
 711              		.section	.rodata.u8g2_cb_r1,"a",%progbits
 712              		.align	2
 715              	u8g2_cb_r1:
 716 0000 00000000 		.word	u8g2_update_dimension_r1
 717 0004 00000000 		.word	u8g2_draw_l90_r1
 718              		.section	.rodata.u8g2_cb_r2,"a",%progbits
 719              		.align	2
ARM GAS  /var/folders/v3/wysfpd052nz8jkbx04pk0ym80000gn/T//cc1s3eL5.s 			page 19


 722              	u8g2_cb_r2:
 723 0000 00000000 		.word	u8g2_update_dimension_r2
 724 0004 00000000 		.word	u8g2_draw_l90_r2
 725              		.section	.rodata.u8g2_cb_r3,"a",%progbits
 726              		.align	2
 729              	u8g2_cb_r3:
 730 0000 00000000 		.word	u8g2_update_dimension_r3
 731 0004 00000000 		.word	u8g2_draw_l90_r3
 732              		.text
 733              	.Letext0:
 734              		.file 2 "/usr/local/gcc-arm-none-eabi-7-2018-q2-update/arm-none-eabi/include/machine/_default_type
 735              		.file 3 "/usr/local/gcc-arm-none-eabi-7-2018-q2-update/arm-none-eabi/include/sys/_stdint.h"
 736              		.file 4 "/Users/imashio/Electronics/ARM/_Library/u8x8.h"
 737              		.file 5 "/Users/imashio/Electronics/ARM/_Library/u8g2.h"
 738              		.file 6 "/usr/local/gcc-arm-none-eabi-7-2018-q2-update/arm-none-eabi/include/sys/lock.h"
 739              		.file 7 "/usr/local/gcc-arm-none-eabi-7-2018-q2-update/arm-none-eabi/include/sys/_types.h"
 740              		.file 8 "/usr/local/gcc-arm-none-eabi-7-2018-q2-update/lib/gcc/arm-none-eabi/7.3.1/include/stddef.
 741              		.file 9 "/usr/local/gcc-arm-none-eabi-7-2018-q2-update/arm-none-eabi/include/sys/reent.h"
ARM GAS  /var/folders/v3/wysfpd052nz8jkbx04pk0ym80000gn/T//cc1s3eL5.s 			page 20

