ARM GAS  /var/folders/v3/wysfpd052nz8jkbx04pk0ym80000gn/T//ccTfFRVS.s 			page 1


   1              		.cpu cortex-m4
   2              		.eabi_attribute 27, 1
   3              		.eabi_attribute 28, 1
   4              		.eabi_attribute 20, 1
   5              		.eabi_attribute 21, 1
   6              		.eabi_attribute 23, 3
   7              		.eabi_attribute 24, 1
   8              		.eabi_attribute 25, 1
   9              		.eabi_attribute 26, 1
  10              		.eabi_attribute 30, 2
  11              		.eabi_attribute 34, 1
  12              		.eabi_attribute 18, 4
  13              		.file	"u8g2_message.c"
  14              		.text
  15              	.Ltext0:
  16              		.cfi_sections	.debug_frame
  17              		.section	.text.u8g2_draw_button_line,"ax",%progbits
  18              		.align	1
  19              		.p2align 2,,3
  20              		.global	u8g2_draw_button_line
  21              		.syntax unified
  22              		.thumb
  23              		.thumb_func
  24              		.fpu fpv4-sp-d16
  26              	u8g2_draw_button_line:
  27              	.LFB0:
  28              		.file 1 "/Users/imashio/Electronics/ARM/_Library/u8g2_message.c"
   1:/Users/imashio/Electronics/ARM/_Library/u8g2_message.c **** /*
   2:/Users/imashio/Electronics/ARM/_Library/u8g2_message.c **** 
   3:/Users/imashio/Electronics/ARM/_Library/u8g2_message.c ****   u8g2_message.c
   4:/Users/imashio/Electronics/ARM/_Library/u8g2_message.c ****   
   5:/Users/imashio/Electronics/ARM/_Library/u8g2_message.c ****   Universal 8bit Graphics Library (https://github.com/olikraus/u8g2/)
   6:/Users/imashio/Electronics/ARM/_Library/u8g2_message.c **** 
   7:/Users/imashio/Electronics/ARM/_Library/u8g2_message.c ****   Copyright (c) 2016, olikraus@gmail.com
   8:/Users/imashio/Electronics/ARM/_Library/u8g2_message.c ****   All rights reserved.
   9:/Users/imashio/Electronics/ARM/_Library/u8g2_message.c **** 
  10:/Users/imashio/Electronics/ARM/_Library/u8g2_message.c ****   Redistribution and use in source and binary forms, with or without modification, 
  11:/Users/imashio/Electronics/ARM/_Library/u8g2_message.c ****   are permitted provided that the following conditions are met:
  12:/Users/imashio/Electronics/ARM/_Library/u8g2_message.c **** 
  13:/Users/imashio/Electronics/ARM/_Library/u8g2_message.c ****   * Redistributions of source code must retain the above copyright notice, this list 
  14:/Users/imashio/Electronics/ARM/_Library/u8g2_message.c ****     of conditions and the following disclaimer.
  15:/Users/imashio/Electronics/ARM/_Library/u8g2_message.c ****     
  16:/Users/imashio/Electronics/ARM/_Library/u8g2_message.c ****   * Redistributions in binary form must reproduce the above copyright notice, this 
  17:/Users/imashio/Electronics/ARM/_Library/u8g2_message.c ****     list of conditions and the following disclaimer in the documentation and/or other 
  18:/Users/imashio/Electronics/ARM/_Library/u8g2_message.c ****     materials provided with the distribution.
  19:/Users/imashio/Electronics/ARM/_Library/u8g2_message.c **** 
  20:/Users/imashio/Electronics/ARM/_Library/u8g2_message.c ****   THIS SOFTWARE IS PROVIDED BY THE COPYRIGHT HOLDERS AND 
  21:/Users/imashio/Electronics/ARM/_Library/u8g2_message.c ****   CONTRIBUTORS "AS IS" AND ANY EXPRESS OR IMPLIED WARRANTIES, 
  22:/Users/imashio/Electronics/ARM/_Library/u8g2_message.c ****   INCLUDING, BUT NOT LIMITED TO, THE IMPLIED WARRANTIES OF 
  23:/Users/imashio/Electronics/ARM/_Library/u8g2_message.c ****   MERCHANTABILITY AND FITNESS FOR A PARTICULAR PURPOSE ARE 
  24:/Users/imashio/Electronics/ARM/_Library/u8g2_message.c ****   DISCLAIMED. IN NO EVENT SHALL THE COPYRIGHT HOLDER OR 
  25:/Users/imashio/Electronics/ARM/_Library/u8g2_message.c ****   CONTRIBUTORS BE LIABLE FOR ANY DIRECT, INDIRECT, INCIDENTAL, 
  26:/Users/imashio/Electronics/ARM/_Library/u8g2_message.c ****   SPECIAL, EXEMPLARY, OR CONSEQUENTIAL DAMAGES (INCLUDING, BUT 
  27:/Users/imashio/Electronics/ARM/_Library/u8g2_message.c ****   NOT LIMITED TO, PROCUREMENT OF SUBSTITUTE GOODS OR SERVICES; 
  28:/Users/imashio/Electronics/ARM/_Library/u8g2_message.c ****   LOSS OF USE, DATA, OR PROFITS; OR BUSINESS INTERRUPTION) HOWEVER 
  29:/Users/imashio/Electronics/ARM/_Library/u8g2_message.c ****   CAUSED AND ON ANY THEORY OF LIABILITY, WHETHER IN CONTRACT, 
  30:/Users/imashio/Electronics/ARM/_Library/u8g2_message.c ****   STRICT LIABILITY, OR TORT (INCLUDING NEGLIGENCE OR OTHERWISE) 
ARM GAS  /var/folders/v3/wysfpd052nz8jkbx04pk0ym80000gn/T//ccTfFRVS.s 			page 2


  31:/Users/imashio/Electronics/ARM/_Library/u8g2_message.c ****   ARISING IN ANY WAY OUT OF THE USE OF THIS SOFTWARE, EVEN IF 
  32:/Users/imashio/Electronics/ARM/_Library/u8g2_message.c ****   ADVISED OF THE POSSIBILITY OF SUCH DAMAGE.  
  33:/Users/imashio/Electronics/ARM/_Library/u8g2_message.c ****   
  34:/Users/imashio/Electronics/ARM/_Library/u8g2_message.c **** */
  35:/Users/imashio/Electronics/ARM/_Library/u8g2_message.c **** 
  36:/Users/imashio/Electronics/ARM/_Library/u8g2_message.c **** #include "u8g2.h"
  37:/Users/imashio/Electronics/ARM/_Library/u8g2_message.c **** 
  38:/Users/imashio/Electronics/ARM/_Library/u8g2_message.c **** #define SPACE_BETWEEN_BUTTONS_IN_PIXEL 6
  39:/Users/imashio/Electronics/ARM/_Library/u8g2_message.c **** #define SPACE_BETWEEN_TEXT_AND_BUTTONS_IN_PIXEL 3
  40:/Users/imashio/Electronics/ARM/_Library/u8g2_message.c **** 
  41:/Users/imashio/Electronics/ARM/_Library/u8g2_message.c **** uint8_t u8g2_draw_button_line(u8g2_t *u8g2, u8g2_uint_t y, u8g2_uint_t w, uint8_t cursor, const cha
  42:/Users/imashio/Electronics/ARM/_Library/u8g2_message.c **** {
  29              		.loc 1 42 0
  30              		.cfi_startproc
  31              		@ args = 4, pretend = 0, frame = 8
  32              		@ frame_needed = 0, uses_anonymous_args = 0
  33              	.LVL0:
  34 0000 2DE9F04F 		push	{r4, r5, r6, r7, r8, r9, r10, fp, lr}
  35              	.LCFI0:
  36              		.cfi_def_cfa_offset 36
  37              		.cfi_offset 4, -36
  38              		.cfi_offset 5, -32
  39              		.cfi_offset 6, -28
  40              		.cfi_offset 7, -24
  41              		.cfi_offset 8, -20
  42              		.cfi_offset 9, -16
  43              		.cfi_offset 10, -12
  44              		.cfi_offset 11, -8
  45              		.cfi_offset 14, -4
  46 0004 87B0     		sub	sp, sp, #28
  47              	.LCFI1:
  48              		.cfi_def_cfa_offset 64
  49              		.loc 1 42 0
  50 0006 8046     		mov	r8, r0
  51 0008 109E     		ldr	r6, [sp, #64]
  52 000a 0592     		str	r2, [sp, #20]
  43:/Users/imashio/Electronics/ARM/_Library/u8g2_message.c ****   u8g2_uint_t button_line_width;
  44:/Users/imashio/Electronics/ARM/_Library/u8g2_message.c **** 	
  45:/Users/imashio/Electronics/ARM/_Library/u8g2_message.c ****   uint8_t i;
  46:/Users/imashio/Electronics/ARM/_Library/u8g2_message.c ****   uint8_t cnt;
  47:/Users/imashio/Electronics/ARM/_Library/u8g2_message.c ****   uint8_t is_invert;
  48:/Users/imashio/Electronics/ARM/_Library/u8g2_message.c **** 	
  49:/Users/imashio/Electronics/ARM/_Library/u8g2_message.c ****   u8g2_uint_t d;
  50:/Users/imashio/Electronics/ARM/_Library/u8g2_message.c ****   u8g2_uint_t x;
  51:/Users/imashio/Electronics/ARM/_Library/u8g2_message.c **** 	
  52:/Users/imashio/Electronics/ARM/_Library/u8g2_message.c ****   cnt = u8x8_GetStringLineCnt(s);
  53              		.loc 1 52 0
  54 000c 3046     		mov	r0, r6
  55              	.LVL1:
  42:/Users/imashio/Electronics/ARM/_Library/u8g2_message.c ****   u8g2_uint_t button_line_width;
  56              		.loc 1 42 0
  57 000e 8A46     		mov	r10, r1
  58 0010 9B46     		mov	fp, r3
  59              		.loc 1 52 0
  60 0012 FFF7FEFF 		bl	u8x8_GetStringLineCnt
  61              	.LVL2:
  62 0016 00EB4004 		add	r4, r0, r0, lsl #1
ARM GAS  /var/folders/v3/wysfpd052nz8jkbx04pk0ym80000gn/T//ccTfFRVS.s 			page 3


  63 001a 6400     		lsls	r4, r4, #1
  64 001c 063C     		subs	r4, r4, #6
  65 001e 8146     		mov	r9, r0
  66              	.LVL3:
  67 0020 E4B2     		uxtb	r4, r4
  53:/Users/imashio/Electronics/ARM/_Library/u8g2_message.c ****   
  54:/Users/imashio/Electronics/ARM/_Library/u8g2_message.c **** 	
  55:/Users/imashio/Electronics/ARM/_Library/u8g2_message.c ****   /* calculate the width of the button line */
  56:/Users/imashio/Electronics/ARM/_Library/u8g2_message.c ****   button_line_width = 0;
  57:/Users/imashio/Electronics/ARM/_Library/u8g2_message.c ****   for( i = 0; i < cnt; i++ )
  68              		.loc 1 57 0
  69 0022 0028     		cmp	r0, #0
  70 0024 46D0     		beq	.L2
  71 0026 0027     		movs	r7, #0
  56:/Users/imashio/Electronics/ARM/_Library/u8g2_message.c ****   for( i = 0; i < cnt; i++ )
  72              		.loc 1 56 0
  73 0028 3D46     		mov	r5, r7
  74 002a 3846     		mov	r0, r7
  75              	.LVL4:
  76              	.L3:
  58:/Users/imashio/Electronics/ARM/_Library/u8g2_message.c ****   {
  59:/Users/imashio/Electronics/ARM/_Library/u8g2_message.c ****     button_line_width += u8g2_GetUTF8Width(u8g2, u8x8_GetStringLineStart(i, s));
  77              		.loc 1 59 0 discriminator 3
  78 002c 3146     		mov	r1, r6
  79 002e FFF7FEFF 		bl	u8x8_GetStringLineStart
  80              	.LVL5:
  81 0032 0146     		mov	r1, r0
  82 0034 4046     		mov	r0, r8
  83 0036 FFF7FEFF 		bl	u8g2_GetUTF8Width
  84              	.LVL6:
  85 003a 0137     		adds	r7, r7, #1
  86              	.LVL7:
  87 003c 0544     		add	r5, r5, r0
  88              	.LVL8:
  57:/Users/imashio/Electronics/ARM/_Library/u8g2_message.c ****   {
  89              		.loc 1 57 0 discriminator 3
  90 003e F8B2     		uxtb	r0, r7
  91 0040 4845     		cmp	r0, r9
  92              		.loc 1 59 0 discriminator 3
  93 0042 EDB2     		uxtb	r5, r5
  94              	.LVL9:
  57:/Users/imashio/Electronics/ARM/_Library/u8g2_message.c ****   {
  95              		.loc 1 57 0 discriminator 3
  96 0044 F2D3     		bcc	.L3
  60:/Users/imashio/Electronics/ARM/_Library/u8g2_message.c ****   }
  61:/Users/imashio/Electronics/ARM/_Library/u8g2_message.c ****   button_line_width += (cnt-1)*SPACE_BETWEEN_BUTTONS_IN_PIXEL;	/* add some space between the button
  97              		.loc 1 61 0
  98 0046 2C44     		add	r4, r4, r5
  62:/Users/imashio/Electronics/ARM/_Library/u8g2_message.c ****   
  63:/Users/imashio/Electronics/ARM/_Library/u8g2_message.c ****   /* calculate the left offset */
  64:/Users/imashio/Electronics/ARM/_Library/u8g2_message.c ****   d = 0;
  65:/Users/imashio/Electronics/ARM/_Library/u8g2_message.c ****   if ( button_line_width < w )
  99              		.loc 1 65 0
 100 0048 059B     		ldr	r3, [sp, #20]
  61:/Users/imashio/Electronics/ARM/_Library/u8g2_message.c ****   
 101              		.loc 1 61 0
 102 004a E4B2     		uxtb	r4, r4
ARM GAS  /var/folders/v3/wysfpd052nz8jkbx04pk0ym80000gn/T//ccTfFRVS.s 			page 4


 103              	.LVL10:
 104              		.loc 1 65 0
 105 004c 9C42     		cmp	r4, r3
 106 004e 2FD2     		bcs	.L8
 107              	.LVL11:
 108              	.L7:
  66:/Users/imashio/Electronics/ARM/_Library/u8g2_message.c ****   {
  67:/Users/imashio/Electronics/ARM/_Library/u8g2_message.c ****     d = w;
  68:/Users/imashio/Electronics/ARM/_Library/u8g2_message.c ****     d -= button_line_width;
 109              		.loc 1 68 0
 110 0050 059B     		ldr	r3, [sp, #20]
 111 0052 1C1B     		subs	r4, r3, r4
 112              	.LVL12:
  69:/Users/imashio/Electronics/ARM/_Library/u8g2_message.c ****     d /= 2;
 113              		.loc 1 69 0
 114 0054 C4F34604 		ubfx	r4, r4, #1, #7
 115              	.LVL13:
  70:/Users/imashio/Electronics/ARM/_Library/u8g2_message.c ****   }
  71:/Users/imashio/Electronics/ARM/_Library/u8g2_message.c ****   
  72:/Users/imashio/Electronics/ARM/_Library/u8g2_message.c ****   /* draw the buttons */
  73:/Users/imashio/Electronics/ARM/_Library/u8g2_message.c ****   x = d;
  74:/Users/imashio/Electronics/ARM/_Library/u8g2_message.c ****   for( i = 0; i < cnt; i++ )
 116              		.loc 1 74 0
 117 0058 B9F1000F 		cmp	r9, #0
 118 005c 24D0     		beq	.L9
 119              	.LVL14:
 120              	.L4:
  64:/Users/imashio/Electronics/ARM/_Library/u8g2_message.c ****   if ( button_line_width < w )
 121              		.loc 1 64 0
 122 005e 0027     		movs	r7, #0
 123 0060 3D46     		mov	r5, r7
 124              	.L6:
 125              	.LVL15:
  75:/Users/imashio/Electronics/ARM/_Library/u8g2_message.c ****   {
  76:/Users/imashio/Electronics/ARM/_Library/u8g2_message.c ****     is_invert = 0;
  77:/Users/imashio/Electronics/ARM/_Library/u8g2_message.c ****     if ( i == cursor )
  78:/Users/imashio/Electronics/ARM/_Library/u8g2_message.c ****       is_invert = 1;
  79:/Users/imashio/Electronics/ARM/_Library/u8g2_message.c **** 
  80:/Users/imashio/Electronics/ARM/_Library/u8g2_message.c ****     u8g2_DrawUTF8Line(u8g2, x, y, 0, u8x8_GetStringLineStart(i, s), 1, is_invert);
 126              		.loc 1 80 0
 127 0062 3146     		mov	r1, r6
 128 0064 2846     		mov	r0, r5
 129 0066 FFF7FEFF 		bl	u8x8_GetStringLineStart
 130              	.LVL16:
 131 006a ABEB0503 		sub	r3, fp, r5
 132 006e B3FA83F3 		clz	r3, r3
 133 0072 5B09     		lsrs	r3, r3, #5
 134 0074 0122     		movs	r2, #1
 135 0076 CDE90123 		strd	r2, r3, [sp, #4]
 136 007a 2146     		mov	r1, r4
 137 007c 0023     		movs	r3, #0
 138 007e 5246     		mov	r2, r10
 139 0080 0090     		str	r0, [sp]
 140 0082 4046     		mov	r0, r8
 141 0084 FFF7FEFF 		bl	u8g2_DrawUTF8Line
 142              	.LVL17:
  81:/Users/imashio/Electronics/ARM/_Library/u8g2_message.c ****     x += u8g2_GetUTF8Width(u8g2, u8x8_GetStringLineStart(i, s));
ARM GAS  /var/folders/v3/wysfpd052nz8jkbx04pk0ym80000gn/T//ccTfFRVS.s 			page 5


 143              		.loc 1 81 0
 144 0088 3146     		mov	r1, r6
 145 008a 2846     		mov	r0, r5
 146 008c FFF7FEFF 		bl	u8x8_GetStringLineStart
 147              	.LVL18:
 148 0090 0146     		mov	r1, r0
 149 0092 4046     		mov	r0, r8
 150 0094 FFF7FEFF 		bl	u8g2_GetUTF8Width
 151              	.LVL19:
 152 0098 0137     		adds	r7, r7, #1
 153 009a 0444     		add	r4, r4, r0
 154              	.LVL20:
  74:/Users/imashio/Electronics/ARM/_Library/u8g2_message.c ****   {
 155              		.loc 1 74 0
 156 009c FDB2     		uxtb	r5, r7
 157              	.LVL21:
  82:/Users/imashio/Electronics/ARM/_Library/u8g2_message.c ****     x += SPACE_BETWEEN_BUTTONS_IN_PIXEL;
 158              		.loc 1 82 0
 159 009e 0634     		adds	r4, r4, #6
 160              	.LVL22:
  74:/Users/imashio/Electronics/ARM/_Library/u8g2_message.c ****   {
 161              		.loc 1 74 0
 162 00a0 4D45     		cmp	r5, r9
 163              		.loc 1 82 0
 164 00a2 04F0FF04 		and	r4, r4, #255
 165              	.LVL23:
  74:/Users/imashio/Electronics/ARM/_Library/u8g2_message.c ****   {
 166              		.loc 1 74 0
 167 00a6 DCD3     		bcc	.L6
 168              	.LVL24:
 169              	.L9:
  83:/Users/imashio/Electronics/ARM/_Library/u8g2_message.c ****   }
  84:/Users/imashio/Electronics/ARM/_Library/u8g2_message.c ****   
  85:/Users/imashio/Electronics/ARM/_Library/u8g2_message.c ****   /* return the number of buttons */
  86:/Users/imashio/Electronics/ARM/_Library/u8g2_message.c ****   return cnt;
  87:/Users/imashio/Electronics/ARM/_Library/u8g2_message.c **** }
 170              		.loc 1 87 0
 171 00a8 4846     		mov	r0, r9
 172 00aa 07B0     		add	sp, sp, #28
 173              	.LCFI2:
 174              		.cfi_remember_state
 175              		.cfi_def_cfa_offset 36
 176              		@ sp needed
 177 00ac BDE8F08F 		pop	{r4, r5, r6, r7, r8, r9, r10, fp, pc}
 178              	.LVL25:
 179              	.L8:
 180              	.LCFI3:
 181              		.cfi_restore_state
  64:/Users/imashio/Electronics/ARM/_Library/u8g2_message.c ****   if ( button_line_width < w )
 182              		.loc 1 64 0
 183 00b0 0024     		movs	r4, #0
 184              	.LVL26:
 185 00b2 D4E7     		b	.L4
 186              	.LVL27:
 187              	.L2:
  65:/Users/imashio/Electronics/ARM/_Library/u8g2_message.c ****   {
 188              		.loc 1 65 0
ARM GAS  /var/folders/v3/wysfpd052nz8jkbx04pk0ym80000gn/T//ccTfFRVS.s 			page 6


 189 00b4 059B     		ldr	r3, [sp, #20]
 190 00b6 9C42     		cmp	r4, r3
 191 00b8 CAD3     		bcc	.L7
 192 00ba F5E7     		b	.L9
 193              		.cfi_endproc
 194              	.LFE0:
 196              		.section	.text.u8g2_UserInterfaceMessage,"ax",%progbits
 197              		.align	1
 198              		.p2align 2,,3
 199              		.global	u8g2_UserInterfaceMessage
 200              		.syntax unified
 201              		.thumb
 202              		.thumb_func
 203              		.fpu fpv4-sp-d16
 205              	u8g2_UserInterfaceMessage:
 206              	.LFB1:
  88:/Users/imashio/Electronics/ARM/_Library/u8g2_message.c **** 
  89:/Users/imashio/Electronics/ARM/_Library/u8g2_message.c **** /*
  90:/Users/imashio/Electronics/ARM/_Library/u8g2_message.c ****   title1:	Multiple lines,separated by '\n'
  91:/Users/imashio/Electronics/ARM/_Library/u8g2_message.c ****   title2:	A single line/string which is terminated by '\0' or '\n' . "title2" accepts the return va
  92:/Users/imashio/Electronics/ARM/_Library/u8g2_message.c ****   title3:	Multiple lines,separated by '\n'
  93:/Users/imashio/Electronics/ARM/_Library/u8g2_message.c ****   buttons:	one more more buttons separated by '\n' and terminated with '\0'
  94:/Users/imashio/Electronics/ARM/_Library/u8g2_message.c ****   side effects:
  95:/Users/imashio/Electronics/ARM/_Library/u8g2_message.c ****     u8g2_SetFontDirection(u8g2, 0);
  96:/Users/imashio/Electronics/ARM/_Library/u8g2_message.c ****     u8g2_SetFontPosBaseline(u8g2);
  97:/Users/imashio/Electronics/ARM/_Library/u8g2_message.c **** */
  98:/Users/imashio/Electronics/ARM/_Library/u8g2_message.c **** 
  99:/Users/imashio/Electronics/ARM/_Library/u8g2_message.c **** uint8_t u8g2_UserInterfaceMessage(u8g2_t *u8g2, const char *title1, const char *title2, const char 
 100:/Users/imashio/Electronics/ARM/_Library/u8g2_message.c **** {
 207              		.loc 1 100 0
 208              		.cfi_startproc
 209              		@ args = 4, pretend = 0, frame = 8
 210              		@ frame_needed = 0, uses_anonymous_args = 0
 211              	.LVL28:
 212 0000 2DE9F04F 		push	{r4, r5, r6, r7, r8, r9, r10, fp, lr}
 213              	.LCFI4:
 214              		.cfi_def_cfa_offset 36
 215              		.cfi_offset 4, -36
 216              		.cfi_offset 5, -32
 217              		.cfi_offset 6, -28
 218              		.cfi_offset 7, -24
 219              		.cfi_offset 8, -20
 220              		.cfi_offset 9, -16
 221              		.cfi_offset 10, -12
 222              		.cfi_offset 11, -8
 223              		.cfi_offset 14, -4
 224 0004 87B0     		sub	sp, sp, #28
 225              	.LCFI5:
 226              		.cfi_def_cfa_offset 64
 227              		.loc 1 100 0
 228 0006 0446     		mov	r4, r0
 229 0008 0D46     		mov	r5, r1
 230 000a 0591     		str	r1, [sp, #20]
 101:/Users/imashio/Electronics/ARM/_Library/u8g2_message.c ****   uint8_t height;
 102:/Users/imashio/Electronics/ARM/_Library/u8g2_message.c ****   uint8_t line_height;
 103:/Users/imashio/Electronics/ARM/_Library/u8g2_message.c ****   u8g2_uint_t pixel_height;
 104:/Users/imashio/Electronics/ARM/_Library/u8g2_message.c ****   u8g2_uint_t y, yy;
ARM GAS  /var/folders/v3/wysfpd052nz8jkbx04pk0ym80000gn/T//ccTfFRVS.s 			page 7


 105:/Users/imashio/Electronics/ARM/_Library/u8g2_message.c **** 	
 106:/Users/imashio/Electronics/ARM/_Library/u8g2_message.c ****   uint8_t cursor = 0;
 107:/Users/imashio/Electronics/ARM/_Library/u8g2_message.c ****   uint8_t button_cnt;
 108:/Users/imashio/Electronics/ARM/_Library/u8g2_message.c ****   uint8_t event;
 109:/Users/imashio/Electronics/ARM/_Library/u8g2_message.c **** 	
 110:/Users/imashio/Electronics/ARM/_Library/u8g2_message.c ****   /* only horizontal strings are supported, so force this here */
 111:/Users/imashio/Electronics/ARM/_Library/u8g2_message.c ****   u8g2_SetFontDirection(u8g2, 0);
 231              		.loc 1 111 0
 232 000c 0021     		movs	r1, #0
 233              	.LVL29:
 100:/Users/imashio/Electronics/ARM/_Library/u8g2_message.c ****   uint8_t height;
 234              		.loc 1 100 0
 235 000e 9146     		mov	r9, r2
 236 0010 0493     		str	r3, [sp, #16]
 237              		.loc 1 111 0
 238 0012 FFF7FEFF 		bl	u8g2_SetFontDirection
 239              	.LVL30:
 112:/Users/imashio/Electronics/ARM/_Library/u8g2_message.c **** 
 113:/Users/imashio/Electronics/ARM/_Library/u8g2_message.c ****   /* force baseline position */
 114:/Users/imashio/Electronics/ARM/_Library/u8g2_message.c ****   u8g2_SetFontPosBaseline(u8g2);
 240              		.loc 1 114 0
 241 0016 2046     		mov	r0, r4
 242 0018 FFF7FEFF 		bl	u8g2_SetFontPosBaseline
 243              	.LVL31:
 115:/Users/imashio/Electronics/ARM/_Library/u8g2_message.c **** 	
 116:/Users/imashio/Electronics/ARM/_Library/u8g2_message.c **** 	
 117:/Users/imashio/Electronics/ARM/_Library/u8g2_message.c ****   /* calculate line height */
 118:/Users/imashio/Electronics/ARM/_Library/u8g2_message.c ****   line_height = u8g2_GetAscent(u8g2);
 244              		.loc 1 118 0
 245 001c 94F87970 		ldrb	r7, [r4, #121]	@ zero_extendqisi2
 246              	.LVL32:
 119:/Users/imashio/Electronics/ARM/_Library/u8g2_message.c ****   line_height -= u8g2_GetDescent(u8g2);
 247              		.loc 1 119 0
 248 0020 94F87A30 		ldrb	r3, [r4, #122]	@ zero_extendqisi2
 120:/Users/imashio/Electronics/ARM/_Library/u8g2_message.c **** 
 121:/Users/imashio/Electronics/ARM/_Library/u8g2_message.c ****   /* calculate overall height of the message box in lines*/
 122:/Users/imashio/Electronics/ARM/_Library/u8g2_message.c ****   height = 1;	/* button line */
 123:/Users/imashio/Electronics/ARM/_Library/u8g2_message.c ****   height += u8x8_GetStringLineCnt(title1);
 249              		.loc 1 123 0
 250 0024 2846     		mov	r0, r5
 119:/Users/imashio/Electronics/ARM/_Library/u8g2_message.c ****   line_height -= u8g2_GetDescent(u8g2);
 251              		.loc 1 119 0
 252 0026 FF1A     		subs	r7, r7, r3
 253              	.LVL33:
 254 0028 FFB2     		uxtb	r7, r7
 255              	.LVL34:
 256              		.loc 1 123 0
 257 002a FFF7FEFF 		bl	u8x8_GetStringLineCnt
 258              	.LVL35:
 124:/Users/imashio/Electronics/ARM/_Library/u8g2_message.c ****   if ( title2 != NULL )
 259              		.loc 1 124 0
 260 002e B9F1000F 		cmp	r9, #0
 261 0032 7FD0     		beq	.L45
 125:/Users/imashio/Electronics/ARM/_Library/u8g2_message.c ****     height++;
 262              		.loc 1 125 0
 263 0034 831C     		adds	r3, r0, #2
 264 0036 DDB2     		uxtb	r5, r3
ARM GAS  /var/folders/v3/wysfpd052nz8jkbx04pk0ym80000gn/T//ccTfFRVS.s 			page 8


 265              	.LVL36:
 266              	.L19:
 126:/Users/imashio/Electronics/ARM/_Library/u8g2_message.c ****   height += u8x8_GetStringLineCnt(title3);
 267              		.loc 1 126 0
 268 0038 0498     		ldr	r0, [sp, #16]
 269 003a FFF7FEFF 		bl	u8x8_GetStringLineCnt
 270              	.LVL37:
 271 003e 2B18     		adds	r3, r5, r0
 127:/Users/imashio/Electronics/ARM/_Library/u8g2_message.c ****   
 128:/Users/imashio/Electronics/ARM/_Library/u8g2_message.c ****   /* calculate the height in pixel */
 129:/Users/imashio/Electronics/ARM/_Library/u8g2_message.c ****   pixel_height = height;
 130:/Users/imashio/Electronics/ARM/_Library/u8g2_message.c ****   pixel_height *= line_height;
 272              		.loc 1 130 0
 273 0040 13FB07F3 		smulbb	r3, r3, r7
 274              	.LVL38:
 131:/Users/imashio/Electronics/ARM/_Library/u8g2_message.c ****   
 132:/Users/imashio/Electronics/ARM/_Library/u8g2_message.c ****   /* ... and add the space between the text and the buttons */
 133:/Users/imashio/Electronics/ARM/_Library/u8g2_message.c ****   pixel_height +=SPACE_BETWEEN_TEXT_AND_BUTTONS_IN_PIXEL;
 134:/Users/imashio/Electronics/ARM/_Library/u8g2_message.c ****   
 135:/Users/imashio/Electronics/ARM/_Library/u8g2_message.c ****   /* calculate offset from top */
 136:/Users/imashio/Electronics/ARM/_Library/u8g2_message.c ****   y = 0;
 137:/Users/imashio/Electronics/ARM/_Library/u8g2_message.c ****   if ( pixel_height < u8g2_GetDisplayHeight(u8g2)   )
 275              		.loc 1 137 0
 276 0044 94F84020 		ldrb	r2, [r4, #64]	@ zero_extendqisi2
 133:/Users/imashio/Electronics/ARM/_Library/u8g2_message.c ****   
 277              		.loc 1 133 0
 278 0048 0333     		adds	r3, r3, #3
 279              	.LVL39:
 280 004a 03F0FF03 		and	r3, r3, #255
 281              	.LVL40:
 282              		.loc 1 137 0
 283 004e 9A42     		cmp	r2, r3
 138:/Users/imashio/Electronics/ARM/_Library/u8g2_message.c ****   {
 139:/Users/imashio/Electronics/ARM/_Library/u8g2_message.c ****     y = u8g2_GetDisplayHeight(u8g2);
 140:/Users/imashio/Electronics/ARM/_Library/u8g2_message.c ****     y -= pixel_height;
 284              		.loc 1 140 0
 285 0050 88BF     		it	hi
 286 0052 A2EB0308 		subhi	r8, r2, r3
 287              	.LVL41:
 141:/Users/imashio/Electronics/ARM/_Library/u8g2_message.c ****     y /= 2;
 142:/Users/imashio/Electronics/ARM/_Library/u8g2_message.c ****   }
 143:/Users/imashio/Electronics/ARM/_Library/u8g2_message.c ****   y += u8g2_GetAscent(u8g2);
 288              		.loc 1 143 0
 289 0056 94F87930 		ldrb	r3, [r4, #121]	@ zero_extendqisi2
 290              	.LVL42:
 141:/Users/imashio/Electronics/ARM/_Library/u8g2_message.c ****     y /= 2;
 291              		.loc 1 141 0
 292 005a 8CBF     		ite	hi
 293 005c C8F34608 		ubfxhi	r8, r8, #1, #7
 294              	.LVL43:
 136:/Users/imashio/Electronics/ARM/_Library/u8g2_message.c ****   if ( pixel_height < u8g2_GetDisplayHeight(u8g2)   )
 295              		.loc 1 136 0
 296 0060 4FF00008 		movls	r8, #0
 297              	.LVL44:
 106:/Users/imashio/Electronics/ARM/_Library/u8g2_message.c ****   uint8_t button_cnt;
 298              		.loc 1 106 0
 299 0064 0026     		movs	r6, #0
ARM GAS  /var/folders/v3/wysfpd052nz8jkbx04pk0ym80000gn/T//ccTfFRVS.s 			page 9


 300              		.loc 1 143 0
 301 0066 9844     		add	r8, r8, r3
 302              	.LVL45:
 303 0068 5FFA88F8 		uxtb	r8, r8
 304              	.LVL46:
 144:/Users/imashio/Electronics/ARM/_Library/u8g2_message.c **** 
 145:/Users/imashio/Electronics/ARM/_Library/u8g2_message.c ****   
 146:/Users/imashio/Electronics/ARM/_Library/u8g2_message.c ****   for(;;)
 147:/Users/imashio/Electronics/ARM/_Library/u8g2_message.c ****   {
 148:/Users/imashio/Electronics/ARM/_Library/u8g2_message.c ****       u8g2_FirstPage(u8g2);
 149:/Users/imashio/Electronics/ARM/_Library/u8g2_message.c ****       do
 150:/Users/imashio/Electronics/ARM/_Library/u8g2_message.c ****       {
 151:/Users/imashio/Electronics/ARM/_Library/u8g2_message.c **** 	  yy = y;
 152:/Users/imashio/Electronics/ARM/_Library/u8g2_message.c **** 	  /* draw message box */
 153:/Users/imashio/Electronics/ARM/_Library/u8g2_message.c **** 	  
 154:/Users/imashio/Electronics/ARM/_Library/u8g2_message.c **** 	  yy += u8g2_DrawUTF8Lines(u8g2, 0, yy, u8g2_GetDisplayWidth(u8g2), line_height, title1);
 305              		.loc 1 154 0
 306 006c B246     		mov	r10, r6
 307              	.LVL47:
 308              	.L21:
 148:/Users/imashio/Electronics/ARM/_Library/u8g2_message.c ****       do
 309              		.loc 1 148 0
 310 006e 2046     		mov	r0, r4
 311 0070 FFF7FEFF 		bl	u8g2_FirstPage
 312              	.LVL48:
 313 0074 4B46     		mov	r3, r9
 314 0076 DDF840B0 		ldr	fp, [sp, #64]
 315 007a B146     		mov	r9, r6
 316              	.LVL49:
 317 007c 1E46     		mov	r6, r3
 318              	.LVL50:
 319              	.L23:
 320              		.loc 1 154 0
 321 007e 059A     		ldr	r2, [sp, #20]
 322 0080 94F83F30 		ldrb	r3, [r4, #63]	@ zero_extendqisi2
 323 0084 0021     		movs	r1, #0
 324 0086 CDE90072 		strd	r7, r2, [sp]
 325 008a 2046     		mov	r0, r4
 326 008c 4246     		mov	r2, r8
 327 008e FFF7FEFF 		bl	u8g2_DrawUTF8Lines
 328              	.LVL51:
 329 0092 4044     		add	r0, r0, r8
 330 0094 C5B2     		uxtb	r5, r0
 331              	.LVL52:
 155:/Users/imashio/Electronics/ARM/_Library/u8g2_message.c **** 	  if ( title2 != NULL )
 332              		.loc 1 155 0
 333 0096 5EB1     		cbz	r6, .L22
 156:/Users/imashio/Electronics/ARM/_Library/u8g2_message.c **** 	  {
 157:/Users/imashio/Electronics/ARM/_Library/u8g2_message.c **** 	    u8g2_DrawUTF8Line(u8g2, 0, yy, u8g2_GetDisplayWidth(u8g2), title2, 0, 0);
 334              		.loc 1 157 0
 335 0098 94F83F30 		ldrb	r3, [r4, #63]	@ zero_extendqisi2
 336 009c 0096     		str	r6, [sp]
 337 009e 2A46     		mov	r2, r5
 338 00a0 CDE901AA 		strd	r10, r10, [sp, #4]
 339 00a4 0021     		movs	r1, #0
 340 00a6 2046     		mov	r0, r4
 341 00a8 FFF7FEFF 		bl	u8g2_DrawUTF8Line
ARM GAS  /var/folders/v3/wysfpd052nz8jkbx04pk0ym80000gn/T//ccTfFRVS.s 			page 10


 342              	.LVL53:
 158:/Users/imashio/Electronics/ARM/_Library/u8g2_message.c **** 	    yy+=line_height;
 343              		.loc 1 158 0
 344 00ac 3D44     		add	r5, r5, r7
 345              	.LVL54:
 346 00ae EDB2     		uxtb	r5, r5
 347              	.LVL55:
 348              	.L22:
 159:/Users/imashio/Electronics/ARM/_Library/u8g2_message.c **** 	  }
 160:/Users/imashio/Electronics/ARM/_Library/u8g2_message.c **** 	  yy += u8g2_DrawUTF8Lines(u8g2, 0, yy, u8g2_GetDisplayWidth(u8g2), line_height, title3);
 349              		.loc 1 160 0
 350 00b0 049A     		ldr	r2, [sp, #16]
 351 00b2 94F83F30 		ldrb	r3, [r4, #63]	@ zero_extendqisi2
 352 00b6 0021     		movs	r1, #0
 353 00b8 CDE90072 		strd	r7, r2, [sp]
 354 00bc 2046     		mov	r0, r4
 355 00be 2A46     		mov	r2, r5
 356 00c0 FFF7FEFF 		bl	u8g2_DrawUTF8Lines
 357              	.LVL56:
 358 00c4 2844     		add	r0, r0, r5
 359              	.LVL57:
 161:/Users/imashio/Electronics/ARM/_Library/u8g2_message.c **** 	  yy += SPACE_BETWEEN_TEXT_AND_BUTTONS_IN_PIXEL;
 360              		.loc 1 161 0
 361 00c6 C11C     		adds	r1, r0, #3
 162:/Users/imashio/Electronics/ARM/_Library/u8g2_message.c **** 
 163:/Users/imashio/Electronics/ARM/_Library/u8g2_message.c **** 	  button_cnt = u8g2_draw_button_line(u8g2, yy, u8g2_GetDisplayWidth(u8g2), cursor, buttons);
 362              		.loc 1 163 0
 363 00c8 94F83F20 		ldrb	r2, [r4, #63]	@ zero_extendqisi2
 364 00cc CDF800B0 		str	fp, [sp]
 365 00d0 C9B2     		uxtb	r1, r1
 366 00d2 4B46     		mov	r3, r9
 367 00d4 2046     		mov	r0, r4
 368              	.LVL58:
 369 00d6 FFF7FEFF 		bl	u8g2_draw_button_line
 370              	.LVL59:
 371 00da 0546     		mov	r5, r0
 372              	.LVL60:
 164:/Users/imashio/Electronics/ARM/_Library/u8g2_message.c **** 	  
 165:/Users/imashio/Electronics/ARM/_Library/u8g2_message.c ****       } while( u8g2_NextPage(u8g2) );
 373              		.loc 1 165 0
 374 00dc 2046     		mov	r0, r4
 375              	.LVL61:
 376 00de FFF7FEFF 		bl	u8g2_NextPage
 377              	.LVL62:
 378 00e2 0028     		cmp	r0, #0
 379 00e4 CBD1     		bne	.L23
 380 00e6 3346     		mov	r3, r6
 381 00e8 AB46     		mov	fp, r5
 382 00ea 4E46     		mov	r6, r9
 383              	.LVL63:
 384 00ec 0546     		mov	r5, r0
 385              	.LVL64:
 386 00ee 9946     		mov	r9, r3
 387 00f0 07E0     		b	.L29
 388              	.LVL65:
 389              	.L24:
 166:/Users/imashio/Electronics/ARM/_Library/u8g2_message.c **** 
ARM GAS  /var/folders/v3/wysfpd052nz8jkbx04pk0ym80000gn/T//ccTfFRVS.s 			page 11


 167:/Users/imashio/Electronics/ARM/_Library/u8g2_message.c **** #ifdef U8G2_REF_MAN_PIC
 168:/Users/imashio/Electronics/ARM/_Library/u8g2_message.c ****       return 0;
 169:/Users/imashio/Electronics/ARM/_Library/u8g2_message.c **** #endif
 170:/Users/imashio/Electronics/ARM/_Library/u8g2_message.c **** 	  
 171:/Users/imashio/Electronics/ARM/_Library/u8g2_message.c ****       for(;;)
 172:/Users/imashio/Electronics/ARM/_Library/u8g2_message.c ****       {
 173:/Users/imashio/Electronics/ARM/_Library/u8g2_message.c **** 	    event = u8x8_GetMenuEvent(u8g2_GetU8x8(u8g2));
 174:/Users/imashio/Electronics/ARM/_Library/u8g2_message.c **** 	    if ( event == U8X8_MSG_GPIO_MENU_SELECT )
 175:/Users/imashio/Electronics/ARM/_Library/u8g2_message.c **** 	      return cursor+1;
 176:/Users/imashio/Electronics/ARM/_Library/u8g2_message.c **** 	    else if ( event == U8X8_MSG_GPIO_MENU_HOME )
 390              		.loc 1 176 0
 391 00f2 5328     		cmp	r0, #83
 392 00f4 0ED0     		beq	.L25
 177:/Users/imashio/Electronics/ARM/_Library/u8g2_message.c **** 	      return 0;
 178:/Users/imashio/Electronics/ARM/_Library/u8g2_message.c **** 	    else if ( event == U8X8_MSG_GPIO_MENU_NEXT || event == U8X8_MSG_GPIO_MENU_DOWN )
 393              		.loc 1 178 0
 394 00f6 512B     		cmp	r3, #81
 395 00f8 10D0     		beq	.L46
 179:/Users/imashio/Electronics/ARM/_Library/u8g2_message.c **** 	    {
 180:/Users/imashio/Electronics/ARM/_Library/u8g2_message.c **** 	      cursor++;
 181:/Users/imashio/Electronics/ARM/_Library/u8g2_message.c **** 	      if ( cursor >= button_cnt )
 182:/Users/imashio/Electronics/ARM/_Library/u8g2_message.c **** 		cursor = 0;
 183:/Users/imashio/Electronics/ARM/_Library/u8g2_message.c **** 	      break;
 184:/Users/imashio/Electronics/ARM/_Library/u8g2_message.c **** 	    }
 185:/Users/imashio/Electronics/ARM/_Library/u8g2_message.c **** 	    else if ( event == U8X8_MSG_GPIO_MENU_PREV || event == U8X8_MSG_GPIO_MENU_UP )
 396              		.loc 1 185 0
 397 00fa 5228     		cmp	r0, #82
 398 00fc 14D0     		beq	.L28
 399              		.loc 1 185 0 is_stmt 0 discriminator 1
 400 00fe 5428     		cmp	r0, #84
 401 0100 12D0     		beq	.L28
 402              	.LVL66:
 403              	.L29:
 173:/Users/imashio/Electronics/ARM/_Library/u8g2_message.c **** 	    if ( event == U8X8_MSG_GPIO_MENU_SELECT )
 404              		.loc 1 173 0 is_stmt 1
 405 0102 2046     		mov	r0, r4
 406 0104 FFF7FEFF 		bl	u8x8_GetMenuEvent
 407              	.LVL67:
 174:/Users/imashio/Electronics/ARM/_Library/u8g2_message.c **** 	      return cursor+1;
 408              		.loc 1 174 0
 409 0108 5028     		cmp	r0, #80
 178:/Users/imashio/Electronics/ARM/_Library/u8g2_message.c **** 	    {
 410              		.loc 1 178 0
 411 010a 00F0FB03 		and	r3, r0, #251
 174:/Users/imashio/Electronics/ARM/_Library/u8g2_message.c **** 	      return cursor+1;
 412              		.loc 1 174 0
 413 010e F0D1     		bne	.L24
 175:/Users/imashio/Electronics/ARM/_Library/u8g2_message.c **** 	    else if ( event == U8X8_MSG_GPIO_MENU_HOME )
 414              		.loc 1 175 0
 415 0110 751C     		adds	r5, r6, #1
 416 0112 EDB2     		uxtb	r5, r5
 417              	.L25:
 186:/Users/imashio/Electronics/ARM/_Library/u8g2_message.c **** 	    {
 187:/Users/imashio/Electronics/ARM/_Library/u8g2_message.c **** 	      if ( cursor == 0 )
 188:/Users/imashio/Electronics/ARM/_Library/u8g2_message.c **** 		cursor = button_cnt;
 189:/Users/imashio/Electronics/ARM/_Library/u8g2_message.c **** 	      cursor--;
 190:/Users/imashio/Electronics/ARM/_Library/u8g2_message.c **** 	      break;
ARM GAS  /var/folders/v3/wysfpd052nz8jkbx04pk0ym80000gn/T//ccTfFRVS.s 			page 12


 191:/Users/imashio/Electronics/ARM/_Library/u8g2_message.c **** 	    }    
 192:/Users/imashio/Electronics/ARM/_Library/u8g2_message.c ****       }
 193:/Users/imashio/Electronics/ARM/_Library/u8g2_message.c ****   }
 194:/Users/imashio/Electronics/ARM/_Library/u8g2_message.c ****   /* never reached */
 195:/Users/imashio/Electronics/ARM/_Library/u8g2_message.c ****   //return 0;
 196:/Users/imashio/Electronics/ARM/_Library/u8g2_message.c **** }
 418              		.loc 1 196 0
 419 0114 2846     		mov	r0, r5
 420              	.LVL68:
 421 0116 07B0     		add	sp, sp, #28
 422              	.LCFI6:
 423              		.cfi_remember_state
 424              		.cfi_def_cfa_offset 36
 425              		@ sp needed
 426 0118 BDE8F08F 		pop	{r4, r5, r6, r7, r8, r9, r10, fp, pc}
 427              	.LVL69:
 428              	.L46:
 429              	.LCFI7:
 430              		.cfi_restore_state
 180:/Users/imashio/Electronics/ARM/_Library/u8g2_message.c **** 	      if ( cursor >= button_cnt )
 431              		.loc 1 180 0
 432 011c 0136     		adds	r6, r6, #1
 433 011e F6B2     		uxtb	r6, r6
 434              	.LVL70:
 182:/Users/imashio/Electronics/ARM/_Library/u8g2_message.c **** 	      break;
 435              		.loc 1 182 0
 436 0120 B345     		cmp	fp, r6
 437 0122 98BF     		it	ls
 438 0124 0026     		movls	r6, #0
 439              	.LVL71:
 440 0126 A2E7     		b	.L21
 441              	.L28:
 163:/Users/imashio/Electronics/ARM/_Library/u8g2_message.c **** 	  
 442              		.loc 1 163 0
 443 0128 002E     		cmp	r6, #0
 444 012a 08BF     		it	eq
 445 012c 5E46     		moveq	r6, fp
 446              	.LVL72:
 189:/Users/imashio/Electronics/ARM/_Library/u8g2_message.c **** 	      break;
 447              		.loc 1 189 0
 448 012e 013E     		subs	r6, r6, #1
 449              	.LVL73:
 450 0130 F6B2     		uxtb	r6, r6
 451              	.LVL74:
 190:/Users/imashio/Electronics/ARM/_Library/u8g2_message.c **** 	    }    
 452              		.loc 1 190 0
 453 0132 9CE7     		b	.L21
 454              	.LVL75:
 455              	.L45:
 123:/Users/imashio/Electronics/ARM/_Library/u8g2_message.c ****   if ( title2 != NULL )
 456              		.loc 1 123 0
 457 0134 431C     		adds	r3, r0, #1
 458 0136 DDB2     		uxtb	r5, r3
 459              	.LVL76:
 460 0138 7EE7     		b	.L19
 461              		.cfi_endproc
 462              	.LFE1:
ARM GAS  /var/folders/v3/wysfpd052nz8jkbx04pk0ym80000gn/T//ccTfFRVS.s 			page 13


 464 013a 00BF     		.text
 465              	.Letext0:
 466              		.file 2 "/usr/local/gcc-arm-none-eabi-7-2018-q2-update/arm-none-eabi/include/machine/_default_type
 467              		.file 3 "/usr/local/gcc-arm-none-eabi-7-2018-q2-update/arm-none-eabi/include/sys/_stdint.h"
 468              		.file 4 "/Users/imashio/Electronics/ARM/_Library/u8x8.h"
 469              		.file 5 "/Users/imashio/Electronics/ARM/_Library/u8g2.h"
ARM GAS  /var/folders/v3/wysfpd052nz8jkbx04pk0ym80000gn/T//ccTfFRVS.s 			page 14


DEFINED SYMBOLS
                            *ABS*:0000000000000000 u8g2_message.c
/var/folders/v3/wysfpd052nz8jkbx04pk0ym80000gn/T//ccTfFRVS.s:18     .text.u8g2_draw_button_line:0000000000000000 $t
/var/folders/v3/wysfpd052nz8jkbx04pk0ym80000gn/T//ccTfFRVS.s:26     .text.u8g2_draw_button_line:0000000000000000 u8g2_draw_button_line
/var/folders/v3/wysfpd052nz8jkbx04pk0ym80000gn/T//ccTfFRVS.s:197    .text.u8g2_UserInterfaceMessage:0000000000000000 $t
/var/folders/v3/wysfpd052nz8jkbx04pk0ym80000gn/T//ccTfFRVS.s:205    .text.u8g2_UserInterfaceMessage:0000000000000000 u8g2_UserInterfaceMessage

UNDEFINED SYMBOLS
u8x8_GetStringLineCnt
u8x8_GetStringLineStart
u8g2_GetUTF8Width
u8g2_DrawUTF8Line
u8g2_SetFontDirection
u8g2_SetFontPosBaseline
u8g2_FirstPage
u8g2_DrawUTF8Lines
u8g2_NextPage
u8x8_GetMenuEvent
