ARM GAS  /var/folders/v3/wysfpd052nz8jkbx04pk0ym80000gn/T//ccDsyTAW.s 			page 1


   1              		.cpu cortex-m4
   2              		.eabi_attribute 27, 1
   3              		.eabi_attribute 28, 1
   4              		.eabi_attribute 20, 1
   5              		.eabi_attribute 21, 1
   6              		.eabi_attribute 23, 3
   7              		.eabi_attribute 24, 1
   8              		.eabi_attribute 25, 1
   9              		.eabi_attribute 26, 1
  10              		.eabi_attribute 30, 2
  11              		.eabi_attribute 34, 1
  12              		.eabi_attribute 18, 4
  13              		.file	"u8g2_ll_hvline.c"
  14              		.text
  15              	.Ltext0:
  16              		.cfi_sections	.debug_frame
  17              		.section	.text.u8g2_ll_hvline_vertical_top_lsb,"ax",%progbits
  18              		.align	1
  19              		.p2align 2,,3
  20              		.global	u8g2_ll_hvline_vertical_top_lsb
  21              		.syntax unified
  22              		.thumb
  23              		.thumb_func
  24              		.fpu fpv4-sp-d16
  26              	u8g2_ll_hvline_vertical_top_lsb:
  27              	.LFB0:
  28              		.file 1 "/Users/imashio/Electronics/ARM/_Library/u8g2_ll_hvline.c"
   1:/Users/imashio/Electronics/ARM/_Library/u8g2_ll_hvline.c **** /*
   2:/Users/imashio/Electronics/ARM/_Library/u8g2_ll_hvline.c **** 
   3:/Users/imashio/Electronics/ARM/_Library/u8g2_ll_hvline.c ****   u8g2_ll_hvline.c
   4:/Users/imashio/Electronics/ARM/_Library/u8g2_ll_hvline.c ****   
   5:/Users/imashio/Electronics/ARM/_Library/u8g2_ll_hvline.c ****   low level hvline
   6:/Users/imashio/Electronics/ARM/_Library/u8g2_ll_hvline.c **** 
   7:/Users/imashio/Electronics/ARM/_Library/u8g2_ll_hvline.c ****   Universal 8bit Graphics Library (https://github.com/olikraus/u8g2/)
   8:/Users/imashio/Electronics/ARM/_Library/u8g2_ll_hvline.c **** 
   9:/Users/imashio/Electronics/ARM/_Library/u8g2_ll_hvline.c ****   Copyright (c) 2016, olikraus@gmail.com
  10:/Users/imashio/Electronics/ARM/_Library/u8g2_ll_hvline.c ****   All rights reserved.
  11:/Users/imashio/Electronics/ARM/_Library/u8g2_ll_hvline.c **** 
  12:/Users/imashio/Electronics/ARM/_Library/u8g2_ll_hvline.c ****   Redistribution and use in source and binary forms, with or without modification, 
  13:/Users/imashio/Electronics/ARM/_Library/u8g2_ll_hvline.c ****   are permitted provided that the following conditions are met:
  14:/Users/imashio/Electronics/ARM/_Library/u8g2_ll_hvline.c **** 
  15:/Users/imashio/Electronics/ARM/_Library/u8g2_ll_hvline.c ****   * Redistributions of source code must retain the above copyright notice, this list 
  16:/Users/imashio/Electronics/ARM/_Library/u8g2_ll_hvline.c ****     of conditions and the following disclaimer.
  17:/Users/imashio/Electronics/ARM/_Library/u8g2_ll_hvline.c ****     
  18:/Users/imashio/Electronics/ARM/_Library/u8g2_ll_hvline.c ****   * Redistributions in binary form must reproduce the above copyright notice, this 
  19:/Users/imashio/Electronics/ARM/_Library/u8g2_ll_hvline.c ****     list of conditions and the following disclaimer in the documentation and/or other 
  20:/Users/imashio/Electronics/ARM/_Library/u8g2_ll_hvline.c ****     materials provided with the distribution.
  21:/Users/imashio/Electronics/ARM/_Library/u8g2_ll_hvline.c **** 
  22:/Users/imashio/Electronics/ARM/_Library/u8g2_ll_hvline.c ****   THIS SOFTWARE IS PROVIDED BY THE COPYRIGHT HOLDERS AND 
  23:/Users/imashio/Electronics/ARM/_Library/u8g2_ll_hvline.c ****   CONTRIBUTORS "AS IS" AND ANY EXPRESS OR IMPLIED WARRANTIES, 
  24:/Users/imashio/Electronics/ARM/_Library/u8g2_ll_hvline.c ****   INCLUDING, BUT NOT LIMITED TO, THE IMPLIED WARRANTIES OF 
  25:/Users/imashio/Electronics/ARM/_Library/u8g2_ll_hvline.c ****   MERCHANTABILITY AND FITNESS FOR A PARTICULAR PURPOSE ARE 
  26:/Users/imashio/Electronics/ARM/_Library/u8g2_ll_hvline.c ****   DISCLAIMED. IN NO EVENT SHALL THE COPYRIGHT HOLDER OR 
  27:/Users/imashio/Electronics/ARM/_Library/u8g2_ll_hvline.c ****   CONTRIBUTORS BE LIABLE FOR ANY DIRECT, INDIRECT, INCIDENTAL, 
  28:/Users/imashio/Electronics/ARM/_Library/u8g2_ll_hvline.c ****   SPECIAL, EXEMPLARY, OR CONSEQUENTIAL DAMAGES (INCLUDING, BUT 
  29:/Users/imashio/Electronics/ARM/_Library/u8g2_ll_hvline.c ****   NOT LIMITED TO, PROCUREMENT OF SUBSTITUTE GOODS OR SERVICES; 
  30:/Users/imashio/Electronics/ARM/_Library/u8g2_ll_hvline.c ****   LOSS OF USE, DATA, OR PROFITS; OR BUSINESS INTERRUPTION) HOWEVER 
ARM GAS  /var/folders/v3/wysfpd052nz8jkbx04pk0ym80000gn/T//ccDsyTAW.s 			page 2


  31:/Users/imashio/Electronics/ARM/_Library/u8g2_ll_hvline.c ****   CAUSED AND ON ANY THEORY OF LIABILITY, WHETHER IN CONTRACT, 
  32:/Users/imashio/Electronics/ARM/_Library/u8g2_ll_hvline.c ****   STRICT LIABILITY, OR TORT (INCLUDING NEGLIGENCE OR OTHERWISE) 
  33:/Users/imashio/Electronics/ARM/_Library/u8g2_ll_hvline.c ****   ARISING IN ANY WAY OUT OF THE USE OF THIS SOFTWARE, EVEN IF 
  34:/Users/imashio/Electronics/ARM/_Library/u8g2_ll_hvline.c ****   ADVISED OF THE POSSIBILITY OF SUCH DAMAGE.  
  35:/Users/imashio/Electronics/ARM/_Library/u8g2_ll_hvline.c **** 
  36:/Users/imashio/Electronics/ARM/_Library/u8g2_ll_hvline.c **** 
  37:/Users/imashio/Electronics/ARM/_Library/u8g2_ll_hvline.c ****   *ptr |= or_mask
  38:/Users/imashio/Electronics/ARM/_Library/u8g2_ll_hvline.c ****   *ptr ^= xor_mask
  39:/Users/imashio/Electronics/ARM/_Library/u8g2_ll_hvline.c ****   
  40:/Users/imashio/Electronics/ARM/_Library/u8g2_ll_hvline.c ****   color = 0:   or_mask = 1, xor_mask = 1
  41:/Users/imashio/Electronics/ARM/_Library/u8g2_ll_hvline.c ****   color = 1:   or_mask = 1, xor_mask = 0
  42:/Users/imashio/Electronics/ARM/_Library/u8g2_ll_hvline.c ****   color = 2:   or_mask = 0, xor_mask = 1
  43:/Users/imashio/Electronics/ARM/_Library/u8g2_ll_hvline.c **** 
  44:/Users/imashio/Electronics/ARM/_Library/u8g2_ll_hvline.c ****   if ( color <= 1 )
  45:/Users/imashio/Electronics/ARM/_Library/u8g2_ll_hvline.c ****     or_mask  = mask;
  46:/Users/imashio/Electronics/ARM/_Library/u8g2_ll_hvline.c ****   if ( color != 1 )
  47:/Users/imashio/Electronics/ARM/_Library/u8g2_ll_hvline.c ****     xor_mask = mask;
  48:/Users/imashio/Electronics/ARM/_Library/u8g2_ll_hvline.c ****     
  49:/Users/imashio/Electronics/ARM/_Library/u8g2_ll_hvline.c **** */
  50:/Users/imashio/Electronics/ARM/_Library/u8g2_ll_hvline.c **** 
  51:/Users/imashio/Electronics/ARM/_Library/u8g2_ll_hvline.c **** #include "u8g2.h"
  52:/Users/imashio/Electronics/ARM/_Library/u8g2_ll_hvline.c **** #include <assert.h>
  53:/Users/imashio/Electronics/ARM/_Library/u8g2_ll_hvline.c **** 
  54:/Users/imashio/Electronics/ARM/_Library/u8g2_ll_hvline.c **** /*=================================================*/
  55:/Users/imashio/Electronics/ARM/_Library/u8g2_ll_hvline.c **** /*
  56:/Users/imashio/Electronics/ARM/_Library/u8g2_ll_hvline.c ****   u8g2_ll_hvline_vertical_top_lsb
  57:/Users/imashio/Electronics/ARM/_Library/u8g2_ll_hvline.c ****     SSD13xx
  58:/Users/imashio/Electronics/ARM/_Library/u8g2_ll_hvline.c ****     UC1701    
  59:/Users/imashio/Electronics/ARM/_Library/u8g2_ll_hvline.c **** */
  60:/Users/imashio/Electronics/ARM/_Library/u8g2_ll_hvline.c **** 
  61:/Users/imashio/Electronics/ARM/_Library/u8g2_ll_hvline.c **** 
  62:/Users/imashio/Electronics/ARM/_Library/u8g2_ll_hvline.c **** #ifdef U8G2_HVLINE_SPEED_OPTIMIZATION
  63:/Users/imashio/Electronics/ARM/_Library/u8g2_ll_hvline.c **** 
  64:/Users/imashio/Electronics/ARM/_Library/u8g2_ll_hvline.c **** /*
  65:/Users/imashio/Electronics/ARM/_Library/u8g2_ll_hvline.c ****   x,y		Upper left position of the line within the local buffer (not the display!)
  66:/Users/imashio/Electronics/ARM/_Library/u8g2_ll_hvline.c ****   len		length of the line in pixel, len must not be 0
  67:/Users/imashio/Electronics/ARM/_Library/u8g2_ll_hvline.c ****   dir		0: horizontal line (left to right)
  68:/Users/imashio/Electronics/ARM/_Library/u8g2_ll_hvline.c **** 		1: vertical line (top to bottom)
  69:/Users/imashio/Electronics/ARM/_Library/u8g2_ll_hvline.c ****   asumption: 
  70:/Users/imashio/Electronics/ARM/_Library/u8g2_ll_hvline.c ****     all clipping done
  71:/Users/imashio/Electronics/ARM/_Library/u8g2_ll_hvline.c **** */
  72:/Users/imashio/Electronics/ARM/_Library/u8g2_ll_hvline.c **** void u8g2_ll_hvline_vertical_top_lsb(u8g2_t *u8g2, u8g2_uint_t x, u8g2_uint_t y, u8g2_uint_t len, u
  73:/Users/imashio/Electronics/ARM/_Library/u8g2_ll_hvline.c **** {
  29              		.loc 1 73 0
  30              		.cfi_startproc
  31              		@ args = 4, pretend = 0, frame = 0
  32              		@ frame_needed = 0, uses_anonymous_args = 0
  33              	.LVL0:
  34 0000 F0B5     		push	{r4, r5, r6, r7, lr}
  35              	.LCFI0:
  36              		.cfi_def_cfa_offset 20
  37              		.cfi_offset 4, -20
  38              		.cfi_offset 5, -16
  39              		.cfi_offset 6, -12
  40              		.cfi_offset 7, -8
  41              		.cfi_offset 14, -4
  74:/Users/imashio/Electronics/ARM/_Library/u8g2_ll_hvline.c ****   uint16_t offset;
ARM GAS  /var/folders/v3/wysfpd052nz8jkbx04pk0ym80000gn/T//ccDsyTAW.s 			page 3


  75:/Users/imashio/Electronics/ARM/_Library/u8g2_ll_hvline.c ****   uint8_t *ptr;
  76:/Users/imashio/Electronics/ARM/_Library/u8g2_ll_hvline.c ****   uint8_t bit_pos, mask;
  77:/Users/imashio/Electronics/ARM/_Library/u8g2_ll_hvline.c ****   uint8_t or_mask, xor_mask;
  78:/Users/imashio/Electronics/ARM/_Library/u8g2_ll_hvline.c **** 
  79:/Users/imashio/Electronics/ARM/_Library/u8g2_ll_hvline.c ****   //assert(x >= u8g2->buf_x0);
  80:/Users/imashio/Electronics/ARM/_Library/u8g2_ll_hvline.c ****   //assert(x < u8g2_GetU8x8(u8g2)->display_info->tile_width*8);
  81:/Users/imashio/Electronics/ARM/_Library/u8g2_ll_hvline.c ****   //assert(y >= u8g2->buf_y0);
  82:/Users/imashio/Electronics/ARM/_Library/u8g2_ll_hvline.c ****   //assert(y < u8g2_GetU8x8(u8g2)->display_info->tile_height*8);
  83:/Users/imashio/Electronics/ARM/_Library/u8g2_ll_hvline.c ****   
  84:/Users/imashio/Electronics/ARM/_Library/u8g2_ll_hvline.c ****   /* bytes are vertical, lsb on top (y=0), msb at bottom (y=7) */
  85:/Users/imashio/Electronics/ARM/_Library/u8g2_ll_hvline.c ****   bit_pos = y;		/* overflow truncate is ok here... */
  86:/Users/imashio/Electronics/ARM/_Library/u8g2_ll_hvline.c ****   bit_pos &= 7; 	/* ... because only the lowest 3 bits are needed */
  87:/Users/imashio/Electronics/ARM/_Library/u8g2_ll_hvline.c ****   mask = 1;
  88:/Users/imashio/Electronics/ARM/_Library/u8g2_ll_hvline.c ****   mask <<= bit_pos;
  89:/Users/imashio/Electronics/ARM/_Library/u8g2_ll_hvline.c **** 
  90:/Users/imashio/Electronics/ARM/_Library/u8g2_ll_hvline.c ****   or_mask = 0;
  91:/Users/imashio/Electronics/ARM/_Library/u8g2_ll_hvline.c ****   xor_mask = 0;
  92:/Users/imashio/Electronics/ARM/_Library/u8g2_ll_hvline.c ****   if ( u8g2->draw_color <= 1 )
  42              		.loc 1 92 0
  43 0002 90F87D50 		ldrb	r5, [r0, #125]	@ zero_extendqisi2
  73:/Users/imashio/Electronics/ARM/_Library/u8g2_ll_hvline.c ****   uint16_t offset;
  44              		.loc 1 73 0
  45 0006 9DF81470 		ldrb	r7, [sp, #20]	@ zero_extendqisi2
  86:/Users/imashio/Electronics/ARM/_Library/u8g2_ll_hvline.c ****   mask = 1;
  46              		.loc 1 86 0
  47 000a 02F00706 		and	r6, r2, #7
  48              	.LVL1:
  88:/Users/imashio/Electronics/ARM/_Library/u8g2_ll_hvline.c **** 
  49              		.loc 1 88 0
  50 000e 0124     		movs	r4, #1
  51 0010 B440     		lsls	r4, r4, r6
  52              		.loc 1 92 0
  53 0012 012D     		cmp	r5, #1
  73:/Users/imashio/Electronics/ARM/_Library/u8g2_ll_hvline.c ****   uint16_t offset;
  54              		.loc 1 73 0
  55 0014 8C46     		mov	ip, r1
  88:/Users/imashio/Electronics/ARM/_Library/u8g2_ll_hvline.c **** 
  56              		.loc 1 88 0
  57 0016 E4B2     		uxtb	r4, r4
  58              	.LVL2:
  59              		.loc 1 92 0
  60 0018 3BD9     		bls	.L17
  90:/Users/imashio/Electronics/ARM/_Library/u8g2_ll_hvline.c ****   xor_mask = 0;
  61              		.loc 1 90 0
  62 001a 0025     		movs	r5, #0
  63              	.LVL3:
  64              	.L2:
  93:/Users/imashio/Electronics/ARM/_Library/u8g2_ll_hvline.c ****     or_mask  = mask;
  94:/Users/imashio/Electronics/ARM/_Library/u8g2_ll_hvline.c ****   if ( u8g2->draw_color != 1 )
  95:/Users/imashio/Electronics/ARM/_Library/u8g2_ll_hvline.c ****     xor_mask = mask;
  96:/Users/imashio/Electronics/ARM/_Library/u8g2_ll_hvline.c **** 
  97:/Users/imashio/Electronics/ARM/_Library/u8g2_ll_hvline.c **** 
  98:/Users/imashio/Electronics/ARM/_Library/u8g2_ll_hvline.c ****   offset = y;		/* y might be 8 or 16 bit, but we need 16 bit, so use a 16 bit variable */
  99:/Users/imashio/Electronics/ARM/_Library/u8g2_ll_hvline.c ****   offset &= ~7;
 100:/Users/imashio/Electronics/ARM/_Library/u8g2_ll_hvline.c ****   offset *= u8g2_GetU8x8(u8g2)->display_info->tile_width;
  65              		.loc 1 100 0
  66 001c 0168     		ldr	r1, [r0]
ARM GAS  /var/folders/v3/wysfpd052nz8jkbx04pk0ym80000gn/T//ccDsyTAW.s 			page 4


  67              	.LVL4:
  68 001e 91F810E0 		ldrb	lr, [r1, #16]	@ zero_extendqisi2
  99:/Users/imashio/Electronics/ARM/_Library/u8g2_ll_hvline.c ****   offset *= u8g2_GetU8x8(u8g2)->display_info->tile_width;
  69              		.loc 1 99 0
  70 0022 02F0F802 		and	r2, r2, #248
  71              	.LVL5:
 101:/Users/imashio/Electronics/ARM/_Library/u8g2_ll_hvline.c ****   ptr = u8g2->tile_buf_ptr;
 102:/Users/imashio/Electronics/ARM/_Library/u8g2_ll_hvline.c ****   ptr += offset;
 103:/Users/imashio/Electronics/ARM/_Library/u8g2_ll_hvline.c ****   ptr += x;
  72              		.loc 1 103 0
  73 0026 0EFB02C1 		mla	r1, lr, r2, ip
  74              	.LVL6:
  75 002a 426B     		ldr	r2, [r0, #52]
  76              	.LVL7:
  77 002c 1144     		add	r1, r1, r2
  78              	.LVL8:
 104:/Users/imashio/Electronics/ARM/_Library/u8g2_ll_hvline.c ****   
 105:/Users/imashio/Electronics/ARM/_Library/u8g2_ll_hvline.c ****   if ( dir == 0 )
  79              		.loc 1 105 0
  80 002e 7FB9     		cbnz	r7, .L3
  81 0030 5A1E     		subs	r2, r3, #1
  82 0032 D2B2     		uxtb	r2, r2
  83 0034 0132     		adds	r2, r2, #1
  84 0036 0A44     		add	r2, r2, r1
  85              	.LVL9:
  86              	.L4:
 106:/Users/imashio/Electronics/ARM/_Library/u8g2_ll_hvline.c ****   {
 107:/Users/imashio/Electronics/ARM/_Library/u8g2_ll_hvline.c ****       do
 108:/Users/imashio/Electronics/ARM/_Library/u8g2_ll_hvline.c ****       {
 109:/Users/imashio/Electronics/ARM/_Library/u8g2_ll_hvline.c **** 	*ptr |= or_mask;
  87              		.loc 1 109 0 discriminator 1
  88 0038 0B78     		ldrb	r3, [r1]	@ zero_extendqisi2
  89 003a 2B43     		orrs	r3, r3, r5
 110:/Users/imashio/Electronics/ARM/_Library/u8g2_ll_hvline.c **** 	*ptr ^= xor_mask;
  90              		.loc 1 110 0 discriminator 1
  91 003c 6340     		eors	r3, r3, r4
  92 003e 01F8013B 		strb	r3, [r1], #1
  93              	.LVL10:
 111:/Users/imashio/Electronics/ARM/_Library/u8g2_ll_hvline.c **** 	ptr++;
 112:/Users/imashio/Electronics/ARM/_Library/u8g2_ll_hvline.c **** 	len--;
 113:/Users/imashio/Electronics/ARM/_Library/u8g2_ll_hvline.c ****       } while( len != 0 );
  94              		.loc 1 113 0 discriminator 1
  95 0042 9142     		cmp	r1, r2
  96 0044 F8D1     		bne	.L4
  97              	.LVL11:
  98              	.L1:
 114:/Users/imashio/Electronics/ARM/_Library/u8g2_ll_hvline.c ****   }
 115:/Users/imashio/Electronics/ARM/_Library/u8g2_ll_hvline.c ****   else
 116:/Users/imashio/Electronics/ARM/_Library/u8g2_ll_hvline.c ****   {    
 117:/Users/imashio/Electronics/ARM/_Library/u8g2_ll_hvline.c ****     do
 118:/Users/imashio/Electronics/ARM/_Library/u8g2_ll_hvline.c ****     {
 119:/Users/imashio/Electronics/ARM/_Library/u8g2_ll_hvline.c ****       *ptr |= or_mask;
 120:/Users/imashio/Electronics/ARM/_Library/u8g2_ll_hvline.c ****       *ptr ^= xor_mask;
 121:/Users/imashio/Electronics/ARM/_Library/u8g2_ll_hvline.c ****       
 122:/Users/imashio/Electronics/ARM/_Library/u8g2_ll_hvline.c ****       bit_pos++;
 123:/Users/imashio/Electronics/ARM/_Library/u8g2_ll_hvline.c ****       bit_pos &= 7;
 124:/Users/imashio/Electronics/ARM/_Library/u8g2_ll_hvline.c **** 
ARM GAS  /var/folders/v3/wysfpd052nz8jkbx04pk0ym80000gn/T//ccDsyTAW.s 			page 5


 125:/Users/imashio/Electronics/ARM/_Library/u8g2_ll_hvline.c ****       len--;
 126:/Users/imashio/Electronics/ARM/_Library/u8g2_ll_hvline.c **** 
 127:/Users/imashio/Electronics/ARM/_Library/u8g2_ll_hvline.c ****       if ( bit_pos == 0 )
 128:/Users/imashio/Electronics/ARM/_Library/u8g2_ll_hvline.c ****       {
 129:/Users/imashio/Electronics/ARM/_Library/u8g2_ll_hvline.c **** 	ptr+=u8g2->pixel_buf_width;	/* 6 Jan 17: Changed u8g2->width to u8g2->pixel_buf_width, issue #148 
 130:/Users/imashio/Electronics/ARM/_Library/u8g2_ll_hvline.c **** 		
 131:/Users/imashio/Electronics/ARM/_Library/u8g2_ll_hvline.c **** 	if ( u8g2->draw_color <= 1 )
 132:/Users/imashio/Electronics/ARM/_Library/u8g2_ll_hvline.c **** 	  or_mask  = 1;
 133:/Users/imashio/Electronics/ARM/_Library/u8g2_ll_hvline.c **** 	if ( u8g2->draw_color != 1 )
 134:/Users/imashio/Electronics/ARM/_Library/u8g2_ll_hvline.c **** 	  xor_mask = 1;
 135:/Users/imashio/Electronics/ARM/_Library/u8g2_ll_hvline.c ****       }
 136:/Users/imashio/Electronics/ARM/_Library/u8g2_ll_hvline.c ****       else
 137:/Users/imashio/Electronics/ARM/_Library/u8g2_ll_hvline.c ****       {
 138:/Users/imashio/Electronics/ARM/_Library/u8g2_ll_hvline.c **** 	or_mask <<= 1;
 139:/Users/imashio/Electronics/ARM/_Library/u8g2_ll_hvline.c **** 	xor_mask <<= 1;
 140:/Users/imashio/Electronics/ARM/_Library/u8g2_ll_hvline.c ****       }
 141:/Users/imashio/Electronics/ARM/_Library/u8g2_ll_hvline.c ****     } while( len != 0 );
 142:/Users/imashio/Electronics/ARM/_Library/u8g2_ll_hvline.c ****   }
 143:/Users/imashio/Electronics/ARM/_Library/u8g2_ll_hvline.c **** }
  99              		.loc 1 143 0
 100 0046 F0BD     		pop	{r4, r5, r6, r7, pc}
 101              	.LVL12:
 102              	.L6:
 138:/Users/imashio/Electronics/ARM/_Library/u8g2_ll_hvline.c **** 	xor_mask <<= 1;
 103              		.loc 1 138 0
 104 0048 FDB2     		uxtb	r5, r7
 105              	.LVL13:
 139:/Users/imashio/Electronics/ARM/_Library/u8g2_ll_hvline.c ****       }
 106              		.loc 1 139 0
 107 004a D4B2     		uxtb	r4, r2
 108              	.LVL14:
 109              	.L7:
 141:/Users/imashio/Electronics/ARM/_Library/u8g2_ll_hvline.c ****   }
 110              		.loc 1 141 0
 111 004c 002B     		cmp	r3, #0
 112 004e FAD0     		beq	.L1
 113              	.LVL15:
 114              	.L3:
 119:/Users/imashio/Electronics/ARM/_Library/u8g2_ll_hvline.c ****       *ptr ^= xor_mask;
 115              		.loc 1 119 0
 116 0050 0A78     		ldrb	r2, [r1]	@ zero_extendqisi2
 122:/Users/imashio/Electronics/ARM/_Library/u8g2_ll_hvline.c ****       bit_pos &= 7;
 117              		.loc 1 122 0
 118 0052 0136     		adds	r6, r6, #1
 119              	.LVL16:
 119:/Users/imashio/Electronics/ARM/_Library/u8g2_ll_hvline.c ****       *ptr ^= xor_mask;
 120              		.loc 1 119 0
 121 0054 2A43     		orrs	r2, r2, r5
 120:/Users/imashio/Electronics/ARM/_Library/u8g2_ll_hvline.c ****       
 122              		.loc 1 120 0
 123 0056 6240     		eors	r2, r2, r4
 125:/Users/imashio/Electronics/ARM/_Library/u8g2_ll_hvline.c **** 
 124              		.loc 1 125 0
 125 0058 013B     		subs	r3, r3, #1
 126              	.LVL17:
 127:/Users/imashio/Electronics/ARM/_Library/u8g2_ll_hvline.c ****       {
 127              		.loc 1 127 0
ARM GAS  /var/folders/v3/wysfpd052nz8jkbx04pk0ym80000gn/T//ccDsyTAW.s 			page 6


 128 005a 16F00706 		ands	r6, r6, #7
 129              	.LVL18:
 120:/Users/imashio/Electronics/ARM/_Library/u8g2_ll_hvline.c ****       
 130              		.loc 1 120 0
 131 005e 0A70     		strb	r2, [r1]
 125:/Users/imashio/Electronics/ARM/_Library/u8g2_ll_hvline.c **** 
 132              		.loc 1 125 0
 133 0060 DBB2     		uxtb	r3, r3
 138:/Users/imashio/Electronics/ARM/_Library/u8g2_ll_hvline.c **** 	xor_mask <<= 1;
 134              		.loc 1 138 0
 135 0062 4FEA4507 		lsl	r7, r5, #1
 139:/Users/imashio/Electronics/ARM/_Library/u8g2_ll_hvline.c ****       }
 136              		.loc 1 139 0
 137 0066 4FEA4402 		lsl	r2, r4, #1
 127:/Users/imashio/Electronics/ARM/_Library/u8g2_ll_hvline.c ****       {
 138              		.loc 1 127 0
 139 006a EDD1     		bne	.L6
 131:/Users/imashio/Electronics/ARM/_Library/u8g2_ll_hvline.c **** 	  or_mask  = 1;
 140              		.loc 1 131 0
 141 006c 90F87D20 		ldrb	r2, [r0, #125]	@ zero_extendqisi2
 129:/Users/imashio/Electronics/ARM/_Library/u8g2_ll_hvline.c **** 		
 142              		.loc 1 129 0
 143 0070 90F83A70 		ldrb	r7, [r0, #58]	@ zero_extendqisi2
 131:/Users/imashio/Electronics/ARM/_Library/u8g2_ll_hvline.c **** 	  or_mask  = 1;
 144              		.loc 1 131 0
 145 0074 012A     		cmp	r2, #1
 129:/Users/imashio/Electronics/ARM/_Library/u8g2_ll_hvline.c **** 		
 146              		.loc 1 129 0
 147 0076 3944     		add	r1, r1, r7
 148              	.LVL19:
 131:/Users/imashio/Electronics/ARM/_Library/u8g2_ll_hvline.c **** 	  or_mask  = 1;
 149              		.loc 1 131 0
 150 0078 03D9     		bls	.L18
 134:/Users/imashio/Electronics/ARM/_Library/u8g2_ll_hvline.c ****       }
 151              		.loc 1 134 0
 152 007a 0124     		movs	r4, #1
 153              	.LVL20:
 141:/Users/imashio/Electronics/ARM/_Library/u8g2_ll_hvline.c ****   }
 154              		.loc 1 141 0
 155 007c 002B     		cmp	r3, #0
 156 007e E7D1     		bne	.L3
 157 0080 E1E7     		b	.L1
 158              	.L18:
 159              	.LVL21:
 132:/Users/imashio/Electronics/ARM/_Library/u8g2_ll_hvline.c **** 	if ( u8g2->draw_color != 1 )
 160              		.loc 1 132 0
 161 0082 08BF     		it	eq
 162 0084 1546     		moveq	r5, r2
 133:/Users/imashio/Electronics/ARM/_Library/u8g2_ll_hvline.c **** 	  xor_mask = 1;
 163              		.loc 1 133 0
 164 0086 E1D0     		beq	.L7
 134:/Users/imashio/Electronics/ARM/_Library/u8g2_ll_hvline.c ****       }
 165              		.loc 1 134 0
 166 0088 0124     		movs	r4, #1
 167              	.LVL22:
 132:/Users/imashio/Electronics/ARM/_Library/u8g2_ll_hvline.c **** 	if ( u8g2->draw_color != 1 )
 168              		.loc 1 132 0
ARM GAS  /var/folders/v3/wysfpd052nz8jkbx04pk0ym80000gn/T//ccDsyTAW.s 			page 7


 169 008a 2546     		mov	r5, r4
 170              	.LVL23:
 141:/Users/imashio/Electronics/ARM/_Library/u8g2_ll_hvline.c ****   }
 171              		.loc 1 141 0
 172 008c 002B     		cmp	r3, #0
 173 008e DFD1     		bne	.L3
 174 0090 D9E7     		b	.L1
 175              	.LVL24:
 176              	.L17:
  93:/Users/imashio/Electronics/ARM/_Library/u8g2_ll_hvline.c ****   if ( u8g2->draw_color != 1 )
 177              		.loc 1 93 0
 178 0092 2546     		mov	r5, r4
  91:/Users/imashio/Electronics/ARM/_Library/u8g2_ll_hvline.c ****   if ( u8g2->draw_color <= 1 )
 179              		.loc 1 91 0
 180 0094 08BF     		it	eq
 181 0096 0024     		moveq	r4, #0
 182              	.LVL25:
 183 0098 C0E7     		b	.L2
 184              		.cfi_endproc
 185              	.LFE0:
 187 009a 00BF     		.section	.text.u8g2_ll_hvline_horizontal_right_lsb,"ax",%progbits
 188              		.align	1
 189              		.p2align 2,,3
 190              		.global	u8g2_ll_hvline_horizontal_right_lsb
 191              		.syntax unified
 192              		.thumb
 193              		.thumb_func
 194              		.fpu fpv4-sp-d16
 196              	u8g2_ll_hvline_horizontal_right_lsb:
 197              	.LFB1:
 144:/Users/imashio/Electronics/ARM/_Library/u8g2_ll_hvline.c **** 
 145:/Users/imashio/Electronics/ARM/_Library/u8g2_ll_hvline.c **** 
 146:/Users/imashio/Electronics/ARM/_Library/u8g2_ll_hvline.c **** 
 147:/Users/imashio/Electronics/ARM/_Library/u8g2_ll_hvline.c **** #else /* U8G2_HVLINE_SPEED_OPTIMIZATION */
 148:/Users/imashio/Electronics/ARM/_Library/u8g2_ll_hvline.c **** 
 149:/Users/imashio/Electronics/ARM/_Library/u8g2_ll_hvline.c **** /*
 150:/Users/imashio/Electronics/ARM/_Library/u8g2_ll_hvline.c ****   x,y position within the buffer
 151:/Users/imashio/Electronics/ARM/_Library/u8g2_ll_hvline.c **** */
 152:/Users/imashio/Electronics/ARM/_Library/u8g2_ll_hvline.c **** static void u8g2_draw_pixel_vertical_top_lsb(u8g2_t *u8g2, u8g2_uint_t x, u8g2_uint_t y)
 153:/Users/imashio/Electronics/ARM/_Library/u8g2_ll_hvline.c **** {
 154:/Users/imashio/Electronics/ARM/_Library/u8g2_ll_hvline.c ****   uint16_t offset;
 155:/Users/imashio/Electronics/ARM/_Library/u8g2_ll_hvline.c ****   uint8_t *ptr;
 156:/Users/imashio/Electronics/ARM/_Library/u8g2_ll_hvline.c ****   uint8_t bit_pos, mask;
 157:/Users/imashio/Electronics/ARM/_Library/u8g2_ll_hvline.c ****   
 158:/Users/imashio/Electronics/ARM/_Library/u8g2_ll_hvline.c ****   //assert(x >= u8g2->buf_x0);
 159:/Users/imashio/Electronics/ARM/_Library/u8g2_ll_hvline.c ****   //assert(x < u8g2_GetU8x8(u8g2)->display_info->tile_width*8);
 160:/Users/imashio/Electronics/ARM/_Library/u8g2_ll_hvline.c ****   //assert(y >= u8g2->buf_y0);
 161:/Users/imashio/Electronics/ARM/_Library/u8g2_ll_hvline.c ****   //assert(y < u8g2_GetU8x8(u8g2)->display_info->tile_height*8);
 162:/Users/imashio/Electronics/ARM/_Library/u8g2_ll_hvline.c ****   
 163:/Users/imashio/Electronics/ARM/_Library/u8g2_ll_hvline.c ****   /* bytes are vertical, lsb on top (y=0), msb at bottom (y=7) */
 164:/Users/imashio/Electronics/ARM/_Library/u8g2_ll_hvline.c ****   bit_pos = y;		/* overflow truncate is ok here... */
 165:/Users/imashio/Electronics/ARM/_Library/u8g2_ll_hvline.c ****   bit_pos &= 7; 	/* ... because only the lowest 3 bits are needed */
 166:/Users/imashio/Electronics/ARM/_Library/u8g2_ll_hvline.c ****   mask = 1;
 167:/Users/imashio/Electronics/ARM/_Library/u8g2_ll_hvline.c ****   mask <<= bit_pos;
 168:/Users/imashio/Electronics/ARM/_Library/u8g2_ll_hvline.c **** 
 169:/Users/imashio/Electronics/ARM/_Library/u8g2_ll_hvline.c ****   offset = y;		/* y might be 8 or 16 bit, but we need 16 bit, so use a 16 bit variable */
 170:/Users/imashio/Electronics/ARM/_Library/u8g2_ll_hvline.c ****   offset &= ~7;
ARM GAS  /var/folders/v3/wysfpd052nz8jkbx04pk0ym80000gn/T//ccDsyTAW.s 			page 8


 171:/Users/imashio/Electronics/ARM/_Library/u8g2_ll_hvline.c ****   offset *= u8g2_GetU8x8(u8g2)->display_info->tile_width;
 172:/Users/imashio/Electronics/ARM/_Library/u8g2_ll_hvline.c ****   ptr = u8g2->tile_buf_ptr;
 173:/Users/imashio/Electronics/ARM/_Library/u8g2_ll_hvline.c ****   ptr += offset;
 174:/Users/imashio/Electronics/ARM/_Library/u8g2_ll_hvline.c ****   ptr += x;
 175:/Users/imashio/Electronics/ARM/_Library/u8g2_ll_hvline.c **** 
 176:/Users/imashio/Electronics/ARM/_Library/u8g2_ll_hvline.c **** 
 177:/Users/imashio/Electronics/ARM/_Library/u8g2_ll_hvline.c ****   if ( u8g2->draw_color <= 1 )
 178:/Users/imashio/Electronics/ARM/_Library/u8g2_ll_hvline.c ****     *ptr |= mask;
 179:/Users/imashio/Electronics/ARM/_Library/u8g2_ll_hvline.c ****   if ( u8g2->draw_color != 1 )
 180:/Users/imashio/Electronics/ARM/_Library/u8g2_ll_hvline.c ****     *ptr ^= mask;
 181:/Users/imashio/Electronics/ARM/_Library/u8g2_ll_hvline.c **** 
 182:/Users/imashio/Electronics/ARM/_Library/u8g2_ll_hvline.c **** }
 183:/Users/imashio/Electronics/ARM/_Library/u8g2_ll_hvline.c **** 
 184:/Users/imashio/Electronics/ARM/_Library/u8g2_ll_hvline.c **** /*
 185:/Users/imashio/Electronics/ARM/_Library/u8g2_ll_hvline.c ****   x,y		Upper left position of the line within the local buffer (not the display!)
 186:/Users/imashio/Electronics/ARM/_Library/u8g2_ll_hvline.c ****   len		length of the line in pixel, len must not be 0
 187:/Users/imashio/Electronics/ARM/_Library/u8g2_ll_hvline.c ****   dir		0: horizontal line (left to right)
 188:/Users/imashio/Electronics/ARM/_Library/u8g2_ll_hvline.c **** 		1: vertical line (top to bottom)
 189:/Users/imashio/Electronics/ARM/_Library/u8g2_ll_hvline.c ****   asumption: 
 190:/Users/imashio/Electronics/ARM/_Library/u8g2_ll_hvline.c ****     all clipping done
 191:/Users/imashio/Electronics/ARM/_Library/u8g2_ll_hvline.c **** */
 192:/Users/imashio/Electronics/ARM/_Library/u8g2_ll_hvline.c **** void u8g2_ll_hvline_vertical_top_lsb(u8g2_t *u8g2, u8g2_uint_t x, u8g2_uint_t y, u8g2_uint_t len, u
 193:/Users/imashio/Electronics/ARM/_Library/u8g2_ll_hvline.c **** {
 194:/Users/imashio/Electronics/ARM/_Library/u8g2_ll_hvline.c ****   if ( dir == 0 )
 195:/Users/imashio/Electronics/ARM/_Library/u8g2_ll_hvline.c ****   {
 196:/Users/imashio/Electronics/ARM/_Library/u8g2_ll_hvline.c ****     do
 197:/Users/imashio/Electronics/ARM/_Library/u8g2_ll_hvline.c ****     {
 198:/Users/imashio/Electronics/ARM/_Library/u8g2_ll_hvline.c ****       u8g2_draw_pixel_vertical_top_lsb(u8g2, x, y);
 199:/Users/imashio/Electronics/ARM/_Library/u8g2_ll_hvline.c ****       x++;
 200:/Users/imashio/Electronics/ARM/_Library/u8g2_ll_hvline.c ****       len--;
 201:/Users/imashio/Electronics/ARM/_Library/u8g2_ll_hvline.c ****     } while( len != 0 );
 202:/Users/imashio/Electronics/ARM/_Library/u8g2_ll_hvline.c ****   }
 203:/Users/imashio/Electronics/ARM/_Library/u8g2_ll_hvline.c ****   else
 204:/Users/imashio/Electronics/ARM/_Library/u8g2_ll_hvline.c ****   {
 205:/Users/imashio/Electronics/ARM/_Library/u8g2_ll_hvline.c ****     do
 206:/Users/imashio/Electronics/ARM/_Library/u8g2_ll_hvline.c ****     {
 207:/Users/imashio/Electronics/ARM/_Library/u8g2_ll_hvline.c ****       u8g2_draw_pixel_vertical_top_lsb(u8g2, x, y);
 208:/Users/imashio/Electronics/ARM/_Library/u8g2_ll_hvline.c ****       y++;
 209:/Users/imashio/Electronics/ARM/_Library/u8g2_ll_hvline.c ****       len--;
 210:/Users/imashio/Electronics/ARM/_Library/u8g2_ll_hvline.c ****     } while( len != 0 );
 211:/Users/imashio/Electronics/ARM/_Library/u8g2_ll_hvline.c ****   }
 212:/Users/imashio/Electronics/ARM/_Library/u8g2_ll_hvline.c **** }
 213:/Users/imashio/Electronics/ARM/_Library/u8g2_ll_hvline.c **** 
 214:/Users/imashio/Electronics/ARM/_Library/u8g2_ll_hvline.c **** 
 215:/Users/imashio/Electronics/ARM/_Library/u8g2_ll_hvline.c **** #endif /* U8G2_HVLINE_SPEED_OPTIMIZATION */
 216:/Users/imashio/Electronics/ARM/_Library/u8g2_ll_hvline.c **** 
 217:/Users/imashio/Electronics/ARM/_Library/u8g2_ll_hvline.c **** /*=================================================*/
 218:/Users/imashio/Electronics/ARM/_Library/u8g2_ll_hvline.c **** /*
 219:/Users/imashio/Electronics/ARM/_Library/u8g2_ll_hvline.c ****   u8g2_ll_hvline_horizontal_right_lsb
 220:/Users/imashio/Electronics/ARM/_Library/u8g2_ll_hvline.c ****     ST7920
 221:/Users/imashio/Electronics/ARM/_Library/u8g2_ll_hvline.c **** */
 222:/Users/imashio/Electronics/ARM/_Library/u8g2_ll_hvline.c **** 
 223:/Users/imashio/Electronics/ARM/_Library/u8g2_ll_hvline.c **** #ifdef U8G2_HVLINE_SPEED_OPTIMIZATION
 224:/Users/imashio/Electronics/ARM/_Library/u8g2_ll_hvline.c **** 
 225:/Users/imashio/Electronics/ARM/_Library/u8g2_ll_hvline.c **** /*
 226:/Users/imashio/Electronics/ARM/_Library/u8g2_ll_hvline.c ****   x,y		Upper left position of the line within the local buffer (not the display!)
 227:/Users/imashio/Electronics/ARM/_Library/u8g2_ll_hvline.c ****   len		length of the line in pixel, len must not be 0
ARM GAS  /var/folders/v3/wysfpd052nz8jkbx04pk0ym80000gn/T//ccDsyTAW.s 			page 9


 228:/Users/imashio/Electronics/ARM/_Library/u8g2_ll_hvline.c ****   dir		0: horizontal line (left to right)
 229:/Users/imashio/Electronics/ARM/_Library/u8g2_ll_hvline.c **** 		1: vertical line (top to bottom)
 230:/Users/imashio/Electronics/ARM/_Library/u8g2_ll_hvline.c ****   asumption: 
 231:/Users/imashio/Electronics/ARM/_Library/u8g2_ll_hvline.c ****     all clipping done
 232:/Users/imashio/Electronics/ARM/_Library/u8g2_ll_hvline.c **** */
 233:/Users/imashio/Electronics/ARM/_Library/u8g2_ll_hvline.c **** 
 234:/Users/imashio/Electronics/ARM/_Library/u8g2_ll_hvline.c **** void u8g2_ll_hvline_horizontal_right_lsb(u8g2_t *u8g2, u8g2_uint_t x, u8g2_uint_t y, u8g2_uint_t le
 235:/Users/imashio/Electronics/ARM/_Library/u8g2_ll_hvline.c **** {
 198              		.loc 1 235 0
 199              		.cfi_startproc
 200              		@ args = 4, pretend = 0, frame = 0
 201              		@ frame_needed = 0, uses_anonymous_args = 0
 202              		@ link register save eliminated.
 203              	.LVL26:
 204 0000 F0B4     		push	{r4, r5, r6, r7}
 205              	.LCFI1:
 206              		.cfi_def_cfa_offset 16
 207              		.cfi_offset 4, -16
 208              		.cfi_offset 5, -12
 209              		.cfi_offset 6, -8
 210              		.cfi_offset 7, -4
 236:/Users/imashio/Electronics/ARM/_Library/u8g2_ll_hvline.c ****   uint16_t offset;
 237:/Users/imashio/Electronics/ARM/_Library/u8g2_ll_hvline.c ****   uint8_t *ptr;
 238:/Users/imashio/Electronics/ARM/_Library/u8g2_ll_hvline.c ****   uint8_t bit_pos;
 239:/Users/imashio/Electronics/ARM/_Library/u8g2_ll_hvline.c ****   uint8_t mask;
 240:/Users/imashio/Electronics/ARM/_Library/u8g2_ll_hvline.c ****   uint8_t tile_width = u8g2_GetU8x8(u8g2)->display_info->tile_width;
 211              		.loc 1 240 0
 212 0002 0568     		ldr	r5, [r0]
 241:/Users/imashio/Electronics/ARM/_Library/u8g2_ll_hvline.c **** 
 242:/Users/imashio/Electronics/ARM/_Library/u8g2_ll_hvline.c ****   bit_pos = x;		/* overflow truncate is ok here... */
 243:/Users/imashio/Electronics/ARM/_Library/u8g2_ll_hvline.c ****   bit_pos &= 7; 	/* ... because only the lowest 3 bits are needed */
 244:/Users/imashio/Electronics/ARM/_Library/u8g2_ll_hvline.c ****   mask = 128;
 245:/Users/imashio/Electronics/ARM/_Library/u8g2_ll_hvline.c ****   mask >>= bit_pos;
 246:/Users/imashio/Electronics/ARM/_Library/u8g2_ll_hvline.c **** 
 247:/Users/imashio/Electronics/ARM/_Library/u8g2_ll_hvline.c ****   offset = y;		/* y might be 8 or 16 bit, but we need 16 bit, so use a 16 bit variable */
 248:/Users/imashio/Electronics/ARM/_Library/u8g2_ll_hvline.c ****   offset *= tile_width;
 249:/Users/imashio/Electronics/ARM/_Library/u8g2_ll_hvline.c ****   offset += x>>3;
 250:/Users/imashio/Electronics/ARM/_Library/u8g2_ll_hvline.c ****   ptr = u8g2->tile_buf_ptr;
 213              		.loc 1 250 0
 214 0004 446B     		ldr	r4, [r0, #52]
 240:/Users/imashio/Electronics/ARM/_Library/u8g2_ll_hvline.c **** 
 215              		.loc 1 240 0
 216 0006 2F7C     		ldrb	r7, [r5, #16]	@ zero_extendqisi2
 217              	.LVL27:
 235:/Users/imashio/Electronics/ARM/_Library/u8g2_ll_hvline.c ****   uint16_t offset;
 218              		.loc 1 235 0
 219 0008 9DF81060 		ldrb	r6, [sp, #16]	@ zero_extendqisi2
 249:/Users/imashio/Electronics/ARM/_Library/u8g2_ll_hvline.c ****   ptr = u8g2->tile_buf_ptr;
 220              		.loc 1 249 0
 221 000c CD08     		lsrs	r5, r1, #3
 222 000e 07FB0252 		mla	r2, r7, r2, r5
 223              	.LVL28:
 245:/Users/imashio/Electronics/ARM/_Library/u8g2_ll_hvline.c **** 
 224              		.loc 1 245 0
 225 0012 01F00701 		and	r1, r1, #7
 226              	.LVL29:
 227 0016 8025     		movs	r5, #128
ARM GAS  /var/folders/v3/wysfpd052nz8jkbx04pk0ym80000gn/T//ccDsyTAW.s 			page 10


 228 0018 45FA01F1 		asr	r1, r5, r1
 251:/Users/imashio/Electronics/ARM/_Library/u8g2_ll_hvline.c ****   ptr += offset;
 229              		.loc 1 251 0
 230 001c 14FA82F2 		uxtah	r2, r4, r2
 245:/Users/imashio/Electronics/ARM/_Library/u8g2_ll_hvline.c **** 
 231              		.loc 1 245 0
 232 0020 CDB2     		uxtb	r5, r1
 233              	.LVL30:
 252:/Users/imashio/Electronics/ARM/_Library/u8g2_ll_hvline.c ****   
 253:/Users/imashio/Electronics/ARM/_Library/u8g2_ll_hvline.c ****   if ( dir == 0 )
 234              		.loc 1 253 0
 235 0022 4EB3     		cbz	r6, .L24
 236 0024 0021     		movs	r1, #0
 237 0026 05E0     		b	.L28
 238              	.LVL31:
 239              	.L26:
 254:/Users/imashio/Electronics/ARM/_Library/u8g2_ll_hvline.c ****   {
 255:/Users/imashio/Electronics/ARM/_Library/u8g2_ll_hvline.c ****       
 256:/Users/imashio/Electronics/ARM/_Library/u8g2_ll_hvline.c ****     do
 257:/Users/imashio/Electronics/ARM/_Library/u8g2_ll_hvline.c ****     {
 258:/Users/imashio/Electronics/ARM/_Library/u8g2_ll_hvline.c **** 
 259:/Users/imashio/Electronics/ARM/_Library/u8g2_ll_hvline.c ****       if ( u8g2->draw_color <= 1 )
 260:/Users/imashio/Electronics/ARM/_Library/u8g2_ll_hvline.c **** 	*ptr |= mask;
 261:/Users/imashio/Electronics/ARM/_Library/u8g2_ll_hvline.c ****       if ( u8g2->draw_color != 1 )
 262:/Users/imashio/Electronics/ARM/_Library/u8g2_ll_hvline.c **** 	*ptr ^= mask;
 263:/Users/imashio/Electronics/ARM/_Library/u8g2_ll_hvline.c ****       
 264:/Users/imashio/Electronics/ARM/_Library/u8g2_ll_hvline.c ****       mask >>= 1;
 265:/Users/imashio/Electronics/ARM/_Library/u8g2_ll_hvline.c ****       if ( mask == 0 )
 266:/Users/imashio/Electronics/ARM/_Library/u8g2_ll_hvline.c ****       {
 267:/Users/imashio/Electronics/ARM/_Library/u8g2_ll_hvline.c **** 	mask = 128;
 268:/Users/imashio/Electronics/ARM/_Library/u8g2_ll_hvline.c ****         ptr++;
 269:/Users/imashio/Electronics/ARM/_Library/u8g2_ll_hvline.c ****       }
 270:/Users/imashio/Electronics/ARM/_Library/u8g2_ll_hvline.c ****       
 271:/Users/imashio/Electronics/ARM/_Library/u8g2_ll_hvline.c ****       //x++;
 272:/Users/imashio/Electronics/ARM/_Library/u8g2_ll_hvline.c ****       len--;
 273:/Users/imashio/Electronics/ARM/_Library/u8g2_ll_hvline.c ****     } while( len != 0 );
 274:/Users/imashio/Electronics/ARM/_Library/u8g2_ll_hvline.c ****   }
 275:/Users/imashio/Electronics/ARM/_Library/u8g2_ll_hvline.c ****   else
 276:/Users/imashio/Electronics/ARM/_Library/u8g2_ll_hvline.c ****   {
 277:/Users/imashio/Electronics/ARM/_Library/u8g2_ll_hvline.c ****     do
 278:/Users/imashio/Electronics/ARM/_Library/u8g2_ll_hvline.c ****     {
 279:/Users/imashio/Electronics/ARM/_Library/u8g2_ll_hvline.c ****       if ( u8g2->draw_color <= 1 )
 280:/Users/imashio/Electronics/ARM/_Library/u8g2_ll_hvline.c **** 	*ptr |= mask;
 281:/Users/imashio/Electronics/ARM/_Library/u8g2_ll_hvline.c ****       if ( u8g2->draw_color != 1 )
 282:/Users/imashio/Electronics/ARM/_Library/u8g2_ll_hvline.c **** 	*ptr ^= mask;
 240              		.loc 1 282 0
 241 0028 6C40     		eors	r4, r4, r5
 283:/Users/imashio/Electronics/ARM/_Library/u8g2_ll_hvline.c ****       
 284:/Users/imashio/Electronics/ARM/_Library/u8g2_ll_hvline.c ****       ptr += tile_width;
 285:/Users/imashio/Electronics/ARM/_Library/u8g2_ll_hvline.c ****       //y++;
 286:/Users/imashio/Electronics/ARM/_Library/u8g2_ll_hvline.c ****       len--;
 287:/Users/imashio/Electronics/ARM/_Library/u8g2_ll_hvline.c ****     } while( len != 0 );
 242              		.loc 1 287 0
 243 002a 13F0FF03 		ands	r3, r3, #255
 244              	.LVL32:
 282:/Users/imashio/Electronics/ARM/_Library/u8g2_ll_hvline.c ****       
 245              		.loc 1 282 0
ARM GAS  /var/folders/v3/wysfpd052nz8jkbx04pk0ym80000gn/T//ccDsyTAW.s 			page 11


 246 002e 5454     		strb	r4, [r2, r1]
 247 0030 3944     		add	r1, r1, r7
 248              		.loc 1 287 0
 249 0032 10D0     		beq	.L19
 250              	.L28:
 251              	.LVL33:
 279:/Users/imashio/Electronics/ARM/_Library/u8g2_ll_hvline.c **** 	*ptr |= mask;
 252              		.loc 1 279 0
 253 0034 90F87D60 		ldrb	r6, [r0, #125]	@ zero_extendqisi2
 254 0038 545C     		ldrb	r4, [r2, r1]	@ zero_extendqisi2
 255 003a 012E     		cmp	r6, #1
 286:/Users/imashio/Electronics/ARM/_Library/u8g2_ll_hvline.c ****     } while( len != 0 );
 256              		.loc 1 286 0
 257 003c 03F1FF33 		add	r3, r3, #-1
 258              	.LVL34:
 279:/Users/imashio/Electronics/ARM/_Library/u8g2_ll_hvline.c **** 	*ptr |= mask;
 259              		.loc 1 279 0
 260 0040 F2D8     		bhi	.L26
 280:/Users/imashio/Electronics/ARM/_Library/u8g2_ll_hvline.c ****       if ( u8g2->draw_color != 1 )
 261              		.loc 1 280 0
 262 0042 2C43     		orrs	r4, r4, r5
 263 0044 5454     		strb	r4, [r2, r1]
 281:/Users/imashio/Electronics/ARM/_Library/u8g2_ll_hvline.c **** 	*ptr ^= mask;
 264              		.loc 1 281 0
 265 0046 90F87D60 		ldrb	r6, [r0, #125]	@ zero_extendqisi2
 266 004a 012E     		cmp	r6, #1
 267 004c ECD1     		bne	.L26
 268              		.loc 1 287 0
 269 004e 13F0FF03 		ands	r3, r3, #255
 270              	.LVL35:
 271 0052 3944     		add	r1, r1, r7
 272 0054 EED1     		bne	.L28
 273              	.L19:
 288:/Users/imashio/Electronics/ARM/_Library/u8g2_ll_hvline.c ****   }
 289:/Users/imashio/Electronics/ARM/_Library/u8g2_ll_hvline.c **** }
 274              		.loc 1 289 0
 275 0056 F0BC     		pop	{r4, r5, r6, r7}
 276              	.LCFI2:
 277              		.cfi_remember_state
 278              		.cfi_restore 7
 279              		.cfi_restore 6
 280              		.cfi_restore 5
 281              		.cfi_restore 4
 282              		.cfi_def_cfa_offset 0
 283              	.LVL36:
 284 0058 7047     		bx	lr
 285              	.LVL37:
 286              	.L39:
 287              	.LCFI3:
 288              		.cfi_restore_state
 260:/Users/imashio/Electronics/ARM/_Library/u8g2_ll_hvline.c ****       if ( u8g2->draw_color != 1 )
 289              		.loc 1 260 0
 290 005a 2943     		orrs	r1, r1, r5
 291 005c 1170     		strb	r1, [r2]
 261:/Users/imashio/Electronics/ARM/_Library/u8g2_ll_hvline.c **** 	*ptr ^= mask;
 292              		.loc 1 261 0
 293 005e 90F87D40 		ldrb	r4, [r0, #125]	@ zero_extendqisi2
ARM GAS  /var/folders/v3/wysfpd052nz8jkbx04pk0ym80000gn/T//ccDsyTAW.s 			page 12


 294 0062 012C     		cmp	r4, #1
 295 0064 01D0     		beq	.L22
 296              	.L21:
 262:/Users/imashio/Electronics/ARM/_Library/u8g2_ll_hvline.c ****       
 297              		.loc 1 262 0
 298 0066 6940     		eors	r1, r1, r5
 299 0068 1170     		strb	r1, [r2]
 300              	.L22:
 265:/Users/imashio/Electronics/ARM/_Library/u8g2_ll_hvline.c ****       {
 301              		.loc 1 265 0
 302 006a 6D08     		lsrs	r5, r5, #1
 268:/Users/imashio/Electronics/ARM/_Library/u8g2_ll_hvline.c ****       }
 303              		.loc 1 268 0
 304 006c 04BF     		itt	eq
 305 006e 0132     		addeq	r2, r2, #1
 306              	.LVL38:
 267:/Users/imashio/Electronics/ARM/_Library/u8g2_ll_hvline.c ****         ptr++;
 307              		.loc 1 267 0
 308 0070 8025     		moveq	r5, #128
 309              	.LVL39:
 273:/Users/imashio/Electronics/ARM/_Library/u8g2_ll_hvline.c ****   }
 310              		.loc 1 273 0
 311 0072 13F0FF03 		ands	r3, r3, #255
 312              	.LVL40:
 313 0076 EED0     		beq	.L19
 314              	.L24:
 315              	.LVL41:
 259:/Users/imashio/Electronics/ARM/_Library/u8g2_ll_hvline.c **** 	*ptr |= mask;
 316              		.loc 1 259 0
 317 0078 90F87D40 		ldrb	r4, [r0, #125]	@ zero_extendqisi2
 318 007c 1178     		ldrb	r1, [r2]	@ zero_extendqisi2
 319 007e 012C     		cmp	r4, #1
 272:/Users/imashio/Electronics/ARM/_Library/u8g2_ll_hvline.c ****     } while( len != 0 );
 320              		.loc 1 272 0
 321 0080 03F1FF33 		add	r3, r3, #-1
 322              	.LVL42:
 259:/Users/imashio/Electronics/ARM/_Library/u8g2_ll_hvline.c **** 	*ptr |= mask;
 323              		.loc 1 259 0
 324 0084 EFD8     		bhi	.L21
 325 0086 E8E7     		b	.L39
 326              		.cfi_endproc
 327              	.LFE1:
 329              		.text
 330              	.Letext0:
 331              		.file 2 "/usr/local/gcc-arm-none-eabi-7-2018-q2-update/arm-none-eabi/include/machine/_default_type
 332              		.file 3 "/usr/local/gcc-arm-none-eabi-7-2018-q2-update/arm-none-eabi/include/sys/_stdint.h"
 333              		.file 4 "/Users/imashio/Electronics/ARM/_Library/u8x8.h"
 334              		.file 5 "/Users/imashio/Electronics/ARM/_Library/u8g2.h"
ARM GAS  /var/folders/v3/wysfpd052nz8jkbx04pk0ym80000gn/T//ccDsyTAW.s 			page 13

