ARM GAS  /var/folders/v3/wysfpd052nz8jkbx04pk0ym80000gn/T//cc6QlY8U.s 			page 1


   1              		.cpu cortex-m4
   2              		.eabi_attribute 27, 1
   3              		.eabi_attribute 28, 1
   4              		.eabi_attribute 20, 1
   5              		.eabi_attribute 21, 1
   6              		.eabi_attribute 23, 3
   7              		.eabi_attribute 24, 1
   8              		.eabi_attribute 25, 1
   9              		.eabi_attribute 26, 1
  10              		.eabi_attribute 30, 2
  11              		.eabi_attribute 34, 1
  12              		.eabi_attribute 18, 4
  13              		.file	"u8g2_line.c"
  14              		.text
  15              	.Ltext0:
  16              		.cfi_sections	.debug_frame
  17              		.section	.text.u8g2_DrawLine,"ax",%progbits
  18              		.align	1
  19              		.p2align 2,,3
  20              		.global	u8g2_DrawLine
  21              		.syntax unified
  22              		.thumb
  23              		.thumb_func
  24              		.fpu fpv4-sp-d16
  26              	u8g2_DrawLine:
  27              	.LFB0:
  28              		.file 1 "/Users/imashio/Electronics/ARM/_Library/u8g2_line.c"
   1:/Users/imashio/Electronics/ARM/_Library/u8g2_line.c **** /*
   2:/Users/imashio/Electronics/ARM/_Library/u8g2_line.c **** 
   3:/Users/imashio/Electronics/ARM/_Library/u8g2_line.c ****   u8g2_box.c
   4:/Users/imashio/Electronics/ARM/_Library/u8g2_line.c **** 
   5:/Users/imashio/Electronics/ARM/_Library/u8g2_line.c ****   Universal 8bit Graphics Library (https://github.com/olikraus/u8g2/)
   6:/Users/imashio/Electronics/ARM/_Library/u8g2_line.c **** 
   7:/Users/imashio/Electronics/ARM/_Library/u8g2_line.c ****   Copyright (c) 2016, olikraus@gmail.com
   8:/Users/imashio/Electronics/ARM/_Library/u8g2_line.c ****   All rights reserved.
   9:/Users/imashio/Electronics/ARM/_Library/u8g2_line.c **** 
  10:/Users/imashio/Electronics/ARM/_Library/u8g2_line.c ****   Redistribution and use in source and binary forms, with or without modification, 
  11:/Users/imashio/Electronics/ARM/_Library/u8g2_line.c ****   are permitted provided that the following conditions are met:
  12:/Users/imashio/Electronics/ARM/_Library/u8g2_line.c **** 
  13:/Users/imashio/Electronics/ARM/_Library/u8g2_line.c ****   * Redistributions of source code must retain the above copyright notice, this list 
  14:/Users/imashio/Electronics/ARM/_Library/u8g2_line.c ****     of conditions and the following disclaimer.
  15:/Users/imashio/Electronics/ARM/_Library/u8g2_line.c ****     
  16:/Users/imashio/Electronics/ARM/_Library/u8g2_line.c ****   * Redistributions in binary form must reproduce the above copyright notice, this 
  17:/Users/imashio/Electronics/ARM/_Library/u8g2_line.c ****     list of conditions and the following disclaimer in the documentation and/or other 
  18:/Users/imashio/Electronics/ARM/_Library/u8g2_line.c ****     materials provided with the distribution.
  19:/Users/imashio/Electronics/ARM/_Library/u8g2_line.c **** 
  20:/Users/imashio/Electronics/ARM/_Library/u8g2_line.c ****   THIS SOFTWARE IS PROVIDED BY THE COPYRIGHT HOLDERS AND 
  21:/Users/imashio/Electronics/ARM/_Library/u8g2_line.c ****   CONTRIBUTORS "AS IS" AND ANY EXPRESS OR IMPLIED WARRANTIES, 
  22:/Users/imashio/Electronics/ARM/_Library/u8g2_line.c ****   INCLUDING, BUT NOT LIMITED TO, THE IMPLIED WARRANTIES OF 
  23:/Users/imashio/Electronics/ARM/_Library/u8g2_line.c ****   MERCHANTABILITY AND FITNESS FOR A PARTICULAR PURPOSE ARE 
  24:/Users/imashio/Electronics/ARM/_Library/u8g2_line.c ****   DISCLAIMED. IN NO EVENT SHALL THE COPYRIGHT HOLDER OR 
  25:/Users/imashio/Electronics/ARM/_Library/u8g2_line.c ****   CONTRIBUTORS BE LIABLE FOR ANY DIRECT, INDIRECT, INCIDENTAL, 
  26:/Users/imashio/Electronics/ARM/_Library/u8g2_line.c ****   SPECIAL, EXEMPLARY, OR CONSEQUENTIAL DAMAGES (INCLUDING, BUT 
  27:/Users/imashio/Electronics/ARM/_Library/u8g2_line.c ****   NOT LIMITED TO, PROCUREMENT OF SUBSTITUTE GOODS OR SERVICES; 
  28:/Users/imashio/Electronics/ARM/_Library/u8g2_line.c ****   LOSS OF USE, DATA, OR PROFITS; OR BUSINESS INTERRUPTION) HOWEVER 
  29:/Users/imashio/Electronics/ARM/_Library/u8g2_line.c ****   CAUSED AND ON ANY THEORY OF LIABILITY, WHETHER IN CONTRACT, 
  30:/Users/imashio/Electronics/ARM/_Library/u8g2_line.c ****   STRICT LIABILITY, OR TORT (INCLUDING NEGLIGENCE OR OTHERWISE) 
ARM GAS  /var/folders/v3/wysfpd052nz8jkbx04pk0ym80000gn/T//cc6QlY8U.s 			page 2


  31:/Users/imashio/Electronics/ARM/_Library/u8g2_line.c ****   ARISING IN ANY WAY OUT OF THE USE OF THIS SOFTWARE, EVEN IF 
  32:/Users/imashio/Electronics/ARM/_Library/u8g2_line.c ****   ADVISED OF THE POSSIBILITY OF SUCH DAMAGE.  
  33:/Users/imashio/Electronics/ARM/_Library/u8g2_line.c **** 
  34:/Users/imashio/Electronics/ARM/_Library/u8g2_line.c **** */
  35:/Users/imashio/Electronics/ARM/_Library/u8g2_line.c **** 
  36:/Users/imashio/Electronics/ARM/_Library/u8g2_line.c **** #include "u8g2.h"
  37:/Users/imashio/Electronics/ARM/_Library/u8g2_line.c **** 
  38:/Users/imashio/Electronics/ARM/_Library/u8g2_line.c **** 
  39:/Users/imashio/Electronics/ARM/_Library/u8g2_line.c **** void u8g2_DrawLine(u8g2_t *u8g2, u8g2_uint_t x1, u8g2_uint_t y1, u8g2_uint_t x2, u8g2_uint_t y2)
  40:/Users/imashio/Electronics/ARM/_Library/u8g2_line.c **** {
  29              		.loc 1 40 0
  30              		.cfi_startproc
  31              		@ args = 4, pretend = 0, frame = 8
  32              		@ frame_needed = 0, uses_anonymous_args = 0
  33              	.LVL0:
  34 0000 2DE9F04F 		push	{r4, r5, r6, r7, r8, r9, r10, fp, lr}
  35              	.LCFI0:
  36              		.cfi_def_cfa_offset 36
  37              		.cfi_offset 4, -36
  38              		.cfi_offset 5, -32
  39              		.cfi_offset 6, -28
  40              		.cfi_offset 7, -24
  41              		.cfi_offset 8, -20
  42              		.cfi_offset 9, -16
  43              		.cfi_offset 10, -12
  44              		.cfi_offset 11, -8
  45              		.cfi_offset 14, -4
  46 0004 83B0     		sub	sp, sp, #12
  47              	.LCFI1:
  48              		.cfi_def_cfa_offset 48
  41:/Users/imashio/Electronics/ARM/_Library/u8g2_line.c ****   u8g2_uint_t tmp;
  42:/Users/imashio/Electronics/ARM/_Library/u8g2_line.c ****   u8g2_uint_t x,y;
  43:/Users/imashio/Electronics/ARM/_Library/u8g2_line.c ****   u8g2_uint_t dx, dy;
  44:/Users/imashio/Electronics/ARM/_Library/u8g2_line.c ****   u8g2_int_t err;
  45:/Users/imashio/Electronics/ARM/_Library/u8g2_line.c ****   u8g2_int_t ystep;
  46:/Users/imashio/Electronics/ARM/_Library/u8g2_line.c **** 
  47:/Users/imashio/Electronics/ARM/_Library/u8g2_line.c ****   uint8_t swapxy = 0;
  48:/Users/imashio/Electronics/ARM/_Library/u8g2_line.c ****   
  49:/Users/imashio/Electronics/ARM/_Library/u8g2_line.c ****   /* no intersection check at the moment, should be added... */
  50:/Users/imashio/Electronics/ARM/_Library/u8g2_line.c **** 
  51:/Users/imashio/Electronics/ARM/_Library/u8g2_line.c ****   if ( x1 > x2 ) dx = x1-x2; else dx = x2-x1;
  49              		.loc 1 51 0
  50 0006 9942     		cmp	r1, r3
  40:/Users/imashio/Electronics/ARM/_Library/u8g2_line.c ****   u8g2_uint_t tmp;
  51              		.loc 1 40 0
  52 0008 9DF83090 		ldrb	r9, [sp, #48]	@ zero_extendqisi2
  53              		.loc 1 51 0
  54 000c 8CBF     		ite	hi
  55 000e A1EB030A 		subhi	r10, r1, r3
  56 0012 A3EB010A 		subls	r10, r3, r1
  52:/Users/imashio/Electronics/ARM/_Library/u8g2_line.c ****   if ( y1 > y2 ) dy = y1-y2; else dy = y2-y1;
  57              		.loc 1 52 0
  58 0016 4A45     		cmp	r2, r9
  40:/Users/imashio/Electronics/ARM/_Library/u8g2_line.c ****   u8g2_uint_t tmp;
  59              		.loc 1 40 0
  60 0018 0C46     		mov	r4, r1
  61              	.LVL1:
ARM GAS  /var/folders/v3/wysfpd052nz8jkbx04pk0ym80000gn/T//cc6QlY8U.s 			page 3


  62 001a 9B46     		mov	fp, r3
  63 001c 8046     		mov	r8, r0
  64 001e 1546     		mov	r5, r2
  51:/Users/imashio/Electronics/ARM/_Library/u8g2_line.c ****   if ( y1 > y2 ) dy = y1-y2; else dy = y2-y1;
  65              		.loc 1 51 0
  66 0020 5FFA8AFA 		uxtb	r10, r10
  67              	.LVL2:
  68              		.loc 1 52 0
  69 0024 38D9     		bls	.L4
  70              		.loc 1 52 0 is_stmt 0 discriminator 1
  71 0026 A2EB0907 		sub	r7, r2, r9
  72 002a FFB2     		uxtb	r7, r7
  73              	.LVL3:
  53:/Users/imashio/Electronics/ARM/_Library/u8g2_line.c **** 
  54:/Users/imashio/Electronics/ARM/_Library/u8g2_line.c ****   if ( dy > dx ) 
  74              		.loc 1 54 0 is_stmt 1 discriminator 1
  75 002c BA45     		cmp	r10, r7
  76 002e 3DD2     		bcs	.L25
  77              		.loc 1 54 0 is_stmt 0
  78 0030 5046     		mov	r0, r10
  79              	.LVL4:
  80 0032 1146     		mov	r1, r2
  81              	.LVL5:
  82 0034 1D46     		mov	r5, r3
  83 0036 2246     		mov	r2, r4
  84              	.LVL6:
  55:/Users/imashio/Electronics/ARM/_Library/u8g2_line.c ****   {
  56:/Users/imashio/Electronics/ARM/_Library/u8g2_line.c ****     swapxy = 1;
  85              		.loc 1 56 0 is_stmt 1
  86 0038 0123     		movs	r3, #1
  87              	.LVL7:
  54:/Users/imashio/Electronics/ARM/_Library/u8g2_line.c ****   {
  88              		.loc 1 54 0
  89 003a BA46     		mov	r10, r7
  90              	.LVL8:
  91 003c 4C46     		mov	r4, r9
  92 003e 0746     		mov	r7, r0
  93              	.LVL9:
  94 0040 8B46     		mov	fp, r1
  95              		.loc 1 56 0
  96 0042 0193     		str	r3, [sp, #4]
  54:/Users/imashio/Electronics/ARM/_Library/u8g2_line.c ****   {
  97              		.loc 1 54 0
  98 0044 9146     		mov	r9, r2
  99              	.LVL10:
 100              	.L5:
  57:/Users/imashio/Electronics/ARM/_Library/u8g2_line.c ****     tmp = dx; dx =dy; dy = tmp;
  58:/Users/imashio/Electronics/ARM/_Library/u8g2_line.c ****     tmp = x1; x1 =y1; y1 = tmp;
  59:/Users/imashio/Electronics/ARM/_Library/u8g2_line.c ****     tmp = x2; x2 =y2; y2 = tmp;
  60:/Users/imashio/Electronics/ARM/_Library/u8g2_line.c ****   }
  61:/Users/imashio/Electronics/ARM/_Library/u8g2_line.c ****   if ( x1 > x2 ) 
  62:/Users/imashio/Electronics/ARM/_Library/u8g2_line.c ****   {
  63:/Users/imashio/Electronics/ARM/_Library/u8g2_line.c ****     tmp = x1; x1 =x2; x2 = tmp;
  64:/Users/imashio/Electronics/ARM/_Library/u8g2_line.c ****     tmp = y1; y1 =y2; y2 = tmp;
  65:/Users/imashio/Electronics/ARM/_Library/u8g2_line.c ****   }
  66:/Users/imashio/Electronics/ARM/_Library/u8g2_line.c ****   err = dx >> 1;
  67:/Users/imashio/Electronics/ARM/_Library/u8g2_line.c ****   if ( y2 > y1 ) ystep = 1; else ystep = -1;
ARM GAS  /var/folders/v3/wysfpd052nz8jkbx04pk0ym80000gn/T//cc6QlY8U.s 			page 4


 101              		.loc 1 67 0
 102 0046 4D45     		cmp	r5, r9
 103 0048 34BF     		ite	cc
 104 004a 4FF00109 		movcc	r9, #1
 105 004e 4FF0FF39 		movcs	r9, #-1
 106              	.LVL11:
  66:/Users/imashio/Electronics/ARM/_Library/u8g2_line.c ****   if ( y2 > y1 ) ystep = 1; else ystep = -1;
 107              		.loc 1 66 0
 108 0052 4AF34706 		sbfx	r6, r10, #1, #8
 109              	.LVL12:
 110              	.L8:
  68:/Users/imashio/Electronics/ARM/_Library/u8g2_line.c ****   y = y1;
  69:/Users/imashio/Electronics/ARM/_Library/u8g2_line.c **** 
  70:/Users/imashio/Electronics/ARM/_Library/u8g2_line.c **** #ifndef  U8G2_16BIT
  71:/Users/imashio/Electronics/ARM/_Library/u8g2_line.c ****   if ( x2 == 255 )
  72:/Users/imashio/Electronics/ARM/_Library/u8g2_line.c ****     x2--;
 111              		.loc 1 72 0
 112 0056 BBF1FF0F 		cmp	fp, #255
 113 005a 08BF     		it	eq
 114 005c 4FF0FE0B 		moveq	fp, #254
 115              	.LVL13:
  73:/Users/imashio/Electronics/ARM/_Library/u8g2_line.c **** #else
  74:/Users/imashio/Electronics/ARM/_Library/u8g2_line.c ****   if ( x2 == 0xffff )
  75:/Users/imashio/Electronics/ARM/_Library/u8g2_line.c ****     x2--;
  76:/Users/imashio/Electronics/ARM/_Library/u8g2_line.c **** #endif
  77:/Users/imashio/Electronics/ARM/_Library/u8g2_line.c **** 
  78:/Users/imashio/Electronics/ARM/_Library/u8g2_line.c ****   for( x = x1; x <= x2; x++ )
 116              		.loc 1 78 0
 117 0060 5C45     		cmp	r4, fp
 118 0062 16D8     		bhi	.L1
 119              	.L14:
  79:/Users/imashio/Electronics/ARM/_Library/u8g2_line.c ****   {
  80:/Users/imashio/Electronics/ARM/_Library/u8g2_line.c ****     if ( swapxy == 0 ) 
 120              		.loc 1 80 0
 121 0064 019B     		ldr	r3, [sp, #4]
  81:/Users/imashio/Electronics/ARM/_Library/u8g2_line.c ****       u8g2_DrawPixel(u8g2, x, y); 
 122              		.loc 1 81 0
 123 0066 2A46     		mov	r2, r5
 124 0068 2146     		mov	r1, r4
 125 006a 4046     		mov	r0, r8
  80:/Users/imashio/Electronics/ARM/_Library/u8g2_line.c ****       u8g2_DrawPixel(u8g2, x, y); 
 126              		.loc 1 80 0
 127 006c 0BB1     		cbz	r3, .L23
 128              	.LVL14:
  82:/Users/imashio/Electronics/ARM/_Library/u8g2_line.c ****     else 
  83:/Users/imashio/Electronics/ARM/_Library/u8g2_line.c ****       u8g2_DrawPixel(u8g2, y, x); 
 129              		.loc 1 83 0
 130 006e 2246     		mov	r2, r4
 131 0070 2946     		mov	r1, r5
 132              	.L23:
  84:/Users/imashio/Electronics/ARM/_Library/u8g2_line.c ****     err -= (uint8_t)dy;
 133              		.loc 1 84 0
 134 0072 F61B     		subs	r6, r6, r7
 135              	.LVL15:
  83:/Users/imashio/Electronics/ARM/_Library/u8g2_line.c ****     err -= (uint8_t)dy;
 136              		.loc 1 83 0
 137 0074 FFF7FEFF 		bl	u8g2_DrawPixel
ARM GAS  /var/folders/v3/wysfpd052nz8jkbx04pk0ym80000gn/T//cc6QlY8U.s 			page 5


 138              	.LVL16:
 139              		.loc 1 84 0
 140 0078 F2B2     		uxtb	r2, r6
 141 007a 56B2     		sxtb	r6, r2
 142              	.LVL17:
  78:/Users/imashio/Electronics/ARM/_Library/u8g2_line.c ****   {
 143              		.loc 1 78 0
 144 007c 0134     		adds	r4, r4, #1
 145              	.LVL18:
  85:/Users/imashio/Electronics/ARM/_Library/u8g2_line.c ****     if ( err < 0 ) 
 146              		.loc 1 85 0
 147 007e 002E     		cmp	r6, #0
  78:/Users/imashio/Electronics/ARM/_Library/u8g2_line.c ****   {
 148              		.loc 1 78 0
 149 0080 E4B2     		uxtb	r4, r4
 150              		.loc 1 85 0
 151 0082 04DA     		bge	.L13
  86:/Users/imashio/Electronics/ARM/_Library/u8g2_line.c ****     {
  87:/Users/imashio/Electronics/ARM/_Library/u8g2_line.c ****       y += (u8g2_uint_t)ystep;
 152              		.loc 1 87 0
 153 0084 4D44     		add	r5, r5, r9
 154              	.LVL19:
  88:/Users/imashio/Electronics/ARM/_Library/u8g2_line.c ****       err += (u8g2_uint_t)dx;
 155              		.loc 1 88 0
 156 0086 02EB0A06 		add	r6, r2, r10
 157              	.LVL20:
  87:/Users/imashio/Electronics/ARM/_Library/u8g2_line.c ****       err += (u8g2_uint_t)dx;
 158              		.loc 1 87 0
 159 008a EDB2     		uxtb	r5, r5
 160              		.loc 1 88 0
 161 008c 76B2     		sxtb	r6, r6
 162              	.LVL21:
 163              	.L13:
  78:/Users/imashio/Electronics/ARM/_Library/u8g2_line.c ****   {
 164              		.loc 1 78 0 discriminator 2
 165 008e A345     		cmp	fp, r4
 166 0090 E8D2     		bcs	.L14
 167              	.L1:
  89:/Users/imashio/Electronics/ARM/_Library/u8g2_line.c ****     }
  90:/Users/imashio/Electronics/ARM/_Library/u8g2_line.c ****   }
  91:/Users/imashio/Electronics/ARM/_Library/u8g2_line.c **** }
 168              		.loc 1 91 0
 169 0092 03B0     		add	sp, sp, #12
 170              	.LCFI2:
 171              		.cfi_remember_state
 172              		.cfi_def_cfa_offset 36
 173              		@ sp needed
 174 0094 BDE8F08F 		pop	{r4, r5, r6, r7, r8, r9, r10, fp, pc}
 175              	.LVL22:
 176              	.L4:
 177              	.LCFI3:
 178              		.cfi_restore_state
  52:/Users/imashio/Electronics/ARM/_Library/u8g2_line.c **** 
 179              		.loc 1 52 0 discriminator 2
 180 0098 A9EB0207 		sub	r7, r9, r2
 181 009c FFB2     		uxtb	r7, r7
 182              	.LVL23:
ARM GAS  /var/folders/v3/wysfpd052nz8jkbx04pk0ym80000gn/T//cc6QlY8U.s 			page 6


  54:/Users/imashio/Electronics/ARM/_Library/u8g2_line.c ****   {
 183              		.loc 1 54 0 discriminator 2
 184 009e BA45     		cmp	r10, r7
 185 00a0 1CD3     		bcc	.L26
 186              	.LVL24:
  61:/Users/imashio/Electronics/ARM/_Library/u8g2_line.c ****   {
 187              		.loc 1 61 0
 188 00a2 9942     		cmp	r1, r3
 189 00a4 0FD8     		bhi	.L16
 190              	.LVL25:
 191              	.L22:
 192 00a6 0023     		movs	r3, #0
 193              	.LVL26:
 194 00a8 0193     		str	r3, [sp, #4]
 195 00aa CCE7     		b	.L5
 196              	.LVL27:
 197              	.L25:
 198 00ac 9942     		cmp	r1, r3
 199 00ae FAD9     		bls	.L22
 200              	.LVL28:
  66:/Users/imashio/Electronics/ARM/_Library/u8g2_line.c ****   if ( y2 > y1 ) ystep = 1; else ystep = -1;
 201              		.loc 1 66 0
 202 00b0 2246     		mov	r2, r4
 203              	.LVL29:
 204 00b2 0023     		movs	r3, #0
 205 00b4 4D46     		mov	r5, r9
 206              	.LVL30:
 207 00b6 5C46     		mov	r4, fp
 208              	.LVL31:
 209 00b8 4AF34706 		sbfx	r6, r10, #1, #8
 210              	.LVL32:
 211 00bc 9346     		mov	fp, r2
 212              	.LVL33:
 213 00be 0193     		str	r3, [sp, #4]
  67:/Users/imashio/Electronics/ARM/_Library/u8g2_line.c ****   y = y1;
 214              		.loc 1 67 0
 215 00c0 4FF00109 		mov	r9, #1
 216              	.LVL34:
 217 00c4 C7E7     		b	.L8
 218              	.LVL35:
 219              	.L16:
  66:/Users/imashio/Electronics/ARM/_Library/u8g2_line.c ****   if ( y2 > y1 ) ystep = 1; else ystep = -1;
 220              		.loc 1 66 0
 221 00c6 2246     		mov	r2, r4
 222              	.LVL36:
 223 00c8 0023     		movs	r3, #0
 224 00ca 4D46     		mov	r5, r9
 225              	.LVL37:
 226 00cc 5C46     		mov	r4, fp
 227              	.LVL38:
 228 00ce 4AF34706 		sbfx	r6, r10, #1, #8
 229              	.LVL39:
 230 00d2 9346     		mov	fp, r2
 231              	.LVL40:
 232 00d4 0193     		str	r3, [sp, #4]
  67:/Users/imashio/Electronics/ARM/_Library/u8g2_line.c ****   y = y1;
 233              		.loc 1 67 0
ARM GAS  /var/folders/v3/wysfpd052nz8jkbx04pk0ym80000gn/T//cc6QlY8U.s 			page 7


 234 00d6 4FF0FF39 		mov	r9, #-1
 235              	.LVL41:
 236 00da BCE7     		b	.L8
 237              	.LVL42:
 238              	.L26:
  54:/Users/imashio/Electronics/ARM/_Library/u8g2_line.c ****   {
 239              		.loc 1 54 0
 240 00dc 5046     		mov	r0, r10
 241              	.LVL43:
 242 00de 2246     		mov	r2, r4
 243              	.LVL44:
 244 00e0 CB46     		mov	fp, r9
 245 00e2 9946     		mov	r9, r3
  56:/Users/imashio/Electronics/ARM/_Library/u8g2_line.c ****     tmp = dx; dx =dy; dy = tmp;
 246              		.loc 1 56 0
 247 00e4 0123     		movs	r3, #1
 248              	.LVL45:
  54:/Users/imashio/Electronics/ARM/_Library/u8g2_line.c ****   {
 249              		.loc 1 54 0
 250 00e6 BA46     		mov	r10, r7
 251              	.LVL46:
 252 00e8 2C46     		mov	r4, r5
 253 00ea 0746     		mov	r7, r0
 254              	.LVL47:
  56:/Users/imashio/Electronics/ARM/_Library/u8g2_line.c ****     tmp = dx; dx =dy; dy = tmp;
 255              		.loc 1 56 0
 256 00ec 0193     		str	r3, [sp, #4]
  54:/Users/imashio/Electronics/ARM/_Library/u8g2_line.c ****   {
 257              		.loc 1 54 0
 258 00ee 1546     		mov	r5, r2
 259 00f0 A9E7     		b	.L5
 260              		.cfi_endproc
 261              	.LFE0:
 263 00f2 00BF     		.text
 264              	.Letext0:
 265              		.file 2 "/usr/local/gcc-arm-none-eabi-7-2018-q2-update/arm-none-eabi/include/machine/_default_type
 266              		.file 3 "/usr/local/gcc-arm-none-eabi-7-2018-q2-update/arm-none-eabi/include/sys/_stdint.h"
 267              		.file 4 "/Users/imashio/Electronics/ARM/_Library/u8x8.h"
 268              		.file 5 "/Users/imashio/Electronics/ARM/_Library/u8g2.h"
ARM GAS  /var/folders/v3/wysfpd052nz8jkbx04pk0ym80000gn/T//cc6QlY8U.s 			page 8

