ARM GAS  /var/folders/v3/wysfpd052nz8jkbx04pk0ym80000gn/T//ccfX3eBQ.s 			page 1


   1              		.cpu cortex-m4
   2              		.eabi_attribute 27, 1
   3              		.eabi_attribute 28, 1
   4              		.eabi_attribute 20, 1
   5              		.eabi_attribute 21, 1
   6              		.eabi_attribute 23, 3
   7              		.eabi_attribute 24, 1
   8              		.eabi_attribute 25, 1
   9              		.eabi_attribute 26, 1
  10              		.eabi_attribute 30, 1
  11              		.eabi_attribute 34, 1
  12              		.eabi_attribute 18, 4
  13              		.file	"u8g2_font.c"
  14              		.text
  15              	.Ltext0:
  16              		.cfi_sections	.debug_frame
  17              		.section	.text.u8g2_font_get_byte,"ax",%progbits
  18              		.align	1
  19              		.syntax unified
  20              		.thumb
  21              		.thumb_func
  22              		.fpu fpv4-sp-d16
  24              	u8g2_font_get_byte:
  25              	.LFB0:
  26              		.file 1 "/Users/imashio/Electronics/ARM/_Library/u8g2_font.c"
   1:/Users/imashio/Electronics/ARM/_Library/u8g2_font.c **** /*
   2:/Users/imashio/Electronics/ARM/_Library/u8g2_font.c **** 
   3:/Users/imashio/Electronics/ARM/_Library/u8g2_font.c ****   u8g2_font.c
   4:/Users/imashio/Electronics/ARM/_Library/u8g2_font.c **** 
   5:/Users/imashio/Electronics/ARM/_Library/u8g2_font.c ****   Universal 8bit Graphics Library (https://github.com/olikraus/u8g2/)
   6:/Users/imashio/Electronics/ARM/_Library/u8g2_font.c **** 
   7:/Users/imashio/Electronics/ARM/_Library/u8g2_font.c ****   Copyright (c) 2016, olikraus@gmail.com
   8:/Users/imashio/Electronics/ARM/_Library/u8g2_font.c ****   All rights reserved.
   9:/Users/imashio/Electronics/ARM/_Library/u8g2_font.c **** 
  10:/Users/imashio/Electronics/ARM/_Library/u8g2_font.c ****   Redistribution and use in source and binary forms, with or without modification, 
  11:/Users/imashio/Electronics/ARM/_Library/u8g2_font.c ****   are permitted provided that the following conditions are met:
  12:/Users/imashio/Electronics/ARM/_Library/u8g2_font.c **** 
  13:/Users/imashio/Electronics/ARM/_Library/u8g2_font.c ****   * Redistributions of source code must retain the above copyright notice, this list 
  14:/Users/imashio/Electronics/ARM/_Library/u8g2_font.c ****     of conditions and the following disclaimer.
  15:/Users/imashio/Electronics/ARM/_Library/u8g2_font.c ****     
  16:/Users/imashio/Electronics/ARM/_Library/u8g2_font.c ****   * Redistributions in binary form must reproduce the above copyright notice, this 
  17:/Users/imashio/Electronics/ARM/_Library/u8g2_font.c ****     list of conditions and the following disclaimer in the documentation and/or other 
  18:/Users/imashio/Electronics/ARM/_Library/u8g2_font.c ****     materials provided with the distribution.
  19:/Users/imashio/Electronics/ARM/_Library/u8g2_font.c **** 
  20:/Users/imashio/Electronics/ARM/_Library/u8g2_font.c ****   THIS SOFTWARE IS PROVIDED BY THE COPYRIGHT HOLDERS AND 
  21:/Users/imashio/Electronics/ARM/_Library/u8g2_font.c ****   CONTRIBUTORS "AS IS" AND ANY EXPRESS OR IMPLIED WARRANTIES, 
  22:/Users/imashio/Electronics/ARM/_Library/u8g2_font.c ****   INCLUDING, BUT NOT LIMITED TO, THE IMPLIED WARRANTIES OF 
  23:/Users/imashio/Electronics/ARM/_Library/u8g2_font.c ****   MERCHANTABILITY AND FITNESS FOR A PARTICULAR PURPOSE ARE 
  24:/Users/imashio/Electronics/ARM/_Library/u8g2_font.c ****   DISCLAIMED. IN NO EVENT SHALL THE COPYRIGHT HOLDER OR 
  25:/Users/imashio/Electronics/ARM/_Library/u8g2_font.c ****   CONTRIBUTORS BE LIABLE FOR ANY DIRECT, INDIRECT, INCIDENTAL, 
  26:/Users/imashio/Electronics/ARM/_Library/u8g2_font.c ****   SPECIAL, EXEMPLARY, OR CONSEQUENTIAL DAMAGES (INCLUDING, BUT 
  27:/Users/imashio/Electronics/ARM/_Library/u8g2_font.c ****   NOT LIMITED TO, PROCUREMENT OF SUBSTITUTE GOODS OR SERVICES; 
  28:/Users/imashio/Electronics/ARM/_Library/u8g2_font.c ****   LOSS OF USE, DATA, OR PROFITS; OR BUSINESS INTERRUPTION) HOWEVER 
  29:/Users/imashio/Electronics/ARM/_Library/u8g2_font.c ****   CAUSED AND ON ANY THEORY OF LIABILITY, WHETHER IN CONTRACT, 
  30:/Users/imashio/Electronics/ARM/_Library/u8g2_font.c ****   STRICT LIABILITY, OR TORT (INCLUDING NEGLIGENCE OR OTHERWISE) 
  31:/Users/imashio/Electronics/ARM/_Library/u8g2_font.c ****   ARISING IN ANY WAY OUT OF THE USE OF THIS SOFTWARE, EVEN IF 
  32:/Users/imashio/Electronics/ARM/_Library/u8g2_font.c ****   ADVISED OF THE POSSIBILITY OF SUCH DAMAGE.  
ARM GAS  /var/folders/v3/wysfpd052nz8jkbx04pk0ym80000gn/T//ccfX3eBQ.s 			page 2


  33:/Users/imashio/Electronics/ARM/_Library/u8g2_font.c **** 
  34:/Users/imashio/Electronics/ARM/_Library/u8g2_font.c **** */
  35:/Users/imashio/Electronics/ARM/_Library/u8g2_font.c **** 
  36:/Users/imashio/Electronics/ARM/_Library/u8g2_font.c **** #include "u8g2.h"
  37:/Users/imashio/Electronics/ARM/_Library/u8g2_font.c **** 
  38:/Users/imashio/Electronics/ARM/_Library/u8g2_font.c **** /* size of the font data structure, there is no struct or class... */
  39:/Users/imashio/Electronics/ARM/_Library/u8g2_font.c **** /* this is the size for the new font format */
  40:/Users/imashio/Electronics/ARM/_Library/u8g2_font.c **** #define U8G2_FONT_DATA_STRUCT_SIZE 23
  41:/Users/imashio/Electronics/ARM/_Library/u8g2_font.c **** 
  42:/Users/imashio/Electronics/ARM/_Library/u8g2_font.c **** /*
  43:/Users/imashio/Electronics/ARM/_Library/u8g2_font.c ****   font data:
  44:/Users/imashio/Electronics/ARM/_Library/u8g2_font.c **** 
  45:/Users/imashio/Electronics/ARM/_Library/u8g2_font.c ****   offset	bytes	description
  46:/Users/imashio/Electronics/ARM/_Library/u8g2_font.c ****   0		1		glyph_cnt		number of glyphs
  47:/Users/imashio/Electronics/ARM/_Library/u8g2_font.c ****   1		1		bbx_mode	0: proportional, 1: common height, 2: monospace, 3: multiple of 8
  48:/Users/imashio/Electronics/ARM/_Library/u8g2_font.c ****   2		1		bits_per_0	glyph rle parameter
  49:/Users/imashio/Electronics/ARM/_Library/u8g2_font.c ****   3		1		bits_per_1	glyph rle parameter
  50:/Users/imashio/Electronics/ARM/_Library/u8g2_font.c **** 
  51:/Users/imashio/Electronics/ARM/_Library/u8g2_font.c ****   4		1		bits_per_char_width		glyph rle parameter
  52:/Users/imashio/Electronics/ARM/_Library/u8g2_font.c ****   5		1		bits_per_char_height	glyph rle parameter
  53:/Users/imashio/Electronics/ARM/_Library/u8g2_font.c ****   6		1		bits_per_char_x		glyph rle parameter
  54:/Users/imashio/Electronics/ARM/_Library/u8g2_font.c ****   7		1		bits_per_char_y		glyph rle parameter
  55:/Users/imashio/Electronics/ARM/_Library/u8g2_font.c ****   8		1		bits_per_delta_x		glyph rle parameter
  56:/Users/imashio/Electronics/ARM/_Library/u8g2_font.c **** 
  57:/Users/imashio/Electronics/ARM/_Library/u8g2_font.c ****   9		1		max_char_width
  58:/Users/imashio/Electronics/ARM/_Library/u8g2_font.c ****   10		1		max_char_height
  59:/Users/imashio/Electronics/ARM/_Library/u8g2_font.c ****   11		1		x offset
  60:/Users/imashio/Electronics/ARM/_Library/u8g2_font.c ****   12		1		y offset (descent)
  61:/Users/imashio/Electronics/ARM/_Library/u8g2_font.c ****   
  62:/Users/imashio/Electronics/ARM/_Library/u8g2_font.c ****   13		1		ascent (capital A)
  63:/Users/imashio/Electronics/ARM/_Library/u8g2_font.c ****   14		1		descent (lower g)
  64:/Users/imashio/Electronics/ARM/_Library/u8g2_font.c ****   15		1		ascent '('
  65:/Users/imashio/Electronics/ARM/_Library/u8g2_font.c ****   16		1		descent ')'
  66:/Users/imashio/Electronics/ARM/_Library/u8g2_font.c ****   
  67:/Users/imashio/Electronics/ARM/_Library/u8g2_font.c ****   17		1		start pos 'A' high byte
  68:/Users/imashio/Electronics/ARM/_Library/u8g2_font.c ****   18		1		start pos 'A' low byte
  69:/Users/imashio/Electronics/ARM/_Library/u8g2_font.c **** 
  70:/Users/imashio/Electronics/ARM/_Library/u8g2_font.c ****   19		1		start pos 'a' high byte
  71:/Users/imashio/Electronics/ARM/_Library/u8g2_font.c ****   20		1		start pos 'a' low byte
  72:/Users/imashio/Electronics/ARM/_Library/u8g2_font.c **** 
  73:/Users/imashio/Electronics/ARM/_Library/u8g2_font.c ****   21		1		start pos unicode high byte
  74:/Users/imashio/Electronics/ARM/_Library/u8g2_font.c ****   22		1		start pos unicode low byte
  75:/Users/imashio/Electronics/ARM/_Library/u8g2_font.c **** 
  76:/Users/imashio/Electronics/ARM/_Library/u8g2_font.c ****   Font build mode, 0: proportional, 1: common height, 2: monospace, 3: multiple of 8
  77:/Users/imashio/Electronics/ARM/_Library/u8g2_font.c **** 
  78:/Users/imashio/Electronics/ARM/_Library/u8g2_font.c ****   Font build mode 0:		
  79:/Users/imashio/Electronics/ARM/_Library/u8g2_font.c ****     - "t"
  80:/Users/imashio/Electronics/ARM/_Library/u8g2_font.c ****     - Ref height mode: U8G2_FONT_HEIGHT_MODE_TEXT, U8G2_FONT_HEIGHT_MODE_XTEXT or U8G2_FONT_HEIGHT_
  81:/Users/imashio/Electronics/ARM/_Library/u8g2_font.c ****     - use in transparent mode only (does not look good in solid mode)
  82:/Users/imashio/Electronics/ARM/_Library/u8g2_font.c ****     - most compact format
  83:/Users/imashio/Electronics/ARM/_Library/u8g2_font.c ****     - different font heights possible
  84:/Users/imashio/Electronics/ARM/_Library/u8g2_font.c ****     
  85:/Users/imashio/Electronics/ARM/_Library/u8g2_font.c ****   Font build mode 1:		
  86:/Users/imashio/Electronics/ARM/_Library/u8g2_font.c ****     - "h"
  87:/Users/imashio/Electronics/ARM/_Library/u8g2_font.c ****     - Ref height mode: U8G2_FONT_HEIGHT_MODE_ALL
  88:/Users/imashio/Electronics/ARM/_Library/u8g2_font.c ****     - transparent or solid mode
  89:/Users/imashio/Electronics/ARM/_Library/u8g2_font.c ****     - The height of the glyphs depend on the largest glyph in the font. This means font height depe
ARM GAS  /var/folders/v3/wysfpd052nz8jkbx04pk0ym80000gn/T//ccfX3eBQ.s 			page 3


  90:/Users/imashio/Electronics/ARM/_Library/u8g2_font.c **** 
  91:/Users/imashio/Electronics/ARM/_Library/u8g2_font.c **** */
  92:/Users/imashio/Electronics/ARM/_Library/u8g2_font.c **** 
  93:/Users/imashio/Electronics/ARM/_Library/u8g2_font.c **** /* use case: What is the width and the height of the minimal box into which string s fints? */
  94:/Users/imashio/Electronics/ARM/_Library/u8g2_font.c **** void u8g2_font_GetStrSize(const void *font, const char *s, u8g2_uint_t *width, u8g2_uint_t *height)
  95:/Users/imashio/Electronics/ARM/_Library/u8g2_font.c **** void u8g2_font_GetStrSizeP(const void *font, const char *s, u8g2_uint_t *width, u8g2_uint_t *height
  96:/Users/imashio/Electronics/ARM/_Library/u8g2_font.c **** 
  97:/Users/imashio/Electronics/ARM/_Library/u8g2_font.c **** /* use case: lower left edge of a minimal box is known, what is the correct x, y position for the s
  98:/Users/imashio/Electronics/ARM/_Library/u8g2_font.c **** void u8g2_font_AdjustXYToDraw(const void *font, const char *s, u8g2_uint_t *x, u8g2_uint_t *y);
  99:/Users/imashio/Electronics/ARM/_Library/u8g2_font.c **** void u8g2_font_AdjustXYToDrawP(const void *font, const char *s, u8g2_uint_t *x, u8g2_uint_t *y);
 100:/Users/imashio/Electronics/ARM/_Library/u8g2_font.c **** 
 101:/Users/imashio/Electronics/ARM/_Library/u8g2_font.c **** /* use case: Baseline origin known, return minimal box */
 102:/Users/imashio/Electronics/ARM/_Library/u8g2_font.c **** void u8g2_font_GetStrMinBox(u8g2_t *u8g2, const void *font, const char *s, u8g2_uint_t *x, u8g2_uin
 103:/Users/imashio/Electronics/ARM/_Library/u8g2_font.c **** 
 104:/Users/imashio/Electronics/ARM/_Library/u8g2_font.c **** /* procedures */
 105:/Users/imashio/Electronics/ARM/_Library/u8g2_font.c **** 
 106:/Users/imashio/Electronics/ARM/_Library/u8g2_font.c **** /*========================================================================*/
 107:/Users/imashio/Electronics/ARM/_Library/u8g2_font.c **** /* low level byte and word access */
 108:/Users/imashio/Electronics/ARM/_Library/u8g2_font.c **** 
 109:/Users/imashio/Electronics/ARM/_Library/u8g2_font.c **** /* removed NOINLINE, because it leads to smaller code, might also be faster */
 110:/Users/imashio/Electronics/ARM/_Library/u8g2_font.c **** //static uint8_t u8g2_font_get_byte(const uint8_t *font, uint8_t offset) U8G2_NOINLINE;
 111:/Users/imashio/Electronics/ARM/_Library/u8g2_font.c **** static uint8_t u8g2_font_get_byte(const uint8_t *font, uint8_t offset)
 112:/Users/imashio/Electronics/ARM/_Library/u8g2_font.c **** {
  27              		.loc 1 112 0
  28              		.cfi_startproc
  29              		@ args = 0, pretend = 0, frame = 0
  30              		@ frame_needed = 0, uses_anonymous_args = 0
  31              		@ link register save eliminated.
  32              	.LVL0:
 113:/Users/imashio/Electronics/ARM/_Library/u8g2_font.c ****   font += offset;
 114:/Users/imashio/Electronics/ARM/_Library/u8g2_font.c ****   return u8x8_pgm_read( font );  
 115:/Users/imashio/Electronics/ARM/_Library/u8g2_font.c **** }
  33              		.loc 1 115 0
  34 0000 405C     		ldrb	r0, [r0, r1]	@ zero_extendqisi2
  35              	.LVL1:
  36 0002 7047     		bx	lr
  37              		.cfi_endproc
  38              	.LFE0:
  40              		.section	.text.u8g2_font_get_word,"ax",%progbits
  41              		.align	1
  42              		.syntax unified
  43              		.thumb
  44              		.thumb_func
  45              		.fpu fpv4-sp-d16
  47              	u8g2_font_get_word:
  48              	.LFB1:
 116:/Users/imashio/Electronics/ARM/_Library/u8g2_font.c **** 
 117:/Users/imashio/Electronics/ARM/_Library/u8g2_font.c **** static uint16_t u8g2_font_get_word(const uint8_t *font, uint8_t offset) U8G2_NOINLINE; 
 118:/Users/imashio/Electronics/ARM/_Library/u8g2_font.c **** static uint16_t u8g2_font_get_word(const uint8_t *font, uint8_t offset)
 119:/Users/imashio/Electronics/ARM/_Library/u8g2_font.c **** {
  49              		.loc 1 119 0
  50              		.cfi_startproc
  51              		@ args = 0, pretend = 0, frame = 0
  52              		@ frame_needed = 0, uses_anonymous_args = 0
  53              		@ link register save eliminated.
  54              	.LVL2:
 120:/Users/imashio/Electronics/ARM/_Library/u8g2_font.c ****     uint16_t pos;
ARM GAS  /var/folders/v3/wysfpd052nz8jkbx04pk0ym80000gn/T//ccfX3eBQ.s 			page 4


 121:/Users/imashio/Electronics/ARM/_Library/u8g2_font.c ****     font += offset;
  55              		.loc 1 121 0
  56 0000 4218     		adds	r2, r0, r1
  57              	.LVL3:
 122:/Users/imashio/Electronics/ARM/_Library/u8g2_font.c ****     pos = u8x8_pgm_read( font );
  58              		.loc 1 122 0
  59 0002 435C     		ldrb	r3, [r0, r1]	@ zero_extendqisi2
  60              	.LVL4:
 123:/Users/imashio/Electronics/ARM/_Library/u8g2_font.c ****     font++;
 124:/Users/imashio/Electronics/ARM/_Library/u8g2_font.c ****     pos <<= 8;
 125:/Users/imashio/Electronics/ARM/_Library/u8g2_font.c ****     pos += u8x8_pgm_read( font);
  61              		.loc 1 125 0
  62 0004 5078     		ldrb	r0, [r2, #1]	@ zero_extendqisi2
  63 0006 00EB0320 		add	r0, r0, r3, lsl #8
  64              	.LVL5:
 126:/Users/imashio/Electronics/ARM/_Library/u8g2_font.c ****     return pos;
 127:/Users/imashio/Electronics/ARM/_Library/u8g2_font.c **** }
  65              		.loc 1 127 0
  66 000a 80B2     		uxth	r0, r0
  67 000c 7047     		bx	lr
  68              		.cfi_endproc
  69              	.LFE1:
  71              		.section	.text.u8g2_add_vector_y,"ax",%progbits
  72              		.align	1
  73              		.syntax unified
  74              		.thumb
  75              		.thumb_func
  76              		.fpu fpv4-sp-d16
  78              	u8g2_add_vector_y:
  79              	.LFB11:
 128:/Users/imashio/Electronics/ARM/_Library/u8g2_font.c **** 
 129:/Users/imashio/Electronics/ARM/_Library/u8g2_font.c **** /*========================================================================*/
 130:/Users/imashio/Electronics/ARM/_Library/u8g2_font.c **** /* new font format */
 131:/Users/imashio/Electronics/ARM/_Library/u8g2_font.c **** void u8g2_read_font_info(u8g2_font_info_t *font_info, const uint8_t *font)
 132:/Users/imashio/Electronics/ARM/_Library/u8g2_font.c **** {
 133:/Users/imashio/Electronics/ARM/_Library/u8g2_font.c ****   /* offset 0 */
 134:/Users/imashio/Electronics/ARM/_Library/u8g2_font.c ****   font_info->glyph_cnt = u8g2_font_get_byte(font, 0);
 135:/Users/imashio/Electronics/ARM/_Library/u8g2_font.c ****   font_info->bbx_mode = u8g2_font_get_byte(font, 1);
 136:/Users/imashio/Electronics/ARM/_Library/u8g2_font.c ****   font_info->bits_per_0 = u8g2_font_get_byte(font, 2);
 137:/Users/imashio/Electronics/ARM/_Library/u8g2_font.c ****   font_info->bits_per_1 = u8g2_font_get_byte(font, 3);
 138:/Users/imashio/Electronics/ARM/_Library/u8g2_font.c ****   
 139:/Users/imashio/Electronics/ARM/_Library/u8g2_font.c ****   /* offset 4 */
 140:/Users/imashio/Electronics/ARM/_Library/u8g2_font.c ****   font_info->bits_per_char_width = u8g2_font_get_byte(font, 4);
 141:/Users/imashio/Electronics/ARM/_Library/u8g2_font.c ****   font_info->bits_per_char_height = u8g2_font_get_byte(font, 5);
 142:/Users/imashio/Electronics/ARM/_Library/u8g2_font.c ****   font_info->bits_per_char_x = u8g2_font_get_byte(font, 6);
 143:/Users/imashio/Electronics/ARM/_Library/u8g2_font.c ****   font_info->bits_per_char_y = u8g2_font_get_byte(font, 7);
 144:/Users/imashio/Electronics/ARM/_Library/u8g2_font.c ****   font_info->bits_per_delta_x = u8g2_font_get_byte(font, 8);
 145:/Users/imashio/Electronics/ARM/_Library/u8g2_font.c ****   
 146:/Users/imashio/Electronics/ARM/_Library/u8g2_font.c ****   /* offset 9 */
 147:/Users/imashio/Electronics/ARM/_Library/u8g2_font.c ****   font_info->max_char_width = u8g2_font_get_byte(font, 9);
 148:/Users/imashio/Electronics/ARM/_Library/u8g2_font.c ****   font_info->max_char_height = u8g2_font_get_byte(font, 10);
 149:/Users/imashio/Electronics/ARM/_Library/u8g2_font.c ****   font_info->x_offset = u8g2_font_get_byte(font, 11);
 150:/Users/imashio/Electronics/ARM/_Library/u8g2_font.c ****   font_info->y_offset = u8g2_font_get_byte(font, 12);
 151:/Users/imashio/Electronics/ARM/_Library/u8g2_font.c ****   
 152:/Users/imashio/Electronics/ARM/_Library/u8g2_font.c ****   /* offset 13 */
 153:/Users/imashio/Electronics/ARM/_Library/u8g2_font.c ****   font_info->ascent_A = u8g2_font_get_byte(font, 13);
 154:/Users/imashio/Electronics/ARM/_Library/u8g2_font.c ****   font_info->descent_g = u8g2_font_get_byte(font, 14);
ARM GAS  /var/folders/v3/wysfpd052nz8jkbx04pk0ym80000gn/T//ccfX3eBQ.s 			page 5


 155:/Users/imashio/Electronics/ARM/_Library/u8g2_font.c ****   font_info->ascent_para = u8g2_font_get_byte(font, 15);
 156:/Users/imashio/Electronics/ARM/_Library/u8g2_font.c ****   font_info->descent_para = u8g2_font_get_byte(font, 16);
 157:/Users/imashio/Electronics/ARM/_Library/u8g2_font.c ****   
 158:/Users/imashio/Electronics/ARM/_Library/u8g2_font.c ****   /* offset 17 */
 159:/Users/imashio/Electronics/ARM/_Library/u8g2_font.c ****   font_info->start_pos_upper_A = u8g2_font_get_word(font, 17);
 160:/Users/imashio/Electronics/ARM/_Library/u8g2_font.c ****   font_info->start_pos_lower_a = u8g2_font_get_word(font, 19); 
 161:/Users/imashio/Electronics/ARM/_Library/u8g2_font.c ****   
 162:/Users/imashio/Electronics/ARM/_Library/u8g2_font.c ****   /* offset 21 */
 163:/Users/imashio/Electronics/ARM/_Library/u8g2_font.c **** #ifdef U8G2_WITH_UNICODE
 164:/Users/imashio/Electronics/ARM/_Library/u8g2_font.c ****   font_info->start_pos_unicode = u8g2_font_get_word(font, 21); 
 165:/Users/imashio/Electronics/ARM/_Library/u8g2_font.c **** #endif
 166:/Users/imashio/Electronics/ARM/_Library/u8g2_font.c **** }
 167:/Users/imashio/Electronics/ARM/_Library/u8g2_font.c **** 
 168:/Users/imashio/Electronics/ARM/_Library/u8g2_font.c **** 
 169:/Users/imashio/Electronics/ARM/_Library/u8g2_font.c **** /* calculate the overall length of the font, only used to create the picture for the google wiki */
 170:/Users/imashio/Electronics/ARM/_Library/u8g2_font.c **** size_t u8g2_GetFontSize(const uint8_t *font_arg)
 171:/Users/imashio/Electronics/ARM/_Library/u8g2_font.c **** {
 172:/Users/imashio/Electronics/ARM/_Library/u8g2_font.c ****   uint16_t e;
 173:/Users/imashio/Electronics/ARM/_Library/u8g2_font.c ****   const uint8_t *font = font_arg;
 174:/Users/imashio/Electronics/ARM/_Library/u8g2_font.c ****   font += U8G2_FONT_DATA_STRUCT_SIZE;
 175:/Users/imashio/Electronics/ARM/_Library/u8g2_font.c ****   
 176:/Users/imashio/Electronics/ARM/_Library/u8g2_font.c ****   for(;;)
 177:/Users/imashio/Electronics/ARM/_Library/u8g2_font.c ****   {
 178:/Users/imashio/Electronics/ARM/_Library/u8g2_font.c ****     if ( u8x8_pgm_read( font + 1 ) == 0 )
 179:/Users/imashio/Electronics/ARM/_Library/u8g2_font.c ****       break;
 180:/Users/imashio/Electronics/ARM/_Library/u8g2_font.c ****     font += u8x8_pgm_read( font + 1 );
 181:/Users/imashio/Electronics/ARM/_Library/u8g2_font.c ****   }
 182:/Users/imashio/Electronics/ARM/_Library/u8g2_font.c ****   
 183:/Users/imashio/Electronics/ARM/_Library/u8g2_font.c ****   /* continue with unicode section */
 184:/Users/imashio/Electronics/ARM/_Library/u8g2_font.c ****   font += 2;
 185:/Users/imashio/Electronics/ARM/_Library/u8g2_font.c ****   
 186:/Users/imashio/Electronics/ARM/_Library/u8g2_font.c ****   for(;;)
 187:/Users/imashio/Electronics/ARM/_Library/u8g2_font.c ****   {
 188:/Users/imashio/Electronics/ARM/_Library/u8g2_font.c ****     e = u8x8_pgm_read( font );
 189:/Users/imashio/Electronics/ARM/_Library/u8g2_font.c ****     e <<= 8;
 190:/Users/imashio/Electronics/ARM/_Library/u8g2_font.c ****     e |= u8x8_pgm_read( font + 1 );
 191:/Users/imashio/Electronics/ARM/_Library/u8g2_font.c ****     if ( e == 0 )
 192:/Users/imashio/Electronics/ARM/_Library/u8g2_font.c ****       break;
 193:/Users/imashio/Electronics/ARM/_Library/u8g2_font.c ****     font += u8x8_pgm_read( font + 2 );    
 194:/Users/imashio/Electronics/ARM/_Library/u8g2_font.c ****   }
 195:/Users/imashio/Electronics/ARM/_Library/u8g2_font.c ****   
 196:/Users/imashio/Electronics/ARM/_Library/u8g2_font.c ****   return (font - font_arg) + 2;
 197:/Users/imashio/Electronics/ARM/_Library/u8g2_font.c **** }
 198:/Users/imashio/Electronics/ARM/_Library/u8g2_font.c **** 
 199:/Users/imashio/Electronics/ARM/_Library/u8g2_font.c **** /*========================================================================*/
 200:/Users/imashio/Electronics/ARM/_Library/u8g2_font.c **** /* u8g2 interface, font access */
 201:/Users/imashio/Electronics/ARM/_Library/u8g2_font.c **** 
 202:/Users/imashio/Electronics/ARM/_Library/u8g2_font.c **** uint8_t u8g2_GetFontBBXWidth(u8g2_t *u8g2)
 203:/Users/imashio/Electronics/ARM/_Library/u8g2_font.c **** {
 204:/Users/imashio/Electronics/ARM/_Library/u8g2_font.c ****   return u8g2->font_info.max_char_width;		/* new font info structure */
 205:/Users/imashio/Electronics/ARM/_Library/u8g2_font.c **** }
 206:/Users/imashio/Electronics/ARM/_Library/u8g2_font.c **** 
 207:/Users/imashio/Electronics/ARM/_Library/u8g2_font.c **** uint8_t u8g2_GetFontBBXHeight(u8g2_t *u8g2)
 208:/Users/imashio/Electronics/ARM/_Library/u8g2_font.c **** {
 209:/Users/imashio/Electronics/ARM/_Library/u8g2_font.c ****   return u8g2->font_info.max_char_height;		/* new font info structure */
 210:/Users/imashio/Electronics/ARM/_Library/u8g2_font.c **** }
 211:/Users/imashio/Electronics/ARM/_Library/u8g2_font.c **** 
ARM GAS  /var/folders/v3/wysfpd052nz8jkbx04pk0ym80000gn/T//ccfX3eBQ.s 			page 6


 212:/Users/imashio/Electronics/ARM/_Library/u8g2_font.c **** int8_t u8g2_GetFontBBXOffX(u8g2_t *u8g2) U8G2_NOINLINE;
 213:/Users/imashio/Electronics/ARM/_Library/u8g2_font.c **** int8_t u8g2_GetFontBBXOffX(u8g2_t *u8g2)
 214:/Users/imashio/Electronics/ARM/_Library/u8g2_font.c **** {
 215:/Users/imashio/Electronics/ARM/_Library/u8g2_font.c ****   return u8g2->font_info.x_offset;		/* new font info structure */
 216:/Users/imashio/Electronics/ARM/_Library/u8g2_font.c **** }
 217:/Users/imashio/Electronics/ARM/_Library/u8g2_font.c **** 
 218:/Users/imashio/Electronics/ARM/_Library/u8g2_font.c **** int8_t u8g2_GetFontBBXOffY(u8g2_t *u8g2) U8G2_NOINLINE;
 219:/Users/imashio/Electronics/ARM/_Library/u8g2_font.c **** int8_t u8g2_GetFontBBXOffY(u8g2_t *u8g2)
 220:/Users/imashio/Electronics/ARM/_Library/u8g2_font.c **** {
 221:/Users/imashio/Electronics/ARM/_Library/u8g2_font.c ****   return u8g2->font_info.y_offset;		/* new font info structure */
 222:/Users/imashio/Electronics/ARM/_Library/u8g2_font.c **** }
 223:/Users/imashio/Electronics/ARM/_Library/u8g2_font.c **** 
 224:/Users/imashio/Electronics/ARM/_Library/u8g2_font.c **** uint8_t u8g2_GetFontCapitalAHeight(u8g2_t *u8g2) U8G2_NOINLINE; 
 225:/Users/imashio/Electronics/ARM/_Library/u8g2_font.c **** uint8_t u8g2_GetFontCapitalAHeight(u8g2_t *u8g2)
 226:/Users/imashio/Electronics/ARM/_Library/u8g2_font.c **** {
 227:/Users/imashio/Electronics/ARM/_Library/u8g2_font.c ****   return u8g2->font_info.ascent_A;		/* new font info structure */
 228:/Users/imashio/Electronics/ARM/_Library/u8g2_font.c **** }
 229:/Users/imashio/Electronics/ARM/_Library/u8g2_font.c **** 
 230:/Users/imashio/Electronics/ARM/_Library/u8g2_font.c **** /*========================================================================*/
 231:/Users/imashio/Electronics/ARM/_Library/u8g2_font.c **** /* glyph handling */
 232:/Users/imashio/Electronics/ARM/_Library/u8g2_font.c **** 
 233:/Users/imashio/Electronics/ARM/_Library/u8g2_font.c **** /* optimized */
 234:/Users/imashio/Electronics/ARM/_Library/u8g2_font.c **** uint8_t u8g2_font_decode_get_unsigned_bits(u8g2_font_decode_t *f, uint8_t cnt) 
 235:/Users/imashio/Electronics/ARM/_Library/u8g2_font.c **** {
 236:/Users/imashio/Electronics/ARM/_Library/u8g2_font.c ****   uint8_t val;
 237:/Users/imashio/Electronics/ARM/_Library/u8g2_font.c ****   uint8_t bit_pos = f->decode_bit_pos;
 238:/Users/imashio/Electronics/ARM/_Library/u8g2_font.c ****   uint8_t bit_pos_plus_cnt;
 239:/Users/imashio/Electronics/ARM/_Library/u8g2_font.c ****   
 240:/Users/imashio/Electronics/ARM/_Library/u8g2_font.c ****   //val = *(f->decode_ptr);
 241:/Users/imashio/Electronics/ARM/_Library/u8g2_font.c ****   val = u8x8_pgm_read( f->decode_ptr );  
 242:/Users/imashio/Electronics/ARM/_Library/u8g2_font.c ****   
 243:/Users/imashio/Electronics/ARM/_Library/u8g2_font.c ****   val >>= bit_pos;
 244:/Users/imashio/Electronics/ARM/_Library/u8g2_font.c ****   bit_pos_plus_cnt = bit_pos;
 245:/Users/imashio/Electronics/ARM/_Library/u8g2_font.c ****   bit_pos_plus_cnt += cnt;
 246:/Users/imashio/Electronics/ARM/_Library/u8g2_font.c ****   if ( bit_pos_plus_cnt >= 8 )
 247:/Users/imashio/Electronics/ARM/_Library/u8g2_font.c ****   {
 248:/Users/imashio/Electronics/ARM/_Library/u8g2_font.c ****     uint8_t s = 8;
 249:/Users/imashio/Electronics/ARM/_Library/u8g2_font.c ****     s -= bit_pos;
 250:/Users/imashio/Electronics/ARM/_Library/u8g2_font.c ****     f->decode_ptr++;
 251:/Users/imashio/Electronics/ARM/_Library/u8g2_font.c ****     //val |= *(f->decode_ptr) << (8-bit_pos);
 252:/Users/imashio/Electronics/ARM/_Library/u8g2_font.c ****     val |= u8x8_pgm_read( f->decode_ptr ) << (s);
 253:/Users/imashio/Electronics/ARM/_Library/u8g2_font.c ****     //bit_pos -= 8;
 254:/Users/imashio/Electronics/ARM/_Library/u8g2_font.c ****     bit_pos_plus_cnt -= 8;
 255:/Users/imashio/Electronics/ARM/_Library/u8g2_font.c ****   }
 256:/Users/imashio/Electronics/ARM/_Library/u8g2_font.c ****   val &= (1U<<cnt)-1;
 257:/Users/imashio/Electronics/ARM/_Library/u8g2_font.c ****   //bit_pos += cnt;
 258:/Users/imashio/Electronics/ARM/_Library/u8g2_font.c ****   
 259:/Users/imashio/Electronics/ARM/_Library/u8g2_font.c ****   f->decode_bit_pos = bit_pos_plus_cnt;
 260:/Users/imashio/Electronics/ARM/_Library/u8g2_font.c ****   return val;
 261:/Users/imashio/Electronics/ARM/_Library/u8g2_font.c **** }
 262:/Users/imashio/Electronics/ARM/_Library/u8g2_font.c **** 
 263:/Users/imashio/Electronics/ARM/_Library/u8g2_font.c **** 
 264:/Users/imashio/Electronics/ARM/_Library/u8g2_font.c **** /*
 265:/Users/imashio/Electronics/ARM/_Library/u8g2_font.c ****     2 bit --> cnt = 2
 266:/Users/imashio/Electronics/ARM/_Library/u8g2_font.c ****       -2,-1,0. 1
 267:/Users/imashio/Electronics/ARM/_Library/u8g2_font.c **** 
 268:/Users/imashio/Electronics/ARM/_Library/u8g2_font.c ****     3 bit --> cnt = 3
ARM GAS  /var/folders/v3/wysfpd052nz8jkbx04pk0ym80000gn/T//ccfX3eBQ.s 			page 7


 269:/Users/imashio/Electronics/ARM/_Library/u8g2_font.c ****       -2,-1,0. 1
 270:/Users/imashio/Electronics/ARM/_Library/u8g2_font.c ****       -4,-3,-2,-1,0,1,2,3
 271:/Users/imashio/Electronics/ARM/_Library/u8g2_font.c **** 
 272:/Users/imashio/Electronics/ARM/_Library/u8g2_font.c ****       if ( x < 0 )
 273:/Users/imashio/Electronics/ARM/_Library/u8g2_font.c **** 	r = bits(x-1)+1;
 274:/Users/imashio/Electronics/ARM/_Library/u8g2_font.c ****     else
 275:/Users/imashio/Electronics/ARM/_Library/u8g2_font.c **** 	r = bits(x)+1;
 276:/Users/imashio/Electronics/ARM/_Library/u8g2_font.c **** 
 277:/Users/imashio/Electronics/ARM/_Library/u8g2_font.c **** */
 278:/Users/imashio/Electronics/ARM/_Library/u8g2_font.c **** /* optimized */
 279:/Users/imashio/Electronics/ARM/_Library/u8g2_font.c **** int8_t u8g2_font_decode_get_signed_bits(u8g2_font_decode_t *f, uint8_t cnt)
 280:/Users/imashio/Electronics/ARM/_Library/u8g2_font.c **** {
 281:/Users/imashio/Electronics/ARM/_Library/u8g2_font.c ****   int8_t v, d;
 282:/Users/imashio/Electronics/ARM/_Library/u8g2_font.c ****   v = (int8_t)u8g2_font_decode_get_unsigned_bits(f, cnt);
 283:/Users/imashio/Electronics/ARM/_Library/u8g2_font.c ****   d = 1;
 284:/Users/imashio/Electronics/ARM/_Library/u8g2_font.c ****   cnt--;
 285:/Users/imashio/Electronics/ARM/_Library/u8g2_font.c ****   d <<= cnt;
 286:/Users/imashio/Electronics/ARM/_Library/u8g2_font.c ****   v -= d;
 287:/Users/imashio/Electronics/ARM/_Library/u8g2_font.c ****   return v;
 288:/Users/imashio/Electronics/ARM/_Library/u8g2_font.c ****   //return (int8_t)u8g2_font_decode_get_unsigned_bits(f, cnt) - ((1<<cnt)>>1);
 289:/Users/imashio/Electronics/ARM/_Library/u8g2_font.c **** }
 290:/Users/imashio/Electronics/ARM/_Library/u8g2_font.c **** 
 291:/Users/imashio/Electronics/ARM/_Library/u8g2_font.c **** 
 292:/Users/imashio/Electronics/ARM/_Library/u8g2_font.c **** #ifdef U8G2_WITH_FONT_ROTATION
 293:/Users/imashio/Electronics/ARM/_Library/u8g2_font.c **** static u8g2_uint_t u8g2_add_vector_y(u8g2_uint_t dy, int8_t x, int8_t y, uint8_t dir) U8G2_NOINLINE
 294:/Users/imashio/Electronics/ARM/_Library/u8g2_font.c **** static u8g2_uint_t u8g2_add_vector_y(u8g2_uint_t dy, int8_t x, int8_t y, uint8_t dir)
 295:/Users/imashio/Electronics/ARM/_Library/u8g2_font.c **** {
  80              		.loc 1 295 0
  81              		.cfi_startproc
  82              		@ args = 0, pretend = 0, frame = 0
  83              		@ frame_needed = 0, uses_anonymous_args = 0
  84              		@ link register save eliminated.
  85              	.LVL6:
 296:/Users/imashio/Electronics/ARM/_Library/u8g2_font.c ****   switch(dir)
  86              		.loc 1 296 0
  87 0000 012B     		cmp	r3, #1
  88 0002 08D0     		beq	.L5
  89 0004 23B1     		cbz	r3, .L6
  90 0006 022B     		cmp	r3, #2
  91 0008 08D0     		beq	.L7
 297:/Users/imashio/Electronics/ARM/_Library/u8g2_font.c ****   {
 298:/Users/imashio/Electronics/ARM/_Library/u8g2_font.c ****     case 0:
 299:/Users/imashio/Electronics/ARM/_Library/u8g2_font.c ****       dy += y;
 300:/Users/imashio/Electronics/ARM/_Library/u8g2_font.c ****       break;
 301:/Users/imashio/Electronics/ARM/_Library/u8g2_font.c ****     case 1:
 302:/Users/imashio/Electronics/ARM/_Library/u8g2_font.c ****       dy += x;
 303:/Users/imashio/Electronics/ARM/_Library/u8g2_font.c ****       break;
 304:/Users/imashio/Electronics/ARM/_Library/u8g2_font.c ****     case 2:
 305:/Users/imashio/Electronics/ARM/_Library/u8g2_font.c ****       dy -= y;
 306:/Users/imashio/Electronics/ARM/_Library/u8g2_font.c ****       break;
 307:/Users/imashio/Electronics/ARM/_Library/u8g2_font.c ****     default:
 308:/Users/imashio/Electronics/ARM/_Library/u8g2_font.c ****       dy -= x;
  92              		.loc 1 308 0
  93 000a 401A     		subs	r0, r0, r1
  94              	.LVL7:
  95 000c C0B2     		uxtb	r0, r0
  96              	.LVL8:
ARM GAS  /var/folders/v3/wysfpd052nz8jkbx04pk0ym80000gn/T//ccfX3eBQ.s 			page 8


 309:/Users/imashio/Electronics/ARM/_Library/u8g2_font.c ****       break;      
 310:/Users/imashio/Electronics/ARM/_Library/u8g2_font.c ****   }
 311:/Users/imashio/Electronics/ARM/_Library/u8g2_font.c ****   return dy;
 312:/Users/imashio/Electronics/ARM/_Library/u8g2_font.c **** }
  97              		.loc 1 312 0
  98 000e 7047     		bx	lr
  99              	.L6:
 299:/Users/imashio/Electronics/ARM/_Library/u8g2_font.c ****       break;
 100              		.loc 1 299 0
 101 0010 1044     		add	r0, r0, r2
 102              	.LVL9:
 103 0012 C0B2     		uxtb	r0, r0
 104              	.LVL10:
 300:/Users/imashio/Electronics/ARM/_Library/u8g2_font.c ****     case 1:
 105              		.loc 1 300 0
 106 0014 7047     		bx	lr
 107              	.L5:
 302:/Users/imashio/Electronics/ARM/_Library/u8g2_font.c ****       break;
 108              		.loc 1 302 0
 109 0016 0844     		add	r0, r0, r1
 110              	.LVL11:
 111 0018 C0B2     		uxtb	r0, r0
 112              	.LVL12:
 303:/Users/imashio/Electronics/ARM/_Library/u8g2_font.c ****     case 2:
 113              		.loc 1 303 0
 114 001a 7047     		bx	lr
 115              	.L7:
 305:/Users/imashio/Electronics/ARM/_Library/u8g2_font.c ****       break;
 116              		.loc 1 305 0
 117 001c 801A     		subs	r0, r0, r2
 118              	.LVL13:
 119 001e C0B2     		uxtb	r0, r0
 120              	.LVL14:
 306:/Users/imashio/Electronics/ARM/_Library/u8g2_font.c ****     default:
 121              		.loc 1 306 0
 122 0020 7047     		bx	lr
 123              		.cfi_endproc
 124              	.LFE11:
 126              		.section	.text.u8g2_add_vector_x,"ax",%progbits
 127              		.align	1
 128              		.syntax unified
 129              		.thumb
 130              		.thumb_func
 131              		.fpu fpv4-sp-d16
 133              	u8g2_add_vector_x:
 134              	.LFB12:
 313:/Users/imashio/Electronics/ARM/_Library/u8g2_font.c **** 
 314:/Users/imashio/Electronics/ARM/_Library/u8g2_font.c **** static u8g2_uint_t u8g2_add_vector_x(u8g2_uint_t dx, int8_t x, int8_t y, uint8_t dir) U8G2_NOINLINE
 315:/Users/imashio/Electronics/ARM/_Library/u8g2_font.c **** static u8g2_uint_t u8g2_add_vector_x(u8g2_uint_t dx, int8_t x, int8_t y, uint8_t dir)
 316:/Users/imashio/Electronics/ARM/_Library/u8g2_font.c **** {
 135              		.loc 1 316 0
 136              		.cfi_startproc
 137              		@ args = 0, pretend = 0, frame = 0
 138              		@ frame_needed = 0, uses_anonymous_args = 0
 139              		@ link register save eliminated.
 140              	.LVL15:
 317:/Users/imashio/Electronics/ARM/_Library/u8g2_font.c ****   switch(dir)
ARM GAS  /var/folders/v3/wysfpd052nz8jkbx04pk0ym80000gn/T//ccfX3eBQ.s 			page 9


 141              		.loc 1 317 0
 142 0000 012B     		cmp	r3, #1
 143 0002 08D0     		beq	.L12
 144 0004 23B1     		cbz	r3, .L13
 145 0006 022B     		cmp	r3, #2
 146 0008 08D0     		beq	.L14
 318:/Users/imashio/Electronics/ARM/_Library/u8g2_font.c ****   {
 319:/Users/imashio/Electronics/ARM/_Library/u8g2_font.c ****     case 0:
 320:/Users/imashio/Electronics/ARM/_Library/u8g2_font.c ****       dx += x;
 321:/Users/imashio/Electronics/ARM/_Library/u8g2_font.c ****       break;
 322:/Users/imashio/Electronics/ARM/_Library/u8g2_font.c ****     case 1:
 323:/Users/imashio/Electronics/ARM/_Library/u8g2_font.c ****       dx -= y;
 324:/Users/imashio/Electronics/ARM/_Library/u8g2_font.c ****       break;
 325:/Users/imashio/Electronics/ARM/_Library/u8g2_font.c ****     case 2:
 326:/Users/imashio/Electronics/ARM/_Library/u8g2_font.c ****       dx -= x;
 327:/Users/imashio/Electronics/ARM/_Library/u8g2_font.c ****       break;
 328:/Users/imashio/Electronics/ARM/_Library/u8g2_font.c ****     default:
 329:/Users/imashio/Electronics/ARM/_Library/u8g2_font.c ****       dx += y;
 147              		.loc 1 329 0
 148 000a 1044     		add	r0, r0, r2
 149              	.LVL16:
 150 000c C0B2     		uxtb	r0, r0
 151              	.LVL17:
 330:/Users/imashio/Electronics/ARM/_Library/u8g2_font.c ****       break;      
 331:/Users/imashio/Electronics/ARM/_Library/u8g2_font.c ****   }
 332:/Users/imashio/Electronics/ARM/_Library/u8g2_font.c ****   return dx;
 333:/Users/imashio/Electronics/ARM/_Library/u8g2_font.c **** }
 152              		.loc 1 333 0
 153 000e 7047     		bx	lr
 154              	.L13:
 320:/Users/imashio/Electronics/ARM/_Library/u8g2_font.c ****       break;
 155              		.loc 1 320 0
 156 0010 0844     		add	r0, r0, r1
 157              	.LVL18:
 158 0012 C0B2     		uxtb	r0, r0
 159              	.LVL19:
 321:/Users/imashio/Electronics/ARM/_Library/u8g2_font.c ****     case 1:
 160              		.loc 1 321 0
 161 0014 7047     		bx	lr
 162              	.L12:
 323:/Users/imashio/Electronics/ARM/_Library/u8g2_font.c ****       break;
 163              		.loc 1 323 0
 164 0016 801A     		subs	r0, r0, r2
 165              	.LVL20:
 166 0018 C0B2     		uxtb	r0, r0
 167              	.LVL21:
 324:/Users/imashio/Electronics/ARM/_Library/u8g2_font.c ****     case 2:
 168              		.loc 1 324 0
 169 001a 7047     		bx	lr
 170              	.L14:
 326:/Users/imashio/Electronics/ARM/_Library/u8g2_font.c ****       break;
 171              		.loc 1 326 0
 172 001c 401A     		subs	r0, r0, r1
 173              	.LVL22:
 174 001e C0B2     		uxtb	r0, r0
 175              	.LVL23:
 327:/Users/imashio/Electronics/ARM/_Library/u8g2_font.c ****     default:
ARM GAS  /var/folders/v3/wysfpd052nz8jkbx04pk0ym80000gn/T//ccfX3eBQ.s 			page 10


 176              		.loc 1 327 0
 177 0020 7047     		bx	lr
 178              		.cfi_endproc
 179              	.LFE12:
 181              		.section	.text.u8g2_font_calc_vref_font,"ax",%progbits
 182              		.align	1
 183              		.global	u8g2_font_calc_vref_font
 184              		.syntax unified
 185              		.thumb
 186              		.thumb_func
 187              		.fpu fpv4-sp-d16
 189              	u8g2_font_calc_vref_font:
 190              	.LFB31:
 334:/Users/imashio/Electronics/ARM/_Library/u8g2_font.c **** #endif
 335:/Users/imashio/Electronics/ARM/_Library/u8g2_font.c **** 
 336:/Users/imashio/Electronics/ARM/_Library/u8g2_font.c **** 
 337:/Users/imashio/Electronics/ARM/_Library/u8g2_font.c **** 
 338:/Users/imashio/Electronics/ARM/_Library/u8g2_font.c **** /*
 339:/Users/imashio/Electronics/ARM/_Library/u8g2_font.c ****   Description:
 340:/Users/imashio/Electronics/ARM/_Library/u8g2_font.c ****     Draw a run-length area of the glyph. "len" can have any size and the line
 341:/Users/imashio/Electronics/ARM/_Library/u8g2_font.c ****     length has to be wrapped at the glyph border.
 342:/Users/imashio/Electronics/ARM/_Library/u8g2_font.c ****   Args:
 343:/Users/imashio/Electronics/ARM/_Library/u8g2_font.c ****     len: 					Length of the line
 344:/Users/imashio/Electronics/ARM/_Library/u8g2_font.c ****     is_foreground			foreground/background?
 345:/Users/imashio/Electronics/ARM/_Library/u8g2_font.c ****     u8g2->font_decode.target_x		X position
 346:/Users/imashio/Electronics/ARM/_Library/u8g2_font.c ****     u8g2->font_decode.target_y		Y position
 347:/Users/imashio/Electronics/ARM/_Library/u8g2_font.c ****     u8g2->font_decode.is_transparent	Transparent mode
 348:/Users/imashio/Electronics/ARM/_Library/u8g2_font.c ****   Return:
 349:/Users/imashio/Electronics/ARM/_Library/u8g2_font.c ****     -
 350:/Users/imashio/Electronics/ARM/_Library/u8g2_font.c ****   Calls:
 351:/Users/imashio/Electronics/ARM/_Library/u8g2_font.c ****     u8g2_Draw90Line()
 352:/Users/imashio/Electronics/ARM/_Library/u8g2_font.c ****   Called by:
 353:/Users/imashio/Electronics/ARM/_Library/u8g2_font.c ****     u8g2_font_decode_glyph()
 354:/Users/imashio/Electronics/ARM/_Library/u8g2_font.c **** */
 355:/Users/imashio/Electronics/ARM/_Library/u8g2_font.c **** /* optimized */
 356:/Users/imashio/Electronics/ARM/_Library/u8g2_font.c **** void u8g2_font_decode_len(u8g2_t *u8g2, uint8_t len, uint8_t is_foreground)
 357:/Users/imashio/Electronics/ARM/_Library/u8g2_font.c **** {
 358:/Users/imashio/Electronics/ARM/_Library/u8g2_font.c ****   uint8_t cnt;	/* total number of remaining pixels, which have to be drawn */
 359:/Users/imashio/Electronics/ARM/_Library/u8g2_font.c ****   uint8_t rem; 	/* remaining pixel to the right edge of the glyph */
 360:/Users/imashio/Electronics/ARM/_Library/u8g2_font.c ****   uint8_t current;	/* number of pixels, which need to be drawn for the draw procedure */
 361:/Users/imashio/Electronics/ARM/_Library/u8g2_font.c ****     /* current is either equal to cnt or equal to rem */
 362:/Users/imashio/Electronics/ARM/_Library/u8g2_font.c ****   
 363:/Users/imashio/Electronics/ARM/_Library/u8g2_font.c ****   /* local coordinates of the glyph */
 364:/Users/imashio/Electronics/ARM/_Library/u8g2_font.c ****   uint8_t lx,ly;
 365:/Users/imashio/Electronics/ARM/_Library/u8g2_font.c ****   
 366:/Users/imashio/Electronics/ARM/_Library/u8g2_font.c ****   /* target position on the screen */
 367:/Users/imashio/Electronics/ARM/_Library/u8g2_font.c ****   u8g2_uint_t x, y;
 368:/Users/imashio/Electronics/ARM/_Library/u8g2_font.c ****   
 369:/Users/imashio/Electronics/ARM/_Library/u8g2_font.c ****   u8g2_font_decode_t *decode = &(u8g2->font_decode);
 370:/Users/imashio/Electronics/ARM/_Library/u8g2_font.c ****   
 371:/Users/imashio/Electronics/ARM/_Library/u8g2_font.c ****   cnt = len;
 372:/Users/imashio/Electronics/ARM/_Library/u8g2_font.c ****   
 373:/Users/imashio/Electronics/ARM/_Library/u8g2_font.c ****   /* get the local position */
 374:/Users/imashio/Electronics/ARM/_Library/u8g2_font.c ****   lx = decode->x;
 375:/Users/imashio/Electronics/ARM/_Library/u8g2_font.c ****   ly = decode->y;
 376:/Users/imashio/Electronics/ARM/_Library/u8g2_font.c ****   
 377:/Users/imashio/Electronics/ARM/_Library/u8g2_font.c ****   for(;;)
ARM GAS  /var/folders/v3/wysfpd052nz8jkbx04pk0ym80000gn/T//ccfX3eBQ.s 			page 11


 378:/Users/imashio/Electronics/ARM/_Library/u8g2_font.c ****   {
 379:/Users/imashio/Electronics/ARM/_Library/u8g2_font.c ****     /* calculate the number of pixel to the right edge of the glyph */
 380:/Users/imashio/Electronics/ARM/_Library/u8g2_font.c ****     rem = decode->glyph_width;
 381:/Users/imashio/Electronics/ARM/_Library/u8g2_font.c ****     rem -= lx;
 382:/Users/imashio/Electronics/ARM/_Library/u8g2_font.c ****     
 383:/Users/imashio/Electronics/ARM/_Library/u8g2_font.c ****     /* calculate how many pixel to draw. This is either to the right edge */
 384:/Users/imashio/Electronics/ARM/_Library/u8g2_font.c ****     /* or lesser, if not enough pixel are left */
 385:/Users/imashio/Electronics/ARM/_Library/u8g2_font.c ****     current = rem;
 386:/Users/imashio/Electronics/ARM/_Library/u8g2_font.c ****     if ( cnt < rem )
 387:/Users/imashio/Electronics/ARM/_Library/u8g2_font.c ****       current = cnt;
 388:/Users/imashio/Electronics/ARM/_Library/u8g2_font.c ****     
 389:/Users/imashio/Electronics/ARM/_Library/u8g2_font.c ****     
 390:/Users/imashio/Electronics/ARM/_Library/u8g2_font.c ****     /* now draw the line, but apply the rotation around the glyph target position */
 391:/Users/imashio/Electronics/ARM/_Library/u8g2_font.c ****     //u8g2_font_decode_draw_pixel(u8g2, lx,ly,current, is_foreground);
 392:/Users/imashio/Electronics/ARM/_Library/u8g2_font.c **** 
 393:/Users/imashio/Electronics/ARM/_Library/u8g2_font.c ****     /* get target position */
 394:/Users/imashio/Electronics/ARM/_Library/u8g2_font.c ****     x = decode->target_x;
 395:/Users/imashio/Electronics/ARM/_Library/u8g2_font.c ****     y = decode->target_y;
 396:/Users/imashio/Electronics/ARM/_Library/u8g2_font.c **** 
 397:/Users/imashio/Electronics/ARM/_Library/u8g2_font.c ****     /* apply rotation */
 398:/Users/imashio/Electronics/ARM/_Library/u8g2_font.c **** #ifdef U8G2_WITH_FONT_ROTATION
 399:/Users/imashio/Electronics/ARM/_Library/u8g2_font.c ****     x = u8g2_add_vector_x(x, lx, ly, decode->dir);
 400:/Users/imashio/Electronics/ARM/_Library/u8g2_font.c ****     y = u8g2_add_vector_y(y, lx, ly, decode->dir);
 401:/Users/imashio/Electronics/ARM/_Library/u8g2_font.c **** #else
 402:/Users/imashio/Electronics/ARM/_Library/u8g2_font.c ****     x += lx;
 403:/Users/imashio/Electronics/ARM/_Library/u8g2_font.c ****     y += ly;
 404:/Users/imashio/Electronics/ARM/_Library/u8g2_font.c **** #endif
 405:/Users/imashio/Electronics/ARM/_Library/u8g2_font.c ****     
 406:/Users/imashio/Electronics/ARM/_Library/u8g2_font.c ****     /* draw foreground and background (if required) */
 407:/Users/imashio/Electronics/ARM/_Library/u8g2_font.c ****     if ( is_foreground )
 408:/Users/imashio/Electronics/ARM/_Library/u8g2_font.c ****     {
 409:/Users/imashio/Electronics/ARM/_Library/u8g2_font.c ****       u8g2->draw_color = decode->fg_color;			/* draw_color will be restored later */
 410:/Users/imashio/Electronics/ARM/_Library/u8g2_font.c ****       u8g2_DrawHVLine(u8g2, 
 411:/Users/imashio/Electronics/ARM/_Library/u8g2_font.c **** 	x, 
 412:/Users/imashio/Electronics/ARM/_Library/u8g2_font.c **** 	y, 
 413:/Users/imashio/Electronics/ARM/_Library/u8g2_font.c **** 	current, 
 414:/Users/imashio/Electronics/ARM/_Library/u8g2_font.c **** #ifdef U8G2_WITH_FONT_ROTATION
 415:/Users/imashio/Electronics/ARM/_Library/u8g2_font.c **** 	/* dir */ decode->dir
 416:/Users/imashio/Electronics/ARM/_Library/u8g2_font.c **** #else
 417:/Users/imashio/Electronics/ARM/_Library/u8g2_font.c **** 	0
 418:/Users/imashio/Electronics/ARM/_Library/u8g2_font.c **** #endif
 419:/Users/imashio/Electronics/ARM/_Library/u8g2_font.c ****       );
 420:/Users/imashio/Electronics/ARM/_Library/u8g2_font.c ****     }
 421:/Users/imashio/Electronics/ARM/_Library/u8g2_font.c ****     else if ( decode->is_transparent == 0 )    
 422:/Users/imashio/Electronics/ARM/_Library/u8g2_font.c ****     {
 423:/Users/imashio/Electronics/ARM/_Library/u8g2_font.c ****       u8g2->draw_color = decode->bg_color;			/* draw_color will be restored later */
 424:/Users/imashio/Electronics/ARM/_Library/u8g2_font.c ****       u8g2_DrawHVLine(u8g2, 
 425:/Users/imashio/Electronics/ARM/_Library/u8g2_font.c **** 	x, 
 426:/Users/imashio/Electronics/ARM/_Library/u8g2_font.c **** 	y, 
 427:/Users/imashio/Electronics/ARM/_Library/u8g2_font.c **** 	current, 
 428:/Users/imashio/Electronics/ARM/_Library/u8g2_font.c **** #ifdef U8G2_WITH_FONT_ROTATION
 429:/Users/imashio/Electronics/ARM/_Library/u8g2_font.c **** 	/* dir */ decode->dir
 430:/Users/imashio/Electronics/ARM/_Library/u8g2_font.c **** #else
 431:/Users/imashio/Electronics/ARM/_Library/u8g2_font.c **** 	0
 432:/Users/imashio/Electronics/ARM/_Library/u8g2_font.c **** #endif
 433:/Users/imashio/Electronics/ARM/_Library/u8g2_font.c ****       );   
 434:/Users/imashio/Electronics/ARM/_Library/u8g2_font.c ****     }
ARM GAS  /var/folders/v3/wysfpd052nz8jkbx04pk0ym80000gn/T//ccfX3eBQ.s 			page 12


 435:/Users/imashio/Electronics/ARM/_Library/u8g2_font.c ****     
 436:/Users/imashio/Electronics/ARM/_Library/u8g2_font.c ****     /* check, whether the end of the run length code has been reached */
 437:/Users/imashio/Electronics/ARM/_Library/u8g2_font.c ****     if ( cnt < rem )
 438:/Users/imashio/Electronics/ARM/_Library/u8g2_font.c ****       break;
 439:/Users/imashio/Electronics/ARM/_Library/u8g2_font.c ****     cnt -= rem;
 440:/Users/imashio/Electronics/ARM/_Library/u8g2_font.c ****     lx = 0;
 441:/Users/imashio/Electronics/ARM/_Library/u8g2_font.c ****     ly++;
 442:/Users/imashio/Electronics/ARM/_Library/u8g2_font.c ****   }
 443:/Users/imashio/Electronics/ARM/_Library/u8g2_font.c ****   lx += cnt;
 444:/Users/imashio/Electronics/ARM/_Library/u8g2_font.c ****   
 445:/Users/imashio/Electronics/ARM/_Library/u8g2_font.c ****   decode->x = lx;
 446:/Users/imashio/Electronics/ARM/_Library/u8g2_font.c ****   decode->y = ly;
 447:/Users/imashio/Electronics/ARM/_Library/u8g2_font.c ****   
 448:/Users/imashio/Electronics/ARM/_Library/u8g2_font.c **** }
 449:/Users/imashio/Electronics/ARM/_Library/u8g2_font.c **** 
 450:/Users/imashio/Electronics/ARM/_Library/u8g2_font.c **** static void u8g2_font_setup_decode(u8g2_t *u8g2, const uint8_t *glyph_data)
 451:/Users/imashio/Electronics/ARM/_Library/u8g2_font.c **** {
 452:/Users/imashio/Electronics/ARM/_Library/u8g2_font.c ****   u8g2_font_decode_t *decode = &(u8g2->font_decode);
 453:/Users/imashio/Electronics/ARM/_Library/u8g2_font.c ****   decode->decode_ptr = glyph_data;
 454:/Users/imashio/Electronics/ARM/_Library/u8g2_font.c ****   decode->decode_bit_pos = 0;
 455:/Users/imashio/Electronics/ARM/_Library/u8g2_font.c ****   
 456:/Users/imashio/Electronics/ARM/_Library/u8g2_font.c ****   /* 8 Nov 2015, this is already done in the glyph data search procedure */
 457:/Users/imashio/Electronics/ARM/_Library/u8g2_font.c ****   /*
 458:/Users/imashio/Electronics/ARM/_Library/u8g2_font.c ****   decode->decode_ptr += 1;
 459:/Users/imashio/Electronics/ARM/_Library/u8g2_font.c ****   decode->decode_ptr += 1;
 460:/Users/imashio/Electronics/ARM/_Library/u8g2_font.c ****   */
 461:/Users/imashio/Electronics/ARM/_Library/u8g2_font.c ****   
 462:/Users/imashio/Electronics/ARM/_Library/u8g2_font.c ****   decode->glyph_width = u8g2_font_decode_get_unsigned_bits(decode, u8g2->font_info.bits_per_char_wi
 463:/Users/imashio/Electronics/ARM/_Library/u8g2_font.c ****   decode->glyph_height = u8g2_font_decode_get_unsigned_bits(decode,u8g2->font_info.bits_per_char_he
 464:/Users/imashio/Electronics/ARM/_Library/u8g2_font.c ****   
 465:/Users/imashio/Electronics/ARM/_Library/u8g2_font.c ****   decode->fg_color = u8g2->draw_color;
 466:/Users/imashio/Electronics/ARM/_Library/u8g2_font.c ****   decode->bg_color = (decode->fg_color == 0 ? 1 : 0);
 467:/Users/imashio/Electronics/ARM/_Library/u8g2_font.c **** }
 468:/Users/imashio/Electronics/ARM/_Library/u8g2_font.c **** 
 469:/Users/imashio/Electronics/ARM/_Library/u8g2_font.c **** 
 470:/Users/imashio/Electronics/ARM/_Library/u8g2_font.c **** /*
 471:/Users/imashio/Electronics/ARM/_Library/u8g2_font.c ****   Description:
 472:/Users/imashio/Electronics/ARM/_Library/u8g2_font.c ****     Decode and draw a glyph.
 473:/Users/imashio/Electronics/ARM/_Library/u8g2_font.c ****   Args:
 474:/Users/imashio/Electronics/ARM/_Library/u8g2_font.c ****     glyph_data: 					Pointer to the compressed glyph data of the font
 475:/Users/imashio/Electronics/ARM/_Library/u8g2_font.c ****     u8g2->font_decode.target_x		X position
 476:/Users/imashio/Electronics/ARM/_Library/u8g2_font.c ****     u8g2->font_decode.target_y		Y position
 477:/Users/imashio/Electronics/ARM/_Library/u8g2_font.c ****     u8g2->font_decode.is_transparent	Transparent mode
 478:/Users/imashio/Electronics/ARM/_Library/u8g2_font.c ****   Return:
 479:/Users/imashio/Electronics/ARM/_Library/u8g2_font.c ****     Width (delta x advance) of the glyph.
 480:/Users/imashio/Electronics/ARM/_Library/u8g2_font.c ****   Calls:
 481:/Users/imashio/Electronics/ARM/_Library/u8g2_font.c ****     u8g2_font_decode_len()
 482:/Users/imashio/Electronics/ARM/_Library/u8g2_font.c **** */
 483:/Users/imashio/Electronics/ARM/_Library/u8g2_font.c **** /* optimized */
 484:/Users/imashio/Electronics/ARM/_Library/u8g2_font.c **** int8_t u8g2_font_decode_glyph(u8g2_t *u8g2, const uint8_t *glyph_data)
 485:/Users/imashio/Electronics/ARM/_Library/u8g2_font.c **** {
 486:/Users/imashio/Electronics/ARM/_Library/u8g2_font.c ****   uint8_t a, b;
 487:/Users/imashio/Electronics/ARM/_Library/u8g2_font.c ****   int8_t x, y;
 488:/Users/imashio/Electronics/ARM/_Library/u8g2_font.c ****   int8_t d;
 489:/Users/imashio/Electronics/ARM/_Library/u8g2_font.c ****   int8_t h;
 490:/Users/imashio/Electronics/ARM/_Library/u8g2_font.c ****   u8g2_font_decode_t *decode = &(u8g2->font_decode);
 491:/Users/imashio/Electronics/ARM/_Library/u8g2_font.c ****     
ARM GAS  /var/folders/v3/wysfpd052nz8jkbx04pk0ym80000gn/T//ccfX3eBQ.s 			page 13


 492:/Users/imashio/Electronics/ARM/_Library/u8g2_font.c ****   u8g2_font_setup_decode(u8g2, glyph_data);
 493:/Users/imashio/Electronics/ARM/_Library/u8g2_font.c ****   h = u8g2->font_decode.glyph_height;
 494:/Users/imashio/Electronics/ARM/_Library/u8g2_font.c ****   
 495:/Users/imashio/Electronics/ARM/_Library/u8g2_font.c ****   x = u8g2_font_decode_get_signed_bits(decode, u8g2->font_info.bits_per_char_x);
 496:/Users/imashio/Electronics/ARM/_Library/u8g2_font.c ****   y = u8g2_font_decode_get_signed_bits(decode, u8g2->font_info.bits_per_char_y);
 497:/Users/imashio/Electronics/ARM/_Library/u8g2_font.c ****   d = u8g2_font_decode_get_signed_bits(decode, u8g2->font_info.bits_per_delta_x);
 498:/Users/imashio/Electronics/ARM/_Library/u8g2_font.c ****   
 499:/Users/imashio/Electronics/ARM/_Library/u8g2_font.c ****   if ( decode->glyph_width > 0 )
 500:/Users/imashio/Electronics/ARM/_Library/u8g2_font.c ****   {
 501:/Users/imashio/Electronics/ARM/_Library/u8g2_font.c **** #ifdef U8G2_WITH_FONT_ROTATION
 502:/Users/imashio/Electronics/ARM/_Library/u8g2_font.c ****     decode->target_x = u8g2_add_vector_x(decode->target_x, x, -(h+y), decode->dir);
 503:/Users/imashio/Electronics/ARM/_Library/u8g2_font.c ****     decode->target_y = u8g2_add_vector_y(decode->target_y, x, -(h+y), decode->dir);
 504:/Users/imashio/Electronics/ARM/_Library/u8g2_font.c **** #else
 505:/Users/imashio/Electronics/ARM/_Library/u8g2_font.c ****     decode->target_x += x;
 506:/Users/imashio/Electronics/ARM/_Library/u8g2_font.c ****     decode->target_y -= h+y;
 507:/Users/imashio/Electronics/ARM/_Library/u8g2_font.c **** #endif
 508:/Users/imashio/Electronics/ARM/_Library/u8g2_font.c ****     //u8g2_add_vector(&(decode->target_x), &(decode->target_y), x, -(h+y), decode->dir);
 509:/Users/imashio/Electronics/ARM/_Library/u8g2_font.c **** 
 510:/Users/imashio/Electronics/ARM/_Library/u8g2_font.c **** #ifdef U8G2_WITH_INTERSECTION
 511:/Users/imashio/Electronics/ARM/_Library/u8g2_font.c ****     {
 512:/Users/imashio/Electronics/ARM/_Library/u8g2_font.c ****       u8g2_uint_t x0, x1, y0, y1;
 513:/Users/imashio/Electronics/ARM/_Library/u8g2_font.c ****       x0 = decode->target_x;
 514:/Users/imashio/Electronics/ARM/_Library/u8g2_font.c ****       y0 = decode->target_y;
 515:/Users/imashio/Electronics/ARM/_Library/u8g2_font.c ****       x1 = x0;
 516:/Users/imashio/Electronics/ARM/_Library/u8g2_font.c ****       y1 = y0;
 517:/Users/imashio/Electronics/ARM/_Library/u8g2_font.c ****       
 518:/Users/imashio/Electronics/ARM/_Library/u8g2_font.c **** #ifdef U8G2_WITH_FONT_ROTATION
 519:/Users/imashio/Electronics/ARM/_Library/u8g2_font.c ****       switch(decode->dir)
 520:/Users/imashio/Electronics/ARM/_Library/u8g2_font.c ****       {
 521:/Users/imashio/Electronics/ARM/_Library/u8g2_font.c **** 	case 0:
 522:/Users/imashio/Electronics/ARM/_Library/u8g2_font.c **** 	    x1 += decode->glyph_width;
 523:/Users/imashio/Electronics/ARM/_Library/u8g2_font.c **** 	    y1 += h;
 524:/Users/imashio/Electronics/ARM/_Library/u8g2_font.c **** 	    break;
 525:/Users/imashio/Electronics/ARM/_Library/u8g2_font.c **** 	case 1:
 526:/Users/imashio/Electronics/ARM/_Library/u8g2_font.c **** 	    x0 -= h;
 527:/Users/imashio/Electronics/ARM/_Library/u8g2_font.c **** 	    x0++;	/* shift down, because of assymetric boundaries for the interseciton test */
 528:/Users/imashio/Electronics/ARM/_Library/u8g2_font.c **** 	    x1++;
 529:/Users/imashio/Electronics/ARM/_Library/u8g2_font.c **** 	    y1 += decode->glyph_width;
 530:/Users/imashio/Electronics/ARM/_Library/u8g2_font.c **** 	    break;
 531:/Users/imashio/Electronics/ARM/_Library/u8g2_font.c **** 	case 2:
 532:/Users/imashio/Electronics/ARM/_Library/u8g2_font.c **** 	    x0 -= decode->glyph_width;
 533:/Users/imashio/Electronics/ARM/_Library/u8g2_font.c **** 	    x0++;	/* shift down, because of assymetric boundaries for the interseciton test */
 534:/Users/imashio/Electronics/ARM/_Library/u8g2_font.c **** 	    x1++;
 535:/Users/imashio/Electronics/ARM/_Library/u8g2_font.c **** 	    y0 -= h;
 536:/Users/imashio/Electronics/ARM/_Library/u8g2_font.c **** 	    y0++;	/* shift down, because of assymetric boundaries for the interseciton test */
 537:/Users/imashio/Electronics/ARM/_Library/u8g2_font.c **** 	    y1++;
 538:/Users/imashio/Electronics/ARM/_Library/u8g2_font.c **** 	    break;	  
 539:/Users/imashio/Electronics/ARM/_Library/u8g2_font.c **** 	case 3:
 540:/Users/imashio/Electronics/ARM/_Library/u8g2_font.c **** 	    x1 += h;
 541:/Users/imashio/Electronics/ARM/_Library/u8g2_font.c **** 	    y0 -= decode->glyph_width;
 542:/Users/imashio/Electronics/ARM/_Library/u8g2_font.c **** 	    y0++;	/* shift down, because of assymetric boundaries for the interseciton test */
 543:/Users/imashio/Electronics/ARM/_Library/u8g2_font.c **** 	    y1++;
 544:/Users/imashio/Electronics/ARM/_Library/u8g2_font.c **** 	    break;	  
 545:/Users/imashio/Electronics/ARM/_Library/u8g2_font.c ****       }
 546:/Users/imashio/Electronics/ARM/_Library/u8g2_font.c **** #else /* U8G2_WITH_FONT_ROTATION */
 547:/Users/imashio/Electronics/ARM/_Library/u8g2_font.c ****       x1 += decode->glyph_width;
 548:/Users/imashio/Electronics/ARM/_Library/u8g2_font.c ****       y1 += h;      
ARM GAS  /var/folders/v3/wysfpd052nz8jkbx04pk0ym80000gn/T//ccfX3eBQ.s 			page 14


 549:/Users/imashio/Electronics/ARM/_Library/u8g2_font.c **** #endif
 550:/Users/imashio/Electronics/ARM/_Library/u8g2_font.c ****       
 551:/Users/imashio/Electronics/ARM/_Library/u8g2_font.c ****       if ( u8g2_IsIntersection(u8g2, x0, y0, x1, y1) == 0 ) 
 552:/Users/imashio/Electronics/ARM/_Library/u8g2_font.c **** 	return d;
 553:/Users/imashio/Electronics/ARM/_Library/u8g2_font.c ****     }
 554:/Users/imashio/Electronics/ARM/_Library/u8g2_font.c **** #endif /* U8G2_WITH_INTERSECTION */
 555:/Users/imashio/Electronics/ARM/_Library/u8g2_font.c ****    
 556:/Users/imashio/Electronics/ARM/_Library/u8g2_font.c ****     /* reset local x/y position */
 557:/Users/imashio/Electronics/ARM/_Library/u8g2_font.c ****     decode->x = 0;
 558:/Users/imashio/Electronics/ARM/_Library/u8g2_font.c ****     decode->y = 0;
 559:/Users/imashio/Electronics/ARM/_Library/u8g2_font.c ****     
 560:/Users/imashio/Electronics/ARM/_Library/u8g2_font.c ****     /* decode glyph */
 561:/Users/imashio/Electronics/ARM/_Library/u8g2_font.c ****     for(;;)
 562:/Users/imashio/Electronics/ARM/_Library/u8g2_font.c ****     {
 563:/Users/imashio/Electronics/ARM/_Library/u8g2_font.c ****       a = u8g2_font_decode_get_unsigned_bits(decode, u8g2->font_info.bits_per_0);
 564:/Users/imashio/Electronics/ARM/_Library/u8g2_font.c ****       b = u8g2_font_decode_get_unsigned_bits(decode, u8g2->font_info.bits_per_1);
 565:/Users/imashio/Electronics/ARM/_Library/u8g2_font.c ****       do
 566:/Users/imashio/Electronics/ARM/_Library/u8g2_font.c ****       {
 567:/Users/imashio/Electronics/ARM/_Library/u8g2_font.c **** 	u8g2_font_decode_len(u8g2, a, 0);
 568:/Users/imashio/Electronics/ARM/_Library/u8g2_font.c **** 	u8g2_font_decode_len(u8g2, b, 1);
 569:/Users/imashio/Electronics/ARM/_Library/u8g2_font.c ****       } while( u8g2_font_decode_get_unsigned_bits(decode, 1) != 0 );
 570:/Users/imashio/Electronics/ARM/_Library/u8g2_font.c **** 
 571:/Users/imashio/Electronics/ARM/_Library/u8g2_font.c ****       if ( decode->y >= h )
 572:/Users/imashio/Electronics/ARM/_Library/u8g2_font.c **** 	break;
 573:/Users/imashio/Electronics/ARM/_Library/u8g2_font.c ****     }
 574:/Users/imashio/Electronics/ARM/_Library/u8g2_font.c ****     
 575:/Users/imashio/Electronics/ARM/_Library/u8g2_font.c ****     /* restore the u8g2 draw color, because this is modified by the decode algo */
 576:/Users/imashio/Electronics/ARM/_Library/u8g2_font.c ****     u8g2->draw_color = decode->fg_color;
 577:/Users/imashio/Electronics/ARM/_Library/u8g2_font.c ****   }
 578:/Users/imashio/Electronics/ARM/_Library/u8g2_font.c ****   return d;
 579:/Users/imashio/Electronics/ARM/_Library/u8g2_font.c **** }
 580:/Users/imashio/Electronics/ARM/_Library/u8g2_font.c **** 
 581:/Users/imashio/Electronics/ARM/_Library/u8g2_font.c **** /*
 582:/Users/imashio/Electronics/ARM/_Library/u8g2_font.c ****   Description:
 583:/Users/imashio/Electronics/ARM/_Library/u8g2_font.c ****     Find the starting point of the glyph data.
 584:/Users/imashio/Electronics/ARM/_Library/u8g2_font.c ****   Args:
 585:/Users/imashio/Electronics/ARM/_Library/u8g2_font.c ****     encoding: Encoding (ASCII or Unicode) of the glyph
 586:/Users/imashio/Electronics/ARM/_Library/u8g2_font.c ****   Return:
 587:/Users/imashio/Electronics/ARM/_Library/u8g2_font.c ****     Address of the glyph data or NULL, if the encoding is not avialable in the font.
 588:/Users/imashio/Electronics/ARM/_Library/u8g2_font.c **** */
 589:/Users/imashio/Electronics/ARM/_Library/u8g2_font.c **** const uint8_t *u8g2_font_get_glyph_data(u8g2_t *u8g2, uint16_t encoding)
 590:/Users/imashio/Electronics/ARM/_Library/u8g2_font.c **** {
 591:/Users/imashio/Electronics/ARM/_Library/u8g2_font.c ****   const uint8_t *font = u8g2->font;
 592:/Users/imashio/Electronics/ARM/_Library/u8g2_font.c ****   font += U8G2_FONT_DATA_STRUCT_SIZE;
 593:/Users/imashio/Electronics/ARM/_Library/u8g2_font.c **** 
 594:/Users/imashio/Electronics/ARM/_Library/u8g2_font.c ****   
 595:/Users/imashio/Electronics/ARM/_Library/u8g2_font.c ****   if ( encoding <= 255 )
 596:/Users/imashio/Electronics/ARM/_Library/u8g2_font.c ****   {
 597:/Users/imashio/Electronics/ARM/_Library/u8g2_font.c ****     if ( encoding >= 'a' )
 598:/Users/imashio/Electronics/ARM/_Library/u8g2_font.c ****     {
 599:/Users/imashio/Electronics/ARM/_Library/u8g2_font.c ****       font += u8g2->font_info.start_pos_lower_a;
 600:/Users/imashio/Electronics/ARM/_Library/u8g2_font.c ****     }
 601:/Users/imashio/Electronics/ARM/_Library/u8g2_font.c ****     else if ( encoding >= 'A' )
 602:/Users/imashio/Electronics/ARM/_Library/u8g2_font.c ****     {
 603:/Users/imashio/Electronics/ARM/_Library/u8g2_font.c ****       font += u8g2->font_info.start_pos_upper_A;
 604:/Users/imashio/Electronics/ARM/_Library/u8g2_font.c ****     }
 605:/Users/imashio/Electronics/ARM/_Library/u8g2_font.c ****     
ARM GAS  /var/folders/v3/wysfpd052nz8jkbx04pk0ym80000gn/T//ccfX3eBQ.s 			page 15


 606:/Users/imashio/Electronics/ARM/_Library/u8g2_font.c ****     for(;;)
 607:/Users/imashio/Electronics/ARM/_Library/u8g2_font.c ****     {
 608:/Users/imashio/Electronics/ARM/_Library/u8g2_font.c ****       if ( u8x8_pgm_read( font + 1 ) == 0 )
 609:/Users/imashio/Electronics/ARM/_Library/u8g2_font.c **** 	break;
 610:/Users/imashio/Electronics/ARM/_Library/u8g2_font.c ****       if ( u8x8_pgm_read( font ) == encoding )
 611:/Users/imashio/Electronics/ARM/_Library/u8g2_font.c ****       {
 612:/Users/imashio/Electronics/ARM/_Library/u8g2_font.c **** 	return font+2;	/* skip encoding and glyph size */
 613:/Users/imashio/Electronics/ARM/_Library/u8g2_font.c ****       }
 614:/Users/imashio/Electronics/ARM/_Library/u8g2_font.c ****       font += u8x8_pgm_read( font + 1 );
 615:/Users/imashio/Electronics/ARM/_Library/u8g2_font.c ****     }
 616:/Users/imashio/Electronics/ARM/_Library/u8g2_font.c ****   }
 617:/Users/imashio/Electronics/ARM/_Library/u8g2_font.c **** #ifdef U8G2_WITH_UNICODE
 618:/Users/imashio/Electronics/ARM/_Library/u8g2_font.c ****   else
 619:/Users/imashio/Electronics/ARM/_Library/u8g2_font.c ****   {
 620:/Users/imashio/Electronics/ARM/_Library/u8g2_font.c ****     uint16_t e;
 621:/Users/imashio/Electronics/ARM/_Library/u8g2_font.c ****     
 622:/Users/imashio/Electronics/ARM/_Library/u8g2_font.c **** #ifdef  __unix__
 623:/Users/imashio/Electronics/ARM/_Library/u8g2_font.c ****     if ( u8g2->last_font_data != NULL && encoding >= u8g2->last_unicode )
 624:/Users/imashio/Electronics/ARM/_Library/u8g2_font.c ****     {
 625:/Users/imashio/Electronics/ARM/_Library/u8g2_font.c **** 	font = u8g2->last_font_data;
 626:/Users/imashio/Electronics/ARM/_Library/u8g2_font.c ****     }
 627:/Users/imashio/Electronics/ARM/_Library/u8g2_font.c ****     else
 628:/Users/imashio/Electronics/ARM/_Library/u8g2_font.c **** #endif 
 629:/Users/imashio/Electronics/ARM/_Library/u8g2_font.c **** 
 630:/Users/imashio/Electronics/ARM/_Library/u8g2_font.c ****     font += u8g2->font_info.start_pos_unicode;
 631:/Users/imashio/Electronics/ARM/_Library/u8g2_font.c ****     
 632:/Users/imashio/Electronics/ARM/_Library/u8g2_font.c ****     
 633:/Users/imashio/Electronics/ARM/_Library/u8g2_font.c ****     for(;;)
 634:/Users/imashio/Electronics/ARM/_Library/u8g2_font.c ****     {
 635:/Users/imashio/Electronics/ARM/_Library/u8g2_font.c ****       e = u8x8_pgm_read( font );
 636:/Users/imashio/Electronics/ARM/_Library/u8g2_font.c ****       e <<= 8;
 637:/Users/imashio/Electronics/ARM/_Library/u8g2_font.c ****       e |= u8x8_pgm_read( font + 1 );
 638:/Users/imashio/Electronics/ARM/_Library/u8g2_font.c ****   
 639:/Users/imashio/Electronics/ARM/_Library/u8g2_font.c **** #ifdef  __unix__
 640:/Users/imashio/Electronics/ARM/_Library/u8g2_font.c ****       if ( encoding < e )
 641:/Users/imashio/Electronics/ARM/_Library/u8g2_font.c ****         break;
 642:/Users/imashio/Electronics/ARM/_Library/u8g2_font.c **** #endif 
 643:/Users/imashio/Electronics/ARM/_Library/u8g2_font.c **** 
 644:/Users/imashio/Electronics/ARM/_Library/u8g2_font.c ****       if ( e == 0 )
 645:/Users/imashio/Electronics/ARM/_Library/u8g2_font.c **** 	break;
 646:/Users/imashio/Electronics/ARM/_Library/u8g2_font.c ****   
 647:/Users/imashio/Electronics/ARM/_Library/u8g2_font.c ****       if ( e == encoding )
 648:/Users/imashio/Electronics/ARM/_Library/u8g2_font.c ****       {
 649:/Users/imashio/Electronics/ARM/_Library/u8g2_font.c **** #ifdef  __unix__
 650:/Users/imashio/Electronics/ARM/_Library/u8g2_font.c **** 	u8g2->last_font_data = font;
 651:/Users/imashio/Electronics/ARM/_Library/u8g2_font.c **** 	u8g2->last_unicode = encoding;
 652:/Users/imashio/Electronics/ARM/_Library/u8g2_font.c **** #endif 
 653:/Users/imashio/Electronics/ARM/_Library/u8g2_font.c **** 	return font+3;	/* skip encoding and glyph size */
 654:/Users/imashio/Electronics/ARM/_Library/u8g2_font.c ****       }
 655:/Users/imashio/Electronics/ARM/_Library/u8g2_font.c ****       font += u8x8_pgm_read( font + 2 );
 656:/Users/imashio/Electronics/ARM/_Library/u8g2_font.c ****     }  
 657:/Users/imashio/Electronics/ARM/_Library/u8g2_font.c ****   }
 658:/Users/imashio/Electronics/ARM/_Library/u8g2_font.c **** #endif
 659:/Users/imashio/Electronics/ARM/_Library/u8g2_font.c ****   
 660:/Users/imashio/Electronics/ARM/_Library/u8g2_font.c ****   return NULL;
 661:/Users/imashio/Electronics/ARM/_Library/u8g2_font.c **** }
 662:/Users/imashio/Electronics/ARM/_Library/u8g2_font.c **** 
ARM GAS  /var/folders/v3/wysfpd052nz8jkbx04pk0ym80000gn/T//ccfX3eBQ.s 			page 16


 663:/Users/imashio/Electronics/ARM/_Library/u8g2_font.c **** static u8g2_uint_t u8g2_font_draw_glyph(u8g2_t *u8g2, u8g2_uint_t x, u8g2_uint_t y, uint16_t encodi
 664:/Users/imashio/Electronics/ARM/_Library/u8g2_font.c **** {
 665:/Users/imashio/Electronics/ARM/_Library/u8g2_font.c ****   u8g2_uint_t dx = 0;
 666:/Users/imashio/Electronics/ARM/_Library/u8g2_font.c ****   u8g2->font_decode.target_x = x;
 667:/Users/imashio/Electronics/ARM/_Library/u8g2_font.c ****   u8g2->font_decode.target_y = y;
 668:/Users/imashio/Electronics/ARM/_Library/u8g2_font.c ****   //u8g2->font_decode.is_transparent = is_transparent; this is already set
 669:/Users/imashio/Electronics/ARM/_Library/u8g2_font.c ****   //u8g2->font_decode.dir = dir;
 670:/Users/imashio/Electronics/ARM/_Library/u8g2_font.c ****   const uint8_t *glyph_data = u8g2_font_get_glyph_data(u8g2, encoding);
 671:/Users/imashio/Electronics/ARM/_Library/u8g2_font.c ****   if ( glyph_data != NULL )
 672:/Users/imashio/Electronics/ARM/_Library/u8g2_font.c ****   {
 673:/Users/imashio/Electronics/ARM/_Library/u8g2_font.c ****     dx = u8g2_font_decode_glyph(u8g2, glyph_data);
 674:/Users/imashio/Electronics/ARM/_Library/u8g2_font.c ****   }
 675:/Users/imashio/Electronics/ARM/_Library/u8g2_font.c ****   return dx;
 676:/Users/imashio/Electronics/ARM/_Library/u8g2_font.c **** }
 677:/Users/imashio/Electronics/ARM/_Library/u8g2_font.c **** 
 678:/Users/imashio/Electronics/ARM/_Library/u8g2_font.c **** 
 679:/Users/imashio/Electronics/ARM/_Library/u8g2_font.c **** 
 680:/Users/imashio/Electronics/ARM/_Library/u8g2_font.c **** uint8_t u8g2_IsGlyph(u8g2_t *u8g2, uint16_t requested_encoding)
 681:/Users/imashio/Electronics/ARM/_Library/u8g2_font.c **** {
 682:/Users/imashio/Electronics/ARM/_Library/u8g2_font.c ****   /* updated to new code */
 683:/Users/imashio/Electronics/ARM/_Library/u8g2_font.c ****   if ( u8g2_font_get_glyph_data(u8g2, requested_encoding) != NULL )
 684:/Users/imashio/Electronics/ARM/_Library/u8g2_font.c ****     return 1;
 685:/Users/imashio/Electronics/ARM/_Library/u8g2_font.c ****   return 0;
 686:/Users/imashio/Electronics/ARM/_Library/u8g2_font.c **** }
 687:/Users/imashio/Electronics/ARM/_Library/u8g2_font.c **** 
 688:/Users/imashio/Electronics/ARM/_Library/u8g2_font.c **** /* side effect: updates u8g2->font_decode and u8g2->glyph_x_offset */
 689:/Users/imashio/Electronics/ARM/_Library/u8g2_font.c **** int8_t u8g2_GetGlyphWidth(u8g2_t *u8g2, uint16_t requested_encoding)
 690:/Users/imashio/Electronics/ARM/_Library/u8g2_font.c **** {
 691:/Users/imashio/Electronics/ARM/_Library/u8g2_font.c ****   const uint8_t *glyph_data = u8g2_font_get_glyph_data(u8g2, requested_encoding);
 692:/Users/imashio/Electronics/ARM/_Library/u8g2_font.c ****   if ( glyph_data == NULL )
 693:/Users/imashio/Electronics/ARM/_Library/u8g2_font.c ****     return 0; 
 694:/Users/imashio/Electronics/ARM/_Library/u8g2_font.c ****   
 695:/Users/imashio/Electronics/ARM/_Library/u8g2_font.c ****   u8g2_font_setup_decode(u8g2, glyph_data);
 696:/Users/imashio/Electronics/ARM/_Library/u8g2_font.c ****   u8g2->glyph_x_offset = u8g2_font_decode_get_signed_bits(&(u8g2->font_decode), u8g2->font_info.bit
 697:/Users/imashio/Electronics/ARM/_Library/u8g2_font.c ****   u8g2_font_decode_get_signed_bits(&(u8g2->font_decode), u8g2->font_info.bits_per_char_y);
 698:/Users/imashio/Electronics/ARM/_Library/u8g2_font.c ****   
 699:/Users/imashio/Electronics/ARM/_Library/u8g2_font.c ****   /* glyph width is here: u8g2->font_decode.glyph_width */
 700:/Users/imashio/Electronics/ARM/_Library/u8g2_font.c **** 
 701:/Users/imashio/Electronics/ARM/_Library/u8g2_font.c ****   return u8g2_font_decode_get_signed_bits(&(u8g2->font_decode), u8g2->font_info.bits_per_delta_x);
 702:/Users/imashio/Electronics/ARM/_Library/u8g2_font.c **** }
 703:/Users/imashio/Electronics/ARM/_Library/u8g2_font.c **** 
 704:/Users/imashio/Electronics/ARM/_Library/u8g2_font.c **** 
 705:/Users/imashio/Electronics/ARM/_Library/u8g2_font.c **** /*
 706:/Users/imashio/Electronics/ARM/_Library/u8g2_font.c ****   set one of:
 707:/Users/imashio/Electronics/ARM/_Library/u8g2_font.c ****     U8G2_FONT_MODE_TRANSPARENT
 708:/Users/imashio/Electronics/ARM/_Library/u8g2_font.c ****     U8G2_FONT_MODE_SOLID
 709:/Users/imashio/Electronics/ARM/_Library/u8g2_font.c ****     U8G2_FONT_MODE_NONE
 710:/Users/imashio/Electronics/ARM/_Library/u8g2_font.c ****   This has been changed for the new font procedures  
 711:/Users/imashio/Electronics/ARM/_Library/u8g2_font.c **** */
 712:/Users/imashio/Electronics/ARM/_Library/u8g2_font.c **** void u8g2_SetFontMode(u8g2_t *u8g2, uint8_t is_transparent)
 713:/Users/imashio/Electronics/ARM/_Library/u8g2_font.c **** {
 714:/Users/imashio/Electronics/ARM/_Library/u8g2_font.c ****   u8g2->font_decode.is_transparent = is_transparent;		// new font procedures
 715:/Users/imashio/Electronics/ARM/_Library/u8g2_font.c **** }
 716:/Users/imashio/Electronics/ARM/_Library/u8g2_font.c **** 
 717:/Users/imashio/Electronics/ARM/_Library/u8g2_font.c **** u8g2_uint_t u8g2_DrawGlyph(u8g2_t *u8g2, u8g2_uint_t x, u8g2_uint_t y, uint16_t encoding)
 718:/Users/imashio/Electronics/ARM/_Library/u8g2_font.c **** {
 719:/Users/imashio/Electronics/ARM/_Library/u8g2_font.c **** #ifdef U8G2_WITH_FONT_ROTATION
ARM GAS  /var/folders/v3/wysfpd052nz8jkbx04pk0ym80000gn/T//ccfX3eBQ.s 			page 17


 720:/Users/imashio/Electronics/ARM/_Library/u8g2_font.c ****   switch(u8g2->font_decode.dir)
 721:/Users/imashio/Electronics/ARM/_Library/u8g2_font.c ****   {
 722:/Users/imashio/Electronics/ARM/_Library/u8g2_font.c ****     case 0:
 723:/Users/imashio/Electronics/ARM/_Library/u8g2_font.c ****       y += u8g2->font_calc_vref(u8g2);
 724:/Users/imashio/Electronics/ARM/_Library/u8g2_font.c ****       break;
 725:/Users/imashio/Electronics/ARM/_Library/u8g2_font.c ****     case 1:
 726:/Users/imashio/Electronics/ARM/_Library/u8g2_font.c ****       x -= u8g2->font_calc_vref(u8g2);
 727:/Users/imashio/Electronics/ARM/_Library/u8g2_font.c ****       break;
 728:/Users/imashio/Electronics/ARM/_Library/u8g2_font.c ****     case 2:
 729:/Users/imashio/Electronics/ARM/_Library/u8g2_font.c ****       y -= u8g2->font_calc_vref(u8g2);
 730:/Users/imashio/Electronics/ARM/_Library/u8g2_font.c ****       break;
 731:/Users/imashio/Electronics/ARM/_Library/u8g2_font.c ****     case 3:
 732:/Users/imashio/Electronics/ARM/_Library/u8g2_font.c ****       x += u8g2->font_calc_vref(u8g2);
 733:/Users/imashio/Electronics/ARM/_Library/u8g2_font.c ****       break;
 734:/Users/imashio/Electronics/ARM/_Library/u8g2_font.c ****   }
 735:/Users/imashio/Electronics/ARM/_Library/u8g2_font.c **** #else
 736:/Users/imashio/Electronics/ARM/_Library/u8g2_font.c ****   y += u8g2->font_calc_vref(u8g2);
 737:/Users/imashio/Electronics/ARM/_Library/u8g2_font.c **** #endif
 738:/Users/imashio/Electronics/ARM/_Library/u8g2_font.c ****   return u8g2_font_draw_glyph(u8g2, x, y, encoding);
 739:/Users/imashio/Electronics/ARM/_Library/u8g2_font.c **** }
 740:/Users/imashio/Electronics/ARM/_Library/u8g2_font.c **** 
 741:/Users/imashio/Electronics/ARM/_Library/u8g2_font.c **** static u8g2_uint_t u8g2_draw_string(u8g2_t *u8g2, u8g2_uint_t x, u8g2_uint_t y, const char *str) U8
 742:/Users/imashio/Electronics/ARM/_Library/u8g2_font.c **** static u8g2_uint_t u8g2_draw_string(u8g2_t *u8g2, u8g2_uint_t x, u8g2_uint_t y, const char *str)
 743:/Users/imashio/Electronics/ARM/_Library/u8g2_font.c **** {
 744:/Users/imashio/Electronics/ARM/_Library/u8g2_font.c ****   uint16_t e;
 745:/Users/imashio/Electronics/ARM/_Library/u8g2_font.c ****   u8g2_uint_t delta, sum;
 746:/Users/imashio/Electronics/ARM/_Library/u8g2_font.c ****   u8x8_utf8_init(u8g2_GetU8x8(u8g2));
 747:/Users/imashio/Electronics/ARM/_Library/u8g2_font.c ****   sum = 0;
 748:/Users/imashio/Electronics/ARM/_Library/u8g2_font.c ****   for(;;)
 749:/Users/imashio/Electronics/ARM/_Library/u8g2_font.c ****   {
 750:/Users/imashio/Electronics/ARM/_Library/u8g2_font.c ****     e = u8g2->u8x8.next_cb(u8g2_GetU8x8(u8g2), (uint8_t)*str);
 751:/Users/imashio/Electronics/ARM/_Library/u8g2_font.c ****     if ( e == 0x0ffff )
 752:/Users/imashio/Electronics/ARM/_Library/u8g2_font.c ****       break;
 753:/Users/imashio/Electronics/ARM/_Library/u8g2_font.c ****     str++;
 754:/Users/imashio/Electronics/ARM/_Library/u8g2_font.c ****     if ( e != 0x0fffe )
 755:/Users/imashio/Electronics/ARM/_Library/u8g2_font.c ****     {
 756:/Users/imashio/Electronics/ARM/_Library/u8g2_font.c ****       delta = u8g2_DrawGlyph(u8g2, x, y, e);
 757:/Users/imashio/Electronics/ARM/_Library/u8g2_font.c ****     
 758:/Users/imashio/Electronics/ARM/_Library/u8g2_font.c **** #ifdef U8G2_WITH_FONT_ROTATION
 759:/Users/imashio/Electronics/ARM/_Library/u8g2_font.c ****       switch(u8g2->font_decode.dir)
 760:/Users/imashio/Electronics/ARM/_Library/u8g2_font.c ****       {
 761:/Users/imashio/Electronics/ARM/_Library/u8g2_font.c **** 	case 0:
 762:/Users/imashio/Electronics/ARM/_Library/u8g2_font.c **** 	  x += delta;
 763:/Users/imashio/Electronics/ARM/_Library/u8g2_font.c **** 	  break;
 764:/Users/imashio/Electronics/ARM/_Library/u8g2_font.c **** 	case 1:
 765:/Users/imashio/Electronics/ARM/_Library/u8g2_font.c **** 	  y += delta;
 766:/Users/imashio/Electronics/ARM/_Library/u8g2_font.c **** 	  break;
 767:/Users/imashio/Electronics/ARM/_Library/u8g2_font.c **** 	case 2:
 768:/Users/imashio/Electronics/ARM/_Library/u8g2_font.c **** 	  x -= delta;
 769:/Users/imashio/Electronics/ARM/_Library/u8g2_font.c **** 	  break;
 770:/Users/imashio/Electronics/ARM/_Library/u8g2_font.c **** 	case 3:
 771:/Users/imashio/Electronics/ARM/_Library/u8g2_font.c **** 	  y -= delta;
 772:/Users/imashio/Electronics/ARM/_Library/u8g2_font.c **** 	  break;
 773:/Users/imashio/Electronics/ARM/_Library/u8g2_font.c ****       }
 774:/Users/imashio/Electronics/ARM/_Library/u8g2_font.c **** #else
 775:/Users/imashio/Electronics/ARM/_Library/u8g2_font.c ****       x += delta;
 776:/Users/imashio/Electronics/ARM/_Library/u8g2_font.c **** #endif
ARM GAS  /var/folders/v3/wysfpd052nz8jkbx04pk0ym80000gn/T//ccfX3eBQ.s 			page 18


 777:/Users/imashio/Electronics/ARM/_Library/u8g2_font.c **** 
 778:/Users/imashio/Electronics/ARM/_Library/u8g2_font.c ****       sum += delta;    
 779:/Users/imashio/Electronics/ARM/_Library/u8g2_font.c ****     }
 780:/Users/imashio/Electronics/ARM/_Library/u8g2_font.c ****   }
 781:/Users/imashio/Electronics/ARM/_Library/u8g2_font.c ****   return sum;
 782:/Users/imashio/Electronics/ARM/_Library/u8g2_font.c **** }
 783:/Users/imashio/Electronics/ARM/_Library/u8g2_font.c **** 
 784:/Users/imashio/Electronics/ARM/_Library/u8g2_font.c **** u8g2_uint_t u8g2_DrawStr(u8g2_t *u8g2, u8g2_uint_t x, u8g2_uint_t y, const char *str)
 785:/Users/imashio/Electronics/ARM/_Library/u8g2_font.c **** {
 786:/Users/imashio/Electronics/ARM/_Library/u8g2_font.c ****   u8g2->u8x8.next_cb = u8x8_ascii_next;
 787:/Users/imashio/Electronics/ARM/_Library/u8g2_font.c ****   return u8g2_draw_string(u8g2, x, y, str);
 788:/Users/imashio/Electronics/ARM/_Library/u8g2_font.c **** }
 789:/Users/imashio/Electronics/ARM/_Library/u8g2_font.c **** 
 790:/Users/imashio/Electronics/ARM/_Library/u8g2_font.c **** /*
 791:/Users/imashio/Electronics/ARM/_Library/u8g2_font.c **** source: https://en.wikipedia.org/wiki/UTF-8
 792:/Users/imashio/Electronics/ARM/_Library/u8g2_font.c **** Bits	from 		to			bytes	Byte 1 		Byte 2 		Byte 3 		Byte 4 		Byte 5 		Byte 6
 793:/Users/imashio/Electronics/ARM/_Library/u8g2_font.c ****   7 	U+0000 		U+007F 		1 		0xxxxxxx
 794:/Users/imashio/Electronics/ARM/_Library/u8g2_font.c **** 11 	U+0080 		U+07FF 		2 		110xxxxx 	10xxxxxx
 795:/Users/imashio/Electronics/ARM/_Library/u8g2_font.c **** 16 	U+0800 		U+FFFF 		3 		1110xxxx 	10xxxxxx 	10xxxxxx
 796:/Users/imashio/Electronics/ARM/_Library/u8g2_font.c **** 21 	U+10000 	U+1FFFFF 	4 		11110xxx 	10xxxxxx 	10xxxxxx 	10xxxxxx
 797:/Users/imashio/Electronics/ARM/_Library/u8g2_font.c **** 26 	U+200000 	U+3FFFFFF 	5 		111110xx 	10xxxxxx 	10xxxxxx 	10xxxxxx 	10xxxxxx
 798:/Users/imashio/Electronics/ARM/_Library/u8g2_font.c **** 31 	U+4000000 	U+7FFFFFFF 	6 		1111110x 	10xxxxxx 	10xxxxxx 	10xxxxxx 	10xxxxxx 	10xxxxxx  
 799:/Users/imashio/Electronics/ARM/_Library/u8g2_font.c **** */
 800:/Users/imashio/Electronics/ARM/_Library/u8g2_font.c **** u8g2_uint_t u8g2_DrawUTF8(u8g2_t *u8g2, u8g2_uint_t x, u8g2_uint_t y, const char *str)
 801:/Users/imashio/Electronics/ARM/_Library/u8g2_font.c **** {
 802:/Users/imashio/Electronics/ARM/_Library/u8g2_font.c ****   u8g2->u8x8.next_cb = u8x8_utf8_next;
 803:/Users/imashio/Electronics/ARM/_Library/u8g2_font.c ****   return u8g2_draw_string(u8g2, x, y, str);
 804:/Users/imashio/Electronics/ARM/_Library/u8g2_font.c **** }
 805:/Users/imashio/Electronics/ARM/_Library/u8g2_font.c **** 
 806:/Users/imashio/Electronics/ARM/_Library/u8g2_font.c **** 
 807:/Users/imashio/Electronics/ARM/_Library/u8g2_font.c **** 
 808:/Users/imashio/Electronics/ARM/_Library/u8g2_font.c **** u8g2_uint_t u8g2_DrawExtendedUTF8(u8g2_t *u8g2, u8g2_uint_t x, u8g2_uint_t y, uint8_t to_left, u8g2
 809:/Users/imashio/Electronics/ARM/_Library/u8g2_font.c **** {
 810:/Users/imashio/Electronics/ARM/_Library/u8g2_font.c ****   u8g2->u8x8.next_cb = u8x8_utf8_next;
 811:/Users/imashio/Electronics/ARM/_Library/u8g2_font.c ****   uint16_t e_prev = 0x0ffff;
 812:/Users/imashio/Electronics/ARM/_Library/u8g2_font.c ****   uint16_t e;
 813:/Users/imashio/Electronics/ARM/_Library/u8g2_font.c ****   u8g2_uint_t delta, sum, k;
 814:/Users/imashio/Electronics/ARM/_Library/u8g2_font.c ****   u8x8_utf8_init(u8g2_GetU8x8(u8g2));
 815:/Users/imashio/Electronics/ARM/_Library/u8g2_font.c ****   sum = 0;
 816:/Users/imashio/Electronics/ARM/_Library/u8g2_font.c ****   for(;;)
 817:/Users/imashio/Electronics/ARM/_Library/u8g2_font.c ****   {
 818:/Users/imashio/Electronics/ARM/_Library/u8g2_font.c ****     e = u8g2->u8x8.next_cb(u8g2_GetU8x8(u8g2), (uint8_t)*str);
 819:/Users/imashio/Electronics/ARM/_Library/u8g2_font.c ****     if ( e == 0x0ffff )
 820:/Users/imashio/Electronics/ARM/_Library/u8g2_font.c ****       break;
 821:/Users/imashio/Electronics/ARM/_Library/u8g2_font.c ****     str++;
 822:/Users/imashio/Electronics/ARM/_Library/u8g2_font.c ****     if ( e != 0x0fffe )
 823:/Users/imashio/Electronics/ARM/_Library/u8g2_font.c ****     {
 824:/Users/imashio/Electronics/ARM/_Library/u8g2_font.c ****       delta = u8g2_GetGlyphWidth(u8g2, e);
 825:/Users/imashio/Electronics/ARM/_Library/u8g2_font.c **** 	    
 826:/Users/imashio/Electronics/ARM/_Library/u8g2_font.c ****       if ( to_left )
 827:/Users/imashio/Electronics/ARM/_Library/u8g2_font.c ****       {
 828:/Users/imashio/Electronics/ARM/_Library/u8g2_font.c ****         k = u8g2_GetKerning(u8g2, kerning, e, e_prev);
 829:/Users/imashio/Electronics/ARM/_Library/u8g2_font.c **** 	delta -= k;
 830:/Users/imashio/Electronics/ARM/_Library/u8g2_font.c **** 	x -= delta;
 831:/Users/imashio/Electronics/ARM/_Library/u8g2_font.c ****       }
 832:/Users/imashio/Electronics/ARM/_Library/u8g2_font.c ****       else
 833:/Users/imashio/Electronics/ARM/_Library/u8g2_font.c ****       {
ARM GAS  /var/folders/v3/wysfpd052nz8jkbx04pk0ym80000gn/T//ccfX3eBQ.s 			page 19


 834:/Users/imashio/Electronics/ARM/_Library/u8g2_font.c ****         k = u8g2_GetKerning(u8g2, kerning, e_prev, e);
 835:/Users/imashio/Electronics/ARM/_Library/u8g2_font.c **** 	delta -= k;
 836:/Users/imashio/Electronics/ARM/_Library/u8g2_font.c ****       }
 837:/Users/imashio/Electronics/ARM/_Library/u8g2_font.c ****       e_prev = e;
 838:/Users/imashio/Electronics/ARM/_Library/u8g2_font.c **** 
 839:/Users/imashio/Electronics/ARM/_Library/u8g2_font.c ****       u8g2_DrawGlyph(u8g2, x, y, e);
 840:/Users/imashio/Electronics/ARM/_Library/u8g2_font.c ****       if ( to_left )
 841:/Users/imashio/Electronics/ARM/_Library/u8g2_font.c ****       {
 842:/Users/imashio/Electronics/ARM/_Library/u8g2_font.c ****       }
 843:/Users/imashio/Electronics/ARM/_Library/u8g2_font.c ****       else
 844:/Users/imashio/Electronics/ARM/_Library/u8g2_font.c ****       {
 845:/Users/imashio/Electronics/ARM/_Library/u8g2_font.c **** 	x += delta;
 846:/Users/imashio/Electronics/ARM/_Library/u8g2_font.c **** 	x -= k;
 847:/Users/imashio/Electronics/ARM/_Library/u8g2_font.c ****       }
 848:/Users/imashio/Electronics/ARM/_Library/u8g2_font.c ****       
 849:/Users/imashio/Electronics/ARM/_Library/u8g2_font.c ****       sum += delta;    
 850:/Users/imashio/Electronics/ARM/_Library/u8g2_font.c ****     }
 851:/Users/imashio/Electronics/ARM/_Library/u8g2_font.c ****   }
 852:/Users/imashio/Electronics/ARM/_Library/u8g2_font.c ****   return sum;
 853:/Users/imashio/Electronics/ARM/_Library/u8g2_font.c **** }
 854:/Users/imashio/Electronics/ARM/_Library/u8g2_font.c **** 
 855:/Users/imashio/Electronics/ARM/_Library/u8g2_font.c **** u8g2_uint_t u8g2_DrawExtUTF8(u8g2_t *u8g2, u8g2_uint_t x, u8g2_uint_t y, uint8_t to_left, const uin
 856:/Users/imashio/Electronics/ARM/_Library/u8g2_font.c **** {
 857:/Users/imashio/Electronics/ARM/_Library/u8g2_font.c ****   u8g2->u8x8.next_cb = u8x8_utf8_next;
 858:/Users/imashio/Electronics/ARM/_Library/u8g2_font.c ****   uint16_t e_prev = 0x0ffff;
 859:/Users/imashio/Electronics/ARM/_Library/u8g2_font.c ****   uint16_t e;
 860:/Users/imashio/Electronics/ARM/_Library/u8g2_font.c ****   u8g2_uint_t delta, sum, k;
 861:/Users/imashio/Electronics/ARM/_Library/u8g2_font.c ****   u8x8_utf8_init(u8g2_GetU8x8(u8g2));
 862:/Users/imashio/Electronics/ARM/_Library/u8g2_font.c ****   sum = 0;
 863:/Users/imashio/Electronics/ARM/_Library/u8g2_font.c ****   for(;;)
 864:/Users/imashio/Electronics/ARM/_Library/u8g2_font.c ****   {
 865:/Users/imashio/Electronics/ARM/_Library/u8g2_font.c ****     e = u8g2->u8x8.next_cb(u8g2_GetU8x8(u8g2), (uint8_t)*str);
 866:/Users/imashio/Electronics/ARM/_Library/u8g2_font.c ****     if ( e == 0x0ffff )
 867:/Users/imashio/Electronics/ARM/_Library/u8g2_font.c ****       break;
 868:/Users/imashio/Electronics/ARM/_Library/u8g2_font.c ****     str++;
 869:/Users/imashio/Electronics/ARM/_Library/u8g2_font.c ****     if ( e != 0x0fffe )
 870:/Users/imashio/Electronics/ARM/_Library/u8g2_font.c ****     {
 871:/Users/imashio/Electronics/ARM/_Library/u8g2_font.c ****       delta = u8g2_GetGlyphWidth(u8g2, e);
 872:/Users/imashio/Electronics/ARM/_Library/u8g2_font.c **** 	    
 873:/Users/imashio/Electronics/ARM/_Library/u8g2_font.c ****       if ( to_left )
 874:/Users/imashio/Electronics/ARM/_Library/u8g2_font.c ****       {
 875:/Users/imashio/Electronics/ARM/_Library/u8g2_font.c ****         k = u8g2_GetKerningByTable(u8g2, kerning_table, e, e_prev);
 876:/Users/imashio/Electronics/ARM/_Library/u8g2_font.c **** 	delta -= k;
 877:/Users/imashio/Electronics/ARM/_Library/u8g2_font.c **** 	x -= delta;
 878:/Users/imashio/Electronics/ARM/_Library/u8g2_font.c ****       }
 879:/Users/imashio/Electronics/ARM/_Library/u8g2_font.c ****       else
 880:/Users/imashio/Electronics/ARM/_Library/u8g2_font.c ****       {
 881:/Users/imashio/Electronics/ARM/_Library/u8g2_font.c ****         k = u8g2_GetKerningByTable(u8g2, kerning_table, e_prev, e);
 882:/Users/imashio/Electronics/ARM/_Library/u8g2_font.c **** 	delta -= k;
 883:/Users/imashio/Electronics/ARM/_Library/u8g2_font.c ****       }
 884:/Users/imashio/Electronics/ARM/_Library/u8g2_font.c ****       e_prev = e;
 885:/Users/imashio/Electronics/ARM/_Library/u8g2_font.c **** 
 886:/Users/imashio/Electronics/ARM/_Library/u8g2_font.c ****       if ( to_left )
 887:/Users/imashio/Electronics/ARM/_Library/u8g2_font.c ****       {
 888:/Users/imashio/Electronics/ARM/_Library/u8g2_font.c ****       }
 889:/Users/imashio/Electronics/ARM/_Library/u8g2_font.c ****       else
 890:/Users/imashio/Electronics/ARM/_Library/u8g2_font.c ****       {
ARM GAS  /var/folders/v3/wysfpd052nz8jkbx04pk0ym80000gn/T//ccfX3eBQ.s 			page 20


 891:/Users/imashio/Electronics/ARM/_Library/u8g2_font.c **** 	x += delta;
 892:/Users/imashio/Electronics/ARM/_Library/u8g2_font.c ****       }
 893:/Users/imashio/Electronics/ARM/_Library/u8g2_font.c ****       u8g2_DrawGlyph(u8g2, x, y, e);
 894:/Users/imashio/Electronics/ARM/_Library/u8g2_font.c ****       if ( to_left )
 895:/Users/imashio/Electronics/ARM/_Library/u8g2_font.c ****       {
 896:/Users/imashio/Electronics/ARM/_Library/u8g2_font.c ****       }
 897:/Users/imashio/Electronics/ARM/_Library/u8g2_font.c ****       else
 898:/Users/imashio/Electronics/ARM/_Library/u8g2_font.c ****       {
 899:/Users/imashio/Electronics/ARM/_Library/u8g2_font.c **** 	//x += delta;
 900:/Users/imashio/Electronics/ARM/_Library/u8g2_font.c **** 	//x -= k;
 901:/Users/imashio/Electronics/ARM/_Library/u8g2_font.c ****       }
 902:/Users/imashio/Electronics/ARM/_Library/u8g2_font.c ****       
 903:/Users/imashio/Electronics/ARM/_Library/u8g2_font.c ****       sum += delta;    
 904:/Users/imashio/Electronics/ARM/_Library/u8g2_font.c ****     }
 905:/Users/imashio/Electronics/ARM/_Library/u8g2_font.c ****   }
 906:/Users/imashio/Electronics/ARM/_Library/u8g2_font.c ****   return sum;
 907:/Users/imashio/Electronics/ARM/_Library/u8g2_font.c **** }
 908:/Users/imashio/Electronics/ARM/_Library/u8g2_font.c **** 
 909:/Users/imashio/Electronics/ARM/_Library/u8g2_font.c **** 
 910:/Users/imashio/Electronics/ARM/_Library/u8g2_font.c **** 
 911:/Users/imashio/Electronics/ARM/_Library/u8g2_font.c **** /*===============================================*/
 912:/Users/imashio/Electronics/ARM/_Library/u8g2_font.c **** 
 913:/Users/imashio/Electronics/ARM/_Library/u8g2_font.c **** /* set ascent/descent for reference point calculation */
 914:/Users/imashio/Electronics/ARM/_Library/u8g2_font.c **** 
 915:/Users/imashio/Electronics/ARM/_Library/u8g2_font.c **** void u8g2_UpdateRefHeight(u8g2_t *u8g2)
 916:/Users/imashio/Electronics/ARM/_Library/u8g2_font.c **** {
 917:/Users/imashio/Electronics/ARM/_Library/u8g2_font.c ****   if ( u8g2->font == NULL )
 918:/Users/imashio/Electronics/ARM/_Library/u8g2_font.c ****     return;
 919:/Users/imashio/Electronics/ARM/_Library/u8g2_font.c ****   u8g2->font_ref_ascent = u8g2->font_info.ascent_A;
 920:/Users/imashio/Electronics/ARM/_Library/u8g2_font.c ****   u8g2->font_ref_descent = u8g2->font_info.descent_g;
 921:/Users/imashio/Electronics/ARM/_Library/u8g2_font.c ****   if ( u8g2->font_height_mode == U8G2_FONT_HEIGHT_MODE_TEXT )
 922:/Users/imashio/Electronics/ARM/_Library/u8g2_font.c ****   {
 923:/Users/imashio/Electronics/ARM/_Library/u8g2_font.c ****   }
 924:/Users/imashio/Electronics/ARM/_Library/u8g2_font.c ****   else if ( u8g2->font_height_mode == U8G2_FONT_HEIGHT_MODE_XTEXT )
 925:/Users/imashio/Electronics/ARM/_Library/u8g2_font.c ****   {
 926:/Users/imashio/Electronics/ARM/_Library/u8g2_font.c ****     if ( u8g2->font_ref_ascent < u8g2->font_info.ascent_para )
 927:/Users/imashio/Electronics/ARM/_Library/u8g2_font.c ****       u8g2->font_ref_ascent = u8g2->font_info.ascent_para;
 928:/Users/imashio/Electronics/ARM/_Library/u8g2_font.c ****     if ( u8g2->font_ref_descent > u8g2->font_info.descent_para )
 929:/Users/imashio/Electronics/ARM/_Library/u8g2_font.c ****       u8g2->font_ref_descent = u8g2->font_info.descent_para;
 930:/Users/imashio/Electronics/ARM/_Library/u8g2_font.c ****   }
 931:/Users/imashio/Electronics/ARM/_Library/u8g2_font.c ****   else
 932:/Users/imashio/Electronics/ARM/_Library/u8g2_font.c ****   {
 933:/Users/imashio/Electronics/ARM/_Library/u8g2_font.c ****     if ( u8g2->font_ref_ascent < u8g2->font_info.max_char_height+u8g2->font_info.y_offset )
 934:/Users/imashio/Electronics/ARM/_Library/u8g2_font.c ****       u8g2->font_ref_ascent = u8g2->font_info.max_char_height+u8g2->font_info.y_offset;
 935:/Users/imashio/Electronics/ARM/_Library/u8g2_font.c ****     if ( u8g2->font_ref_descent > u8g2->font_info.y_offset )
 936:/Users/imashio/Electronics/ARM/_Library/u8g2_font.c ****       u8g2->font_ref_descent = u8g2->font_info.y_offset;
 937:/Users/imashio/Electronics/ARM/_Library/u8g2_font.c ****   }  
 938:/Users/imashio/Electronics/ARM/_Library/u8g2_font.c **** }
 939:/Users/imashio/Electronics/ARM/_Library/u8g2_font.c **** 
 940:/Users/imashio/Electronics/ARM/_Library/u8g2_font.c **** void u8g2_SetFontRefHeightText(u8g2_t *u8g2)
 941:/Users/imashio/Electronics/ARM/_Library/u8g2_font.c **** {
 942:/Users/imashio/Electronics/ARM/_Library/u8g2_font.c ****   u8g2->font_height_mode = U8G2_FONT_HEIGHT_MODE_TEXT;
 943:/Users/imashio/Electronics/ARM/_Library/u8g2_font.c ****   u8g2_UpdateRefHeight(u8g2);
 944:/Users/imashio/Electronics/ARM/_Library/u8g2_font.c **** }
 945:/Users/imashio/Electronics/ARM/_Library/u8g2_font.c **** 
 946:/Users/imashio/Electronics/ARM/_Library/u8g2_font.c **** void u8g2_SetFontRefHeightExtendedText(u8g2_t *u8g2)
 947:/Users/imashio/Electronics/ARM/_Library/u8g2_font.c **** {
ARM GAS  /var/folders/v3/wysfpd052nz8jkbx04pk0ym80000gn/T//ccfX3eBQ.s 			page 21


 948:/Users/imashio/Electronics/ARM/_Library/u8g2_font.c ****   u8g2->font_height_mode = U8G2_FONT_HEIGHT_MODE_XTEXT;
 949:/Users/imashio/Electronics/ARM/_Library/u8g2_font.c ****   u8g2_UpdateRefHeight(u8g2);
 950:/Users/imashio/Electronics/ARM/_Library/u8g2_font.c **** }
 951:/Users/imashio/Electronics/ARM/_Library/u8g2_font.c **** 
 952:/Users/imashio/Electronics/ARM/_Library/u8g2_font.c **** void u8g2_SetFontRefHeightAll(u8g2_t *u8g2)
 953:/Users/imashio/Electronics/ARM/_Library/u8g2_font.c **** {
 954:/Users/imashio/Electronics/ARM/_Library/u8g2_font.c ****   u8g2->font_height_mode = U8G2_FONT_HEIGHT_MODE_ALL;
 955:/Users/imashio/Electronics/ARM/_Library/u8g2_font.c ****   u8g2_UpdateRefHeight(u8g2);
 956:/Users/imashio/Electronics/ARM/_Library/u8g2_font.c **** }
 957:/Users/imashio/Electronics/ARM/_Library/u8g2_font.c **** 
 958:/Users/imashio/Electronics/ARM/_Library/u8g2_font.c **** /*===============================================*/
 959:/Users/imashio/Electronics/ARM/_Library/u8g2_font.c **** /* callback procedures to correct the y position */
 960:/Users/imashio/Electronics/ARM/_Library/u8g2_font.c **** 
 961:/Users/imashio/Electronics/ARM/_Library/u8g2_font.c **** u8g2_uint_t u8g2_font_calc_vref_font(U8X8_UNUSED u8g2_t *u8g2)
 962:/Users/imashio/Electronics/ARM/_Library/u8g2_font.c **** {
 191              		.loc 1 962 0
 192              		.cfi_startproc
 193              		@ args = 0, pretend = 0, frame = 0
 194              		@ frame_needed = 0, uses_anonymous_args = 0
 195              		@ link register save eliminated.
 196              	.LVL24:
 963:/Users/imashio/Electronics/ARM/_Library/u8g2_font.c ****   return 0;
 964:/Users/imashio/Electronics/ARM/_Library/u8g2_font.c **** }
 197              		.loc 1 964 0
 198 0000 0020     		movs	r0, #0
 199              	.LVL25:
 200 0002 7047     		bx	lr
 201              		.cfi_endproc
 202              	.LFE31:
 204              		.section	.text.u8g2_font_calc_vref_bottom,"ax",%progbits
 205              		.align	1
 206              		.global	u8g2_font_calc_vref_bottom
 207              		.syntax unified
 208              		.thumb
 209              		.thumb_func
 210              		.fpu fpv4-sp-d16
 212              	u8g2_font_calc_vref_bottom:
 213              	.LFB33:
 965:/Users/imashio/Electronics/ARM/_Library/u8g2_font.c **** 
 966:/Users/imashio/Electronics/ARM/_Library/u8g2_font.c **** void u8g2_SetFontPosBaseline(u8g2_t *u8g2)
 967:/Users/imashio/Electronics/ARM/_Library/u8g2_font.c **** {
 968:/Users/imashio/Electronics/ARM/_Library/u8g2_font.c ****   u8g2->font_calc_vref = u8g2_font_calc_vref_font;
 969:/Users/imashio/Electronics/ARM/_Library/u8g2_font.c **** }
 970:/Users/imashio/Electronics/ARM/_Library/u8g2_font.c **** 
 971:/Users/imashio/Electronics/ARM/_Library/u8g2_font.c **** 
 972:/Users/imashio/Electronics/ARM/_Library/u8g2_font.c **** u8g2_uint_t u8g2_font_calc_vref_bottom(u8g2_t *u8g2)
 973:/Users/imashio/Electronics/ARM/_Library/u8g2_font.c **** {
 214              		.loc 1 973 0
 215              		.cfi_startproc
 216              		@ args = 0, pretend = 0, frame = 0
 217              		@ frame_needed = 0, uses_anonymous_args = 0
 218              		@ link register save eliminated.
 219              	.LVL26:
 974:/Users/imashio/Electronics/ARM/_Library/u8g2_font.c ****   return (u8g2_uint_t)(u8g2->font_ref_descent);
 220              		.loc 1 974 0
 221 0000 90F97A00 		ldrsb	r0, [r0, #122]
 222              	.LVL27:
ARM GAS  /var/folders/v3/wysfpd052nz8jkbx04pk0ym80000gn/T//ccfX3eBQ.s 			page 22


 975:/Users/imashio/Electronics/ARM/_Library/u8g2_font.c **** }
 223              		.loc 1 975 0
 224 0004 C0B2     		uxtb	r0, r0
 225 0006 7047     		bx	lr
 226              		.cfi_endproc
 227              	.LFE33:
 229              		.section	.text.u8g2_font_calc_vref_top,"ax",%progbits
 230              		.align	1
 231              		.global	u8g2_font_calc_vref_top
 232              		.syntax unified
 233              		.thumb
 234              		.thumb_func
 235              		.fpu fpv4-sp-d16
 237              	u8g2_font_calc_vref_top:
 238              	.LFB35:
 976:/Users/imashio/Electronics/ARM/_Library/u8g2_font.c **** 
 977:/Users/imashio/Electronics/ARM/_Library/u8g2_font.c **** void u8g2_SetFontPosBottom(u8g2_t *u8g2)
 978:/Users/imashio/Electronics/ARM/_Library/u8g2_font.c **** {
 979:/Users/imashio/Electronics/ARM/_Library/u8g2_font.c ****   u8g2->font_calc_vref = u8g2_font_calc_vref_bottom;
 980:/Users/imashio/Electronics/ARM/_Library/u8g2_font.c **** }
 981:/Users/imashio/Electronics/ARM/_Library/u8g2_font.c **** 
 982:/Users/imashio/Electronics/ARM/_Library/u8g2_font.c **** u8g2_uint_t u8g2_font_calc_vref_top(u8g2_t *u8g2)
 983:/Users/imashio/Electronics/ARM/_Library/u8g2_font.c **** {
 239              		.loc 1 983 0
 240              		.cfi_startproc
 241              		@ args = 0, pretend = 0, frame = 0
 242              		@ frame_needed = 0, uses_anonymous_args = 0
 243              		@ link register save eliminated.
 244              	.LVL28:
 984:/Users/imashio/Electronics/ARM/_Library/u8g2_font.c ****   u8g2_uint_t tmp;
 985:/Users/imashio/Electronics/ARM/_Library/u8g2_font.c ****   /* reference pos is one pixel above the upper edge of the reference glyph */
 986:/Users/imashio/Electronics/ARM/_Library/u8g2_font.c ****   tmp = (u8g2_uint_t)(u8g2->font_ref_ascent);
 245              		.loc 1 986 0
 246 0000 90F97900 		ldrsb	r0, [r0, #121]
 247              	.LVL29:
 248 0004 C0B2     		uxtb	r0, r0
 249              	.LVL30:
 987:/Users/imashio/Electronics/ARM/_Library/u8g2_font.c ****   tmp++;
 250              		.loc 1 987 0
 251 0006 0130     		adds	r0, r0, #1
 252              	.LVL31:
 988:/Users/imashio/Electronics/ARM/_Library/u8g2_font.c ****   return tmp;
 989:/Users/imashio/Electronics/ARM/_Library/u8g2_font.c **** }
 253              		.loc 1 989 0
 254 0008 C0B2     		uxtb	r0, r0
 255 000a 7047     		bx	lr
 256              		.cfi_endproc
 257              	.LFE35:
 259              		.section	.text.u8g2_font_calc_vref_center,"ax",%progbits
 260              		.align	1
 261              		.global	u8g2_font_calc_vref_center
 262              		.syntax unified
 263              		.thumb
 264              		.thumb_func
 265              		.fpu fpv4-sp-d16
 267              	u8g2_font_calc_vref_center:
 268              	.LFB37:
ARM GAS  /var/folders/v3/wysfpd052nz8jkbx04pk0ym80000gn/T//ccfX3eBQ.s 			page 23


 990:/Users/imashio/Electronics/ARM/_Library/u8g2_font.c **** 
 991:/Users/imashio/Electronics/ARM/_Library/u8g2_font.c **** void u8g2_SetFontPosTop(u8g2_t *u8g2)
 992:/Users/imashio/Electronics/ARM/_Library/u8g2_font.c **** {
 993:/Users/imashio/Electronics/ARM/_Library/u8g2_font.c ****   u8g2->font_calc_vref = u8g2_font_calc_vref_top;
 994:/Users/imashio/Electronics/ARM/_Library/u8g2_font.c **** }
 995:/Users/imashio/Electronics/ARM/_Library/u8g2_font.c **** 
 996:/Users/imashio/Electronics/ARM/_Library/u8g2_font.c **** u8g2_uint_t u8g2_font_calc_vref_center(u8g2_t *u8g2)
 997:/Users/imashio/Electronics/ARM/_Library/u8g2_font.c **** {
 269              		.loc 1 997 0
 270              		.cfi_startproc
 271              		@ args = 0, pretend = 0, frame = 0
 272              		@ frame_needed = 0, uses_anonymous_args = 0
 273              		@ link register save eliminated.
 274              	.LVL32:
 998:/Users/imashio/Electronics/ARM/_Library/u8g2_font.c ****   int8_t tmp;
 999:/Users/imashio/Electronics/ARM/_Library/u8g2_font.c ****   tmp = u8g2->font_ref_ascent;
 275              		.loc 1 999 0
 276 0000 90F97930 		ldrsb	r3, [r0, #121]
 277              	.LVL33:
1000:/Users/imashio/Electronics/ARM/_Library/u8g2_font.c ****   tmp -= u8g2->font_ref_descent;
 278              		.loc 1 1000 0
 279 0004 90F87A20 		ldrb	r2, [r0, #122]	@ zero_extendqisi2
 280 0008 981A     		subs	r0, r3, r2
 281              	.LVL34:
 282 000a 40B2     		sxtb	r0, r0
 283              	.LVL35:
1001:/Users/imashio/Electronics/ARM/_Library/u8g2_font.c ****   tmp /= 2;
 284              		.loc 1 1001 0
 285 000c 00EBD070 		add	r0, r0, r0, lsr #31
 286              	.LVL36:
1002:/Users/imashio/Electronics/ARM/_Library/u8g2_font.c ****   tmp += u8g2->font_ref_descent;  
 287              		.loc 1 1002 0
 288 0010 02EB6000 		add	r0, r2, r0, asr #1
 289              	.LVL37:
1003:/Users/imashio/Electronics/ARM/_Library/u8g2_font.c ****   return tmp;
1004:/Users/imashio/Electronics/ARM/_Library/u8g2_font.c **** }
 290              		.loc 1 1004 0
 291 0014 C0B2     		uxtb	r0, r0
 292 0016 7047     		bx	lr
 293              		.cfi_endproc
 294              	.LFE37:
 296              		.section	.text.u8g2_read_font_info,"ax",%progbits
 297              		.align	1
 298              		.global	u8g2_read_font_info
 299              		.syntax unified
 300              		.thumb
 301              		.thumb_func
 302              		.fpu fpv4-sp-d16
 304              	u8g2_read_font_info:
 305              	.LFB2:
 132:/Users/imashio/Electronics/ARM/_Library/u8g2_font.c ****   /* offset 0 */
 306              		.loc 1 132 0
 307              		.cfi_startproc
 308              		@ args = 0, pretend = 0, frame = 0
 309              		@ frame_needed = 0, uses_anonymous_args = 0
 310              	.LVL38:
 311 0000 38B5     		push	{r3, r4, r5, lr}
ARM GAS  /var/folders/v3/wysfpd052nz8jkbx04pk0ym80000gn/T//ccfX3eBQ.s 			page 24


 312              	.LCFI0:
 313              		.cfi_def_cfa_offset 16
 314              		.cfi_offset 3, -16
 315              		.cfi_offset 4, -12
 316              		.cfi_offset 5, -8
 317              		.cfi_offset 14, -4
 318 0002 0446     		mov	r4, r0
 319 0004 0D46     		mov	r5, r1
 134:/Users/imashio/Electronics/ARM/_Library/u8g2_font.c ****   font_info->bbx_mode = u8g2_font_get_byte(font, 1);
 320              		.loc 1 134 0
 321 0006 0021     		movs	r1, #0
 322              	.LVL39:
 323 0008 2846     		mov	r0, r5
 324              	.LVL40:
 325 000a FFF7FEFF 		bl	u8g2_font_get_byte
 326              	.LVL41:
 327 000e 2070     		strb	r0, [r4]
 135:/Users/imashio/Electronics/ARM/_Library/u8g2_font.c ****   font_info->bits_per_0 = u8g2_font_get_byte(font, 2);
 328              		.loc 1 135 0
 329 0010 0121     		movs	r1, #1
 330 0012 2846     		mov	r0, r5
 331 0014 FFF7FEFF 		bl	u8g2_font_get_byte
 332              	.LVL42:
 333 0018 6070     		strb	r0, [r4, #1]
 136:/Users/imashio/Electronics/ARM/_Library/u8g2_font.c ****   font_info->bits_per_1 = u8g2_font_get_byte(font, 3);
 334              		.loc 1 136 0
 335 001a 0221     		movs	r1, #2
 336 001c 2846     		mov	r0, r5
 337 001e FFF7FEFF 		bl	u8g2_font_get_byte
 338              	.LVL43:
 339 0022 A070     		strb	r0, [r4, #2]
 137:/Users/imashio/Electronics/ARM/_Library/u8g2_font.c ****   
 340              		.loc 1 137 0
 341 0024 0321     		movs	r1, #3
 342 0026 2846     		mov	r0, r5
 343 0028 FFF7FEFF 		bl	u8g2_font_get_byte
 344              	.LVL44:
 345 002c E070     		strb	r0, [r4, #3]
 140:/Users/imashio/Electronics/ARM/_Library/u8g2_font.c ****   font_info->bits_per_char_height = u8g2_font_get_byte(font, 5);
 346              		.loc 1 140 0
 347 002e 0421     		movs	r1, #4
 348 0030 2846     		mov	r0, r5
 349 0032 FFF7FEFF 		bl	u8g2_font_get_byte
 350              	.LVL45:
 351 0036 2071     		strb	r0, [r4, #4]
 141:/Users/imashio/Electronics/ARM/_Library/u8g2_font.c ****   font_info->bits_per_char_x = u8g2_font_get_byte(font, 6);
 352              		.loc 1 141 0
 353 0038 0521     		movs	r1, #5
 354 003a 2846     		mov	r0, r5
 355 003c FFF7FEFF 		bl	u8g2_font_get_byte
 356              	.LVL46:
 357 0040 6071     		strb	r0, [r4, #5]
 142:/Users/imashio/Electronics/ARM/_Library/u8g2_font.c ****   font_info->bits_per_char_y = u8g2_font_get_byte(font, 7);
 358              		.loc 1 142 0
 359 0042 0621     		movs	r1, #6
 360 0044 2846     		mov	r0, r5
 361 0046 FFF7FEFF 		bl	u8g2_font_get_byte
ARM GAS  /var/folders/v3/wysfpd052nz8jkbx04pk0ym80000gn/T//ccfX3eBQ.s 			page 25


 362              	.LVL47:
 363 004a A071     		strb	r0, [r4, #6]
 143:/Users/imashio/Electronics/ARM/_Library/u8g2_font.c ****   font_info->bits_per_delta_x = u8g2_font_get_byte(font, 8);
 364              		.loc 1 143 0
 365 004c 0721     		movs	r1, #7
 366 004e 2846     		mov	r0, r5
 367 0050 FFF7FEFF 		bl	u8g2_font_get_byte
 368              	.LVL48:
 369 0054 E071     		strb	r0, [r4, #7]
 144:/Users/imashio/Electronics/ARM/_Library/u8g2_font.c ****   
 370              		.loc 1 144 0
 371 0056 0821     		movs	r1, #8
 372 0058 2846     		mov	r0, r5
 373 005a FFF7FEFF 		bl	u8g2_font_get_byte
 374              	.LVL49:
 375 005e 2072     		strb	r0, [r4, #8]
 147:/Users/imashio/Electronics/ARM/_Library/u8g2_font.c ****   font_info->max_char_height = u8g2_font_get_byte(font, 10);
 376              		.loc 1 147 0
 377 0060 0921     		movs	r1, #9
 378 0062 2846     		mov	r0, r5
 379 0064 FFF7FEFF 		bl	u8g2_font_get_byte
 380              	.LVL50:
 381 0068 6072     		strb	r0, [r4, #9]
 148:/Users/imashio/Electronics/ARM/_Library/u8g2_font.c ****   font_info->x_offset = u8g2_font_get_byte(font, 11);
 382              		.loc 1 148 0
 383 006a 0A21     		movs	r1, #10
 384 006c 2846     		mov	r0, r5
 385 006e FFF7FEFF 		bl	u8g2_font_get_byte
 386              	.LVL51:
 387 0072 A072     		strb	r0, [r4, #10]
 149:/Users/imashio/Electronics/ARM/_Library/u8g2_font.c ****   font_info->y_offset = u8g2_font_get_byte(font, 12);
 388              		.loc 1 149 0
 389 0074 0B21     		movs	r1, #11
 390 0076 2846     		mov	r0, r5
 391 0078 FFF7FEFF 		bl	u8g2_font_get_byte
 392              	.LVL52:
 393 007c E072     		strb	r0, [r4, #11]
 150:/Users/imashio/Electronics/ARM/_Library/u8g2_font.c ****   
 394              		.loc 1 150 0
 395 007e 0C21     		movs	r1, #12
 396 0080 2846     		mov	r0, r5
 397 0082 FFF7FEFF 		bl	u8g2_font_get_byte
 398              	.LVL53:
 399 0086 2073     		strb	r0, [r4, #12]
 153:/Users/imashio/Electronics/ARM/_Library/u8g2_font.c ****   font_info->descent_g = u8g2_font_get_byte(font, 14);
 400              		.loc 1 153 0
 401 0088 0D21     		movs	r1, #13
 402 008a 2846     		mov	r0, r5
 403 008c FFF7FEFF 		bl	u8g2_font_get_byte
 404              	.LVL54:
 405 0090 6073     		strb	r0, [r4, #13]
 154:/Users/imashio/Electronics/ARM/_Library/u8g2_font.c ****   font_info->ascent_para = u8g2_font_get_byte(font, 15);
 406              		.loc 1 154 0
 407 0092 0E21     		movs	r1, #14
 408 0094 2846     		mov	r0, r5
 409 0096 FFF7FEFF 		bl	u8g2_font_get_byte
 410              	.LVL55:
ARM GAS  /var/folders/v3/wysfpd052nz8jkbx04pk0ym80000gn/T//ccfX3eBQ.s 			page 26


 411 009a A073     		strb	r0, [r4, #14]
 155:/Users/imashio/Electronics/ARM/_Library/u8g2_font.c ****   font_info->descent_para = u8g2_font_get_byte(font, 16);
 412              		.loc 1 155 0
 413 009c 0F21     		movs	r1, #15
 414 009e 2846     		mov	r0, r5
 415 00a0 FFF7FEFF 		bl	u8g2_font_get_byte
 416              	.LVL56:
 417 00a4 E073     		strb	r0, [r4, #15]
 156:/Users/imashio/Electronics/ARM/_Library/u8g2_font.c ****   
 418              		.loc 1 156 0
 419 00a6 1021     		movs	r1, #16
 420 00a8 2846     		mov	r0, r5
 421 00aa FFF7FEFF 		bl	u8g2_font_get_byte
 422              	.LVL57:
 423 00ae 2074     		strb	r0, [r4, #16]
 159:/Users/imashio/Electronics/ARM/_Library/u8g2_font.c ****   font_info->start_pos_lower_a = u8g2_font_get_word(font, 19); 
 424              		.loc 1 159 0
 425 00b0 1121     		movs	r1, #17
 426 00b2 2846     		mov	r0, r5
 427 00b4 FFF7FEFF 		bl	u8g2_font_get_word
 428              	.LVL58:
 429 00b8 6082     		strh	r0, [r4, #18]	@ movhi
 160:/Users/imashio/Electronics/ARM/_Library/u8g2_font.c ****   
 430              		.loc 1 160 0
 431 00ba 1321     		movs	r1, #19
 432 00bc 2846     		mov	r0, r5
 433 00be FFF7FEFF 		bl	u8g2_font_get_word
 434              	.LVL59:
 435 00c2 A082     		strh	r0, [r4, #20]	@ movhi
 164:/Users/imashio/Electronics/ARM/_Library/u8g2_font.c **** #endif
 436              		.loc 1 164 0
 437 00c4 1521     		movs	r1, #21
 438 00c6 2846     		mov	r0, r5
 439 00c8 FFF7FEFF 		bl	u8g2_font_get_word
 440              	.LVL60:
 441 00cc E082     		strh	r0, [r4, #22]	@ movhi
 166:/Users/imashio/Electronics/ARM/_Library/u8g2_font.c **** 
 442              		.loc 1 166 0
 443 00ce 38BD     		pop	{r3, r4, r5, pc}
 444              		.cfi_endproc
 445              	.LFE2:
 447              		.section	.text.u8g2_GetFontSize,"ax",%progbits
 448              		.align	1
 449              		.global	u8g2_GetFontSize
 450              		.syntax unified
 451              		.thumb
 452              		.thumb_func
 453              		.fpu fpv4-sp-d16
 455              	u8g2_GetFontSize:
 456              	.LFB3:
 171:/Users/imashio/Electronics/ARM/_Library/u8g2_font.c ****   uint16_t e;
 457              		.loc 1 171 0
 458              		.cfi_startproc
 459              		@ args = 0, pretend = 0, frame = 0
 460              		@ frame_needed = 0, uses_anonymous_args = 0
 461              		@ link register save eliminated.
 462              	.LVL61:
ARM GAS  /var/folders/v3/wysfpd052nz8jkbx04pk0ym80000gn/T//ccfX3eBQ.s 			page 27


 174:/Users/imashio/Electronics/ARM/_Library/u8g2_font.c ****   
 463              		.loc 1 174 0
 464 0000 00F11703 		add	r3, r0, #23
 465              	.LVL62:
 466              	.L25:
 178:/Users/imashio/Electronics/ARM/_Library/u8g2_font.c ****       break;
 467              		.loc 1 178 0
 468 0004 5A78     		ldrb	r2, [r3, #1]	@ zero_extendqisi2
 469 0006 0AB1     		cbz	r2, .L24
 180:/Users/imashio/Electronics/ARM/_Library/u8g2_font.c ****   }
 470              		.loc 1 180 0
 471 0008 1344     		add	r3, r3, r2
 472              	.LVL63:
 178:/Users/imashio/Electronics/ARM/_Library/u8g2_font.c ****       break;
 473              		.loc 1 178 0
 474 000a FBE7     		b	.L25
 475              	.L24:
 184:/Users/imashio/Electronics/ARM/_Library/u8g2_font.c ****   
 476              		.loc 1 184 0
 477 000c 0233     		adds	r3, r3, #2
 478              	.LVL64:
 479              	.L27:
 188:/Users/imashio/Electronics/ARM/_Library/u8g2_font.c ****     e <<= 8;
 480              		.loc 1 188 0
 481 000e 1978     		ldrb	r1, [r3]	@ zero_extendqisi2
 482              	.LVL65:
 190:/Users/imashio/Electronics/ARM/_Library/u8g2_font.c ****     if ( e == 0 )
 483              		.loc 1 190 0
 484 0010 5A78     		ldrb	r2, [r3, #1]	@ zero_extendqisi2
 485              	.LVL66:
 191:/Users/imashio/Electronics/ARM/_Library/u8g2_font.c ****       break;
 486              		.loc 1 191 0
 487 0012 52EA0122 		orrs	r2, r2, r1, lsl #8
 488              	.LVL67:
 489 0016 02D0     		beq	.L26
 193:/Users/imashio/Electronics/ARM/_Library/u8g2_font.c ****   }
 490              		.loc 1 193 0
 491 0018 9A78     		ldrb	r2, [r3, #2]	@ zero_extendqisi2
 492 001a 1344     		add	r3, r3, r2
 493              	.LVL68:
 188:/Users/imashio/Electronics/ARM/_Library/u8g2_font.c ****     e <<= 8;
 494              		.loc 1 188 0
 495 001c F7E7     		b	.L27
 496              	.LVL69:
 497              	.L26:
 196:/Users/imashio/Electronics/ARM/_Library/u8g2_font.c **** }
 498              		.loc 1 196 0
 499 001e 181A     		subs	r0, r3, r0
 500              	.LVL70:
 197:/Users/imashio/Electronics/ARM/_Library/u8g2_font.c **** 
 501              		.loc 1 197 0
 502 0020 0230     		adds	r0, r0, #2
 503 0022 7047     		bx	lr
 504              		.cfi_endproc
 505              	.LFE3:
 507              		.section	.text.u8g2_GetFontBBXWidth,"ax",%progbits
 508              		.align	1
ARM GAS  /var/folders/v3/wysfpd052nz8jkbx04pk0ym80000gn/T//ccfX3eBQ.s 			page 28


 509              		.global	u8g2_GetFontBBXWidth
 510              		.syntax unified
 511              		.thumb
 512              		.thumb_func
 513              		.fpu fpv4-sp-d16
 515              	u8g2_GetFontBBXWidth:
 516              	.LFB4:
 203:/Users/imashio/Electronics/ARM/_Library/u8g2_font.c ****   return u8g2->font_info.max_char_width;		/* new font info structure */
 517              		.loc 1 203 0
 518              		.cfi_startproc
 519              		@ args = 0, pretend = 0, frame = 0
 520              		@ frame_needed = 0, uses_anonymous_args = 0
 521              		@ link register save eliminated.
 522              	.LVL71:
 205:/Users/imashio/Electronics/ARM/_Library/u8g2_font.c **** 
 523              		.loc 1 205 0
 524 0000 90F86900 		ldrb	r0, [r0, #105]	@ zero_extendqisi2
 525              	.LVL72:
 526 0004 7047     		bx	lr
 527              		.cfi_endproc
 528              	.LFE4:
 530              		.section	.text.u8g2_GetFontBBXHeight,"ax",%progbits
 531              		.align	1
 532              		.global	u8g2_GetFontBBXHeight
 533              		.syntax unified
 534              		.thumb
 535              		.thumb_func
 536              		.fpu fpv4-sp-d16
 538              	u8g2_GetFontBBXHeight:
 539              	.LFB5:
 208:/Users/imashio/Electronics/ARM/_Library/u8g2_font.c ****   return u8g2->font_info.max_char_height;		/* new font info structure */
 540              		.loc 1 208 0
 541              		.cfi_startproc
 542              		@ args = 0, pretend = 0, frame = 0
 543              		@ frame_needed = 0, uses_anonymous_args = 0
 544              		@ link register save eliminated.
 545              	.LVL73:
 210:/Users/imashio/Electronics/ARM/_Library/u8g2_font.c **** 
 546              		.loc 1 210 0
 547 0000 90F86A00 		ldrb	r0, [r0, #106]	@ zero_extendqisi2
 548              	.LVL74:
 549 0004 7047     		bx	lr
 550              		.cfi_endproc
 551              	.LFE5:
 553              		.section	.text.u8g2_GetFontBBXOffX,"ax",%progbits
 554              		.align	1
 555              		.global	u8g2_GetFontBBXOffX
 556              		.syntax unified
 557              		.thumb
 558              		.thumb_func
 559              		.fpu fpv4-sp-d16
 561              	u8g2_GetFontBBXOffX:
 562              	.LFB6:
 214:/Users/imashio/Electronics/ARM/_Library/u8g2_font.c ****   return u8g2->font_info.x_offset;		/* new font info structure */
 563              		.loc 1 214 0
 564              		.cfi_startproc
 565              		@ args = 0, pretend = 0, frame = 0
ARM GAS  /var/folders/v3/wysfpd052nz8jkbx04pk0ym80000gn/T//ccfX3eBQ.s 			page 29


 566              		@ frame_needed = 0, uses_anonymous_args = 0
 567              		@ link register save eliminated.
 568              	.LVL75:
 216:/Users/imashio/Electronics/ARM/_Library/u8g2_font.c **** 
 569              		.loc 1 216 0
 570 0000 90F96B00 		ldrsb	r0, [r0, #107]
 571              	.LVL76:
 572 0004 7047     		bx	lr
 573              		.cfi_endproc
 574              	.LFE6:
 576              		.section	.text.u8g2_GetFontBBXOffY,"ax",%progbits
 577              		.align	1
 578              		.global	u8g2_GetFontBBXOffY
 579              		.syntax unified
 580              		.thumb
 581              		.thumb_func
 582              		.fpu fpv4-sp-d16
 584              	u8g2_GetFontBBXOffY:
 585              	.LFB7:
 220:/Users/imashio/Electronics/ARM/_Library/u8g2_font.c ****   return u8g2->font_info.y_offset;		/* new font info structure */
 586              		.loc 1 220 0
 587              		.cfi_startproc
 588              		@ args = 0, pretend = 0, frame = 0
 589              		@ frame_needed = 0, uses_anonymous_args = 0
 590              		@ link register save eliminated.
 591              	.LVL77:
 222:/Users/imashio/Electronics/ARM/_Library/u8g2_font.c **** 
 592              		.loc 1 222 0
 593 0000 90F96C00 		ldrsb	r0, [r0, #108]
 594              	.LVL78:
 595 0004 7047     		bx	lr
 596              		.cfi_endproc
 597              	.LFE7:
 599              		.section	.text.u8g2_GetFontCapitalAHeight,"ax",%progbits
 600              		.align	1
 601              		.global	u8g2_GetFontCapitalAHeight
 602              		.syntax unified
 603              		.thumb
 604              		.thumb_func
 605              		.fpu fpv4-sp-d16
 607              	u8g2_GetFontCapitalAHeight:
 608              	.LFB8:
 226:/Users/imashio/Electronics/ARM/_Library/u8g2_font.c ****   return u8g2->font_info.ascent_A;		/* new font info structure */
 609              		.loc 1 226 0
 610              		.cfi_startproc
 611              		@ args = 0, pretend = 0, frame = 0
 612              		@ frame_needed = 0, uses_anonymous_args = 0
 613              		@ link register save eliminated.
 614              	.LVL79:
 228:/Users/imashio/Electronics/ARM/_Library/u8g2_font.c **** 
 615              		.loc 1 228 0
 616 0000 90F86D00 		ldrb	r0, [r0, #109]	@ zero_extendqisi2
 617              	.LVL80:
 618 0004 7047     		bx	lr
 619              		.cfi_endproc
 620              	.LFE8:
 622              		.section	.text.u8g2_font_decode_get_unsigned_bits,"ax",%progbits
ARM GAS  /var/folders/v3/wysfpd052nz8jkbx04pk0ym80000gn/T//ccfX3eBQ.s 			page 30


 623              		.align	1
 624              		.global	u8g2_font_decode_get_unsigned_bits
 625              		.syntax unified
 626              		.thumb
 627              		.thumb_func
 628              		.fpu fpv4-sp-d16
 630              	u8g2_font_decode_get_unsigned_bits:
 631              	.LFB9:
 235:/Users/imashio/Electronics/ARM/_Library/u8g2_font.c ****   uint8_t val;
 632              		.loc 1 235 0
 633              		.cfi_startproc
 634              		@ args = 0, pretend = 0, frame = 0
 635              		@ frame_needed = 0, uses_anonymous_args = 0
 636              		@ link register save eliminated.
 637              	.LVL81:
 638 0000 70B4     		push	{r4, r5, r6}
 639              	.LCFI1:
 640              		.cfi_def_cfa_offset 12
 641              		.cfi_offset 4, -12
 642              		.cfi_offset 5, -8
 643              		.cfi_offset 6, -4
 237:/Users/imashio/Electronics/ARM/_Library/u8g2_font.c ****   uint8_t bit_pos_plus_cnt;
 644              		.loc 1 237 0
 645 0002 847A     		ldrb	r4, [r0, #10]	@ zero_extendqisi2
 646              	.LVL82:
 241:/Users/imashio/Electronics/ARM/_Library/u8g2_font.c ****   
 647              		.loc 1 241 0
 648 0004 0668     		ldr	r6, [r0]
 649 0006 3278     		ldrb	r2, [r6]	@ zero_extendqisi2
 650              	.LVL83:
 243:/Users/imashio/Electronics/ARM/_Library/u8g2_font.c ****   bit_pos_plus_cnt = bit_pos;
 651              		.loc 1 243 0
 652 0008 42FA04F5 		asr	r5, r2, r4
 653 000c EAB2     		uxtb	r2, r5
 654              	.LVL84:
 245:/Users/imashio/Electronics/ARM/_Library/u8g2_font.c ****   if ( bit_pos_plus_cnt >= 8 )
 655              		.loc 1 245 0
 656 000e 6318     		adds	r3, r4, r1
 657 0010 DBB2     		uxtb	r3, r3
 658              	.LVL85:
 246:/Users/imashio/Electronics/ARM/_Library/u8g2_font.c ****   {
 659              		.loc 1 246 0
 660 0012 072B     		cmp	r3, #7
 661 0014 0AD9     		bls	.L34
 662              	.LVL86:
 663              	.LBB2:
 249:/Users/imashio/Electronics/ARM/_Library/u8g2_font.c ****     f->decode_ptr++;
 664              		.loc 1 249 0
 665 0016 C4F10804 		rsb	r4, r4, #8
 666              	.LVL87:
 667 001a E4B2     		uxtb	r4, r4
 668              	.LVL88:
 250:/Users/imashio/Electronics/ARM/_Library/u8g2_font.c ****     //val |= *(f->decode_ptr) << (8-bit_pos);
 669              		.loc 1 250 0
 670 001c 721C     		adds	r2, r6, #1
 671              	.LVL89:
 672 001e 0260     		str	r2, [r0]
ARM GAS  /var/folders/v3/wysfpd052nz8jkbx04pk0ym80000gn/T//ccfX3eBQ.s 			page 31


 252:/Users/imashio/Electronics/ARM/_Library/u8g2_font.c ****     //bit_pos -= 8;
 673              		.loc 1 252 0
 674 0020 7278     		ldrb	r2, [r6, #1]	@ zero_extendqisi2
 675 0022 A240     		lsls	r2, r2, r4
 676 0024 2A43     		orrs	r2, r2, r5
 677 0026 D2B2     		uxtb	r2, r2
 678              	.LVL90:
 254:/Users/imashio/Electronics/ARM/_Library/u8g2_font.c ****   }
 679              		.loc 1 254 0
 680 0028 083B     		subs	r3, r3, #8
 681              	.LVL91:
 682 002a DBB2     		uxtb	r3, r3
 683              	.LVL92:
 684              	.L34:
 685              	.LBE2:
 256:/Users/imashio/Electronics/ARM/_Library/u8g2_font.c ****   //bit_pos += cnt;
 686              		.loc 1 256 0
 687 002c 4FF0FF34 		mov	r4, #-1
 688 0030 04FA01F1 		lsl	r1, r4, r1
 689              	.LVL93:
 259:/Users/imashio/Electronics/ARM/_Library/u8g2_font.c ****   return val;
 690              		.loc 1 259 0
 691 0034 8372     		strb	r3, [r0, #10]
 692              	.LVL94:
 261:/Users/imashio/Electronics/ARM/_Library/u8g2_font.c **** 
 693              		.loc 1 261 0
 694 0036 22EA0100 		bic	r0, r2, r1
 695              	.LVL95:
 696 003a 70BC     		pop	{r4, r5, r6}
 697              	.LCFI2:
 698              		.cfi_restore 6
 699              		.cfi_restore 5
 700              		.cfi_restore 4
 701              		.cfi_def_cfa_offset 0
 702 003c 7047     		bx	lr
 703              		.cfi_endproc
 704              	.LFE9:
 706              		.section	.text.u8g2_font_setup_decode,"ax",%progbits
 707              		.align	1
 708              		.syntax unified
 709              		.thumb
 710              		.thumb_func
 711              		.fpu fpv4-sp-d16
 713              	u8g2_font_setup_decode:
 714              	.LFB14:
 451:/Users/imashio/Electronics/ARM/_Library/u8g2_font.c ****   u8g2_font_decode_t *decode = &(u8g2->font_decode);
 715              		.loc 1 451 0
 716              		.cfi_startproc
 717              		@ args = 0, pretend = 0, frame = 0
 718              		@ frame_needed = 0, uses_anonymous_args = 0
 719              	.LVL96:
 720 0000 38B5     		push	{r3, r4, r5, lr}
 721              	.LCFI3:
 722              		.cfi_def_cfa_offset 16
 723              		.cfi_offset 3, -16
 724              		.cfi_offset 4, -12
 725              		.cfi_offset 5, -8
ARM GAS  /var/folders/v3/wysfpd052nz8jkbx04pk0ym80000gn/T//ccfX3eBQ.s 			page 32


 726              		.cfi_offset 14, -4
 727 0002 0446     		mov	r4, r0
 452:/Users/imashio/Electronics/ARM/_Library/u8g2_font.c ****   decode->decode_ptr = glyph_data;
 728              		.loc 1 452 0
 729 0004 00F15005 		add	r5, r0, #80
 730              	.LVL97:
 453:/Users/imashio/Electronics/ARM/_Library/u8g2_font.c ****   decode->decode_bit_pos = 0;
 731              		.loc 1 453 0
 732 0008 0165     		str	r1, [r0, #80]
 454:/Users/imashio/Electronics/ARM/_Library/u8g2_font.c ****   
 733              		.loc 1 454 0
 734 000a 0023     		movs	r3, #0
 735 000c 80F85A30 		strb	r3, [r0, #90]
 462:/Users/imashio/Electronics/ARM/_Library/u8g2_font.c ****   decode->glyph_height = u8g2_font_decode_get_unsigned_bits(decode,u8g2->font_info.bits_per_char_he
 736              		.loc 1 462 0
 737 0010 90F86410 		ldrb	r1, [r0, #100]	@ zero_extendqisi2
 738              	.LVL98:
 739 0014 2846     		mov	r0, r5
 740              	.LVL99:
 741 0016 FFF7FEFF 		bl	u8g2_font_decode_get_unsigned_bits
 742              	.LVL100:
 743 001a 84F85800 		strb	r0, [r4, #88]
 463:/Users/imashio/Electronics/ARM/_Library/u8g2_font.c ****   
 744              		.loc 1 463 0
 745 001e 94F86510 		ldrb	r1, [r4, #101]	@ zero_extendqisi2
 746 0022 2846     		mov	r0, r5
 747 0024 FFF7FEFF 		bl	u8g2_font_decode_get_unsigned_bits
 748              	.LVL101:
 749 0028 84F85900 		strb	r0, [r4, #89]
 465:/Users/imashio/Electronics/ARM/_Library/u8g2_font.c ****   decode->bg_color = (decode->fg_color == 0 ? 1 : 0);
 750              		.loc 1 465 0
 751 002c 94F87D30 		ldrb	r3, [r4, #125]	@ zero_extendqisi2
 752 0030 84F85C30 		strb	r3, [r4, #92]
 466:/Users/imashio/Electronics/ARM/_Library/u8g2_font.c **** }
 753              		.loc 1 466 0
 754 0034 B3FA83F3 		clz	r3, r3
 755 0038 5B09     		lsrs	r3, r3, #5
 756 003a 84F85D30 		strb	r3, [r4, #93]
 467:/Users/imashio/Electronics/ARM/_Library/u8g2_font.c **** 
 757              		.loc 1 467 0
 758 003e 38BD     		pop	{r3, r4, r5, pc}
 759              		.cfi_endproc
 760              	.LFE14:
 762              		.section	.text.u8g2_font_decode_get_signed_bits,"ax",%progbits
 763              		.align	1
 764              		.global	u8g2_font_decode_get_signed_bits
 765              		.syntax unified
 766              		.thumb
 767              		.thumb_func
 768              		.fpu fpv4-sp-d16
 770              	u8g2_font_decode_get_signed_bits:
 771              	.LFB10:
 280:/Users/imashio/Electronics/ARM/_Library/u8g2_font.c ****   int8_t v, d;
 772              		.loc 1 280 0
 773              		.cfi_startproc
 774              		@ args = 0, pretend = 0, frame = 0
 775              		@ frame_needed = 0, uses_anonymous_args = 0
ARM GAS  /var/folders/v3/wysfpd052nz8jkbx04pk0ym80000gn/T//ccfX3eBQ.s 			page 33


 776              	.LVL102:
 777 0000 10B5     		push	{r4, lr}
 778              	.LCFI4:
 779              		.cfi_def_cfa_offset 8
 780              		.cfi_offset 4, -8
 781              		.cfi_offset 14, -4
 782 0002 0C46     		mov	r4, r1
 282:/Users/imashio/Electronics/ARM/_Library/u8g2_font.c ****   d = 1;
 783              		.loc 1 282 0
 784 0004 FFF7FEFF 		bl	u8g2_font_decode_get_unsigned_bits
 785              	.LVL103:
 284:/Users/imashio/Electronics/ARM/_Library/u8g2_font.c ****   d <<= cnt;
 786              		.loc 1 284 0
 787 0008 013C     		subs	r4, r4, #1
 788 000a E4B2     		uxtb	r4, r4
 789              	.LVL104:
 285:/Users/imashio/Electronics/ARM/_Library/u8g2_font.c ****   v -= d;
 790              		.loc 1 285 0
 791 000c 0123     		movs	r3, #1
 792 000e A340     		lsls	r3, r3, r4
 793              	.LVL105:
 286:/Users/imashio/Electronics/ARM/_Library/u8g2_font.c ****   return v;
 794              		.loc 1 286 0
 795 0010 C01A     		subs	r0, r0, r3
 796              	.LVL106:
 289:/Users/imashio/Electronics/ARM/_Library/u8g2_font.c **** 
 797              		.loc 1 289 0
 798 0012 40B2     		sxtb	r0, r0
 799 0014 10BD     		pop	{r4, pc}
 800              		.cfi_endproc
 801              	.LFE10:
 803              		.section	.text.u8g2_font_decode_len,"ax",%progbits
 804              		.align	1
 805              		.global	u8g2_font_decode_len
 806              		.syntax unified
 807              		.thumb
 808              		.thumb_func
 809              		.fpu fpv4-sp-d16
 811              	u8g2_font_decode_len:
 812              	.LFB13:
 357:/Users/imashio/Electronics/ARM/_Library/u8g2_font.c ****   uint8_t cnt;	/* total number of remaining pixels, which have to be drawn */
 813              		.loc 1 357 0
 814              		.cfi_startproc
 815              		@ args = 0, pretend = 0, frame = 16
 816              		@ frame_needed = 0, uses_anonymous_args = 0
 817              	.LVL107:
 818 0000 2DE9F04F 		push	{r4, r5, r6, r7, r8, r9, r10, fp, lr}
 819              	.LCFI5:
 820              		.cfi_def_cfa_offset 36
 821              		.cfi_offset 4, -36
 822              		.cfi_offset 5, -32
 823              		.cfi_offset 6, -28
 824              		.cfi_offset 7, -24
 825              		.cfi_offset 8, -20
 826              		.cfi_offset 9, -16
 827              		.cfi_offset 10, -12
 828              		.cfi_offset 11, -8
ARM GAS  /var/folders/v3/wysfpd052nz8jkbx04pk0ym80000gn/T//ccfX3eBQ.s 			page 34


 829              		.cfi_offset 14, -4
 830 0004 87B0     		sub	sp, sp, #28
 831              	.LCFI6:
 832              		.cfi_def_cfa_offset 64
 833 0006 0646     		mov	r6, r0
 834 0008 0C46     		mov	r4, r1
 835 000a 0592     		str	r2, [sp, #20]
 836              	.LVL108:
 374:/Users/imashio/Electronics/ARM/_Library/u8g2_font.c ****   ly = decode->y;
 837              		.loc 1 374 0
 838 000c 90F95630 		ldrsb	r3, [r0, #86]
 839 0010 5FFA83FA 		uxtb	r10, r3
 840              	.LVL109:
 375:/Users/imashio/Electronics/ARM/_Library/u8g2_font.c ****   
 841              		.loc 1 375 0
 842 0014 90F95780 		ldrsb	r8, [r0, #87]
 843 0018 5FFA88F8 		uxtb	r8, r8
 844              	.LVL110:
 845 001c 16E0     		b	.L45
 846              	.LVL111:
 847              	.L46:
 387:/Users/imashio/Electronics/ARM/_Library/u8g2_font.c ****     
 848              		.loc 1 387 0
 849 001e 0394     		str	r4, [sp, #12]
 850 0020 1DE0     		b	.L41
 851              	.LVL112:
 852              	.L48:
 409:/Users/imashio/Electronics/ARM/_Library/u8g2_font.c ****       u8g2_DrawHVLine(u8g2, 
 853              		.loc 1 409 0
 854 0022 96F85C30 		ldrb	r3, [r6, #92]	@ zero_extendqisi2
 855 0026 86F87D30 		strb	r3, [r6, #125]
 410:/Users/imashio/Electronics/ARM/_Library/u8g2_font.c **** 	x, 
 856              		.loc 1 410 0
 857 002a 0097     		str	r7, [sp]
 858 002c 039B     		ldr	r3, [sp, #12]
 859 002e 0246     		mov	r2, r0
 860 0030 0499     		ldr	r1, [sp, #16]
 861 0032 3046     		mov	r0, r6
 862              	.LVL113:
 863 0034 FFF7FEFF 		bl	u8g2_DrawHVLine
 864              	.LVL114:
 865              	.L43:
 437:/Users/imashio/Electronics/ARM/_Library/u8g2_font.c ****       break;
 866              		.loc 1 437 0
 867 0038 AC42     		cmp	r4, r5
 868 003a 39D3     		bcc	.L44
 439:/Users/imashio/Electronics/ARM/_Library/u8g2_font.c ****     lx = 0;
 869              		.loc 1 439 0
 870 003c 641B     		subs	r4, r4, r5
 871              	.LVL115:
 872 003e E4B2     		uxtb	r4, r4
 873              	.LVL116:
 441:/Users/imashio/Electronics/ARM/_Library/u8g2_font.c ****   }
 874              		.loc 1 441 0
 875 0040 08F10108 		add	r8, r8, #1
 876              	.LVL117:
 877 0044 5FFA88F8 		uxtb	r8, r8
ARM GAS  /var/folders/v3/wysfpd052nz8jkbx04pk0ym80000gn/T//ccfX3eBQ.s 			page 35


 878              	.LVL118:
 440:/Users/imashio/Electronics/ARM/_Library/u8g2_font.c ****     ly++;
 879              		.loc 1 440 0
 880 0048 4FF0000A 		mov	r10, #0
 881              	.LVL119:
 882              	.L45:
 380:/Users/imashio/Electronics/ARM/_Library/u8g2_font.c ****     rem -= lx;
 883              		.loc 1 380 0
 884 004c 96F95850 		ldrsb	r5, [r6, #88]
 885 0050 EDB2     		uxtb	r5, r5
 886              	.LVL120:
 381:/Users/imashio/Electronics/ARM/_Library/u8g2_font.c ****     
 887              		.loc 1 381 0
 888 0052 A5EB0A05 		sub	r5, r5, r10
 889              	.LVL121:
 890 0056 EDB2     		uxtb	r5, r5
 891              	.LVL122:
 386:/Users/imashio/Electronics/ARM/_Library/u8g2_font.c ****       current = cnt;
 892              		.loc 1 386 0
 893 0058 AC42     		cmp	r4, r5
 894 005a E0D3     		bcc	.L46
 385:/Users/imashio/Electronics/ARM/_Library/u8g2_font.c ****     if ( cnt < rem )
 895              		.loc 1 385 0
 896 005c 0395     		str	r5, [sp, #12]
 897              	.L41:
 898              	.LVL123:
 395:/Users/imashio/Electronics/ARM/_Library/u8g2_font.c **** 
 899              		.loc 1 395 0
 900 005e 96F85590 		ldrb	r9, [r6, #85]	@ zero_extendqisi2
 901              	.LVL124:
 399:/Users/imashio/Electronics/ARM/_Library/u8g2_font.c ****     y = u8g2_add_vector_y(y, lx, ly, decode->dir);
 902              		.loc 1 399 0
 903 0062 4FFA8AF1 		sxtb	r1, r10
 904 0066 4FFA88FB 		sxtb	fp, r8
 905 006a 96F85E70 		ldrb	r7, [r6, #94]	@ zero_extendqisi2
 906 006e 3B46     		mov	r3, r7
 907 0070 5A46     		mov	r2, fp
 908 0072 0291     		str	r1, [sp, #8]
 909 0074 96F85400 		ldrb	r0, [r6, #84]	@ zero_extendqisi2
 910 0078 FFF7FEFF 		bl	u8g2_add_vector_x
 911              	.LVL125:
 912 007c 0490     		str	r0, [sp, #16]
 913              	.LVL126:
 400:/Users/imashio/Electronics/ARM/_Library/u8g2_font.c **** #else
 914              		.loc 1 400 0
 915 007e 3B46     		mov	r3, r7
 916 0080 5A46     		mov	r2, fp
 917 0082 0299     		ldr	r1, [sp, #8]
 918 0084 4846     		mov	r0, r9
 919 0086 FFF7FEFF 		bl	u8g2_add_vector_y
 920              	.LVL127:
 407:/Users/imashio/Electronics/ARM/_Library/u8g2_font.c ****     {
 921              		.loc 1 407 0
 922 008a 059B     		ldr	r3, [sp, #20]
 923 008c 002B     		cmp	r3, #0
 924 008e C8D1     		bne	.L48
 421:/Users/imashio/Electronics/ARM/_Library/u8g2_font.c ****     {
ARM GAS  /var/folders/v3/wysfpd052nz8jkbx04pk0ym80000gn/T//ccfX3eBQ.s 			page 36


 925              		.loc 1 421 0
 926 0090 96F85B30 		ldrb	r3, [r6, #91]	@ zero_extendqisi2
 927 0094 002B     		cmp	r3, #0
 928 0096 CFD1     		bne	.L43
 423:/Users/imashio/Electronics/ARM/_Library/u8g2_font.c ****       u8g2_DrawHVLine(u8g2, 
 929              		.loc 1 423 0
 930 0098 96F85D30 		ldrb	r3, [r6, #93]	@ zero_extendqisi2
 931 009c 86F87D30 		strb	r3, [r6, #125]
 424:/Users/imashio/Electronics/ARM/_Library/u8g2_font.c **** 	x, 
 932              		.loc 1 424 0
 933 00a0 0097     		str	r7, [sp]
 934 00a2 039B     		ldr	r3, [sp, #12]
 935 00a4 0246     		mov	r2, r0
 936 00a6 0499     		ldr	r1, [sp, #16]
 937 00a8 3046     		mov	r0, r6
 938              	.LVL128:
 939 00aa FFF7FEFF 		bl	u8g2_DrawHVLine
 940              	.LVL129:
 941 00ae C3E7     		b	.L43
 942              	.L44:
 443:/Users/imashio/Electronics/ARM/_Library/u8g2_font.c ****   
 943              		.loc 1 443 0
 944 00b0 5444     		add	r4, r4, r10
 945              	.LVL130:
 445:/Users/imashio/Electronics/ARM/_Library/u8g2_font.c ****   decode->y = ly;
 946              		.loc 1 445 0
 947 00b2 86F85640 		strb	r4, [r6, #86]
 446:/Users/imashio/Electronics/ARM/_Library/u8g2_font.c ****   
 948              		.loc 1 446 0
 949 00b6 86F857B0 		strb	fp, [r6, #87]
 448:/Users/imashio/Electronics/ARM/_Library/u8g2_font.c **** 
 950              		.loc 1 448 0
 951 00ba 07B0     		add	sp, sp, #28
 952              	.LCFI7:
 953              		.cfi_def_cfa_offset 36
 954              		@ sp needed
 955 00bc BDE8F08F 		pop	{r4, r5, r6, r7, r8, r9, r10, fp, pc}
 956              		.cfi_endproc
 957              	.LFE13:
 959              		.section	.text.u8g2_font_decode_glyph,"ax",%progbits
 960              		.align	1
 961              		.global	u8g2_font_decode_glyph
 962              		.syntax unified
 963              		.thumb
 964              		.thumb_func
 965              		.fpu fpv4-sp-d16
 967              	u8g2_font_decode_glyph:
 968              	.LFB15:
 485:/Users/imashio/Electronics/ARM/_Library/u8g2_font.c ****   uint8_t a, b;
 969              		.loc 1 485 0
 970              		.cfi_startproc
 971              		@ args = 0, pretend = 0, frame = 8
 972              		@ frame_needed = 0, uses_anonymous_args = 0
 973              	.LVL131:
 974 0000 2DE9F04F 		push	{r4, r5, r6, r7, r8, r9, r10, fp, lr}
 975              	.LCFI8:
 976              		.cfi_def_cfa_offset 36
ARM GAS  /var/folders/v3/wysfpd052nz8jkbx04pk0ym80000gn/T//ccfX3eBQ.s 			page 37


 977              		.cfi_offset 4, -36
 978              		.cfi_offset 5, -32
 979              		.cfi_offset 6, -28
 980              		.cfi_offset 7, -24
 981              		.cfi_offset 8, -20
 982              		.cfi_offset 9, -16
 983              		.cfi_offset 10, -12
 984              		.cfi_offset 11, -8
 985              		.cfi_offset 14, -4
 986 0004 85B0     		sub	sp, sp, #20
 987              	.LCFI9:
 988              		.cfi_def_cfa_offset 56
 989 0006 0446     		mov	r4, r0
 490:/Users/imashio/Electronics/ARM/_Library/u8g2_font.c ****     
 990              		.loc 1 490 0
 991 0008 00F15005 		add	r5, r0, #80
 992              	.LVL132:
 492:/Users/imashio/Electronics/ARM/_Library/u8g2_font.c ****   h = u8g2->font_decode.glyph_height;
 993              		.loc 1 492 0
 994 000c FFF7FEFF 		bl	u8g2_font_setup_decode
 995              	.LVL133:
 493:/Users/imashio/Electronics/ARM/_Library/u8g2_font.c ****   
 996              		.loc 1 493 0
 997 0010 94F95980 		ldrsb	r8, [r4, #89]
 998              	.LVL134:
 495:/Users/imashio/Electronics/ARM/_Library/u8g2_font.c ****   y = u8g2_font_decode_get_signed_bits(decode, u8g2->font_info.bits_per_char_y);
 999              		.loc 1 495 0
 1000 0014 94F86610 		ldrb	r1, [r4, #102]	@ zero_extendqisi2
 1001 0018 2846     		mov	r0, r5
 1002 001a FFF7FEFF 		bl	u8g2_font_decode_get_signed_bits
 1003              	.LVL135:
 1004 001e 8346     		mov	fp, r0
 1005              	.LVL136:
 496:/Users/imashio/Electronics/ARM/_Library/u8g2_font.c ****   d = u8g2_font_decode_get_signed_bits(decode, u8g2->font_info.bits_per_delta_x);
 1006              		.loc 1 496 0
 1007 0020 94F86710 		ldrb	r1, [r4, #103]	@ zero_extendqisi2
 1008 0024 2846     		mov	r0, r5
 1009 0026 FFF7FEFF 		bl	u8g2_font_decode_get_signed_bits
 1010              	.LVL137:
 1011 002a 0646     		mov	r6, r0
 1012              	.LVL138:
 497:/Users/imashio/Electronics/ARM/_Library/u8g2_font.c ****   
 1013              		.loc 1 497 0
 1014 002c 94F86810 		ldrb	r1, [r4, #104]	@ zero_extendqisi2
 1015 0030 2846     		mov	r0, r5
 1016 0032 FFF7FEFF 		bl	u8g2_font_decode_get_signed_bits
 1017              	.LVL139:
 1018 0036 0290     		str	r0, [sp, #8]
 1019              	.LVL140:
 499:/Users/imashio/Electronics/ARM/_Library/u8g2_font.c ****   {
 1020              		.loc 1 499 0
 1021 0038 94F95870 		ldrsb	r7, [r4, #88]
 1022 003c 002F     		cmp	r7, #0
 1023 003e 58DD     		ble	.L50
 502:/Users/imashio/Electronics/ARM/_Library/u8g2_font.c ****     decode->target_y = u8g2_add_vector_y(decode->target_y, x, -(h+y), decode->dir);
 1024              		.loc 1 502 0
 1025 0040 5FFA88F9 		uxtb	r9, r8
ARM GAS  /var/folders/v3/wysfpd052nz8jkbx04pk0ym80000gn/T//ccfX3eBQ.s 			page 38


 1026 0044 4E44     		add	r6, r6, r9
 1027              	.LVL141:
 1028 0046 F6B2     		uxtb	r6, r6
 1029 0048 7642     		negs	r6, r6
 1030 004a 76B2     		sxtb	r6, r6
 1031 004c 94F85EA0 		ldrb	r10, [r4, #94]	@ zero_extendqisi2
 1032 0050 5346     		mov	r3, r10
 1033 0052 3246     		mov	r2, r6
 1034 0054 CDF80CB0 		str	fp, [sp, #12]
 1035 0058 5946     		mov	r1, fp
 1036 005a 94F85400 		ldrb	r0, [r4, #84]	@ zero_extendqisi2
 1037 005e FFF7FEFF 		bl	u8g2_add_vector_x
 1038              	.LVL142:
 1039 0062 8346     		mov	fp, r0
 1040              	.LVL143:
 1041 0064 84F85400 		strb	r0, [r4, #84]
 503:/Users/imashio/Electronics/ARM/_Library/u8g2_font.c **** #else
 1042              		.loc 1 503 0
 1043 0068 5346     		mov	r3, r10
 1044 006a 3246     		mov	r2, r6
 1045 006c 0399     		ldr	r1, [sp, #12]
 1046 006e 94F85500 		ldrb	r0, [r4, #85]	@ zero_extendqisi2
 1047 0072 FFF7FEFF 		bl	u8g2_add_vector_y
 1048              	.LVL144:
 1049 0076 0246     		mov	r2, r0
 1050 0078 84F85500 		strb	r0, [r4, #85]
 1051              	.LVL145:
 1052              	.LBB3:
 519:/Users/imashio/Electronics/ARM/_Library/u8g2_font.c ****       {
 1053              		.loc 1 519 0
 1054 007c BAF1030F 		cmp	r10, #3
 1055 0080 65D8     		bhi	.L59
 1056 0082 DFE80AF0 		tbb	[pc, r10]
 1057              	.L53:
 1058 0086 02       		.byte	(.L52-.L53)/2
 1059 0087 3A       		.byte	(.L54-.L53)/2
 1060 0088 47       		.byte	(.L55-.L53)/2
 1061 0089 59       		.byte	(.L56-.L53)/2
 1062              		.p2align 1
 1063              	.L52:
 522:/Users/imashio/Electronics/ARM/_Library/u8g2_font.c **** 	    y1 += h;
 1064              		.loc 1 522 0
 1065 008a 5BFA87F3 		uxtab	r3, fp, r7
 1066 008e DBB2     		uxtb	r3, r3
 1067              	.LVL146:
 523:/Users/imashio/Electronics/ARM/_Library/u8g2_font.c **** 	    break;
 1068              		.loc 1 523 0
 1069 0090 4844     		add	r0, r9, r0
 1070              	.LVL147:
 1071 0092 C0B2     		uxtb	r0, r0
 1072              	.LVL148:
 1073              	.L51:
 551:/Users/imashio/Electronics/ARM/_Library/u8g2_font.c **** 	return d;
 1074              		.loc 1 551 0
 1075 0094 0090     		str	r0, [sp]
 1076 0096 5946     		mov	r1, fp
 1077 0098 2046     		mov	r0, r4
ARM GAS  /var/folders/v3/wysfpd052nz8jkbx04pk0ym80000gn/T//ccfX3eBQ.s 			page 39


 1078              	.LVL149:
 1079 009a FFF7FEFF 		bl	u8g2_IsIntersection
 1080              	.LVL150:
 1081 009e 40B3     		cbz	r0, .L50
 1082              	.LBE3:
 557:/Users/imashio/Electronics/ARM/_Library/u8g2_font.c ****     decode->y = 0;
 1083              		.loc 1 557 0
 1084 00a0 0023     		movs	r3, #0
 1085 00a2 84F85630 		strb	r3, [r4, #86]
 558:/Users/imashio/Electronics/ARM/_Library/u8g2_font.c ****     
 1086              		.loc 1 558 0
 1087 00a6 84F85730 		strb	r3, [r4, #87]
 1088              	.L58:
 563:/Users/imashio/Electronics/ARM/_Library/u8g2_font.c ****       b = u8g2_font_decode_get_unsigned_bits(decode, u8g2->font_info.bits_per_1);
 1089              		.loc 1 563 0
 1090 00aa 94F86210 		ldrb	r1, [r4, #98]	@ zero_extendqisi2
 1091 00ae 2846     		mov	r0, r5
 1092 00b0 FFF7FEFF 		bl	u8g2_font_decode_get_unsigned_bits
 1093              	.LVL151:
 1094 00b4 0746     		mov	r7, r0
 1095              	.LVL152:
 564:/Users/imashio/Electronics/ARM/_Library/u8g2_font.c ****       do
 1096              		.loc 1 564 0
 1097 00b6 94F86310 		ldrb	r1, [r4, #99]	@ zero_extendqisi2
 1098 00ba 2846     		mov	r0, r5
 1099 00bc FFF7FEFF 		bl	u8g2_font_decode_get_unsigned_bits
 1100              	.LVL153:
 1101 00c0 0646     		mov	r6, r0
 1102              	.LVL154:
 1103              	.L57:
 567:/Users/imashio/Electronics/ARM/_Library/u8g2_font.c **** 	u8g2_font_decode_len(u8g2, b, 1);
 1104              		.loc 1 567 0 discriminator 1
 1105 00c2 0022     		movs	r2, #0
 1106 00c4 3946     		mov	r1, r7
 1107 00c6 2046     		mov	r0, r4
 1108 00c8 FFF7FEFF 		bl	u8g2_font_decode_len
 1109              	.LVL155:
 568:/Users/imashio/Electronics/ARM/_Library/u8g2_font.c ****       } while( u8g2_font_decode_get_unsigned_bits(decode, 1) != 0 );
 1110              		.loc 1 568 0 discriminator 1
 1111 00cc 0122     		movs	r2, #1
 1112 00ce 3146     		mov	r1, r6
 1113 00d0 2046     		mov	r0, r4
 1114 00d2 FFF7FEFF 		bl	u8g2_font_decode_len
 1115              	.LVL156:
 569:/Users/imashio/Electronics/ARM/_Library/u8g2_font.c **** 
 1116              		.loc 1 569 0 discriminator 1
 1117 00d6 0121     		movs	r1, #1
 1118 00d8 2846     		mov	r0, r5
 1119 00da FFF7FEFF 		bl	u8g2_font_decode_get_unsigned_bits
 1120              	.LVL157:
 1121 00de 0028     		cmp	r0, #0
 1122 00e0 EFD1     		bne	.L57
 571:/Users/imashio/Electronics/ARM/_Library/u8g2_font.c **** 	break;
 1123              		.loc 1 571 0
 1124 00e2 94F95730 		ldrsb	r3, [r4, #87]
 1125 00e6 4345     		cmp	r3, r8
 1126 00e8 DFDB     		blt	.L58
ARM GAS  /var/folders/v3/wysfpd052nz8jkbx04pk0ym80000gn/T//ccfX3eBQ.s 			page 40


 576:/Users/imashio/Electronics/ARM/_Library/u8g2_font.c ****   }
 1127              		.loc 1 576 0
 1128 00ea 94F85C30 		ldrb	r3, [r4, #92]	@ zero_extendqisi2
 1129 00ee 84F87D30 		strb	r3, [r4, #125]
 1130              	.LVL158:
 1131              	.L50:
 579:/Users/imashio/Electronics/ARM/_Library/u8g2_font.c **** 
 1132              		.loc 1 579 0
 1133 00f2 0298     		ldr	r0, [sp, #8]
 1134 00f4 05B0     		add	sp, sp, #20
 1135              	.LCFI10:
 1136              		.cfi_remember_state
 1137              		.cfi_def_cfa_offset 36
 1138              		@ sp needed
 1139 00f6 BDE8F08F 		pop	{r4, r5, r6, r7, r8, r9, r10, fp, pc}
 1140              	.LVL159:
 1141              	.L54:
 1142              	.LCFI11:
 1143              		.cfi_restore_state
 1144              	.LBB4:
 526:/Users/imashio/Electronics/ARM/_Library/u8g2_font.c **** 	    x0++;	/* shift down, because of assymetric boundaries for the interseciton test */
 1145              		.loc 1 526 0
 1146 00fa ABEB0901 		sub	r1, fp, r9
 1147 00fe C9B2     		uxtb	r1, r1
 1148              	.LVL160:
 527:/Users/imashio/Electronics/ARM/_Library/u8g2_font.c **** 	    x1++;
 1149              		.loc 1 527 0
 1150 0100 0131     		adds	r1, r1, #1
 1151              	.LVL161:
 528:/Users/imashio/Electronics/ARM/_Library/u8g2_font.c **** 	    y1 += decode->glyph_width;
 1152              		.loc 1 528 0
 1153 0102 0BF10103 		add	r3, fp, #1
 1154 0106 DBB2     		uxtb	r3, r3
 1155              	.LVL162:
 529:/Users/imashio/Electronics/ARM/_Library/u8g2_font.c **** 	    break;
 1156              		.loc 1 529 0
 1157 0108 50FA87F0 		uxtab	r0, r0, r7
 1158              	.LVL163:
 1159 010c C0B2     		uxtb	r0, r0
 1160              	.LVL164:
 527:/Users/imashio/Electronics/ARM/_Library/u8g2_font.c **** 	    x1++;
 1161              		.loc 1 527 0
 1162 010e 5FFA81FB 		uxtb	fp, r1
 530:/Users/imashio/Electronics/ARM/_Library/u8g2_font.c **** 	case 2:
 1163              		.loc 1 530 0
 1164 0112 BFE7     		b	.L51
 1165              	.LVL165:
 1166              	.L55:
 532:/Users/imashio/Electronics/ARM/_Library/u8g2_font.c **** 	    x0++;	/* shift down, because of assymetric boundaries for the interseciton test */
 1167              		.loc 1 532 0
 1168 0114 F9B2     		uxtb	r1, r7
 1169 0116 ABEB0101 		sub	r1, fp, r1
 1170 011a C9B2     		uxtb	r1, r1
 1171              	.LVL166:
 533:/Users/imashio/Electronics/ARM/_Library/u8g2_font.c **** 	    x1++;
 1172              		.loc 1 533 0
 1173 011c 0131     		adds	r1, r1, #1
ARM GAS  /var/folders/v3/wysfpd052nz8jkbx04pk0ym80000gn/T//ccfX3eBQ.s 			page 41


 1174              	.LVL167:
 534:/Users/imashio/Electronics/ARM/_Library/u8g2_font.c **** 	    y0 -= h;
 1175              		.loc 1 534 0
 1176 011e 0BF10103 		add	r3, fp, #1
 1177 0122 DBB2     		uxtb	r3, r3
 1178              	.LVL168:
 535:/Users/imashio/Electronics/ARM/_Library/u8g2_font.c **** 	    y0++;	/* shift down, because of assymetric boundaries for the interseciton test */
 1179              		.loc 1 535 0
 1180 0124 A0EB0906 		sub	r6, r0, r9
 1181 0128 F6B2     		uxtb	r6, r6
 1182              	.LVL169:
 536:/Users/imashio/Electronics/ARM/_Library/u8g2_font.c **** 	    y1++;
 1183              		.loc 1 536 0
 1184 012a 0136     		adds	r6, r6, #1
 1185              	.LVL170:
 537:/Users/imashio/Electronics/ARM/_Library/u8g2_font.c **** 	    break;	  
 1186              		.loc 1 537 0
 1187 012c 0132     		adds	r2, r2, #1
 1188 012e D0B2     		uxtb	r0, r2
 1189              	.LVL171:
 536:/Users/imashio/Electronics/ARM/_Library/u8g2_font.c **** 	    y1++;
 1190              		.loc 1 536 0
 1191 0130 F2B2     		uxtb	r2, r6
 533:/Users/imashio/Electronics/ARM/_Library/u8g2_font.c **** 	    x1++;
 1192              		.loc 1 533 0
 1193 0132 5FFA81FB 		uxtb	fp, r1
 538:/Users/imashio/Electronics/ARM/_Library/u8g2_font.c **** 	case 3:
 1194              		.loc 1 538 0
 1195 0136 ADE7     		b	.L51
 1196              	.LVL172:
 1197              	.L56:
 540:/Users/imashio/Electronics/ARM/_Library/u8g2_font.c **** 	    y0 -= decode->glyph_width;
 1198              		.loc 1 540 0
 1199 0138 09EB0B03 		add	r3, r9, fp
 1200 013c DBB2     		uxtb	r3, r3
 1201              	.LVL173:
 541:/Users/imashio/Electronics/ARM/_Library/u8g2_font.c **** 	    y0++;	/* shift down, because of assymetric boundaries for the interseciton test */
 1202              		.loc 1 541 0
 1203 013e F9B2     		uxtb	r1, r7
 1204 0140 411A     		subs	r1, r0, r1
 1205 0142 C9B2     		uxtb	r1, r1
 1206              	.LVL174:
 542:/Users/imashio/Electronics/ARM/_Library/u8g2_font.c **** 	    y1++;
 1207              		.loc 1 542 0
 1208 0144 0131     		adds	r1, r1, #1
 1209              	.LVL175:
 543:/Users/imashio/Electronics/ARM/_Library/u8g2_font.c **** 	    break;	  
 1210              		.loc 1 543 0
 1211 0146 0132     		adds	r2, r2, #1
 1212 0148 D0B2     		uxtb	r0, r2
 1213              	.LVL176:
 542:/Users/imashio/Electronics/ARM/_Library/u8g2_font.c **** 	    y1++;
 1214              		.loc 1 542 0
 1215 014a CAB2     		uxtb	r2, r1
 544:/Users/imashio/Electronics/ARM/_Library/u8g2_font.c ****       }
 1216              		.loc 1 544 0
 1217 014c A2E7     		b	.L51
ARM GAS  /var/folders/v3/wysfpd052nz8jkbx04pk0ym80000gn/T//ccfX3eBQ.s 			page 42


 1218              	.LVL177:
 1219              	.L59:
 515:/Users/imashio/Electronics/ARM/_Library/u8g2_font.c ****       y1 = y0;
 1220              		.loc 1 515 0
 1221 014e 5B46     		mov	r3, fp
 1222 0150 A0E7     		b	.L51
 1223              	.LBE4:
 1224              		.cfi_endproc
 1225              	.LFE15:
 1227              		.section	.text.u8g2_font_get_glyph_data,"ax",%progbits
 1228              		.align	1
 1229              		.global	u8g2_font_get_glyph_data
 1230              		.syntax unified
 1231              		.thumb
 1232              		.thumb_func
 1233              		.fpu fpv4-sp-d16
 1235              	u8g2_font_get_glyph_data:
 1236              	.LFB16:
 590:/Users/imashio/Electronics/ARM/_Library/u8g2_font.c ****   const uint8_t *font = u8g2->font;
 1237              		.loc 1 590 0
 1238              		.cfi_startproc
 1239              		@ args = 0, pretend = 0, frame = 0
 1240              		@ frame_needed = 0, uses_anonymous_args = 0
 1241              		@ link register save eliminated.
 1242              	.LVL178:
 591:/Users/imashio/Electronics/ARM/_Library/u8g2_font.c ****   font += U8G2_FONT_DATA_STRUCT_SIZE;
 1243              		.loc 1 591 0
 1244 0000 836C     		ldr	r3, [r0, #72]
 1245              	.LVL179:
 592:/Users/imashio/Electronics/ARM/_Library/u8g2_font.c **** 
 1246              		.loc 1 592 0
 1247 0002 1733     		adds	r3, r3, #23
 1248              	.LVL180:
 595:/Users/imashio/Electronics/ARM/_Library/u8g2_font.c ****   {
 1249              		.loc 1 595 0
 1250 0004 FF29     		cmp	r1, #255
 1251 0006 13D8     		bhi	.L62
 597:/Users/imashio/Electronics/ARM/_Library/u8g2_font.c ****     {
 1252              		.loc 1 597 0
 1253 0008 6029     		cmp	r1, #96
 1254 000a 09D9     		bls	.L63
 599:/Users/imashio/Electronics/ARM/_Library/u8g2_font.c ****     }
 1255              		.loc 1 599 0
 1256 000c B0F87420 		ldrh	r2, [r0, #116]
 1257 0010 1344     		add	r3, r3, r2
 1258              	.LVL181:
 1259              	.L67:
 608:/Users/imashio/Electronics/ARM/_Library/u8g2_font.c **** 	break;
 1260              		.loc 1 608 0
 1261 0012 5A78     		ldrb	r2, [r3, #1]	@ zero_extendqisi2
 1262 0014 DAB1     		cbz	r2, .L70
 610:/Users/imashio/Electronics/ARM/_Library/u8g2_font.c ****       {
 1263              		.loc 1 610 0
 1264 0016 1878     		ldrb	r0, [r3]	@ zero_extendqisi2
 1265 0018 8842     		cmp	r0, r1
 1266 001a 07D0     		beq	.L72
 614:/Users/imashio/Electronics/ARM/_Library/u8g2_font.c ****     }
ARM GAS  /var/folders/v3/wysfpd052nz8jkbx04pk0ym80000gn/T//ccfX3eBQ.s 			page 43


 1267              		.loc 1 614 0
 1268 001c 1344     		add	r3, r3, r2
 1269              	.LVL182:
 608:/Users/imashio/Electronics/ARM/_Library/u8g2_font.c **** 	break;
 1270              		.loc 1 608 0
 1271 001e F8E7     		b	.L67
 1272              	.LVL183:
 1273              	.L63:
 601:/Users/imashio/Electronics/ARM/_Library/u8g2_font.c ****     {
 1274              		.loc 1 601 0
 1275 0020 4029     		cmp	r1, #64
 1276 0022 F6D9     		bls	.L67
 603:/Users/imashio/Electronics/ARM/_Library/u8g2_font.c ****     }
 1277              		.loc 1 603 0
 1278 0024 B0F87220 		ldrh	r2, [r0, #114]
 1279 0028 1344     		add	r3, r3, r2
 1280              	.LVL184:
 1281 002a F2E7     		b	.L67
 1282              	.LVL185:
 1283              	.L72:
 612:/Users/imashio/Electronics/ARM/_Library/u8g2_font.c ****       }
 1284              		.loc 1 612 0
 1285 002c 981C     		adds	r0, r3, #2
 1286 002e 7047     		bx	lr
 1287              	.LVL186:
 1288              	.L62:
 1289              	.LBB5:
 630:/Users/imashio/Electronics/ARM/_Library/u8g2_font.c ****     
 1290              		.loc 1 630 0
 1291 0030 B0F87600 		ldrh	r0, [r0, #118]
 1292              	.LVL187:
 1293 0034 1844     		add	r0, r0, r3
 1294              	.LVL188:
 1295              	.L69:
 635:/Users/imashio/Electronics/ARM/_Library/u8g2_font.c ****       e <<= 8;
 1296              		.loc 1 635 0
 1297 0036 0278     		ldrb	r2, [r0]	@ zero_extendqisi2
 1298              	.LVL189:
 637:/Users/imashio/Electronics/ARM/_Library/u8g2_font.c ****   
 1299              		.loc 1 637 0
 1300 0038 4378     		ldrb	r3, [r0, #1]	@ zero_extendqisi2
 1301              	.LVL190:
 644:/Users/imashio/Electronics/ARM/_Library/u8g2_font.c **** 	break;
 1302              		.loc 1 644 0
 1303 003a 53EA0223 		orrs	r3, r3, r2, lsl #8
 1304              	.LVL191:
 1305 003e 08D0     		beq	.L71
 647:/Users/imashio/Electronics/ARM/_Library/u8g2_font.c ****       {
 1306              		.loc 1 647 0
 1307 0040 9942     		cmp	r1, r3
 1308 0042 02D0     		beq	.L73
 655:/Users/imashio/Electronics/ARM/_Library/u8g2_font.c ****     }  
 1309              		.loc 1 655 0
 1310 0044 8378     		ldrb	r3, [r0, #2]	@ zero_extendqisi2
 1311              	.LVL192:
 1312 0046 1844     		add	r0, r0, r3
 1313              	.LVL193:
ARM GAS  /var/folders/v3/wysfpd052nz8jkbx04pk0ym80000gn/T//ccfX3eBQ.s 			page 44


 635:/Users/imashio/Electronics/ARM/_Library/u8g2_font.c ****       e <<= 8;
 1314              		.loc 1 635 0
 1315 0048 F5E7     		b	.L69
 1316              	.LVL194:
 1317              	.L73:
 653:/Users/imashio/Electronics/ARM/_Library/u8g2_font.c ****       }
 1318              		.loc 1 653 0
 1319 004a 0330     		adds	r0, r0, #3
 1320              	.LVL195:
 1321 004c 7047     		bx	lr
 1322              	.LVL196:
 1323              	.L70:
 1324              	.LBE5:
 660:/Users/imashio/Electronics/ARM/_Library/u8g2_font.c **** }
 1325              		.loc 1 660 0
 1326 004e 0020     		movs	r0, #0
 1327 0050 7047     		bx	lr
 1328              	.LVL197:
 1329              	.L71:
 1330 0052 0020     		movs	r0, #0
 1331              	.LVL198:
 661:/Users/imashio/Electronics/ARM/_Library/u8g2_font.c **** 
 1332              		.loc 1 661 0
 1333 0054 7047     		bx	lr
 1334              		.cfi_endproc
 1335              	.LFE16:
 1337              		.section	.text.u8g2_font_draw_glyph,"ax",%progbits
 1338              		.align	1
 1339              		.syntax unified
 1340              		.thumb
 1341              		.thumb_func
 1342              		.fpu fpv4-sp-d16
 1344              	u8g2_font_draw_glyph:
 1345              	.LFB17:
 664:/Users/imashio/Electronics/ARM/_Library/u8g2_font.c ****   u8g2_uint_t dx = 0;
 1346              		.loc 1 664 0
 1347              		.cfi_startproc
 1348              		@ args = 0, pretend = 0, frame = 0
 1349              		@ frame_needed = 0, uses_anonymous_args = 0
 1350              	.LVL199:
 1351 0000 10B5     		push	{r4, lr}
 1352              	.LCFI12:
 1353              		.cfi_def_cfa_offset 8
 1354              		.cfi_offset 4, -8
 1355              		.cfi_offset 14, -4
 1356 0002 0446     		mov	r4, r0
 1357              	.LVL200:
 666:/Users/imashio/Electronics/ARM/_Library/u8g2_font.c ****   u8g2->font_decode.target_y = y;
 1358              		.loc 1 666 0
 1359 0004 80F85410 		strb	r1, [r0, #84]
 667:/Users/imashio/Electronics/ARM/_Library/u8g2_font.c ****   //u8g2->font_decode.is_transparent = is_transparent; this is already set
 1360              		.loc 1 667 0
 1361 0008 80F85520 		strb	r2, [r0, #85]
 670:/Users/imashio/Electronics/ARM/_Library/u8g2_font.c ****   if ( glyph_data != NULL )
 1362              		.loc 1 670 0
 1363 000c 1946     		mov	r1, r3
 1364              	.LVL201:
ARM GAS  /var/folders/v3/wysfpd052nz8jkbx04pk0ym80000gn/T//ccfX3eBQ.s 			page 45


 1365 000e FFF7FEFF 		bl	u8g2_font_get_glyph_data
 1366              	.LVL202:
 671:/Users/imashio/Electronics/ARM/_Library/u8g2_font.c ****   {
 1367              		.loc 1 671 0
 1368 0012 28B1     		cbz	r0, .L76
 1369 0014 0146     		mov	r1, r0
 673:/Users/imashio/Electronics/ARM/_Library/u8g2_font.c ****   }
 1370              		.loc 1 673 0
 1371 0016 2046     		mov	r0, r4
 1372              	.LVL203:
 1373 0018 FFF7FEFF 		bl	u8g2_font_decode_glyph
 1374              	.LVL204:
 1375 001c C0B2     		uxtb	r0, r0
 1376              	.LVL205:
 1377              	.L75:
 676:/Users/imashio/Electronics/ARM/_Library/u8g2_font.c **** 
 1378              		.loc 1 676 0
 1379 001e 10BD     		pop	{r4, pc}
 1380              	.LVL206:
 1381              	.L76:
 665:/Users/imashio/Electronics/ARM/_Library/u8g2_font.c ****   u8g2->font_decode.target_x = x;
 1382              		.loc 1 665 0
 1383 0020 0020     		movs	r0, #0
 1384              	.LVL207:
 1385 0022 FCE7     		b	.L75
 1386              		.cfi_endproc
 1387              	.LFE17:
 1389              		.section	.text.u8g2_GetGlyphHorizontalProperties,"ax",%progbits
 1390              		.align	1
 1391              		.syntax unified
 1392              		.thumb
 1393              		.thumb_func
 1394              		.fpu fpv4-sp-d16
 1396              	u8g2_GetGlyphHorizontalProperties:
 1397              	.LFB41:
1005:/Users/imashio/Electronics/ARM/_Library/u8g2_font.c **** 
1006:/Users/imashio/Electronics/ARM/_Library/u8g2_font.c **** void u8g2_SetFontPosCenter(u8g2_t *u8g2)
1007:/Users/imashio/Electronics/ARM/_Library/u8g2_font.c **** {
1008:/Users/imashio/Electronics/ARM/_Library/u8g2_font.c ****   u8g2->font_calc_vref = u8g2_font_calc_vref_center;
1009:/Users/imashio/Electronics/ARM/_Library/u8g2_font.c **** }
1010:/Users/imashio/Electronics/ARM/_Library/u8g2_font.c **** 
1011:/Users/imashio/Electronics/ARM/_Library/u8g2_font.c **** /*===============================================*/
1012:/Users/imashio/Electronics/ARM/_Library/u8g2_font.c **** 
1013:/Users/imashio/Electronics/ARM/_Library/u8g2_font.c **** void u8g2_SetFont(u8g2_t *u8g2, const uint8_t  *font)
1014:/Users/imashio/Electronics/ARM/_Library/u8g2_font.c **** {
1015:/Users/imashio/Electronics/ARM/_Library/u8g2_font.c ****   if ( u8g2->font != font )
1016:/Users/imashio/Electronics/ARM/_Library/u8g2_font.c ****   {
1017:/Users/imashio/Electronics/ARM/_Library/u8g2_font.c **** #ifdef  __unix__
1018:/Users/imashio/Electronics/ARM/_Library/u8g2_font.c **** 	u8g2->last_font_data = NULL;
1019:/Users/imashio/Electronics/ARM/_Library/u8g2_font.c **** 	u8g2->last_unicode = 0x0ffff;
1020:/Users/imashio/Electronics/ARM/_Library/u8g2_font.c **** #endif 
1021:/Users/imashio/Electronics/ARM/_Library/u8g2_font.c ****     u8g2->font = font;
1022:/Users/imashio/Electronics/ARM/_Library/u8g2_font.c ****     u8g2_read_font_info(&(u8g2->font_info), font);
1023:/Users/imashio/Electronics/ARM/_Library/u8g2_font.c ****     u8g2_UpdateRefHeight(u8g2);
1024:/Users/imashio/Electronics/ARM/_Library/u8g2_font.c ****     /* u8g2_SetFontPosBaseline(u8g2); */ /* removed with issue 195 */
1025:/Users/imashio/Electronics/ARM/_Library/u8g2_font.c ****   }
1026:/Users/imashio/Electronics/ARM/_Library/u8g2_font.c **** }
ARM GAS  /var/folders/v3/wysfpd052nz8jkbx04pk0ym80000gn/T//ccfX3eBQ.s 			page 46


1027:/Users/imashio/Electronics/ARM/_Library/u8g2_font.c **** 
1028:/Users/imashio/Electronics/ARM/_Library/u8g2_font.c **** /*===============================================*/
1029:/Users/imashio/Electronics/ARM/_Library/u8g2_font.c **** 
1030:/Users/imashio/Electronics/ARM/_Library/u8g2_font.c **** /* string calculation is stilll not 100% perfect as it addes the initial string offset to the overa
1031:/Users/imashio/Electronics/ARM/_Library/u8g2_font.c **** static u8g2_uint_t u8g2_string_width(u8g2_t *u8g2, const char *str) U8G2_NOINLINE;
1032:/Users/imashio/Electronics/ARM/_Library/u8g2_font.c **** static u8g2_uint_t u8g2_string_width(u8g2_t *u8g2, const char *str)
1033:/Users/imashio/Electronics/ARM/_Library/u8g2_font.c **** {
1034:/Users/imashio/Electronics/ARM/_Library/u8g2_font.c ****   uint16_t e;
1035:/Users/imashio/Electronics/ARM/_Library/u8g2_font.c ****   u8g2_uint_t  w, dx;
1036:/Users/imashio/Electronics/ARM/_Library/u8g2_font.c ****   
1037:/Users/imashio/Electronics/ARM/_Library/u8g2_font.c ****   u8g2->font_decode.glyph_width = 0;
1038:/Users/imashio/Electronics/ARM/_Library/u8g2_font.c ****   u8x8_utf8_init(u8g2_GetU8x8(u8g2));
1039:/Users/imashio/Electronics/ARM/_Library/u8g2_font.c ****   
1040:/Users/imashio/Electronics/ARM/_Library/u8g2_font.c ****   /* reset the total width to zero, this will be expanded during calculation */
1041:/Users/imashio/Electronics/ARM/_Library/u8g2_font.c ****   w = 0;
1042:/Users/imashio/Electronics/ARM/_Library/u8g2_font.c ****   dx = 0;
1043:/Users/imashio/Electronics/ARM/_Library/u8g2_font.c **** 
1044:/Users/imashio/Electronics/ARM/_Library/u8g2_font.c ****   // printf("str=<%s>\n", str);
1045:/Users/imashio/Electronics/ARM/_Library/u8g2_font.c **** 	
1046:/Users/imashio/Electronics/ARM/_Library/u8g2_font.c ****   for(;;)
1047:/Users/imashio/Electronics/ARM/_Library/u8g2_font.c ****   {
1048:/Users/imashio/Electronics/ARM/_Library/u8g2_font.c ****     e = u8g2->u8x8.next_cb(u8g2_GetU8x8(u8g2), (uint8_t)*str);
1049:/Users/imashio/Electronics/ARM/_Library/u8g2_font.c ****     if ( e == 0x0ffff )
1050:/Users/imashio/Electronics/ARM/_Library/u8g2_font.c ****       break;
1051:/Users/imashio/Electronics/ARM/_Library/u8g2_font.c ****     str++;
1052:/Users/imashio/Electronics/ARM/_Library/u8g2_font.c ****     if ( e != 0x0fffe )
1053:/Users/imashio/Electronics/ARM/_Library/u8g2_font.c ****     {
1054:/Users/imashio/Electronics/ARM/_Library/u8g2_font.c ****       dx = u8g2_GetGlyphWidth(u8g2, e);		/* delta x value of the glyph */
1055:/Users/imashio/Electronics/ARM/_Library/u8g2_font.c ****       w += dx;
1056:/Users/imashio/Electronics/ARM/_Library/u8g2_font.c ****     }
1057:/Users/imashio/Electronics/ARM/_Library/u8g2_font.c ****   }
1058:/Users/imashio/Electronics/ARM/_Library/u8g2_font.c ****   
1059:/Users/imashio/Electronics/ARM/_Library/u8g2_font.c ****   /* adjust the last glyph, check for issue #16: do not adjust if width is 0 */
1060:/Users/imashio/Electronics/ARM/_Library/u8g2_font.c ****   if ( u8g2->font_decode.glyph_width != 0 )
1061:/Users/imashio/Electronics/ARM/_Library/u8g2_font.c ****   {
1062:/Users/imashio/Electronics/ARM/_Library/u8g2_font.c ****     w -= dx;
1063:/Users/imashio/Electronics/ARM/_Library/u8g2_font.c ****     w += u8g2->font_decode.glyph_width;  /* the real pixel width of the glyph, sideeffect of GetGly
1064:/Users/imashio/Electronics/ARM/_Library/u8g2_font.c ****     /* issue #46: we have to add the x offset also */
1065:/Users/imashio/Electronics/ARM/_Library/u8g2_font.c ****     w += u8g2->glyph_x_offset;	/* this value is set as a side effect of u8g2_GetGlyphWidth() */
1066:/Users/imashio/Electronics/ARM/_Library/u8g2_font.c ****   }
1067:/Users/imashio/Electronics/ARM/_Library/u8g2_font.c ****   // printf("w=%d \n", w);
1068:/Users/imashio/Electronics/ARM/_Library/u8g2_font.c ****   
1069:/Users/imashio/Electronics/ARM/_Library/u8g2_font.c ****   return w;  
1070:/Users/imashio/Electronics/ARM/_Library/u8g2_font.c **** }
1071:/Users/imashio/Electronics/ARM/_Library/u8g2_font.c **** 
1072:/Users/imashio/Electronics/ARM/_Library/u8g2_font.c **** static void u8g2_GetGlyphHorizontalProperties(u8g2_t *u8g2, uint16_t requested_encoding, uint8_t *w
1073:/Users/imashio/Electronics/ARM/_Library/u8g2_font.c **** {
 1398              		.loc 1 1073 0
 1399              		.cfi_startproc
 1400              		@ args = 4, pretend = 0, frame = 0
 1401              		@ frame_needed = 0, uses_anonymous_args = 0
 1402              	.LVL208:
 1403 0000 70B5     		push	{r4, r5, r6, lr}
 1404              	.LCFI13:
 1405              		.cfi_def_cfa_offset 16
 1406              		.cfi_offset 4, -16
 1407              		.cfi_offset 5, -12
ARM GAS  /var/folders/v3/wysfpd052nz8jkbx04pk0ym80000gn/T//ccfX3eBQ.s 			page 47


 1408              		.cfi_offset 6, -8
 1409              		.cfi_offset 14, -4
 1410 0002 0446     		mov	r4, r0
 1411 0004 1546     		mov	r5, r2
 1412 0006 1E46     		mov	r6, r3
1074:/Users/imashio/Electronics/ARM/_Library/u8g2_font.c ****   const uint8_t *glyph_data = u8g2_font_get_glyph_data(u8g2, requested_encoding);
 1413              		.loc 1 1074 0
 1414 0008 FFF7FEFF 		bl	u8g2_font_get_glyph_data
 1415              	.LVL209:
1075:/Users/imashio/Electronics/ARM/_Library/u8g2_font.c ****   if ( glyph_data == NULL )
 1416              		.loc 1 1075 0
 1417 000c D0B1     		cbz	r0, .L78
 1418 000e 0146     		mov	r1, r0
1076:/Users/imashio/Electronics/ARM/_Library/u8g2_font.c ****     return; 
1077:/Users/imashio/Electronics/ARM/_Library/u8g2_font.c ****   
1078:/Users/imashio/Electronics/ARM/_Library/u8g2_font.c ****   u8g2_font_setup_decode(u8g2, glyph_data);
 1419              		.loc 1 1078 0
 1420 0010 2046     		mov	r0, r4
 1421              	.LVL210:
 1422 0012 FFF7FEFF 		bl	u8g2_font_setup_decode
 1423              	.LVL211:
1079:/Users/imashio/Electronics/ARM/_Library/u8g2_font.c ****   *w = u8g2->font_decode.glyph_width;
 1424              		.loc 1 1079 0
 1425 0016 94F85830 		ldrb	r3, [r4, #88]	@ zero_extendqisi2
 1426 001a 2B70     		strb	r3, [r5]
1080:/Users/imashio/Electronics/ARM/_Library/u8g2_font.c ****   *ox =  u8g2_font_decode_get_signed_bits(&(u8g2->font_decode), u8g2->font_info.bits_per_char_x);
 1427              		.loc 1 1080 0
 1428 001c 04F15005 		add	r5, r4, #80
 1429              	.LVL212:
 1430 0020 94F86610 		ldrb	r1, [r4, #102]	@ zero_extendqisi2
 1431 0024 2846     		mov	r0, r5
 1432 0026 FFF7FEFF 		bl	u8g2_font_decode_get_signed_bits
 1433              	.LVL213:
 1434 002a 3070     		strb	r0, [r6]
1081:/Users/imashio/Electronics/ARM/_Library/u8g2_font.c ****   u8g2_font_decode_get_signed_bits(&(u8g2->font_decode), u8g2->font_info.bits_per_char_y);
 1435              		.loc 1 1081 0
 1436 002c 94F86710 		ldrb	r1, [r4, #103]	@ zero_extendqisi2
 1437 0030 2846     		mov	r0, r5
 1438 0032 FFF7FEFF 		bl	u8g2_font_decode_get_signed_bits
 1439              	.LVL214:
1082:/Users/imashio/Electronics/ARM/_Library/u8g2_font.c ****   *dx = u8g2_font_decode_get_signed_bits(&(u8g2->font_decode), u8g2->font_info.bits_per_delta_x);
 1440              		.loc 1 1082 0
 1441 0036 94F86810 		ldrb	r1, [r4, #104]	@ zero_extendqisi2
 1442 003a 2846     		mov	r0, r5
 1443 003c FFF7FEFF 		bl	u8g2_font_decode_get_signed_bits
 1444              	.LVL215:
 1445 0040 049B     		ldr	r3, [sp, #16]
 1446 0042 1870     		strb	r0, [r3]
 1447              	.L78:
1083:/Users/imashio/Electronics/ARM/_Library/u8g2_font.c **** }
 1448              		.loc 1 1083 0
 1449 0044 70BD     		pop	{r4, r5, r6, pc}
 1450              		.cfi_endproc
 1451              	.LFE41:
 1453              		.section	.text.u8g2_calculate_exact_string_width,"ax",%progbits
 1454              		.align	1
 1455              		.syntax unified
ARM GAS  /var/folders/v3/wysfpd052nz8jkbx04pk0ym80000gn/T//ccfX3eBQ.s 			page 48


 1456              		.thumb
 1457              		.thumb_func
 1458              		.fpu fpv4-sp-d16
 1460              	u8g2_calculate_exact_string_width:
 1461              	.LFB43:
1084:/Users/imashio/Electronics/ARM/_Library/u8g2_font.c **** 
1085:/Users/imashio/Electronics/ARM/_Library/u8g2_font.c **** /* u8g compatible GetStrX function */
1086:/Users/imashio/Electronics/ARM/_Library/u8g2_font.c **** int8_t u8g2_GetStrX(u8g2_t *u8g2, const char *s)
1087:/Users/imashio/Electronics/ARM/_Library/u8g2_font.c **** {
1088:/Users/imashio/Electronics/ARM/_Library/u8g2_font.c ****   uint8_t w;
1089:/Users/imashio/Electronics/ARM/_Library/u8g2_font.c ****   int8_t ox, dx;
1090:/Users/imashio/Electronics/ARM/_Library/u8g2_font.c ****   u8g2_GetGlyphHorizontalProperties(u8g2, *s, &w, &ox, &dx);
1091:/Users/imashio/Electronics/ARM/_Library/u8g2_font.c ****   return ox;
1092:/Users/imashio/Electronics/ARM/_Library/u8g2_font.c **** }
1093:/Users/imashio/Electronics/ARM/_Library/u8g2_font.c **** 
1094:/Users/imashio/Electronics/ARM/_Library/u8g2_font.c **** 
1095:/Users/imashio/Electronics/ARM/_Library/u8g2_font.c **** 
1096:/Users/imashio/Electronics/ARM/_Library/u8g2_font.c **** static u8g2_uint_t u8g2_calculate_exact_string_width(u8g2_t *u8g2, const char *str)
1097:/Users/imashio/Electronics/ARM/_Library/u8g2_font.c **** {
 1462              		.loc 1 1097 0
 1463              		.cfi_startproc
 1464              		@ args = 0, pretend = 0, frame = 8
 1465              		@ frame_needed = 0, uses_anonymous_args = 0
 1466              	.LVL216:
 1467 0000 70B5     		push	{r4, r5, r6, lr}
 1468              	.LCFI14:
 1469              		.cfi_def_cfa_offset 16
 1470              		.cfi_offset 4, -16
 1471              		.cfi_offset 5, -12
 1472              		.cfi_offset 6, -8
 1473              		.cfi_offset 14, -4
 1474 0002 84B0     		sub	sp, sp, #16
 1475              	.LCFI15:
 1476              		.cfi_def_cfa_offset 32
 1477 0004 0446     		mov	r4, r0
 1478 0006 0D46     		mov	r5, r1
 1479              	.LVL217:
 1480              	.L82:
1098:/Users/imashio/Electronics/ARM/_Library/u8g2_font.c **** 
1099:/Users/imashio/Electronics/ARM/_Library/u8g2_font.c ****   u8g2_uint_t  w;
1100:/Users/imashio/Electronics/ARM/_Library/u8g2_font.c ****   uint16_t enc;
1101:/Users/imashio/Electronics/ARM/_Library/u8g2_font.c ****   uint8_t gw; 
1102:/Users/imashio/Electronics/ARM/_Library/u8g2_font.c ****   int8_t ox, dx;
1103:/Users/imashio/Electronics/ARM/_Library/u8g2_font.c ****   
1104:/Users/imashio/Electronics/ARM/_Library/u8g2_font.c ****   /* reset the total minimal width to zero, this will be expanded during calculation */
1105:/Users/imashio/Electronics/ARM/_Library/u8g2_font.c ****   w = 0;
1106:/Users/imashio/Electronics/ARM/_Library/u8g2_font.c ****     
1107:/Users/imashio/Electronics/ARM/_Library/u8g2_font.c ****   
1108:/Users/imashio/Electronics/ARM/_Library/u8g2_font.c ****   /* check for empty string, width is already 0 */
1109:/Users/imashio/Electronics/ARM/_Library/u8g2_font.c ****   do
1110:/Users/imashio/Electronics/ARM/_Library/u8g2_font.c ****   {
1111:/Users/imashio/Electronics/ARM/_Library/u8g2_font.c ****     enc = u8g2->u8x8.next_cb(u8g2_GetU8x8(u8g2), (uint8_t)*str);
 1481              		.loc 1 1111 0 discriminator 1
 1482 0008 6368     		ldr	r3, [r4, #4]
 1483 000a 15F8011B 		ldrb	r1, [r5], #1	@ zero_extendqisi2
 1484              	.LVL218:
 1485 000e 2046     		mov	r0, r4
ARM GAS  /var/folders/v3/wysfpd052nz8jkbx04pk0ym80000gn/T//ccfX3eBQ.s 			page 49


 1486 0010 9847     		blx	r3
 1487              	.LVL219:
1112:/Users/imashio/Electronics/ARM/_Library/u8g2_font.c ****     str++;
1113:/Users/imashio/Electronics/ARM/_Library/u8g2_font.c ****   } while( enc == 0x0fffe );
 1488              		.loc 1 1113 0 discriminator 1
 1489 0012 4FF6FE73 		movw	r3, #65534
 1490 0016 9842     		cmp	r0, r3
 1491 0018 F6D0     		beq	.L82
1114:/Users/imashio/Electronics/ARM/_Library/u8g2_font.c ****   
1115:/Users/imashio/Electronics/ARM/_Library/u8g2_font.c ****   if ( enc== 0x0ffff )
 1492              		.loc 1 1115 0
 1493 001a 4FF6FF73 		movw	r3, #65535
 1494 001e 9842     		cmp	r0, r3
 1495 0020 3BD0     		beq	.L88
1116:/Users/imashio/Electronics/ARM/_Library/u8g2_font.c ****      return w;
1117:/Users/imashio/Electronics/ARM/_Library/u8g2_font.c ****   
1118:/Users/imashio/Electronics/ARM/_Library/u8g2_font.c ****   /* get the glyph information of the first char. This must be valid, because we already checked fo
1119:/Users/imashio/Electronics/ARM/_Library/u8g2_font.c ****   /* if *s is not inside the font, then the cached parameters of the glyph are all zero */
1120:/Users/imashio/Electronics/ARM/_Library/u8g2_font.c ****   u8g2_GetGlyphHorizontalProperties(u8g2, enc, &gw, &ox, &dx);  
 1496              		.loc 1 1120 0
 1497 0022 0DF10D03 		add	r3, sp, #13
 1498 0026 0093     		str	r3, [sp]
 1499 0028 0DF10E03 		add	r3, sp, #14
 1500 002c 0DF10F02 		add	r2, sp, #15
 1501 0030 0146     		mov	r1, r0
 1502 0032 2046     		mov	r0, r4
 1503              	.LVL220:
 1504 0034 FFF7FEFF 		bl	u8g2_GetGlyphHorizontalProperties
 1505              	.LVL221:
1121:/Users/imashio/Electronics/ARM/_Library/u8g2_font.c **** 
1122:/Users/imashio/Electronics/ARM/_Library/u8g2_font.c ****   /* strlen(s) == 1:       width = width(s[0]) */
1123:/Users/imashio/Electronics/ARM/_Library/u8g2_font.c ****   /* strlen(s) == 2:       width = - offx(s[0]) + deltax(s[0]) + offx(s[1]) + width(s[1]) */
1124:/Users/imashio/Electronics/ARM/_Library/u8g2_font.c ****   /* strlen(s) == 3:       width = - offx(s[0]) + deltax(s[0]) + deltax(s[1]) + offx(s[2]) + width(
1125:/Users/imashio/Electronics/ARM/_Library/u8g2_font.c ****   
1126:/Users/imashio/Electronics/ARM/_Library/u8g2_font.c ****   /* assume that the string has size 2 or more, than start with negative offset-x */
1127:/Users/imashio/Electronics/ARM/_Library/u8g2_font.c ****   /* for string with size 1, this will be nullified after the loop */
1128:/Users/imashio/Electronics/ARM/_Library/u8g2_font.c ****   w = -ox;  
 1506              		.loc 1 1128 0
 1507 0038 9DF80E30 		ldrb	r3, [sp, #14]	@ zero_extendqisi2
 1508 003c 5B42     		negs	r3, r3
 1509 003e DEB2     		uxtb	r6, r3
 1510              	.LVL222:
 1511              	.L84:
1129:/Users/imashio/Electronics/ARM/_Library/u8g2_font.c ****   for(;;)
1130:/Users/imashio/Electronics/ARM/_Library/u8g2_font.c ****   {
1131:/Users/imashio/Electronics/ARM/_Library/u8g2_font.c ****     
1132:/Users/imashio/Electronics/ARM/_Library/u8g2_font.c ****     /* check and stop if the end of the string is reached */
1133:/Users/imashio/Electronics/ARM/_Library/u8g2_font.c ****     do
1134:/Users/imashio/Electronics/ARM/_Library/u8g2_font.c ****     {
1135:/Users/imashio/Electronics/ARM/_Library/u8g2_font.c ****       enc = u8g2->u8x8.next_cb(u8g2_GetU8x8(u8g2), (uint8_t)*str);
 1512              		.loc 1 1135 0 discriminator 1
 1513 0040 6368     		ldr	r3, [r4, #4]
 1514 0042 15F8011B 		ldrb	r1, [r5], #1	@ zero_extendqisi2
 1515              	.LVL223:
 1516 0046 2046     		mov	r0, r4
 1517 0048 9847     		blx	r3
 1518              	.LVL224:
ARM GAS  /var/folders/v3/wysfpd052nz8jkbx04pk0ym80000gn/T//ccfX3eBQ.s 			page 50


1136:/Users/imashio/Electronics/ARM/_Library/u8g2_font.c ****       str++;
1137:/Users/imashio/Electronics/ARM/_Library/u8g2_font.c ****     } while( enc == 0x0fffe );
 1519              		.loc 1 1137 0 discriminator 1
 1520 004a 4FF6FE73 		movw	r3, #65534
 1521 004e 9842     		cmp	r0, r3
 1522 0050 F6D0     		beq	.L84
1138:/Users/imashio/Electronics/ARM/_Library/u8g2_font.c ****     if ( enc== 0x0ffff )
 1523              		.loc 1 1138 0
 1524 0052 4FF6FF73 		movw	r3, #65535
 1525 0056 9842     		cmp	r0, r3
 1526 0058 0FD0     		beq	.L86
1139:/Users/imashio/Electronics/ARM/_Library/u8g2_font.c ****       break;
1140:/Users/imashio/Electronics/ARM/_Library/u8g2_font.c **** 
1141:/Users/imashio/Electronics/ARM/_Library/u8g2_font.c ****     u8g2_GetGlyphHorizontalProperties(u8g2, enc, &gw, &ox, &dx);  
 1527              		.loc 1 1141 0
 1528 005a 0DF10D03 		add	r3, sp, #13
 1529 005e 0093     		str	r3, [sp]
 1530 0060 0DF10E03 		add	r3, sp, #14
 1531 0064 0DF10F02 		add	r2, sp, #15
 1532 0068 0146     		mov	r1, r0
 1533 006a 2046     		mov	r0, r4
 1534              	.LVL225:
 1535 006c FFF7FEFF 		bl	u8g2_GetGlyphHorizontalProperties
 1536              	.LVL226:
1142:/Users/imashio/Electronics/ARM/_Library/u8g2_font.c ****     
1143:/Users/imashio/Electronics/ARM/_Library/u8g2_font.c ****     /* if there are still more characters, add the delta to the next glyph */
1144:/Users/imashio/Electronics/ARM/_Library/u8g2_font.c ****     w += dx;    
 1537              		.loc 1 1144 0
 1538 0070 9DF80D30 		ldrb	r3, [sp, #13]	@ zero_extendqisi2
 1539 0074 3344     		add	r3, r3, r6
 1540 0076 DEB2     		uxtb	r6, r3
 1541              	.LVL227:
1129:/Users/imashio/Electronics/ARM/_Library/u8g2_font.c ****   {
 1542              		.loc 1 1129 0
 1543 0078 E2E7     		b	.L84
 1544              	.LVL228:
 1545              	.L86:
1145:/Users/imashio/Electronics/ARM/_Library/u8g2_font.c ****   }
1146:/Users/imashio/Electronics/ARM/_Library/u8g2_font.c ****   
1147:/Users/imashio/Electronics/ARM/_Library/u8g2_font.c ****   /* finally calculate the width of the last char */
1148:/Users/imashio/Electronics/ARM/_Library/u8g2_font.c ****   /* here is another exception, if the last char is a black, use the dx value instead */
1149:/Users/imashio/Electronics/ARM/_Library/u8g2_font.c ****   if ( enc != ' ' )
 1546              		.loc 1 1149 0
 1547 007a 2028     		cmp	r0, #32
 1548 007c 08D0     		beq	.L87
1150:/Users/imashio/Electronics/ARM/_Library/u8g2_font.c ****   {
1151:/Users/imashio/Electronics/ARM/_Library/u8g2_font.c ****     /* if g was not updated in the for loop (strlen() == 1), then the initial offset x gets removed
1152:/Users/imashio/Electronics/ARM/_Library/u8g2_font.c ****     w += gw;
 1549              		.loc 1 1152 0
 1550 007e 9DF80F30 		ldrb	r3, [sp, #15]	@ zero_extendqisi2
 1551 0082 3344     		add	r3, r3, r6
 1552              	.LVL229:
1153:/Users/imashio/Electronics/ARM/_Library/u8g2_font.c ****     w += ox;
 1553              		.loc 1 1153 0
 1554 0084 9DF80E00 		ldrb	r0, [sp, #14]	@ zero_extendqisi2
 1555              	.LVL230:
 1556 0088 50FA83F3 		uxtab	r3, r0, r3
ARM GAS  /var/folders/v3/wysfpd052nz8jkbx04pk0ym80000gn/T//ccfX3eBQ.s 			page 51


 1557              	.LVL231:
 1558 008c D8B2     		uxtb	r0, r3
 1559              	.LVL232:
 1560 008e 05E0     		b	.L83
 1561              	.LVL233:
 1562              	.L87:
1154:/Users/imashio/Electronics/ARM/_Library/u8g2_font.c ****   }
1155:/Users/imashio/Electronics/ARM/_Library/u8g2_font.c ****   else
1156:/Users/imashio/Electronics/ARM/_Library/u8g2_font.c ****   {
1157:/Users/imashio/Electronics/ARM/_Library/u8g2_font.c ****     w += dx;
 1563              		.loc 1 1157 0
 1564 0090 9DF80D30 		ldrb	r3, [sp, #13]	@ zero_extendqisi2
 1565 0094 3344     		add	r3, r3, r6
 1566 0096 D8B2     		uxtb	r0, r3
 1567              	.LVL234:
 1568 0098 00E0     		b	.L83
 1569              	.LVL235:
 1570              	.L88:
1116:/Users/imashio/Electronics/ARM/_Library/u8g2_font.c ****   
 1571              		.loc 1 1116 0
 1572 009a 0020     		movs	r0, #0
 1573              	.LVL236:
 1574              	.L83:
1158:/Users/imashio/Electronics/ARM/_Library/u8g2_font.c ****   }
1159:/Users/imashio/Electronics/ARM/_Library/u8g2_font.c ****   
1160:/Users/imashio/Electronics/ARM/_Library/u8g2_font.c ****   
1161:/Users/imashio/Electronics/ARM/_Library/u8g2_font.c ****   return w;
1162:/Users/imashio/Electronics/ARM/_Library/u8g2_font.c **** 	
1163:/Users/imashio/Electronics/ARM/_Library/u8g2_font.c **** }
 1575              		.loc 1 1163 0
 1576 009c 04B0     		add	sp, sp, #16
 1577              	.LCFI16:
 1578              		.cfi_def_cfa_offset 16
 1579              		@ sp needed
 1580 009e 70BD     		pop	{r4, r5, r6, pc}
 1581              		.cfi_endproc
 1582              	.LFE43:
 1584              		.section	.text.u8g2_IsGlyph,"ax",%progbits
 1585              		.align	1
 1586              		.global	u8g2_IsGlyph
 1587              		.syntax unified
 1588              		.thumb
 1589              		.thumb_func
 1590              		.fpu fpv4-sp-d16
 1592              	u8g2_IsGlyph:
 1593              	.LFB18:
 681:/Users/imashio/Electronics/ARM/_Library/u8g2_font.c ****   /* updated to new code */
 1594              		.loc 1 681 0
 1595              		.cfi_startproc
 1596              		@ args = 0, pretend = 0, frame = 0
 1597              		@ frame_needed = 0, uses_anonymous_args = 0
 1598              	.LVL237:
 1599 0000 08B5     		push	{r3, lr}
 1600              	.LCFI17:
 1601              		.cfi_def_cfa_offset 8
 1602              		.cfi_offset 3, -8
 1603              		.cfi_offset 14, -4
ARM GAS  /var/folders/v3/wysfpd052nz8jkbx04pk0ym80000gn/T//ccfX3eBQ.s 			page 52


 683:/Users/imashio/Electronics/ARM/_Library/u8g2_font.c ****     return 1;
 1604              		.loc 1 683 0
 1605 0002 FFF7FEFF 		bl	u8g2_font_get_glyph_data
 1606              	.LVL238:
 1607 0006 08B1     		cbz	r0, .L92
 684:/Users/imashio/Electronics/ARM/_Library/u8g2_font.c ****   return 0;
 1608              		.loc 1 684 0
 1609 0008 0120     		movs	r0, #1
 1610              	.L91:
 686:/Users/imashio/Electronics/ARM/_Library/u8g2_font.c **** 
 1611              		.loc 1 686 0
 1612 000a 08BD     		pop	{r3, pc}
 1613              	.L92:
 685:/Users/imashio/Electronics/ARM/_Library/u8g2_font.c **** }
 1614              		.loc 1 685 0
 1615 000c 0020     		movs	r0, #0
 1616 000e FCE7     		b	.L91
 1617              		.cfi_endproc
 1618              	.LFE18:
 1620              		.section	.text.u8g2_GetGlyphWidth,"ax",%progbits
 1621              		.align	1
 1622              		.global	u8g2_GetGlyphWidth
 1623              		.syntax unified
 1624              		.thumb
 1625              		.thumb_func
 1626              		.fpu fpv4-sp-d16
 1628              	u8g2_GetGlyphWidth:
 1629              	.LFB19:
 690:/Users/imashio/Electronics/ARM/_Library/u8g2_font.c ****   const uint8_t *glyph_data = u8g2_font_get_glyph_data(u8g2, requested_encoding);
 1630              		.loc 1 690 0
 1631              		.cfi_startproc
 1632              		@ args = 0, pretend = 0, frame = 0
 1633              		@ frame_needed = 0, uses_anonymous_args = 0
 1634              	.LVL239:
 1635 0000 38B5     		push	{r3, r4, r5, lr}
 1636              	.LCFI18:
 1637              		.cfi_def_cfa_offset 16
 1638              		.cfi_offset 3, -16
 1639              		.cfi_offset 4, -12
 1640              		.cfi_offset 5, -8
 1641              		.cfi_offset 14, -4
 1642 0002 0446     		mov	r4, r0
 691:/Users/imashio/Electronics/ARM/_Library/u8g2_font.c ****   if ( glyph_data == NULL )
 1643              		.loc 1 691 0
 1644 0004 FFF7FEFF 		bl	u8g2_font_get_glyph_data
 1645              	.LVL240:
 692:/Users/imashio/Electronics/ARM/_Library/u8g2_font.c ****     return 0; 
 1646              		.loc 1 692 0
 1647 0008 B8B1     		cbz	r0, .L96
 1648 000a 0146     		mov	r1, r0
 695:/Users/imashio/Electronics/ARM/_Library/u8g2_font.c ****   u8g2->glyph_x_offset = u8g2_font_decode_get_signed_bits(&(u8g2->font_decode), u8g2->font_info.bit
 1649              		.loc 1 695 0
 1650 000c 2046     		mov	r0, r4
 1651              	.LVL241:
 1652 000e FFF7FEFF 		bl	u8g2_font_setup_decode
 1653              	.LVL242:
 696:/Users/imashio/Electronics/ARM/_Library/u8g2_font.c ****   u8g2_font_decode_get_signed_bits(&(u8g2->font_decode), u8g2->font_info.bits_per_char_y);
ARM GAS  /var/folders/v3/wysfpd052nz8jkbx04pk0ym80000gn/T//ccfX3eBQ.s 			page 53


 1654              		.loc 1 696 0
 1655 0012 04F15005 		add	r5, r4, #80
 1656 0016 94F86610 		ldrb	r1, [r4, #102]	@ zero_extendqisi2
 1657 001a 2846     		mov	r0, r5
 1658 001c FFF7FEFF 		bl	u8g2_font_decode_get_signed_bits
 1659              	.LVL243:
 1660 0020 84F87B00 		strb	r0, [r4, #123]
 697:/Users/imashio/Electronics/ARM/_Library/u8g2_font.c ****   
 1661              		.loc 1 697 0
 1662 0024 94F86710 		ldrb	r1, [r4, #103]	@ zero_extendqisi2
 1663 0028 2846     		mov	r0, r5
 1664 002a FFF7FEFF 		bl	u8g2_font_decode_get_signed_bits
 1665              	.LVL244:
 701:/Users/imashio/Electronics/ARM/_Library/u8g2_font.c **** }
 1666              		.loc 1 701 0
 1667 002e 94F86810 		ldrb	r1, [r4, #104]	@ zero_extendqisi2
 1668 0032 2846     		mov	r0, r5
 1669 0034 FFF7FEFF 		bl	u8g2_font_decode_get_signed_bits
 1670              	.LVL245:
 1671              	.L95:
 702:/Users/imashio/Electronics/ARM/_Library/u8g2_font.c **** 
 1672              		.loc 1 702 0
 1673 0038 38BD     		pop	{r3, r4, r5, pc}
 1674              	.LVL246:
 1675              	.L96:
 693:/Users/imashio/Electronics/ARM/_Library/u8g2_font.c ****   
 1676              		.loc 1 693 0
 1677 003a 0020     		movs	r0, #0
 1678              	.LVL247:
 1679 003c FCE7     		b	.L95
 1680              		.cfi_endproc
 1681              	.LFE19:
 1683              		.section	.text.u8g2_string_width,"ax",%progbits
 1684              		.align	1
 1685              		.syntax unified
 1686              		.thumb
 1687              		.thumb_func
 1688              		.fpu fpv4-sp-d16
 1690              	u8g2_string_width:
 1691              	.LFB40:
1033:/Users/imashio/Electronics/ARM/_Library/u8g2_font.c ****   uint16_t e;
 1692              		.loc 1 1033 0
 1693              		.cfi_startproc
 1694              		@ args = 0, pretend = 0, frame = 0
 1695              		@ frame_needed = 0, uses_anonymous_args = 0
 1696              	.LVL248:
 1697 0000 F8B5     		push	{r3, r4, r5, r6, r7, lr}
 1698              	.LCFI19:
 1699              		.cfi_def_cfa_offset 24
 1700              		.cfi_offset 3, -24
 1701              		.cfi_offset 4, -20
 1702              		.cfi_offset 5, -16
 1703              		.cfi_offset 6, -12
 1704              		.cfi_offset 7, -8
 1705              		.cfi_offset 14, -4
 1706 0002 0446     		mov	r4, r0
 1707 0004 0D46     		mov	r5, r1
ARM GAS  /var/folders/v3/wysfpd052nz8jkbx04pk0ym80000gn/T//ccfX3eBQ.s 			page 54


1037:/Users/imashio/Electronics/ARM/_Library/u8g2_font.c ****   u8x8_utf8_init(u8g2_GetU8x8(u8g2));
 1708              		.loc 1 1037 0
 1709 0006 0026     		movs	r6, #0
 1710 0008 80F85860 		strb	r6, [r0, #88]
1038:/Users/imashio/Electronics/ARM/_Library/u8g2_font.c ****   
 1711              		.loc 1 1038 0
 1712 000c FFF7FEFF 		bl	u8x8_utf8_init
 1713              	.LVL249:
1042:/Users/imashio/Electronics/ARM/_Library/u8g2_font.c **** 
 1714              		.loc 1 1042 0
 1715 0010 3746     		mov	r7, r6
 1716              	.LVL250:
 1717              	.L99:
1048:/Users/imashio/Electronics/ARM/_Library/u8g2_font.c ****     if ( e == 0x0ffff )
 1718              		.loc 1 1048 0
 1719 0012 6368     		ldr	r3, [r4, #4]
 1720 0014 2978     		ldrb	r1, [r5]	@ zero_extendqisi2
 1721 0016 2046     		mov	r0, r4
 1722 0018 9847     		blx	r3
 1723              	.LVL251:
1049:/Users/imashio/Electronics/ARM/_Library/u8g2_font.c ****       break;
 1724              		.loc 1 1049 0
 1725 001a 4FF6FF73 		movw	r3, #65535
 1726 001e 9842     		cmp	r0, r3
 1727 0020 0CD0     		beq	.L100
1051:/Users/imashio/Electronics/ARM/_Library/u8g2_font.c ****     if ( e != 0x0fffe )
 1728              		.loc 1 1051 0
 1729 0022 0135     		adds	r5, r5, #1
 1730              	.LVL252:
1052:/Users/imashio/Electronics/ARM/_Library/u8g2_font.c ****     {
 1731              		.loc 1 1052 0
 1732 0024 4FF6FE73 		movw	r3, #65534
 1733 0028 9842     		cmp	r0, r3
 1734 002a F2D0     		beq	.L99
1054:/Users/imashio/Electronics/ARM/_Library/u8g2_font.c ****       w += dx;
 1735              		.loc 1 1054 0
 1736 002c 0146     		mov	r1, r0
 1737 002e 2046     		mov	r0, r4
 1738              	.LVL253:
 1739 0030 FFF7FEFF 		bl	u8g2_GetGlyphWidth
 1740              	.LVL254:
 1741 0034 C7B2     		uxtb	r7, r0
 1742              	.LVL255:
1055:/Users/imashio/Electronics/ARM/_Library/u8g2_font.c ****     }
 1743              		.loc 1 1055 0
 1744 0036 3E44     		add	r6, r6, r7
 1745              	.LVL256:
 1746 0038 F6B2     		uxtb	r6, r6
 1747              	.LVL257:
 1748 003a EAE7     		b	.L99
 1749              	.LVL258:
 1750              	.L100:
1060:/Users/imashio/Electronics/ARM/_Library/u8g2_font.c ****   {
 1751              		.loc 1 1060 0
 1752 003c 94F95830 		ldrsb	r3, [r4, #88]
 1753 0040 43B1     		cbz	r3, .L102
1062:/Users/imashio/Electronics/ARM/_Library/u8g2_font.c ****     w += u8g2->font_decode.glyph_width;  /* the real pixel width of the glyph, sideeffect of GetGly
ARM GAS  /var/folders/v3/wysfpd052nz8jkbx04pk0ym80000gn/T//ccfX3eBQ.s 			page 55


 1754              		.loc 1 1062 0
 1755 0042 F61B     		subs	r6, r6, r7
 1756              	.LVL259:
1063:/Users/imashio/Electronics/ARM/_Library/u8g2_font.c ****     /* issue #46: we have to add the x offset also */
 1757              		.loc 1 1063 0
 1758 0044 DBB2     		uxtb	r3, r3
 1759 0046 53FA86F6 		uxtab	r6, r3, r6
 1760              	.LVL260:
1065:/Users/imashio/Electronics/ARM/_Library/u8g2_font.c ****   }
 1761              		.loc 1 1065 0
 1762 004a 94F87B70 		ldrb	r7, [r4, #123]	@ zero_extendqisi2
 1763              	.LVL261:
 1764 004e 57FA86F6 		uxtab	r6, r7, r6
 1765              	.LVL262:
 1766 0052 F6B2     		uxtb	r6, r6
 1767              	.LVL263:
 1768              	.L102:
1070:/Users/imashio/Electronics/ARM/_Library/u8g2_font.c **** 
 1769              		.loc 1 1070 0
 1770 0054 3046     		mov	r0, r6
 1771              	.LVL264:
 1772 0056 F8BD     		pop	{r3, r4, r5, r6, r7, pc}
 1773              		.cfi_endproc
 1774              	.LFE40:
 1776              		.section	.text.u8g2_SetFontMode,"ax",%progbits
 1777              		.align	1
 1778              		.global	u8g2_SetFontMode
 1779              		.syntax unified
 1780              		.thumb
 1781              		.thumb_func
 1782              		.fpu fpv4-sp-d16
 1784              	u8g2_SetFontMode:
 1785              	.LFB20:
 713:/Users/imashio/Electronics/ARM/_Library/u8g2_font.c ****   u8g2->font_decode.is_transparent = is_transparent;		// new font procedures
 1786              		.loc 1 713 0
 1787              		.cfi_startproc
 1788              		@ args = 0, pretend = 0, frame = 0
 1789              		@ frame_needed = 0, uses_anonymous_args = 0
 1790              		@ link register save eliminated.
 1791              	.LVL265:
 714:/Users/imashio/Electronics/ARM/_Library/u8g2_font.c **** }
 1792              		.loc 1 714 0
 1793 0000 80F85B10 		strb	r1, [r0, #91]
 715:/Users/imashio/Electronics/ARM/_Library/u8g2_font.c **** 
 1794              		.loc 1 715 0
 1795 0004 7047     		bx	lr
 1796              		.cfi_endproc
 1797              	.LFE20:
 1799              		.section	.text.u8g2_DrawGlyph,"ax",%progbits
 1800              		.align	1
 1801              		.global	u8g2_DrawGlyph
 1802              		.syntax unified
 1803              		.thumb
 1804              		.thumb_func
 1805              		.fpu fpv4-sp-d16
 1807              	u8g2_DrawGlyph:
 1808              	.LFB21:
ARM GAS  /var/folders/v3/wysfpd052nz8jkbx04pk0ym80000gn/T//ccfX3eBQ.s 			page 56


 718:/Users/imashio/Electronics/ARM/_Library/u8g2_font.c **** #ifdef U8G2_WITH_FONT_ROTATION
 1809              		.loc 1 718 0
 1810              		.cfi_startproc
 1811              		@ args = 0, pretend = 0, frame = 0
 1812              		@ frame_needed = 0, uses_anonymous_args = 0
 1813              	.LVL266:
 1814 0000 F8B5     		push	{r3, r4, r5, r6, r7, lr}
 1815              	.LCFI20:
 1816              		.cfi_def_cfa_offset 24
 1817              		.cfi_offset 3, -24
 1818              		.cfi_offset 4, -20
 1819              		.cfi_offset 5, -16
 1820              		.cfi_offset 6, -12
 1821              		.cfi_offset 7, -8
 1822              		.cfi_offset 14, -4
 1823 0002 0446     		mov	r4, r0
 1824 0004 0D46     		mov	r5, r1
 1825 0006 1646     		mov	r6, r2
 1826 0008 1F46     		mov	r7, r3
 720:/Users/imashio/Electronics/ARM/_Library/u8g2_font.c ****   {
 1827              		.loc 1 720 0
 1828 000a 90F85E30 		ldrb	r3, [r0, #94]	@ zero_extendqisi2
 1829              	.LVL267:
 1830 000e 032B     		cmp	r3, #3
 1831 0010 07D8     		bhi	.L106
 1832 0012 DFE803F0 		tbb	[pc, r3]
 1833              	.LVL268:
 1834              	.L108:
 1835 0016 02       		.byte	(.L107-.L108)/2
 1836 0017 0D       		.byte	(.L109-.L108)/2
 1837 0018 12       		.byte	(.L110-.L108)/2
 1838 0019 17       		.byte	(.L111-.L108)/2
 1839              		.p2align 1
 1840              	.L107:
 723:/Users/imashio/Electronics/ARM/_Library/u8g2_font.c ****       break;
 1841              		.loc 1 723 0
 1842 001a C36C     		ldr	r3, [r0, #76]
 1843 001c 9847     		blx	r3
 1844              	.LVL269:
 1845 001e 0644     		add	r6, r6, r0
 1846 0020 F6B2     		uxtb	r6, r6
 1847              	.LVL270:
 1848              	.L106:
 738:/Users/imashio/Electronics/ARM/_Library/u8g2_font.c **** }
 1849              		.loc 1 738 0
 1850 0022 3B46     		mov	r3, r7
 1851 0024 3246     		mov	r2, r6
 1852 0026 2946     		mov	r1, r5
 1853 0028 2046     		mov	r0, r4
 1854 002a FFF7FEFF 		bl	u8g2_font_draw_glyph
 1855              	.LVL271:
 739:/Users/imashio/Electronics/ARM/_Library/u8g2_font.c **** 
 1856              		.loc 1 739 0
 1857 002e F8BD     		pop	{r3, r4, r5, r6, r7, pc}
 1858              	.LVL272:
 1859              	.L109:
 726:/Users/imashio/Electronics/ARM/_Library/u8g2_font.c ****       break;
ARM GAS  /var/folders/v3/wysfpd052nz8jkbx04pk0ym80000gn/T//ccfX3eBQ.s 			page 57


 1860              		.loc 1 726 0
 1861 0030 C36C     		ldr	r3, [r0, #76]
 1862 0032 9847     		blx	r3
 1863              	.LVL273:
 1864 0034 2D1A     		subs	r5, r5, r0
 1865 0036 EDB2     		uxtb	r5, r5
 1866              	.LVL274:
 727:/Users/imashio/Electronics/ARM/_Library/u8g2_font.c ****     case 2:
 1867              		.loc 1 727 0
 1868 0038 F3E7     		b	.L106
 1869              	.LVL275:
 1870              	.L110:
 729:/Users/imashio/Electronics/ARM/_Library/u8g2_font.c ****       break;
 1871              		.loc 1 729 0
 1872 003a C36C     		ldr	r3, [r0, #76]
 1873 003c 9847     		blx	r3
 1874              	.LVL276:
 1875 003e 361A     		subs	r6, r6, r0
 1876 0040 F6B2     		uxtb	r6, r6
 1877              	.LVL277:
 730:/Users/imashio/Electronics/ARM/_Library/u8g2_font.c ****     case 3:
 1878              		.loc 1 730 0
 1879 0042 EEE7     		b	.L106
 1880              	.LVL278:
 1881              	.L111:
 732:/Users/imashio/Electronics/ARM/_Library/u8g2_font.c ****       break;
 1882              		.loc 1 732 0
 1883 0044 C36C     		ldr	r3, [r0, #76]
 1884 0046 9847     		blx	r3
 1885              	.LVL279:
 1886 0048 0544     		add	r5, r5, r0
 1887 004a EDB2     		uxtb	r5, r5
 1888              	.LVL280:
 733:/Users/imashio/Electronics/ARM/_Library/u8g2_font.c ****   }
 1889              		.loc 1 733 0
 1890 004c E9E7     		b	.L106
 1891              		.cfi_endproc
 1892              	.LFE21:
 1894              		.section	.text.u8g2_draw_string,"ax",%progbits
 1895              		.align	1
 1896              		.syntax unified
 1897              		.thumb
 1898              		.thumb_func
 1899              		.fpu fpv4-sp-d16
 1901              	u8g2_draw_string:
 1902              	.LFB22:
 743:/Users/imashio/Electronics/ARM/_Library/u8g2_font.c ****   uint16_t e;
 1903              		.loc 1 743 0
 1904              		.cfi_startproc
 1905              		@ args = 0, pretend = 0, frame = 0
 1906              		@ frame_needed = 0, uses_anonymous_args = 0
 1907              	.LVL281:
 1908 0000 2DE9F041 		push	{r4, r5, r6, r7, r8, lr}
 1909              	.LCFI21:
 1910              		.cfi_def_cfa_offset 24
 1911              		.cfi_offset 4, -24
 1912              		.cfi_offset 5, -20
ARM GAS  /var/folders/v3/wysfpd052nz8jkbx04pk0ym80000gn/T//ccfX3eBQ.s 			page 58


 1913              		.cfi_offset 6, -16
 1914              		.cfi_offset 7, -12
 1915              		.cfi_offset 8, -8
 1916              		.cfi_offset 14, -4
 1917 0004 0446     		mov	r4, r0
 1918 0006 0F46     		mov	r7, r1
 1919 0008 1646     		mov	r6, r2
 1920 000a 1D46     		mov	r5, r3
 746:/Users/imashio/Electronics/ARM/_Library/u8g2_font.c ****   sum = 0;
 1921              		.loc 1 746 0
 1922 000c FFF7FEFF 		bl	u8x8_utf8_init
 1923              	.LVL282:
 747:/Users/imashio/Electronics/ARM/_Library/u8g2_font.c ****   for(;;)
 1924              		.loc 1 747 0
 1925 0010 4FF00008 		mov	r8, #0
 1926 0014 04E0     		b	.L114
 1927              	.LVL283:
 1928              	.L118:
 762:/Users/imashio/Electronics/ARM/_Library/u8g2_font.c **** 	  break;
 1929              		.loc 1 762 0
 1930 0016 0744     		add	r7, r7, r0
 1931              	.LVL284:
 1932 0018 FFB2     		uxtb	r7, r7
 1933              	.LVL285:
 1934              	.L117:
 778:/Users/imashio/Electronics/ARM/_Library/u8g2_font.c ****     }
 1935              		.loc 1 778 0
 1936 001a 8044     		add	r8, r8, r0
 1937              	.LVL286:
 1938 001c 5FFA88F8 		uxtb	r8, r8
 1939              	.LVL287:
 1940              	.L114:
 750:/Users/imashio/Electronics/ARM/_Library/u8g2_font.c ****     if ( e == 0x0ffff )
 1941              		.loc 1 750 0
 1942 0020 6368     		ldr	r3, [r4, #4]
 1943 0022 2978     		ldrb	r1, [r5]	@ zero_extendqisi2
 1944 0024 2046     		mov	r0, r4
 1945 0026 9847     		blx	r3
 1946              	.LVL288:
 751:/Users/imashio/Electronics/ARM/_Library/u8g2_font.c ****       break;
 1947              		.loc 1 751 0
 1948 0028 4FF6FF73 		movw	r3, #65535
 1949 002c 9842     		cmp	r0, r3
 1950 002e 22D0     		beq	.L115
 753:/Users/imashio/Electronics/ARM/_Library/u8g2_font.c ****     if ( e != 0x0fffe )
 1951              		.loc 1 753 0
 1952 0030 0135     		adds	r5, r5, #1
 1953              	.LVL289:
 754:/Users/imashio/Electronics/ARM/_Library/u8g2_font.c ****     {
 1954              		.loc 1 754 0
 1955 0032 4FF6FE73 		movw	r3, #65534
 1956 0036 9842     		cmp	r0, r3
 1957 0038 F2D0     		beq	.L114
 756:/Users/imashio/Electronics/ARM/_Library/u8g2_font.c ****     
 1958              		.loc 1 756 0
 1959 003a 0346     		mov	r3, r0
 1960 003c 3246     		mov	r2, r6
ARM GAS  /var/folders/v3/wysfpd052nz8jkbx04pk0ym80000gn/T//ccfX3eBQ.s 			page 59


 1961 003e 3946     		mov	r1, r7
 1962 0040 2046     		mov	r0, r4
 1963              	.LVL290:
 1964 0042 FFF7FEFF 		bl	u8g2_DrawGlyph
 1965              	.LVL291:
 759:/Users/imashio/Electronics/ARM/_Library/u8g2_font.c ****       {
 1966              		.loc 1 759 0
 1967 0046 94F85E30 		ldrb	r3, [r4, #94]	@ zero_extendqisi2
 1968 004a 032B     		cmp	r3, #3
 1969 004c E5D8     		bhi	.L117
 1970 004e 01A2     		adr	r2, .L119
 1971 0050 52F823F0 		ldr	pc, [r2, r3, lsl #2]
 1972              		.p2align 2
 1973              	.L119:
 1974 0054 17000000 		.word	.L118+1
 1975 0058 65000000 		.word	.L120+1
 1976 005c 6B000000 		.word	.L121+1
 1977 0060 71000000 		.word	.L122+1
 1978              		.p2align 1
 1979              	.L120:
 765:/Users/imashio/Electronics/ARM/_Library/u8g2_font.c **** 	  break;
 1980              		.loc 1 765 0
 1981 0064 0644     		add	r6, r6, r0
 1982              	.LVL292:
 1983 0066 F6B2     		uxtb	r6, r6
 1984              	.LVL293:
 766:/Users/imashio/Electronics/ARM/_Library/u8g2_font.c **** 	case 2:
 1985              		.loc 1 766 0
 1986 0068 D7E7     		b	.L117
 1987              	.L121:
 768:/Users/imashio/Electronics/ARM/_Library/u8g2_font.c **** 	  break;
 1988              		.loc 1 768 0
 1989 006a 3F1A     		subs	r7, r7, r0
 1990              	.LVL294:
 1991 006c FFB2     		uxtb	r7, r7
 1992              	.LVL295:
 769:/Users/imashio/Electronics/ARM/_Library/u8g2_font.c **** 	case 3:
 1993              		.loc 1 769 0
 1994 006e D4E7     		b	.L117
 1995              	.L122:
 771:/Users/imashio/Electronics/ARM/_Library/u8g2_font.c **** 	  break;
 1996              		.loc 1 771 0
 1997 0070 361A     		subs	r6, r6, r0
 1998              	.LVL296:
 1999 0072 F6B2     		uxtb	r6, r6
 2000              	.LVL297:
 772:/Users/imashio/Electronics/ARM/_Library/u8g2_font.c ****       }
 2001              		.loc 1 772 0
 2002 0074 D1E7     		b	.L117
 2003              	.LVL298:
 2004              	.L115:
 782:/Users/imashio/Electronics/ARM/_Library/u8g2_font.c **** 
 2005              		.loc 1 782 0
 2006 0076 4046     		mov	r0, r8
 2007              	.LVL299:
 2008 0078 BDE8F081 		pop	{r4, r5, r6, r7, r8, pc}
 2009              		.cfi_endproc
ARM GAS  /var/folders/v3/wysfpd052nz8jkbx04pk0ym80000gn/T//ccfX3eBQ.s 			page 60


 2010              	.LFE22:
 2012              		.section	.text.u8g2_DrawStr,"ax",%progbits
 2013              		.align	1
 2014              		.global	u8g2_DrawStr
 2015              		.syntax unified
 2016              		.thumb
 2017              		.thumb_func
 2018              		.fpu fpv4-sp-d16
 2020              	u8g2_DrawStr:
 2021              	.LFB23:
 785:/Users/imashio/Electronics/ARM/_Library/u8g2_font.c ****   u8g2->u8x8.next_cb = u8x8_ascii_next;
 2022              		.loc 1 785 0
 2023              		.cfi_startproc
 2024              		@ args = 0, pretend = 0, frame = 0
 2025              		@ frame_needed = 0, uses_anonymous_args = 0
 2026              	.LVL300:
 2027 0000 10B5     		push	{r4, lr}
 2028              	.LCFI22:
 2029              		.cfi_def_cfa_offset 8
 2030              		.cfi_offset 4, -8
 2031              		.cfi_offset 14, -4
 786:/Users/imashio/Electronics/ARM/_Library/u8g2_font.c ****   return u8g2_draw_string(u8g2, x, y, str);
 2032              		.loc 1 786 0
 2033 0002 024C     		ldr	r4, .L126
 2034 0004 4460     		str	r4, [r0, #4]
 787:/Users/imashio/Electronics/ARM/_Library/u8g2_font.c **** }
 2035              		.loc 1 787 0
 2036 0006 FFF7FEFF 		bl	u8g2_draw_string
 2037              	.LVL301:
 788:/Users/imashio/Electronics/ARM/_Library/u8g2_font.c **** 
 2038              		.loc 1 788 0
 2039 000a 10BD     		pop	{r4, pc}
 2040              	.L127:
 2041              		.align	2
 2042              	.L126:
 2043 000c 00000000 		.word	u8x8_ascii_next
 2044              		.cfi_endproc
 2045              	.LFE23:
 2047              		.section	.text.u8g2_DrawUTF8,"ax",%progbits
 2048              		.align	1
 2049              		.global	u8g2_DrawUTF8
 2050              		.syntax unified
 2051              		.thumb
 2052              		.thumb_func
 2053              		.fpu fpv4-sp-d16
 2055              	u8g2_DrawUTF8:
 2056              	.LFB24:
 801:/Users/imashio/Electronics/ARM/_Library/u8g2_font.c ****   u8g2->u8x8.next_cb = u8x8_utf8_next;
 2057              		.loc 1 801 0
 2058              		.cfi_startproc
 2059              		@ args = 0, pretend = 0, frame = 0
 2060              		@ frame_needed = 0, uses_anonymous_args = 0
 2061              	.LVL302:
 2062 0000 10B5     		push	{r4, lr}
 2063              	.LCFI23:
 2064              		.cfi_def_cfa_offset 8
 2065              		.cfi_offset 4, -8
ARM GAS  /var/folders/v3/wysfpd052nz8jkbx04pk0ym80000gn/T//ccfX3eBQ.s 			page 61


 2066              		.cfi_offset 14, -4
 802:/Users/imashio/Electronics/ARM/_Library/u8g2_font.c ****   return u8g2_draw_string(u8g2, x, y, str);
 2067              		.loc 1 802 0
 2068 0002 024C     		ldr	r4, .L130
 2069 0004 4460     		str	r4, [r0, #4]
 803:/Users/imashio/Electronics/ARM/_Library/u8g2_font.c **** }
 2070              		.loc 1 803 0
 2071 0006 FFF7FEFF 		bl	u8g2_draw_string
 2072              	.LVL303:
 804:/Users/imashio/Electronics/ARM/_Library/u8g2_font.c **** 
 2073              		.loc 1 804 0
 2074 000a 10BD     		pop	{r4, pc}
 2075              	.L131:
 2076              		.align	2
 2077              	.L130:
 2078 000c 00000000 		.word	u8x8_utf8_next
 2079              		.cfi_endproc
 2080              	.LFE24:
 2082              		.section	.text.u8g2_DrawExtendedUTF8,"ax",%progbits
 2083              		.align	1
 2084              		.global	u8g2_DrawExtendedUTF8
 2085              		.syntax unified
 2086              		.thumb
 2087              		.thumb_func
 2088              		.fpu fpv4-sp-d16
 2090              	u8g2_DrawExtendedUTF8:
 2091              	.LFB25:
 809:/Users/imashio/Electronics/ARM/_Library/u8g2_font.c ****   u8g2->u8x8.next_cb = u8x8_utf8_next;
 2092              		.loc 1 809 0
 2093              		.cfi_startproc
 2094              		@ args = 8, pretend = 0, frame = 8
 2095              		@ frame_needed = 0, uses_anonymous_args = 0
 2096              	.LVL304:
 2097 0000 2DE9F04F 		push	{r4, r5, r6, r7, r8, r9, r10, fp, lr}
 2098              	.LCFI24:
 2099              		.cfi_def_cfa_offset 36
 2100              		.cfi_offset 4, -36
 2101              		.cfi_offset 5, -32
 2102              		.cfi_offset 6, -28
 2103              		.cfi_offset 7, -24
 2104              		.cfi_offset 8, -20
 2105              		.cfi_offset 9, -16
 2106              		.cfi_offset 10, -12
 2107              		.cfi_offset 11, -8
 2108              		.cfi_offset 14, -4
 2109 0004 83B0     		sub	sp, sp, #12
 2110              	.LCFI25:
 2111              		.cfi_def_cfa_offset 48
 2112 0006 8146     		mov	r9, r0
 2113 0008 0F46     		mov	r7, r1
 2114 000a 0192     		str	r2, [sp, #4]
 2115 000c 9B46     		mov	fp, r3
 2116 000e DDF834A0 		ldr	r10, [sp, #52]
 810:/Users/imashio/Electronics/ARM/_Library/u8g2_font.c ****   uint16_t e_prev = 0x0ffff;
 2117              		.loc 1 810 0
 2118 0012 264B     		ldr	r3, .L140
 2119              	.LVL305:
ARM GAS  /var/folders/v3/wysfpd052nz8jkbx04pk0ym80000gn/T//ccfX3eBQ.s 			page 62


 2120 0014 4360     		str	r3, [r0, #4]
 2121              	.LVL306:
 814:/Users/imashio/Electronics/ARM/_Library/u8g2_font.c ****   sum = 0;
 2122              		.loc 1 814 0
 2123 0016 FFF7FEFF 		bl	u8x8_utf8_init
 2124              	.LVL307:
 815:/Users/imashio/Electronics/ARM/_Library/u8g2_font.c ****   for(;;)
 2125              		.loc 1 815 0
 2126 001a 0025     		movs	r5, #0
 811:/Users/imashio/Electronics/ARM/_Library/u8g2_font.c ****   uint16_t e;
 2127              		.loc 1 811 0
 2128 001c 4FF6FF78 		movw	r8, #65535
 2129 0020 0CE0     		b	.L133
 2130              	.LVL308:
 2131              	.L136:
 834:/Users/imashio/Electronics/ARM/_Library/u8g2_font.c **** 	delta -= k;
 2132              		.loc 1 834 0
 2133 0022 2346     		mov	r3, r4
 2134 0024 4246     		mov	r2, r8
 2135 0026 0C99     		ldr	r1, [sp, #48]
 2136 0028 4846     		mov	r0, r9
 2137 002a FFF7FEFF 		bl	u8g2_GetKerning
 2138              	.LVL309:
 2139 002e 8046     		mov	r8, r0
 2140              	.LVL310:
 835:/Users/imashio/Electronics/ARM/_Library/u8g2_font.c ****       }
 2141              		.loc 1 835 0
 2142 0030 361A     		subs	r6, r6, r0
 2143              	.LVL311:
 2144 0032 F6B2     		uxtb	r6, r6
 2145              	.LVL312:
 2146 0034 26E0     		b	.L137
 2147              	.LVL313:
 2148              	.L138:
 849:/Users/imashio/Electronics/ARM/_Library/u8g2_font.c ****     }
 2149              		.loc 1 849 0
 2150 0036 2E44     		add	r6, r6, r5
 2151              	.LVL314:
 2152 0038 F5B2     		uxtb	r5, r6
 2153              	.LVL315:
 837:/Users/imashio/Electronics/ARM/_Library/u8g2_font.c **** 
 2154              		.loc 1 837 0
 2155 003a A046     		mov	r8, r4
 2156              	.LVL316:
 2157              	.L133:
 818:/Users/imashio/Electronics/ARM/_Library/u8g2_font.c ****     if ( e == 0x0ffff )
 2158              		.loc 1 818 0
 2159 003c D9F80430 		ldr	r3, [r9, #4]
 2160 0040 9AF80010 		ldrb	r1, [r10]	@ zero_extendqisi2
 2161 0044 4846     		mov	r0, r9
 2162 0046 9847     		blx	r3
 2163              	.LVL317:
 2164 0048 0446     		mov	r4, r0
 2165              	.LVL318:
 819:/Users/imashio/Electronics/ARM/_Library/u8g2_font.c ****       break;
 2166              		.loc 1 819 0
 2167 004a 4FF6FF73 		movw	r3, #65535
ARM GAS  /var/folders/v3/wysfpd052nz8jkbx04pk0ym80000gn/T//ccfX3eBQ.s 			page 63


 2168 004e 9842     		cmp	r0, r3
 2169 0050 27D0     		beq	.L134
 821:/Users/imashio/Electronics/ARM/_Library/u8g2_font.c ****     if ( e != 0x0fffe )
 2170              		.loc 1 821 0
 2171 0052 0AF1010A 		add	r10, r10, #1
 2172              	.LVL319:
 822:/Users/imashio/Electronics/ARM/_Library/u8g2_font.c ****     {
 2173              		.loc 1 822 0
 2174 0056 4FF6FE73 		movw	r3, #65534
 2175 005a 9842     		cmp	r0, r3
 2176 005c EED0     		beq	.L133
 824:/Users/imashio/Electronics/ARM/_Library/u8g2_font.c **** 	    
 2177              		.loc 1 824 0
 2178 005e 0146     		mov	r1, r0
 2179 0060 4846     		mov	r0, r9
 2180              	.LVL320:
 2181 0062 FFF7FEFF 		bl	u8g2_GetGlyphWidth
 2182              	.LVL321:
 2183 0066 C6B2     		uxtb	r6, r0
 2184              	.LVL322:
 826:/Users/imashio/Electronics/ARM/_Library/u8g2_font.c ****       {
 2185              		.loc 1 826 0
 2186 0068 BBF1000F 		cmp	fp, #0
 2187 006c D9D0     		beq	.L136
 828:/Users/imashio/Electronics/ARM/_Library/u8g2_font.c **** 	delta -= k;
 2188              		.loc 1 828 0
 2189 006e 4346     		mov	r3, r8
 2190 0070 2246     		mov	r2, r4
 2191 0072 0C99     		ldr	r1, [sp, #48]
 2192 0074 4846     		mov	r0, r9
 2193 0076 FFF7FEFF 		bl	u8g2_GetKerning
 2194              	.LVL323:
 2195 007a 8046     		mov	r8, r0
 2196              	.LVL324:
 829:/Users/imashio/Electronics/ARM/_Library/u8g2_font.c **** 	x -= delta;
 2197              		.loc 1 829 0
 2198 007c 361A     		subs	r6, r6, r0
 2199              	.LVL325:
 2200 007e F6B2     		uxtb	r6, r6
 2201              	.LVL326:
 830:/Users/imashio/Electronics/ARM/_Library/u8g2_font.c ****       }
 2202              		.loc 1 830 0
 2203 0080 BF1B     		subs	r7, r7, r6
 2204              	.LVL327:
 2205 0082 FFB2     		uxtb	r7, r7
 2206              	.LVL328:
 2207              	.L137:
 839:/Users/imashio/Electronics/ARM/_Library/u8g2_font.c ****       if ( to_left )
 2208              		.loc 1 839 0
 2209 0084 2346     		mov	r3, r4
 2210 0086 019A     		ldr	r2, [sp, #4]
 2211 0088 3946     		mov	r1, r7
 2212 008a 4846     		mov	r0, r9
 2213 008c FFF7FEFF 		bl	u8g2_DrawGlyph
 2214              	.LVL329:
 840:/Users/imashio/Electronics/ARM/_Library/u8g2_font.c ****       {
 2215              		.loc 1 840 0
ARM GAS  /var/folders/v3/wysfpd052nz8jkbx04pk0ym80000gn/T//ccfX3eBQ.s 			page 64


 2216 0090 BBF1000F 		cmp	fp, #0
 2217 0094 CFD1     		bne	.L138
 845:/Users/imashio/Electronics/ARM/_Library/u8g2_font.c **** 	x -= k;
 2218              		.loc 1 845 0
 2219 0096 3744     		add	r7, r7, r6
 2220              	.LVL330:
 2221 0098 FFB2     		uxtb	r7, r7
 2222              	.LVL331:
 846:/Users/imashio/Electronics/ARM/_Library/u8g2_font.c ****       }
 2223              		.loc 1 846 0
 2224 009a A7EB0807 		sub	r7, r7, r8
 2225              	.LVL332:
 2226 009e FFB2     		uxtb	r7, r7
 2227              	.LVL333:
 2228 00a0 C9E7     		b	.L138
 2229              	.LVL334:
 2230              	.L134:
 853:/Users/imashio/Electronics/ARM/_Library/u8g2_font.c **** 
 2231              		.loc 1 853 0
 2232 00a2 2846     		mov	r0, r5
 2233              	.LVL335:
 2234 00a4 03B0     		add	sp, sp, #12
 2235              	.LCFI26:
 2236              		.cfi_def_cfa_offset 36
 2237              		@ sp needed
 2238 00a6 BDE8F08F 		pop	{r4, r5, r6, r7, r8, r9, r10, fp, pc}
 2239              	.LVL336:
 2240              	.L141:
 2241 00aa 00BF     		.align	2
 2242              	.L140:
 2243 00ac 00000000 		.word	u8x8_utf8_next
 2244              		.cfi_endproc
 2245              	.LFE25:
 2247              		.section	.text.u8g2_DrawExtUTF8,"ax",%progbits
 2248              		.align	1
 2249              		.global	u8g2_DrawExtUTF8
 2250              		.syntax unified
 2251              		.thumb
 2252              		.thumb_func
 2253              		.fpu fpv4-sp-d16
 2255              	u8g2_DrawExtUTF8:
 2256              	.LFB26:
 856:/Users/imashio/Electronics/ARM/_Library/u8g2_font.c ****   u8g2->u8x8.next_cb = u8x8_utf8_next;
 2257              		.loc 1 856 0
 2258              		.cfi_startproc
 2259              		@ args = 8, pretend = 0, frame = 8
 2260              		@ frame_needed = 0, uses_anonymous_args = 0
 2261              	.LVL337:
 2262 0000 2DE9F04F 		push	{r4, r5, r6, r7, r8, r9, r10, fp, lr}
 2263              	.LCFI27:
 2264              		.cfi_def_cfa_offset 36
 2265              		.cfi_offset 4, -36
 2266              		.cfi_offset 5, -32
 2267              		.cfi_offset 6, -28
 2268              		.cfi_offset 7, -24
 2269              		.cfi_offset 8, -20
 2270              		.cfi_offset 9, -16
ARM GAS  /var/folders/v3/wysfpd052nz8jkbx04pk0ym80000gn/T//ccfX3eBQ.s 			page 65


 2271              		.cfi_offset 10, -12
 2272              		.cfi_offset 11, -8
 2273              		.cfi_offset 14, -4
 2274 0004 83B0     		sub	sp, sp, #12
 2275              	.LCFI28:
 2276              		.cfi_def_cfa_offset 48
 2277 0006 0646     		mov	r6, r0
 2278 0008 8846     		mov	r8, r1
 2279 000a 0192     		str	r2, [sp, #4]
 2280 000c 9A46     		mov	r10, r3
 2281 000e 0D9F     		ldr	r7, [sp, #52]
 857:/Users/imashio/Electronics/ARM/_Library/u8g2_font.c ****   uint16_t e_prev = 0x0ffff;
 2282              		.loc 1 857 0
 2283 0010 244B     		ldr	r3, .L150
 2284              	.LVL338:
 2285 0012 4360     		str	r3, [r0, #4]
 2286              	.LVL339:
 861:/Users/imashio/Electronics/ARM/_Library/u8g2_font.c ****   sum = 0;
 2287              		.loc 1 861 0
 2288 0014 FFF7FEFF 		bl	u8x8_utf8_init
 2289              	.LVL340:
 862:/Users/imashio/Electronics/ARM/_Library/u8g2_font.c ****   for(;;)
 2290              		.loc 1 862 0
 2291 0018 4FF00009 		mov	r9, #0
 858:/Users/imashio/Electronics/ARM/_Library/u8g2_font.c ****   uint16_t e;
 2292              		.loc 1 858 0
 2293 001c 4FF6FF7B 		movw	fp, #65535
 2294 0020 12E0     		b	.L143
 2295              	.LVL341:
 2296              	.L146:
 881:/Users/imashio/Electronics/ARM/_Library/u8g2_font.c **** 	delta -= k;
 2297              		.loc 1 881 0
 2298 0022 2346     		mov	r3, r4
 2299 0024 5A46     		mov	r2, fp
 2300 0026 0C99     		ldr	r1, [sp, #48]
 2301 0028 3046     		mov	r0, r6
 2302 002a FFF7FEFF 		bl	u8g2_GetKerningByTable
 2303              	.LVL342:
 882:/Users/imashio/Electronics/ARM/_Library/u8g2_font.c ****       }
 2304              		.loc 1 882 0
 2305 002e 2D1A     		subs	r5, r5, r0
 2306              	.LVL343:
 2307 0030 EDB2     		uxtb	r5, r5
 2308              	.LVL344:
 2309 0032 2BE0     		b	.L147
 2310              	.LVL345:
 2311              	.L148:
 893:/Users/imashio/Electronics/ARM/_Library/u8g2_font.c ****       if ( to_left )
 2312              		.loc 1 893 0
 2313 0034 2346     		mov	r3, r4
 2314 0036 019A     		ldr	r2, [sp, #4]
 2315 0038 4146     		mov	r1, r8
 2316 003a 3046     		mov	r0, r6
 2317              	.LVL346:
 2318 003c FFF7FEFF 		bl	u8g2_DrawGlyph
 2319              	.LVL347:
 903:/Users/imashio/Electronics/ARM/_Library/u8g2_font.c ****     }
ARM GAS  /var/folders/v3/wysfpd052nz8jkbx04pk0ym80000gn/T//ccfX3eBQ.s 			page 66


 2320              		.loc 1 903 0
 2321 0040 A944     		add	r9, r9, r5
 2322              	.LVL348:
 2323 0042 5FFA89F9 		uxtb	r9, r9
 2324              	.LVL349:
 884:/Users/imashio/Electronics/ARM/_Library/u8g2_font.c **** 
 2325              		.loc 1 884 0
 2326 0046 A346     		mov	fp, r4
 2327              	.LVL350:
 2328              	.L143:
 865:/Users/imashio/Electronics/ARM/_Library/u8g2_font.c ****     if ( e == 0x0ffff )
 2329              		.loc 1 865 0
 2330 0048 7368     		ldr	r3, [r6, #4]
 2331 004a 3978     		ldrb	r1, [r7]	@ zero_extendqisi2
 2332 004c 3046     		mov	r0, r6
 2333 004e 9847     		blx	r3
 2334              	.LVL351:
 2335 0050 0446     		mov	r4, r0
 2336              	.LVL352:
 866:/Users/imashio/Electronics/ARM/_Library/u8g2_font.c ****       break;
 2337              		.loc 1 866 0
 2338 0052 4FF6FF73 		movw	r3, #65535
 2339 0056 9842     		cmp	r0, r3
 2340 0058 1FD0     		beq	.L144
 868:/Users/imashio/Electronics/ARM/_Library/u8g2_font.c ****     if ( e != 0x0fffe )
 2341              		.loc 1 868 0
 2342 005a 0137     		adds	r7, r7, #1
 2343              	.LVL353:
 869:/Users/imashio/Electronics/ARM/_Library/u8g2_font.c ****     {
 2344              		.loc 1 869 0
 2345 005c 4FF6FE73 		movw	r3, #65534
 2346 0060 9842     		cmp	r0, r3
 2347 0062 F1D0     		beq	.L143
 871:/Users/imashio/Electronics/ARM/_Library/u8g2_font.c **** 	    
 2348              		.loc 1 871 0
 2349 0064 0146     		mov	r1, r0
 2350 0066 3046     		mov	r0, r6
 2351              	.LVL354:
 2352 0068 FFF7FEFF 		bl	u8g2_GetGlyphWidth
 2353              	.LVL355:
 2354 006c C5B2     		uxtb	r5, r0
 2355              	.LVL356:
 873:/Users/imashio/Electronics/ARM/_Library/u8g2_font.c ****       {
 2356              		.loc 1 873 0
 2357 006e BAF1000F 		cmp	r10, #0
 2358 0072 D6D0     		beq	.L146
 875:/Users/imashio/Electronics/ARM/_Library/u8g2_font.c **** 	delta -= k;
 2359              		.loc 1 875 0
 2360 0074 5B46     		mov	r3, fp
 2361 0076 2246     		mov	r2, r4
 2362 0078 0C99     		ldr	r1, [sp, #48]
 2363 007a 3046     		mov	r0, r6
 2364 007c FFF7FEFF 		bl	u8g2_GetKerningByTable
 2365              	.LVL357:
 876:/Users/imashio/Electronics/ARM/_Library/u8g2_font.c **** 	x -= delta;
 2366              		.loc 1 876 0
 2367 0080 2D1A     		subs	r5, r5, r0
ARM GAS  /var/folders/v3/wysfpd052nz8jkbx04pk0ym80000gn/T//ccfX3eBQ.s 			page 67


 2368              	.LVL358:
 2369 0082 EDB2     		uxtb	r5, r5
 2370              	.LVL359:
 877:/Users/imashio/Electronics/ARM/_Library/u8g2_font.c ****       }
 2371              		.loc 1 877 0
 2372 0084 A8EB0508 		sub	r8, r8, r5
 2373              	.LVL360:
 2374 0088 5FFA88F8 		uxtb	r8, r8
 2375              	.LVL361:
 2376              	.L147:
 886:/Users/imashio/Electronics/ARM/_Library/u8g2_font.c ****       {
 2377              		.loc 1 886 0
 2378 008c BAF1000F 		cmp	r10, #0
 2379 0090 D0D1     		bne	.L148
 891:/Users/imashio/Electronics/ARM/_Library/u8g2_font.c ****       }
 2380              		.loc 1 891 0
 2381 0092 A844     		add	r8, r8, r5
 2382              	.LVL362:
 2383 0094 5FFA88F8 		uxtb	r8, r8
 2384              	.LVL363:
 2385 0098 CCE7     		b	.L148
 2386              	.LVL364:
 2387              	.L144:
 907:/Users/imashio/Electronics/ARM/_Library/u8g2_font.c **** 
 2388              		.loc 1 907 0
 2389 009a 4846     		mov	r0, r9
 2390              	.LVL365:
 2391 009c 03B0     		add	sp, sp, #12
 2392              	.LCFI29:
 2393              		.cfi_def_cfa_offset 36
 2394              		@ sp needed
 2395 009e BDE8F08F 		pop	{r4, r5, r6, r7, r8, r9, r10, fp, pc}
 2396              	.LVL366:
 2397              	.L151:
 2398 00a2 00BF     		.align	2
 2399              	.L150:
 2400 00a4 00000000 		.word	u8x8_utf8_next
 2401              		.cfi_endproc
 2402              	.LFE26:
 2404              		.section	.text.u8g2_UpdateRefHeight,"ax",%progbits
 2405              		.align	1
 2406              		.global	u8g2_UpdateRefHeight
 2407              		.syntax unified
 2408              		.thumb
 2409              		.thumb_func
 2410              		.fpu fpv4-sp-d16
 2412              	u8g2_UpdateRefHeight:
 2413              	.LFB27:
 916:/Users/imashio/Electronics/ARM/_Library/u8g2_font.c ****   if ( u8g2->font == NULL )
 2414              		.loc 1 916 0
 2415              		.cfi_startproc
 2416              		@ args = 0, pretend = 0, frame = 0
 2417              		@ frame_needed = 0, uses_anonymous_args = 0
 2418              		@ link register save eliminated.
 2419              	.LVL367:
 917:/Users/imashio/Electronics/ARM/_Library/u8g2_font.c ****     return;
 2420              		.loc 1 917 0
ARM GAS  /var/folders/v3/wysfpd052nz8jkbx04pk0ym80000gn/T//ccfX3eBQ.s 			page 68


 2421 0000 836C     		ldr	r3, [r0, #72]
 2422 0002 63B3     		cbz	r3, .L158
 919:/Users/imashio/Electronics/ARM/_Library/u8g2_font.c ****   u8g2->font_ref_descent = u8g2->font_info.descent_g;
 2423              		.loc 1 919 0
 2424 0004 90F96D20 		ldrsb	r2, [r0, #109]
 2425 0008 80F87920 		strb	r2, [r0, #121]
 920:/Users/imashio/Electronics/ARM/_Library/u8g2_font.c ****   if ( u8g2->font_height_mode == U8G2_FONT_HEIGHT_MODE_TEXT )
 2426              		.loc 1 920 0
 2427 000c 90F96E30 		ldrsb	r3, [r0, #110]
 2428 0010 80F87A30 		strb	r3, [r0, #122]
 921:/Users/imashio/Electronics/ARM/_Library/u8g2_font.c ****   {
 2429              		.loc 1 921 0
 2430 0014 90F87810 		ldrb	r1, [r0, #120]	@ zero_extendqisi2
 2431 0018 09B3     		cbz	r1, .L158
 924:/Users/imashio/Electronics/ARM/_Library/u8g2_font.c ****   {
 2432              		.loc 1 924 0
 2433 001a 0129     		cmp	r1, #1
 2434 001c 12D0     		beq	.L160
 916:/Users/imashio/Electronics/ARM/_Library/u8g2_font.c ****   if ( u8g2->font == NULL )
 2435              		.loc 1 916 0
 2436 001e 30B4     		push	{r4, r5}
 2437              	.LCFI30:
 2438              		.cfi_def_cfa_offset 8
 2439              		.cfi_offset 4, -8
 2440              		.cfi_offset 5, -4
 933:/Users/imashio/Electronics/ARM/_Library/u8g2_font.c ****       u8g2->font_ref_ascent = u8g2->font_info.max_char_height+u8g2->font_info.y_offset;
 2441              		.loc 1 933 0
 2442 0020 90F96A40 		ldrsb	r4, [r0, #106]
 2443 0024 90F96C10 		ldrsb	r1, [r0, #108]
 2444 0028 6518     		adds	r5, r4, r1
 2445 002a AA42     		cmp	r2, r5
 2446 002c 04DA     		bge	.L156
 934:/Users/imashio/Electronics/ARM/_Library/u8g2_font.c ****     if ( u8g2->font_ref_descent > u8g2->font_info.y_offset )
 2447              		.loc 1 934 0
 2448 002e CAB2     		uxtb	r2, r1
 2449 0030 52FA84F4 		uxtab	r4, r2, r4
 2450 0034 80F87940 		strb	r4, [r0, #121]
 2451              	.L156:
 935:/Users/imashio/Electronics/ARM/_Library/u8g2_font.c ****       u8g2->font_ref_descent = u8g2->font_info.y_offset;
 2452              		.loc 1 935 0
 2453 0038 8B42     		cmp	r3, r1
 2454 003a 01DD     		ble	.L152
 936:/Users/imashio/Electronics/ARM/_Library/u8g2_font.c ****   }  
 2455              		.loc 1 936 0
 2456 003c 80F87A10 		strb	r1, [r0, #122]
 2457              	.L152:
 938:/Users/imashio/Electronics/ARM/_Library/u8g2_font.c **** 
 2458              		.loc 1 938 0
 2459 0040 30BC     		pop	{r4, r5}
 2460              	.LCFI31:
 2461              		.cfi_restore 5
 2462              		.cfi_restore 4
 2463              		.cfi_def_cfa_offset 0
 2464 0042 7047     		bx	lr
 2465              	.L160:
 926:/Users/imashio/Electronics/ARM/_Library/u8g2_font.c ****       u8g2->font_ref_ascent = u8g2->font_info.ascent_para;
 2466              		.loc 1 926 0
ARM GAS  /var/folders/v3/wysfpd052nz8jkbx04pk0ym80000gn/T//ccfX3eBQ.s 			page 69


 2467 0044 90F96F10 		ldrsb	r1, [r0, #111]
 2468 0048 8A42     		cmp	r2, r1
 2469 004a 01DA     		bge	.L155
 927:/Users/imashio/Electronics/ARM/_Library/u8g2_font.c ****     if ( u8g2->font_ref_descent > u8g2->font_info.descent_para )
 2470              		.loc 1 927 0
 2471 004c 80F87910 		strb	r1, [r0, #121]
 2472              	.L155:
 928:/Users/imashio/Electronics/ARM/_Library/u8g2_font.c ****       u8g2->font_ref_descent = u8g2->font_info.descent_para;
 2473              		.loc 1 928 0
 2474 0050 90F97020 		ldrsb	r2, [r0, #112]
 2475 0054 9342     		cmp	r3, r2
 2476 0056 02DD     		ble	.L158
 929:/Users/imashio/Electronics/ARM/_Library/u8g2_font.c ****   }
 2477              		.loc 1 929 0
 2478 0058 80F87A20 		strb	r2, [r0, #122]
 2479 005c 7047     		bx	lr
 2480              	.L158:
 2481 005e 7047     		bx	lr
 2482              		.cfi_endproc
 2483              	.LFE27:
 2485              		.section	.text.u8g2_SetFontRefHeightText,"ax",%progbits
 2486              		.align	1
 2487              		.global	u8g2_SetFontRefHeightText
 2488              		.syntax unified
 2489              		.thumb
 2490              		.thumb_func
 2491              		.fpu fpv4-sp-d16
 2493              	u8g2_SetFontRefHeightText:
 2494              	.LFB28:
 941:/Users/imashio/Electronics/ARM/_Library/u8g2_font.c ****   u8g2->font_height_mode = U8G2_FONT_HEIGHT_MODE_TEXT;
 2495              		.loc 1 941 0
 2496              		.cfi_startproc
 2497              		@ args = 0, pretend = 0, frame = 0
 2498              		@ frame_needed = 0, uses_anonymous_args = 0
 2499              	.LVL368:
 2500 0000 08B5     		push	{r3, lr}
 2501              	.LCFI32:
 2502              		.cfi_def_cfa_offset 8
 2503              		.cfi_offset 3, -8
 2504              		.cfi_offset 14, -4
 942:/Users/imashio/Electronics/ARM/_Library/u8g2_font.c ****   u8g2_UpdateRefHeight(u8g2);
 2505              		.loc 1 942 0
 2506 0002 0022     		movs	r2, #0
 2507 0004 80F87820 		strb	r2, [r0, #120]
 943:/Users/imashio/Electronics/ARM/_Library/u8g2_font.c **** }
 2508              		.loc 1 943 0
 2509 0008 FFF7FEFF 		bl	u8g2_UpdateRefHeight
 2510              	.LVL369:
 944:/Users/imashio/Electronics/ARM/_Library/u8g2_font.c **** 
 2511              		.loc 1 944 0
 2512 000c 08BD     		pop	{r3, pc}
 2513              		.cfi_endproc
 2514              	.LFE28:
 2516              		.section	.text.u8g2_SetFontRefHeightExtendedText,"ax",%progbits
 2517              		.align	1
 2518              		.global	u8g2_SetFontRefHeightExtendedText
 2519              		.syntax unified
ARM GAS  /var/folders/v3/wysfpd052nz8jkbx04pk0ym80000gn/T//ccfX3eBQ.s 			page 70


 2520              		.thumb
 2521              		.thumb_func
 2522              		.fpu fpv4-sp-d16
 2524              	u8g2_SetFontRefHeightExtendedText:
 2525              	.LFB29:
 947:/Users/imashio/Electronics/ARM/_Library/u8g2_font.c ****   u8g2->font_height_mode = U8G2_FONT_HEIGHT_MODE_XTEXT;
 2526              		.loc 1 947 0
 2527              		.cfi_startproc
 2528              		@ args = 0, pretend = 0, frame = 0
 2529              		@ frame_needed = 0, uses_anonymous_args = 0
 2530              	.LVL370:
 2531 0000 08B5     		push	{r3, lr}
 2532              	.LCFI33:
 2533              		.cfi_def_cfa_offset 8
 2534              		.cfi_offset 3, -8
 2535              		.cfi_offset 14, -4
 948:/Users/imashio/Electronics/ARM/_Library/u8g2_font.c ****   u8g2_UpdateRefHeight(u8g2);
 2536              		.loc 1 948 0
 2537 0002 0123     		movs	r3, #1
 2538 0004 80F87830 		strb	r3, [r0, #120]
 949:/Users/imashio/Electronics/ARM/_Library/u8g2_font.c **** }
 2539              		.loc 1 949 0
 2540 0008 FFF7FEFF 		bl	u8g2_UpdateRefHeight
 2541              	.LVL371:
 950:/Users/imashio/Electronics/ARM/_Library/u8g2_font.c **** 
 2542              		.loc 1 950 0
 2543 000c 08BD     		pop	{r3, pc}
 2544              		.cfi_endproc
 2545              	.LFE29:
 2547              		.section	.text.u8g2_SetFontRefHeightAll,"ax",%progbits
 2548              		.align	1
 2549              		.global	u8g2_SetFontRefHeightAll
 2550              		.syntax unified
 2551              		.thumb
 2552              		.thumb_func
 2553              		.fpu fpv4-sp-d16
 2555              	u8g2_SetFontRefHeightAll:
 2556              	.LFB30:
 953:/Users/imashio/Electronics/ARM/_Library/u8g2_font.c ****   u8g2->font_height_mode = U8G2_FONT_HEIGHT_MODE_ALL;
 2557              		.loc 1 953 0
 2558              		.cfi_startproc
 2559              		@ args = 0, pretend = 0, frame = 0
 2560              		@ frame_needed = 0, uses_anonymous_args = 0
 2561              	.LVL372:
 2562 0000 08B5     		push	{r3, lr}
 2563              	.LCFI34:
 2564              		.cfi_def_cfa_offset 8
 2565              		.cfi_offset 3, -8
 2566              		.cfi_offset 14, -4
 954:/Users/imashio/Electronics/ARM/_Library/u8g2_font.c ****   u8g2_UpdateRefHeight(u8g2);
 2567              		.loc 1 954 0
 2568 0002 0223     		movs	r3, #2
 2569 0004 80F87830 		strb	r3, [r0, #120]
 955:/Users/imashio/Electronics/ARM/_Library/u8g2_font.c **** }
 2570              		.loc 1 955 0
 2571 0008 FFF7FEFF 		bl	u8g2_UpdateRefHeight
 2572              	.LVL373:
ARM GAS  /var/folders/v3/wysfpd052nz8jkbx04pk0ym80000gn/T//ccfX3eBQ.s 			page 71


 956:/Users/imashio/Electronics/ARM/_Library/u8g2_font.c **** 
 2573              		.loc 1 956 0
 2574 000c 08BD     		pop	{r3, pc}
 2575              		.cfi_endproc
 2576              	.LFE30:
 2578              		.section	.text.u8g2_SetFontPosBaseline,"ax",%progbits
 2579              		.align	1
 2580              		.global	u8g2_SetFontPosBaseline
 2581              		.syntax unified
 2582              		.thumb
 2583              		.thumb_func
 2584              		.fpu fpv4-sp-d16
 2586              	u8g2_SetFontPosBaseline:
 2587              	.LFB32:
 967:/Users/imashio/Electronics/ARM/_Library/u8g2_font.c ****   u8g2->font_calc_vref = u8g2_font_calc_vref_font;
 2588              		.loc 1 967 0
 2589              		.cfi_startproc
 2590              		@ args = 0, pretend = 0, frame = 0
 2591              		@ frame_needed = 0, uses_anonymous_args = 0
 2592              		@ link register save eliminated.
 2593              	.LVL374:
 968:/Users/imashio/Electronics/ARM/_Library/u8g2_font.c **** }
 2594              		.loc 1 968 0
 2595 0000 014B     		ldr	r3, .L168
 2596 0002 C364     		str	r3, [r0, #76]
 969:/Users/imashio/Electronics/ARM/_Library/u8g2_font.c **** 
 2597              		.loc 1 969 0
 2598 0004 7047     		bx	lr
 2599              	.L169:
 2600 0006 00BF     		.align	2
 2601              	.L168:
 2602 0008 00000000 		.word	u8g2_font_calc_vref_font
 2603              		.cfi_endproc
 2604              	.LFE32:
 2606              		.section	.text.u8g2_SetFontPosBottom,"ax",%progbits
 2607              		.align	1
 2608              		.global	u8g2_SetFontPosBottom
 2609              		.syntax unified
 2610              		.thumb
 2611              		.thumb_func
 2612              		.fpu fpv4-sp-d16
 2614              	u8g2_SetFontPosBottom:
 2615              	.LFB34:
 978:/Users/imashio/Electronics/ARM/_Library/u8g2_font.c ****   u8g2->font_calc_vref = u8g2_font_calc_vref_bottom;
 2616              		.loc 1 978 0
 2617              		.cfi_startproc
 2618              		@ args = 0, pretend = 0, frame = 0
 2619              		@ frame_needed = 0, uses_anonymous_args = 0
 2620              		@ link register save eliminated.
 2621              	.LVL375:
 979:/Users/imashio/Electronics/ARM/_Library/u8g2_font.c **** }
 2622              		.loc 1 979 0
 2623 0000 014B     		ldr	r3, .L171
 2624 0002 C364     		str	r3, [r0, #76]
 980:/Users/imashio/Electronics/ARM/_Library/u8g2_font.c **** 
 2625              		.loc 1 980 0
 2626 0004 7047     		bx	lr
ARM GAS  /var/folders/v3/wysfpd052nz8jkbx04pk0ym80000gn/T//ccfX3eBQ.s 			page 72


 2627              	.L172:
 2628 0006 00BF     		.align	2
 2629              	.L171:
 2630 0008 00000000 		.word	u8g2_font_calc_vref_bottom
 2631              		.cfi_endproc
 2632              	.LFE34:
 2634              		.section	.text.u8g2_SetFontPosTop,"ax",%progbits
 2635              		.align	1
 2636              		.global	u8g2_SetFontPosTop
 2637              		.syntax unified
 2638              		.thumb
 2639              		.thumb_func
 2640              		.fpu fpv4-sp-d16
 2642              	u8g2_SetFontPosTop:
 2643              	.LFB36:
 992:/Users/imashio/Electronics/ARM/_Library/u8g2_font.c ****   u8g2->font_calc_vref = u8g2_font_calc_vref_top;
 2644              		.loc 1 992 0
 2645              		.cfi_startproc
 2646              		@ args = 0, pretend = 0, frame = 0
 2647              		@ frame_needed = 0, uses_anonymous_args = 0
 2648              		@ link register save eliminated.
 2649              	.LVL376:
 993:/Users/imashio/Electronics/ARM/_Library/u8g2_font.c **** }
 2650              		.loc 1 993 0
 2651 0000 014B     		ldr	r3, .L174
 2652 0002 C364     		str	r3, [r0, #76]
 994:/Users/imashio/Electronics/ARM/_Library/u8g2_font.c **** 
 2653              		.loc 1 994 0
 2654 0004 7047     		bx	lr
 2655              	.L175:
 2656 0006 00BF     		.align	2
 2657              	.L174:
 2658 0008 00000000 		.word	u8g2_font_calc_vref_top
 2659              		.cfi_endproc
 2660              	.LFE36:
 2662              		.section	.text.u8g2_SetFontPosCenter,"ax",%progbits
 2663              		.align	1
 2664              		.global	u8g2_SetFontPosCenter
 2665              		.syntax unified
 2666              		.thumb
 2667              		.thumb_func
 2668              		.fpu fpv4-sp-d16
 2670              	u8g2_SetFontPosCenter:
 2671              	.LFB38:
1007:/Users/imashio/Electronics/ARM/_Library/u8g2_font.c ****   u8g2->font_calc_vref = u8g2_font_calc_vref_center;
 2672              		.loc 1 1007 0
 2673              		.cfi_startproc
 2674              		@ args = 0, pretend = 0, frame = 0
 2675              		@ frame_needed = 0, uses_anonymous_args = 0
 2676              		@ link register save eliminated.
 2677              	.LVL377:
1008:/Users/imashio/Electronics/ARM/_Library/u8g2_font.c **** }
 2678              		.loc 1 1008 0
 2679 0000 014B     		ldr	r3, .L177
 2680 0002 C364     		str	r3, [r0, #76]
1009:/Users/imashio/Electronics/ARM/_Library/u8g2_font.c **** 
 2681              		.loc 1 1009 0
ARM GAS  /var/folders/v3/wysfpd052nz8jkbx04pk0ym80000gn/T//ccfX3eBQ.s 			page 73


 2682 0004 7047     		bx	lr
 2683              	.L178:
 2684 0006 00BF     		.align	2
 2685              	.L177:
 2686 0008 00000000 		.word	u8g2_font_calc_vref_center
 2687              		.cfi_endproc
 2688              	.LFE38:
 2690              		.section	.text.u8g2_SetFont,"ax",%progbits
 2691              		.align	1
 2692              		.global	u8g2_SetFont
 2693              		.syntax unified
 2694              		.thumb
 2695              		.thumb_func
 2696              		.fpu fpv4-sp-d16
 2698              	u8g2_SetFont:
 2699              	.LFB39:
1014:/Users/imashio/Electronics/ARM/_Library/u8g2_font.c ****   if ( u8g2->font != font )
 2700              		.loc 1 1014 0
 2701              		.cfi_startproc
 2702              		@ args = 0, pretend = 0, frame = 0
 2703              		@ frame_needed = 0, uses_anonymous_args = 0
 2704              	.LVL378:
1015:/Users/imashio/Electronics/ARM/_Library/u8g2_font.c ****   {
 2705              		.loc 1 1015 0
 2706 0000 836C     		ldr	r3, [r0, #72]
 2707 0002 8B42     		cmp	r3, r1
 2708 0004 09D0     		beq	.L182
1014:/Users/imashio/Electronics/ARM/_Library/u8g2_font.c ****   if ( u8g2->font != font )
 2709              		.loc 1 1014 0
 2710 0006 10B5     		push	{r4, lr}
 2711              	.LCFI35:
 2712              		.cfi_def_cfa_offset 8
 2713              		.cfi_offset 4, -8
 2714              		.cfi_offset 14, -4
 2715 0008 0446     		mov	r4, r0
1021:/Users/imashio/Electronics/ARM/_Library/u8g2_font.c ****     u8g2_read_font_info(&(u8g2->font_info), font);
 2716              		.loc 1 1021 0
 2717 000a 8164     		str	r1, [r0, #72]
1022:/Users/imashio/Electronics/ARM/_Library/u8g2_font.c ****     u8g2_UpdateRefHeight(u8g2);
 2718              		.loc 1 1022 0
 2719 000c 6030     		adds	r0, r0, #96
 2720              	.LVL379:
 2721 000e FFF7FEFF 		bl	u8g2_read_font_info
 2722              	.LVL380:
1023:/Users/imashio/Electronics/ARM/_Library/u8g2_font.c ****     /* u8g2_SetFontPosBaseline(u8g2); */ /* removed with issue 195 */
 2723              		.loc 1 1023 0
 2724 0012 2046     		mov	r0, r4
 2725 0014 FFF7FEFF 		bl	u8g2_UpdateRefHeight
 2726              	.LVL381:
1026:/Users/imashio/Electronics/ARM/_Library/u8g2_font.c **** 
 2727              		.loc 1 1026 0
 2728 0018 10BD     		pop	{r4, pc}
 2729              	.LVL382:
 2730              	.L182:
 2731              	.LCFI36:
 2732              		.cfi_def_cfa_offset 0
 2733              		.cfi_restore 4
ARM GAS  /var/folders/v3/wysfpd052nz8jkbx04pk0ym80000gn/T//ccfX3eBQ.s 			page 74


 2734              		.cfi_restore 14
 2735 001a 7047     		bx	lr
 2736              		.cfi_endproc
 2737              	.LFE39:
 2739              		.section	.text.u8g2_GetStrX,"ax",%progbits
 2740              		.align	1
 2741              		.global	u8g2_GetStrX
 2742              		.syntax unified
 2743              		.thumb
 2744              		.thumb_func
 2745              		.fpu fpv4-sp-d16
 2747              	u8g2_GetStrX:
 2748              	.LFB42:
1087:/Users/imashio/Electronics/ARM/_Library/u8g2_font.c ****   uint8_t w;
 2749              		.loc 1 1087 0
 2750              		.cfi_startproc
 2751              		@ args = 0, pretend = 0, frame = 8
 2752              		@ frame_needed = 0, uses_anonymous_args = 0
 2753              	.LVL383:
 2754 0000 00B5     		push	{lr}
 2755              	.LCFI37:
 2756              		.cfi_def_cfa_offset 4
 2757              		.cfi_offset 14, -4
 2758 0002 85B0     		sub	sp, sp, #20
 2759              	.LCFI38:
 2760              		.cfi_def_cfa_offset 24
1090:/Users/imashio/Electronics/ARM/_Library/u8g2_font.c ****   return ox;
 2761              		.loc 1 1090 0
 2762 0004 0978     		ldrb	r1, [r1]	@ zero_extendqisi2
 2763              	.LVL384:
 2764 0006 0DF10D03 		add	r3, sp, #13
 2765 000a 0093     		str	r3, [sp]
 2766 000c 0DF10E03 		add	r3, sp, #14
 2767 0010 0DF10F02 		add	r2, sp, #15
 2768 0014 FFF7FEFF 		bl	u8g2_GetGlyphHorizontalProperties
 2769              	.LVL385:
1092:/Users/imashio/Electronics/ARM/_Library/u8g2_font.c **** 
 2770              		.loc 1 1092 0
 2771 0018 9DF90E00 		ldrsb	r0, [sp, #14]
 2772 001c 05B0     		add	sp, sp, #20
 2773              	.LCFI39:
 2774              		.cfi_def_cfa_offset 4
 2775              		@ sp needed
 2776 001e 5DF804FB 		ldr	pc, [sp], #4
 2777              		.cfi_endproc
 2778              	.LFE42:
 2780              		.section	.text.u8g2_GetStrWidth,"ax",%progbits
 2781              		.align	1
 2782              		.global	u8g2_GetStrWidth
 2783              		.syntax unified
 2784              		.thumb
 2785              		.thumb_func
 2786              		.fpu fpv4-sp-d16
 2788              	u8g2_GetStrWidth:
 2789              	.LFB44:
1164:/Users/imashio/Electronics/ARM/_Library/u8g2_font.c **** 
1165:/Users/imashio/Electronics/ARM/_Library/u8g2_font.c **** 
ARM GAS  /var/folders/v3/wysfpd052nz8jkbx04pk0ym80000gn/T//ccfX3eBQ.s 			page 75


1166:/Users/imashio/Electronics/ARM/_Library/u8g2_font.c **** 
1167:/Users/imashio/Electronics/ARM/_Library/u8g2_font.c **** 
1168:/Users/imashio/Electronics/ARM/_Library/u8g2_font.c **** 
1169:/Users/imashio/Electronics/ARM/_Library/u8g2_font.c **** u8g2_uint_t u8g2_GetStrWidth(u8g2_t *u8g2, const char *s)
1170:/Users/imashio/Electronics/ARM/_Library/u8g2_font.c **** {
 2790              		.loc 1 1170 0
 2791              		.cfi_startproc
 2792              		@ args = 0, pretend = 0, frame = 0
 2793              		@ frame_needed = 0, uses_anonymous_args = 0
 2794              	.LVL386:
 2795 0000 08B5     		push	{r3, lr}
 2796              	.LCFI40:
 2797              		.cfi_def_cfa_offset 8
 2798              		.cfi_offset 3, -8
 2799              		.cfi_offset 14, -4
1171:/Users/imashio/Electronics/ARM/_Library/u8g2_font.c ****   u8g2->u8x8.next_cb = u8x8_ascii_next;
 2800              		.loc 1 1171 0
 2801 0002 024B     		ldr	r3, .L189
 2802 0004 4360     		str	r3, [r0, #4]
1172:/Users/imashio/Electronics/ARM/_Library/u8g2_font.c ****   return u8g2_string_width(u8g2, s);
 2803              		.loc 1 1172 0
 2804 0006 FFF7FEFF 		bl	u8g2_string_width
 2805              	.LVL387:
1173:/Users/imashio/Electronics/ARM/_Library/u8g2_font.c **** }
 2806              		.loc 1 1173 0
 2807 000a 08BD     		pop	{r3, pc}
 2808              	.L190:
 2809              		.align	2
 2810              	.L189:
 2811 000c 00000000 		.word	u8x8_ascii_next
 2812              		.cfi_endproc
 2813              	.LFE44:
 2815              		.section	.text.u8g2_GetExactStrWidth,"ax",%progbits
 2816              		.align	1
 2817              		.global	u8g2_GetExactStrWidth
 2818              		.syntax unified
 2819              		.thumb
 2820              		.thumb_func
 2821              		.fpu fpv4-sp-d16
 2823              	u8g2_GetExactStrWidth:
 2824              	.LFB45:
1174:/Users/imashio/Electronics/ARM/_Library/u8g2_font.c **** 
1175:/Users/imashio/Electronics/ARM/_Library/u8g2_font.c **** u8g2_uint_t u8g2_GetExactStrWidth(u8g2_t *u8g2, const char *s)
1176:/Users/imashio/Electronics/ARM/_Library/u8g2_font.c **** {
 2825              		.loc 1 1176 0
 2826              		.cfi_startproc
 2827              		@ args = 0, pretend = 0, frame = 0
 2828              		@ frame_needed = 0, uses_anonymous_args = 0
 2829              	.LVL388:
 2830 0000 08B5     		push	{r3, lr}
 2831              	.LCFI41:
 2832              		.cfi_def_cfa_offset 8
 2833              		.cfi_offset 3, -8
 2834              		.cfi_offset 14, -4
1177:/Users/imashio/Electronics/ARM/_Library/u8g2_font.c ****   u8g2->u8x8.next_cb = u8x8_ascii_next;
 2835              		.loc 1 1177 0
 2836 0002 024B     		ldr	r3, .L193
ARM GAS  /var/folders/v3/wysfpd052nz8jkbx04pk0ym80000gn/T//ccfX3eBQ.s 			page 76


 2837 0004 4360     		str	r3, [r0, #4]
1178:/Users/imashio/Electronics/ARM/_Library/u8g2_font.c ****   return u8g2_calculate_exact_string_width(u8g2, s);
 2838              		.loc 1 1178 0
 2839 0006 FFF7FEFF 		bl	u8g2_calculate_exact_string_width
 2840              	.LVL389:
1179:/Users/imashio/Electronics/ARM/_Library/u8g2_font.c **** }
 2841              		.loc 1 1179 0
 2842 000a 08BD     		pop	{r3, pc}
 2843              	.L194:
 2844              		.align	2
 2845              	.L193:
 2846 000c 00000000 		.word	u8x8_ascii_next
 2847              		.cfi_endproc
 2848              	.LFE45:
 2850              		.section	.text.u8g2_GetUTF8Width,"ax",%progbits
 2851              		.align	1
 2852              		.global	u8g2_GetUTF8Width
 2853              		.syntax unified
 2854              		.thumb
 2855              		.thumb_func
 2856              		.fpu fpv4-sp-d16
 2858              	u8g2_GetUTF8Width:
 2859              	.LFB46:
1180:/Users/imashio/Electronics/ARM/_Library/u8g2_font.c **** 
1181:/Users/imashio/Electronics/ARM/_Library/u8g2_font.c **** /*
1182:/Users/imashio/Electronics/ARM/_Library/u8g2_font.c **** source: https://en.wikipedia.org/wiki/UTF-8
1183:/Users/imashio/Electronics/ARM/_Library/u8g2_font.c **** Bits	from 		to			bytes	Byte 1 		Byte 2 		Byte 3 		Byte 4 		Byte 5 		Byte 6
1184:/Users/imashio/Electronics/ARM/_Library/u8g2_font.c ****   7 	U+0000 		U+007F 		1 		0xxxxxxx
1185:/Users/imashio/Electronics/ARM/_Library/u8g2_font.c **** 11 	U+0080 		U+07FF 		2 		110xxxxx 	10xxxxxx
1186:/Users/imashio/Electronics/ARM/_Library/u8g2_font.c **** 16 	U+0800 		U+FFFF 		3 		1110xxxx 	10xxxxxx 	10xxxxxx
1187:/Users/imashio/Electronics/ARM/_Library/u8g2_font.c **** 21 	U+10000 	U+1FFFFF 	4 		11110xxx 	10xxxxxx 	10xxxxxx 	10xxxxxx
1188:/Users/imashio/Electronics/ARM/_Library/u8g2_font.c **** 26 	U+200000 	U+3FFFFFF 	5 		111110xx 	10xxxxxx 	10xxxxxx 	10xxxxxx 	10xxxxxx
1189:/Users/imashio/Electronics/ARM/_Library/u8g2_font.c **** 31 	U+4000000 	U+7FFFFFFF 	6 		1111110x 	10xxxxxx 	10xxxxxx 	10xxxxxx 	10xxxxxx 	10xxxxxx  
1190:/Users/imashio/Electronics/ARM/_Library/u8g2_font.c **** */
1191:/Users/imashio/Electronics/ARM/_Library/u8g2_font.c **** u8g2_uint_t u8g2_GetUTF8Width(u8g2_t *u8g2, const char *str)
1192:/Users/imashio/Electronics/ARM/_Library/u8g2_font.c **** {
 2860              		.loc 1 1192 0
 2861              		.cfi_startproc
 2862              		@ args = 0, pretend = 0, frame = 0
 2863              		@ frame_needed = 0, uses_anonymous_args = 0
 2864              	.LVL390:
 2865 0000 08B5     		push	{r3, lr}
 2866              	.LCFI42:
 2867              		.cfi_def_cfa_offset 8
 2868              		.cfi_offset 3, -8
 2869              		.cfi_offset 14, -4
1193:/Users/imashio/Electronics/ARM/_Library/u8g2_font.c ****   u8g2->u8x8.next_cb = u8x8_utf8_next;
 2870              		.loc 1 1193 0
 2871 0002 024B     		ldr	r3, .L197
 2872 0004 4360     		str	r3, [r0, #4]
1194:/Users/imashio/Electronics/ARM/_Library/u8g2_font.c ****   return u8g2_string_width(u8g2, str);
 2873              		.loc 1 1194 0
 2874 0006 FFF7FEFF 		bl	u8g2_string_width
 2875              	.LVL391:
1195:/Users/imashio/Electronics/ARM/_Library/u8g2_font.c **** }
 2876              		.loc 1 1195 0
 2877 000a 08BD     		pop	{r3, pc}
ARM GAS  /var/folders/v3/wysfpd052nz8jkbx04pk0ym80000gn/T//ccfX3eBQ.s 			page 77


 2878              	.L198:
 2879              		.align	2
 2880              	.L197:
 2881 000c 00000000 		.word	u8x8_utf8_next
 2882              		.cfi_endproc
 2883              	.LFE46:
 2885              		.section	.text.u8g2_SetFontDirection,"ax",%progbits
 2886              		.align	1
 2887              		.global	u8g2_SetFontDirection
 2888              		.syntax unified
 2889              		.thumb
 2890              		.thumb_func
 2891              		.fpu fpv4-sp-d16
 2893              	u8g2_SetFontDirection:
 2894              	.LFB47:
1196:/Users/imashio/Electronics/ARM/_Library/u8g2_font.c **** 
1197:/Users/imashio/Electronics/ARM/_Library/u8g2_font.c **** 
1198:/Users/imashio/Electronics/ARM/_Library/u8g2_font.c **** 
1199:/Users/imashio/Electronics/ARM/_Library/u8g2_font.c **** void u8g2_SetFontDirection(u8g2_t *u8g2, uint8_t dir)
1200:/Users/imashio/Electronics/ARM/_Library/u8g2_font.c **** {
 2895              		.loc 1 1200 0
 2896              		.cfi_startproc
 2897              		@ args = 0, pretend = 0, frame = 0
 2898              		@ frame_needed = 0, uses_anonymous_args = 0
 2899              		@ link register save eliminated.
 2900              	.LVL392:
1201:/Users/imashio/Electronics/ARM/_Library/u8g2_font.c **** #ifdef U8G2_WITH_FONT_ROTATION  
1202:/Users/imashio/Electronics/ARM/_Library/u8g2_font.c ****   u8g2->font_decode.dir = dir;
 2901              		.loc 1 1202 0
 2902 0000 80F85E10 		strb	r1, [r0, #94]
1203:/Users/imashio/Electronics/ARM/_Library/u8g2_font.c **** #endif
1204:/Users/imashio/Electronics/ARM/_Library/u8g2_font.c **** }
 2903              		.loc 1 1204 0
 2904 0004 7047     		bx	lr
 2905              		.cfi_endproc
 2906              	.LFE47:
 2908              		.text
 2909              	.Letext0:
 2910              		.file 2 "/usr/local/gcc-arm-none-eabi-7-2018-q2-update/arm-none-eabi/include/machine/_default_type
 2911              		.file 3 "/usr/local/gcc-arm-none-eabi-7-2018-q2-update/arm-none-eabi/include/sys/_stdint.h"
 2912              		.file 4 "/usr/local/gcc-arm-none-eabi-7-2018-q2-update/lib/gcc/arm-none-eabi/7.3.1/include/stddef.
 2913              		.file 5 "/Users/imashio/Electronics/ARM/_Library/u8x8.h"
 2914              		.file 6 "/Users/imashio/Electronics/ARM/_Library/u8g2.h"
ARM GAS  /var/folders/v3/wysfpd052nz8jkbx04pk0ym80000gn/T//ccfX3eBQ.s 			page 78

