ARM GAS  /var/folders/v3/wysfpd052nz8jkbx04pk0ym80000gn/T//ccU8HdeZ.s 			page 1


   1              		.cpu cortex-m4
   2              		.eabi_attribute 27, 1
   3              		.eabi_attribute 28, 1
   4              		.eabi_attribute 20, 1
   5              		.eabi_attribute 21, 1
   6              		.eabi_attribute 23, 3
   7              		.eabi_attribute 24, 1
   8              		.eabi_attribute 25, 1
   9              		.eabi_attribute 26, 1
  10              		.eabi_attribute 30, 2
  11              		.eabi_attribute 34, 1
  12              		.eabi_attribute 18, 4
  13              		.file	"u8g2_d_setup.c"
  14              		.text
  15              	.Ltext0:
  16              		.cfi_sections	.debug_frame
  17              		.section	.text.u8g2_Setup_ssd1305_128x32_noname_1,"ax",%progbits
  18              		.align	1
  19              		.p2align 2,,3
  20              		.global	u8g2_Setup_ssd1305_128x32_noname_1
  21              		.syntax unified
  22              		.thumb
  23              		.thumb_func
  24              		.fpu fpv4-sp-d16
  26              	u8g2_Setup_ssd1305_128x32_noname_1:
  27              	.LFB0:
  28              		.file 1 "/Users/imashio/Electronics/ARM/_Library/u8g2_d_setup.c"
   1:/Users/imashio/Electronics/ARM/_Library/u8g2_d_setup.c **** /* u8g2_d_setup.c */
   2:/Users/imashio/Electronics/ARM/_Library/u8g2_d_setup.c **** /* generated code, codebuild, u8g2 project */
   3:/Users/imashio/Electronics/ARM/_Library/u8g2_d_setup.c **** 
   4:/Users/imashio/Electronics/ARM/_Library/u8g2_d_setup.c **** #include "u8g2.h"
   5:/Users/imashio/Electronics/ARM/_Library/u8g2_d_setup.c **** 
   6:/Users/imashio/Electronics/ARM/_Library/u8g2_d_setup.c **** /* ssd1305 */
   7:/Users/imashio/Electronics/ARM/_Library/u8g2_d_setup.c **** /* ssd1305 1 */
   8:/Users/imashio/Electronics/ARM/_Library/u8g2_d_setup.c **** void u8g2_Setup_ssd1305_128x32_noname_1(u8g2_t *u8g2, const u8g2_cb_t *rotation, u8x8_msg_cb byte_c
   9:/Users/imashio/Electronics/ARM/_Library/u8g2_d_setup.c **** {
  29              		.loc 1 9 0
  30              		.cfi_startproc
  31              		@ args = 0, pretend = 0, frame = 8
  32              		@ frame_needed = 0, uses_anonymous_args = 0
  33              	.LVL0:
  34 0000 30B5     		push	{r4, r5, lr}
  35              	.LCFI0:
  36              		.cfi_def_cfa_offset 12
  37              		.cfi_offset 4, -12
  38              		.cfi_offset 5, -8
  39              		.cfi_offset 14, -4
  40 0002 85B0     		sub	sp, sp, #20
  41              	.LCFI1:
  42              		.cfi_def_cfa_offset 32
  43              		.loc 1 9 0
  44 0004 0D46     		mov	r5, r1
  10:/Users/imashio/Electronics/ARM/_Library/u8g2_d_setup.c ****   uint8_t tile_buf_height;
  11:/Users/imashio/Electronics/ARM/_Library/u8g2_d_setup.c ****   uint8_t *buf;
  12:/Users/imashio/Electronics/ARM/_Library/u8g2_d_setup.c ****   u8g2_SetupDisplay(u8g2, u8x8_d_ssd1305_128x32_noname, u8x8_cad_001, byte_cb, gpio_and_delay_cb);
  45              		.loc 1 12 0
  46 0006 0093     		str	r3, [sp]
ARM GAS  /var/folders/v3/wysfpd052nz8jkbx04pk0ym80000gn/T//ccU8HdeZ.s 			page 2


  47 0008 0949     		ldr	r1, .L4
  48              	.LVL1:
  49 000a 1346     		mov	r3, r2
  50              	.LVL2:
  51 000c 094A     		ldr	r2, .L4+4
  52              	.LVL3:
   9:/Users/imashio/Electronics/ARM/_Library/u8g2_d_setup.c ****   uint8_t tile_buf_height;
  53              		.loc 1 9 0
  54 000e 0446     		mov	r4, r0
  55              		.loc 1 12 0
  56 0010 FFF7FEFF 		bl	u8x8_Setup
  57              	.LVL4:
  13:/Users/imashio/Electronics/ARM/_Library/u8g2_d_setup.c ****   buf = u8g2_m_16_4_1(&tile_buf_height);
  58              		.loc 1 13 0
  59 0014 0DF10F00 		add	r0, sp, #15
  60 0018 FFF7FEFF 		bl	u8g2_m_16_4_1
  61              	.LVL5:
  14:/Users/imashio/Electronics/ARM/_Library/u8g2_d_setup.c ****   u8g2_SetupBuffer(u8g2, buf, tile_buf_height, u8g2_ll_hvline_vertical_top_lsb, rotation);
  62              		.loc 1 14 0
  63 001c 9DF80F20 		ldrb	r2, [sp, #15]	@ zero_extendqisi2
  64 0020 0095     		str	r5, [sp]
  65 0022 0146     		mov	r1, r0
  66 0024 044B     		ldr	r3, .L4+8
  67 0026 2046     		mov	r0, r4
  68              	.LVL6:
  69 0028 FFF7FEFF 		bl	u8g2_SetupBuffer
  70              	.LVL7:
  15:/Users/imashio/Electronics/ARM/_Library/u8g2_d_setup.c **** }
  71              		.loc 1 15 0
  72 002c 05B0     		add	sp, sp, #20
  73              	.LCFI2:
  74              		.cfi_def_cfa_offset 12
  75              		@ sp needed
  76 002e 30BD     		pop	{r4, r5, pc}
  77              	.LVL8:
  78              	.L5:
  79              		.align	2
  80              	.L4:
  81 0030 00000000 		.word	u8x8_d_ssd1305_128x32_noname
  82 0034 00000000 		.word	u8x8_cad_001
  83 0038 00000000 		.word	u8g2_ll_hvline_vertical_top_lsb
  84              		.cfi_endproc
  85              	.LFE0:
  87              		.section	.text.u8g2_Setup_ssd1305_128x32_noname_2,"ax",%progbits
  88              		.align	1
  89              		.p2align 2,,3
  90              		.global	u8g2_Setup_ssd1305_128x32_noname_2
  91              		.syntax unified
  92              		.thumb
  93              		.thumb_func
  94              		.fpu fpv4-sp-d16
  96              	u8g2_Setup_ssd1305_128x32_noname_2:
  97              	.LFB1:
  16:/Users/imashio/Electronics/ARM/_Library/u8g2_d_setup.c **** /* ssd1305 2 */
  17:/Users/imashio/Electronics/ARM/_Library/u8g2_d_setup.c **** void u8g2_Setup_ssd1305_128x32_noname_2(u8g2_t *u8g2, const u8g2_cb_t *rotation, u8x8_msg_cb byte_c
  18:/Users/imashio/Electronics/ARM/_Library/u8g2_d_setup.c **** {
  98              		.loc 1 18 0
ARM GAS  /var/folders/v3/wysfpd052nz8jkbx04pk0ym80000gn/T//ccU8HdeZ.s 			page 3


  99              		.cfi_startproc
 100              		@ args = 0, pretend = 0, frame = 8
 101              		@ frame_needed = 0, uses_anonymous_args = 0
 102              	.LVL9:
 103 0000 30B5     		push	{r4, r5, lr}
 104              	.LCFI3:
 105              		.cfi_def_cfa_offset 12
 106              		.cfi_offset 4, -12
 107              		.cfi_offset 5, -8
 108              		.cfi_offset 14, -4
 109 0002 85B0     		sub	sp, sp, #20
 110              	.LCFI4:
 111              		.cfi_def_cfa_offset 32
 112              		.loc 1 18 0
 113 0004 0D46     		mov	r5, r1
  19:/Users/imashio/Electronics/ARM/_Library/u8g2_d_setup.c ****   uint8_t tile_buf_height;
  20:/Users/imashio/Electronics/ARM/_Library/u8g2_d_setup.c ****   uint8_t *buf;
  21:/Users/imashio/Electronics/ARM/_Library/u8g2_d_setup.c ****   u8g2_SetupDisplay(u8g2, u8x8_d_ssd1305_128x32_noname, u8x8_cad_001, byte_cb, gpio_and_delay_cb);
 114              		.loc 1 21 0
 115 0006 0093     		str	r3, [sp]
 116 0008 0949     		ldr	r1, .L8
 117              	.LVL10:
 118 000a 1346     		mov	r3, r2
 119              	.LVL11:
 120 000c 094A     		ldr	r2, .L8+4
 121              	.LVL12:
  18:/Users/imashio/Electronics/ARM/_Library/u8g2_d_setup.c ****   uint8_t tile_buf_height;
 122              		.loc 1 18 0
 123 000e 0446     		mov	r4, r0
 124              		.loc 1 21 0
 125 0010 FFF7FEFF 		bl	u8x8_Setup
 126              	.LVL13:
  22:/Users/imashio/Electronics/ARM/_Library/u8g2_d_setup.c ****   buf = u8g2_m_16_4_2(&tile_buf_height);
 127              		.loc 1 22 0
 128 0014 0DF10F00 		add	r0, sp, #15
 129 0018 FFF7FEFF 		bl	u8g2_m_16_4_2
 130              	.LVL14:
  23:/Users/imashio/Electronics/ARM/_Library/u8g2_d_setup.c ****   u8g2_SetupBuffer(u8g2, buf, tile_buf_height, u8g2_ll_hvline_vertical_top_lsb, rotation);
 131              		.loc 1 23 0
 132 001c 9DF80F20 		ldrb	r2, [sp, #15]	@ zero_extendqisi2
 133 0020 0095     		str	r5, [sp]
 134 0022 0146     		mov	r1, r0
 135 0024 044B     		ldr	r3, .L8+8
 136 0026 2046     		mov	r0, r4
 137              	.LVL15:
 138 0028 FFF7FEFF 		bl	u8g2_SetupBuffer
 139              	.LVL16:
  24:/Users/imashio/Electronics/ARM/_Library/u8g2_d_setup.c **** }
 140              		.loc 1 24 0
 141 002c 05B0     		add	sp, sp, #20
 142              	.LCFI5:
 143              		.cfi_def_cfa_offset 12
 144              		@ sp needed
 145 002e 30BD     		pop	{r4, r5, pc}
 146              	.LVL17:
 147              	.L9:
 148              		.align	2
ARM GAS  /var/folders/v3/wysfpd052nz8jkbx04pk0ym80000gn/T//ccU8HdeZ.s 			page 4


 149              	.L8:
 150 0030 00000000 		.word	u8x8_d_ssd1305_128x32_noname
 151 0034 00000000 		.word	u8x8_cad_001
 152 0038 00000000 		.word	u8g2_ll_hvline_vertical_top_lsb
 153              		.cfi_endproc
 154              	.LFE1:
 156              		.section	.text.u8g2_Setup_ssd1305_128x32_noname_f,"ax",%progbits
 157              		.align	1
 158              		.p2align 2,,3
 159              		.global	u8g2_Setup_ssd1305_128x32_noname_f
 160              		.syntax unified
 161              		.thumb
 162              		.thumb_func
 163              		.fpu fpv4-sp-d16
 165              	u8g2_Setup_ssd1305_128x32_noname_f:
 166              	.LFB2:
  25:/Users/imashio/Electronics/ARM/_Library/u8g2_d_setup.c **** /* ssd1305 f */
  26:/Users/imashio/Electronics/ARM/_Library/u8g2_d_setup.c **** void u8g2_Setup_ssd1305_128x32_noname_f(u8g2_t *u8g2, const u8g2_cb_t *rotation, u8x8_msg_cb byte_c
  27:/Users/imashio/Electronics/ARM/_Library/u8g2_d_setup.c **** {
 167              		.loc 1 27 0
 168              		.cfi_startproc
 169              		@ args = 0, pretend = 0, frame = 8
 170              		@ frame_needed = 0, uses_anonymous_args = 0
 171              	.LVL18:
 172 0000 30B5     		push	{r4, r5, lr}
 173              	.LCFI6:
 174              		.cfi_def_cfa_offset 12
 175              		.cfi_offset 4, -12
 176              		.cfi_offset 5, -8
 177              		.cfi_offset 14, -4
 178 0002 85B0     		sub	sp, sp, #20
 179              	.LCFI7:
 180              		.cfi_def_cfa_offset 32
 181              		.loc 1 27 0
 182 0004 0D46     		mov	r5, r1
  28:/Users/imashio/Electronics/ARM/_Library/u8g2_d_setup.c ****   uint8_t tile_buf_height;
  29:/Users/imashio/Electronics/ARM/_Library/u8g2_d_setup.c ****   uint8_t *buf;
  30:/Users/imashio/Electronics/ARM/_Library/u8g2_d_setup.c ****   u8g2_SetupDisplay(u8g2, u8x8_d_ssd1305_128x32_noname, u8x8_cad_001, byte_cb, gpio_and_delay_cb);
 183              		.loc 1 30 0
 184 0006 0093     		str	r3, [sp]
 185 0008 0949     		ldr	r1, .L12
 186              	.LVL19:
 187 000a 1346     		mov	r3, r2
 188              	.LVL20:
 189 000c 094A     		ldr	r2, .L12+4
 190              	.LVL21:
  27:/Users/imashio/Electronics/ARM/_Library/u8g2_d_setup.c ****   uint8_t tile_buf_height;
 191              		.loc 1 27 0
 192 000e 0446     		mov	r4, r0
 193              		.loc 1 30 0
 194 0010 FFF7FEFF 		bl	u8x8_Setup
 195              	.LVL22:
  31:/Users/imashio/Electronics/ARM/_Library/u8g2_d_setup.c ****   buf = u8g2_m_16_4_f(&tile_buf_height);
 196              		.loc 1 31 0
 197 0014 0DF10F00 		add	r0, sp, #15
 198 0018 FFF7FEFF 		bl	u8g2_m_16_4_f
 199              	.LVL23:
ARM GAS  /var/folders/v3/wysfpd052nz8jkbx04pk0ym80000gn/T//ccU8HdeZ.s 			page 5


  32:/Users/imashio/Electronics/ARM/_Library/u8g2_d_setup.c ****   u8g2_SetupBuffer(u8g2, buf, tile_buf_height, u8g2_ll_hvline_vertical_top_lsb, rotation);
 200              		.loc 1 32 0
 201 001c 9DF80F20 		ldrb	r2, [sp, #15]	@ zero_extendqisi2
 202 0020 0095     		str	r5, [sp]
 203 0022 0146     		mov	r1, r0
 204 0024 044B     		ldr	r3, .L12+8
 205 0026 2046     		mov	r0, r4
 206              	.LVL24:
 207 0028 FFF7FEFF 		bl	u8g2_SetupBuffer
 208              	.LVL25:
  33:/Users/imashio/Electronics/ARM/_Library/u8g2_d_setup.c **** }
 209              		.loc 1 33 0
 210 002c 05B0     		add	sp, sp, #20
 211              	.LCFI8:
 212              		.cfi_def_cfa_offset 12
 213              		@ sp needed
 214 002e 30BD     		pop	{r4, r5, pc}
 215              	.LVL26:
 216              	.L13:
 217              		.align	2
 218              	.L12:
 219 0030 00000000 		.word	u8x8_d_ssd1305_128x32_noname
 220 0034 00000000 		.word	u8x8_cad_001
 221 0038 00000000 		.word	u8g2_ll_hvline_vertical_top_lsb
 222              		.cfi_endproc
 223              	.LFE2:
 225              		.section	.text.u8g2_Setup_ssd1305_i2c_128x32_noname_1,"ax",%progbits
 226              		.align	1
 227              		.p2align 2,,3
 228              		.global	u8g2_Setup_ssd1305_i2c_128x32_noname_1
 229              		.syntax unified
 230              		.thumb
 231              		.thumb_func
 232              		.fpu fpv4-sp-d16
 234              	u8g2_Setup_ssd1305_i2c_128x32_noname_1:
 235              	.LFB3:
  34:/Users/imashio/Electronics/ARM/_Library/u8g2_d_setup.c **** /* ssd1305 */
  35:/Users/imashio/Electronics/ARM/_Library/u8g2_d_setup.c **** /* ssd1305 1 */
  36:/Users/imashio/Electronics/ARM/_Library/u8g2_d_setup.c **** void u8g2_Setup_ssd1305_i2c_128x32_noname_1(u8g2_t *u8g2, const u8g2_cb_t *rotation, u8x8_msg_cb by
  37:/Users/imashio/Electronics/ARM/_Library/u8g2_d_setup.c **** {
 236              		.loc 1 37 0
 237              		.cfi_startproc
 238              		@ args = 0, pretend = 0, frame = 8
 239              		@ frame_needed = 0, uses_anonymous_args = 0
 240              	.LVL27:
 241 0000 30B5     		push	{r4, r5, lr}
 242              	.LCFI9:
 243              		.cfi_def_cfa_offset 12
 244              		.cfi_offset 4, -12
 245              		.cfi_offset 5, -8
 246              		.cfi_offset 14, -4
 247 0002 85B0     		sub	sp, sp, #20
 248              	.LCFI10:
 249              		.cfi_def_cfa_offset 32
 250              		.loc 1 37 0
 251 0004 0D46     		mov	r5, r1
  38:/Users/imashio/Electronics/ARM/_Library/u8g2_d_setup.c ****   uint8_t tile_buf_height;
ARM GAS  /var/folders/v3/wysfpd052nz8jkbx04pk0ym80000gn/T//ccU8HdeZ.s 			page 6


  39:/Users/imashio/Electronics/ARM/_Library/u8g2_d_setup.c ****   uint8_t *buf;
  40:/Users/imashio/Electronics/ARM/_Library/u8g2_d_setup.c ****   u8g2_SetupDisplay(u8g2, u8x8_d_ssd1305_128x32_noname, u8x8_cad_ssd13xx_i2c, byte_cb, gpio_and_del
 252              		.loc 1 40 0
 253 0006 0093     		str	r3, [sp]
 254 0008 0949     		ldr	r1, .L16
 255              	.LVL28:
 256 000a 1346     		mov	r3, r2
 257              	.LVL29:
 258 000c 094A     		ldr	r2, .L16+4
 259              	.LVL30:
  37:/Users/imashio/Electronics/ARM/_Library/u8g2_d_setup.c ****   uint8_t tile_buf_height;
 260              		.loc 1 37 0
 261 000e 0446     		mov	r4, r0
 262              		.loc 1 40 0
 263 0010 FFF7FEFF 		bl	u8x8_Setup
 264              	.LVL31:
  41:/Users/imashio/Electronics/ARM/_Library/u8g2_d_setup.c ****   buf = u8g2_m_16_4_1(&tile_buf_height);
 265              		.loc 1 41 0
 266 0014 0DF10F00 		add	r0, sp, #15
 267 0018 FFF7FEFF 		bl	u8g2_m_16_4_1
 268              	.LVL32:
  42:/Users/imashio/Electronics/ARM/_Library/u8g2_d_setup.c ****   u8g2_SetupBuffer(u8g2, buf, tile_buf_height, u8g2_ll_hvline_vertical_top_lsb, rotation);
 269              		.loc 1 42 0
 270 001c 9DF80F20 		ldrb	r2, [sp, #15]	@ zero_extendqisi2
 271 0020 0095     		str	r5, [sp]
 272 0022 0146     		mov	r1, r0
 273 0024 044B     		ldr	r3, .L16+8
 274 0026 2046     		mov	r0, r4
 275              	.LVL33:
 276 0028 FFF7FEFF 		bl	u8g2_SetupBuffer
 277              	.LVL34:
  43:/Users/imashio/Electronics/ARM/_Library/u8g2_d_setup.c **** }
 278              		.loc 1 43 0
 279 002c 05B0     		add	sp, sp, #20
 280              	.LCFI11:
 281              		.cfi_def_cfa_offset 12
 282              		@ sp needed
 283 002e 30BD     		pop	{r4, r5, pc}
 284              	.LVL35:
 285              	.L17:
 286              		.align	2
 287              	.L16:
 288 0030 00000000 		.word	u8x8_d_ssd1305_128x32_noname
 289 0034 00000000 		.word	u8x8_cad_ssd13xx_i2c
 290 0038 00000000 		.word	u8g2_ll_hvline_vertical_top_lsb
 291              		.cfi_endproc
 292              	.LFE3:
 294              		.section	.text.u8g2_Setup_ssd1305_i2c_128x32_noname_2,"ax",%progbits
 295              		.align	1
 296              		.p2align 2,,3
 297              		.global	u8g2_Setup_ssd1305_i2c_128x32_noname_2
 298              		.syntax unified
 299              		.thumb
 300              		.thumb_func
 301              		.fpu fpv4-sp-d16
 303              	u8g2_Setup_ssd1305_i2c_128x32_noname_2:
 304              	.LFB4:
ARM GAS  /var/folders/v3/wysfpd052nz8jkbx04pk0ym80000gn/T//ccU8HdeZ.s 			page 7


  44:/Users/imashio/Electronics/ARM/_Library/u8g2_d_setup.c **** /* ssd1305 2 */
  45:/Users/imashio/Electronics/ARM/_Library/u8g2_d_setup.c **** void u8g2_Setup_ssd1305_i2c_128x32_noname_2(u8g2_t *u8g2, const u8g2_cb_t *rotation, u8x8_msg_cb by
  46:/Users/imashio/Electronics/ARM/_Library/u8g2_d_setup.c **** {
 305              		.loc 1 46 0
 306              		.cfi_startproc
 307              		@ args = 0, pretend = 0, frame = 8
 308              		@ frame_needed = 0, uses_anonymous_args = 0
 309              	.LVL36:
 310 0000 30B5     		push	{r4, r5, lr}
 311              	.LCFI12:
 312              		.cfi_def_cfa_offset 12
 313              		.cfi_offset 4, -12
 314              		.cfi_offset 5, -8
 315              		.cfi_offset 14, -4
 316 0002 85B0     		sub	sp, sp, #20
 317              	.LCFI13:
 318              		.cfi_def_cfa_offset 32
 319              		.loc 1 46 0
 320 0004 0D46     		mov	r5, r1
  47:/Users/imashio/Electronics/ARM/_Library/u8g2_d_setup.c ****   uint8_t tile_buf_height;
  48:/Users/imashio/Electronics/ARM/_Library/u8g2_d_setup.c ****   uint8_t *buf;
  49:/Users/imashio/Electronics/ARM/_Library/u8g2_d_setup.c ****   u8g2_SetupDisplay(u8g2, u8x8_d_ssd1305_128x32_noname, u8x8_cad_ssd13xx_i2c, byte_cb, gpio_and_del
 321              		.loc 1 49 0
 322 0006 0093     		str	r3, [sp]
 323 0008 0949     		ldr	r1, .L20
 324              	.LVL37:
 325 000a 1346     		mov	r3, r2
 326              	.LVL38:
 327 000c 094A     		ldr	r2, .L20+4
 328              	.LVL39:
  46:/Users/imashio/Electronics/ARM/_Library/u8g2_d_setup.c ****   uint8_t tile_buf_height;
 329              		.loc 1 46 0
 330 000e 0446     		mov	r4, r0
 331              		.loc 1 49 0
 332 0010 FFF7FEFF 		bl	u8x8_Setup
 333              	.LVL40:
  50:/Users/imashio/Electronics/ARM/_Library/u8g2_d_setup.c ****   buf = u8g2_m_16_4_2(&tile_buf_height);
 334              		.loc 1 50 0
 335 0014 0DF10F00 		add	r0, sp, #15
 336 0018 FFF7FEFF 		bl	u8g2_m_16_4_2
 337              	.LVL41:
  51:/Users/imashio/Electronics/ARM/_Library/u8g2_d_setup.c ****   u8g2_SetupBuffer(u8g2, buf, tile_buf_height, u8g2_ll_hvline_vertical_top_lsb, rotation);
 338              		.loc 1 51 0
 339 001c 9DF80F20 		ldrb	r2, [sp, #15]	@ zero_extendqisi2
 340 0020 0095     		str	r5, [sp]
 341 0022 0146     		mov	r1, r0
 342 0024 044B     		ldr	r3, .L20+8
 343 0026 2046     		mov	r0, r4
 344              	.LVL42:
 345 0028 FFF7FEFF 		bl	u8g2_SetupBuffer
 346              	.LVL43:
  52:/Users/imashio/Electronics/ARM/_Library/u8g2_d_setup.c **** }
 347              		.loc 1 52 0
 348 002c 05B0     		add	sp, sp, #20
 349              	.LCFI14:
 350              		.cfi_def_cfa_offset 12
 351              		@ sp needed
ARM GAS  /var/folders/v3/wysfpd052nz8jkbx04pk0ym80000gn/T//ccU8HdeZ.s 			page 8


 352 002e 30BD     		pop	{r4, r5, pc}
 353              	.LVL44:
 354              	.L21:
 355              		.align	2
 356              	.L20:
 357 0030 00000000 		.word	u8x8_d_ssd1305_128x32_noname
 358 0034 00000000 		.word	u8x8_cad_ssd13xx_i2c
 359 0038 00000000 		.word	u8g2_ll_hvline_vertical_top_lsb
 360              		.cfi_endproc
 361              	.LFE4:
 363              		.section	.text.u8g2_Setup_ssd1305_i2c_128x32_noname_f,"ax",%progbits
 364              		.align	1
 365              		.p2align 2,,3
 366              		.global	u8g2_Setup_ssd1305_i2c_128x32_noname_f
 367              		.syntax unified
 368              		.thumb
 369              		.thumb_func
 370              		.fpu fpv4-sp-d16
 372              	u8g2_Setup_ssd1305_i2c_128x32_noname_f:
 373              	.LFB5:
  53:/Users/imashio/Electronics/ARM/_Library/u8g2_d_setup.c **** /* ssd1305 f */
  54:/Users/imashio/Electronics/ARM/_Library/u8g2_d_setup.c **** void u8g2_Setup_ssd1305_i2c_128x32_noname_f(u8g2_t *u8g2, const u8g2_cb_t *rotation, u8x8_msg_cb by
  55:/Users/imashio/Electronics/ARM/_Library/u8g2_d_setup.c **** {
 374              		.loc 1 55 0
 375              		.cfi_startproc
 376              		@ args = 0, pretend = 0, frame = 8
 377              		@ frame_needed = 0, uses_anonymous_args = 0
 378              	.LVL45:
 379 0000 30B5     		push	{r4, r5, lr}
 380              	.LCFI15:
 381              		.cfi_def_cfa_offset 12
 382              		.cfi_offset 4, -12
 383              		.cfi_offset 5, -8
 384              		.cfi_offset 14, -4
 385 0002 85B0     		sub	sp, sp, #20
 386              	.LCFI16:
 387              		.cfi_def_cfa_offset 32
 388              		.loc 1 55 0
 389 0004 0D46     		mov	r5, r1
  56:/Users/imashio/Electronics/ARM/_Library/u8g2_d_setup.c ****   uint8_t tile_buf_height;
  57:/Users/imashio/Electronics/ARM/_Library/u8g2_d_setup.c ****   uint8_t *buf;
  58:/Users/imashio/Electronics/ARM/_Library/u8g2_d_setup.c ****   u8g2_SetupDisplay(u8g2, u8x8_d_ssd1305_128x32_noname, u8x8_cad_ssd13xx_i2c, byte_cb, gpio_and_del
 390              		.loc 1 58 0
 391 0006 0093     		str	r3, [sp]
 392 0008 0949     		ldr	r1, .L24
 393              	.LVL46:
 394 000a 1346     		mov	r3, r2
 395              	.LVL47:
 396 000c 094A     		ldr	r2, .L24+4
 397              	.LVL48:
  55:/Users/imashio/Electronics/ARM/_Library/u8g2_d_setup.c ****   uint8_t tile_buf_height;
 398              		.loc 1 55 0
 399 000e 0446     		mov	r4, r0
 400              		.loc 1 58 0
 401 0010 FFF7FEFF 		bl	u8x8_Setup
 402              	.LVL49:
  59:/Users/imashio/Electronics/ARM/_Library/u8g2_d_setup.c ****   buf = u8g2_m_16_4_f(&tile_buf_height);
ARM GAS  /var/folders/v3/wysfpd052nz8jkbx04pk0ym80000gn/T//ccU8HdeZ.s 			page 9


 403              		.loc 1 59 0
 404 0014 0DF10F00 		add	r0, sp, #15
 405 0018 FFF7FEFF 		bl	u8g2_m_16_4_f
 406              	.LVL50:
  60:/Users/imashio/Electronics/ARM/_Library/u8g2_d_setup.c ****   u8g2_SetupBuffer(u8g2, buf, tile_buf_height, u8g2_ll_hvline_vertical_top_lsb, rotation);
 407              		.loc 1 60 0
 408 001c 9DF80F20 		ldrb	r2, [sp, #15]	@ zero_extendqisi2
 409 0020 0095     		str	r5, [sp]
 410 0022 0146     		mov	r1, r0
 411 0024 044B     		ldr	r3, .L24+8
 412 0026 2046     		mov	r0, r4
 413              	.LVL51:
 414 0028 FFF7FEFF 		bl	u8g2_SetupBuffer
 415              	.LVL52:
  61:/Users/imashio/Electronics/ARM/_Library/u8g2_d_setup.c **** }
 416              		.loc 1 61 0
 417 002c 05B0     		add	sp, sp, #20
 418              	.LCFI17:
 419              		.cfi_def_cfa_offset 12
 420              		@ sp needed
 421 002e 30BD     		pop	{r4, r5, pc}
 422              	.LVL53:
 423              	.L25:
 424              		.align	2
 425              	.L24:
 426 0030 00000000 		.word	u8x8_d_ssd1305_128x32_noname
 427 0034 00000000 		.word	u8x8_cad_ssd13xx_i2c
 428 0038 00000000 		.word	u8g2_ll_hvline_vertical_top_lsb
 429              		.cfi_endproc
 430              	.LFE5:
 432              		.section	.text.u8g2_Setup_ssd1306_128x64_noname_1,"ax",%progbits
 433              		.align	1
 434              		.p2align 2,,3
 435              		.global	u8g2_Setup_ssd1306_128x64_noname_1
 436              		.syntax unified
 437              		.thumb
 438              		.thumb_func
 439              		.fpu fpv4-sp-d16
 441              	u8g2_Setup_ssd1306_128x64_noname_1:
 442              	.LFB6:
  62:/Users/imashio/Electronics/ARM/_Library/u8g2_d_setup.c **** /* ssd1306 */
  63:/Users/imashio/Electronics/ARM/_Library/u8g2_d_setup.c **** /* ssd1306 1 */
  64:/Users/imashio/Electronics/ARM/_Library/u8g2_d_setup.c **** void u8g2_Setup_ssd1306_128x64_noname_1(u8g2_t *u8g2, const u8g2_cb_t *rotation, u8x8_msg_cb byte_c
  65:/Users/imashio/Electronics/ARM/_Library/u8g2_d_setup.c **** {
 443              		.loc 1 65 0
 444              		.cfi_startproc
 445              		@ args = 0, pretend = 0, frame = 8
 446              		@ frame_needed = 0, uses_anonymous_args = 0
 447              	.LVL54:
 448 0000 30B5     		push	{r4, r5, lr}
 449              	.LCFI18:
 450              		.cfi_def_cfa_offset 12
 451              		.cfi_offset 4, -12
 452              		.cfi_offset 5, -8
 453              		.cfi_offset 14, -4
 454 0002 85B0     		sub	sp, sp, #20
 455              	.LCFI19:
ARM GAS  /var/folders/v3/wysfpd052nz8jkbx04pk0ym80000gn/T//ccU8HdeZ.s 			page 10


 456              		.cfi_def_cfa_offset 32
 457              		.loc 1 65 0
 458 0004 0D46     		mov	r5, r1
  66:/Users/imashio/Electronics/ARM/_Library/u8g2_d_setup.c ****   uint8_t tile_buf_height;
  67:/Users/imashio/Electronics/ARM/_Library/u8g2_d_setup.c ****   uint8_t *buf;
  68:/Users/imashio/Electronics/ARM/_Library/u8g2_d_setup.c ****   u8g2_SetupDisplay(u8g2, u8x8_d_ssd1306_128x64_noname, u8x8_cad_001, byte_cb, gpio_and_delay_cb);
 459              		.loc 1 68 0
 460 0006 0093     		str	r3, [sp]
 461 0008 0949     		ldr	r1, .L28
 462              	.LVL55:
 463 000a 1346     		mov	r3, r2
 464              	.LVL56:
 465 000c 094A     		ldr	r2, .L28+4
 466              	.LVL57:
  65:/Users/imashio/Electronics/ARM/_Library/u8g2_d_setup.c ****   uint8_t tile_buf_height;
 467              		.loc 1 65 0
 468 000e 0446     		mov	r4, r0
 469              		.loc 1 68 0
 470 0010 FFF7FEFF 		bl	u8x8_Setup
 471              	.LVL58:
  69:/Users/imashio/Electronics/ARM/_Library/u8g2_d_setup.c ****   buf = u8g2_m_16_8_1(&tile_buf_height);
 472              		.loc 1 69 0
 473 0014 0DF10F00 		add	r0, sp, #15
 474 0018 FFF7FEFF 		bl	u8g2_m_16_8_1
 475              	.LVL59:
  70:/Users/imashio/Electronics/ARM/_Library/u8g2_d_setup.c ****   u8g2_SetupBuffer(u8g2, buf, tile_buf_height, u8g2_ll_hvline_vertical_top_lsb, rotation);
 476              		.loc 1 70 0
 477 001c 9DF80F20 		ldrb	r2, [sp, #15]	@ zero_extendqisi2
 478 0020 0095     		str	r5, [sp]
 479 0022 0146     		mov	r1, r0
 480 0024 044B     		ldr	r3, .L28+8
 481 0026 2046     		mov	r0, r4
 482              	.LVL60:
 483 0028 FFF7FEFF 		bl	u8g2_SetupBuffer
 484              	.LVL61:
  71:/Users/imashio/Electronics/ARM/_Library/u8g2_d_setup.c **** }
 485              		.loc 1 71 0
 486 002c 05B0     		add	sp, sp, #20
 487              	.LCFI20:
 488              		.cfi_def_cfa_offset 12
 489              		@ sp needed
 490 002e 30BD     		pop	{r4, r5, pc}
 491              	.LVL62:
 492              	.L29:
 493              		.align	2
 494              	.L28:
 495 0030 00000000 		.word	u8x8_d_ssd1306_128x64_noname
 496 0034 00000000 		.word	u8x8_cad_001
 497 0038 00000000 		.word	u8g2_ll_hvline_vertical_top_lsb
 498              		.cfi_endproc
 499              	.LFE6:
 501              		.section	.text.u8g2_Setup_ssd1306_128x64_vcomh0_1,"ax",%progbits
 502              		.align	1
 503              		.p2align 2,,3
 504              		.global	u8g2_Setup_ssd1306_128x64_vcomh0_1
 505              		.syntax unified
 506              		.thumb
ARM GAS  /var/folders/v3/wysfpd052nz8jkbx04pk0ym80000gn/T//ccU8HdeZ.s 			page 11


 507              		.thumb_func
 508              		.fpu fpv4-sp-d16
 510              	u8g2_Setup_ssd1306_128x64_vcomh0_1:
 511              	.LFB7:
  72:/Users/imashio/Electronics/ARM/_Library/u8g2_d_setup.c **** void u8g2_Setup_ssd1306_128x64_vcomh0_1(u8g2_t *u8g2, const u8g2_cb_t *rotation, u8x8_msg_cb byte_c
  73:/Users/imashio/Electronics/ARM/_Library/u8g2_d_setup.c **** {
 512              		.loc 1 73 0
 513              		.cfi_startproc
 514              		@ args = 0, pretend = 0, frame = 8
 515              		@ frame_needed = 0, uses_anonymous_args = 0
 516              	.LVL63:
 517 0000 30B5     		push	{r4, r5, lr}
 518              	.LCFI21:
 519              		.cfi_def_cfa_offset 12
 520              		.cfi_offset 4, -12
 521              		.cfi_offset 5, -8
 522              		.cfi_offset 14, -4
 523 0002 85B0     		sub	sp, sp, #20
 524              	.LCFI22:
 525              		.cfi_def_cfa_offset 32
 526              		.loc 1 73 0
 527 0004 0D46     		mov	r5, r1
  74:/Users/imashio/Electronics/ARM/_Library/u8g2_d_setup.c ****   uint8_t tile_buf_height;
  75:/Users/imashio/Electronics/ARM/_Library/u8g2_d_setup.c ****   uint8_t *buf;
  76:/Users/imashio/Electronics/ARM/_Library/u8g2_d_setup.c ****   u8g2_SetupDisplay(u8g2, u8x8_d_ssd1306_128x64_vcomh0, u8x8_cad_001, byte_cb, gpio_and_delay_cb);
 528              		.loc 1 76 0
 529 0006 0093     		str	r3, [sp]
 530 0008 0949     		ldr	r1, .L32
 531              	.LVL64:
 532 000a 1346     		mov	r3, r2
 533              	.LVL65:
 534 000c 094A     		ldr	r2, .L32+4
 535              	.LVL66:
  73:/Users/imashio/Electronics/ARM/_Library/u8g2_d_setup.c ****   uint8_t tile_buf_height;
 536              		.loc 1 73 0
 537 000e 0446     		mov	r4, r0
 538              		.loc 1 76 0
 539 0010 FFF7FEFF 		bl	u8x8_Setup
 540              	.LVL67:
  77:/Users/imashio/Electronics/ARM/_Library/u8g2_d_setup.c ****   buf = u8g2_m_16_8_1(&tile_buf_height);
 541              		.loc 1 77 0
 542 0014 0DF10F00 		add	r0, sp, #15
 543 0018 FFF7FEFF 		bl	u8g2_m_16_8_1
 544              	.LVL68:
  78:/Users/imashio/Electronics/ARM/_Library/u8g2_d_setup.c ****   u8g2_SetupBuffer(u8g2, buf, tile_buf_height, u8g2_ll_hvline_vertical_top_lsb, rotation);
 545              		.loc 1 78 0
 546 001c 9DF80F20 		ldrb	r2, [sp, #15]	@ zero_extendqisi2
 547 0020 0095     		str	r5, [sp]
 548 0022 0146     		mov	r1, r0
 549 0024 044B     		ldr	r3, .L32+8
 550 0026 2046     		mov	r0, r4
 551              	.LVL69:
 552 0028 FFF7FEFF 		bl	u8g2_SetupBuffer
 553              	.LVL70:
  79:/Users/imashio/Electronics/ARM/_Library/u8g2_d_setup.c **** }
 554              		.loc 1 79 0
 555 002c 05B0     		add	sp, sp, #20
ARM GAS  /var/folders/v3/wysfpd052nz8jkbx04pk0ym80000gn/T//ccU8HdeZ.s 			page 12


 556              	.LCFI23:
 557              		.cfi_def_cfa_offset 12
 558              		@ sp needed
 559 002e 30BD     		pop	{r4, r5, pc}
 560              	.LVL71:
 561              	.L33:
 562              		.align	2
 563              	.L32:
 564 0030 00000000 		.word	u8x8_d_ssd1306_128x64_vcomh0
 565 0034 00000000 		.word	u8x8_cad_001
 566 0038 00000000 		.word	u8g2_ll_hvline_vertical_top_lsb
 567              		.cfi_endproc
 568              	.LFE7:
 570              		.section	.text.u8g2_Setup_ssd1306_128x64_alt0_1,"ax",%progbits
 571              		.align	1
 572              		.p2align 2,,3
 573              		.global	u8g2_Setup_ssd1306_128x64_alt0_1
 574              		.syntax unified
 575              		.thumb
 576              		.thumb_func
 577              		.fpu fpv4-sp-d16
 579              	u8g2_Setup_ssd1306_128x64_alt0_1:
 580              	.LFB8:
  80:/Users/imashio/Electronics/ARM/_Library/u8g2_d_setup.c **** void u8g2_Setup_ssd1306_128x64_alt0_1(u8g2_t *u8g2, const u8g2_cb_t *rotation, u8x8_msg_cb byte_cb,
  81:/Users/imashio/Electronics/ARM/_Library/u8g2_d_setup.c **** {
 581              		.loc 1 81 0
 582              		.cfi_startproc
 583              		@ args = 0, pretend = 0, frame = 8
 584              		@ frame_needed = 0, uses_anonymous_args = 0
 585              	.LVL72:
 586 0000 30B5     		push	{r4, r5, lr}
 587              	.LCFI24:
 588              		.cfi_def_cfa_offset 12
 589              		.cfi_offset 4, -12
 590              		.cfi_offset 5, -8
 591              		.cfi_offset 14, -4
 592 0002 85B0     		sub	sp, sp, #20
 593              	.LCFI25:
 594              		.cfi_def_cfa_offset 32
 595              		.loc 1 81 0
 596 0004 0D46     		mov	r5, r1
  82:/Users/imashio/Electronics/ARM/_Library/u8g2_d_setup.c ****   uint8_t tile_buf_height;
  83:/Users/imashio/Electronics/ARM/_Library/u8g2_d_setup.c ****   uint8_t *buf;
  84:/Users/imashio/Electronics/ARM/_Library/u8g2_d_setup.c ****   u8g2_SetupDisplay(u8g2, u8x8_d_ssd1306_128x64_alt0, u8x8_cad_001, byte_cb, gpio_and_delay_cb);
 597              		.loc 1 84 0
 598 0006 0093     		str	r3, [sp]
 599 0008 0949     		ldr	r1, .L36
 600              	.LVL73:
 601 000a 1346     		mov	r3, r2
 602              	.LVL74:
 603 000c 094A     		ldr	r2, .L36+4
 604              	.LVL75:
  81:/Users/imashio/Electronics/ARM/_Library/u8g2_d_setup.c ****   uint8_t tile_buf_height;
 605              		.loc 1 81 0
 606 000e 0446     		mov	r4, r0
 607              		.loc 1 84 0
 608 0010 FFF7FEFF 		bl	u8x8_Setup
ARM GAS  /var/folders/v3/wysfpd052nz8jkbx04pk0ym80000gn/T//ccU8HdeZ.s 			page 13


 609              	.LVL76:
  85:/Users/imashio/Electronics/ARM/_Library/u8g2_d_setup.c ****   buf = u8g2_m_16_8_1(&tile_buf_height);
 610              		.loc 1 85 0
 611 0014 0DF10F00 		add	r0, sp, #15
 612 0018 FFF7FEFF 		bl	u8g2_m_16_8_1
 613              	.LVL77:
  86:/Users/imashio/Electronics/ARM/_Library/u8g2_d_setup.c ****   u8g2_SetupBuffer(u8g2, buf, tile_buf_height, u8g2_ll_hvline_vertical_top_lsb, rotation);
 614              		.loc 1 86 0
 615 001c 9DF80F20 		ldrb	r2, [sp, #15]	@ zero_extendqisi2
 616 0020 0095     		str	r5, [sp]
 617 0022 0146     		mov	r1, r0
 618 0024 044B     		ldr	r3, .L36+8
 619 0026 2046     		mov	r0, r4
 620              	.LVL78:
 621 0028 FFF7FEFF 		bl	u8g2_SetupBuffer
 622              	.LVL79:
  87:/Users/imashio/Electronics/ARM/_Library/u8g2_d_setup.c **** }
 623              		.loc 1 87 0
 624 002c 05B0     		add	sp, sp, #20
 625              	.LCFI26:
 626              		.cfi_def_cfa_offset 12
 627              		@ sp needed
 628 002e 30BD     		pop	{r4, r5, pc}
 629              	.LVL80:
 630              	.L37:
 631              		.align	2
 632              	.L36:
 633 0030 00000000 		.word	u8x8_d_ssd1306_128x64_alt0
 634 0034 00000000 		.word	u8x8_cad_001
 635 0038 00000000 		.word	u8g2_ll_hvline_vertical_top_lsb
 636              		.cfi_endproc
 637              	.LFE8:
 639              		.section	.text.u8g2_Setup_ssd1306_128x64_noname_2,"ax",%progbits
 640              		.align	1
 641              		.p2align 2,,3
 642              		.global	u8g2_Setup_ssd1306_128x64_noname_2
 643              		.syntax unified
 644              		.thumb
 645              		.thumb_func
 646              		.fpu fpv4-sp-d16
 648              	u8g2_Setup_ssd1306_128x64_noname_2:
 649              	.LFB9:
  88:/Users/imashio/Electronics/ARM/_Library/u8g2_d_setup.c **** /* ssd1306 2 */
  89:/Users/imashio/Electronics/ARM/_Library/u8g2_d_setup.c **** void u8g2_Setup_ssd1306_128x64_noname_2(u8g2_t *u8g2, const u8g2_cb_t *rotation, u8x8_msg_cb byte_c
  90:/Users/imashio/Electronics/ARM/_Library/u8g2_d_setup.c **** {
 650              		.loc 1 90 0
 651              		.cfi_startproc
 652              		@ args = 0, pretend = 0, frame = 8
 653              		@ frame_needed = 0, uses_anonymous_args = 0
 654              	.LVL81:
 655 0000 30B5     		push	{r4, r5, lr}
 656              	.LCFI27:
 657              		.cfi_def_cfa_offset 12
 658              		.cfi_offset 4, -12
 659              		.cfi_offset 5, -8
 660              		.cfi_offset 14, -4
 661 0002 85B0     		sub	sp, sp, #20
ARM GAS  /var/folders/v3/wysfpd052nz8jkbx04pk0ym80000gn/T//ccU8HdeZ.s 			page 14


 662              	.LCFI28:
 663              		.cfi_def_cfa_offset 32
 664              		.loc 1 90 0
 665 0004 0D46     		mov	r5, r1
  91:/Users/imashio/Electronics/ARM/_Library/u8g2_d_setup.c ****   uint8_t tile_buf_height;
  92:/Users/imashio/Electronics/ARM/_Library/u8g2_d_setup.c ****   uint8_t *buf;
  93:/Users/imashio/Electronics/ARM/_Library/u8g2_d_setup.c ****   u8g2_SetupDisplay(u8g2, u8x8_d_ssd1306_128x64_noname, u8x8_cad_001, byte_cb, gpio_and_delay_cb);
 666              		.loc 1 93 0
 667 0006 0093     		str	r3, [sp]
 668 0008 0949     		ldr	r1, .L40
 669              	.LVL82:
 670 000a 1346     		mov	r3, r2
 671              	.LVL83:
 672 000c 094A     		ldr	r2, .L40+4
 673              	.LVL84:
  90:/Users/imashio/Electronics/ARM/_Library/u8g2_d_setup.c ****   uint8_t tile_buf_height;
 674              		.loc 1 90 0
 675 000e 0446     		mov	r4, r0
 676              		.loc 1 93 0
 677 0010 FFF7FEFF 		bl	u8x8_Setup
 678              	.LVL85:
  94:/Users/imashio/Electronics/ARM/_Library/u8g2_d_setup.c ****   buf = u8g2_m_16_8_2(&tile_buf_height);
 679              		.loc 1 94 0
 680 0014 0DF10F00 		add	r0, sp, #15
 681 0018 FFF7FEFF 		bl	u8g2_m_16_8_2
 682              	.LVL86:
  95:/Users/imashio/Electronics/ARM/_Library/u8g2_d_setup.c ****   u8g2_SetupBuffer(u8g2, buf, tile_buf_height, u8g2_ll_hvline_vertical_top_lsb, rotation);
 683              		.loc 1 95 0
 684 001c 9DF80F20 		ldrb	r2, [sp, #15]	@ zero_extendqisi2
 685 0020 0095     		str	r5, [sp]
 686 0022 0146     		mov	r1, r0
 687 0024 044B     		ldr	r3, .L40+8
 688 0026 2046     		mov	r0, r4
 689              	.LVL87:
 690 0028 FFF7FEFF 		bl	u8g2_SetupBuffer
 691              	.LVL88:
  96:/Users/imashio/Electronics/ARM/_Library/u8g2_d_setup.c **** }
 692              		.loc 1 96 0
 693 002c 05B0     		add	sp, sp, #20
 694              	.LCFI29:
 695              		.cfi_def_cfa_offset 12
 696              		@ sp needed
 697 002e 30BD     		pop	{r4, r5, pc}
 698              	.LVL89:
 699              	.L41:
 700              		.align	2
 701              	.L40:
 702 0030 00000000 		.word	u8x8_d_ssd1306_128x64_noname
 703 0034 00000000 		.word	u8x8_cad_001
 704 0038 00000000 		.word	u8g2_ll_hvline_vertical_top_lsb
 705              		.cfi_endproc
 706              	.LFE9:
 708              		.section	.text.u8g2_Setup_ssd1306_128x64_vcomh0_2,"ax",%progbits
 709              		.align	1
 710              		.p2align 2,,3
 711              		.global	u8g2_Setup_ssd1306_128x64_vcomh0_2
 712              		.syntax unified
ARM GAS  /var/folders/v3/wysfpd052nz8jkbx04pk0ym80000gn/T//ccU8HdeZ.s 			page 15


 713              		.thumb
 714              		.thumb_func
 715              		.fpu fpv4-sp-d16
 717              	u8g2_Setup_ssd1306_128x64_vcomh0_2:
 718              	.LFB10:
  97:/Users/imashio/Electronics/ARM/_Library/u8g2_d_setup.c **** void u8g2_Setup_ssd1306_128x64_vcomh0_2(u8g2_t *u8g2, const u8g2_cb_t *rotation, u8x8_msg_cb byte_c
  98:/Users/imashio/Electronics/ARM/_Library/u8g2_d_setup.c **** {
 719              		.loc 1 98 0
 720              		.cfi_startproc
 721              		@ args = 0, pretend = 0, frame = 8
 722              		@ frame_needed = 0, uses_anonymous_args = 0
 723              	.LVL90:
 724 0000 30B5     		push	{r4, r5, lr}
 725              	.LCFI30:
 726              		.cfi_def_cfa_offset 12
 727              		.cfi_offset 4, -12
 728              		.cfi_offset 5, -8
 729              		.cfi_offset 14, -4
 730 0002 85B0     		sub	sp, sp, #20
 731              	.LCFI31:
 732              		.cfi_def_cfa_offset 32
 733              		.loc 1 98 0
 734 0004 0D46     		mov	r5, r1
  99:/Users/imashio/Electronics/ARM/_Library/u8g2_d_setup.c ****   uint8_t tile_buf_height;
 100:/Users/imashio/Electronics/ARM/_Library/u8g2_d_setup.c ****   uint8_t *buf;
 101:/Users/imashio/Electronics/ARM/_Library/u8g2_d_setup.c ****   u8g2_SetupDisplay(u8g2, u8x8_d_ssd1306_128x64_vcomh0, u8x8_cad_001, byte_cb, gpio_and_delay_cb);
 735              		.loc 1 101 0
 736 0006 0093     		str	r3, [sp]
 737 0008 0949     		ldr	r1, .L44
 738              	.LVL91:
 739 000a 1346     		mov	r3, r2
 740              	.LVL92:
 741 000c 094A     		ldr	r2, .L44+4
 742              	.LVL93:
  98:/Users/imashio/Electronics/ARM/_Library/u8g2_d_setup.c ****   uint8_t tile_buf_height;
 743              		.loc 1 98 0
 744 000e 0446     		mov	r4, r0
 745              		.loc 1 101 0
 746 0010 FFF7FEFF 		bl	u8x8_Setup
 747              	.LVL94:
 102:/Users/imashio/Electronics/ARM/_Library/u8g2_d_setup.c ****   buf = u8g2_m_16_8_2(&tile_buf_height);
 748              		.loc 1 102 0
 749 0014 0DF10F00 		add	r0, sp, #15
 750 0018 FFF7FEFF 		bl	u8g2_m_16_8_2
 751              	.LVL95:
 103:/Users/imashio/Electronics/ARM/_Library/u8g2_d_setup.c ****   u8g2_SetupBuffer(u8g2, buf, tile_buf_height, u8g2_ll_hvline_vertical_top_lsb, rotation);
 752              		.loc 1 103 0
 753 001c 9DF80F20 		ldrb	r2, [sp, #15]	@ zero_extendqisi2
 754 0020 0095     		str	r5, [sp]
 755 0022 0146     		mov	r1, r0
 756 0024 044B     		ldr	r3, .L44+8
 757 0026 2046     		mov	r0, r4
 758              	.LVL96:
 759 0028 FFF7FEFF 		bl	u8g2_SetupBuffer
 760              	.LVL97:
 104:/Users/imashio/Electronics/ARM/_Library/u8g2_d_setup.c **** }
 761              		.loc 1 104 0
ARM GAS  /var/folders/v3/wysfpd052nz8jkbx04pk0ym80000gn/T//ccU8HdeZ.s 			page 16


 762 002c 05B0     		add	sp, sp, #20
 763              	.LCFI32:
 764              		.cfi_def_cfa_offset 12
 765              		@ sp needed
 766 002e 30BD     		pop	{r4, r5, pc}
 767              	.LVL98:
 768              	.L45:
 769              		.align	2
 770              	.L44:
 771 0030 00000000 		.word	u8x8_d_ssd1306_128x64_vcomh0
 772 0034 00000000 		.word	u8x8_cad_001
 773 0038 00000000 		.word	u8g2_ll_hvline_vertical_top_lsb
 774              		.cfi_endproc
 775              	.LFE10:
 777              		.section	.text.u8g2_Setup_ssd1306_128x64_alt0_2,"ax",%progbits
 778              		.align	1
 779              		.p2align 2,,3
 780              		.global	u8g2_Setup_ssd1306_128x64_alt0_2
 781              		.syntax unified
 782              		.thumb
 783              		.thumb_func
 784              		.fpu fpv4-sp-d16
 786              	u8g2_Setup_ssd1306_128x64_alt0_2:
 787              	.LFB11:
 105:/Users/imashio/Electronics/ARM/_Library/u8g2_d_setup.c **** void u8g2_Setup_ssd1306_128x64_alt0_2(u8g2_t *u8g2, const u8g2_cb_t *rotation, u8x8_msg_cb byte_cb,
 106:/Users/imashio/Electronics/ARM/_Library/u8g2_d_setup.c **** {
 788              		.loc 1 106 0
 789              		.cfi_startproc
 790              		@ args = 0, pretend = 0, frame = 8
 791              		@ frame_needed = 0, uses_anonymous_args = 0
 792              	.LVL99:
 793 0000 30B5     		push	{r4, r5, lr}
 794              	.LCFI33:
 795              		.cfi_def_cfa_offset 12
 796              		.cfi_offset 4, -12
 797              		.cfi_offset 5, -8
 798              		.cfi_offset 14, -4
 799 0002 85B0     		sub	sp, sp, #20
 800              	.LCFI34:
 801              		.cfi_def_cfa_offset 32
 802              		.loc 1 106 0
 803 0004 0D46     		mov	r5, r1
 107:/Users/imashio/Electronics/ARM/_Library/u8g2_d_setup.c ****   uint8_t tile_buf_height;
 108:/Users/imashio/Electronics/ARM/_Library/u8g2_d_setup.c ****   uint8_t *buf;
 109:/Users/imashio/Electronics/ARM/_Library/u8g2_d_setup.c ****   u8g2_SetupDisplay(u8g2, u8x8_d_ssd1306_128x64_alt0, u8x8_cad_001, byte_cb, gpio_and_delay_cb);
 804              		.loc 1 109 0
 805 0006 0093     		str	r3, [sp]
 806 0008 0949     		ldr	r1, .L48
 807              	.LVL100:
 808 000a 1346     		mov	r3, r2
 809              	.LVL101:
 810 000c 094A     		ldr	r2, .L48+4
 811              	.LVL102:
 106:/Users/imashio/Electronics/ARM/_Library/u8g2_d_setup.c ****   uint8_t tile_buf_height;
 812              		.loc 1 106 0
 813 000e 0446     		mov	r4, r0
 814              		.loc 1 109 0
ARM GAS  /var/folders/v3/wysfpd052nz8jkbx04pk0ym80000gn/T//ccU8HdeZ.s 			page 17


 815 0010 FFF7FEFF 		bl	u8x8_Setup
 816              	.LVL103:
 110:/Users/imashio/Electronics/ARM/_Library/u8g2_d_setup.c ****   buf = u8g2_m_16_8_2(&tile_buf_height);
 817              		.loc 1 110 0
 818 0014 0DF10F00 		add	r0, sp, #15
 819 0018 FFF7FEFF 		bl	u8g2_m_16_8_2
 820              	.LVL104:
 111:/Users/imashio/Electronics/ARM/_Library/u8g2_d_setup.c ****   u8g2_SetupBuffer(u8g2, buf, tile_buf_height, u8g2_ll_hvline_vertical_top_lsb, rotation);
 821              		.loc 1 111 0
 822 001c 9DF80F20 		ldrb	r2, [sp, #15]	@ zero_extendqisi2
 823 0020 0095     		str	r5, [sp]
 824 0022 0146     		mov	r1, r0
 825 0024 044B     		ldr	r3, .L48+8
 826 0026 2046     		mov	r0, r4
 827              	.LVL105:
 828 0028 FFF7FEFF 		bl	u8g2_SetupBuffer
 829              	.LVL106:
 112:/Users/imashio/Electronics/ARM/_Library/u8g2_d_setup.c **** }
 830              		.loc 1 112 0
 831 002c 05B0     		add	sp, sp, #20
 832              	.LCFI35:
 833              		.cfi_def_cfa_offset 12
 834              		@ sp needed
 835 002e 30BD     		pop	{r4, r5, pc}
 836              	.LVL107:
 837              	.L49:
 838              		.align	2
 839              	.L48:
 840 0030 00000000 		.word	u8x8_d_ssd1306_128x64_alt0
 841 0034 00000000 		.word	u8x8_cad_001
 842 0038 00000000 		.word	u8g2_ll_hvline_vertical_top_lsb
 843              		.cfi_endproc
 844              	.LFE11:
 846              		.section	.text.u8g2_Setup_ssd1306_128x64_noname_f,"ax",%progbits
 847              		.align	1
 848              		.p2align 2,,3
 849              		.global	u8g2_Setup_ssd1306_128x64_noname_f
 850              		.syntax unified
 851              		.thumb
 852              		.thumb_func
 853              		.fpu fpv4-sp-d16
 855              	u8g2_Setup_ssd1306_128x64_noname_f:
 856              	.LFB12:
 113:/Users/imashio/Electronics/ARM/_Library/u8g2_d_setup.c **** /* ssd1306 f */
 114:/Users/imashio/Electronics/ARM/_Library/u8g2_d_setup.c **** void u8g2_Setup_ssd1306_128x64_noname_f(u8g2_t *u8g2, const u8g2_cb_t *rotation, u8x8_msg_cb byte_c
 115:/Users/imashio/Electronics/ARM/_Library/u8g2_d_setup.c **** {
 857              		.loc 1 115 0
 858              		.cfi_startproc
 859              		@ args = 0, pretend = 0, frame = 8
 860              		@ frame_needed = 0, uses_anonymous_args = 0
 861              	.LVL108:
 862 0000 30B5     		push	{r4, r5, lr}
 863              	.LCFI36:
 864              		.cfi_def_cfa_offset 12
 865              		.cfi_offset 4, -12
 866              		.cfi_offset 5, -8
 867              		.cfi_offset 14, -4
ARM GAS  /var/folders/v3/wysfpd052nz8jkbx04pk0ym80000gn/T//ccU8HdeZ.s 			page 18


 868 0002 85B0     		sub	sp, sp, #20
 869              	.LCFI37:
 870              		.cfi_def_cfa_offset 32
 871              		.loc 1 115 0
 872 0004 0D46     		mov	r5, r1
 116:/Users/imashio/Electronics/ARM/_Library/u8g2_d_setup.c ****   uint8_t tile_buf_height;
 117:/Users/imashio/Electronics/ARM/_Library/u8g2_d_setup.c ****   uint8_t *buf;
 118:/Users/imashio/Electronics/ARM/_Library/u8g2_d_setup.c ****   u8g2_SetupDisplay(u8g2, u8x8_d_ssd1306_128x64_noname, u8x8_cad_001, byte_cb, gpio_and_delay_cb);
 873              		.loc 1 118 0
 874 0006 0093     		str	r3, [sp]
 875 0008 0949     		ldr	r1, .L52
 876              	.LVL109:
 877 000a 1346     		mov	r3, r2
 878              	.LVL110:
 879 000c 094A     		ldr	r2, .L52+4
 880              	.LVL111:
 115:/Users/imashio/Electronics/ARM/_Library/u8g2_d_setup.c ****   uint8_t tile_buf_height;
 881              		.loc 1 115 0
 882 000e 0446     		mov	r4, r0
 883              		.loc 1 118 0
 884 0010 FFF7FEFF 		bl	u8x8_Setup
 885              	.LVL112:
 119:/Users/imashio/Electronics/ARM/_Library/u8g2_d_setup.c ****   buf = u8g2_m_16_8_f(&tile_buf_height);
 886              		.loc 1 119 0
 887 0014 0DF10F00 		add	r0, sp, #15
 888 0018 FFF7FEFF 		bl	u8g2_m_16_8_f
 889              	.LVL113:
 120:/Users/imashio/Electronics/ARM/_Library/u8g2_d_setup.c ****   u8g2_SetupBuffer(u8g2, buf, tile_buf_height, u8g2_ll_hvline_vertical_top_lsb, rotation);
 890              		.loc 1 120 0
 891 001c 9DF80F20 		ldrb	r2, [sp, #15]	@ zero_extendqisi2
 892 0020 0095     		str	r5, [sp]
 893 0022 0146     		mov	r1, r0
 894 0024 044B     		ldr	r3, .L52+8
 895 0026 2046     		mov	r0, r4
 896              	.LVL114:
 897 0028 FFF7FEFF 		bl	u8g2_SetupBuffer
 898              	.LVL115:
 121:/Users/imashio/Electronics/ARM/_Library/u8g2_d_setup.c **** }
 899              		.loc 1 121 0
 900 002c 05B0     		add	sp, sp, #20
 901              	.LCFI38:
 902              		.cfi_def_cfa_offset 12
 903              		@ sp needed
 904 002e 30BD     		pop	{r4, r5, pc}
 905              	.LVL116:
 906              	.L53:
 907              		.align	2
 908              	.L52:
 909 0030 00000000 		.word	u8x8_d_ssd1306_128x64_noname
 910 0034 00000000 		.word	u8x8_cad_001
 911 0038 00000000 		.word	u8g2_ll_hvline_vertical_top_lsb
 912              		.cfi_endproc
 913              	.LFE12:
 915              		.section	.text.u8g2_Setup_ssd1306_128x64_vcomh0_f,"ax",%progbits
 916              		.align	1
 917              		.p2align 2,,3
 918              		.global	u8g2_Setup_ssd1306_128x64_vcomh0_f
ARM GAS  /var/folders/v3/wysfpd052nz8jkbx04pk0ym80000gn/T//ccU8HdeZ.s 			page 19


 919              		.syntax unified
 920              		.thumb
 921              		.thumb_func
 922              		.fpu fpv4-sp-d16
 924              	u8g2_Setup_ssd1306_128x64_vcomh0_f:
 925              	.LFB13:
 122:/Users/imashio/Electronics/ARM/_Library/u8g2_d_setup.c **** void u8g2_Setup_ssd1306_128x64_vcomh0_f(u8g2_t *u8g2, const u8g2_cb_t *rotation, u8x8_msg_cb byte_c
 123:/Users/imashio/Electronics/ARM/_Library/u8g2_d_setup.c **** {
 926              		.loc 1 123 0
 927              		.cfi_startproc
 928              		@ args = 0, pretend = 0, frame = 8
 929              		@ frame_needed = 0, uses_anonymous_args = 0
 930              	.LVL117:
 931 0000 30B5     		push	{r4, r5, lr}
 932              	.LCFI39:
 933              		.cfi_def_cfa_offset 12
 934              		.cfi_offset 4, -12
 935              		.cfi_offset 5, -8
 936              		.cfi_offset 14, -4
 937 0002 85B0     		sub	sp, sp, #20
 938              	.LCFI40:
 939              		.cfi_def_cfa_offset 32
 940              		.loc 1 123 0
 941 0004 0D46     		mov	r5, r1
 124:/Users/imashio/Electronics/ARM/_Library/u8g2_d_setup.c ****   uint8_t tile_buf_height;
 125:/Users/imashio/Electronics/ARM/_Library/u8g2_d_setup.c ****   uint8_t *buf;
 126:/Users/imashio/Electronics/ARM/_Library/u8g2_d_setup.c ****   u8g2_SetupDisplay(u8g2, u8x8_d_ssd1306_128x64_vcomh0, u8x8_cad_001, byte_cb, gpio_and_delay_cb);
 942              		.loc 1 126 0
 943 0006 0093     		str	r3, [sp]
 944 0008 0949     		ldr	r1, .L56
 945              	.LVL118:
 946 000a 1346     		mov	r3, r2
 947              	.LVL119:
 948 000c 094A     		ldr	r2, .L56+4
 949              	.LVL120:
 123:/Users/imashio/Electronics/ARM/_Library/u8g2_d_setup.c ****   uint8_t tile_buf_height;
 950              		.loc 1 123 0
 951 000e 0446     		mov	r4, r0
 952              		.loc 1 126 0
 953 0010 FFF7FEFF 		bl	u8x8_Setup
 954              	.LVL121:
 127:/Users/imashio/Electronics/ARM/_Library/u8g2_d_setup.c ****   buf = u8g2_m_16_8_f(&tile_buf_height);
 955              		.loc 1 127 0
 956 0014 0DF10F00 		add	r0, sp, #15
 957 0018 FFF7FEFF 		bl	u8g2_m_16_8_f
 958              	.LVL122:
 128:/Users/imashio/Electronics/ARM/_Library/u8g2_d_setup.c ****   u8g2_SetupBuffer(u8g2, buf, tile_buf_height, u8g2_ll_hvline_vertical_top_lsb, rotation);
 959              		.loc 1 128 0
 960 001c 9DF80F20 		ldrb	r2, [sp, #15]	@ zero_extendqisi2
 961 0020 0095     		str	r5, [sp]
 962 0022 0146     		mov	r1, r0
 963 0024 044B     		ldr	r3, .L56+8
 964 0026 2046     		mov	r0, r4
 965              	.LVL123:
 966 0028 FFF7FEFF 		bl	u8g2_SetupBuffer
 967              	.LVL124:
 129:/Users/imashio/Electronics/ARM/_Library/u8g2_d_setup.c **** }
ARM GAS  /var/folders/v3/wysfpd052nz8jkbx04pk0ym80000gn/T//ccU8HdeZ.s 			page 20


 968              		.loc 1 129 0
 969 002c 05B0     		add	sp, sp, #20
 970              	.LCFI41:
 971              		.cfi_def_cfa_offset 12
 972              		@ sp needed
 973 002e 30BD     		pop	{r4, r5, pc}
 974              	.LVL125:
 975              	.L57:
 976              		.align	2
 977              	.L56:
 978 0030 00000000 		.word	u8x8_d_ssd1306_128x64_vcomh0
 979 0034 00000000 		.word	u8x8_cad_001
 980 0038 00000000 		.word	u8g2_ll_hvline_vertical_top_lsb
 981              		.cfi_endproc
 982              	.LFE13:
 984              		.section	.text.u8g2_Setup_ssd1306_128x64_alt0_f,"ax",%progbits
 985              		.align	1
 986              		.p2align 2,,3
 987              		.global	u8g2_Setup_ssd1306_128x64_alt0_f
 988              		.syntax unified
 989              		.thumb
 990              		.thumb_func
 991              		.fpu fpv4-sp-d16
 993              	u8g2_Setup_ssd1306_128x64_alt0_f:
 994              	.LFB14:
 130:/Users/imashio/Electronics/ARM/_Library/u8g2_d_setup.c **** void u8g2_Setup_ssd1306_128x64_alt0_f(u8g2_t *u8g2, const u8g2_cb_t *rotation, u8x8_msg_cb byte_cb,
 131:/Users/imashio/Electronics/ARM/_Library/u8g2_d_setup.c **** {
 995              		.loc 1 131 0
 996              		.cfi_startproc
 997              		@ args = 0, pretend = 0, frame = 8
 998              		@ frame_needed = 0, uses_anonymous_args = 0
 999              	.LVL126:
 1000 0000 30B5     		push	{r4, r5, lr}
 1001              	.LCFI42:
 1002              		.cfi_def_cfa_offset 12
 1003              		.cfi_offset 4, -12
 1004              		.cfi_offset 5, -8
 1005              		.cfi_offset 14, -4
 1006 0002 85B0     		sub	sp, sp, #20
 1007              	.LCFI43:
 1008              		.cfi_def_cfa_offset 32
 1009              		.loc 1 131 0
 1010 0004 0D46     		mov	r5, r1
 132:/Users/imashio/Electronics/ARM/_Library/u8g2_d_setup.c ****   uint8_t tile_buf_height;
 133:/Users/imashio/Electronics/ARM/_Library/u8g2_d_setup.c ****   uint8_t *buf;
 134:/Users/imashio/Electronics/ARM/_Library/u8g2_d_setup.c ****   u8g2_SetupDisplay(u8g2, u8x8_d_ssd1306_128x64_alt0, u8x8_cad_001, byte_cb, gpio_and_delay_cb);
 1011              		.loc 1 134 0
 1012 0006 0093     		str	r3, [sp]
 1013 0008 0949     		ldr	r1, .L60
 1014              	.LVL127:
 1015 000a 1346     		mov	r3, r2
 1016              	.LVL128:
 1017 000c 094A     		ldr	r2, .L60+4
 1018              	.LVL129:
 131:/Users/imashio/Electronics/ARM/_Library/u8g2_d_setup.c ****   uint8_t tile_buf_height;
 1019              		.loc 1 131 0
 1020 000e 0446     		mov	r4, r0
ARM GAS  /var/folders/v3/wysfpd052nz8jkbx04pk0ym80000gn/T//ccU8HdeZ.s 			page 21


 1021              		.loc 1 134 0
 1022 0010 FFF7FEFF 		bl	u8x8_Setup
 1023              	.LVL130:
 135:/Users/imashio/Electronics/ARM/_Library/u8g2_d_setup.c ****   buf = u8g2_m_16_8_f(&tile_buf_height);
 1024              		.loc 1 135 0
 1025 0014 0DF10F00 		add	r0, sp, #15
 1026 0018 FFF7FEFF 		bl	u8g2_m_16_8_f
 1027              	.LVL131:
 136:/Users/imashio/Electronics/ARM/_Library/u8g2_d_setup.c ****   u8g2_SetupBuffer(u8g2, buf, tile_buf_height, u8g2_ll_hvline_vertical_top_lsb, rotation);
 1028              		.loc 1 136 0
 1029 001c 9DF80F20 		ldrb	r2, [sp, #15]	@ zero_extendqisi2
 1030 0020 0095     		str	r5, [sp]
 1031 0022 0146     		mov	r1, r0
 1032 0024 044B     		ldr	r3, .L60+8
 1033 0026 2046     		mov	r0, r4
 1034              	.LVL132:
 1035 0028 FFF7FEFF 		bl	u8g2_SetupBuffer
 1036              	.LVL133:
 137:/Users/imashio/Electronics/ARM/_Library/u8g2_d_setup.c **** }
 1037              		.loc 1 137 0
 1038 002c 05B0     		add	sp, sp, #20
 1039              	.LCFI44:
 1040              		.cfi_def_cfa_offset 12
 1041              		@ sp needed
 1042 002e 30BD     		pop	{r4, r5, pc}
 1043              	.LVL134:
 1044              	.L61:
 1045              		.align	2
 1046              	.L60:
 1047 0030 00000000 		.word	u8x8_d_ssd1306_128x64_alt0
 1048 0034 00000000 		.word	u8x8_cad_001
 1049 0038 00000000 		.word	u8g2_ll_hvline_vertical_top_lsb
 1050              		.cfi_endproc
 1051              	.LFE14:
 1053              		.section	.text.u8g2_Setup_ssd1306_i2c_128x64_noname_1,"ax",%progbits
 1054              		.align	1
 1055              		.p2align 2,,3
 1056              		.global	u8g2_Setup_ssd1306_i2c_128x64_noname_1
 1057              		.syntax unified
 1058              		.thumb
 1059              		.thumb_func
 1060              		.fpu fpv4-sp-d16
 1062              	u8g2_Setup_ssd1306_i2c_128x64_noname_1:
 1063              	.LFB15:
 138:/Users/imashio/Electronics/ARM/_Library/u8g2_d_setup.c **** /* ssd1306 */
 139:/Users/imashio/Electronics/ARM/_Library/u8g2_d_setup.c **** /* ssd1306 1 */
 140:/Users/imashio/Electronics/ARM/_Library/u8g2_d_setup.c **** void u8g2_Setup_ssd1306_i2c_128x64_noname_1(u8g2_t *u8g2, const u8g2_cb_t *rotation, u8x8_msg_cb by
 141:/Users/imashio/Electronics/ARM/_Library/u8g2_d_setup.c **** {
 1064              		.loc 1 141 0
 1065              		.cfi_startproc
 1066              		@ args = 0, pretend = 0, frame = 8
 1067              		@ frame_needed = 0, uses_anonymous_args = 0
 1068              	.LVL135:
 1069 0000 30B5     		push	{r4, r5, lr}
 1070              	.LCFI45:
 1071              		.cfi_def_cfa_offset 12
 1072              		.cfi_offset 4, -12
ARM GAS  /var/folders/v3/wysfpd052nz8jkbx04pk0ym80000gn/T//ccU8HdeZ.s 			page 22


 1073              		.cfi_offset 5, -8
 1074              		.cfi_offset 14, -4
 1075 0002 85B0     		sub	sp, sp, #20
 1076              	.LCFI46:
 1077              		.cfi_def_cfa_offset 32
 1078              		.loc 1 141 0
 1079 0004 0D46     		mov	r5, r1
 142:/Users/imashio/Electronics/ARM/_Library/u8g2_d_setup.c ****   uint8_t tile_buf_height;
 143:/Users/imashio/Electronics/ARM/_Library/u8g2_d_setup.c ****   uint8_t *buf;
 144:/Users/imashio/Electronics/ARM/_Library/u8g2_d_setup.c ****   u8g2_SetupDisplay(u8g2, u8x8_d_ssd1306_128x64_noname, u8x8_cad_ssd13xx_i2c, byte_cb, gpio_and_del
 1080              		.loc 1 144 0
 1081 0006 0093     		str	r3, [sp]
 1082 0008 0949     		ldr	r1, .L64
 1083              	.LVL136:
 1084 000a 1346     		mov	r3, r2
 1085              	.LVL137:
 1086 000c 094A     		ldr	r2, .L64+4
 1087              	.LVL138:
 141:/Users/imashio/Electronics/ARM/_Library/u8g2_d_setup.c ****   uint8_t tile_buf_height;
 1088              		.loc 1 141 0
 1089 000e 0446     		mov	r4, r0
 1090              		.loc 1 144 0
 1091 0010 FFF7FEFF 		bl	u8x8_Setup
 1092              	.LVL139:
 145:/Users/imashio/Electronics/ARM/_Library/u8g2_d_setup.c ****   buf = u8g2_m_16_8_1(&tile_buf_height);
 1093              		.loc 1 145 0
 1094 0014 0DF10F00 		add	r0, sp, #15
 1095 0018 FFF7FEFF 		bl	u8g2_m_16_8_1
 1096              	.LVL140:
 146:/Users/imashio/Electronics/ARM/_Library/u8g2_d_setup.c ****   u8g2_SetupBuffer(u8g2, buf, tile_buf_height, u8g2_ll_hvline_vertical_top_lsb, rotation);
 1097              		.loc 1 146 0
 1098 001c 9DF80F20 		ldrb	r2, [sp, #15]	@ zero_extendqisi2
 1099 0020 0095     		str	r5, [sp]
 1100 0022 0146     		mov	r1, r0
 1101 0024 044B     		ldr	r3, .L64+8
 1102 0026 2046     		mov	r0, r4
 1103              	.LVL141:
 1104 0028 FFF7FEFF 		bl	u8g2_SetupBuffer
 1105              	.LVL142:
 147:/Users/imashio/Electronics/ARM/_Library/u8g2_d_setup.c **** }
 1106              		.loc 1 147 0
 1107 002c 05B0     		add	sp, sp, #20
 1108              	.LCFI47:
 1109              		.cfi_def_cfa_offset 12
 1110              		@ sp needed
 1111 002e 30BD     		pop	{r4, r5, pc}
 1112              	.LVL143:
 1113              	.L65:
 1114              		.align	2
 1115              	.L64:
 1116 0030 00000000 		.word	u8x8_d_ssd1306_128x64_noname
 1117 0034 00000000 		.word	u8x8_cad_ssd13xx_i2c
 1118 0038 00000000 		.word	u8g2_ll_hvline_vertical_top_lsb
 1119              		.cfi_endproc
 1120              	.LFE15:
 1122              		.section	.text.u8g2_Setup_ssd1306_i2c_128x64_vcomh0_1,"ax",%progbits
 1123              		.align	1
ARM GAS  /var/folders/v3/wysfpd052nz8jkbx04pk0ym80000gn/T//ccU8HdeZ.s 			page 23


 1124              		.p2align 2,,3
 1125              		.global	u8g2_Setup_ssd1306_i2c_128x64_vcomh0_1
 1126              		.syntax unified
 1127              		.thumb
 1128              		.thumb_func
 1129              		.fpu fpv4-sp-d16
 1131              	u8g2_Setup_ssd1306_i2c_128x64_vcomh0_1:
 1132              	.LFB16:
 148:/Users/imashio/Electronics/ARM/_Library/u8g2_d_setup.c **** void u8g2_Setup_ssd1306_i2c_128x64_vcomh0_1(u8g2_t *u8g2, const u8g2_cb_t *rotation, u8x8_msg_cb by
 149:/Users/imashio/Electronics/ARM/_Library/u8g2_d_setup.c **** {
 1133              		.loc 1 149 0
 1134              		.cfi_startproc
 1135              		@ args = 0, pretend = 0, frame = 8
 1136              		@ frame_needed = 0, uses_anonymous_args = 0
 1137              	.LVL144:
 1138 0000 30B5     		push	{r4, r5, lr}
 1139              	.LCFI48:
 1140              		.cfi_def_cfa_offset 12
 1141              		.cfi_offset 4, -12
 1142              		.cfi_offset 5, -8
 1143              		.cfi_offset 14, -4
 1144 0002 85B0     		sub	sp, sp, #20
 1145              	.LCFI49:
 1146              		.cfi_def_cfa_offset 32
 1147              		.loc 1 149 0
 1148 0004 0D46     		mov	r5, r1
 150:/Users/imashio/Electronics/ARM/_Library/u8g2_d_setup.c ****   uint8_t tile_buf_height;
 151:/Users/imashio/Electronics/ARM/_Library/u8g2_d_setup.c ****   uint8_t *buf;
 152:/Users/imashio/Electronics/ARM/_Library/u8g2_d_setup.c ****   u8g2_SetupDisplay(u8g2, u8x8_d_ssd1306_128x64_vcomh0, u8x8_cad_ssd13xx_i2c, byte_cb, gpio_and_del
 1149              		.loc 1 152 0
 1150 0006 0093     		str	r3, [sp]
 1151 0008 0949     		ldr	r1, .L68
 1152              	.LVL145:
 1153 000a 1346     		mov	r3, r2
 1154              	.LVL146:
 1155 000c 094A     		ldr	r2, .L68+4
 1156              	.LVL147:
 149:/Users/imashio/Electronics/ARM/_Library/u8g2_d_setup.c ****   uint8_t tile_buf_height;
 1157              		.loc 1 149 0
 1158 000e 0446     		mov	r4, r0
 1159              		.loc 1 152 0
 1160 0010 FFF7FEFF 		bl	u8x8_Setup
 1161              	.LVL148:
 153:/Users/imashio/Electronics/ARM/_Library/u8g2_d_setup.c ****   buf = u8g2_m_16_8_1(&tile_buf_height);
 1162              		.loc 1 153 0
 1163 0014 0DF10F00 		add	r0, sp, #15
 1164 0018 FFF7FEFF 		bl	u8g2_m_16_8_1
 1165              	.LVL149:
 154:/Users/imashio/Electronics/ARM/_Library/u8g2_d_setup.c ****   u8g2_SetupBuffer(u8g2, buf, tile_buf_height, u8g2_ll_hvline_vertical_top_lsb, rotation);
 1166              		.loc 1 154 0
 1167 001c 9DF80F20 		ldrb	r2, [sp, #15]	@ zero_extendqisi2
 1168 0020 0095     		str	r5, [sp]
 1169 0022 0146     		mov	r1, r0
 1170 0024 044B     		ldr	r3, .L68+8
 1171 0026 2046     		mov	r0, r4
 1172              	.LVL150:
 1173 0028 FFF7FEFF 		bl	u8g2_SetupBuffer
ARM GAS  /var/folders/v3/wysfpd052nz8jkbx04pk0ym80000gn/T//ccU8HdeZ.s 			page 24


 1174              	.LVL151:
 155:/Users/imashio/Electronics/ARM/_Library/u8g2_d_setup.c **** }
 1175              		.loc 1 155 0
 1176 002c 05B0     		add	sp, sp, #20
 1177              	.LCFI50:
 1178              		.cfi_def_cfa_offset 12
 1179              		@ sp needed
 1180 002e 30BD     		pop	{r4, r5, pc}
 1181              	.LVL152:
 1182              	.L69:
 1183              		.align	2
 1184              	.L68:
 1185 0030 00000000 		.word	u8x8_d_ssd1306_128x64_vcomh0
 1186 0034 00000000 		.word	u8x8_cad_ssd13xx_i2c
 1187 0038 00000000 		.word	u8g2_ll_hvline_vertical_top_lsb
 1188              		.cfi_endproc
 1189              	.LFE16:
 1191              		.section	.text.u8g2_Setup_ssd1306_i2c_128x64_alt0_1,"ax",%progbits
 1192              		.align	1
 1193              		.p2align 2,,3
 1194              		.global	u8g2_Setup_ssd1306_i2c_128x64_alt0_1
 1195              		.syntax unified
 1196              		.thumb
 1197              		.thumb_func
 1198              		.fpu fpv4-sp-d16
 1200              	u8g2_Setup_ssd1306_i2c_128x64_alt0_1:
 1201              	.LFB17:
 156:/Users/imashio/Electronics/ARM/_Library/u8g2_d_setup.c **** void u8g2_Setup_ssd1306_i2c_128x64_alt0_1(u8g2_t *u8g2, const u8g2_cb_t *rotation, u8x8_msg_cb byte
 157:/Users/imashio/Electronics/ARM/_Library/u8g2_d_setup.c **** {
 1202              		.loc 1 157 0
 1203              		.cfi_startproc
 1204              		@ args = 0, pretend = 0, frame = 8
 1205              		@ frame_needed = 0, uses_anonymous_args = 0
 1206              	.LVL153:
 1207 0000 30B5     		push	{r4, r5, lr}
 1208              	.LCFI51:
 1209              		.cfi_def_cfa_offset 12
 1210              		.cfi_offset 4, -12
 1211              		.cfi_offset 5, -8
 1212              		.cfi_offset 14, -4
 1213 0002 85B0     		sub	sp, sp, #20
 1214              	.LCFI52:
 1215              		.cfi_def_cfa_offset 32
 1216              		.loc 1 157 0
 1217 0004 0D46     		mov	r5, r1
 158:/Users/imashio/Electronics/ARM/_Library/u8g2_d_setup.c ****   uint8_t tile_buf_height;
 159:/Users/imashio/Electronics/ARM/_Library/u8g2_d_setup.c ****   uint8_t *buf;
 160:/Users/imashio/Electronics/ARM/_Library/u8g2_d_setup.c ****   u8g2_SetupDisplay(u8g2, u8x8_d_ssd1306_128x64_alt0, u8x8_cad_ssd13xx_i2c, byte_cb, gpio_and_delay
 1218              		.loc 1 160 0
 1219 0006 0093     		str	r3, [sp]
 1220 0008 0949     		ldr	r1, .L72
 1221              	.LVL154:
 1222 000a 1346     		mov	r3, r2
 1223              	.LVL155:
 1224 000c 094A     		ldr	r2, .L72+4
 1225              	.LVL156:
 157:/Users/imashio/Electronics/ARM/_Library/u8g2_d_setup.c ****   uint8_t tile_buf_height;
ARM GAS  /var/folders/v3/wysfpd052nz8jkbx04pk0ym80000gn/T//ccU8HdeZ.s 			page 25


 1226              		.loc 1 157 0
 1227 000e 0446     		mov	r4, r0
 1228              		.loc 1 160 0
 1229 0010 FFF7FEFF 		bl	u8x8_Setup
 1230              	.LVL157:
 161:/Users/imashio/Electronics/ARM/_Library/u8g2_d_setup.c ****   buf = u8g2_m_16_8_1(&tile_buf_height);
 1231              		.loc 1 161 0
 1232 0014 0DF10F00 		add	r0, sp, #15
 1233 0018 FFF7FEFF 		bl	u8g2_m_16_8_1
 1234              	.LVL158:
 162:/Users/imashio/Electronics/ARM/_Library/u8g2_d_setup.c ****   u8g2_SetupBuffer(u8g2, buf, tile_buf_height, u8g2_ll_hvline_vertical_top_lsb, rotation);
 1235              		.loc 1 162 0
 1236 001c 9DF80F20 		ldrb	r2, [sp, #15]	@ zero_extendqisi2
 1237 0020 0095     		str	r5, [sp]
 1238 0022 0146     		mov	r1, r0
 1239 0024 044B     		ldr	r3, .L72+8
 1240 0026 2046     		mov	r0, r4
 1241              	.LVL159:
 1242 0028 FFF7FEFF 		bl	u8g2_SetupBuffer
 1243              	.LVL160:
 163:/Users/imashio/Electronics/ARM/_Library/u8g2_d_setup.c **** }
 1244              		.loc 1 163 0
 1245 002c 05B0     		add	sp, sp, #20
 1246              	.LCFI53:
 1247              		.cfi_def_cfa_offset 12
 1248              		@ sp needed
 1249 002e 30BD     		pop	{r4, r5, pc}
 1250              	.LVL161:
 1251              	.L73:
 1252              		.align	2
 1253              	.L72:
 1254 0030 00000000 		.word	u8x8_d_ssd1306_128x64_alt0
 1255 0034 00000000 		.word	u8x8_cad_ssd13xx_i2c
 1256 0038 00000000 		.word	u8g2_ll_hvline_vertical_top_lsb
 1257              		.cfi_endproc
 1258              	.LFE17:
 1260              		.section	.text.u8g2_Setup_ssd1306_i2c_128x64_noname_2,"ax",%progbits
 1261              		.align	1
 1262              		.p2align 2,,3
 1263              		.global	u8g2_Setup_ssd1306_i2c_128x64_noname_2
 1264              		.syntax unified
 1265              		.thumb
 1266              		.thumb_func
 1267              		.fpu fpv4-sp-d16
 1269              	u8g2_Setup_ssd1306_i2c_128x64_noname_2:
 1270              	.LFB18:
 164:/Users/imashio/Electronics/ARM/_Library/u8g2_d_setup.c **** /* ssd1306 2 */
 165:/Users/imashio/Electronics/ARM/_Library/u8g2_d_setup.c **** void u8g2_Setup_ssd1306_i2c_128x64_noname_2(u8g2_t *u8g2, const u8g2_cb_t *rotation, u8x8_msg_cb by
 166:/Users/imashio/Electronics/ARM/_Library/u8g2_d_setup.c **** {
 1271              		.loc 1 166 0
 1272              		.cfi_startproc
 1273              		@ args = 0, pretend = 0, frame = 8
 1274              		@ frame_needed = 0, uses_anonymous_args = 0
 1275              	.LVL162:
 1276 0000 30B5     		push	{r4, r5, lr}
 1277              	.LCFI54:
 1278              		.cfi_def_cfa_offset 12
ARM GAS  /var/folders/v3/wysfpd052nz8jkbx04pk0ym80000gn/T//ccU8HdeZ.s 			page 26


 1279              		.cfi_offset 4, -12
 1280              		.cfi_offset 5, -8
 1281              		.cfi_offset 14, -4
 1282 0002 85B0     		sub	sp, sp, #20
 1283              	.LCFI55:
 1284              		.cfi_def_cfa_offset 32
 1285              		.loc 1 166 0
 1286 0004 0D46     		mov	r5, r1
 167:/Users/imashio/Electronics/ARM/_Library/u8g2_d_setup.c ****   uint8_t tile_buf_height;
 168:/Users/imashio/Electronics/ARM/_Library/u8g2_d_setup.c ****   uint8_t *buf;
 169:/Users/imashio/Electronics/ARM/_Library/u8g2_d_setup.c ****   u8g2_SetupDisplay(u8g2, u8x8_d_ssd1306_128x64_noname, u8x8_cad_ssd13xx_i2c, byte_cb, gpio_and_del
 1287              		.loc 1 169 0
 1288 0006 0093     		str	r3, [sp]
 1289 0008 0949     		ldr	r1, .L76
 1290              	.LVL163:
 1291 000a 1346     		mov	r3, r2
 1292              	.LVL164:
 1293 000c 094A     		ldr	r2, .L76+4
 1294              	.LVL165:
 166:/Users/imashio/Electronics/ARM/_Library/u8g2_d_setup.c ****   uint8_t tile_buf_height;
 1295              		.loc 1 166 0
 1296 000e 0446     		mov	r4, r0
 1297              		.loc 1 169 0
 1298 0010 FFF7FEFF 		bl	u8x8_Setup
 1299              	.LVL166:
 170:/Users/imashio/Electronics/ARM/_Library/u8g2_d_setup.c ****   buf = u8g2_m_16_8_2(&tile_buf_height);
 1300              		.loc 1 170 0
 1301 0014 0DF10F00 		add	r0, sp, #15
 1302 0018 FFF7FEFF 		bl	u8g2_m_16_8_2
 1303              	.LVL167:
 171:/Users/imashio/Electronics/ARM/_Library/u8g2_d_setup.c ****   u8g2_SetupBuffer(u8g2, buf, tile_buf_height, u8g2_ll_hvline_vertical_top_lsb, rotation);
 1304              		.loc 1 171 0
 1305 001c 9DF80F20 		ldrb	r2, [sp, #15]	@ zero_extendqisi2
 1306 0020 0095     		str	r5, [sp]
 1307 0022 0146     		mov	r1, r0
 1308 0024 044B     		ldr	r3, .L76+8
 1309 0026 2046     		mov	r0, r4
 1310              	.LVL168:
 1311 0028 FFF7FEFF 		bl	u8g2_SetupBuffer
 1312              	.LVL169:
 172:/Users/imashio/Electronics/ARM/_Library/u8g2_d_setup.c **** }
 1313              		.loc 1 172 0
 1314 002c 05B0     		add	sp, sp, #20
 1315              	.LCFI56:
 1316              		.cfi_def_cfa_offset 12
 1317              		@ sp needed
 1318 002e 30BD     		pop	{r4, r5, pc}
 1319              	.LVL170:
 1320              	.L77:
 1321              		.align	2
 1322              	.L76:
 1323 0030 00000000 		.word	u8x8_d_ssd1306_128x64_noname
 1324 0034 00000000 		.word	u8x8_cad_ssd13xx_i2c
 1325 0038 00000000 		.word	u8g2_ll_hvline_vertical_top_lsb
 1326              		.cfi_endproc
 1327              	.LFE18:
 1329              		.section	.text.u8g2_Setup_ssd1306_i2c_128x64_vcomh0_2,"ax",%progbits
ARM GAS  /var/folders/v3/wysfpd052nz8jkbx04pk0ym80000gn/T//ccU8HdeZ.s 			page 27


 1330              		.align	1
 1331              		.p2align 2,,3
 1332              		.global	u8g2_Setup_ssd1306_i2c_128x64_vcomh0_2
 1333              		.syntax unified
 1334              		.thumb
 1335              		.thumb_func
 1336              		.fpu fpv4-sp-d16
 1338              	u8g2_Setup_ssd1306_i2c_128x64_vcomh0_2:
 1339              	.LFB19:
 173:/Users/imashio/Electronics/ARM/_Library/u8g2_d_setup.c **** void u8g2_Setup_ssd1306_i2c_128x64_vcomh0_2(u8g2_t *u8g2, const u8g2_cb_t *rotation, u8x8_msg_cb by
 174:/Users/imashio/Electronics/ARM/_Library/u8g2_d_setup.c **** {
 1340              		.loc 1 174 0
 1341              		.cfi_startproc
 1342              		@ args = 0, pretend = 0, frame = 8
 1343              		@ frame_needed = 0, uses_anonymous_args = 0
 1344              	.LVL171:
 1345 0000 30B5     		push	{r4, r5, lr}
 1346              	.LCFI57:
 1347              		.cfi_def_cfa_offset 12
 1348              		.cfi_offset 4, -12
 1349              		.cfi_offset 5, -8
 1350              		.cfi_offset 14, -4
 1351 0002 85B0     		sub	sp, sp, #20
 1352              	.LCFI58:
 1353              		.cfi_def_cfa_offset 32
 1354              		.loc 1 174 0
 1355 0004 0D46     		mov	r5, r1
 175:/Users/imashio/Electronics/ARM/_Library/u8g2_d_setup.c ****   uint8_t tile_buf_height;
 176:/Users/imashio/Electronics/ARM/_Library/u8g2_d_setup.c ****   uint8_t *buf;
 177:/Users/imashio/Electronics/ARM/_Library/u8g2_d_setup.c ****   u8g2_SetupDisplay(u8g2, u8x8_d_ssd1306_128x64_vcomh0, u8x8_cad_ssd13xx_i2c, byte_cb, gpio_and_del
 1356              		.loc 1 177 0
 1357 0006 0093     		str	r3, [sp]
 1358 0008 0949     		ldr	r1, .L80
 1359              	.LVL172:
 1360 000a 1346     		mov	r3, r2
 1361              	.LVL173:
 1362 000c 094A     		ldr	r2, .L80+4
 1363              	.LVL174:
 174:/Users/imashio/Electronics/ARM/_Library/u8g2_d_setup.c ****   uint8_t tile_buf_height;
 1364              		.loc 1 174 0
 1365 000e 0446     		mov	r4, r0
 1366              		.loc 1 177 0
 1367 0010 FFF7FEFF 		bl	u8x8_Setup
 1368              	.LVL175:
 178:/Users/imashio/Electronics/ARM/_Library/u8g2_d_setup.c ****   buf = u8g2_m_16_8_2(&tile_buf_height);
 1369              		.loc 1 178 0
 1370 0014 0DF10F00 		add	r0, sp, #15
 1371 0018 FFF7FEFF 		bl	u8g2_m_16_8_2
 1372              	.LVL176:
 179:/Users/imashio/Electronics/ARM/_Library/u8g2_d_setup.c ****   u8g2_SetupBuffer(u8g2, buf, tile_buf_height, u8g2_ll_hvline_vertical_top_lsb, rotation);
 1373              		.loc 1 179 0
 1374 001c 9DF80F20 		ldrb	r2, [sp, #15]	@ zero_extendqisi2
 1375 0020 0095     		str	r5, [sp]
 1376 0022 0146     		mov	r1, r0
 1377 0024 044B     		ldr	r3, .L80+8
 1378 0026 2046     		mov	r0, r4
 1379              	.LVL177:
ARM GAS  /var/folders/v3/wysfpd052nz8jkbx04pk0ym80000gn/T//ccU8HdeZ.s 			page 28


 1380 0028 FFF7FEFF 		bl	u8g2_SetupBuffer
 1381              	.LVL178:
 180:/Users/imashio/Electronics/ARM/_Library/u8g2_d_setup.c **** }
 1382              		.loc 1 180 0
 1383 002c 05B0     		add	sp, sp, #20
 1384              	.LCFI59:
 1385              		.cfi_def_cfa_offset 12
 1386              		@ sp needed
 1387 002e 30BD     		pop	{r4, r5, pc}
 1388              	.LVL179:
 1389              	.L81:
 1390              		.align	2
 1391              	.L80:
 1392 0030 00000000 		.word	u8x8_d_ssd1306_128x64_vcomh0
 1393 0034 00000000 		.word	u8x8_cad_ssd13xx_i2c
 1394 0038 00000000 		.word	u8g2_ll_hvline_vertical_top_lsb
 1395              		.cfi_endproc
 1396              	.LFE19:
 1398              		.section	.text.u8g2_Setup_ssd1306_i2c_128x64_alt0_2,"ax",%progbits
 1399              		.align	1
 1400              		.p2align 2,,3
 1401              		.global	u8g2_Setup_ssd1306_i2c_128x64_alt0_2
 1402              		.syntax unified
 1403              		.thumb
 1404              		.thumb_func
 1405              		.fpu fpv4-sp-d16
 1407              	u8g2_Setup_ssd1306_i2c_128x64_alt0_2:
 1408              	.LFB20:
 181:/Users/imashio/Electronics/ARM/_Library/u8g2_d_setup.c **** void u8g2_Setup_ssd1306_i2c_128x64_alt0_2(u8g2_t *u8g2, const u8g2_cb_t *rotation, u8x8_msg_cb byte
 182:/Users/imashio/Electronics/ARM/_Library/u8g2_d_setup.c **** {
 1409              		.loc 1 182 0
 1410              		.cfi_startproc
 1411              		@ args = 0, pretend = 0, frame = 8
 1412              		@ frame_needed = 0, uses_anonymous_args = 0
 1413              	.LVL180:
 1414 0000 30B5     		push	{r4, r5, lr}
 1415              	.LCFI60:
 1416              		.cfi_def_cfa_offset 12
 1417              		.cfi_offset 4, -12
 1418              		.cfi_offset 5, -8
 1419              		.cfi_offset 14, -4
 1420 0002 85B0     		sub	sp, sp, #20
 1421              	.LCFI61:
 1422              		.cfi_def_cfa_offset 32
 1423              		.loc 1 182 0
 1424 0004 0D46     		mov	r5, r1
 183:/Users/imashio/Electronics/ARM/_Library/u8g2_d_setup.c ****   uint8_t tile_buf_height;
 184:/Users/imashio/Electronics/ARM/_Library/u8g2_d_setup.c ****   uint8_t *buf;
 185:/Users/imashio/Electronics/ARM/_Library/u8g2_d_setup.c ****   u8g2_SetupDisplay(u8g2, u8x8_d_ssd1306_128x64_alt0, u8x8_cad_ssd13xx_i2c, byte_cb, gpio_and_delay
 1425              		.loc 1 185 0
 1426 0006 0093     		str	r3, [sp]
 1427 0008 0949     		ldr	r1, .L84
 1428              	.LVL181:
 1429 000a 1346     		mov	r3, r2
 1430              	.LVL182:
 1431 000c 094A     		ldr	r2, .L84+4
 1432              	.LVL183:
ARM GAS  /var/folders/v3/wysfpd052nz8jkbx04pk0ym80000gn/T//ccU8HdeZ.s 			page 29


 182:/Users/imashio/Electronics/ARM/_Library/u8g2_d_setup.c ****   uint8_t tile_buf_height;
 1433              		.loc 1 182 0
 1434 000e 0446     		mov	r4, r0
 1435              		.loc 1 185 0
 1436 0010 FFF7FEFF 		bl	u8x8_Setup
 1437              	.LVL184:
 186:/Users/imashio/Electronics/ARM/_Library/u8g2_d_setup.c ****   buf = u8g2_m_16_8_2(&tile_buf_height);
 1438              		.loc 1 186 0
 1439 0014 0DF10F00 		add	r0, sp, #15
 1440 0018 FFF7FEFF 		bl	u8g2_m_16_8_2
 1441              	.LVL185:
 187:/Users/imashio/Electronics/ARM/_Library/u8g2_d_setup.c ****   u8g2_SetupBuffer(u8g2, buf, tile_buf_height, u8g2_ll_hvline_vertical_top_lsb, rotation);
 1442              		.loc 1 187 0
 1443 001c 9DF80F20 		ldrb	r2, [sp, #15]	@ zero_extendqisi2
 1444 0020 0095     		str	r5, [sp]
 1445 0022 0146     		mov	r1, r0
 1446 0024 044B     		ldr	r3, .L84+8
 1447 0026 2046     		mov	r0, r4
 1448              	.LVL186:
 1449 0028 FFF7FEFF 		bl	u8g2_SetupBuffer
 1450              	.LVL187:
 188:/Users/imashio/Electronics/ARM/_Library/u8g2_d_setup.c **** }
 1451              		.loc 1 188 0
 1452 002c 05B0     		add	sp, sp, #20
 1453              	.LCFI62:
 1454              		.cfi_def_cfa_offset 12
 1455              		@ sp needed
 1456 002e 30BD     		pop	{r4, r5, pc}
 1457              	.LVL188:
 1458              	.L85:
 1459              		.align	2
 1460              	.L84:
 1461 0030 00000000 		.word	u8x8_d_ssd1306_128x64_alt0
 1462 0034 00000000 		.word	u8x8_cad_ssd13xx_i2c
 1463 0038 00000000 		.word	u8g2_ll_hvline_vertical_top_lsb
 1464              		.cfi_endproc
 1465              	.LFE20:
 1467              		.section	.text.u8g2_Setup_ssd1306_i2c_128x64_noname_f,"ax",%progbits
 1468              		.align	1
 1469              		.p2align 2,,3
 1470              		.global	u8g2_Setup_ssd1306_i2c_128x64_noname_f
 1471              		.syntax unified
 1472              		.thumb
 1473              		.thumb_func
 1474              		.fpu fpv4-sp-d16
 1476              	u8g2_Setup_ssd1306_i2c_128x64_noname_f:
 1477              	.LFB21:
 189:/Users/imashio/Electronics/ARM/_Library/u8g2_d_setup.c **** /* ssd1306 f */
 190:/Users/imashio/Electronics/ARM/_Library/u8g2_d_setup.c **** void u8g2_Setup_ssd1306_i2c_128x64_noname_f(u8g2_t *u8g2, const u8g2_cb_t *rotation, u8x8_msg_cb by
 191:/Users/imashio/Electronics/ARM/_Library/u8g2_d_setup.c **** {
 1478              		.loc 1 191 0
 1479              		.cfi_startproc
 1480              		@ args = 0, pretend = 0, frame = 8
 1481              		@ frame_needed = 0, uses_anonymous_args = 0
 1482              	.LVL189:
 1483 0000 30B5     		push	{r4, r5, lr}
 1484              	.LCFI63:
ARM GAS  /var/folders/v3/wysfpd052nz8jkbx04pk0ym80000gn/T//ccU8HdeZ.s 			page 30


 1485              		.cfi_def_cfa_offset 12
 1486              		.cfi_offset 4, -12
 1487              		.cfi_offset 5, -8
 1488              		.cfi_offset 14, -4
 1489 0002 85B0     		sub	sp, sp, #20
 1490              	.LCFI64:
 1491              		.cfi_def_cfa_offset 32
 1492              		.loc 1 191 0
 1493 0004 0D46     		mov	r5, r1
 192:/Users/imashio/Electronics/ARM/_Library/u8g2_d_setup.c ****   uint8_t tile_buf_height;
 193:/Users/imashio/Electronics/ARM/_Library/u8g2_d_setup.c ****   uint8_t *buf;
 194:/Users/imashio/Electronics/ARM/_Library/u8g2_d_setup.c ****   u8g2_SetupDisplay(u8g2, u8x8_d_ssd1306_128x64_noname, u8x8_cad_ssd13xx_i2c, byte_cb, gpio_and_del
 1494              		.loc 1 194 0
 1495 0006 0093     		str	r3, [sp]
 1496 0008 0949     		ldr	r1, .L88
 1497              	.LVL190:
 1498 000a 1346     		mov	r3, r2
 1499              	.LVL191:
 1500 000c 094A     		ldr	r2, .L88+4
 1501              	.LVL192:
 191:/Users/imashio/Electronics/ARM/_Library/u8g2_d_setup.c ****   uint8_t tile_buf_height;
 1502              		.loc 1 191 0
 1503 000e 0446     		mov	r4, r0
 1504              		.loc 1 194 0
 1505 0010 FFF7FEFF 		bl	u8x8_Setup
 1506              	.LVL193:
 195:/Users/imashio/Electronics/ARM/_Library/u8g2_d_setup.c ****   buf = u8g2_m_16_8_f(&tile_buf_height);
 1507              		.loc 1 195 0
 1508 0014 0DF10F00 		add	r0, sp, #15
 1509 0018 FFF7FEFF 		bl	u8g2_m_16_8_f
 1510              	.LVL194:
 196:/Users/imashio/Electronics/ARM/_Library/u8g2_d_setup.c ****   u8g2_SetupBuffer(u8g2, buf, tile_buf_height, u8g2_ll_hvline_vertical_top_lsb, rotation);
 1511              		.loc 1 196 0
 1512 001c 9DF80F20 		ldrb	r2, [sp, #15]	@ zero_extendqisi2
 1513 0020 0095     		str	r5, [sp]
 1514 0022 0146     		mov	r1, r0
 1515 0024 044B     		ldr	r3, .L88+8
 1516 0026 2046     		mov	r0, r4
 1517              	.LVL195:
 1518 0028 FFF7FEFF 		bl	u8g2_SetupBuffer
 1519              	.LVL196:
 197:/Users/imashio/Electronics/ARM/_Library/u8g2_d_setup.c **** }
 1520              		.loc 1 197 0
 1521 002c 05B0     		add	sp, sp, #20
 1522              	.LCFI65:
 1523              		.cfi_def_cfa_offset 12
 1524              		@ sp needed
 1525 002e 30BD     		pop	{r4, r5, pc}
 1526              	.LVL197:
 1527              	.L89:
 1528              		.align	2
 1529              	.L88:
 1530 0030 00000000 		.word	u8x8_d_ssd1306_128x64_noname
 1531 0034 00000000 		.word	u8x8_cad_ssd13xx_i2c
 1532 0038 00000000 		.word	u8g2_ll_hvline_vertical_top_lsb
 1533              		.cfi_endproc
 1534              	.LFE21:
ARM GAS  /var/folders/v3/wysfpd052nz8jkbx04pk0ym80000gn/T//ccU8HdeZ.s 			page 31


 1536              		.section	.text.u8g2_Setup_ssd1306_i2c_128x64_vcomh0_f,"ax",%progbits
 1537              		.align	1
 1538              		.p2align 2,,3
 1539              		.global	u8g2_Setup_ssd1306_i2c_128x64_vcomh0_f
 1540              		.syntax unified
 1541              		.thumb
 1542              		.thumb_func
 1543              		.fpu fpv4-sp-d16
 1545              	u8g2_Setup_ssd1306_i2c_128x64_vcomh0_f:
 1546              	.LFB22:
 198:/Users/imashio/Electronics/ARM/_Library/u8g2_d_setup.c **** void u8g2_Setup_ssd1306_i2c_128x64_vcomh0_f(u8g2_t *u8g2, const u8g2_cb_t *rotation, u8x8_msg_cb by
 199:/Users/imashio/Electronics/ARM/_Library/u8g2_d_setup.c **** {
 1547              		.loc 1 199 0
 1548              		.cfi_startproc
 1549              		@ args = 0, pretend = 0, frame = 8
 1550              		@ frame_needed = 0, uses_anonymous_args = 0
 1551              	.LVL198:
 1552 0000 30B5     		push	{r4, r5, lr}
 1553              	.LCFI66:
 1554              		.cfi_def_cfa_offset 12
 1555              		.cfi_offset 4, -12
 1556              		.cfi_offset 5, -8
 1557              		.cfi_offset 14, -4
 1558 0002 85B0     		sub	sp, sp, #20
 1559              	.LCFI67:
 1560              		.cfi_def_cfa_offset 32
 1561              		.loc 1 199 0
 1562 0004 0D46     		mov	r5, r1
 200:/Users/imashio/Electronics/ARM/_Library/u8g2_d_setup.c ****   uint8_t tile_buf_height;
 201:/Users/imashio/Electronics/ARM/_Library/u8g2_d_setup.c ****   uint8_t *buf;
 202:/Users/imashio/Electronics/ARM/_Library/u8g2_d_setup.c ****   u8g2_SetupDisplay(u8g2, u8x8_d_ssd1306_128x64_vcomh0, u8x8_cad_ssd13xx_i2c, byte_cb, gpio_and_del
 1563              		.loc 1 202 0
 1564 0006 0093     		str	r3, [sp]
 1565 0008 0949     		ldr	r1, .L92
 1566              	.LVL199:
 1567 000a 1346     		mov	r3, r2
 1568              	.LVL200:
 1569 000c 094A     		ldr	r2, .L92+4
 1570              	.LVL201:
 199:/Users/imashio/Electronics/ARM/_Library/u8g2_d_setup.c ****   uint8_t tile_buf_height;
 1571              		.loc 1 199 0
 1572 000e 0446     		mov	r4, r0
 1573              		.loc 1 202 0
 1574 0010 FFF7FEFF 		bl	u8x8_Setup
 1575              	.LVL202:
 203:/Users/imashio/Electronics/ARM/_Library/u8g2_d_setup.c ****   buf = u8g2_m_16_8_f(&tile_buf_height);
 1576              		.loc 1 203 0
 1577 0014 0DF10F00 		add	r0, sp, #15
 1578 0018 FFF7FEFF 		bl	u8g2_m_16_8_f
 1579              	.LVL203:
 204:/Users/imashio/Electronics/ARM/_Library/u8g2_d_setup.c ****   u8g2_SetupBuffer(u8g2, buf, tile_buf_height, u8g2_ll_hvline_vertical_top_lsb, rotation);
 1580              		.loc 1 204 0
 1581 001c 9DF80F20 		ldrb	r2, [sp, #15]	@ zero_extendqisi2
 1582 0020 0095     		str	r5, [sp]
 1583 0022 0146     		mov	r1, r0
 1584 0024 044B     		ldr	r3, .L92+8
 1585 0026 2046     		mov	r0, r4
ARM GAS  /var/folders/v3/wysfpd052nz8jkbx04pk0ym80000gn/T//ccU8HdeZ.s 			page 32


 1586              	.LVL204:
 1587 0028 FFF7FEFF 		bl	u8g2_SetupBuffer
 1588              	.LVL205:
 205:/Users/imashio/Electronics/ARM/_Library/u8g2_d_setup.c **** }
 1589              		.loc 1 205 0
 1590 002c 05B0     		add	sp, sp, #20
 1591              	.LCFI68:
 1592              		.cfi_def_cfa_offset 12
 1593              		@ sp needed
 1594 002e 30BD     		pop	{r4, r5, pc}
 1595              	.LVL206:
 1596              	.L93:
 1597              		.align	2
 1598              	.L92:
 1599 0030 00000000 		.word	u8x8_d_ssd1306_128x64_vcomh0
 1600 0034 00000000 		.word	u8x8_cad_ssd13xx_i2c
 1601 0038 00000000 		.word	u8g2_ll_hvline_vertical_top_lsb
 1602              		.cfi_endproc
 1603              	.LFE22:
 1605              		.section	.text.u8g2_Setup_ssd1306_i2c_128x64_alt0_f,"ax",%progbits
 1606              		.align	1
 1607              		.p2align 2,,3
 1608              		.global	u8g2_Setup_ssd1306_i2c_128x64_alt0_f
 1609              		.syntax unified
 1610              		.thumb
 1611              		.thumb_func
 1612              		.fpu fpv4-sp-d16
 1614              	u8g2_Setup_ssd1306_i2c_128x64_alt0_f:
 1615              	.LFB23:
 206:/Users/imashio/Electronics/ARM/_Library/u8g2_d_setup.c **** void u8g2_Setup_ssd1306_i2c_128x64_alt0_f(u8g2_t *u8g2, const u8g2_cb_t *rotation, u8x8_msg_cb byte
 207:/Users/imashio/Electronics/ARM/_Library/u8g2_d_setup.c **** {
 1616              		.loc 1 207 0
 1617              		.cfi_startproc
 1618              		@ args = 0, pretend = 0, frame = 8
 1619              		@ frame_needed = 0, uses_anonymous_args = 0
 1620              	.LVL207:
 1621 0000 30B5     		push	{r4, r5, lr}
 1622              	.LCFI69:
 1623              		.cfi_def_cfa_offset 12
 1624              		.cfi_offset 4, -12
 1625              		.cfi_offset 5, -8
 1626              		.cfi_offset 14, -4
 1627 0002 85B0     		sub	sp, sp, #20
 1628              	.LCFI70:
 1629              		.cfi_def_cfa_offset 32
 1630              		.loc 1 207 0
 1631 0004 0D46     		mov	r5, r1
 208:/Users/imashio/Electronics/ARM/_Library/u8g2_d_setup.c ****   uint8_t tile_buf_height;
 209:/Users/imashio/Electronics/ARM/_Library/u8g2_d_setup.c ****   uint8_t *buf;
 210:/Users/imashio/Electronics/ARM/_Library/u8g2_d_setup.c ****   u8g2_SetupDisplay(u8g2, u8x8_d_ssd1306_128x64_alt0, u8x8_cad_ssd13xx_i2c, byte_cb, gpio_and_delay
 1632              		.loc 1 210 0
 1633 0006 0093     		str	r3, [sp]
 1634 0008 0949     		ldr	r1, .L96
 1635              	.LVL208:
 1636 000a 1346     		mov	r3, r2
 1637              	.LVL209:
 1638 000c 094A     		ldr	r2, .L96+4
ARM GAS  /var/folders/v3/wysfpd052nz8jkbx04pk0ym80000gn/T//ccU8HdeZ.s 			page 33


 1639              	.LVL210:
 207:/Users/imashio/Electronics/ARM/_Library/u8g2_d_setup.c ****   uint8_t tile_buf_height;
 1640              		.loc 1 207 0
 1641 000e 0446     		mov	r4, r0
 1642              		.loc 1 210 0
 1643 0010 FFF7FEFF 		bl	u8x8_Setup
 1644              	.LVL211:
 211:/Users/imashio/Electronics/ARM/_Library/u8g2_d_setup.c ****   buf = u8g2_m_16_8_f(&tile_buf_height);
 1645              		.loc 1 211 0
 1646 0014 0DF10F00 		add	r0, sp, #15
 1647 0018 FFF7FEFF 		bl	u8g2_m_16_8_f
 1648              	.LVL212:
 212:/Users/imashio/Electronics/ARM/_Library/u8g2_d_setup.c ****   u8g2_SetupBuffer(u8g2, buf, tile_buf_height, u8g2_ll_hvline_vertical_top_lsb, rotation);
 1649              		.loc 1 212 0
 1650 001c 9DF80F20 		ldrb	r2, [sp, #15]	@ zero_extendqisi2
 1651 0020 0095     		str	r5, [sp]
 1652 0022 0146     		mov	r1, r0
 1653 0024 044B     		ldr	r3, .L96+8
 1654 0026 2046     		mov	r0, r4
 1655              	.LVL213:
 1656 0028 FFF7FEFF 		bl	u8g2_SetupBuffer
 1657              	.LVL214:
 213:/Users/imashio/Electronics/ARM/_Library/u8g2_d_setup.c **** }
 1658              		.loc 1 213 0
 1659 002c 05B0     		add	sp, sp, #20
 1660              	.LCFI71:
 1661              		.cfi_def_cfa_offset 12
 1662              		@ sp needed
 1663 002e 30BD     		pop	{r4, r5, pc}
 1664              	.LVL215:
 1665              	.L97:
 1666              		.align	2
 1667              	.L96:
 1668 0030 00000000 		.word	u8x8_d_ssd1306_128x64_alt0
 1669 0034 00000000 		.word	u8x8_cad_ssd13xx_i2c
 1670 0038 00000000 		.word	u8g2_ll_hvline_vertical_top_lsb
 1671              		.cfi_endproc
 1672              	.LFE23:
 1674              		.section	.text.u8g2_Setup_sh1106_128x64_noname_1,"ax",%progbits
 1675              		.align	1
 1676              		.p2align 2,,3
 1677              		.global	u8g2_Setup_sh1106_128x64_noname_1
 1678              		.syntax unified
 1679              		.thumb
 1680              		.thumb_func
 1681              		.fpu fpv4-sp-d16
 1683              	u8g2_Setup_sh1106_128x64_noname_1:
 1684              	.LFB24:
 214:/Users/imashio/Electronics/ARM/_Library/u8g2_d_setup.c **** /* sh1106 */
 215:/Users/imashio/Electronics/ARM/_Library/u8g2_d_setup.c **** /* sh1106 1 */
 216:/Users/imashio/Electronics/ARM/_Library/u8g2_d_setup.c **** void u8g2_Setup_sh1106_128x64_noname_1(u8g2_t *u8g2, const u8g2_cb_t *rotation, u8x8_msg_cb byte_cb
 217:/Users/imashio/Electronics/ARM/_Library/u8g2_d_setup.c **** {
 1685              		.loc 1 217 0
 1686              		.cfi_startproc
 1687              		@ args = 0, pretend = 0, frame = 8
 1688              		@ frame_needed = 0, uses_anonymous_args = 0
 1689              	.LVL216:
ARM GAS  /var/folders/v3/wysfpd052nz8jkbx04pk0ym80000gn/T//ccU8HdeZ.s 			page 34


 1690 0000 30B5     		push	{r4, r5, lr}
 1691              	.LCFI72:
 1692              		.cfi_def_cfa_offset 12
 1693              		.cfi_offset 4, -12
 1694              		.cfi_offset 5, -8
 1695              		.cfi_offset 14, -4
 1696 0002 85B0     		sub	sp, sp, #20
 1697              	.LCFI73:
 1698              		.cfi_def_cfa_offset 32
 1699              		.loc 1 217 0
 1700 0004 0D46     		mov	r5, r1
 218:/Users/imashio/Electronics/ARM/_Library/u8g2_d_setup.c ****   uint8_t tile_buf_height;
 219:/Users/imashio/Electronics/ARM/_Library/u8g2_d_setup.c ****   uint8_t *buf;
 220:/Users/imashio/Electronics/ARM/_Library/u8g2_d_setup.c ****   u8g2_SetupDisplay(u8g2, u8x8_d_sh1106_128x64_noname, u8x8_cad_001, byte_cb, gpio_and_delay_cb);
 1701              		.loc 1 220 0
 1702 0006 0093     		str	r3, [sp]
 1703 0008 0949     		ldr	r1, .L100
 1704              	.LVL217:
 1705 000a 1346     		mov	r3, r2
 1706              	.LVL218:
 1707 000c 094A     		ldr	r2, .L100+4
 1708              	.LVL219:
 217:/Users/imashio/Electronics/ARM/_Library/u8g2_d_setup.c ****   uint8_t tile_buf_height;
 1709              		.loc 1 217 0
 1710 000e 0446     		mov	r4, r0
 1711              		.loc 1 220 0
 1712 0010 FFF7FEFF 		bl	u8x8_Setup
 1713              	.LVL220:
 221:/Users/imashio/Electronics/ARM/_Library/u8g2_d_setup.c ****   buf = u8g2_m_16_8_1(&tile_buf_height);
 1714              		.loc 1 221 0
 1715 0014 0DF10F00 		add	r0, sp, #15
 1716 0018 FFF7FEFF 		bl	u8g2_m_16_8_1
 1717              	.LVL221:
 222:/Users/imashio/Electronics/ARM/_Library/u8g2_d_setup.c ****   u8g2_SetupBuffer(u8g2, buf, tile_buf_height, u8g2_ll_hvline_vertical_top_lsb, rotation);
 1718              		.loc 1 222 0
 1719 001c 9DF80F20 		ldrb	r2, [sp, #15]	@ zero_extendqisi2
 1720 0020 0095     		str	r5, [sp]
 1721 0022 0146     		mov	r1, r0
 1722 0024 044B     		ldr	r3, .L100+8
 1723 0026 2046     		mov	r0, r4
 1724              	.LVL222:
 1725 0028 FFF7FEFF 		bl	u8g2_SetupBuffer
 1726              	.LVL223:
 223:/Users/imashio/Electronics/ARM/_Library/u8g2_d_setup.c **** }
 1727              		.loc 1 223 0
 1728 002c 05B0     		add	sp, sp, #20
 1729              	.LCFI74:
 1730              		.cfi_def_cfa_offset 12
 1731              		@ sp needed
 1732 002e 30BD     		pop	{r4, r5, pc}
 1733              	.LVL224:
 1734              	.L101:
 1735              		.align	2
 1736              	.L100:
 1737 0030 00000000 		.word	u8x8_d_sh1106_128x64_noname
 1738 0034 00000000 		.word	u8x8_cad_001
 1739 0038 00000000 		.word	u8g2_ll_hvline_vertical_top_lsb
ARM GAS  /var/folders/v3/wysfpd052nz8jkbx04pk0ym80000gn/T//ccU8HdeZ.s 			page 35


 1740              		.cfi_endproc
 1741              	.LFE24:
 1743              		.section	.text.u8g2_Setup_sh1106_128x64_vcomh0_1,"ax",%progbits
 1744              		.align	1
 1745              		.p2align 2,,3
 1746              		.global	u8g2_Setup_sh1106_128x64_vcomh0_1
 1747              		.syntax unified
 1748              		.thumb
 1749              		.thumb_func
 1750              		.fpu fpv4-sp-d16
 1752              	u8g2_Setup_sh1106_128x64_vcomh0_1:
 1753              	.LFB25:
 224:/Users/imashio/Electronics/ARM/_Library/u8g2_d_setup.c **** void u8g2_Setup_sh1106_128x64_vcomh0_1(u8g2_t *u8g2, const u8g2_cb_t *rotation, u8x8_msg_cb byte_cb
 225:/Users/imashio/Electronics/ARM/_Library/u8g2_d_setup.c **** {
 1754              		.loc 1 225 0
 1755              		.cfi_startproc
 1756              		@ args = 0, pretend = 0, frame = 8
 1757              		@ frame_needed = 0, uses_anonymous_args = 0
 1758              	.LVL225:
 1759 0000 30B5     		push	{r4, r5, lr}
 1760              	.LCFI75:
 1761              		.cfi_def_cfa_offset 12
 1762              		.cfi_offset 4, -12
 1763              		.cfi_offset 5, -8
 1764              		.cfi_offset 14, -4
 1765 0002 85B0     		sub	sp, sp, #20
 1766              	.LCFI76:
 1767              		.cfi_def_cfa_offset 32
 1768              		.loc 1 225 0
 1769 0004 0D46     		mov	r5, r1
 226:/Users/imashio/Electronics/ARM/_Library/u8g2_d_setup.c ****   uint8_t tile_buf_height;
 227:/Users/imashio/Electronics/ARM/_Library/u8g2_d_setup.c ****   uint8_t *buf;
 228:/Users/imashio/Electronics/ARM/_Library/u8g2_d_setup.c ****   u8g2_SetupDisplay(u8g2, u8x8_d_sh1106_128x64_vcomh0, u8x8_cad_001, byte_cb, gpio_and_delay_cb);
 1770              		.loc 1 228 0
 1771 0006 0093     		str	r3, [sp]
 1772 0008 0949     		ldr	r1, .L104
 1773              	.LVL226:
 1774 000a 1346     		mov	r3, r2
 1775              	.LVL227:
 1776 000c 094A     		ldr	r2, .L104+4
 1777              	.LVL228:
 225:/Users/imashio/Electronics/ARM/_Library/u8g2_d_setup.c ****   uint8_t tile_buf_height;
 1778              		.loc 1 225 0
 1779 000e 0446     		mov	r4, r0
 1780              		.loc 1 228 0
 1781 0010 FFF7FEFF 		bl	u8x8_Setup
 1782              	.LVL229:
 229:/Users/imashio/Electronics/ARM/_Library/u8g2_d_setup.c ****   buf = u8g2_m_16_8_1(&tile_buf_height);
 1783              		.loc 1 229 0
 1784 0014 0DF10F00 		add	r0, sp, #15
 1785 0018 FFF7FEFF 		bl	u8g2_m_16_8_1
 1786              	.LVL230:
 230:/Users/imashio/Electronics/ARM/_Library/u8g2_d_setup.c ****   u8g2_SetupBuffer(u8g2, buf, tile_buf_height, u8g2_ll_hvline_vertical_top_lsb, rotation);
 1787              		.loc 1 230 0
 1788 001c 9DF80F20 		ldrb	r2, [sp, #15]	@ zero_extendqisi2
 1789 0020 0095     		str	r5, [sp]
 1790 0022 0146     		mov	r1, r0
ARM GAS  /var/folders/v3/wysfpd052nz8jkbx04pk0ym80000gn/T//ccU8HdeZ.s 			page 36


 1791 0024 044B     		ldr	r3, .L104+8
 1792 0026 2046     		mov	r0, r4
 1793              	.LVL231:
 1794 0028 FFF7FEFF 		bl	u8g2_SetupBuffer
 1795              	.LVL232:
 231:/Users/imashio/Electronics/ARM/_Library/u8g2_d_setup.c **** }
 1796              		.loc 1 231 0
 1797 002c 05B0     		add	sp, sp, #20
 1798              	.LCFI77:
 1799              		.cfi_def_cfa_offset 12
 1800              		@ sp needed
 1801 002e 30BD     		pop	{r4, r5, pc}
 1802              	.LVL233:
 1803              	.L105:
 1804              		.align	2
 1805              	.L104:
 1806 0030 00000000 		.word	u8x8_d_sh1106_128x64_vcomh0
 1807 0034 00000000 		.word	u8x8_cad_001
 1808 0038 00000000 		.word	u8g2_ll_hvline_vertical_top_lsb
 1809              		.cfi_endproc
 1810              	.LFE25:
 1812              		.section	.text.u8g2_Setup_sh1106_128x64_winstar_1,"ax",%progbits
 1813              		.align	1
 1814              		.p2align 2,,3
 1815              		.global	u8g2_Setup_sh1106_128x64_winstar_1
 1816              		.syntax unified
 1817              		.thumb
 1818              		.thumb_func
 1819              		.fpu fpv4-sp-d16
 1821              	u8g2_Setup_sh1106_128x64_winstar_1:
 1822              	.LFB26:
 232:/Users/imashio/Electronics/ARM/_Library/u8g2_d_setup.c **** void u8g2_Setup_sh1106_128x64_winstar_1(u8g2_t *u8g2, const u8g2_cb_t *rotation, u8x8_msg_cb byte_c
 233:/Users/imashio/Electronics/ARM/_Library/u8g2_d_setup.c **** {
 1823              		.loc 1 233 0
 1824              		.cfi_startproc
 1825              		@ args = 0, pretend = 0, frame = 8
 1826              		@ frame_needed = 0, uses_anonymous_args = 0
 1827              	.LVL234:
 1828 0000 30B5     		push	{r4, r5, lr}
 1829              	.LCFI78:
 1830              		.cfi_def_cfa_offset 12
 1831              		.cfi_offset 4, -12
 1832              		.cfi_offset 5, -8
 1833              		.cfi_offset 14, -4
 1834 0002 85B0     		sub	sp, sp, #20
 1835              	.LCFI79:
 1836              		.cfi_def_cfa_offset 32
 1837              		.loc 1 233 0
 1838 0004 0D46     		mov	r5, r1
 234:/Users/imashio/Electronics/ARM/_Library/u8g2_d_setup.c ****   uint8_t tile_buf_height;
 235:/Users/imashio/Electronics/ARM/_Library/u8g2_d_setup.c ****   uint8_t *buf;
 236:/Users/imashio/Electronics/ARM/_Library/u8g2_d_setup.c ****   u8g2_SetupDisplay(u8g2, u8x8_d_sh1106_128x64_winstar, u8x8_cad_001, byte_cb, gpio_and_delay_cb);
 1839              		.loc 1 236 0
 1840 0006 0093     		str	r3, [sp]
 1841 0008 0949     		ldr	r1, .L108
 1842              	.LVL235:
 1843 000a 1346     		mov	r3, r2
ARM GAS  /var/folders/v3/wysfpd052nz8jkbx04pk0ym80000gn/T//ccU8HdeZ.s 			page 37


 1844              	.LVL236:
 1845 000c 094A     		ldr	r2, .L108+4
 1846              	.LVL237:
 233:/Users/imashio/Electronics/ARM/_Library/u8g2_d_setup.c ****   uint8_t tile_buf_height;
 1847              		.loc 1 233 0
 1848 000e 0446     		mov	r4, r0
 1849              		.loc 1 236 0
 1850 0010 FFF7FEFF 		bl	u8x8_Setup
 1851              	.LVL238:
 237:/Users/imashio/Electronics/ARM/_Library/u8g2_d_setup.c ****   buf = u8g2_m_16_8_1(&tile_buf_height);
 1852              		.loc 1 237 0
 1853 0014 0DF10F00 		add	r0, sp, #15
 1854 0018 FFF7FEFF 		bl	u8g2_m_16_8_1
 1855              	.LVL239:
 238:/Users/imashio/Electronics/ARM/_Library/u8g2_d_setup.c ****   u8g2_SetupBuffer(u8g2, buf, tile_buf_height, u8g2_ll_hvline_vertical_top_lsb, rotation);
 1856              		.loc 1 238 0
 1857 001c 9DF80F20 		ldrb	r2, [sp, #15]	@ zero_extendqisi2
 1858 0020 0095     		str	r5, [sp]
 1859 0022 0146     		mov	r1, r0
 1860 0024 044B     		ldr	r3, .L108+8
 1861 0026 2046     		mov	r0, r4
 1862              	.LVL240:
 1863 0028 FFF7FEFF 		bl	u8g2_SetupBuffer
 1864              	.LVL241:
 239:/Users/imashio/Electronics/ARM/_Library/u8g2_d_setup.c **** }
 1865              		.loc 1 239 0
 1866 002c 05B0     		add	sp, sp, #20
 1867              	.LCFI80:
 1868              		.cfi_def_cfa_offset 12
 1869              		@ sp needed
 1870 002e 30BD     		pop	{r4, r5, pc}
 1871              	.LVL242:
 1872              	.L109:
 1873              		.align	2
 1874              	.L108:
 1875 0030 00000000 		.word	u8x8_d_sh1106_128x64_winstar
 1876 0034 00000000 		.word	u8x8_cad_001
 1877 0038 00000000 		.word	u8g2_ll_hvline_vertical_top_lsb
 1878              		.cfi_endproc
 1879              	.LFE26:
 1881              		.section	.text.u8g2_Setup_sh1106_128x64_noname_2,"ax",%progbits
 1882              		.align	1
 1883              		.p2align 2,,3
 1884              		.global	u8g2_Setup_sh1106_128x64_noname_2
 1885              		.syntax unified
 1886              		.thumb
 1887              		.thumb_func
 1888              		.fpu fpv4-sp-d16
 1890              	u8g2_Setup_sh1106_128x64_noname_2:
 1891              	.LFB27:
 240:/Users/imashio/Electronics/ARM/_Library/u8g2_d_setup.c **** /* sh1106 2 */
 241:/Users/imashio/Electronics/ARM/_Library/u8g2_d_setup.c **** void u8g2_Setup_sh1106_128x64_noname_2(u8g2_t *u8g2, const u8g2_cb_t *rotation, u8x8_msg_cb byte_cb
 242:/Users/imashio/Electronics/ARM/_Library/u8g2_d_setup.c **** {
 1892              		.loc 1 242 0
 1893              		.cfi_startproc
 1894              		@ args = 0, pretend = 0, frame = 8
 1895              		@ frame_needed = 0, uses_anonymous_args = 0
ARM GAS  /var/folders/v3/wysfpd052nz8jkbx04pk0ym80000gn/T//ccU8HdeZ.s 			page 38


 1896              	.LVL243:
 1897 0000 30B5     		push	{r4, r5, lr}
 1898              	.LCFI81:
 1899              		.cfi_def_cfa_offset 12
 1900              		.cfi_offset 4, -12
 1901              		.cfi_offset 5, -8
 1902              		.cfi_offset 14, -4
 1903 0002 85B0     		sub	sp, sp, #20
 1904              	.LCFI82:
 1905              		.cfi_def_cfa_offset 32
 1906              		.loc 1 242 0
 1907 0004 0D46     		mov	r5, r1
 243:/Users/imashio/Electronics/ARM/_Library/u8g2_d_setup.c ****   uint8_t tile_buf_height;
 244:/Users/imashio/Electronics/ARM/_Library/u8g2_d_setup.c ****   uint8_t *buf;
 245:/Users/imashio/Electronics/ARM/_Library/u8g2_d_setup.c ****   u8g2_SetupDisplay(u8g2, u8x8_d_sh1106_128x64_noname, u8x8_cad_001, byte_cb, gpio_and_delay_cb);
 1908              		.loc 1 245 0
 1909 0006 0093     		str	r3, [sp]
 1910 0008 0949     		ldr	r1, .L112
 1911              	.LVL244:
 1912 000a 1346     		mov	r3, r2
 1913              	.LVL245:
 1914 000c 094A     		ldr	r2, .L112+4
 1915              	.LVL246:
 242:/Users/imashio/Electronics/ARM/_Library/u8g2_d_setup.c ****   uint8_t tile_buf_height;
 1916              		.loc 1 242 0
 1917 000e 0446     		mov	r4, r0
 1918              		.loc 1 245 0
 1919 0010 FFF7FEFF 		bl	u8x8_Setup
 1920              	.LVL247:
 246:/Users/imashio/Electronics/ARM/_Library/u8g2_d_setup.c ****   buf = u8g2_m_16_8_2(&tile_buf_height);
 1921              		.loc 1 246 0
 1922 0014 0DF10F00 		add	r0, sp, #15
 1923 0018 FFF7FEFF 		bl	u8g2_m_16_8_2
 1924              	.LVL248:
 247:/Users/imashio/Electronics/ARM/_Library/u8g2_d_setup.c ****   u8g2_SetupBuffer(u8g2, buf, tile_buf_height, u8g2_ll_hvline_vertical_top_lsb, rotation);
 1925              		.loc 1 247 0
 1926 001c 9DF80F20 		ldrb	r2, [sp, #15]	@ zero_extendqisi2
 1927 0020 0095     		str	r5, [sp]
 1928 0022 0146     		mov	r1, r0
 1929 0024 044B     		ldr	r3, .L112+8
 1930 0026 2046     		mov	r0, r4
 1931              	.LVL249:
 1932 0028 FFF7FEFF 		bl	u8g2_SetupBuffer
 1933              	.LVL250:
 248:/Users/imashio/Electronics/ARM/_Library/u8g2_d_setup.c **** }
 1934              		.loc 1 248 0
 1935 002c 05B0     		add	sp, sp, #20
 1936              	.LCFI83:
 1937              		.cfi_def_cfa_offset 12
 1938              		@ sp needed
 1939 002e 30BD     		pop	{r4, r5, pc}
 1940              	.LVL251:
 1941              	.L113:
 1942              		.align	2
 1943              	.L112:
 1944 0030 00000000 		.word	u8x8_d_sh1106_128x64_noname
 1945 0034 00000000 		.word	u8x8_cad_001
ARM GAS  /var/folders/v3/wysfpd052nz8jkbx04pk0ym80000gn/T//ccU8HdeZ.s 			page 39


 1946 0038 00000000 		.word	u8g2_ll_hvline_vertical_top_lsb
 1947              		.cfi_endproc
 1948              	.LFE27:
 1950              		.section	.text.u8g2_Setup_sh1106_128x64_vcomh0_2,"ax",%progbits
 1951              		.align	1
 1952              		.p2align 2,,3
 1953              		.global	u8g2_Setup_sh1106_128x64_vcomh0_2
 1954              		.syntax unified
 1955              		.thumb
 1956              		.thumb_func
 1957              		.fpu fpv4-sp-d16
 1959              	u8g2_Setup_sh1106_128x64_vcomh0_2:
 1960              	.LFB28:
 249:/Users/imashio/Electronics/ARM/_Library/u8g2_d_setup.c **** void u8g2_Setup_sh1106_128x64_vcomh0_2(u8g2_t *u8g2, const u8g2_cb_t *rotation, u8x8_msg_cb byte_cb
 250:/Users/imashio/Electronics/ARM/_Library/u8g2_d_setup.c **** {
 1961              		.loc 1 250 0
 1962              		.cfi_startproc
 1963              		@ args = 0, pretend = 0, frame = 8
 1964              		@ frame_needed = 0, uses_anonymous_args = 0
 1965              	.LVL252:
 1966 0000 30B5     		push	{r4, r5, lr}
 1967              	.LCFI84:
 1968              		.cfi_def_cfa_offset 12
 1969              		.cfi_offset 4, -12
 1970              		.cfi_offset 5, -8
 1971              		.cfi_offset 14, -4
 1972 0002 85B0     		sub	sp, sp, #20
 1973              	.LCFI85:
 1974              		.cfi_def_cfa_offset 32
 1975              		.loc 1 250 0
 1976 0004 0D46     		mov	r5, r1
 251:/Users/imashio/Electronics/ARM/_Library/u8g2_d_setup.c ****   uint8_t tile_buf_height;
 252:/Users/imashio/Electronics/ARM/_Library/u8g2_d_setup.c ****   uint8_t *buf;
 253:/Users/imashio/Electronics/ARM/_Library/u8g2_d_setup.c ****   u8g2_SetupDisplay(u8g2, u8x8_d_sh1106_128x64_vcomh0, u8x8_cad_001, byte_cb, gpio_and_delay_cb);
 1977              		.loc 1 253 0
 1978 0006 0093     		str	r3, [sp]
 1979 0008 0949     		ldr	r1, .L116
 1980              	.LVL253:
 1981 000a 1346     		mov	r3, r2
 1982              	.LVL254:
 1983 000c 094A     		ldr	r2, .L116+4
 1984              	.LVL255:
 250:/Users/imashio/Electronics/ARM/_Library/u8g2_d_setup.c ****   uint8_t tile_buf_height;
 1985              		.loc 1 250 0
 1986 000e 0446     		mov	r4, r0
 1987              		.loc 1 253 0
 1988 0010 FFF7FEFF 		bl	u8x8_Setup
 1989              	.LVL256:
 254:/Users/imashio/Electronics/ARM/_Library/u8g2_d_setup.c ****   buf = u8g2_m_16_8_2(&tile_buf_height);
 1990              		.loc 1 254 0
 1991 0014 0DF10F00 		add	r0, sp, #15
 1992 0018 FFF7FEFF 		bl	u8g2_m_16_8_2
 1993              	.LVL257:
 255:/Users/imashio/Electronics/ARM/_Library/u8g2_d_setup.c ****   u8g2_SetupBuffer(u8g2, buf, tile_buf_height, u8g2_ll_hvline_vertical_top_lsb, rotation);
 1994              		.loc 1 255 0
 1995 001c 9DF80F20 		ldrb	r2, [sp, #15]	@ zero_extendqisi2
 1996 0020 0095     		str	r5, [sp]
ARM GAS  /var/folders/v3/wysfpd052nz8jkbx04pk0ym80000gn/T//ccU8HdeZ.s 			page 40


 1997 0022 0146     		mov	r1, r0
 1998 0024 044B     		ldr	r3, .L116+8
 1999 0026 2046     		mov	r0, r4
 2000              	.LVL258:
 2001 0028 FFF7FEFF 		bl	u8g2_SetupBuffer
 2002              	.LVL259:
 256:/Users/imashio/Electronics/ARM/_Library/u8g2_d_setup.c **** }
 2003              		.loc 1 256 0
 2004 002c 05B0     		add	sp, sp, #20
 2005              	.LCFI86:
 2006              		.cfi_def_cfa_offset 12
 2007              		@ sp needed
 2008 002e 30BD     		pop	{r4, r5, pc}
 2009              	.LVL260:
 2010              	.L117:
 2011              		.align	2
 2012              	.L116:
 2013 0030 00000000 		.word	u8x8_d_sh1106_128x64_vcomh0
 2014 0034 00000000 		.word	u8x8_cad_001
 2015 0038 00000000 		.word	u8g2_ll_hvline_vertical_top_lsb
 2016              		.cfi_endproc
 2017              	.LFE28:
 2019              		.section	.text.u8g2_Setup_sh1106_128x64_winstar_2,"ax",%progbits
 2020              		.align	1
 2021              		.p2align 2,,3
 2022              		.global	u8g2_Setup_sh1106_128x64_winstar_2
 2023              		.syntax unified
 2024              		.thumb
 2025              		.thumb_func
 2026              		.fpu fpv4-sp-d16
 2028              	u8g2_Setup_sh1106_128x64_winstar_2:
 2029              	.LFB29:
 257:/Users/imashio/Electronics/ARM/_Library/u8g2_d_setup.c **** void u8g2_Setup_sh1106_128x64_winstar_2(u8g2_t *u8g2, const u8g2_cb_t *rotation, u8x8_msg_cb byte_c
 258:/Users/imashio/Electronics/ARM/_Library/u8g2_d_setup.c **** {
 2030              		.loc 1 258 0
 2031              		.cfi_startproc
 2032              		@ args = 0, pretend = 0, frame = 8
 2033              		@ frame_needed = 0, uses_anonymous_args = 0
 2034              	.LVL261:
 2035 0000 30B5     		push	{r4, r5, lr}
 2036              	.LCFI87:
 2037              		.cfi_def_cfa_offset 12
 2038              		.cfi_offset 4, -12
 2039              		.cfi_offset 5, -8
 2040              		.cfi_offset 14, -4
 2041 0002 85B0     		sub	sp, sp, #20
 2042              	.LCFI88:
 2043              		.cfi_def_cfa_offset 32
 2044              		.loc 1 258 0
 2045 0004 0D46     		mov	r5, r1
 259:/Users/imashio/Electronics/ARM/_Library/u8g2_d_setup.c ****   uint8_t tile_buf_height;
 260:/Users/imashio/Electronics/ARM/_Library/u8g2_d_setup.c ****   uint8_t *buf;
 261:/Users/imashio/Electronics/ARM/_Library/u8g2_d_setup.c ****   u8g2_SetupDisplay(u8g2, u8x8_d_sh1106_128x64_winstar, u8x8_cad_001, byte_cb, gpio_and_delay_cb);
 2046              		.loc 1 261 0
 2047 0006 0093     		str	r3, [sp]
 2048 0008 0949     		ldr	r1, .L120
 2049              	.LVL262:
ARM GAS  /var/folders/v3/wysfpd052nz8jkbx04pk0ym80000gn/T//ccU8HdeZ.s 			page 41


 2050 000a 1346     		mov	r3, r2
 2051              	.LVL263:
 2052 000c 094A     		ldr	r2, .L120+4
 2053              	.LVL264:
 258:/Users/imashio/Electronics/ARM/_Library/u8g2_d_setup.c ****   uint8_t tile_buf_height;
 2054              		.loc 1 258 0
 2055 000e 0446     		mov	r4, r0
 2056              		.loc 1 261 0
 2057 0010 FFF7FEFF 		bl	u8x8_Setup
 2058              	.LVL265:
 262:/Users/imashio/Electronics/ARM/_Library/u8g2_d_setup.c ****   buf = u8g2_m_16_8_2(&tile_buf_height);
 2059              		.loc 1 262 0
 2060 0014 0DF10F00 		add	r0, sp, #15
 2061 0018 FFF7FEFF 		bl	u8g2_m_16_8_2
 2062              	.LVL266:
 263:/Users/imashio/Electronics/ARM/_Library/u8g2_d_setup.c ****   u8g2_SetupBuffer(u8g2, buf, tile_buf_height, u8g2_ll_hvline_vertical_top_lsb, rotation);
 2063              		.loc 1 263 0
 2064 001c 9DF80F20 		ldrb	r2, [sp, #15]	@ zero_extendqisi2
 2065 0020 0095     		str	r5, [sp]
 2066 0022 0146     		mov	r1, r0
 2067 0024 044B     		ldr	r3, .L120+8
 2068 0026 2046     		mov	r0, r4
 2069              	.LVL267:
 2070 0028 FFF7FEFF 		bl	u8g2_SetupBuffer
 2071              	.LVL268:
 264:/Users/imashio/Electronics/ARM/_Library/u8g2_d_setup.c **** }
 2072              		.loc 1 264 0
 2073 002c 05B0     		add	sp, sp, #20
 2074              	.LCFI89:
 2075              		.cfi_def_cfa_offset 12
 2076              		@ sp needed
 2077 002e 30BD     		pop	{r4, r5, pc}
 2078              	.LVL269:
 2079              	.L121:
 2080              		.align	2
 2081              	.L120:
 2082 0030 00000000 		.word	u8x8_d_sh1106_128x64_winstar
 2083 0034 00000000 		.word	u8x8_cad_001
 2084 0038 00000000 		.word	u8g2_ll_hvline_vertical_top_lsb
 2085              		.cfi_endproc
 2086              	.LFE29:
 2088              		.section	.text.u8g2_Setup_sh1106_128x64_noname_f,"ax",%progbits
 2089              		.align	1
 2090              		.p2align 2,,3
 2091              		.global	u8g2_Setup_sh1106_128x64_noname_f
 2092              		.syntax unified
 2093              		.thumb
 2094              		.thumb_func
 2095              		.fpu fpv4-sp-d16
 2097              	u8g2_Setup_sh1106_128x64_noname_f:
 2098              	.LFB30:
 265:/Users/imashio/Electronics/ARM/_Library/u8g2_d_setup.c **** /* sh1106 f */
 266:/Users/imashio/Electronics/ARM/_Library/u8g2_d_setup.c **** void u8g2_Setup_sh1106_128x64_noname_f(u8g2_t *u8g2, const u8g2_cb_t *rotation, u8x8_msg_cb byte_cb
 267:/Users/imashio/Electronics/ARM/_Library/u8g2_d_setup.c **** {
 2099              		.loc 1 267 0
 2100              		.cfi_startproc
 2101              		@ args = 0, pretend = 0, frame = 8
ARM GAS  /var/folders/v3/wysfpd052nz8jkbx04pk0ym80000gn/T//ccU8HdeZ.s 			page 42


 2102              		@ frame_needed = 0, uses_anonymous_args = 0
 2103              	.LVL270:
 2104 0000 30B5     		push	{r4, r5, lr}
 2105              	.LCFI90:
 2106              		.cfi_def_cfa_offset 12
 2107              		.cfi_offset 4, -12
 2108              		.cfi_offset 5, -8
 2109              		.cfi_offset 14, -4
 2110 0002 85B0     		sub	sp, sp, #20
 2111              	.LCFI91:
 2112              		.cfi_def_cfa_offset 32
 2113              		.loc 1 267 0
 2114 0004 0D46     		mov	r5, r1
 268:/Users/imashio/Electronics/ARM/_Library/u8g2_d_setup.c ****   uint8_t tile_buf_height;
 269:/Users/imashio/Electronics/ARM/_Library/u8g2_d_setup.c ****   uint8_t *buf;
 270:/Users/imashio/Electronics/ARM/_Library/u8g2_d_setup.c ****   u8g2_SetupDisplay(u8g2, u8x8_d_sh1106_128x64_noname, u8x8_cad_001, byte_cb, gpio_and_delay_cb);
 2115              		.loc 1 270 0
 2116 0006 0093     		str	r3, [sp]
 2117 0008 0949     		ldr	r1, .L124
 2118              	.LVL271:
 2119 000a 1346     		mov	r3, r2
 2120              	.LVL272:
 2121 000c 094A     		ldr	r2, .L124+4
 2122              	.LVL273:
 267:/Users/imashio/Electronics/ARM/_Library/u8g2_d_setup.c ****   uint8_t tile_buf_height;
 2123              		.loc 1 267 0
 2124 000e 0446     		mov	r4, r0
 2125              		.loc 1 270 0
 2126 0010 FFF7FEFF 		bl	u8x8_Setup
 2127              	.LVL274:
 271:/Users/imashio/Electronics/ARM/_Library/u8g2_d_setup.c ****   buf = u8g2_m_16_8_f(&tile_buf_height);
 2128              		.loc 1 271 0
 2129 0014 0DF10F00 		add	r0, sp, #15
 2130 0018 FFF7FEFF 		bl	u8g2_m_16_8_f
 2131              	.LVL275:
 272:/Users/imashio/Electronics/ARM/_Library/u8g2_d_setup.c ****   u8g2_SetupBuffer(u8g2, buf, tile_buf_height, u8g2_ll_hvline_vertical_top_lsb, rotation);
 2132              		.loc 1 272 0
 2133 001c 9DF80F20 		ldrb	r2, [sp, #15]	@ zero_extendqisi2
 2134 0020 0095     		str	r5, [sp]
 2135 0022 0146     		mov	r1, r0
 2136 0024 044B     		ldr	r3, .L124+8
 2137 0026 2046     		mov	r0, r4
 2138              	.LVL276:
 2139 0028 FFF7FEFF 		bl	u8g2_SetupBuffer
 2140              	.LVL277:
 273:/Users/imashio/Electronics/ARM/_Library/u8g2_d_setup.c **** }
 2141              		.loc 1 273 0
 2142 002c 05B0     		add	sp, sp, #20
 2143              	.LCFI92:
 2144              		.cfi_def_cfa_offset 12
 2145              		@ sp needed
 2146 002e 30BD     		pop	{r4, r5, pc}
 2147              	.LVL278:
 2148              	.L125:
 2149              		.align	2
 2150              	.L124:
 2151 0030 00000000 		.word	u8x8_d_sh1106_128x64_noname
ARM GAS  /var/folders/v3/wysfpd052nz8jkbx04pk0ym80000gn/T//ccU8HdeZ.s 			page 43


 2152 0034 00000000 		.word	u8x8_cad_001
 2153 0038 00000000 		.word	u8g2_ll_hvline_vertical_top_lsb
 2154              		.cfi_endproc
 2155              	.LFE30:
 2157              		.section	.text.u8g2_Setup_sh1106_128x64_vcomh0_f,"ax",%progbits
 2158              		.align	1
 2159              		.p2align 2,,3
 2160              		.global	u8g2_Setup_sh1106_128x64_vcomh0_f
 2161              		.syntax unified
 2162              		.thumb
 2163              		.thumb_func
 2164              		.fpu fpv4-sp-d16
 2166              	u8g2_Setup_sh1106_128x64_vcomh0_f:
 2167              	.LFB31:
 274:/Users/imashio/Electronics/ARM/_Library/u8g2_d_setup.c **** void u8g2_Setup_sh1106_128x64_vcomh0_f(u8g2_t *u8g2, const u8g2_cb_t *rotation, u8x8_msg_cb byte_cb
 275:/Users/imashio/Electronics/ARM/_Library/u8g2_d_setup.c **** {
 2168              		.loc 1 275 0
 2169              		.cfi_startproc
 2170              		@ args = 0, pretend = 0, frame = 8
 2171              		@ frame_needed = 0, uses_anonymous_args = 0
 2172              	.LVL279:
 2173 0000 30B5     		push	{r4, r5, lr}
 2174              	.LCFI93:
 2175              		.cfi_def_cfa_offset 12
 2176              		.cfi_offset 4, -12
 2177              		.cfi_offset 5, -8
 2178              		.cfi_offset 14, -4
 2179 0002 85B0     		sub	sp, sp, #20
 2180              	.LCFI94:
 2181              		.cfi_def_cfa_offset 32
 2182              		.loc 1 275 0
 2183 0004 0D46     		mov	r5, r1
 276:/Users/imashio/Electronics/ARM/_Library/u8g2_d_setup.c ****   uint8_t tile_buf_height;
 277:/Users/imashio/Electronics/ARM/_Library/u8g2_d_setup.c ****   uint8_t *buf;
 278:/Users/imashio/Electronics/ARM/_Library/u8g2_d_setup.c ****   u8g2_SetupDisplay(u8g2, u8x8_d_sh1106_128x64_vcomh0, u8x8_cad_001, byte_cb, gpio_and_delay_cb);
 2184              		.loc 1 278 0
 2185 0006 0093     		str	r3, [sp]
 2186 0008 0949     		ldr	r1, .L128
 2187              	.LVL280:
 2188 000a 1346     		mov	r3, r2
 2189              	.LVL281:
 2190 000c 094A     		ldr	r2, .L128+4
 2191              	.LVL282:
 275:/Users/imashio/Electronics/ARM/_Library/u8g2_d_setup.c ****   uint8_t tile_buf_height;
 2192              		.loc 1 275 0
 2193 000e 0446     		mov	r4, r0
 2194              		.loc 1 278 0
 2195 0010 FFF7FEFF 		bl	u8x8_Setup
 2196              	.LVL283:
 279:/Users/imashio/Electronics/ARM/_Library/u8g2_d_setup.c ****   buf = u8g2_m_16_8_f(&tile_buf_height);
 2197              		.loc 1 279 0
 2198 0014 0DF10F00 		add	r0, sp, #15
 2199 0018 FFF7FEFF 		bl	u8g2_m_16_8_f
 2200              	.LVL284:
 280:/Users/imashio/Electronics/ARM/_Library/u8g2_d_setup.c ****   u8g2_SetupBuffer(u8g2, buf, tile_buf_height, u8g2_ll_hvline_vertical_top_lsb, rotation);
 2201              		.loc 1 280 0
 2202 001c 9DF80F20 		ldrb	r2, [sp, #15]	@ zero_extendqisi2
ARM GAS  /var/folders/v3/wysfpd052nz8jkbx04pk0ym80000gn/T//ccU8HdeZ.s 			page 44


 2203 0020 0095     		str	r5, [sp]
 2204 0022 0146     		mov	r1, r0
 2205 0024 044B     		ldr	r3, .L128+8
 2206 0026 2046     		mov	r0, r4
 2207              	.LVL285:
 2208 0028 FFF7FEFF 		bl	u8g2_SetupBuffer
 2209              	.LVL286:
 281:/Users/imashio/Electronics/ARM/_Library/u8g2_d_setup.c **** }
 2210              		.loc 1 281 0
 2211 002c 05B0     		add	sp, sp, #20
 2212              	.LCFI95:
 2213              		.cfi_def_cfa_offset 12
 2214              		@ sp needed
 2215 002e 30BD     		pop	{r4, r5, pc}
 2216              	.LVL287:
 2217              	.L129:
 2218              		.align	2
 2219              	.L128:
 2220 0030 00000000 		.word	u8x8_d_sh1106_128x64_vcomh0
 2221 0034 00000000 		.word	u8x8_cad_001
 2222 0038 00000000 		.word	u8g2_ll_hvline_vertical_top_lsb
 2223              		.cfi_endproc
 2224              	.LFE31:
 2226              		.section	.text.u8g2_Setup_sh1106_128x64_winstar_f,"ax",%progbits
 2227              		.align	1
 2228              		.p2align 2,,3
 2229              		.global	u8g2_Setup_sh1106_128x64_winstar_f
 2230              		.syntax unified
 2231              		.thumb
 2232              		.thumb_func
 2233              		.fpu fpv4-sp-d16
 2235              	u8g2_Setup_sh1106_128x64_winstar_f:
 2236              	.LFB32:
 282:/Users/imashio/Electronics/ARM/_Library/u8g2_d_setup.c **** void u8g2_Setup_sh1106_128x64_winstar_f(u8g2_t *u8g2, const u8g2_cb_t *rotation, u8x8_msg_cb byte_c
 283:/Users/imashio/Electronics/ARM/_Library/u8g2_d_setup.c **** {
 2237              		.loc 1 283 0
 2238              		.cfi_startproc
 2239              		@ args = 0, pretend = 0, frame = 8
 2240              		@ frame_needed = 0, uses_anonymous_args = 0
 2241              	.LVL288:
 2242 0000 30B5     		push	{r4, r5, lr}
 2243              	.LCFI96:
 2244              		.cfi_def_cfa_offset 12
 2245              		.cfi_offset 4, -12
 2246              		.cfi_offset 5, -8
 2247              		.cfi_offset 14, -4
 2248 0002 85B0     		sub	sp, sp, #20
 2249              	.LCFI97:
 2250              		.cfi_def_cfa_offset 32
 2251              		.loc 1 283 0
 2252 0004 0D46     		mov	r5, r1
 284:/Users/imashio/Electronics/ARM/_Library/u8g2_d_setup.c ****   uint8_t tile_buf_height;
 285:/Users/imashio/Electronics/ARM/_Library/u8g2_d_setup.c ****   uint8_t *buf;
 286:/Users/imashio/Electronics/ARM/_Library/u8g2_d_setup.c ****   u8g2_SetupDisplay(u8g2, u8x8_d_sh1106_128x64_winstar, u8x8_cad_001, byte_cb, gpio_and_delay_cb);
 2253              		.loc 1 286 0
 2254 0006 0093     		str	r3, [sp]
 2255 0008 0949     		ldr	r1, .L132
ARM GAS  /var/folders/v3/wysfpd052nz8jkbx04pk0ym80000gn/T//ccU8HdeZ.s 			page 45


 2256              	.LVL289:
 2257 000a 1346     		mov	r3, r2
 2258              	.LVL290:
 2259 000c 094A     		ldr	r2, .L132+4
 2260              	.LVL291:
 283:/Users/imashio/Electronics/ARM/_Library/u8g2_d_setup.c ****   uint8_t tile_buf_height;
 2261              		.loc 1 283 0
 2262 000e 0446     		mov	r4, r0
 2263              		.loc 1 286 0
 2264 0010 FFF7FEFF 		bl	u8x8_Setup
 2265              	.LVL292:
 287:/Users/imashio/Electronics/ARM/_Library/u8g2_d_setup.c ****   buf = u8g2_m_16_8_f(&tile_buf_height);
 2266              		.loc 1 287 0
 2267 0014 0DF10F00 		add	r0, sp, #15
 2268 0018 FFF7FEFF 		bl	u8g2_m_16_8_f
 2269              	.LVL293:
 288:/Users/imashio/Electronics/ARM/_Library/u8g2_d_setup.c ****   u8g2_SetupBuffer(u8g2, buf, tile_buf_height, u8g2_ll_hvline_vertical_top_lsb, rotation);
 2270              		.loc 1 288 0
 2271 001c 9DF80F20 		ldrb	r2, [sp, #15]	@ zero_extendqisi2
 2272 0020 0095     		str	r5, [sp]
 2273 0022 0146     		mov	r1, r0
 2274 0024 044B     		ldr	r3, .L132+8
 2275 0026 2046     		mov	r0, r4
 2276              	.LVL294:
 2277 0028 FFF7FEFF 		bl	u8g2_SetupBuffer
 2278              	.LVL295:
 289:/Users/imashio/Electronics/ARM/_Library/u8g2_d_setup.c **** }
 2279              		.loc 1 289 0
 2280 002c 05B0     		add	sp, sp, #20
 2281              	.LCFI98:
 2282              		.cfi_def_cfa_offset 12
 2283              		@ sp needed
 2284 002e 30BD     		pop	{r4, r5, pc}
 2285              	.LVL296:
 2286              	.L133:
 2287              		.align	2
 2288              	.L132:
 2289 0030 00000000 		.word	u8x8_d_sh1106_128x64_winstar
 2290 0034 00000000 		.word	u8x8_cad_001
 2291 0038 00000000 		.word	u8g2_ll_hvline_vertical_top_lsb
 2292              		.cfi_endproc
 2293              	.LFE32:
 2295              		.section	.text.u8g2_Setup_sh1106_i2c_128x64_noname_1,"ax",%progbits
 2296              		.align	1
 2297              		.p2align 2,,3
 2298              		.global	u8g2_Setup_sh1106_i2c_128x64_noname_1
 2299              		.syntax unified
 2300              		.thumb
 2301              		.thumb_func
 2302              		.fpu fpv4-sp-d16
 2304              	u8g2_Setup_sh1106_i2c_128x64_noname_1:
 2305              	.LFB33:
 290:/Users/imashio/Electronics/ARM/_Library/u8g2_d_setup.c **** /* sh1106 */
 291:/Users/imashio/Electronics/ARM/_Library/u8g2_d_setup.c **** /* sh1106 1 */
 292:/Users/imashio/Electronics/ARM/_Library/u8g2_d_setup.c **** void u8g2_Setup_sh1106_i2c_128x64_noname_1(u8g2_t *u8g2, const u8g2_cb_t *rotation, u8x8_msg_cb byt
 293:/Users/imashio/Electronics/ARM/_Library/u8g2_d_setup.c **** {
 2306              		.loc 1 293 0
ARM GAS  /var/folders/v3/wysfpd052nz8jkbx04pk0ym80000gn/T//ccU8HdeZ.s 			page 46


 2307              		.cfi_startproc
 2308              		@ args = 0, pretend = 0, frame = 8
 2309              		@ frame_needed = 0, uses_anonymous_args = 0
 2310              	.LVL297:
 2311 0000 30B5     		push	{r4, r5, lr}
 2312              	.LCFI99:
 2313              		.cfi_def_cfa_offset 12
 2314              		.cfi_offset 4, -12
 2315              		.cfi_offset 5, -8
 2316              		.cfi_offset 14, -4
 2317 0002 85B0     		sub	sp, sp, #20
 2318              	.LCFI100:
 2319              		.cfi_def_cfa_offset 32
 2320              		.loc 1 293 0
 2321 0004 0D46     		mov	r5, r1
 294:/Users/imashio/Electronics/ARM/_Library/u8g2_d_setup.c ****   uint8_t tile_buf_height;
 295:/Users/imashio/Electronics/ARM/_Library/u8g2_d_setup.c ****   uint8_t *buf;
 296:/Users/imashio/Electronics/ARM/_Library/u8g2_d_setup.c ****   u8g2_SetupDisplay(u8g2, u8x8_d_sh1106_128x64_noname, u8x8_cad_ssd13xx_i2c, byte_cb, gpio_and_dela
 2322              		.loc 1 296 0
 2323 0006 0093     		str	r3, [sp]
 2324 0008 0949     		ldr	r1, .L136
 2325              	.LVL298:
 2326 000a 1346     		mov	r3, r2
 2327              	.LVL299:
 2328 000c 094A     		ldr	r2, .L136+4
 2329              	.LVL300:
 293:/Users/imashio/Electronics/ARM/_Library/u8g2_d_setup.c ****   uint8_t tile_buf_height;
 2330              		.loc 1 293 0
 2331 000e 0446     		mov	r4, r0
 2332              		.loc 1 296 0
 2333 0010 FFF7FEFF 		bl	u8x8_Setup
 2334              	.LVL301:
 297:/Users/imashio/Electronics/ARM/_Library/u8g2_d_setup.c ****   buf = u8g2_m_16_8_1(&tile_buf_height);
 2335              		.loc 1 297 0
 2336 0014 0DF10F00 		add	r0, sp, #15
 2337 0018 FFF7FEFF 		bl	u8g2_m_16_8_1
 2338              	.LVL302:
 298:/Users/imashio/Electronics/ARM/_Library/u8g2_d_setup.c ****   u8g2_SetupBuffer(u8g2, buf, tile_buf_height, u8g2_ll_hvline_vertical_top_lsb, rotation);
 2339              		.loc 1 298 0
 2340 001c 9DF80F20 		ldrb	r2, [sp, #15]	@ zero_extendqisi2
 2341 0020 0095     		str	r5, [sp]
 2342 0022 0146     		mov	r1, r0
 2343 0024 044B     		ldr	r3, .L136+8
 2344 0026 2046     		mov	r0, r4
 2345              	.LVL303:
 2346 0028 FFF7FEFF 		bl	u8g2_SetupBuffer
 2347              	.LVL304:
 299:/Users/imashio/Electronics/ARM/_Library/u8g2_d_setup.c **** }
 2348              		.loc 1 299 0
 2349 002c 05B0     		add	sp, sp, #20
 2350              	.LCFI101:
 2351              		.cfi_def_cfa_offset 12
 2352              		@ sp needed
 2353 002e 30BD     		pop	{r4, r5, pc}
 2354              	.LVL305:
 2355              	.L137:
 2356              		.align	2
ARM GAS  /var/folders/v3/wysfpd052nz8jkbx04pk0ym80000gn/T//ccU8HdeZ.s 			page 47


 2357              	.L136:
 2358 0030 00000000 		.word	u8x8_d_sh1106_128x64_noname
 2359 0034 00000000 		.word	u8x8_cad_ssd13xx_i2c
 2360 0038 00000000 		.word	u8g2_ll_hvline_vertical_top_lsb
 2361              		.cfi_endproc
 2362              	.LFE33:
 2364              		.section	.text.u8g2_Setup_sh1106_i2c_128x64_vcomh0_1,"ax",%progbits
 2365              		.align	1
 2366              		.p2align 2,,3
 2367              		.global	u8g2_Setup_sh1106_i2c_128x64_vcomh0_1
 2368              		.syntax unified
 2369              		.thumb
 2370              		.thumb_func
 2371              		.fpu fpv4-sp-d16
 2373              	u8g2_Setup_sh1106_i2c_128x64_vcomh0_1:
 2374              	.LFB34:
 300:/Users/imashio/Electronics/ARM/_Library/u8g2_d_setup.c **** void u8g2_Setup_sh1106_i2c_128x64_vcomh0_1(u8g2_t *u8g2, const u8g2_cb_t *rotation, u8x8_msg_cb byt
 301:/Users/imashio/Electronics/ARM/_Library/u8g2_d_setup.c **** {
 2375              		.loc 1 301 0
 2376              		.cfi_startproc
 2377              		@ args = 0, pretend = 0, frame = 8
 2378              		@ frame_needed = 0, uses_anonymous_args = 0
 2379              	.LVL306:
 2380 0000 30B5     		push	{r4, r5, lr}
 2381              	.LCFI102:
 2382              		.cfi_def_cfa_offset 12
 2383              		.cfi_offset 4, -12
 2384              		.cfi_offset 5, -8
 2385              		.cfi_offset 14, -4
 2386 0002 85B0     		sub	sp, sp, #20
 2387              	.LCFI103:
 2388              		.cfi_def_cfa_offset 32
 2389              		.loc 1 301 0
 2390 0004 0D46     		mov	r5, r1
 302:/Users/imashio/Electronics/ARM/_Library/u8g2_d_setup.c ****   uint8_t tile_buf_height;
 303:/Users/imashio/Electronics/ARM/_Library/u8g2_d_setup.c ****   uint8_t *buf;
 304:/Users/imashio/Electronics/ARM/_Library/u8g2_d_setup.c ****   u8g2_SetupDisplay(u8g2, u8x8_d_sh1106_128x64_vcomh0, u8x8_cad_ssd13xx_i2c, byte_cb, gpio_and_dela
 2391              		.loc 1 304 0
 2392 0006 0093     		str	r3, [sp]
 2393 0008 0949     		ldr	r1, .L140
 2394              	.LVL307:
 2395 000a 1346     		mov	r3, r2
 2396              	.LVL308:
 2397 000c 094A     		ldr	r2, .L140+4
 2398              	.LVL309:
 301:/Users/imashio/Electronics/ARM/_Library/u8g2_d_setup.c ****   uint8_t tile_buf_height;
 2399              		.loc 1 301 0
 2400 000e 0446     		mov	r4, r0
 2401              		.loc 1 304 0
 2402 0010 FFF7FEFF 		bl	u8x8_Setup
 2403              	.LVL310:
 305:/Users/imashio/Electronics/ARM/_Library/u8g2_d_setup.c ****   buf = u8g2_m_16_8_1(&tile_buf_height);
 2404              		.loc 1 305 0
 2405 0014 0DF10F00 		add	r0, sp, #15
 2406 0018 FFF7FEFF 		bl	u8g2_m_16_8_1
 2407              	.LVL311:
 306:/Users/imashio/Electronics/ARM/_Library/u8g2_d_setup.c ****   u8g2_SetupBuffer(u8g2, buf, tile_buf_height, u8g2_ll_hvline_vertical_top_lsb, rotation);
ARM GAS  /var/folders/v3/wysfpd052nz8jkbx04pk0ym80000gn/T//ccU8HdeZ.s 			page 48


 2408              		.loc 1 306 0
 2409 001c 9DF80F20 		ldrb	r2, [sp, #15]	@ zero_extendqisi2
 2410 0020 0095     		str	r5, [sp]
 2411 0022 0146     		mov	r1, r0
 2412 0024 044B     		ldr	r3, .L140+8
 2413 0026 2046     		mov	r0, r4
 2414              	.LVL312:
 2415 0028 FFF7FEFF 		bl	u8g2_SetupBuffer
 2416              	.LVL313:
 307:/Users/imashio/Electronics/ARM/_Library/u8g2_d_setup.c **** }
 2417              		.loc 1 307 0
 2418 002c 05B0     		add	sp, sp, #20
 2419              	.LCFI104:
 2420              		.cfi_def_cfa_offset 12
 2421              		@ sp needed
 2422 002e 30BD     		pop	{r4, r5, pc}
 2423              	.LVL314:
 2424              	.L141:
 2425              		.align	2
 2426              	.L140:
 2427 0030 00000000 		.word	u8x8_d_sh1106_128x64_vcomh0
 2428 0034 00000000 		.word	u8x8_cad_ssd13xx_i2c
 2429 0038 00000000 		.word	u8g2_ll_hvline_vertical_top_lsb
 2430              		.cfi_endproc
 2431              	.LFE34:
 2433              		.section	.text.u8g2_Setup_sh1106_i2c_128x64_winstar_1,"ax",%progbits
 2434              		.align	1
 2435              		.p2align 2,,3
 2436              		.global	u8g2_Setup_sh1106_i2c_128x64_winstar_1
 2437              		.syntax unified
 2438              		.thumb
 2439              		.thumb_func
 2440              		.fpu fpv4-sp-d16
 2442              	u8g2_Setup_sh1106_i2c_128x64_winstar_1:
 2443              	.LFB35:
 308:/Users/imashio/Electronics/ARM/_Library/u8g2_d_setup.c **** void u8g2_Setup_sh1106_i2c_128x64_winstar_1(u8g2_t *u8g2, const u8g2_cb_t *rotation, u8x8_msg_cb by
 309:/Users/imashio/Electronics/ARM/_Library/u8g2_d_setup.c **** {
 2444              		.loc 1 309 0
 2445              		.cfi_startproc
 2446              		@ args = 0, pretend = 0, frame = 8
 2447              		@ frame_needed = 0, uses_anonymous_args = 0
 2448              	.LVL315:
 2449 0000 30B5     		push	{r4, r5, lr}
 2450              	.LCFI105:
 2451              		.cfi_def_cfa_offset 12
 2452              		.cfi_offset 4, -12
 2453              		.cfi_offset 5, -8
 2454              		.cfi_offset 14, -4
 2455 0002 85B0     		sub	sp, sp, #20
 2456              	.LCFI106:
 2457              		.cfi_def_cfa_offset 32
 2458              		.loc 1 309 0
 2459 0004 0D46     		mov	r5, r1
 310:/Users/imashio/Electronics/ARM/_Library/u8g2_d_setup.c ****   uint8_t tile_buf_height;
 311:/Users/imashio/Electronics/ARM/_Library/u8g2_d_setup.c ****   uint8_t *buf;
 312:/Users/imashio/Electronics/ARM/_Library/u8g2_d_setup.c ****   u8g2_SetupDisplay(u8g2, u8x8_d_sh1106_128x64_winstar, u8x8_cad_ssd13xx_i2c, byte_cb, gpio_and_del
 2460              		.loc 1 312 0
ARM GAS  /var/folders/v3/wysfpd052nz8jkbx04pk0ym80000gn/T//ccU8HdeZ.s 			page 49


 2461 0006 0093     		str	r3, [sp]
 2462 0008 0949     		ldr	r1, .L144
 2463              	.LVL316:
 2464 000a 1346     		mov	r3, r2
 2465              	.LVL317:
 2466 000c 094A     		ldr	r2, .L144+4
 2467              	.LVL318:
 309:/Users/imashio/Electronics/ARM/_Library/u8g2_d_setup.c ****   uint8_t tile_buf_height;
 2468              		.loc 1 309 0
 2469 000e 0446     		mov	r4, r0
 2470              		.loc 1 312 0
 2471 0010 FFF7FEFF 		bl	u8x8_Setup
 2472              	.LVL319:
 313:/Users/imashio/Electronics/ARM/_Library/u8g2_d_setup.c ****   buf = u8g2_m_16_8_1(&tile_buf_height);
 2473              		.loc 1 313 0
 2474 0014 0DF10F00 		add	r0, sp, #15
 2475 0018 FFF7FEFF 		bl	u8g2_m_16_8_1
 2476              	.LVL320:
 314:/Users/imashio/Electronics/ARM/_Library/u8g2_d_setup.c ****   u8g2_SetupBuffer(u8g2, buf, tile_buf_height, u8g2_ll_hvline_vertical_top_lsb, rotation);
 2477              		.loc 1 314 0
 2478 001c 9DF80F20 		ldrb	r2, [sp, #15]	@ zero_extendqisi2
 2479 0020 0095     		str	r5, [sp]
 2480 0022 0146     		mov	r1, r0
 2481 0024 044B     		ldr	r3, .L144+8
 2482 0026 2046     		mov	r0, r4
 2483              	.LVL321:
 2484 0028 FFF7FEFF 		bl	u8g2_SetupBuffer
 2485              	.LVL322:
 315:/Users/imashio/Electronics/ARM/_Library/u8g2_d_setup.c **** }
 2486              		.loc 1 315 0
 2487 002c 05B0     		add	sp, sp, #20
 2488              	.LCFI107:
 2489              		.cfi_def_cfa_offset 12
 2490              		@ sp needed
 2491 002e 30BD     		pop	{r4, r5, pc}
 2492              	.LVL323:
 2493              	.L145:
 2494              		.align	2
 2495              	.L144:
 2496 0030 00000000 		.word	u8x8_d_sh1106_128x64_winstar
 2497 0034 00000000 		.word	u8x8_cad_ssd13xx_i2c
 2498 0038 00000000 		.word	u8g2_ll_hvline_vertical_top_lsb
 2499              		.cfi_endproc
 2500              	.LFE35:
 2502              		.section	.text.u8g2_Setup_sh1106_i2c_128x64_noname_2,"ax",%progbits
 2503              		.align	1
 2504              		.p2align 2,,3
 2505              		.global	u8g2_Setup_sh1106_i2c_128x64_noname_2
 2506              		.syntax unified
 2507              		.thumb
 2508              		.thumb_func
 2509              		.fpu fpv4-sp-d16
 2511              	u8g2_Setup_sh1106_i2c_128x64_noname_2:
 2512              	.LFB36:
 316:/Users/imashio/Electronics/ARM/_Library/u8g2_d_setup.c **** /* sh1106 2 */
 317:/Users/imashio/Electronics/ARM/_Library/u8g2_d_setup.c **** void u8g2_Setup_sh1106_i2c_128x64_noname_2(u8g2_t *u8g2, const u8g2_cb_t *rotation, u8x8_msg_cb byt
 318:/Users/imashio/Electronics/ARM/_Library/u8g2_d_setup.c **** {
ARM GAS  /var/folders/v3/wysfpd052nz8jkbx04pk0ym80000gn/T//ccU8HdeZ.s 			page 50


 2513              		.loc 1 318 0
 2514              		.cfi_startproc
 2515              		@ args = 0, pretend = 0, frame = 8
 2516              		@ frame_needed = 0, uses_anonymous_args = 0
 2517              	.LVL324:
 2518 0000 30B5     		push	{r4, r5, lr}
 2519              	.LCFI108:
 2520              		.cfi_def_cfa_offset 12
 2521              		.cfi_offset 4, -12
 2522              		.cfi_offset 5, -8
 2523              		.cfi_offset 14, -4
 2524 0002 85B0     		sub	sp, sp, #20
 2525              	.LCFI109:
 2526              		.cfi_def_cfa_offset 32
 2527              		.loc 1 318 0
 2528 0004 0D46     		mov	r5, r1
 319:/Users/imashio/Electronics/ARM/_Library/u8g2_d_setup.c ****   uint8_t tile_buf_height;
 320:/Users/imashio/Electronics/ARM/_Library/u8g2_d_setup.c ****   uint8_t *buf;
 321:/Users/imashio/Electronics/ARM/_Library/u8g2_d_setup.c ****   u8g2_SetupDisplay(u8g2, u8x8_d_sh1106_128x64_noname, u8x8_cad_ssd13xx_i2c, byte_cb, gpio_and_dela
 2529              		.loc 1 321 0
 2530 0006 0093     		str	r3, [sp]
 2531 0008 0949     		ldr	r1, .L148
 2532              	.LVL325:
 2533 000a 1346     		mov	r3, r2
 2534              	.LVL326:
 2535 000c 094A     		ldr	r2, .L148+4
 2536              	.LVL327:
 318:/Users/imashio/Electronics/ARM/_Library/u8g2_d_setup.c ****   uint8_t tile_buf_height;
 2537              		.loc 1 318 0
 2538 000e 0446     		mov	r4, r0
 2539              		.loc 1 321 0
 2540 0010 FFF7FEFF 		bl	u8x8_Setup
 2541              	.LVL328:
 322:/Users/imashio/Electronics/ARM/_Library/u8g2_d_setup.c ****   buf = u8g2_m_16_8_2(&tile_buf_height);
 2542              		.loc 1 322 0
 2543 0014 0DF10F00 		add	r0, sp, #15
 2544 0018 FFF7FEFF 		bl	u8g2_m_16_8_2
 2545              	.LVL329:
 323:/Users/imashio/Electronics/ARM/_Library/u8g2_d_setup.c ****   u8g2_SetupBuffer(u8g2, buf, tile_buf_height, u8g2_ll_hvline_vertical_top_lsb, rotation);
 2546              		.loc 1 323 0
 2547 001c 9DF80F20 		ldrb	r2, [sp, #15]	@ zero_extendqisi2
 2548 0020 0095     		str	r5, [sp]
 2549 0022 0146     		mov	r1, r0
 2550 0024 044B     		ldr	r3, .L148+8
 2551 0026 2046     		mov	r0, r4
 2552              	.LVL330:
 2553 0028 FFF7FEFF 		bl	u8g2_SetupBuffer
 2554              	.LVL331:
 324:/Users/imashio/Electronics/ARM/_Library/u8g2_d_setup.c **** }
 2555              		.loc 1 324 0
 2556 002c 05B0     		add	sp, sp, #20
 2557              	.LCFI110:
 2558              		.cfi_def_cfa_offset 12
 2559              		@ sp needed
 2560 002e 30BD     		pop	{r4, r5, pc}
 2561              	.LVL332:
 2562              	.L149:
ARM GAS  /var/folders/v3/wysfpd052nz8jkbx04pk0ym80000gn/T//ccU8HdeZ.s 			page 51


 2563              		.align	2
 2564              	.L148:
 2565 0030 00000000 		.word	u8x8_d_sh1106_128x64_noname
 2566 0034 00000000 		.word	u8x8_cad_ssd13xx_i2c
 2567 0038 00000000 		.word	u8g2_ll_hvline_vertical_top_lsb
 2568              		.cfi_endproc
 2569              	.LFE36:
 2571              		.section	.text.u8g2_Setup_sh1106_i2c_128x64_vcomh0_2,"ax",%progbits
 2572              		.align	1
 2573              		.p2align 2,,3
 2574              		.global	u8g2_Setup_sh1106_i2c_128x64_vcomh0_2
 2575              		.syntax unified
 2576              		.thumb
 2577              		.thumb_func
 2578              		.fpu fpv4-sp-d16
 2580              	u8g2_Setup_sh1106_i2c_128x64_vcomh0_2:
 2581              	.LFB37:
 325:/Users/imashio/Electronics/ARM/_Library/u8g2_d_setup.c **** void u8g2_Setup_sh1106_i2c_128x64_vcomh0_2(u8g2_t *u8g2, const u8g2_cb_t *rotation, u8x8_msg_cb byt
 326:/Users/imashio/Electronics/ARM/_Library/u8g2_d_setup.c **** {
 2582              		.loc 1 326 0
 2583              		.cfi_startproc
 2584              		@ args = 0, pretend = 0, frame = 8
 2585              		@ frame_needed = 0, uses_anonymous_args = 0
 2586              	.LVL333:
 2587 0000 30B5     		push	{r4, r5, lr}
 2588              	.LCFI111:
 2589              		.cfi_def_cfa_offset 12
 2590              		.cfi_offset 4, -12
 2591              		.cfi_offset 5, -8
 2592              		.cfi_offset 14, -4
 2593 0002 85B0     		sub	sp, sp, #20
 2594              	.LCFI112:
 2595              		.cfi_def_cfa_offset 32
 2596              		.loc 1 326 0
 2597 0004 0D46     		mov	r5, r1
 327:/Users/imashio/Electronics/ARM/_Library/u8g2_d_setup.c ****   uint8_t tile_buf_height;
 328:/Users/imashio/Electronics/ARM/_Library/u8g2_d_setup.c ****   uint8_t *buf;
 329:/Users/imashio/Electronics/ARM/_Library/u8g2_d_setup.c ****   u8g2_SetupDisplay(u8g2, u8x8_d_sh1106_128x64_vcomh0, u8x8_cad_ssd13xx_i2c, byte_cb, gpio_and_dela
 2598              		.loc 1 329 0
 2599 0006 0093     		str	r3, [sp]
 2600 0008 0949     		ldr	r1, .L152
 2601              	.LVL334:
 2602 000a 1346     		mov	r3, r2
 2603              	.LVL335:
 2604 000c 094A     		ldr	r2, .L152+4
 2605              	.LVL336:
 326:/Users/imashio/Electronics/ARM/_Library/u8g2_d_setup.c ****   uint8_t tile_buf_height;
 2606              		.loc 1 326 0
 2607 000e 0446     		mov	r4, r0
 2608              		.loc 1 329 0
 2609 0010 FFF7FEFF 		bl	u8x8_Setup
 2610              	.LVL337:
 330:/Users/imashio/Electronics/ARM/_Library/u8g2_d_setup.c ****   buf = u8g2_m_16_8_2(&tile_buf_height);
 2611              		.loc 1 330 0
 2612 0014 0DF10F00 		add	r0, sp, #15
 2613 0018 FFF7FEFF 		bl	u8g2_m_16_8_2
 2614              	.LVL338:
ARM GAS  /var/folders/v3/wysfpd052nz8jkbx04pk0ym80000gn/T//ccU8HdeZ.s 			page 52


 331:/Users/imashio/Electronics/ARM/_Library/u8g2_d_setup.c ****   u8g2_SetupBuffer(u8g2, buf, tile_buf_height, u8g2_ll_hvline_vertical_top_lsb, rotation);
 2615              		.loc 1 331 0
 2616 001c 9DF80F20 		ldrb	r2, [sp, #15]	@ zero_extendqisi2
 2617 0020 0095     		str	r5, [sp]
 2618 0022 0146     		mov	r1, r0
 2619 0024 044B     		ldr	r3, .L152+8
 2620 0026 2046     		mov	r0, r4
 2621              	.LVL339:
 2622 0028 FFF7FEFF 		bl	u8g2_SetupBuffer
 2623              	.LVL340:
 332:/Users/imashio/Electronics/ARM/_Library/u8g2_d_setup.c **** }
 2624              		.loc 1 332 0
 2625 002c 05B0     		add	sp, sp, #20
 2626              	.LCFI113:
 2627              		.cfi_def_cfa_offset 12
 2628              		@ sp needed
 2629 002e 30BD     		pop	{r4, r5, pc}
 2630              	.LVL341:
 2631              	.L153:
 2632              		.align	2
 2633              	.L152:
 2634 0030 00000000 		.word	u8x8_d_sh1106_128x64_vcomh0
 2635 0034 00000000 		.word	u8x8_cad_ssd13xx_i2c
 2636 0038 00000000 		.word	u8g2_ll_hvline_vertical_top_lsb
 2637              		.cfi_endproc
 2638              	.LFE37:
 2640              		.section	.text.u8g2_Setup_sh1106_i2c_128x64_winstar_2,"ax",%progbits
 2641              		.align	1
 2642              		.p2align 2,,3
 2643              		.global	u8g2_Setup_sh1106_i2c_128x64_winstar_2
 2644              		.syntax unified
 2645              		.thumb
 2646              		.thumb_func
 2647              		.fpu fpv4-sp-d16
 2649              	u8g2_Setup_sh1106_i2c_128x64_winstar_2:
 2650              	.LFB38:
 333:/Users/imashio/Electronics/ARM/_Library/u8g2_d_setup.c **** void u8g2_Setup_sh1106_i2c_128x64_winstar_2(u8g2_t *u8g2, const u8g2_cb_t *rotation, u8x8_msg_cb by
 334:/Users/imashio/Electronics/ARM/_Library/u8g2_d_setup.c **** {
 2651              		.loc 1 334 0
 2652              		.cfi_startproc
 2653              		@ args = 0, pretend = 0, frame = 8
 2654              		@ frame_needed = 0, uses_anonymous_args = 0
 2655              	.LVL342:
 2656 0000 30B5     		push	{r4, r5, lr}
 2657              	.LCFI114:
 2658              		.cfi_def_cfa_offset 12
 2659              		.cfi_offset 4, -12
 2660              		.cfi_offset 5, -8
 2661              		.cfi_offset 14, -4
 2662 0002 85B0     		sub	sp, sp, #20
 2663              	.LCFI115:
 2664              		.cfi_def_cfa_offset 32
 2665              		.loc 1 334 0
 2666 0004 0D46     		mov	r5, r1
 335:/Users/imashio/Electronics/ARM/_Library/u8g2_d_setup.c ****   uint8_t tile_buf_height;
 336:/Users/imashio/Electronics/ARM/_Library/u8g2_d_setup.c ****   uint8_t *buf;
 337:/Users/imashio/Electronics/ARM/_Library/u8g2_d_setup.c ****   u8g2_SetupDisplay(u8g2, u8x8_d_sh1106_128x64_winstar, u8x8_cad_ssd13xx_i2c, byte_cb, gpio_and_del
ARM GAS  /var/folders/v3/wysfpd052nz8jkbx04pk0ym80000gn/T//ccU8HdeZ.s 			page 53


 2667              		.loc 1 337 0
 2668 0006 0093     		str	r3, [sp]
 2669 0008 0949     		ldr	r1, .L156
 2670              	.LVL343:
 2671 000a 1346     		mov	r3, r2
 2672              	.LVL344:
 2673 000c 094A     		ldr	r2, .L156+4
 2674              	.LVL345:
 334:/Users/imashio/Electronics/ARM/_Library/u8g2_d_setup.c ****   uint8_t tile_buf_height;
 2675              		.loc 1 334 0
 2676 000e 0446     		mov	r4, r0
 2677              		.loc 1 337 0
 2678 0010 FFF7FEFF 		bl	u8x8_Setup
 2679              	.LVL346:
 338:/Users/imashio/Electronics/ARM/_Library/u8g2_d_setup.c ****   buf = u8g2_m_16_8_2(&tile_buf_height);
 2680              		.loc 1 338 0
 2681 0014 0DF10F00 		add	r0, sp, #15
 2682 0018 FFF7FEFF 		bl	u8g2_m_16_8_2
 2683              	.LVL347:
 339:/Users/imashio/Electronics/ARM/_Library/u8g2_d_setup.c ****   u8g2_SetupBuffer(u8g2, buf, tile_buf_height, u8g2_ll_hvline_vertical_top_lsb, rotation);
 2684              		.loc 1 339 0
 2685 001c 9DF80F20 		ldrb	r2, [sp, #15]	@ zero_extendqisi2
 2686 0020 0095     		str	r5, [sp]
 2687 0022 0146     		mov	r1, r0
 2688 0024 044B     		ldr	r3, .L156+8
 2689 0026 2046     		mov	r0, r4
 2690              	.LVL348:
 2691 0028 FFF7FEFF 		bl	u8g2_SetupBuffer
 2692              	.LVL349:
 340:/Users/imashio/Electronics/ARM/_Library/u8g2_d_setup.c **** }
 2693              		.loc 1 340 0
 2694 002c 05B0     		add	sp, sp, #20
 2695              	.LCFI116:
 2696              		.cfi_def_cfa_offset 12
 2697              		@ sp needed
 2698 002e 30BD     		pop	{r4, r5, pc}
 2699              	.LVL350:
 2700              	.L157:
 2701              		.align	2
 2702              	.L156:
 2703 0030 00000000 		.word	u8x8_d_sh1106_128x64_winstar
 2704 0034 00000000 		.word	u8x8_cad_ssd13xx_i2c
 2705 0038 00000000 		.word	u8g2_ll_hvline_vertical_top_lsb
 2706              		.cfi_endproc
 2707              	.LFE38:
 2709              		.section	.text.u8g2_Setup_sh1106_i2c_128x64_noname_f,"ax",%progbits
 2710              		.align	1
 2711              		.p2align 2,,3
 2712              		.global	u8g2_Setup_sh1106_i2c_128x64_noname_f
 2713              		.syntax unified
 2714              		.thumb
 2715              		.thumb_func
 2716              		.fpu fpv4-sp-d16
 2718              	u8g2_Setup_sh1106_i2c_128x64_noname_f:
 2719              	.LFB39:
 341:/Users/imashio/Electronics/ARM/_Library/u8g2_d_setup.c **** /* sh1106 f */
 342:/Users/imashio/Electronics/ARM/_Library/u8g2_d_setup.c **** void u8g2_Setup_sh1106_i2c_128x64_noname_f(u8g2_t *u8g2, const u8g2_cb_t *rotation, u8x8_msg_cb byt
ARM GAS  /var/folders/v3/wysfpd052nz8jkbx04pk0ym80000gn/T//ccU8HdeZ.s 			page 54


 343:/Users/imashio/Electronics/ARM/_Library/u8g2_d_setup.c **** {
 2720              		.loc 1 343 0
 2721              		.cfi_startproc
 2722              		@ args = 0, pretend = 0, frame = 8
 2723              		@ frame_needed = 0, uses_anonymous_args = 0
 2724              	.LVL351:
 2725 0000 30B5     		push	{r4, r5, lr}
 2726              	.LCFI117:
 2727              		.cfi_def_cfa_offset 12
 2728              		.cfi_offset 4, -12
 2729              		.cfi_offset 5, -8
 2730              		.cfi_offset 14, -4
 2731 0002 85B0     		sub	sp, sp, #20
 2732              	.LCFI118:
 2733              		.cfi_def_cfa_offset 32
 2734              		.loc 1 343 0
 2735 0004 0D46     		mov	r5, r1
 344:/Users/imashio/Electronics/ARM/_Library/u8g2_d_setup.c ****   uint8_t tile_buf_height;
 345:/Users/imashio/Electronics/ARM/_Library/u8g2_d_setup.c ****   uint8_t *buf;
 346:/Users/imashio/Electronics/ARM/_Library/u8g2_d_setup.c ****   u8g2_SetupDisplay(u8g2, u8x8_d_sh1106_128x64_noname, u8x8_cad_ssd13xx_i2c, byte_cb, gpio_and_dela
 2736              		.loc 1 346 0
 2737 0006 0093     		str	r3, [sp]
 2738 0008 0949     		ldr	r1, .L160
 2739              	.LVL352:
 2740 000a 1346     		mov	r3, r2
 2741              	.LVL353:
 2742 000c 094A     		ldr	r2, .L160+4
 2743              	.LVL354:
 343:/Users/imashio/Electronics/ARM/_Library/u8g2_d_setup.c ****   uint8_t tile_buf_height;
 2744              		.loc 1 343 0
 2745 000e 0446     		mov	r4, r0
 2746              		.loc 1 346 0
 2747 0010 FFF7FEFF 		bl	u8x8_Setup
 2748              	.LVL355:
 347:/Users/imashio/Electronics/ARM/_Library/u8g2_d_setup.c ****   buf = u8g2_m_16_8_f(&tile_buf_height);
 2749              		.loc 1 347 0
 2750 0014 0DF10F00 		add	r0, sp, #15
 2751 0018 FFF7FEFF 		bl	u8g2_m_16_8_f
 2752              	.LVL356:
 348:/Users/imashio/Electronics/ARM/_Library/u8g2_d_setup.c ****   u8g2_SetupBuffer(u8g2, buf, tile_buf_height, u8g2_ll_hvline_vertical_top_lsb, rotation);
 2753              		.loc 1 348 0
 2754 001c 9DF80F20 		ldrb	r2, [sp, #15]	@ zero_extendqisi2
 2755 0020 0095     		str	r5, [sp]
 2756 0022 0146     		mov	r1, r0
 2757 0024 044B     		ldr	r3, .L160+8
 2758 0026 2046     		mov	r0, r4
 2759              	.LVL357:
 2760 0028 FFF7FEFF 		bl	u8g2_SetupBuffer
 2761              	.LVL358:
 349:/Users/imashio/Electronics/ARM/_Library/u8g2_d_setup.c **** }
 2762              		.loc 1 349 0
 2763 002c 05B0     		add	sp, sp, #20
 2764              	.LCFI119:
 2765              		.cfi_def_cfa_offset 12
 2766              		@ sp needed
 2767 002e 30BD     		pop	{r4, r5, pc}
 2768              	.LVL359:
ARM GAS  /var/folders/v3/wysfpd052nz8jkbx04pk0ym80000gn/T//ccU8HdeZ.s 			page 55


 2769              	.L161:
 2770              		.align	2
 2771              	.L160:
 2772 0030 00000000 		.word	u8x8_d_sh1106_128x64_noname
 2773 0034 00000000 		.word	u8x8_cad_ssd13xx_i2c
 2774 0038 00000000 		.word	u8g2_ll_hvline_vertical_top_lsb
 2775              		.cfi_endproc
 2776              	.LFE39:
 2778              		.section	.text.u8g2_Setup_sh1106_i2c_128x64_vcomh0_f,"ax",%progbits
 2779              		.align	1
 2780              		.p2align 2,,3
 2781              		.global	u8g2_Setup_sh1106_i2c_128x64_vcomh0_f
 2782              		.syntax unified
 2783              		.thumb
 2784              		.thumb_func
 2785              		.fpu fpv4-sp-d16
 2787              	u8g2_Setup_sh1106_i2c_128x64_vcomh0_f:
 2788              	.LFB40:
 350:/Users/imashio/Electronics/ARM/_Library/u8g2_d_setup.c **** void u8g2_Setup_sh1106_i2c_128x64_vcomh0_f(u8g2_t *u8g2, const u8g2_cb_t *rotation, u8x8_msg_cb byt
 351:/Users/imashio/Electronics/ARM/_Library/u8g2_d_setup.c **** {
 2789              		.loc 1 351 0
 2790              		.cfi_startproc
 2791              		@ args = 0, pretend = 0, frame = 8
 2792              		@ frame_needed = 0, uses_anonymous_args = 0
 2793              	.LVL360:
 2794 0000 30B5     		push	{r4, r5, lr}
 2795              	.LCFI120:
 2796              		.cfi_def_cfa_offset 12
 2797              		.cfi_offset 4, -12
 2798              		.cfi_offset 5, -8
 2799              		.cfi_offset 14, -4
 2800 0002 85B0     		sub	sp, sp, #20
 2801              	.LCFI121:
 2802              		.cfi_def_cfa_offset 32
 2803              		.loc 1 351 0
 2804 0004 0D46     		mov	r5, r1
 352:/Users/imashio/Electronics/ARM/_Library/u8g2_d_setup.c ****   uint8_t tile_buf_height;
 353:/Users/imashio/Electronics/ARM/_Library/u8g2_d_setup.c ****   uint8_t *buf;
 354:/Users/imashio/Electronics/ARM/_Library/u8g2_d_setup.c ****   u8g2_SetupDisplay(u8g2, u8x8_d_sh1106_128x64_vcomh0, u8x8_cad_ssd13xx_i2c, byte_cb, gpio_and_dela
 2805              		.loc 1 354 0
 2806 0006 0093     		str	r3, [sp]
 2807 0008 0949     		ldr	r1, .L164
 2808              	.LVL361:
 2809 000a 1346     		mov	r3, r2
 2810              	.LVL362:
 2811 000c 094A     		ldr	r2, .L164+4
 2812              	.LVL363:
 351:/Users/imashio/Electronics/ARM/_Library/u8g2_d_setup.c ****   uint8_t tile_buf_height;
 2813              		.loc 1 351 0
 2814 000e 0446     		mov	r4, r0
 2815              		.loc 1 354 0
 2816 0010 FFF7FEFF 		bl	u8x8_Setup
 2817              	.LVL364:
 355:/Users/imashio/Electronics/ARM/_Library/u8g2_d_setup.c ****   buf = u8g2_m_16_8_f(&tile_buf_height);
 2818              		.loc 1 355 0
 2819 0014 0DF10F00 		add	r0, sp, #15
 2820 0018 FFF7FEFF 		bl	u8g2_m_16_8_f
ARM GAS  /var/folders/v3/wysfpd052nz8jkbx04pk0ym80000gn/T//ccU8HdeZ.s 			page 56


 2821              	.LVL365:
 356:/Users/imashio/Electronics/ARM/_Library/u8g2_d_setup.c ****   u8g2_SetupBuffer(u8g2, buf, tile_buf_height, u8g2_ll_hvline_vertical_top_lsb, rotation);
 2822              		.loc 1 356 0
 2823 001c 9DF80F20 		ldrb	r2, [sp, #15]	@ zero_extendqisi2
 2824 0020 0095     		str	r5, [sp]
 2825 0022 0146     		mov	r1, r0
 2826 0024 044B     		ldr	r3, .L164+8
 2827 0026 2046     		mov	r0, r4
 2828              	.LVL366:
 2829 0028 FFF7FEFF 		bl	u8g2_SetupBuffer
 2830              	.LVL367:
 357:/Users/imashio/Electronics/ARM/_Library/u8g2_d_setup.c **** }
 2831              		.loc 1 357 0
 2832 002c 05B0     		add	sp, sp, #20
 2833              	.LCFI122:
 2834              		.cfi_def_cfa_offset 12
 2835              		@ sp needed
 2836 002e 30BD     		pop	{r4, r5, pc}
 2837              	.LVL368:
 2838              	.L165:
 2839              		.align	2
 2840              	.L164:
 2841 0030 00000000 		.word	u8x8_d_sh1106_128x64_vcomh0
 2842 0034 00000000 		.word	u8x8_cad_ssd13xx_i2c
 2843 0038 00000000 		.word	u8g2_ll_hvline_vertical_top_lsb
 2844              		.cfi_endproc
 2845              	.LFE40:
 2847              		.section	.text.u8g2_Setup_sh1106_i2c_128x64_winstar_f,"ax",%progbits
 2848              		.align	1
 2849              		.p2align 2,,3
 2850              		.global	u8g2_Setup_sh1106_i2c_128x64_winstar_f
 2851              		.syntax unified
 2852              		.thumb
 2853              		.thumb_func
 2854              		.fpu fpv4-sp-d16
 2856              	u8g2_Setup_sh1106_i2c_128x64_winstar_f:
 2857              	.LFB41:
 358:/Users/imashio/Electronics/ARM/_Library/u8g2_d_setup.c **** void u8g2_Setup_sh1106_i2c_128x64_winstar_f(u8g2_t *u8g2, const u8g2_cb_t *rotation, u8x8_msg_cb by
 359:/Users/imashio/Electronics/ARM/_Library/u8g2_d_setup.c **** {
 2858              		.loc 1 359 0
 2859              		.cfi_startproc
 2860              		@ args = 0, pretend = 0, frame = 8
 2861              		@ frame_needed = 0, uses_anonymous_args = 0
 2862              	.LVL369:
 2863 0000 30B5     		push	{r4, r5, lr}
 2864              	.LCFI123:
 2865              		.cfi_def_cfa_offset 12
 2866              		.cfi_offset 4, -12
 2867              		.cfi_offset 5, -8
 2868              		.cfi_offset 14, -4
 2869 0002 85B0     		sub	sp, sp, #20
 2870              	.LCFI124:
 2871              		.cfi_def_cfa_offset 32
 2872              		.loc 1 359 0
 2873 0004 0D46     		mov	r5, r1
 360:/Users/imashio/Electronics/ARM/_Library/u8g2_d_setup.c ****   uint8_t tile_buf_height;
 361:/Users/imashio/Electronics/ARM/_Library/u8g2_d_setup.c ****   uint8_t *buf;
ARM GAS  /var/folders/v3/wysfpd052nz8jkbx04pk0ym80000gn/T//ccU8HdeZ.s 			page 57


 362:/Users/imashio/Electronics/ARM/_Library/u8g2_d_setup.c ****   u8g2_SetupDisplay(u8g2, u8x8_d_sh1106_128x64_winstar, u8x8_cad_ssd13xx_i2c, byte_cb, gpio_and_del
 2874              		.loc 1 362 0
 2875 0006 0093     		str	r3, [sp]
 2876 0008 0949     		ldr	r1, .L168
 2877              	.LVL370:
 2878 000a 1346     		mov	r3, r2
 2879              	.LVL371:
 2880 000c 094A     		ldr	r2, .L168+4
 2881              	.LVL372:
 359:/Users/imashio/Electronics/ARM/_Library/u8g2_d_setup.c ****   uint8_t tile_buf_height;
 2882              		.loc 1 359 0
 2883 000e 0446     		mov	r4, r0
 2884              		.loc 1 362 0
 2885 0010 FFF7FEFF 		bl	u8x8_Setup
 2886              	.LVL373:
 363:/Users/imashio/Electronics/ARM/_Library/u8g2_d_setup.c ****   buf = u8g2_m_16_8_f(&tile_buf_height);
 2887              		.loc 1 363 0
 2888 0014 0DF10F00 		add	r0, sp, #15
 2889 0018 FFF7FEFF 		bl	u8g2_m_16_8_f
 2890              	.LVL374:
 364:/Users/imashio/Electronics/ARM/_Library/u8g2_d_setup.c ****   u8g2_SetupBuffer(u8g2, buf, tile_buf_height, u8g2_ll_hvline_vertical_top_lsb, rotation);
 2891              		.loc 1 364 0
 2892 001c 9DF80F20 		ldrb	r2, [sp, #15]	@ zero_extendqisi2
 2893 0020 0095     		str	r5, [sp]
 2894 0022 0146     		mov	r1, r0
 2895 0024 044B     		ldr	r3, .L168+8
 2896 0026 2046     		mov	r0, r4
 2897              	.LVL375:
 2898 0028 FFF7FEFF 		bl	u8g2_SetupBuffer
 2899              	.LVL376:
 365:/Users/imashio/Electronics/ARM/_Library/u8g2_d_setup.c **** }
 2900              		.loc 1 365 0
 2901 002c 05B0     		add	sp, sp, #20
 2902              	.LCFI125:
 2903              		.cfi_def_cfa_offset 12
 2904              		@ sp needed
 2905 002e 30BD     		pop	{r4, r5, pc}
 2906              	.LVL377:
 2907              	.L169:
 2908              		.align	2
 2909              	.L168:
 2910 0030 00000000 		.word	u8x8_d_sh1106_128x64_winstar
 2911 0034 00000000 		.word	u8x8_cad_ssd13xx_i2c
 2912 0038 00000000 		.word	u8g2_ll_hvline_vertical_top_lsb
 2913              		.cfi_endproc
 2914              	.LFE41:
 2916              		.section	.text.u8g2_Setup_sh1107_128x64_1,"ax",%progbits
 2917              		.align	1
 2918              		.p2align 2,,3
 2919              		.global	u8g2_Setup_sh1107_128x64_1
 2920              		.syntax unified
 2921              		.thumb
 2922              		.thumb_func
 2923              		.fpu fpv4-sp-d16
 2925              	u8g2_Setup_sh1107_128x64_1:
 2926              	.LFB42:
 366:/Users/imashio/Electronics/ARM/_Library/u8g2_d_setup.c **** /* sh1107 */
ARM GAS  /var/folders/v3/wysfpd052nz8jkbx04pk0ym80000gn/T//ccU8HdeZ.s 			page 58


 367:/Users/imashio/Electronics/ARM/_Library/u8g2_d_setup.c **** /* sh1107 1 */
 368:/Users/imashio/Electronics/ARM/_Library/u8g2_d_setup.c **** void u8g2_Setup_sh1107_128x64_1(u8g2_t *u8g2, const u8g2_cb_t *rotation, u8x8_msg_cb byte_cb, u8x8_
 369:/Users/imashio/Electronics/ARM/_Library/u8g2_d_setup.c **** {
 2927              		.loc 1 369 0
 2928              		.cfi_startproc
 2929              		@ args = 0, pretend = 0, frame = 8
 2930              		@ frame_needed = 0, uses_anonymous_args = 0
 2931              	.LVL378:
 2932 0000 30B5     		push	{r4, r5, lr}
 2933              	.LCFI126:
 2934              		.cfi_def_cfa_offset 12
 2935              		.cfi_offset 4, -12
 2936              		.cfi_offset 5, -8
 2937              		.cfi_offset 14, -4
 2938 0002 85B0     		sub	sp, sp, #20
 2939              	.LCFI127:
 2940              		.cfi_def_cfa_offset 32
 2941              		.loc 1 369 0
 2942 0004 0D46     		mov	r5, r1
 370:/Users/imashio/Electronics/ARM/_Library/u8g2_d_setup.c ****   uint8_t tile_buf_height;
 371:/Users/imashio/Electronics/ARM/_Library/u8g2_d_setup.c ****   uint8_t *buf;
 372:/Users/imashio/Electronics/ARM/_Library/u8g2_d_setup.c ****   u8g2_SetupDisplay(u8g2, u8x8_d_sh1107_128x64, u8x8_cad_001, byte_cb, gpio_and_delay_cb);
 2943              		.loc 1 372 0
 2944 0006 0093     		str	r3, [sp]
 2945 0008 0949     		ldr	r1, .L172
 2946              	.LVL379:
 2947 000a 1346     		mov	r3, r2
 2948              	.LVL380:
 2949 000c 094A     		ldr	r2, .L172+4
 2950              	.LVL381:
 369:/Users/imashio/Electronics/ARM/_Library/u8g2_d_setup.c ****   uint8_t tile_buf_height;
 2951              		.loc 1 369 0
 2952 000e 0446     		mov	r4, r0
 2953              		.loc 1 372 0
 2954 0010 FFF7FEFF 		bl	u8x8_Setup
 2955              	.LVL382:
 373:/Users/imashio/Electronics/ARM/_Library/u8g2_d_setup.c ****   buf = u8g2_m_16_8_1(&tile_buf_height);
 2956              		.loc 1 373 0
 2957 0014 0DF10F00 		add	r0, sp, #15
 2958 0018 FFF7FEFF 		bl	u8g2_m_16_8_1
 2959              	.LVL383:
 374:/Users/imashio/Electronics/ARM/_Library/u8g2_d_setup.c ****   u8g2_SetupBuffer(u8g2, buf, tile_buf_height, u8g2_ll_hvline_vertical_top_lsb, rotation);
 2960              		.loc 1 374 0
 2961 001c 9DF80F20 		ldrb	r2, [sp, #15]	@ zero_extendqisi2
 2962 0020 0095     		str	r5, [sp]
 2963 0022 0146     		mov	r1, r0
 2964 0024 044B     		ldr	r3, .L172+8
 2965 0026 2046     		mov	r0, r4
 2966              	.LVL384:
 2967 0028 FFF7FEFF 		bl	u8g2_SetupBuffer
 2968              	.LVL385:
 375:/Users/imashio/Electronics/ARM/_Library/u8g2_d_setup.c **** }
 2969              		.loc 1 375 0
 2970 002c 05B0     		add	sp, sp, #20
 2971              	.LCFI128:
 2972              		.cfi_def_cfa_offset 12
 2973              		@ sp needed
ARM GAS  /var/folders/v3/wysfpd052nz8jkbx04pk0ym80000gn/T//ccU8HdeZ.s 			page 59


 2974 002e 30BD     		pop	{r4, r5, pc}
 2975              	.LVL386:
 2976              	.L173:
 2977              		.align	2
 2978              	.L172:
 2979 0030 00000000 		.word	u8x8_d_sh1107_128x64
 2980 0034 00000000 		.word	u8x8_cad_001
 2981 0038 00000000 		.word	u8g2_ll_hvline_vertical_top_lsb
 2982              		.cfi_endproc
 2983              	.LFE42:
 2985              		.section	.text.u8g2_Setup_sh1107_128x64_2,"ax",%progbits
 2986              		.align	1
 2987              		.p2align 2,,3
 2988              		.global	u8g2_Setup_sh1107_128x64_2
 2989              		.syntax unified
 2990              		.thumb
 2991              		.thumb_func
 2992              		.fpu fpv4-sp-d16
 2994              	u8g2_Setup_sh1107_128x64_2:
 2995              	.LFB43:
 376:/Users/imashio/Electronics/ARM/_Library/u8g2_d_setup.c **** /* sh1107 2 */
 377:/Users/imashio/Electronics/ARM/_Library/u8g2_d_setup.c **** void u8g2_Setup_sh1107_128x64_2(u8g2_t *u8g2, const u8g2_cb_t *rotation, u8x8_msg_cb byte_cb, u8x8_
 378:/Users/imashio/Electronics/ARM/_Library/u8g2_d_setup.c **** {
 2996              		.loc 1 378 0
 2997              		.cfi_startproc
 2998              		@ args = 0, pretend = 0, frame = 8
 2999              		@ frame_needed = 0, uses_anonymous_args = 0
 3000              	.LVL387:
 3001 0000 30B5     		push	{r4, r5, lr}
 3002              	.LCFI129:
 3003              		.cfi_def_cfa_offset 12
 3004              		.cfi_offset 4, -12
 3005              		.cfi_offset 5, -8
 3006              		.cfi_offset 14, -4
 3007 0002 85B0     		sub	sp, sp, #20
 3008              	.LCFI130:
 3009              		.cfi_def_cfa_offset 32
 3010              		.loc 1 378 0
 3011 0004 0D46     		mov	r5, r1
 379:/Users/imashio/Electronics/ARM/_Library/u8g2_d_setup.c ****   uint8_t tile_buf_height;
 380:/Users/imashio/Electronics/ARM/_Library/u8g2_d_setup.c ****   uint8_t *buf;
 381:/Users/imashio/Electronics/ARM/_Library/u8g2_d_setup.c ****   u8g2_SetupDisplay(u8g2, u8x8_d_sh1107_128x64, u8x8_cad_001, byte_cb, gpio_and_delay_cb);
 3012              		.loc 1 381 0
 3013 0006 0093     		str	r3, [sp]
 3014 0008 0949     		ldr	r1, .L176
 3015              	.LVL388:
 3016 000a 1346     		mov	r3, r2
 3017              	.LVL389:
 3018 000c 094A     		ldr	r2, .L176+4
 3019              	.LVL390:
 378:/Users/imashio/Electronics/ARM/_Library/u8g2_d_setup.c ****   uint8_t tile_buf_height;
 3020              		.loc 1 378 0
 3021 000e 0446     		mov	r4, r0
 3022              		.loc 1 381 0
 3023 0010 FFF7FEFF 		bl	u8x8_Setup
 3024              	.LVL391:
 382:/Users/imashio/Electronics/ARM/_Library/u8g2_d_setup.c ****   buf = u8g2_m_16_8_2(&tile_buf_height);
ARM GAS  /var/folders/v3/wysfpd052nz8jkbx04pk0ym80000gn/T//ccU8HdeZ.s 			page 60


 3025              		.loc 1 382 0
 3026 0014 0DF10F00 		add	r0, sp, #15
 3027 0018 FFF7FEFF 		bl	u8g2_m_16_8_2
 3028              	.LVL392:
 383:/Users/imashio/Electronics/ARM/_Library/u8g2_d_setup.c ****   u8g2_SetupBuffer(u8g2, buf, tile_buf_height, u8g2_ll_hvline_vertical_top_lsb, rotation);
 3029              		.loc 1 383 0
 3030 001c 9DF80F20 		ldrb	r2, [sp, #15]	@ zero_extendqisi2
 3031 0020 0095     		str	r5, [sp]
 3032 0022 0146     		mov	r1, r0
 3033 0024 044B     		ldr	r3, .L176+8
 3034 0026 2046     		mov	r0, r4
 3035              	.LVL393:
 3036 0028 FFF7FEFF 		bl	u8g2_SetupBuffer
 3037              	.LVL394:
 384:/Users/imashio/Electronics/ARM/_Library/u8g2_d_setup.c **** }
 3038              		.loc 1 384 0
 3039 002c 05B0     		add	sp, sp, #20
 3040              	.LCFI131:
 3041              		.cfi_def_cfa_offset 12
 3042              		@ sp needed
 3043 002e 30BD     		pop	{r4, r5, pc}
 3044              	.LVL395:
 3045              	.L177:
 3046              		.align	2
 3047              	.L176:
 3048 0030 00000000 		.word	u8x8_d_sh1107_128x64
 3049 0034 00000000 		.word	u8x8_cad_001
 3050 0038 00000000 		.word	u8g2_ll_hvline_vertical_top_lsb
 3051              		.cfi_endproc
 3052              	.LFE43:
 3054              		.section	.text.u8g2_Setup_sh1107_128x64_f,"ax",%progbits
 3055              		.align	1
 3056              		.p2align 2,,3
 3057              		.global	u8g2_Setup_sh1107_128x64_f
 3058              		.syntax unified
 3059              		.thumb
 3060              		.thumb_func
 3061              		.fpu fpv4-sp-d16
 3063              	u8g2_Setup_sh1107_128x64_f:
 3064              	.LFB44:
 385:/Users/imashio/Electronics/ARM/_Library/u8g2_d_setup.c **** /* sh1107 f */
 386:/Users/imashio/Electronics/ARM/_Library/u8g2_d_setup.c **** void u8g2_Setup_sh1107_128x64_f(u8g2_t *u8g2, const u8g2_cb_t *rotation, u8x8_msg_cb byte_cb, u8x8_
 387:/Users/imashio/Electronics/ARM/_Library/u8g2_d_setup.c **** {
 3065              		.loc 1 387 0
 3066              		.cfi_startproc
 3067              		@ args = 0, pretend = 0, frame = 8
 3068              		@ frame_needed = 0, uses_anonymous_args = 0
 3069              	.LVL396:
 3070 0000 30B5     		push	{r4, r5, lr}
 3071              	.LCFI132:
 3072              		.cfi_def_cfa_offset 12
 3073              		.cfi_offset 4, -12
 3074              		.cfi_offset 5, -8
 3075              		.cfi_offset 14, -4
 3076 0002 85B0     		sub	sp, sp, #20
 3077              	.LCFI133:
 3078              		.cfi_def_cfa_offset 32
ARM GAS  /var/folders/v3/wysfpd052nz8jkbx04pk0ym80000gn/T//ccU8HdeZ.s 			page 61


 3079              		.loc 1 387 0
 3080 0004 0D46     		mov	r5, r1
 388:/Users/imashio/Electronics/ARM/_Library/u8g2_d_setup.c ****   uint8_t tile_buf_height;
 389:/Users/imashio/Electronics/ARM/_Library/u8g2_d_setup.c ****   uint8_t *buf;
 390:/Users/imashio/Electronics/ARM/_Library/u8g2_d_setup.c ****   u8g2_SetupDisplay(u8g2, u8x8_d_sh1107_128x64, u8x8_cad_001, byte_cb, gpio_and_delay_cb);
 3081              		.loc 1 390 0
 3082 0006 0093     		str	r3, [sp]
 3083 0008 0949     		ldr	r1, .L180
 3084              	.LVL397:
 3085 000a 1346     		mov	r3, r2
 3086              	.LVL398:
 3087 000c 094A     		ldr	r2, .L180+4
 3088              	.LVL399:
 387:/Users/imashio/Electronics/ARM/_Library/u8g2_d_setup.c ****   uint8_t tile_buf_height;
 3089              		.loc 1 387 0
 3090 000e 0446     		mov	r4, r0
 3091              		.loc 1 390 0
 3092 0010 FFF7FEFF 		bl	u8x8_Setup
 3093              	.LVL400:
 391:/Users/imashio/Electronics/ARM/_Library/u8g2_d_setup.c ****   buf = u8g2_m_16_8_f(&tile_buf_height);
 3094              		.loc 1 391 0
 3095 0014 0DF10F00 		add	r0, sp, #15
 3096 0018 FFF7FEFF 		bl	u8g2_m_16_8_f
 3097              	.LVL401:
 392:/Users/imashio/Electronics/ARM/_Library/u8g2_d_setup.c ****   u8g2_SetupBuffer(u8g2, buf, tile_buf_height, u8g2_ll_hvline_vertical_top_lsb, rotation);
 3098              		.loc 1 392 0
 3099 001c 9DF80F20 		ldrb	r2, [sp, #15]	@ zero_extendqisi2
 3100 0020 0095     		str	r5, [sp]
 3101 0022 0146     		mov	r1, r0
 3102 0024 044B     		ldr	r3, .L180+8
 3103 0026 2046     		mov	r0, r4
 3104              	.LVL402:
 3105 0028 FFF7FEFF 		bl	u8g2_SetupBuffer
 3106              	.LVL403:
 393:/Users/imashio/Electronics/ARM/_Library/u8g2_d_setup.c **** }
 3107              		.loc 1 393 0
 3108 002c 05B0     		add	sp, sp, #20
 3109              	.LCFI134:
 3110              		.cfi_def_cfa_offset 12
 3111              		@ sp needed
 3112 002e 30BD     		pop	{r4, r5, pc}
 3113              	.LVL404:
 3114              	.L181:
 3115              		.align	2
 3116              	.L180:
 3117 0030 00000000 		.word	u8x8_d_sh1107_128x64
 3118 0034 00000000 		.word	u8x8_cad_001
 3119 0038 00000000 		.word	u8g2_ll_hvline_vertical_top_lsb
 3120              		.cfi_endproc
 3121              	.LFE44:
 3123              		.section	.text.u8g2_Setup_sh1107_i2c_128x64_1,"ax",%progbits
 3124              		.align	1
 3125              		.p2align 2,,3
 3126              		.global	u8g2_Setup_sh1107_i2c_128x64_1
 3127              		.syntax unified
 3128              		.thumb
 3129              		.thumb_func
ARM GAS  /var/folders/v3/wysfpd052nz8jkbx04pk0ym80000gn/T//ccU8HdeZ.s 			page 62


 3130              		.fpu fpv4-sp-d16
 3132              	u8g2_Setup_sh1107_i2c_128x64_1:
 3133              	.LFB45:
 394:/Users/imashio/Electronics/ARM/_Library/u8g2_d_setup.c **** /* sh1107 */
 395:/Users/imashio/Electronics/ARM/_Library/u8g2_d_setup.c **** /* sh1107 1 */
 396:/Users/imashio/Electronics/ARM/_Library/u8g2_d_setup.c **** void u8g2_Setup_sh1107_i2c_128x64_1(u8g2_t *u8g2, const u8g2_cb_t *rotation, u8x8_msg_cb byte_cb, u
 397:/Users/imashio/Electronics/ARM/_Library/u8g2_d_setup.c **** {
 3134              		.loc 1 397 0
 3135              		.cfi_startproc
 3136              		@ args = 0, pretend = 0, frame = 8
 3137              		@ frame_needed = 0, uses_anonymous_args = 0
 3138              	.LVL405:
 3139 0000 30B5     		push	{r4, r5, lr}
 3140              	.LCFI135:
 3141              		.cfi_def_cfa_offset 12
 3142              		.cfi_offset 4, -12
 3143              		.cfi_offset 5, -8
 3144              		.cfi_offset 14, -4
 3145 0002 85B0     		sub	sp, sp, #20
 3146              	.LCFI136:
 3147              		.cfi_def_cfa_offset 32
 3148              		.loc 1 397 0
 3149 0004 0D46     		mov	r5, r1
 398:/Users/imashio/Electronics/ARM/_Library/u8g2_d_setup.c ****   uint8_t tile_buf_height;
 399:/Users/imashio/Electronics/ARM/_Library/u8g2_d_setup.c ****   uint8_t *buf;
 400:/Users/imashio/Electronics/ARM/_Library/u8g2_d_setup.c ****   u8g2_SetupDisplay(u8g2, u8x8_d_sh1107_128x64, u8x8_cad_ssd13xx_i2c, byte_cb, gpio_and_delay_cb);
 3150              		.loc 1 400 0
 3151 0006 0093     		str	r3, [sp]
 3152 0008 0949     		ldr	r1, .L184
 3153              	.LVL406:
 3154 000a 1346     		mov	r3, r2
 3155              	.LVL407:
 3156 000c 094A     		ldr	r2, .L184+4
 3157              	.LVL408:
 397:/Users/imashio/Electronics/ARM/_Library/u8g2_d_setup.c ****   uint8_t tile_buf_height;
 3158              		.loc 1 397 0
 3159 000e 0446     		mov	r4, r0
 3160              		.loc 1 400 0
 3161 0010 FFF7FEFF 		bl	u8x8_Setup
 3162              	.LVL409:
 401:/Users/imashio/Electronics/ARM/_Library/u8g2_d_setup.c ****   buf = u8g2_m_16_8_1(&tile_buf_height);
 3163              		.loc 1 401 0
 3164 0014 0DF10F00 		add	r0, sp, #15
 3165 0018 FFF7FEFF 		bl	u8g2_m_16_8_1
 3166              	.LVL410:
 402:/Users/imashio/Electronics/ARM/_Library/u8g2_d_setup.c ****   u8g2_SetupBuffer(u8g2, buf, tile_buf_height, u8g2_ll_hvline_vertical_top_lsb, rotation);
 3167              		.loc 1 402 0
 3168 001c 9DF80F20 		ldrb	r2, [sp, #15]	@ zero_extendqisi2
 3169 0020 0095     		str	r5, [sp]
 3170 0022 0146     		mov	r1, r0
 3171 0024 044B     		ldr	r3, .L184+8
 3172 0026 2046     		mov	r0, r4
 3173              	.LVL411:
 3174 0028 FFF7FEFF 		bl	u8g2_SetupBuffer
 3175              	.LVL412:
 403:/Users/imashio/Electronics/ARM/_Library/u8g2_d_setup.c **** }
 3176              		.loc 1 403 0
ARM GAS  /var/folders/v3/wysfpd052nz8jkbx04pk0ym80000gn/T//ccU8HdeZ.s 			page 63


 3177 002c 05B0     		add	sp, sp, #20
 3178              	.LCFI137:
 3179              		.cfi_def_cfa_offset 12
 3180              		@ sp needed
 3181 002e 30BD     		pop	{r4, r5, pc}
 3182              	.LVL413:
 3183              	.L185:
 3184              		.align	2
 3185              	.L184:
 3186 0030 00000000 		.word	u8x8_d_sh1107_128x64
 3187 0034 00000000 		.word	u8x8_cad_ssd13xx_i2c
 3188 0038 00000000 		.word	u8g2_ll_hvline_vertical_top_lsb
 3189              		.cfi_endproc
 3190              	.LFE45:
 3192              		.section	.text.u8g2_Setup_sh1107_i2c_128x64_2,"ax",%progbits
 3193              		.align	1
 3194              		.p2align 2,,3
 3195              		.global	u8g2_Setup_sh1107_i2c_128x64_2
 3196              		.syntax unified
 3197              		.thumb
 3198              		.thumb_func
 3199              		.fpu fpv4-sp-d16
 3201              	u8g2_Setup_sh1107_i2c_128x64_2:
 3202              	.LFB46:
 404:/Users/imashio/Electronics/ARM/_Library/u8g2_d_setup.c **** /* sh1107 2 */
 405:/Users/imashio/Electronics/ARM/_Library/u8g2_d_setup.c **** void u8g2_Setup_sh1107_i2c_128x64_2(u8g2_t *u8g2, const u8g2_cb_t *rotation, u8x8_msg_cb byte_cb, u
 406:/Users/imashio/Electronics/ARM/_Library/u8g2_d_setup.c **** {
 3203              		.loc 1 406 0
 3204              		.cfi_startproc
 3205              		@ args = 0, pretend = 0, frame = 8
 3206              		@ frame_needed = 0, uses_anonymous_args = 0
 3207              	.LVL414:
 3208 0000 30B5     		push	{r4, r5, lr}
 3209              	.LCFI138:
 3210              		.cfi_def_cfa_offset 12
 3211              		.cfi_offset 4, -12
 3212              		.cfi_offset 5, -8
 3213              		.cfi_offset 14, -4
 3214 0002 85B0     		sub	sp, sp, #20
 3215              	.LCFI139:
 3216              		.cfi_def_cfa_offset 32
 3217              		.loc 1 406 0
 3218 0004 0D46     		mov	r5, r1
 407:/Users/imashio/Electronics/ARM/_Library/u8g2_d_setup.c ****   uint8_t tile_buf_height;
 408:/Users/imashio/Electronics/ARM/_Library/u8g2_d_setup.c ****   uint8_t *buf;
 409:/Users/imashio/Electronics/ARM/_Library/u8g2_d_setup.c ****   u8g2_SetupDisplay(u8g2, u8x8_d_sh1107_128x64, u8x8_cad_ssd13xx_i2c, byte_cb, gpio_and_delay_cb);
 3219              		.loc 1 409 0
 3220 0006 0093     		str	r3, [sp]
 3221 0008 0949     		ldr	r1, .L188
 3222              	.LVL415:
 3223 000a 1346     		mov	r3, r2
 3224              	.LVL416:
 3225 000c 094A     		ldr	r2, .L188+4
 3226              	.LVL417:
 406:/Users/imashio/Electronics/ARM/_Library/u8g2_d_setup.c ****   uint8_t tile_buf_height;
 3227              		.loc 1 406 0
 3228 000e 0446     		mov	r4, r0
ARM GAS  /var/folders/v3/wysfpd052nz8jkbx04pk0ym80000gn/T//ccU8HdeZ.s 			page 64


 3229              		.loc 1 409 0
 3230 0010 FFF7FEFF 		bl	u8x8_Setup
 3231              	.LVL418:
 410:/Users/imashio/Electronics/ARM/_Library/u8g2_d_setup.c ****   buf = u8g2_m_16_8_2(&tile_buf_height);
 3232              		.loc 1 410 0
 3233 0014 0DF10F00 		add	r0, sp, #15
 3234 0018 FFF7FEFF 		bl	u8g2_m_16_8_2
 3235              	.LVL419:
 411:/Users/imashio/Electronics/ARM/_Library/u8g2_d_setup.c ****   u8g2_SetupBuffer(u8g2, buf, tile_buf_height, u8g2_ll_hvline_vertical_top_lsb, rotation);
 3236              		.loc 1 411 0
 3237 001c 9DF80F20 		ldrb	r2, [sp, #15]	@ zero_extendqisi2
 3238 0020 0095     		str	r5, [sp]
 3239 0022 0146     		mov	r1, r0
 3240 0024 044B     		ldr	r3, .L188+8
 3241 0026 2046     		mov	r0, r4
 3242              	.LVL420:
 3243 0028 FFF7FEFF 		bl	u8g2_SetupBuffer
 3244              	.LVL421:
 412:/Users/imashio/Electronics/ARM/_Library/u8g2_d_setup.c **** }
 3245              		.loc 1 412 0
 3246 002c 05B0     		add	sp, sp, #20
 3247              	.LCFI140:
 3248              		.cfi_def_cfa_offset 12
 3249              		@ sp needed
 3250 002e 30BD     		pop	{r4, r5, pc}
 3251              	.LVL422:
 3252              	.L189:
 3253              		.align	2
 3254              	.L188:
 3255 0030 00000000 		.word	u8x8_d_sh1107_128x64
 3256 0034 00000000 		.word	u8x8_cad_ssd13xx_i2c
 3257 0038 00000000 		.word	u8g2_ll_hvline_vertical_top_lsb
 3258              		.cfi_endproc
 3259              	.LFE46:
 3261              		.section	.text.u8g2_Setup_sh1107_i2c_128x64_f,"ax",%progbits
 3262              		.align	1
 3263              		.p2align 2,,3
 3264              		.global	u8g2_Setup_sh1107_i2c_128x64_f
 3265              		.syntax unified
 3266              		.thumb
 3267              		.thumb_func
 3268              		.fpu fpv4-sp-d16
 3270              	u8g2_Setup_sh1107_i2c_128x64_f:
 3271              	.LFB47:
 413:/Users/imashio/Electronics/ARM/_Library/u8g2_d_setup.c **** /* sh1107 f */
 414:/Users/imashio/Electronics/ARM/_Library/u8g2_d_setup.c **** void u8g2_Setup_sh1107_i2c_128x64_f(u8g2_t *u8g2, const u8g2_cb_t *rotation, u8x8_msg_cb byte_cb, u
 415:/Users/imashio/Electronics/ARM/_Library/u8g2_d_setup.c **** {
 3272              		.loc 1 415 0
 3273              		.cfi_startproc
 3274              		@ args = 0, pretend = 0, frame = 8
 3275              		@ frame_needed = 0, uses_anonymous_args = 0
 3276              	.LVL423:
 3277 0000 30B5     		push	{r4, r5, lr}
 3278              	.LCFI141:
 3279              		.cfi_def_cfa_offset 12
 3280              		.cfi_offset 4, -12
 3281              		.cfi_offset 5, -8
ARM GAS  /var/folders/v3/wysfpd052nz8jkbx04pk0ym80000gn/T//ccU8HdeZ.s 			page 65


 3282              		.cfi_offset 14, -4
 3283 0002 85B0     		sub	sp, sp, #20
 3284              	.LCFI142:
 3285              		.cfi_def_cfa_offset 32
 3286              		.loc 1 415 0
 3287 0004 0D46     		mov	r5, r1
 416:/Users/imashio/Electronics/ARM/_Library/u8g2_d_setup.c ****   uint8_t tile_buf_height;
 417:/Users/imashio/Electronics/ARM/_Library/u8g2_d_setup.c ****   uint8_t *buf;
 418:/Users/imashio/Electronics/ARM/_Library/u8g2_d_setup.c ****   u8g2_SetupDisplay(u8g2, u8x8_d_sh1107_128x64, u8x8_cad_ssd13xx_i2c, byte_cb, gpio_and_delay_cb);
 3288              		.loc 1 418 0
 3289 0006 0093     		str	r3, [sp]
 3290 0008 0949     		ldr	r1, .L192
 3291              	.LVL424:
 3292 000a 1346     		mov	r3, r2
 3293              	.LVL425:
 3294 000c 094A     		ldr	r2, .L192+4
 3295              	.LVL426:
 415:/Users/imashio/Electronics/ARM/_Library/u8g2_d_setup.c ****   uint8_t tile_buf_height;
 3296              		.loc 1 415 0
 3297 000e 0446     		mov	r4, r0
 3298              		.loc 1 418 0
 3299 0010 FFF7FEFF 		bl	u8x8_Setup
 3300              	.LVL427:
 419:/Users/imashio/Electronics/ARM/_Library/u8g2_d_setup.c ****   buf = u8g2_m_16_8_f(&tile_buf_height);
 3301              		.loc 1 419 0
 3302 0014 0DF10F00 		add	r0, sp, #15
 3303 0018 FFF7FEFF 		bl	u8g2_m_16_8_f
 3304              	.LVL428:
 420:/Users/imashio/Electronics/ARM/_Library/u8g2_d_setup.c ****   u8g2_SetupBuffer(u8g2, buf, tile_buf_height, u8g2_ll_hvline_vertical_top_lsb, rotation);
 3305              		.loc 1 420 0
 3306 001c 9DF80F20 		ldrb	r2, [sp, #15]	@ zero_extendqisi2
 3307 0020 0095     		str	r5, [sp]
 3308 0022 0146     		mov	r1, r0
 3309 0024 044B     		ldr	r3, .L192+8
 3310 0026 2046     		mov	r0, r4
 3311              	.LVL429:
 3312 0028 FFF7FEFF 		bl	u8g2_SetupBuffer
 3313              	.LVL430:
 421:/Users/imashio/Electronics/ARM/_Library/u8g2_d_setup.c **** }
 3314              		.loc 1 421 0
 3315 002c 05B0     		add	sp, sp, #20
 3316              	.LCFI143:
 3317              		.cfi_def_cfa_offset 12
 3318              		@ sp needed
 3319 002e 30BD     		pop	{r4, r5, pc}
 3320              	.LVL431:
 3321              	.L193:
 3322              		.align	2
 3323              	.L192:
 3324 0030 00000000 		.word	u8x8_d_sh1107_128x64
 3325 0034 00000000 		.word	u8x8_cad_ssd13xx_i2c
 3326 0038 00000000 		.word	u8g2_ll_hvline_vertical_top_lsb
 3327              		.cfi_endproc
 3328              	.LFE47:
 3330              		.section	.text.u8g2_Setup_sh1107_seeed_96x96_1,"ax",%progbits
 3331              		.align	1
 3332              		.p2align 2,,3
ARM GAS  /var/folders/v3/wysfpd052nz8jkbx04pk0ym80000gn/T//ccU8HdeZ.s 			page 66


 3333              		.global	u8g2_Setup_sh1107_seeed_96x96_1
 3334              		.syntax unified
 3335              		.thumb
 3336              		.thumb_func
 3337              		.fpu fpv4-sp-d16
 3339              	u8g2_Setup_sh1107_seeed_96x96_1:
 3340              	.LFB48:
 422:/Users/imashio/Electronics/ARM/_Library/u8g2_d_setup.c **** /* sh1107 */
 423:/Users/imashio/Electronics/ARM/_Library/u8g2_d_setup.c **** /* sh1107 1 */
 424:/Users/imashio/Electronics/ARM/_Library/u8g2_d_setup.c **** void u8g2_Setup_sh1107_seeed_96x96_1(u8g2_t *u8g2, const u8g2_cb_t *rotation, u8x8_msg_cb byte_cb, 
 425:/Users/imashio/Electronics/ARM/_Library/u8g2_d_setup.c **** {
 3341              		.loc 1 425 0
 3342              		.cfi_startproc
 3343              		@ args = 0, pretend = 0, frame = 8
 3344              		@ frame_needed = 0, uses_anonymous_args = 0
 3345              	.LVL432:
 3346 0000 30B5     		push	{r4, r5, lr}
 3347              	.LCFI144:
 3348              		.cfi_def_cfa_offset 12
 3349              		.cfi_offset 4, -12
 3350              		.cfi_offset 5, -8
 3351              		.cfi_offset 14, -4
 3352 0002 85B0     		sub	sp, sp, #20
 3353              	.LCFI145:
 3354              		.cfi_def_cfa_offset 32
 3355              		.loc 1 425 0
 3356 0004 0D46     		mov	r5, r1
 426:/Users/imashio/Electronics/ARM/_Library/u8g2_d_setup.c ****   uint8_t tile_buf_height;
 427:/Users/imashio/Electronics/ARM/_Library/u8g2_d_setup.c ****   uint8_t *buf;
 428:/Users/imashio/Electronics/ARM/_Library/u8g2_d_setup.c ****   u8g2_SetupDisplay(u8g2, u8x8_d_sh1107_seeed_96x96, u8x8_cad_001, byte_cb, gpio_and_delay_cb);
 3357              		.loc 1 428 0
 3358 0006 0093     		str	r3, [sp]
 3359 0008 0949     		ldr	r1, .L196
 3360              	.LVL433:
 3361 000a 1346     		mov	r3, r2
 3362              	.LVL434:
 3363 000c 094A     		ldr	r2, .L196+4
 3364              	.LVL435:
 425:/Users/imashio/Electronics/ARM/_Library/u8g2_d_setup.c ****   uint8_t tile_buf_height;
 3365              		.loc 1 425 0
 3366 000e 0446     		mov	r4, r0
 3367              		.loc 1 428 0
 3368 0010 FFF7FEFF 		bl	u8x8_Setup
 3369              	.LVL436:
 429:/Users/imashio/Electronics/ARM/_Library/u8g2_d_setup.c ****   buf = u8g2_m_12_12_1(&tile_buf_height);
 3370              		.loc 1 429 0
 3371 0014 0DF10F00 		add	r0, sp, #15
 3372 0018 FFF7FEFF 		bl	u8g2_m_12_12_1
 3373              	.LVL437:
 430:/Users/imashio/Electronics/ARM/_Library/u8g2_d_setup.c ****   u8g2_SetupBuffer(u8g2, buf, tile_buf_height, u8g2_ll_hvline_vertical_top_lsb, rotation);
 3374              		.loc 1 430 0
 3375 001c 9DF80F20 		ldrb	r2, [sp, #15]	@ zero_extendqisi2
 3376 0020 0095     		str	r5, [sp]
 3377 0022 0146     		mov	r1, r0
 3378 0024 044B     		ldr	r3, .L196+8
 3379 0026 2046     		mov	r0, r4
 3380              	.LVL438:
ARM GAS  /var/folders/v3/wysfpd052nz8jkbx04pk0ym80000gn/T//ccU8HdeZ.s 			page 67


 3381 0028 FFF7FEFF 		bl	u8g2_SetupBuffer
 3382              	.LVL439:
 431:/Users/imashio/Electronics/ARM/_Library/u8g2_d_setup.c **** }
 3383              		.loc 1 431 0
 3384 002c 05B0     		add	sp, sp, #20
 3385              	.LCFI146:
 3386              		.cfi_def_cfa_offset 12
 3387              		@ sp needed
 3388 002e 30BD     		pop	{r4, r5, pc}
 3389              	.LVL440:
 3390              	.L197:
 3391              		.align	2
 3392              	.L196:
 3393 0030 00000000 		.word	u8x8_d_sh1107_seeed_96x96
 3394 0034 00000000 		.word	u8x8_cad_001
 3395 0038 00000000 		.word	u8g2_ll_hvline_vertical_top_lsb
 3396              		.cfi_endproc
 3397              	.LFE48:
 3399              		.section	.text.u8g2_Setup_sh1107_seeed_96x96_2,"ax",%progbits
 3400              		.align	1
 3401              		.p2align 2,,3
 3402              		.global	u8g2_Setup_sh1107_seeed_96x96_2
 3403              		.syntax unified
 3404              		.thumb
 3405              		.thumb_func
 3406              		.fpu fpv4-sp-d16
 3408              	u8g2_Setup_sh1107_seeed_96x96_2:
 3409              	.LFB49:
 432:/Users/imashio/Electronics/ARM/_Library/u8g2_d_setup.c **** /* sh1107 2 */
 433:/Users/imashio/Electronics/ARM/_Library/u8g2_d_setup.c **** void u8g2_Setup_sh1107_seeed_96x96_2(u8g2_t *u8g2, const u8g2_cb_t *rotation, u8x8_msg_cb byte_cb, 
 434:/Users/imashio/Electronics/ARM/_Library/u8g2_d_setup.c **** {
 3410              		.loc 1 434 0
 3411              		.cfi_startproc
 3412              		@ args = 0, pretend = 0, frame = 8
 3413              		@ frame_needed = 0, uses_anonymous_args = 0
 3414              	.LVL441:
 3415 0000 30B5     		push	{r4, r5, lr}
 3416              	.LCFI147:
 3417              		.cfi_def_cfa_offset 12
 3418              		.cfi_offset 4, -12
 3419              		.cfi_offset 5, -8
 3420              		.cfi_offset 14, -4
 3421 0002 85B0     		sub	sp, sp, #20
 3422              	.LCFI148:
 3423              		.cfi_def_cfa_offset 32
 3424              		.loc 1 434 0
 3425 0004 0D46     		mov	r5, r1
 435:/Users/imashio/Electronics/ARM/_Library/u8g2_d_setup.c ****   uint8_t tile_buf_height;
 436:/Users/imashio/Electronics/ARM/_Library/u8g2_d_setup.c ****   uint8_t *buf;
 437:/Users/imashio/Electronics/ARM/_Library/u8g2_d_setup.c ****   u8g2_SetupDisplay(u8g2, u8x8_d_sh1107_seeed_96x96, u8x8_cad_001, byte_cb, gpio_and_delay_cb);
 3426              		.loc 1 437 0
 3427 0006 0093     		str	r3, [sp]
 3428 0008 0949     		ldr	r1, .L200
 3429              	.LVL442:
 3430 000a 1346     		mov	r3, r2
 3431              	.LVL443:
 3432 000c 094A     		ldr	r2, .L200+4
ARM GAS  /var/folders/v3/wysfpd052nz8jkbx04pk0ym80000gn/T//ccU8HdeZ.s 			page 68


 3433              	.LVL444:
 434:/Users/imashio/Electronics/ARM/_Library/u8g2_d_setup.c ****   uint8_t tile_buf_height;
 3434              		.loc 1 434 0
 3435 000e 0446     		mov	r4, r0
 3436              		.loc 1 437 0
 3437 0010 FFF7FEFF 		bl	u8x8_Setup
 3438              	.LVL445:
 438:/Users/imashio/Electronics/ARM/_Library/u8g2_d_setup.c ****   buf = u8g2_m_12_12_2(&tile_buf_height);
 3439              		.loc 1 438 0
 3440 0014 0DF10F00 		add	r0, sp, #15
 3441 0018 FFF7FEFF 		bl	u8g2_m_12_12_2
 3442              	.LVL446:
 439:/Users/imashio/Electronics/ARM/_Library/u8g2_d_setup.c ****   u8g2_SetupBuffer(u8g2, buf, tile_buf_height, u8g2_ll_hvline_vertical_top_lsb, rotation);
 3443              		.loc 1 439 0
 3444 001c 9DF80F20 		ldrb	r2, [sp, #15]	@ zero_extendqisi2
 3445 0020 0095     		str	r5, [sp]
 3446 0022 0146     		mov	r1, r0
 3447 0024 044B     		ldr	r3, .L200+8
 3448 0026 2046     		mov	r0, r4
 3449              	.LVL447:
 3450 0028 FFF7FEFF 		bl	u8g2_SetupBuffer
 3451              	.LVL448:
 440:/Users/imashio/Electronics/ARM/_Library/u8g2_d_setup.c **** }
 3452              		.loc 1 440 0
 3453 002c 05B0     		add	sp, sp, #20
 3454              	.LCFI149:
 3455              		.cfi_def_cfa_offset 12
 3456              		@ sp needed
 3457 002e 30BD     		pop	{r4, r5, pc}
 3458              	.LVL449:
 3459              	.L201:
 3460              		.align	2
 3461              	.L200:
 3462 0030 00000000 		.word	u8x8_d_sh1107_seeed_96x96
 3463 0034 00000000 		.word	u8x8_cad_001
 3464 0038 00000000 		.word	u8g2_ll_hvline_vertical_top_lsb
 3465              		.cfi_endproc
 3466              	.LFE49:
 3468              		.section	.text.u8g2_Setup_sh1107_seeed_96x96_f,"ax",%progbits
 3469              		.align	1
 3470              		.p2align 2,,3
 3471              		.global	u8g2_Setup_sh1107_seeed_96x96_f
 3472              		.syntax unified
 3473              		.thumb
 3474              		.thumb_func
 3475              		.fpu fpv4-sp-d16
 3477              	u8g2_Setup_sh1107_seeed_96x96_f:
 3478              	.LFB50:
 441:/Users/imashio/Electronics/ARM/_Library/u8g2_d_setup.c **** /* sh1107 f */
 442:/Users/imashio/Electronics/ARM/_Library/u8g2_d_setup.c **** void u8g2_Setup_sh1107_seeed_96x96_f(u8g2_t *u8g2, const u8g2_cb_t *rotation, u8x8_msg_cb byte_cb, 
 443:/Users/imashio/Electronics/ARM/_Library/u8g2_d_setup.c **** {
 3479              		.loc 1 443 0
 3480              		.cfi_startproc
 3481              		@ args = 0, pretend = 0, frame = 8
 3482              		@ frame_needed = 0, uses_anonymous_args = 0
 3483              	.LVL450:
 3484 0000 30B5     		push	{r4, r5, lr}
ARM GAS  /var/folders/v3/wysfpd052nz8jkbx04pk0ym80000gn/T//ccU8HdeZ.s 			page 69


 3485              	.LCFI150:
 3486              		.cfi_def_cfa_offset 12
 3487              		.cfi_offset 4, -12
 3488              		.cfi_offset 5, -8
 3489              		.cfi_offset 14, -4
 3490 0002 85B0     		sub	sp, sp, #20
 3491              	.LCFI151:
 3492              		.cfi_def_cfa_offset 32
 3493              		.loc 1 443 0
 3494 0004 0D46     		mov	r5, r1
 444:/Users/imashio/Electronics/ARM/_Library/u8g2_d_setup.c ****   uint8_t tile_buf_height;
 445:/Users/imashio/Electronics/ARM/_Library/u8g2_d_setup.c ****   uint8_t *buf;
 446:/Users/imashio/Electronics/ARM/_Library/u8g2_d_setup.c ****   u8g2_SetupDisplay(u8g2, u8x8_d_sh1107_seeed_96x96, u8x8_cad_001, byte_cb, gpio_and_delay_cb);
 3495              		.loc 1 446 0
 3496 0006 0093     		str	r3, [sp]
 3497 0008 0949     		ldr	r1, .L204
 3498              	.LVL451:
 3499 000a 1346     		mov	r3, r2
 3500              	.LVL452:
 3501 000c 094A     		ldr	r2, .L204+4
 3502              	.LVL453:
 443:/Users/imashio/Electronics/ARM/_Library/u8g2_d_setup.c ****   uint8_t tile_buf_height;
 3503              		.loc 1 443 0
 3504 000e 0446     		mov	r4, r0
 3505              		.loc 1 446 0
 3506 0010 FFF7FEFF 		bl	u8x8_Setup
 3507              	.LVL454:
 447:/Users/imashio/Electronics/ARM/_Library/u8g2_d_setup.c ****   buf = u8g2_m_12_12_f(&tile_buf_height);
 3508              		.loc 1 447 0
 3509 0014 0DF10F00 		add	r0, sp, #15
 3510 0018 FFF7FEFF 		bl	u8g2_m_12_12_f
 3511              	.LVL455:
 448:/Users/imashio/Electronics/ARM/_Library/u8g2_d_setup.c ****   u8g2_SetupBuffer(u8g2, buf, tile_buf_height, u8g2_ll_hvline_vertical_top_lsb, rotation);
 3512              		.loc 1 448 0
 3513 001c 9DF80F20 		ldrb	r2, [sp, #15]	@ zero_extendqisi2
 3514 0020 0095     		str	r5, [sp]
 3515 0022 0146     		mov	r1, r0
 3516 0024 044B     		ldr	r3, .L204+8
 3517 0026 2046     		mov	r0, r4
 3518              	.LVL456:
 3519 0028 FFF7FEFF 		bl	u8g2_SetupBuffer
 3520              	.LVL457:
 449:/Users/imashio/Electronics/ARM/_Library/u8g2_d_setup.c **** }
 3521              		.loc 1 449 0
 3522 002c 05B0     		add	sp, sp, #20
 3523              	.LCFI152:
 3524              		.cfi_def_cfa_offset 12
 3525              		@ sp needed
 3526 002e 30BD     		pop	{r4, r5, pc}
 3527              	.LVL458:
 3528              	.L205:
 3529              		.align	2
 3530              	.L204:
 3531 0030 00000000 		.word	u8x8_d_sh1107_seeed_96x96
 3532 0034 00000000 		.word	u8x8_cad_001
 3533 0038 00000000 		.word	u8g2_ll_hvline_vertical_top_lsb
 3534              		.cfi_endproc
ARM GAS  /var/folders/v3/wysfpd052nz8jkbx04pk0ym80000gn/T//ccU8HdeZ.s 			page 70


 3535              	.LFE50:
 3537              		.section	.text.u8g2_Setup_sh1107_i2c_seeed_96x96_1,"ax",%progbits
 3538              		.align	1
 3539              		.p2align 2,,3
 3540              		.global	u8g2_Setup_sh1107_i2c_seeed_96x96_1
 3541              		.syntax unified
 3542              		.thumb
 3543              		.thumb_func
 3544              		.fpu fpv4-sp-d16
 3546              	u8g2_Setup_sh1107_i2c_seeed_96x96_1:
 3547              	.LFB51:
 450:/Users/imashio/Electronics/ARM/_Library/u8g2_d_setup.c **** /* sh1107 */
 451:/Users/imashio/Electronics/ARM/_Library/u8g2_d_setup.c **** /* sh1107 1 */
 452:/Users/imashio/Electronics/ARM/_Library/u8g2_d_setup.c **** void u8g2_Setup_sh1107_i2c_seeed_96x96_1(u8g2_t *u8g2, const u8g2_cb_t *rotation, u8x8_msg_cb byte_
 453:/Users/imashio/Electronics/ARM/_Library/u8g2_d_setup.c **** {
 3548              		.loc 1 453 0
 3549              		.cfi_startproc
 3550              		@ args = 0, pretend = 0, frame = 8
 3551              		@ frame_needed = 0, uses_anonymous_args = 0
 3552              	.LVL459:
 3553 0000 30B5     		push	{r4, r5, lr}
 3554              	.LCFI153:
 3555              		.cfi_def_cfa_offset 12
 3556              		.cfi_offset 4, -12
 3557              		.cfi_offset 5, -8
 3558              		.cfi_offset 14, -4
 3559 0002 85B0     		sub	sp, sp, #20
 3560              	.LCFI154:
 3561              		.cfi_def_cfa_offset 32
 3562              		.loc 1 453 0
 3563 0004 0D46     		mov	r5, r1
 454:/Users/imashio/Electronics/ARM/_Library/u8g2_d_setup.c ****   uint8_t tile_buf_height;
 455:/Users/imashio/Electronics/ARM/_Library/u8g2_d_setup.c ****   uint8_t *buf;
 456:/Users/imashio/Electronics/ARM/_Library/u8g2_d_setup.c ****   u8g2_SetupDisplay(u8g2, u8x8_d_sh1107_seeed_96x96, u8x8_cad_ssd13xx_i2c, byte_cb, gpio_and_delay_
 3564              		.loc 1 456 0
 3565 0006 0093     		str	r3, [sp]
 3566 0008 0949     		ldr	r1, .L208
 3567              	.LVL460:
 3568 000a 1346     		mov	r3, r2
 3569              	.LVL461:
 3570 000c 094A     		ldr	r2, .L208+4
 3571              	.LVL462:
 453:/Users/imashio/Electronics/ARM/_Library/u8g2_d_setup.c ****   uint8_t tile_buf_height;
 3572              		.loc 1 453 0
 3573 000e 0446     		mov	r4, r0
 3574              		.loc 1 456 0
 3575 0010 FFF7FEFF 		bl	u8x8_Setup
 3576              	.LVL463:
 457:/Users/imashio/Electronics/ARM/_Library/u8g2_d_setup.c ****   buf = u8g2_m_12_12_1(&tile_buf_height);
 3577              		.loc 1 457 0
 3578 0014 0DF10F00 		add	r0, sp, #15
 3579 0018 FFF7FEFF 		bl	u8g2_m_12_12_1
 3580              	.LVL464:
 458:/Users/imashio/Electronics/ARM/_Library/u8g2_d_setup.c ****   u8g2_SetupBuffer(u8g2, buf, tile_buf_height, u8g2_ll_hvline_vertical_top_lsb, rotation);
 3581              		.loc 1 458 0
 3582 001c 9DF80F20 		ldrb	r2, [sp, #15]	@ zero_extendqisi2
 3583 0020 0095     		str	r5, [sp]
ARM GAS  /var/folders/v3/wysfpd052nz8jkbx04pk0ym80000gn/T//ccU8HdeZ.s 			page 71


 3584 0022 0146     		mov	r1, r0
 3585 0024 044B     		ldr	r3, .L208+8
 3586 0026 2046     		mov	r0, r4
 3587              	.LVL465:
 3588 0028 FFF7FEFF 		bl	u8g2_SetupBuffer
 3589              	.LVL466:
 459:/Users/imashio/Electronics/ARM/_Library/u8g2_d_setup.c **** }
 3590              		.loc 1 459 0
 3591 002c 05B0     		add	sp, sp, #20
 3592              	.LCFI155:
 3593              		.cfi_def_cfa_offset 12
 3594              		@ sp needed
 3595 002e 30BD     		pop	{r4, r5, pc}
 3596              	.LVL467:
 3597              	.L209:
 3598              		.align	2
 3599              	.L208:
 3600 0030 00000000 		.word	u8x8_d_sh1107_seeed_96x96
 3601 0034 00000000 		.word	u8x8_cad_ssd13xx_i2c
 3602 0038 00000000 		.word	u8g2_ll_hvline_vertical_top_lsb
 3603              		.cfi_endproc
 3604              	.LFE51:
 3606              		.section	.text.u8g2_Setup_sh1107_i2c_seeed_96x96_2,"ax",%progbits
 3607              		.align	1
 3608              		.p2align 2,,3
 3609              		.global	u8g2_Setup_sh1107_i2c_seeed_96x96_2
 3610              		.syntax unified
 3611              		.thumb
 3612              		.thumb_func
 3613              		.fpu fpv4-sp-d16
 3615              	u8g2_Setup_sh1107_i2c_seeed_96x96_2:
 3616              	.LFB52:
 460:/Users/imashio/Electronics/ARM/_Library/u8g2_d_setup.c **** /* sh1107 2 */
 461:/Users/imashio/Electronics/ARM/_Library/u8g2_d_setup.c **** void u8g2_Setup_sh1107_i2c_seeed_96x96_2(u8g2_t *u8g2, const u8g2_cb_t *rotation, u8x8_msg_cb byte_
 462:/Users/imashio/Electronics/ARM/_Library/u8g2_d_setup.c **** {
 3617              		.loc 1 462 0
 3618              		.cfi_startproc
 3619              		@ args = 0, pretend = 0, frame = 8
 3620              		@ frame_needed = 0, uses_anonymous_args = 0
 3621              	.LVL468:
 3622 0000 30B5     		push	{r4, r5, lr}
 3623              	.LCFI156:
 3624              		.cfi_def_cfa_offset 12
 3625              		.cfi_offset 4, -12
 3626              		.cfi_offset 5, -8
 3627              		.cfi_offset 14, -4
 3628 0002 85B0     		sub	sp, sp, #20
 3629              	.LCFI157:
 3630              		.cfi_def_cfa_offset 32
 3631              		.loc 1 462 0
 3632 0004 0D46     		mov	r5, r1
 463:/Users/imashio/Electronics/ARM/_Library/u8g2_d_setup.c ****   uint8_t tile_buf_height;
 464:/Users/imashio/Electronics/ARM/_Library/u8g2_d_setup.c ****   uint8_t *buf;
 465:/Users/imashio/Electronics/ARM/_Library/u8g2_d_setup.c ****   u8g2_SetupDisplay(u8g2, u8x8_d_sh1107_seeed_96x96, u8x8_cad_ssd13xx_i2c, byte_cb, gpio_and_delay_
 3633              		.loc 1 465 0
 3634 0006 0093     		str	r3, [sp]
 3635 0008 0949     		ldr	r1, .L212
ARM GAS  /var/folders/v3/wysfpd052nz8jkbx04pk0ym80000gn/T//ccU8HdeZ.s 			page 72


 3636              	.LVL469:
 3637 000a 1346     		mov	r3, r2
 3638              	.LVL470:
 3639 000c 094A     		ldr	r2, .L212+4
 3640              	.LVL471:
 462:/Users/imashio/Electronics/ARM/_Library/u8g2_d_setup.c ****   uint8_t tile_buf_height;
 3641              		.loc 1 462 0
 3642 000e 0446     		mov	r4, r0
 3643              		.loc 1 465 0
 3644 0010 FFF7FEFF 		bl	u8x8_Setup
 3645              	.LVL472:
 466:/Users/imashio/Electronics/ARM/_Library/u8g2_d_setup.c ****   buf = u8g2_m_12_12_2(&tile_buf_height);
 3646              		.loc 1 466 0
 3647 0014 0DF10F00 		add	r0, sp, #15
 3648 0018 FFF7FEFF 		bl	u8g2_m_12_12_2
 3649              	.LVL473:
 467:/Users/imashio/Electronics/ARM/_Library/u8g2_d_setup.c ****   u8g2_SetupBuffer(u8g2, buf, tile_buf_height, u8g2_ll_hvline_vertical_top_lsb, rotation);
 3650              		.loc 1 467 0
 3651 001c 9DF80F20 		ldrb	r2, [sp, #15]	@ zero_extendqisi2
 3652 0020 0095     		str	r5, [sp]
 3653 0022 0146     		mov	r1, r0
 3654 0024 044B     		ldr	r3, .L212+8
 3655 0026 2046     		mov	r0, r4
 3656              	.LVL474:
 3657 0028 FFF7FEFF 		bl	u8g2_SetupBuffer
 3658              	.LVL475:
 468:/Users/imashio/Electronics/ARM/_Library/u8g2_d_setup.c **** }
 3659              		.loc 1 468 0
 3660 002c 05B0     		add	sp, sp, #20
 3661              	.LCFI158:
 3662              		.cfi_def_cfa_offset 12
 3663              		@ sp needed
 3664 002e 30BD     		pop	{r4, r5, pc}
 3665              	.LVL476:
 3666              	.L213:
 3667              		.align	2
 3668              	.L212:
 3669 0030 00000000 		.word	u8x8_d_sh1107_seeed_96x96
 3670 0034 00000000 		.word	u8x8_cad_ssd13xx_i2c
 3671 0038 00000000 		.word	u8g2_ll_hvline_vertical_top_lsb
 3672              		.cfi_endproc
 3673              	.LFE52:
 3675              		.section	.text.u8g2_Setup_sh1107_i2c_seeed_96x96_f,"ax",%progbits
 3676              		.align	1
 3677              		.p2align 2,,3
 3678              		.global	u8g2_Setup_sh1107_i2c_seeed_96x96_f
 3679              		.syntax unified
 3680              		.thumb
 3681              		.thumb_func
 3682              		.fpu fpv4-sp-d16
 3684              	u8g2_Setup_sh1107_i2c_seeed_96x96_f:
 3685              	.LFB53:
 469:/Users/imashio/Electronics/ARM/_Library/u8g2_d_setup.c **** /* sh1107 f */
 470:/Users/imashio/Electronics/ARM/_Library/u8g2_d_setup.c **** void u8g2_Setup_sh1107_i2c_seeed_96x96_f(u8g2_t *u8g2, const u8g2_cb_t *rotation, u8x8_msg_cb byte_
 471:/Users/imashio/Electronics/ARM/_Library/u8g2_d_setup.c **** {
 3686              		.loc 1 471 0
 3687              		.cfi_startproc
ARM GAS  /var/folders/v3/wysfpd052nz8jkbx04pk0ym80000gn/T//ccU8HdeZ.s 			page 73


 3688              		@ args = 0, pretend = 0, frame = 8
 3689              		@ frame_needed = 0, uses_anonymous_args = 0
 3690              	.LVL477:
 3691 0000 30B5     		push	{r4, r5, lr}
 3692              	.LCFI159:
 3693              		.cfi_def_cfa_offset 12
 3694              		.cfi_offset 4, -12
 3695              		.cfi_offset 5, -8
 3696              		.cfi_offset 14, -4
 3697 0002 85B0     		sub	sp, sp, #20
 3698              	.LCFI160:
 3699              		.cfi_def_cfa_offset 32
 3700              		.loc 1 471 0
 3701 0004 0D46     		mov	r5, r1
 472:/Users/imashio/Electronics/ARM/_Library/u8g2_d_setup.c ****   uint8_t tile_buf_height;
 473:/Users/imashio/Electronics/ARM/_Library/u8g2_d_setup.c ****   uint8_t *buf;
 474:/Users/imashio/Electronics/ARM/_Library/u8g2_d_setup.c ****   u8g2_SetupDisplay(u8g2, u8x8_d_sh1107_seeed_96x96, u8x8_cad_ssd13xx_i2c, byte_cb, gpio_and_delay_
 3702              		.loc 1 474 0
 3703 0006 0093     		str	r3, [sp]
 3704 0008 0949     		ldr	r1, .L216
 3705              	.LVL478:
 3706 000a 1346     		mov	r3, r2
 3707              	.LVL479:
 3708 000c 094A     		ldr	r2, .L216+4
 3709              	.LVL480:
 471:/Users/imashio/Electronics/ARM/_Library/u8g2_d_setup.c ****   uint8_t tile_buf_height;
 3710              		.loc 1 471 0
 3711 000e 0446     		mov	r4, r0
 3712              		.loc 1 474 0
 3713 0010 FFF7FEFF 		bl	u8x8_Setup
 3714              	.LVL481:
 475:/Users/imashio/Electronics/ARM/_Library/u8g2_d_setup.c ****   buf = u8g2_m_12_12_f(&tile_buf_height);
 3715              		.loc 1 475 0
 3716 0014 0DF10F00 		add	r0, sp, #15
 3717 0018 FFF7FEFF 		bl	u8g2_m_12_12_f
 3718              	.LVL482:
 476:/Users/imashio/Electronics/ARM/_Library/u8g2_d_setup.c ****   u8g2_SetupBuffer(u8g2, buf, tile_buf_height, u8g2_ll_hvline_vertical_top_lsb, rotation);
 3719              		.loc 1 476 0
 3720 001c 9DF80F20 		ldrb	r2, [sp, #15]	@ zero_extendqisi2
 3721 0020 0095     		str	r5, [sp]
 3722 0022 0146     		mov	r1, r0
 3723 0024 044B     		ldr	r3, .L216+8
 3724 0026 2046     		mov	r0, r4
 3725              	.LVL483:
 3726 0028 FFF7FEFF 		bl	u8g2_SetupBuffer
 3727              	.LVL484:
 477:/Users/imashio/Electronics/ARM/_Library/u8g2_d_setup.c **** }
 3728              		.loc 1 477 0
 3729 002c 05B0     		add	sp, sp, #20
 3730              	.LCFI161:
 3731              		.cfi_def_cfa_offset 12
 3732              		@ sp needed
 3733 002e 30BD     		pop	{r4, r5, pc}
 3734              	.LVL485:
 3735              	.L217:
 3736              		.align	2
 3737              	.L216:
ARM GAS  /var/folders/v3/wysfpd052nz8jkbx04pk0ym80000gn/T//ccU8HdeZ.s 			page 74


 3738 0030 00000000 		.word	u8x8_d_sh1107_seeed_96x96
 3739 0034 00000000 		.word	u8x8_cad_ssd13xx_i2c
 3740 0038 00000000 		.word	u8g2_ll_hvline_vertical_top_lsb
 3741              		.cfi_endproc
 3742              	.LFE53:
 3744              		.section	.text.u8g2_Setup_ssd1306_128x32_univision_1,"ax",%progbits
 3745              		.align	1
 3746              		.p2align 2,,3
 3747              		.global	u8g2_Setup_ssd1306_128x32_univision_1
 3748              		.syntax unified
 3749              		.thumb
 3750              		.thumb_func
 3751              		.fpu fpv4-sp-d16
 3753              	u8g2_Setup_ssd1306_128x32_univision_1:
 3754              	.LFB54:
 478:/Users/imashio/Electronics/ARM/_Library/u8g2_d_setup.c **** /* ssd1306 */
 479:/Users/imashio/Electronics/ARM/_Library/u8g2_d_setup.c **** /* ssd1306 1 */
 480:/Users/imashio/Electronics/ARM/_Library/u8g2_d_setup.c **** void u8g2_Setup_ssd1306_128x32_univision_1(u8g2_t *u8g2, const u8g2_cb_t *rotation, u8x8_msg_cb byt
 481:/Users/imashio/Electronics/ARM/_Library/u8g2_d_setup.c **** {
 3755              		.loc 1 481 0
 3756              		.cfi_startproc
 3757              		@ args = 0, pretend = 0, frame = 8
 3758              		@ frame_needed = 0, uses_anonymous_args = 0
 3759              	.LVL486:
 3760 0000 30B5     		push	{r4, r5, lr}
 3761              	.LCFI162:
 3762              		.cfi_def_cfa_offset 12
 3763              		.cfi_offset 4, -12
 3764              		.cfi_offset 5, -8
 3765              		.cfi_offset 14, -4
 3766 0002 85B0     		sub	sp, sp, #20
 3767              	.LCFI163:
 3768              		.cfi_def_cfa_offset 32
 3769              		.loc 1 481 0
 3770 0004 0D46     		mov	r5, r1
 482:/Users/imashio/Electronics/ARM/_Library/u8g2_d_setup.c ****   uint8_t tile_buf_height;
 483:/Users/imashio/Electronics/ARM/_Library/u8g2_d_setup.c ****   uint8_t *buf;
 484:/Users/imashio/Electronics/ARM/_Library/u8g2_d_setup.c ****   u8g2_SetupDisplay(u8g2, u8x8_d_ssd1306_128x32_univision, u8x8_cad_001, byte_cb, gpio_and_delay_cb
 3771              		.loc 1 484 0
 3772 0006 0093     		str	r3, [sp]
 3773 0008 0949     		ldr	r1, .L220
 3774              	.LVL487:
 3775 000a 1346     		mov	r3, r2
 3776              	.LVL488:
 3777 000c 094A     		ldr	r2, .L220+4
 3778              	.LVL489:
 481:/Users/imashio/Electronics/ARM/_Library/u8g2_d_setup.c ****   uint8_t tile_buf_height;
 3779              		.loc 1 481 0
 3780 000e 0446     		mov	r4, r0
 3781              		.loc 1 484 0
 3782 0010 FFF7FEFF 		bl	u8x8_Setup
 3783              	.LVL490:
 485:/Users/imashio/Electronics/ARM/_Library/u8g2_d_setup.c ****   buf = u8g2_m_16_4_1(&tile_buf_height);
 3784              		.loc 1 485 0
 3785 0014 0DF10F00 		add	r0, sp, #15
 3786 0018 FFF7FEFF 		bl	u8g2_m_16_4_1
 3787              	.LVL491:
ARM GAS  /var/folders/v3/wysfpd052nz8jkbx04pk0ym80000gn/T//ccU8HdeZ.s 			page 75


 486:/Users/imashio/Electronics/ARM/_Library/u8g2_d_setup.c ****   u8g2_SetupBuffer(u8g2, buf, tile_buf_height, u8g2_ll_hvline_vertical_top_lsb, rotation);
 3788              		.loc 1 486 0
 3789 001c 9DF80F20 		ldrb	r2, [sp, #15]	@ zero_extendqisi2
 3790 0020 0095     		str	r5, [sp]
 3791 0022 0146     		mov	r1, r0
 3792 0024 044B     		ldr	r3, .L220+8
 3793 0026 2046     		mov	r0, r4
 3794              	.LVL492:
 3795 0028 FFF7FEFF 		bl	u8g2_SetupBuffer
 3796              	.LVL493:
 487:/Users/imashio/Electronics/ARM/_Library/u8g2_d_setup.c **** }
 3797              		.loc 1 487 0
 3798 002c 05B0     		add	sp, sp, #20
 3799              	.LCFI164:
 3800              		.cfi_def_cfa_offset 12
 3801              		@ sp needed
 3802 002e 30BD     		pop	{r4, r5, pc}
 3803              	.LVL494:
 3804              	.L221:
 3805              		.align	2
 3806              	.L220:
 3807 0030 00000000 		.word	u8x8_d_ssd1306_128x32_univision
 3808 0034 00000000 		.word	u8x8_cad_001
 3809 0038 00000000 		.word	u8g2_ll_hvline_vertical_top_lsb
 3810              		.cfi_endproc
 3811              	.LFE54:
 3813              		.section	.text.u8g2_Setup_ssd1306_128x32_univision_2,"ax",%progbits
 3814              		.align	1
 3815              		.p2align 2,,3
 3816              		.global	u8g2_Setup_ssd1306_128x32_univision_2
 3817              		.syntax unified
 3818              		.thumb
 3819              		.thumb_func
 3820              		.fpu fpv4-sp-d16
 3822              	u8g2_Setup_ssd1306_128x32_univision_2:
 3823              	.LFB55:
 488:/Users/imashio/Electronics/ARM/_Library/u8g2_d_setup.c **** /* ssd1306 2 */
 489:/Users/imashio/Electronics/ARM/_Library/u8g2_d_setup.c **** void u8g2_Setup_ssd1306_128x32_univision_2(u8g2_t *u8g2, const u8g2_cb_t *rotation, u8x8_msg_cb byt
 490:/Users/imashio/Electronics/ARM/_Library/u8g2_d_setup.c **** {
 3824              		.loc 1 490 0
 3825              		.cfi_startproc
 3826              		@ args = 0, pretend = 0, frame = 8
 3827              		@ frame_needed = 0, uses_anonymous_args = 0
 3828              	.LVL495:
 3829 0000 30B5     		push	{r4, r5, lr}
 3830              	.LCFI165:
 3831              		.cfi_def_cfa_offset 12
 3832              		.cfi_offset 4, -12
 3833              		.cfi_offset 5, -8
 3834              		.cfi_offset 14, -4
 3835 0002 85B0     		sub	sp, sp, #20
 3836              	.LCFI166:
 3837              		.cfi_def_cfa_offset 32
 3838              		.loc 1 490 0
 3839 0004 0D46     		mov	r5, r1
 491:/Users/imashio/Electronics/ARM/_Library/u8g2_d_setup.c ****   uint8_t tile_buf_height;
 492:/Users/imashio/Electronics/ARM/_Library/u8g2_d_setup.c ****   uint8_t *buf;
ARM GAS  /var/folders/v3/wysfpd052nz8jkbx04pk0ym80000gn/T//ccU8HdeZ.s 			page 76


 493:/Users/imashio/Electronics/ARM/_Library/u8g2_d_setup.c ****   u8g2_SetupDisplay(u8g2, u8x8_d_ssd1306_128x32_univision, u8x8_cad_001, byte_cb, gpio_and_delay_cb
 3840              		.loc 1 493 0
 3841 0006 0093     		str	r3, [sp]
 3842 0008 0949     		ldr	r1, .L224
 3843              	.LVL496:
 3844 000a 1346     		mov	r3, r2
 3845              	.LVL497:
 3846 000c 094A     		ldr	r2, .L224+4
 3847              	.LVL498:
 490:/Users/imashio/Electronics/ARM/_Library/u8g2_d_setup.c ****   uint8_t tile_buf_height;
 3848              		.loc 1 490 0
 3849 000e 0446     		mov	r4, r0
 3850              		.loc 1 493 0
 3851 0010 FFF7FEFF 		bl	u8x8_Setup
 3852              	.LVL499:
 494:/Users/imashio/Electronics/ARM/_Library/u8g2_d_setup.c ****   buf = u8g2_m_16_4_2(&tile_buf_height);
 3853              		.loc 1 494 0
 3854 0014 0DF10F00 		add	r0, sp, #15
 3855 0018 FFF7FEFF 		bl	u8g2_m_16_4_2
 3856              	.LVL500:
 495:/Users/imashio/Electronics/ARM/_Library/u8g2_d_setup.c ****   u8g2_SetupBuffer(u8g2, buf, tile_buf_height, u8g2_ll_hvline_vertical_top_lsb, rotation);
 3857              		.loc 1 495 0
 3858 001c 9DF80F20 		ldrb	r2, [sp, #15]	@ zero_extendqisi2
 3859 0020 0095     		str	r5, [sp]
 3860 0022 0146     		mov	r1, r0
 3861 0024 044B     		ldr	r3, .L224+8
 3862 0026 2046     		mov	r0, r4
 3863              	.LVL501:
 3864 0028 FFF7FEFF 		bl	u8g2_SetupBuffer
 3865              	.LVL502:
 496:/Users/imashio/Electronics/ARM/_Library/u8g2_d_setup.c **** }
 3866              		.loc 1 496 0
 3867 002c 05B0     		add	sp, sp, #20
 3868              	.LCFI167:
 3869              		.cfi_def_cfa_offset 12
 3870              		@ sp needed
 3871 002e 30BD     		pop	{r4, r5, pc}
 3872              	.LVL503:
 3873              	.L225:
 3874              		.align	2
 3875              	.L224:
 3876 0030 00000000 		.word	u8x8_d_ssd1306_128x32_univision
 3877 0034 00000000 		.word	u8x8_cad_001
 3878 0038 00000000 		.word	u8g2_ll_hvline_vertical_top_lsb
 3879              		.cfi_endproc
 3880              	.LFE55:
 3882              		.section	.text.u8g2_Setup_ssd1306_128x32_univision_f,"ax",%progbits
 3883              		.align	1
 3884              		.p2align 2,,3
 3885              		.global	u8g2_Setup_ssd1306_128x32_univision_f
 3886              		.syntax unified
 3887              		.thumb
 3888              		.thumb_func
 3889              		.fpu fpv4-sp-d16
 3891              	u8g2_Setup_ssd1306_128x32_univision_f:
 3892              	.LFB56:
 497:/Users/imashio/Electronics/ARM/_Library/u8g2_d_setup.c **** /* ssd1306 f */
ARM GAS  /var/folders/v3/wysfpd052nz8jkbx04pk0ym80000gn/T//ccU8HdeZ.s 			page 77


 498:/Users/imashio/Electronics/ARM/_Library/u8g2_d_setup.c **** void u8g2_Setup_ssd1306_128x32_univision_f(u8g2_t *u8g2, const u8g2_cb_t *rotation, u8x8_msg_cb byt
 499:/Users/imashio/Electronics/ARM/_Library/u8g2_d_setup.c **** {
 3893              		.loc 1 499 0
 3894              		.cfi_startproc
 3895              		@ args = 0, pretend = 0, frame = 8
 3896              		@ frame_needed = 0, uses_anonymous_args = 0
 3897              	.LVL504:
 3898 0000 30B5     		push	{r4, r5, lr}
 3899              	.LCFI168:
 3900              		.cfi_def_cfa_offset 12
 3901              		.cfi_offset 4, -12
 3902              		.cfi_offset 5, -8
 3903              		.cfi_offset 14, -4
 3904 0002 85B0     		sub	sp, sp, #20
 3905              	.LCFI169:
 3906              		.cfi_def_cfa_offset 32
 3907              		.loc 1 499 0
 3908 0004 0D46     		mov	r5, r1
 500:/Users/imashio/Electronics/ARM/_Library/u8g2_d_setup.c ****   uint8_t tile_buf_height;
 501:/Users/imashio/Electronics/ARM/_Library/u8g2_d_setup.c ****   uint8_t *buf;
 502:/Users/imashio/Electronics/ARM/_Library/u8g2_d_setup.c ****   u8g2_SetupDisplay(u8g2, u8x8_d_ssd1306_128x32_univision, u8x8_cad_001, byte_cb, gpio_and_delay_cb
 3909              		.loc 1 502 0
 3910 0006 0093     		str	r3, [sp]
 3911 0008 0949     		ldr	r1, .L228
 3912              	.LVL505:
 3913 000a 1346     		mov	r3, r2
 3914              	.LVL506:
 3915 000c 094A     		ldr	r2, .L228+4
 3916              	.LVL507:
 499:/Users/imashio/Electronics/ARM/_Library/u8g2_d_setup.c ****   uint8_t tile_buf_height;
 3917              		.loc 1 499 0
 3918 000e 0446     		mov	r4, r0
 3919              		.loc 1 502 0
 3920 0010 FFF7FEFF 		bl	u8x8_Setup
 3921              	.LVL508:
 503:/Users/imashio/Electronics/ARM/_Library/u8g2_d_setup.c ****   buf = u8g2_m_16_4_f(&tile_buf_height);
 3922              		.loc 1 503 0
 3923 0014 0DF10F00 		add	r0, sp, #15
 3924 0018 FFF7FEFF 		bl	u8g2_m_16_4_f
 3925              	.LVL509:
 504:/Users/imashio/Electronics/ARM/_Library/u8g2_d_setup.c ****   u8g2_SetupBuffer(u8g2, buf, tile_buf_height, u8g2_ll_hvline_vertical_top_lsb, rotation);
 3926              		.loc 1 504 0
 3927 001c 9DF80F20 		ldrb	r2, [sp, #15]	@ zero_extendqisi2
 3928 0020 0095     		str	r5, [sp]
 3929 0022 0146     		mov	r1, r0
 3930 0024 044B     		ldr	r3, .L228+8
 3931 0026 2046     		mov	r0, r4
 3932              	.LVL510:
 3933 0028 FFF7FEFF 		bl	u8g2_SetupBuffer
 3934              	.LVL511:
 505:/Users/imashio/Electronics/ARM/_Library/u8g2_d_setup.c **** }
 3935              		.loc 1 505 0
 3936 002c 05B0     		add	sp, sp, #20
 3937              	.LCFI170:
 3938              		.cfi_def_cfa_offset 12
 3939              		@ sp needed
 3940 002e 30BD     		pop	{r4, r5, pc}
ARM GAS  /var/folders/v3/wysfpd052nz8jkbx04pk0ym80000gn/T//ccU8HdeZ.s 			page 78


 3941              	.LVL512:
 3942              	.L229:
 3943              		.align	2
 3944              	.L228:
 3945 0030 00000000 		.word	u8x8_d_ssd1306_128x32_univision
 3946 0034 00000000 		.word	u8x8_cad_001
 3947 0038 00000000 		.word	u8g2_ll_hvline_vertical_top_lsb
 3948              		.cfi_endproc
 3949              	.LFE56:
 3951              		.section	.text.u8g2_Setup_ssd1306_i2c_128x32_univision_1,"ax",%progbits
 3952              		.align	1
 3953              		.p2align 2,,3
 3954              		.global	u8g2_Setup_ssd1306_i2c_128x32_univision_1
 3955              		.syntax unified
 3956              		.thumb
 3957              		.thumb_func
 3958              		.fpu fpv4-sp-d16
 3960              	u8g2_Setup_ssd1306_i2c_128x32_univision_1:
 3961              	.LFB57:
 506:/Users/imashio/Electronics/ARM/_Library/u8g2_d_setup.c **** /* ssd1306 */
 507:/Users/imashio/Electronics/ARM/_Library/u8g2_d_setup.c **** /* ssd1306 1 */
 508:/Users/imashio/Electronics/ARM/_Library/u8g2_d_setup.c **** void u8g2_Setup_ssd1306_i2c_128x32_univision_1(u8g2_t *u8g2, const u8g2_cb_t *rotation, u8x8_msg_cb
 509:/Users/imashio/Electronics/ARM/_Library/u8g2_d_setup.c **** {
 3962              		.loc 1 509 0
 3963              		.cfi_startproc
 3964              		@ args = 0, pretend = 0, frame = 8
 3965              		@ frame_needed = 0, uses_anonymous_args = 0
 3966              	.LVL513:
 3967 0000 30B5     		push	{r4, r5, lr}
 3968              	.LCFI171:
 3969              		.cfi_def_cfa_offset 12
 3970              		.cfi_offset 4, -12
 3971              		.cfi_offset 5, -8
 3972              		.cfi_offset 14, -4
 3973 0002 85B0     		sub	sp, sp, #20
 3974              	.LCFI172:
 3975              		.cfi_def_cfa_offset 32
 3976              		.loc 1 509 0
 3977 0004 0D46     		mov	r5, r1
 510:/Users/imashio/Electronics/ARM/_Library/u8g2_d_setup.c ****   uint8_t tile_buf_height;
 511:/Users/imashio/Electronics/ARM/_Library/u8g2_d_setup.c ****   uint8_t *buf;
 512:/Users/imashio/Electronics/ARM/_Library/u8g2_d_setup.c ****   u8g2_SetupDisplay(u8g2, u8x8_d_ssd1306_128x32_univision, u8x8_cad_ssd13xx_i2c, byte_cb, gpio_and_
 3978              		.loc 1 512 0
 3979 0006 0093     		str	r3, [sp]
 3980 0008 0949     		ldr	r1, .L232
 3981              	.LVL514:
 3982 000a 1346     		mov	r3, r2
 3983              	.LVL515:
 3984 000c 094A     		ldr	r2, .L232+4
 3985              	.LVL516:
 509:/Users/imashio/Electronics/ARM/_Library/u8g2_d_setup.c ****   uint8_t tile_buf_height;
 3986              		.loc 1 509 0
 3987 000e 0446     		mov	r4, r0
 3988              		.loc 1 512 0
 3989 0010 FFF7FEFF 		bl	u8x8_Setup
 3990              	.LVL517:
 513:/Users/imashio/Electronics/ARM/_Library/u8g2_d_setup.c ****   buf = u8g2_m_16_4_1(&tile_buf_height);
ARM GAS  /var/folders/v3/wysfpd052nz8jkbx04pk0ym80000gn/T//ccU8HdeZ.s 			page 79


 3991              		.loc 1 513 0
 3992 0014 0DF10F00 		add	r0, sp, #15
 3993 0018 FFF7FEFF 		bl	u8g2_m_16_4_1
 3994              	.LVL518:
 514:/Users/imashio/Electronics/ARM/_Library/u8g2_d_setup.c ****   u8g2_SetupBuffer(u8g2, buf, tile_buf_height, u8g2_ll_hvline_vertical_top_lsb, rotation);
 3995              		.loc 1 514 0
 3996 001c 9DF80F20 		ldrb	r2, [sp, #15]	@ zero_extendqisi2
 3997 0020 0095     		str	r5, [sp]
 3998 0022 0146     		mov	r1, r0
 3999 0024 044B     		ldr	r3, .L232+8
 4000 0026 2046     		mov	r0, r4
 4001              	.LVL519:
 4002 0028 FFF7FEFF 		bl	u8g2_SetupBuffer
 4003              	.LVL520:
 515:/Users/imashio/Electronics/ARM/_Library/u8g2_d_setup.c **** }
 4004              		.loc 1 515 0
 4005 002c 05B0     		add	sp, sp, #20
 4006              	.LCFI173:
 4007              		.cfi_def_cfa_offset 12
 4008              		@ sp needed
 4009 002e 30BD     		pop	{r4, r5, pc}
 4010              	.LVL521:
 4011              	.L233:
 4012              		.align	2
 4013              	.L232:
 4014 0030 00000000 		.word	u8x8_d_ssd1306_128x32_univision
 4015 0034 00000000 		.word	u8x8_cad_ssd13xx_i2c
 4016 0038 00000000 		.word	u8g2_ll_hvline_vertical_top_lsb
 4017              		.cfi_endproc
 4018              	.LFE57:
 4020              		.section	.text.u8g2_Setup_ssd1306_i2c_128x32_univision_2,"ax",%progbits
 4021              		.align	1
 4022              		.p2align 2,,3
 4023              		.global	u8g2_Setup_ssd1306_i2c_128x32_univision_2
 4024              		.syntax unified
 4025              		.thumb
 4026              		.thumb_func
 4027              		.fpu fpv4-sp-d16
 4029              	u8g2_Setup_ssd1306_i2c_128x32_univision_2:
 4030              	.LFB58:
 516:/Users/imashio/Electronics/ARM/_Library/u8g2_d_setup.c **** /* ssd1306 2 */
 517:/Users/imashio/Electronics/ARM/_Library/u8g2_d_setup.c **** void u8g2_Setup_ssd1306_i2c_128x32_univision_2(u8g2_t *u8g2, const u8g2_cb_t *rotation, u8x8_msg_cb
 518:/Users/imashio/Electronics/ARM/_Library/u8g2_d_setup.c **** {
 4031              		.loc 1 518 0
 4032              		.cfi_startproc
 4033              		@ args = 0, pretend = 0, frame = 8
 4034              		@ frame_needed = 0, uses_anonymous_args = 0
 4035              	.LVL522:
 4036 0000 30B5     		push	{r4, r5, lr}
 4037              	.LCFI174:
 4038              		.cfi_def_cfa_offset 12
 4039              		.cfi_offset 4, -12
 4040              		.cfi_offset 5, -8
 4041              		.cfi_offset 14, -4
 4042 0002 85B0     		sub	sp, sp, #20
 4043              	.LCFI175:
 4044              		.cfi_def_cfa_offset 32
ARM GAS  /var/folders/v3/wysfpd052nz8jkbx04pk0ym80000gn/T//ccU8HdeZ.s 			page 80


 4045              		.loc 1 518 0
 4046 0004 0D46     		mov	r5, r1
 519:/Users/imashio/Electronics/ARM/_Library/u8g2_d_setup.c ****   uint8_t tile_buf_height;
 520:/Users/imashio/Electronics/ARM/_Library/u8g2_d_setup.c ****   uint8_t *buf;
 521:/Users/imashio/Electronics/ARM/_Library/u8g2_d_setup.c ****   u8g2_SetupDisplay(u8g2, u8x8_d_ssd1306_128x32_univision, u8x8_cad_ssd13xx_i2c, byte_cb, gpio_and_
 4047              		.loc 1 521 0
 4048 0006 0093     		str	r3, [sp]
 4049 0008 0949     		ldr	r1, .L236
 4050              	.LVL523:
 4051 000a 1346     		mov	r3, r2
 4052              	.LVL524:
 4053 000c 094A     		ldr	r2, .L236+4
 4054              	.LVL525:
 518:/Users/imashio/Electronics/ARM/_Library/u8g2_d_setup.c ****   uint8_t tile_buf_height;
 4055              		.loc 1 518 0
 4056 000e 0446     		mov	r4, r0
 4057              		.loc 1 521 0
 4058 0010 FFF7FEFF 		bl	u8x8_Setup
 4059              	.LVL526:
 522:/Users/imashio/Electronics/ARM/_Library/u8g2_d_setup.c ****   buf = u8g2_m_16_4_2(&tile_buf_height);
 4060              		.loc 1 522 0
 4061 0014 0DF10F00 		add	r0, sp, #15
 4062 0018 FFF7FEFF 		bl	u8g2_m_16_4_2
 4063              	.LVL527:
 523:/Users/imashio/Electronics/ARM/_Library/u8g2_d_setup.c ****   u8g2_SetupBuffer(u8g2, buf, tile_buf_height, u8g2_ll_hvline_vertical_top_lsb, rotation);
 4064              		.loc 1 523 0
 4065 001c 9DF80F20 		ldrb	r2, [sp, #15]	@ zero_extendqisi2
 4066 0020 0095     		str	r5, [sp]
 4067 0022 0146     		mov	r1, r0
 4068 0024 044B     		ldr	r3, .L236+8
 4069 0026 2046     		mov	r0, r4
 4070              	.LVL528:
 4071 0028 FFF7FEFF 		bl	u8g2_SetupBuffer
 4072              	.LVL529:
 524:/Users/imashio/Electronics/ARM/_Library/u8g2_d_setup.c **** }
 4073              		.loc 1 524 0
 4074 002c 05B0     		add	sp, sp, #20
 4075              	.LCFI176:
 4076              		.cfi_def_cfa_offset 12
 4077              		@ sp needed
 4078 002e 30BD     		pop	{r4, r5, pc}
 4079              	.LVL530:
 4080              	.L237:
 4081              		.align	2
 4082              	.L236:
 4083 0030 00000000 		.word	u8x8_d_ssd1306_128x32_univision
 4084 0034 00000000 		.word	u8x8_cad_ssd13xx_i2c
 4085 0038 00000000 		.word	u8g2_ll_hvline_vertical_top_lsb
 4086              		.cfi_endproc
 4087              	.LFE58:
 4089              		.section	.text.u8g2_Setup_ssd1306_i2c_128x32_univision_f,"ax",%progbits
 4090              		.align	1
 4091              		.p2align 2,,3
 4092              		.global	u8g2_Setup_ssd1306_i2c_128x32_univision_f
 4093              		.syntax unified
 4094              		.thumb
 4095              		.thumb_func
ARM GAS  /var/folders/v3/wysfpd052nz8jkbx04pk0ym80000gn/T//ccU8HdeZ.s 			page 81


 4096              		.fpu fpv4-sp-d16
 4098              	u8g2_Setup_ssd1306_i2c_128x32_univision_f:
 4099              	.LFB59:
 525:/Users/imashio/Electronics/ARM/_Library/u8g2_d_setup.c **** /* ssd1306 f */
 526:/Users/imashio/Electronics/ARM/_Library/u8g2_d_setup.c **** void u8g2_Setup_ssd1306_i2c_128x32_univision_f(u8g2_t *u8g2, const u8g2_cb_t *rotation, u8x8_msg_cb
 527:/Users/imashio/Electronics/ARM/_Library/u8g2_d_setup.c **** {
 4100              		.loc 1 527 0
 4101              		.cfi_startproc
 4102              		@ args = 0, pretend = 0, frame = 8
 4103              		@ frame_needed = 0, uses_anonymous_args = 0
 4104              	.LVL531:
 4105 0000 30B5     		push	{r4, r5, lr}
 4106              	.LCFI177:
 4107              		.cfi_def_cfa_offset 12
 4108              		.cfi_offset 4, -12
 4109              		.cfi_offset 5, -8
 4110              		.cfi_offset 14, -4
 4111 0002 85B0     		sub	sp, sp, #20
 4112              	.LCFI178:
 4113              		.cfi_def_cfa_offset 32
 4114              		.loc 1 527 0
 4115 0004 0D46     		mov	r5, r1
 528:/Users/imashio/Electronics/ARM/_Library/u8g2_d_setup.c ****   uint8_t tile_buf_height;
 529:/Users/imashio/Electronics/ARM/_Library/u8g2_d_setup.c ****   uint8_t *buf;
 530:/Users/imashio/Electronics/ARM/_Library/u8g2_d_setup.c ****   u8g2_SetupDisplay(u8g2, u8x8_d_ssd1306_128x32_univision, u8x8_cad_ssd13xx_i2c, byte_cb, gpio_and_
 4116              		.loc 1 530 0
 4117 0006 0093     		str	r3, [sp]
 4118 0008 0949     		ldr	r1, .L240
 4119              	.LVL532:
 4120 000a 1346     		mov	r3, r2
 4121              	.LVL533:
 4122 000c 094A     		ldr	r2, .L240+4
 4123              	.LVL534:
 527:/Users/imashio/Electronics/ARM/_Library/u8g2_d_setup.c ****   uint8_t tile_buf_height;
 4124              		.loc 1 527 0
 4125 000e 0446     		mov	r4, r0
 4126              		.loc 1 530 0
 4127 0010 FFF7FEFF 		bl	u8x8_Setup
 4128              	.LVL535:
 531:/Users/imashio/Electronics/ARM/_Library/u8g2_d_setup.c ****   buf = u8g2_m_16_4_f(&tile_buf_height);
 4129              		.loc 1 531 0
 4130 0014 0DF10F00 		add	r0, sp, #15
 4131 0018 FFF7FEFF 		bl	u8g2_m_16_4_f
 4132              	.LVL536:
 532:/Users/imashio/Electronics/ARM/_Library/u8g2_d_setup.c ****   u8g2_SetupBuffer(u8g2, buf, tile_buf_height, u8g2_ll_hvline_vertical_top_lsb, rotation);
 4133              		.loc 1 532 0
 4134 001c 9DF80F20 		ldrb	r2, [sp, #15]	@ zero_extendqisi2
 4135 0020 0095     		str	r5, [sp]
 4136 0022 0146     		mov	r1, r0
 4137 0024 044B     		ldr	r3, .L240+8
 4138 0026 2046     		mov	r0, r4
 4139              	.LVL537:
 4140 0028 FFF7FEFF 		bl	u8g2_SetupBuffer
 4141              	.LVL538:
 533:/Users/imashio/Electronics/ARM/_Library/u8g2_d_setup.c **** }
 4142              		.loc 1 533 0
 4143 002c 05B0     		add	sp, sp, #20
ARM GAS  /var/folders/v3/wysfpd052nz8jkbx04pk0ym80000gn/T//ccU8HdeZ.s 			page 82


 4144              	.LCFI179:
 4145              		.cfi_def_cfa_offset 12
 4146              		@ sp needed
 4147 002e 30BD     		pop	{r4, r5, pc}
 4148              	.LVL539:
 4149              	.L241:
 4150              		.align	2
 4151              	.L240:
 4152 0030 00000000 		.word	u8x8_d_ssd1306_128x32_univision
 4153 0034 00000000 		.word	u8x8_cad_ssd13xx_i2c
 4154 0038 00000000 		.word	u8g2_ll_hvline_vertical_top_lsb
 4155              		.cfi_endproc
 4156              	.LFE59:
 4158              		.section	.text.u8g2_Setup_ssd1306_64x48_er_1,"ax",%progbits
 4159              		.align	1
 4160              		.p2align 2,,3
 4161              		.global	u8g2_Setup_ssd1306_64x48_er_1
 4162              		.syntax unified
 4163              		.thumb
 4164              		.thumb_func
 4165              		.fpu fpv4-sp-d16
 4167              	u8g2_Setup_ssd1306_64x48_er_1:
 4168              	.LFB60:
 534:/Users/imashio/Electronics/ARM/_Library/u8g2_d_setup.c **** /* ssd1306 */
 535:/Users/imashio/Electronics/ARM/_Library/u8g2_d_setup.c **** /* ssd1306 1 */
 536:/Users/imashio/Electronics/ARM/_Library/u8g2_d_setup.c **** void u8g2_Setup_ssd1306_64x48_er_1(u8g2_t *u8g2, const u8g2_cb_t *rotation, u8x8_msg_cb byte_cb, u8
 537:/Users/imashio/Electronics/ARM/_Library/u8g2_d_setup.c **** {
 4169              		.loc 1 537 0
 4170              		.cfi_startproc
 4171              		@ args = 0, pretend = 0, frame = 8
 4172              		@ frame_needed = 0, uses_anonymous_args = 0
 4173              	.LVL540:
 4174 0000 30B5     		push	{r4, r5, lr}
 4175              	.LCFI180:
 4176              		.cfi_def_cfa_offset 12
 4177              		.cfi_offset 4, -12
 4178              		.cfi_offset 5, -8
 4179              		.cfi_offset 14, -4
 4180 0002 85B0     		sub	sp, sp, #20
 4181              	.LCFI181:
 4182              		.cfi_def_cfa_offset 32
 4183              		.loc 1 537 0
 4184 0004 0D46     		mov	r5, r1
 538:/Users/imashio/Electronics/ARM/_Library/u8g2_d_setup.c ****   uint8_t tile_buf_height;
 539:/Users/imashio/Electronics/ARM/_Library/u8g2_d_setup.c ****   uint8_t *buf;
 540:/Users/imashio/Electronics/ARM/_Library/u8g2_d_setup.c ****   u8g2_SetupDisplay(u8g2, u8x8_d_ssd1306_64x48_er, u8x8_cad_001, byte_cb, gpio_and_delay_cb);
 4185              		.loc 1 540 0
 4186 0006 0093     		str	r3, [sp]
 4187 0008 0949     		ldr	r1, .L244
 4188              	.LVL541:
 4189 000a 1346     		mov	r3, r2
 4190              	.LVL542:
 4191 000c 094A     		ldr	r2, .L244+4
 4192              	.LVL543:
 537:/Users/imashio/Electronics/ARM/_Library/u8g2_d_setup.c ****   uint8_t tile_buf_height;
 4193              		.loc 1 537 0
 4194 000e 0446     		mov	r4, r0
ARM GAS  /var/folders/v3/wysfpd052nz8jkbx04pk0ym80000gn/T//ccU8HdeZ.s 			page 83


 4195              		.loc 1 540 0
 4196 0010 FFF7FEFF 		bl	u8x8_Setup
 4197              	.LVL544:
 541:/Users/imashio/Electronics/ARM/_Library/u8g2_d_setup.c ****   buf = u8g2_m_8_6_1(&tile_buf_height);
 4198              		.loc 1 541 0
 4199 0014 0DF10F00 		add	r0, sp, #15
 4200 0018 FFF7FEFF 		bl	u8g2_m_8_6_1
 4201              	.LVL545:
 542:/Users/imashio/Electronics/ARM/_Library/u8g2_d_setup.c ****   u8g2_SetupBuffer(u8g2, buf, tile_buf_height, u8g2_ll_hvline_vertical_top_lsb, rotation);
 4202              		.loc 1 542 0
 4203 001c 9DF80F20 		ldrb	r2, [sp, #15]	@ zero_extendqisi2
 4204 0020 0095     		str	r5, [sp]
 4205 0022 0146     		mov	r1, r0
 4206 0024 044B     		ldr	r3, .L244+8
 4207 0026 2046     		mov	r0, r4
 4208              	.LVL546:
 4209 0028 FFF7FEFF 		bl	u8g2_SetupBuffer
 4210              	.LVL547:
 543:/Users/imashio/Electronics/ARM/_Library/u8g2_d_setup.c **** }
 4211              		.loc 1 543 0
 4212 002c 05B0     		add	sp, sp, #20
 4213              	.LCFI182:
 4214              		.cfi_def_cfa_offset 12
 4215              		@ sp needed
 4216 002e 30BD     		pop	{r4, r5, pc}
 4217              	.LVL548:
 4218              	.L245:
 4219              		.align	2
 4220              	.L244:
 4221 0030 00000000 		.word	u8x8_d_ssd1306_64x48_er
 4222 0034 00000000 		.word	u8x8_cad_001
 4223 0038 00000000 		.word	u8g2_ll_hvline_vertical_top_lsb
 4224              		.cfi_endproc
 4225              	.LFE60:
 4227              		.section	.text.u8g2_Setup_ssd1306_64x48_er_2,"ax",%progbits
 4228              		.align	1
 4229              		.p2align 2,,3
 4230              		.global	u8g2_Setup_ssd1306_64x48_er_2
 4231              		.syntax unified
 4232              		.thumb
 4233              		.thumb_func
 4234              		.fpu fpv4-sp-d16
 4236              	u8g2_Setup_ssd1306_64x48_er_2:
 4237              	.LFB61:
 544:/Users/imashio/Electronics/ARM/_Library/u8g2_d_setup.c **** /* ssd1306 2 */
 545:/Users/imashio/Electronics/ARM/_Library/u8g2_d_setup.c **** void u8g2_Setup_ssd1306_64x48_er_2(u8g2_t *u8g2, const u8g2_cb_t *rotation, u8x8_msg_cb byte_cb, u8
 546:/Users/imashio/Electronics/ARM/_Library/u8g2_d_setup.c **** {
 4238              		.loc 1 546 0
 4239              		.cfi_startproc
 4240              		@ args = 0, pretend = 0, frame = 8
 4241              		@ frame_needed = 0, uses_anonymous_args = 0
 4242              	.LVL549:
 4243 0000 30B5     		push	{r4, r5, lr}
 4244              	.LCFI183:
 4245              		.cfi_def_cfa_offset 12
 4246              		.cfi_offset 4, -12
 4247              		.cfi_offset 5, -8
ARM GAS  /var/folders/v3/wysfpd052nz8jkbx04pk0ym80000gn/T//ccU8HdeZ.s 			page 84


 4248              		.cfi_offset 14, -4
 4249 0002 85B0     		sub	sp, sp, #20
 4250              	.LCFI184:
 4251              		.cfi_def_cfa_offset 32
 4252              		.loc 1 546 0
 4253 0004 0D46     		mov	r5, r1
 547:/Users/imashio/Electronics/ARM/_Library/u8g2_d_setup.c ****   uint8_t tile_buf_height;
 548:/Users/imashio/Electronics/ARM/_Library/u8g2_d_setup.c ****   uint8_t *buf;
 549:/Users/imashio/Electronics/ARM/_Library/u8g2_d_setup.c ****   u8g2_SetupDisplay(u8g2, u8x8_d_ssd1306_64x48_er, u8x8_cad_001, byte_cb, gpio_and_delay_cb);
 4254              		.loc 1 549 0
 4255 0006 0093     		str	r3, [sp]
 4256 0008 0949     		ldr	r1, .L248
 4257              	.LVL550:
 4258 000a 1346     		mov	r3, r2
 4259              	.LVL551:
 4260 000c 094A     		ldr	r2, .L248+4
 4261              	.LVL552:
 546:/Users/imashio/Electronics/ARM/_Library/u8g2_d_setup.c ****   uint8_t tile_buf_height;
 4262              		.loc 1 546 0
 4263 000e 0446     		mov	r4, r0
 4264              		.loc 1 549 0
 4265 0010 FFF7FEFF 		bl	u8x8_Setup
 4266              	.LVL553:
 550:/Users/imashio/Electronics/ARM/_Library/u8g2_d_setup.c ****   buf = u8g2_m_8_6_2(&tile_buf_height);
 4267              		.loc 1 550 0
 4268 0014 0DF10F00 		add	r0, sp, #15
 4269 0018 FFF7FEFF 		bl	u8g2_m_8_6_2
 4270              	.LVL554:
 551:/Users/imashio/Electronics/ARM/_Library/u8g2_d_setup.c ****   u8g2_SetupBuffer(u8g2, buf, tile_buf_height, u8g2_ll_hvline_vertical_top_lsb, rotation);
 4271              		.loc 1 551 0
 4272 001c 9DF80F20 		ldrb	r2, [sp, #15]	@ zero_extendqisi2
 4273 0020 0095     		str	r5, [sp]
 4274 0022 0146     		mov	r1, r0
 4275 0024 044B     		ldr	r3, .L248+8
 4276 0026 2046     		mov	r0, r4
 4277              	.LVL555:
 4278 0028 FFF7FEFF 		bl	u8g2_SetupBuffer
 4279              	.LVL556:
 552:/Users/imashio/Electronics/ARM/_Library/u8g2_d_setup.c **** }
 4280              		.loc 1 552 0
 4281 002c 05B0     		add	sp, sp, #20
 4282              	.LCFI185:
 4283              		.cfi_def_cfa_offset 12
 4284              		@ sp needed
 4285 002e 30BD     		pop	{r4, r5, pc}
 4286              	.LVL557:
 4287              	.L249:
 4288              		.align	2
 4289              	.L248:
 4290 0030 00000000 		.word	u8x8_d_ssd1306_64x48_er
 4291 0034 00000000 		.word	u8x8_cad_001
 4292 0038 00000000 		.word	u8g2_ll_hvline_vertical_top_lsb
 4293              		.cfi_endproc
 4294              	.LFE61:
 4296              		.section	.text.u8g2_Setup_ssd1306_64x48_er_f,"ax",%progbits
 4297              		.align	1
 4298              		.p2align 2,,3
ARM GAS  /var/folders/v3/wysfpd052nz8jkbx04pk0ym80000gn/T//ccU8HdeZ.s 			page 85


 4299              		.global	u8g2_Setup_ssd1306_64x48_er_f
 4300              		.syntax unified
 4301              		.thumb
 4302              		.thumb_func
 4303              		.fpu fpv4-sp-d16
 4305              	u8g2_Setup_ssd1306_64x48_er_f:
 4306              	.LFB62:
 553:/Users/imashio/Electronics/ARM/_Library/u8g2_d_setup.c **** /* ssd1306 f */
 554:/Users/imashio/Electronics/ARM/_Library/u8g2_d_setup.c **** void u8g2_Setup_ssd1306_64x48_er_f(u8g2_t *u8g2, const u8g2_cb_t *rotation, u8x8_msg_cb byte_cb, u8
 555:/Users/imashio/Electronics/ARM/_Library/u8g2_d_setup.c **** {
 4307              		.loc 1 555 0
 4308              		.cfi_startproc
 4309              		@ args = 0, pretend = 0, frame = 8
 4310              		@ frame_needed = 0, uses_anonymous_args = 0
 4311              	.LVL558:
 4312 0000 30B5     		push	{r4, r5, lr}
 4313              	.LCFI186:
 4314              		.cfi_def_cfa_offset 12
 4315              		.cfi_offset 4, -12
 4316              		.cfi_offset 5, -8
 4317              		.cfi_offset 14, -4
 4318 0002 85B0     		sub	sp, sp, #20
 4319              	.LCFI187:
 4320              		.cfi_def_cfa_offset 32
 4321              		.loc 1 555 0
 4322 0004 0D46     		mov	r5, r1
 556:/Users/imashio/Electronics/ARM/_Library/u8g2_d_setup.c ****   uint8_t tile_buf_height;
 557:/Users/imashio/Electronics/ARM/_Library/u8g2_d_setup.c ****   uint8_t *buf;
 558:/Users/imashio/Electronics/ARM/_Library/u8g2_d_setup.c ****   u8g2_SetupDisplay(u8g2, u8x8_d_ssd1306_64x48_er, u8x8_cad_001, byte_cb, gpio_and_delay_cb);
 4323              		.loc 1 558 0
 4324 0006 0093     		str	r3, [sp]
 4325 0008 0949     		ldr	r1, .L252
 4326              	.LVL559:
 4327 000a 1346     		mov	r3, r2
 4328              	.LVL560:
 4329 000c 094A     		ldr	r2, .L252+4
 4330              	.LVL561:
 555:/Users/imashio/Electronics/ARM/_Library/u8g2_d_setup.c ****   uint8_t tile_buf_height;
 4331              		.loc 1 555 0
 4332 000e 0446     		mov	r4, r0
 4333              		.loc 1 558 0
 4334 0010 FFF7FEFF 		bl	u8x8_Setup
 4335              	.LVL562:
 559:/Users/imashio/Electronics/ARM/_Library/u8g2_d_setup.c ****   buf = u8g2_m_8_6_f(&tile_buf_height);
 4336              		.loc 1 559 0
 4337 0014 0DF10F00 		add	r0, sp, #15
 4338 0018 FFF7FEFF 		bl	u8g2_m_8_6_f
 4339              	.LVL563:
 560:/Users/imashio/Electronics/ARM/_Library/u8g2_d_setup.c ****   u8g2_SetupBuffer(u8g2, buf, tile_buf_height, u8g2_ll_hvline_vertical_top_lsb, rotation);
 4340              		.loc 1 560 0
 4341 001c 9DF80F20 		ldrb	r2, [sp, #15]	@ zero_extendqisi2
 4342 0020 0095     		str	r5, [sp]
 4343 0022 0146     		mov	r1, r0
 4344 0024 044B     		ldr	r3, .L252+8
 4345 0026 2046     		mov	r0, r4
 4346              	.LVL564:
 4347 0028 FFF7FEFF 		bl	u8g2_SetupBuffer
ARM GAS  /var/folders/v3/wysfpd052nz8jkbx04pk0ym80000gn/T//ccU8HdeZ.s 			page 86


 4348              	.LVL565:
 561:/Users/imashio/Electronics/ARM/_Library/u8g2_d_setup.c **** }
 4349              		.loc 1 561 0
 4350 002c 05B0     		add	sp, sp, #20
 4351              	.LCFI188:
 4352              		.cfi_def_cfa_offset 12
 4353              		@ sp needed
 4354 002e 30BD     		pop	{r4, r5, pc}
 4355              	.LVL566:
 4356              	.L253:
 4357              		.align	2
 4358              	.L252:
 4359 0030 00000000 		.word	u8x8_d_ssd1306_64x48_er
 4360 0034 00000000 		.word	u8x8_cad_001
 4361 0038 00000000 		.word	u8g2_ll_hvline_vertical_top_lsb
 4362              		.cfi_endproc
 4363              	.LFE62:
 4365              		.section	.text.u8g2_Setup_ssd1306_i2c_64x48_er_1,"ax",%progbits
 4366              		.align	1
 4367              		.p2align 2,,3
 4368              		.global	u8g2_Setup_ssd1306_i2c_64x48_er_1
 4369              		.syntax unified
 4370              		.thumb
 4371              		.thumb_func
 4372              		.fpu fpv4-sp-d16
 4374              	u8g2_Setup_ssd1306_i2c_64x48_er_1:
 4375              	.LFB63:
 562:/Users/imashio/Electronics/ARM/_Library/u8g2_d_setup.c **** /* ssd1306 */
 563:/Users/imashio/Electronics/ARM/_Library/u8g2_d_setup.c **** /* ssd1306 1 */
 564:/Users/imashio/Electronics/ARM/_Library/u8g2_d_setup.c **** void u8g2_Setup_ssd1306_i2c_64x48_er_1(u8g2_t *u8g2, const u8g2_cb_t *rotation, u8x8_msg_cb byte_cb
 565:/Users/imashio/Electronics/ARM/_Library/u8g2_d_setup.c **** {
 4376              		.loc 1 565 0
 4377              		.cfi_startproc
 4378              		@ args = 0, pretend = 0, frame = 8
 4379              		@ frame_needed = 0, uses_anonymous_args = 0
 4380              	.LVL567:
 4381 0000 30B5     		push	{r4, r5, lr}
 4382              	.LCFI189:
 4383              		.cfi_def_cfa_offset 12
 4384              		.cfi_offset 4, -12
 4385              		.cfi_offset 5, -8
 4386              		.cfi_offset 14, -4
 4387 0002 85B0     		sub	sp, sp, #20
 4388              	.LCFI190:
 4389              		.cfi_def_cfa_offset 32
 4390              		.loc 1 565 0
 4391 0004 0D46     		mov	r5, r1
 566:/Users/imashio/Electronics/ARM/_Library/u8g2_d_setup.c ****   uint8_t tile_buf_height;
 567:/Users/imashio/Electronics/ARM/_Library/u8g2_d_setup.c ****   uint8_t *buf;
 568:/Users/imashio/Electronics/ARM/_Library/u8g2_d_setup.c ****   u8g2_SetupDisplay(u8g2, u8x8_d_ssd1306_64x48_er, u8x8_cad_ssd13xx_i2c, byte_cb, gpio_and_delay_cb
 4392              		.loc 1 568 0
 4393 0006 0093     		str	r3, [sp]
 4394 0008 0949     		ldr	r1, .L256
 4395              	.LVL568:
 4396 000a 1346     		mov	r3, r2
 4397              	.LVL569:
 4398 000c 094A     		ldr	r2, .L256+4
ARM GAS  /var/folders/v3/wysfpd052nz8jkbx04pk0ym80000gn/T//ccU8HdeZ.s 			page 87


 4399              	.LVL570:
 565:/Users/imashio/Electronics/ARM/_Library/u8g2_d_setup.c ****   uint8_t tile_buf_height;
 4400              		.loc 1 565 0
 4401 000e 0446     		mov	r4, r0
 4402              		.loc 1 568 0
 4403 0010 FFF7FEFF 		bl	u8x8_Setup
 4404              	.LVL571:
 569:/Users/imashio/Electronics/ARM/_Library/u8g2_d_setup.c ****   buf = u8g2_m_8_6_1(&tile_buf_height);
 4405              		.loc 1 569 0
 4406 0014 0DF10F00 		add	r0, sp, #15
 4407 0018 FFF7FEFF 		bl	u8g2_m_8_6_1
 4408              	.LVL572:
 570:/Users/imashio/Electronics/ARM/_Library/u8g2_d_setup.c ****   u8g2_SetupBuffer(u8g2, buf, tile_buf_height, u8g2_ll_hvline_vertical_top_lsb, rotation);
 4409              		.loc 1 570 0
 4410 001c 9DF80F20 		ldrb	r2, [sp, #15]	@ zero_extendqisi2
 4411 0020 0095     		str	r5, [sp]
 4412 0022 0146     		mov	r1, r0
 4413 0024 044B     		ldr	r3, .L256+8
 4414 0026 2046     		mov	r0, r4
 4415              	.LVL573:
 4416 0028 FFF7FEFF 		bl	u8g2_SetupBuffer
 4417              	.LVL574:
 571:/Users/imashio/Electronics/ARM/_Library/u8g2_d_setup.c **** }
 4418              		.loc 1 571 0
 4419 002c 05B0     		add	sp, sp, #20
 4420              	.LCFI191:
 4421              		.cfi_def_cfa_offset 12
 4422              		@ sp needed
 4423 002e 30BD     		pop	{r4, r5, pc}
 4424              	.LVL575:
 4425              	.L257:
 4426              		.align	2
 4427              	.L256:
 4428 0030 00000000 		.word	u8x8_d_ssd1306_64x48_er
 4429 0034 00000000 		.word	u8x8_cad_ssd13xx_i2c
 4430 0038 00000000 		.word	u8g2_ll_hvline_vertical_top_lsb
 4431              		.cfi_endproc
 4432              	.LFE63:
 4434              		.section	.text.u8g2_Setup_ssd1306_i2c_64x48_er_2,"ax",%progbits
 4435              		.align	1
 4436              		.p2align 2,,3
 4437              		.global	u8g2_Setup_ssd1306_i2c_64x48_er_2
 4438              		.syntax unified
 4439              		.thumb
 4440              		.thumb_func
 4441              		.fpu fpv4-sp-d16
 4443              	u8g2_Setup_ssd1306_i2c_64x48_er_2:
 4444              	.LFB64:
 572:/Users/imashio/Electronics/ARM/_Library/u8g2_d_setup.c **** /* ssd1306 2 */
 573:/Users/imashio/Electronics/ARM/_Library/u8g2_d_setup.c **** void u8g2_Setup_ssd1306_i2c_64x48_er_2(u8g2_t *u8g2, const u8g2_cb_t *rotation, u8x8_msg_cb byte_cb
 574:/Users/imashio/Electronics/ARM/_Library/u8g2_d_setup.c **** {
 4445              		.loc 1 574 0
 4446              		.cfi_startproc
 4447              		@ args = 0, pretend = 0, frame = 8
 4448              		@ frame_needed = 0, uses_anonymous_args = 0
 4449              	.LVL576:
 4450 0000 30B5     		push	{r4, r5, lr}
ARM GAS  /var/folders/v3/wysfpd052nz8jkbx04pk0ym80000gn/T//ccU8HdeZ.s 			page 88


 4451              	.LCFI192:
 4452              		.cfi_def_cfa_offset 12
 4453              		.cfi_offset 4, -12
 4454              		.cfi_offset 5, -8
 4455              		.cfi_offset 14, -4
 4456 0002 85B0     		sub	sp, sp, #20
 4457              	.LCFI193:
 4458              		.cfi_def_cfa_offset 32
 4459              		.loc 1 574 0
 4460 0004 0D46     		mov	r5, r1
 575:/Users/imashio/Electronics/ARM/_Library/u8g2_d_setup.c ****   uint8_t tile_buf_height;
 576:/Users/imashio/Electronics/ARM/_Library/u8g2_d_setup.c ****   uint8_t *buf;
 577:/Users/imashio/Electronics/ARM/_Library/u8g2_d_setup.c ****   u8g2_SetupDisplay(u8g2, u8x8_d_ssd1306_64x48_er, u8x8_cad_ssd13xx_i2c, byte_cb, gpio_and_delay_cb
 4461              		.loc 1 577 0
 4462 0006 0093     		str	r3, [sp]
 4463 0008 0949     		ldr	r1, .L260
 4464              	.LVL577:
 4465 000a 1346     		mov	r3, r2
 4466              	.LVL578:
 4467 000c 094A     		ldr	r2, .L260+4
 4468              	.LVL579:
 574:/Users/imashio/Electronics/ARM/_Library/u8g2_d_setup.c ****   uint8_t tile_buf_height;
 4469              		.loc 1 574 0
 4470 000e 0446     		mov	r4, r0
 4471              		.loc 1 577 0
 4472 0010 FFF7FEFF 		bl	u8x8_Setup
 4473              	.LVL580:
 578:/Users/imashio/Electronics/ARM/_Library/u8g2_d_setup.c ****   buf = u8g2_m_8_6_2(&tile_buf_height);
 4474              		.loc 1 578 0
 4475 0014 0DF10F00 		add	r0, sp, #15
 4476 0018 FFF7FEFF 		bl	u8g2_m_8_6_2
 4477              	.LVL581:
 579:/Users/imashio/Electronics/ARM/_Library/u8g2_d_setup.c ****   u8g2_SetupBuffer(u8g2, buf, tile_buf_height, u8g2_ll_hvline_vertical_top_lsb, rotation);
 4478              		.loc 1 579 0
 4479 001c 9DF80F20 		ldrb	r2, [sp, #15]	@ zero_extendqisi2
 4480 0020 0095     		str	r5, [sp]
 4481 0022 0146     		mov	r1, r0
 4482 0024 044B     		ldr	r3, .L260+8
 4483 0026 2046     		mov	r0, r4
 4484              	.LVL582:
 4485 0028 FFF7FEFF 		bl	u8g2_SetupBuffer
 4486              	.LVL583:
 580:/Users/imashio/Electronics/ARM/_Library/u8g2_d_setup.c **** }
 4487              		.loc 1 580 0
 4488 002c 05B0     		add	sp, sp, #20
 4489              	.LCFI194:
 4490              		.cfi_def_cfa_offset 12
 4491              		@ sp needed
 4492 002e 30BD     		pop	{r4, r5, pc}
 4493              	.LVL584:
 4494              	.L261:
 4495              		.align	2
 4496              	.L260:
 4497 0030 00000000 		.word	u8x8_d_ssd1306_64x48_er
 4498 0034 00000000 		.word	u8x8_cad_ssd13xx_i2c
 4499 0038 00000000 		.word	u8g2_ll_hvline_vertical_top_lsb
 4500              		.cfi_endproc
ARM GAS  /var/folders/v3/wysfpd052nz8jkbx04pk0ym80000gn/T//ccU8HdeZ.s 			page 89


 4501              	.LFE64:
 4503              		.section	.text.u8g2_Setup_ssd1306_i2c_64x48_er_f,"ax",%progbits
 4504              		.align	1
 4505              		.p2align 2,,3
 4506              		.global	u8g2_Setup_ssd1306_i2c_64x48_er_f
 4507              		.syntax unified
 4508              		.thumb
 4509              		.thumb_func
 4510              		.fpu fpv4-sp-d16
 4512              	u8g2_Setup_ssd1306_i2c_64x48_er_f:
 4513              	.LFB65:
 581:/Users/imashio/Electronics/ARM/_Library/u8g2_d_setup.c **** /* ssd1306 f */
 582:/Users/imashio/Electronics/ARM/_Library/u8g2_d_setup.c **** void u8g2_Setup_ssd1306_i2c_64x48_er_f(u8g2_t *u8g2, const u8g2_cb_t *rotation, u8x8_msg_cb byte_cb
 583:/Users/imashio/Electronics/ARM/_Library/u8g2_d_setup.c **** {
 4514              		.loc 1 583 0
 4515              		.cfi_startproc
 4516              		@ args = 0, pretend = 0, frame = 8
 4517              		@ frame_needed = 0, uses_anonymous_args = 0
 4518              	.LVL585:
 4519 0000 30B5     		push	{r4, r5, lr}
 4520              	.LCFI195:
 4521              		.cfi_def_cfa_offset 12
 4522              		.cfi_offset 4, -12
 4523              		.cfi_offset 5, -8
 4524              		.cfi_offset 14, -4
 4525 0002 85B0     		sub	sp, sp, #20
 4526              	.LCFI196:
 4527              		.cfi_def_cfa_offset 32
 4528              		.loc 1 583 0
 4529 0004 0D46     		mov	r5, r1
 584:/Users/imashio/Electronics/ARM/_Library/u8g2_d_setup.c ****   uint8_t tile_buf_height;
 585:/Users/imashio/Electronics/ARM/_Library/u8g2_d_setup.c ****   uint8_t *buf;
 586:/Users/imashio/Electronics/ARM/_Library/u8g2_d_setup.c ****   u8g2_SetupDisplay(u8g2, u8x8_d_ssd1306_64x48_er, u8x8_cad_ssd13xx_i2c, byte_cb, gpio_and_delay_cb
 4530              		.loc 1 586 0
 4531 0006 0093     		str	r3, [sp]
 4532 0008 0949     		ldr	r1, .L264
 4533              	.LVL586:
 4534 000a 1346     		mov	r3, r2
 4535              	.LVL587:
 4536 000c 094A     		ldr	r2, .L264+4
 4537              	.LVL588:
 583:/Users/imashio/Electronics/ARM/_Library/u8g2_d_setup.c ****   uint8_t tile_buf_height;
 4538              		.loc 1 583 0
 4539 000e 0446     		mov	r4, r0
 4540              		.loc 1 586 0
 4541 0010 FFF7FEFF 		bl	u8x8_Setup
 4542              	.LVL589:
 587:/Users/imashio/Electronics/ARM/_Library/u8g2_d_setup.c ****   buf = u8g2_m_8_6_f(&tile_buf_height);
 4543              		.loc 1 587 0
 4544 0014 0DF10F00 		add	r0, sp, #15
 4545 0018 FFF7FEFF 		bl	u8g2_m_8_6_f
 4546              	.LVL590:
 588:/Users/imashio/Electronics/ARM/_Library/u8g2_d_setup.c ****   u8g2_SetupBuffer(u8g2, buf, tile_buf_height, u8g2_ll_hvline_vertical_top_lsb, rotation);
 4547              		.loc 1 588 0
 4548 001c 9DF80F20 		ldrb	r2, [sp, #15]	@ zero_extendqisi2
 4549 0020 0095     		str	r5, [sp]
 4550 0022 0146     		mov	r1, r0
ARM GAS  /var/folders/v3/wysfpd052nz8jkbx04pk0ym80000gn/T//ccU8HdeZ.s 			page 90


 4551 0024 044B     		ldr	r3, .L264+8
 4552 0026 2046     		mov	r0, r4
 4553              	.LVL591:
 4554 0028 FFF7FEFF 		bl	u8g2_SetupBuffer
 4555              	.LVL592:
 589:/Users/imashio/Electronics/ARM/_Library/u8g2_d_setup.c **** }
 4556              		.loc 1 589 0
 4557 002c 05B0     		add	sp, sp, #20
 4558              	.LCFI197:
 4559              		.cfi_def_cfa_offset 12
 4560              		@ sp needed
 4561 002e 30BD     		pop	{r4, r5, pc}
 4562              	.LVL593:
 4563              	.L265:
 4564              		.align	2
 4565              	.L264:
 4566 0030 00000000 		.word	u8x8_d_ssd1306_64x48_er
 4567 0034 00000000 		.word	u8x8_cad_ssd13xx_i2c
 4568 0038 00000000 		.word	u8g2_ll_hvline_vertical_top_lsb
 4569              		.cfi_endproc
 4570              	.LFE65:
 4572              		.section	.text.u8g2_Setup_ssd1306_64x32_noname_1,"ax",%progbits
 4573              		.align	1
 4574              		.p2align 2,,3
 4575              		.global	u8g2_Setup_ssd1306_64x32_noname_1
 4576              		.syntax unified
 4577              		.thumb
 4578              		.thumb_func
 4579              		.fpu fpv4-sp-d16
 4581              	u8g2_Setup_ssd1306_64x32_noname_1:
 4582              	.LFB66:
 590:/Users/imashio/Electronics/ARM/_Library/u8g2_d_setup.c **** /* ssd1306 */
 591:/Users/imashio/Electronics/ARM/_Library/u8g2_d_setup.c **** /* ssd1306 1 */
 592:/Users/imashio/Electronics/ARM/_Library/u8g2_d_setup.c **** void u8g2_Setup_ssd1306_64x32_noname_1(u8g2_t *u8g2, const u8g2_cb_t *rotation, u8x8_msg_cb byte_cb
 593:/Users/imashio/Electronics/ARM/_Library/u8g2_d_setup.c **** {
 4583              		.loc 1 593 0
 4584              		.cfi_startproc
 4585              		@ args = 0, pretend = 0, frame = 8
 4586              		@ frame_needed = 0, uses_anonymous_args = 0
 4587              	.LVL594:
 4588 0000 30B5     		push	{r4, r5, lr}
 4589              	.LCFI198:
 4590              		.cfi_def_cfa_offset 12
 4591              		.cfi_offset 4, -12
 4592              		.cfi_offset 5, -8
 4593              		.cfi_offset 14, -4
 4594 0002 85B0     		sub	sp, sp, #20
 4595              	.LCFI199:
 4596              		.cfi_def_cfa_offset 32
 4597              		.loc 1 593 0
 4598 0004 0D46     		mov	r5, r1
 594:/Users/imashio/Electronics/ARM/_Library/u8g2_d_setup.c ****   uint8_t tile_buf_height;
 595:/Users/imashio/Electronics/ARM/_Library/u8g2_d_setup.c ****   uint8_t *buf;
 596:/Users/imashio/Electronics/ARM/_Library/u8g2_d_setup.c ****   u8g2_SetupDisplay(u8g2, u8x8_d_ssd1306_64x32_noname, u8x8_cad_001, byte_cb, gpio_and_delay_cb);
 4599              		.loc 1 596 0
 4600 0006 0093     		str	r3, [sp]
 4601 0008 0949     		ldr	r1, .L268
ARM GAS  /var/folders/v3/wysfpd052nz8jkbx04pk0ym80000gn/T//ccU8HdeZ.s 			page 91


 4602              	.LVL595:
 4603 000a 1346     		mov	r3, r2
 4604              	.LVL596:
 4605 000c 094A     		ldr	r2, .L268+4
 4606              	.LVL597:
 593:/Users/imashio/Electronics/ARM/_Library/u8g2_d_setup.c ****   uint8_t tile_buf_height;
 4607              		.loc 1 593 0
 4608 000e 0446     		mov	r4, r0
 4609              		.loc 1 596 0
 4610 0010 FFF7FEFF 		bl	u8x8_Setup
 4611              	.LVL598:
 597:/Users/imashio/Electronics/ARM/_Library/u8g2_d_setup.c ****   buf = u8g2_m_8_4_1(&tile_buf_height);
 4612              		.loc 1 597 0
 4613 0014 0DF10F00 		add	r0, sp, #15
 4614 0018 FFF7FEFF 		bl	u8g2_m_8_4_1
 4615              	.LVL599:
 598:/Users/imashio/Electronics/ARM/_Library/u8g2_d_setup.c ****   u8g2_SetupBuffer(u8g2, buf, tile_buf_height, u8g2_ll_hvline_vertical_top_lsb, rotation);
 4616              		.loc 1 598 0
 4617 001c 9DF80F20 		ldrb	r2, [sp, #15]	@ zero_extendqisi2
 4618 0020 0095     		str	r5, [sp]
 4619 0022 0146     		mov	r1, r0
 4620 0024 044B     		ldr	r3, .L268+8
 4621 0026 2046     		mov	r0, r4
 4622              	.LVL600:
 4623 0028 FFF7FEFF 		bl	u8g2_SetupBuffer
 4624              	.LVL601:
 599:/Users/imashio/Electronics/ARM/_Library/u8g2_d_setup.c **** }
 4625              		.loc 1 599 0
 4626 002c 05B0     		add	sp, sp, #20
 4627              	.LCFI200:
 4628              		.cfi_def_cfa_offset 12
 4629              		@ sp needed
 4630 002e 30BD     		pop	{r4, r5, pc}
 4631              	.LVL602:
 4632              	.L269:
 4633              		.align	2
 4634              	.L268:
 4635 0030 00000000 		.word	u8x8_d_ssd1306_64x32_noname
 4636 0034 00000000 		.word	u8x8_cad_001
 4637 0038 00000000 		.word	u8g2_ll_hvline_vertical_top_lsb
 4638              		.cfi_endproc
 4639              	.LFE66:
 4641              		.section	.text.u8g2_Setup_ssd1306_64x32_1f_1,"ax",%progbits
 4642              		.align	1
 4643              		.p2align 2,,3
 4644              		.global	u8g2_Setup_ssd1306_64x32_1f_1
 4645              		.syntax unified
 4646              		.thumb
 4647              		.thumb_func
 4648              		.fpu fpv4-sp-d16
 4650              	u8g2_Setup_ssd1306_64x32_1f_1:
 4651              	.LFB67:
 600:/Users/imashio/Electronics/ARM/_Library/u8g2_d_setup.c **** void u8g2_Setup_ssd1306_64x32_1f_1(u8g2_t *u8g2, const u8g2_cb_t *rotation, u8x8_msg_cb byte_cb, u8
 601:/Users/imashio/Electronics/ARM/_Library/u8g2_d_setup.c **** {
 4652              		.loc 1 601 0
 4653              		.cfi_startproc
 4654              		@ args = 0, pretend = 0, frame = 8
ARM GAS  /var/folders/v3/wysfpd052nz8jkbx04pk0ym80000gn/T//ccU8HdeZ.s 			page 92


 4655              		@ frame_needed = 0, uses_anonymous_args = 0
 4656              	.LVL603:
 4657 0000 30B5     		push	{r4, r5, lr}
 4658              	.LCFI201:
 4659              		.cfi_def_cfa_offset 12
 4660              		.cfi_offset 4, -12
 4661              		.cfi_offset 5, -8
 4662              		.cfi_offset 14, -4
 4663 0002 85B0     		sub	sp, sp, #20
 4664              	.LCFI202:
 4665              		.cfi_def_cfa_offset 32
 4666              		.loc 1 601 0
 4667 0004 0D46     		mov	r5, r1
 602:/Users/imashio/Electronics/ARM/_Library/u8g2_d_setup.c ****   uint8_t tile_buf_height;
 603:/Users/imashio/Electronics/ARM/_Library/u8g2_d_setup.c ****   uint8_t *buf;
 604:/Users/imashio/Electronics/ARM/_Library/u8g2_d_setup.c ****   u8g2_SetupDisplay(u8g2, u8x8_d_ssd1306_64x32_1f, u8x8_cad_001, byte_cb, gpio_and_delay_cb);
 4668              		.loc 1 604 0
 4669 0006 0093     		str	r3, [sp]
 4670 0008 0949     		ldr	r1, .L272
 4671              	.LVL604:
 4672 000a 1346     		mov	r3, r2
 4673              	.LVL605:
 4674 000c 094A     		ldr	r2, .L272+4
 4675              	.LVL606:
 601:/Users/imashio/Electronics/ARM/_Library/u8g2_d_setup.c ****   uint8_t tile_buf_height;
 4676              		.loc 1 601 0
 4677 000e 0446     		mov	r4, r0
 4678              		.loc 1 604 0
 4679 0010 FFF7FEFF 		bl	u8x8_Setup
 4680              	.LVL607:
 605:/Users/imashio/Electronics/ARM/_Library/u8g2_d_setup.c ****   buf = u8g2_m_8_4_1(&tile_buf_height);
 4681              		.loc 1 605 0
 4682 0014 0DF10F00 		add	r0, sp, #15
 4683 0018 FFF7FEFF 		bl	u8g2_m_8_4_1
 4684              	.LVL608:
