ARM GAS  /var/folders/v3/wysfpd052nz8jkbx04pk0ym80000gn/T//ccN4d7ns.s 			page 1


   1              		.cpu cortex-m4
   2              		.eabi_attribute 27, 1
   3              		.eabi_attribute 28, 1
   4              		.eabi_attribute 20, 1
   5              		.eabi_attribute 21, 1
   6              		.eabi_attribute 23, 3
   7              		.eabi_attribute 24, 1
   8              		.eabi_attribute 25, 1
   9              		.eabi_attribute 26, 1
  10              		.eabi_attribute 30, 2
  11              		.eabi_attribute 34, 1
  12              		.eabi_attribute 18, 4
  13              		.file	"u8g2_bitmap.c"
  14              		.text
  15              	.Ltext0:
  16              		.cfi_sections	.debug_frame
  17              		.section	.text.u8g2_SetBitmapMode,"ax",%progbits
  18              		.align	1
  19              		.p2align 2,,3
  20              		.global	u8g2_SetBitmapMode
  21              		.syntax unified
  22              		.thumb
  23              		.thumb_func
  24              		.fpu fpv4-sp-d16
  26              	u8g2_SetBitmapMode:
  27              	.LFB0:
  28              		.file 1 "/Users/imashio/Electronics/ARM/_Library/u8g2_bitmap.c"
   1:/Users/imashio/Electronics/ARM/_Library/u8g2_bitmap.c **** /*
   2:/Users/imashio/Electronics/ARM/_Library/u8g2_bitmap.c **** 
   3:/Users/imashio/Electronics/ARM/_Library/u8g2_bitmap.c ****   u8g2_bitmap.c
   4:/Users/imashio/Electronics/ARM/_Library/u8g2_bitmap.c **** 
   5:/Users/imashio/Electronics/ARM/_Library/u8g2_bitmap.c ****   Universal 8bit Graphics Library (https://github.com/olikraus/u8g2/)
   6:/Users/imashio/Electronics/ARM/_Library/u8g2_bitmap.c **** 
   7:/Users/imashio/Electronics/ARM/_Library/u8g2_bitmap.c ****   Copyright (c) 2016, olikraus@gmail.com
   8:/Users/imashio/Electronics/ARM/_Library/u8g2_bitmap.c ****   All rights reserved.
   9:/Users/imashio/Electronics/ARM/_Library/u8g2_bitmap.c **** 
  10:/Users/imashio/Electronics/ARM/_Library/u8g2_bitmap.c ****   Redistribution and use in source and binary forms, with or without modification, 
  11:/Users/imashio/Electronics/ARM/_Library/u8g2_bitmap.c ****   are permitted provided that the following conditions are met:
  12:/Users/imashio/Electronics/ARM/_Library/u8g2_bitmap.c **** 
  13:/Users/imashio/Electronics/ARM/_Library/u8g2_bitmap.c ****   * Redistributions of source code must retain the above copyright notice, this list 
  14:/Users/imashio/Electronics/ARM/_Library/u8g2_bitmap.c ****     of conditions and the following disclaimer.
  15:/Users/imashio/Electronics/ARM/_Library/u8g2_bitmap.c ****     
  16:/Users/imashio/Electronics/ARM/_Library/u8g2_bitmap.c ****   * Redistributions in binary form must reproduce the above copyright notice, this 
  17:/Users/imashio/Electronics/ARM/_Library/u8g2_bitmap.c ****     list of conditions and the following disclaimer in the documentation and/or other 
  18:/Users/imashio/Electronics/ARM/_Library/u8g2_bitmap.c ****     materials provided with the distribution.
  19:/Users/imashio/Electronics/ARM/_Library/u8g2_bitmap.c **** 
  20:/Users/imashio/Electronics/ARM/_Library/u8g2_bitmap.c ****   THIS SOFTWARE IS PROVIDED BY THE COPYRIGHT HOLDERS AND 
  21:/Users/imashio/Electronics/ARM/_Library/u8g2_bitmap.c ****   CONTRIBUTORS "AS IS" AND ANY EXPRESS OR IMPLIED WARRANTIES, 
  22:/Users/imashio/Electronics/ARM/_Library/u8g2_bitmap.c ****   INCLUDING, BUT NOT LIMITED TO, THE IMPLIED WARRANTIES OF 
  23:/Users/imashio/Electronics/ARM/_Library/u8g2_bitmap.c ****   MERCHANTABILITY AND FITNESS FOR A PARTICULAR PURPOSE ARE 
  24:/Users/imashio/Electronics/ARM/_Library/u8g2_bitmap.c ****   DISCLAIMED. IN NO EVENT SHALL THE COPYRIGHT HOLDER OR 
  25:/Users/imashio/Electronics/ARM/_Library/u8g2_bitmap.c ****   CONTRIBUTORS BE LIABLE FOR ANY DIRECT, INDIRECT, INCIDENTAL, 
  26:/Users/imashio/Electronics/ARM/_Library/u8g2_bitmap.c ****   SPECIAL, EXEMPLARY, OR CONSEQUENTIAL DAMAGES (INCLUDING, BUT 
  27:/Users/imashio/Electronics/ARM/_Library/u8g2_bitmap.c ****   NOT LIMITED TO, PROCUREMENT OF SUBSTITUTE GOODS OR SERVICES; 
  28:/Users/imashio/Electronics/ARM/_Library/u8g2_bitmap.c ****   LOSS OF USE, DATA, OR PROFITS; OR BUSINESS INTERRUPTION) HOWEVER 
  29:/Users/imashio/Electronics/ARM/_Library/u8g2_bitmap.c ****   CAUSED AND ON ANY THEORY OF LIABILITY, WHETHER IN CONTRACT, 
  30:/Users/imashio/Electronics/ARM/_Library/u8g2_bitmap.c ****   STRICT LIABILITY, OR TORT (INCLUDING NEGLIGENCE OR OTHERWISE) 
ARM GAS  /var/folders/v3/wysfpd052nz8jkbx04pk0ym80000gn/T//ccN4d7ns.s 			page 2


  31:/Users/imashio/Electronics/ARM/_Library/u8g2_bitmap.c ****   ARISING IN ANY WAY OUT OF THE USE OF THIS SOFTWARE, EVEN IF 
  32:/Users/imashio/Electronics/ARM/_Library/u8g2_bitmap.c ****   ADVISED OF THE POSSIBILITY OF SUCH DAMAGE.  
  33:/Users/imashio/Electronics/ARM/_Library/u8g2_bitmap.c **** 
  34:/Users/imashio/Electronics/ARM/_Library/u8g2_bitmap.c **** */
  35:/Users/imashio/Electronics/ARM/_Library/u8g2_bitmap.c **** 
  36:/Users/imashio/Electronics/ARM/_Library/u8g2_bitmap.c **** #include "u8g2.h"
  37:/Users/imashio/Electronics/ARM/_Library/u8g2_bitmap.c **** 
  38:/Users/imashio/Electronics/ARM/_Library/u8g2_bitmap.c **** 
  39:/Users/imashio/Electronics/ARM/_Library/u8g2_bitmap.c **** void u8g2_SetBitmapMode(u8g2_t *u8g2, uint8_t is_transparent) {
  29              		.loc 1 39 0
  30              		.cfi_startproc
  31              		@ args = 0, pretend = 0, frame = 0
  32              		@ frame_needed = 0, uses_anonymous_args = 0
  33              		@ link register save eliminated.
  34              	.LVL0:
  40:/Users/imashio/Electronics/ARM/_Library/u8g2_bitmap.c ****   u8g2->bitmap_transparency = is_transparent;
  35              		.loc 1 40 0
  36 0000 80F87C10 		strb	r1, [r0, #124]
  41:/Users/imashio/Electronics/ARM/_Library/u8g2_bitmap.c **** }
  37              		.loc 1 41 0
  38 0004 7047     		bx	lr
  39              		.cfi_endproc
  40              	.LFE0:
  42 0006 00BF     		.section	.text.u8g2_DrawHorizontalBitmap,"ax",%progbits
  43              		.align	1
  44              		.p2align 2,,3
  45              		.global	u8g2_DrawHorizontalBitmap
  46              		.syntax unified
  47              		.thumb
  48              		.thumb_func
  49              		.fpu fpv4-sp-d16
  51              	u8g2_DrawHorizontalBitmap:
  52              	.LFB1:
  42:/Users/imashio/Electronics/ARM/_Library/u8g2_bitmap.c **** 
  43:/Users/imashio/Electronics/ARM/_Library/u8g2_bitmap.c **** /*
  44:/Users/imashio/Electronics/ARM/_Library/u8g2_bitmap.c ****   x,y 	Position on the display
  45:/Users/imashio/Electronics/ARM/_Library/u8g2_bitmap.c ****   len		Length of bitmap line in pixel. Note: This differs from u8glib which had a bytecount here.
  46:/Users/imashio/Electronics/ARM/_Library/u8g2_bitmap.c ****   b		Pointer to the bitmap line.
  47:/Users/imashio/Electronics/ARM/_Library/u8g2_bitmap.c ****   Only draw pixels which are set.
  48:/Users/imashio/Electronics/ARM/_Library/u8g2_bitmap.c **** */
  49:/Users/imashio/Electronics/ARM/_Library/u8g2_bitmap.c **** 
  50:/Users/imashio/Electronics/ARM/_Library/u8g2_bitmap.c **** void u8g2_DrawHorizontalBitmap(u8g2_t *u8g2, u8g2_uint_t x, u8g2_uint_t y, u8g2_uint_t len, const u
  51:/Users/imashio/Electronics/ARM/_Library/u8g2_bitmap.c **** {
  53              		.loc 1 51 0
  54              		.cfi_startproc
  55              		@ args = 4, pretend = 0, frame = 0
  56              		@ frame_needed = 0, uses_anonymous_args = 0
  57              	.LVL1:
  58 0000 2DE9F04F 		push	{r4, r5, r6, r7, r8, r9, r10, fp, lr}
  59              	.LCFI0:
  60              		.cfi_def_cfa_offset 36
  61              		.cfi_offset 4, -36
  62              		.cfi_offset 5, -32
  63              		.cfi_offset 6, -28
  64              		.cfi_offset 7, -24
  65              		.cfi_offset 8, -20
  66              		.cfi_offset 9, -16
ARM GAS  /var/folders/v3/wysfpd052nz8jkbx04pk0ym80000gn/T//ccN4d7ns.s 			page 3


  67              		.cfi_offset 10, -12
  68              		.cfi_offset 11, -8
  69              		.cfi_offset 14, -4
  52:/Users/imashio/Electronics/ARM/_Library/u8g2_bitmap.c ****   uint8_t mask;
  53:/Users/imashio/Electronics/ARM/_Library/u8g2_bitmap.c ****   uint8_t color = u8g2->draw_color;
  54:/Users/imashio/Electronics/ARM/_Library/u8g2_bitmap.c ****   uint8_t ncolor = (color == 0 ? 1 : 0);
  55:/Users/imashio/Electronics/ARM/_Library/u8g2_bitmap.c **** 
  56:/Users/imashio/Electronics/ARM/_Library/u8g2_bitmap.c **** #ifdef U8G2_WITH_INTERSECTION
  57:/Users/imashio/Electronics/ARM/_Library/u8g2_bitmap.c ****   if ( u8g2_IsIntersection(u8g2, x, y, x+len, y+1) == 0 ) 
  70              		.loc 1 57 0
  71 0004 01EB0308 		add	r8, r1, r3
  51:/Users/imashio/Electronics/ARM/_Library/u8g2_bitmap.c ****   uint8_t mask;
  72              		.loc 1 51 0
  73 0008 83B0     		sub	sp, sp, #12
  74              	.LCFI1:
  75              		.cfi_def_cfa_offset 48
  76              		.loc 1 57 0
  77 000a 551C     		adds	r5, r2, #1
  78 000c 5FFA88F8 		uxtb	r8, r8
  79 0010 EDB2     		uxtb	r5, r5
  51:/Users/imashio/Electronics/ARM/_Library/u8g2_bitmap.c ****   uint8_t mask;
  80              		.loc 1 51 0
  81 0012 9B46     		mov	fp, r3
  82              		.loc 1 57 0
  83 0014 0095     		str	r5, [sp]
  84 0016 4346     		mov	r3, r8
  85              	.LVL2:
  51:/Users/imashio/Electronics/ARM/_Library/u8g2_bitmap.c ****   uint8_t mask;
  86              		.loc 1 51 0
  87 0018 0C46     		mov	r4, r1
  88 001a 9146     		mov	r9, r2
  89 001c 0646     		mov	r6, r0
  53:/Users/imashio/Electronics/ARM/_Library/u8g2_bitmap.c ****   uint8_t ncolor = (color == 0 ? 1 : 0);
  90              		.loc 1 53 0
  91 001e 90F87DA0 		ldrb	r10, [r0, #125]	@ zero_extendqisi2
  92              	.LVL3:
  51:/Users/imashio/Electronics/ARM/_Library/u8g2_bitmap.c ****   uint8_t mask;
  93              		.loc 1 51 0
  94 0022 0C9F     		ldr	r7, [sp, #48]
  95              		.loc 1 57 0
  96 0024 FFF7FEFF 		bl	u8g2_IsIntersection
  97              	.LVL4:
  98 0028 08B3     		cbz	r0, .L3
  99              	.LVL5:
  58:/Users/imashio/Electronics/ARM/_Library/u8g2_bitmap.c ****     return;
  59:/Users/imashio/Electronics/ARM/_Library/u8g2_bitmap.c **** #endif /* U8G2_WITH_INTERSECTION */
  60:/Users/imashio/Electronics/ARM/_Library/u8g2_bitmap.c ****   
  61:/Users/imashio/Electronics/ARM/_Library/u8g2_bitmap.c ****   mask = 128;
  62:/Users/imashio/Electronics/ARM/_Library/u8g2_bitmap.c ****   while(len > 0)
 100              		.loc 1 62 0
 101 002a BBF1000F 		cmp	fp, #0
 102 002e 1CD0     		beq	.L5
  61:/Users/imashio/Electronics/ARM/_Library/u8g2_bitmap.c ****   while(len > 0)
 103              		.loc 1 61 0
 104 0030 8025     		movs	r5, #128
  63:/Users/imashio/Electronics/ARM/_Library/u8g2_bitmap.c ****   {
  64:/Users/imashio/Electronics/ARM/_Library/u8g2_bitmap.c ****     if ( *b & mask ) {
ARM GAS  /var/folders/v3/wysfpd052nz8jkbx04pk0ym80000gn/T//ccN4d7ns.s 			page 4


  65:/Users/imashio/Electronics/ARM/_Library/u8g2_bitmap.c ****       u8g2->draw_color = color;
  66:/Users/imashio/Electronics/ARM/_Library/u8g2_bitmap.c ****       u8g2_DrawHVLine(u8g2, x, y, 1, 0);
 105              		.loc 1 66 0
 106 0032 4FF0000B 		mov	fp, #0
 107              	.LVL6:
 108 0036 0AE0     		b	.L9
 109              	.LVL7:
 110              	.L6:
  67:/Users/imashio/Electronics/ARM/_Library/u8g2_bitmap.c ****     } else if ( u8g2->bitmap_transparency == 0 ) {
 111              		.loc 1 67 0
 112 0038 96F87C30 		ldrb	r3, [r6, #124]	@ zero_extendqisi2
 113 003c D3B1     		cbz	r3, .L19
 114              	.L7:
 115              	.LVL8:
  68:/Users/imashio/Electronics/ARM/_Library/u8g2_bitmap.c ****       u8g2->draw_color = ncolor;
  69:/Users/imashio/Electronics/ARM/_Library/u8g2_bitmap.c ****       u8g2_DrawHVLine(u8g2, x, y, 1, 0);
  70:/Users/imashio/Electronics/ARM/_Library/u8g2_bitmap.c ****     }
  71:/Users/imashio/Electronics/ARM/_Library/u8g2_bitmap.c **** 
  72:/Users/imashio/Electronics/ARM/_Library/u8g2_bitmap.c ****     x++;
 116              		.loc 1 72 0
 117 003e 0134     		adds	r4, r4, #1
 118              	.LVL9:
  73:/Users/imashio/Electronics/ARM/_Library/u8g2_bitmap.c ****     mask >>= 1;
  74:/Users/imashio/Electronics/ARM/_Library/u8g2_bitmap.c ****     if ( mask == 0 )
 119              		.loc 1 74 0
 120 0040 6D08     		lsrs	r5, r5, #1
  72:/Users/imashio/Electronics/ARM/_Library/u8g2_bitmap.c ****     mask >>= 1;
 121              		.loc 1 72 0
 122 0042 E4B2     		uxtb	r4, r4
 123              	.LVL10:
  75:/Users/imashio/Electronics/ARM/_Library/u8g2_bitmap.c ****     {
  76:/Users/imashio/Electronics/ARM/_Library/u8g2_bitmap.c ****       mask = 128;
  77:/Users/imashio/Electronics/ARM/_Library/u8g2_bitmap.c ****       b++;
 124              		.loc 1 77 0
 125 0044 04BF     		itt	eq
 126 0046 0137     		addeq	r7, r7, #1
 127              	.LVL11:
  76:/Users/imashio/Electronics/ARM/_Library/u8g2_bitmap.c ****       b++;
 128              		.loc 1 76 0
 129 0048 8025     		moveq	r5, #128
 130              	.LVL12:
  62:/Users/imashio/Electronics/ARM/_Library/u8g2_bitmap.c ****   {
 131              		.loc 1 62 0
 132 004a A045     		cmp	r8, r4
 133 004c 0DD0     		beq	.L5
 134              	.LVL13:
 135              	.L9:
  64:/Users/imashio/Electronics/ARM/_Library/u8g2_bitmap.c ****       u8g2->draw_color = color;
 136              		.loc 1 64 0
 137 004e 3B78     		ldrb	r3, [r7]	@ zero_extendqisi2
 138 0050 1D42     		tst	r5, r3
 139 0052 F1D0     		beq	.L6
  65:/Users/imashio/Electronics/ARM/_Library/u8g2_bitmap.c ****       u8g2_DrawHVLine(u8g2, x, y, 1, 0);
 140              		.loc 1 65 0
 141 0054 86F87DA0 		strb	r10, [r6, #125]
  66:/Users/imashio/Electronics/ARM/_Library/u8g2_bitmap.c ****     } else if ( u8g2->bitmap_transparency == 0 ) {
 142              		.loc 1 66 0
ARM GAS  /var/folders/v3/wysfpd052nz8jkbx04pk0ym80000gn/T//ccN4d7ns.s 			page 5


 143 0058 CDF800B0 		str	fp, [sp]
 144              	.L18:
  69:/Users/imashio/Electronics/ARM/_Library/u8g2_bitmap.c ****     }
 145              		.loc 1 69 0
 146 005c 0123     		movs	r3, #1
 147 005e 4A46     		mov	r2, r9
 148 0060 2146     		mov	r1, r4
 149 0062 3046     		mov	r0, r6
 150 0064 FFF7FEFF 		bl	u8g2_DrawHVLine
 151              	.LVL14:
 152 0068 E9E7     		b	.L7
 153              	.LVL15:
 154              	.L5:
  78:/Users/imashio/Electronics/ARM/_Library/u8g2_bitmap.c ****     }
  79:/Users/imashio/Electronics/ARM/_Library/u8g2_bitmap.c ****     len--;
  80:/Users/imashio/Electronics/ARM/_Library/u8g2_bitmap.c ****   }
  81:/Users/imashio/Electronics/ARM/_Library/u8g2_bitmap.c ****   u8g2->draw_color = color;
 155              		.loc 1 81 0
 156 006a 86F87DA0 		strb	r10, [r6, #125]
 157              	.LVL16:
 158              	.L3:
  82:/Users/imashio/Electronics/ARM/_Library/u8g2_bitmap.c **** }
 159              		.loc 1 82 0
 160 006e 03B0     		add	sp, sp, #12
 161              	.LCFI2:
 162              		.cfi_remember_state
 163              		.cfi_def_cfa_offset 36
 164              		@ sp needed
 165 0070 BDE8F08F 		pop	{r4, r5, r6, r7, r8, r9, r10, fp, pc}
 166              	.LVL17:
 167              	.L19:
 168              	.LCFI3:
 169              		.cfi_restore_state
  54:/Users/imashio/Electronics/ARM/_Library/u8g2_bitmap.c **** 
 170              		.loc 1 54 0
 171 0074 BAFA8AF2 		clz	r2, r10
 172 0078 5209     		lsrs	r2, r2, #5
  69:/Users/imashio/Electronics/ARM/_Library/u8g2_bitmap.c ****     }
 173              		.loc 1 69 0
 174 007a 0093     		str	r3, [sp]
  54:/Users/imashio/Electronics/ARM/_Library/u8g2_bitmap.c **** 
 175              		.loc 1 54 0
 176 007c 86F87D20 		strb	r2, [r6, #125]
 177 0080 ECE7     		b	.L18
 178              		.cfi_endproc
 179              	.LFE1:
 181 0082 00BF     		.section	.text.u8g2_DrawBitmap,"ax",%progbits
 182              		.align	1
 183              		.p2align 2,,3
 184              		.global	u8g2_DrawBitmap
 185              		.syntax unified
 186              		.thumb
 187              		.thumb_func
 188              		.fpu fpv4-sp-d16
 190              	u8g2_DrawBitmap:
 191              	.LFB2:
  83:/Users/imashio/Electronics/ARM/_Library/u8g2_bitmap.c **** 
ARM GAS  /var/folders/v3/wysfpd052nz8jkbx04pk0ym80000gn/T//ccN4d7ns.s 			page 6


  84:/Users/imashio/Electronics/ARM/_Library/u8g2_bitmap.c **** 
  85:/Users/imashio/Electronics/ARM/_Library/u8g2_bitmap.c **** /* u8glib compatible bitmap draw function */
  86:/Users/imashio/Electronics/ARM/_Library/u8g2_bitmap.c **** void u8g2_DrawBitmap(u8g2_t *u8g2, u8g2_uint_t x, u8g2_uint_t y, u8g2_uint_t cnt, u8g2_uint_t h, co
  87:/Users/imashio/Electronics/ARM/_Library/u8g2_bitmap.c **** {
 192              		.loc 1 87 0
 193              		.cfi_startproc
 194              		@ args = 8, pretend = 0, frame = 0
 195              		@ frame_needed = 0, uses_anonymous_args = 0
 196              	.LVL18:
 197 0000 2DE9F04F 		push	{r4, r5, r6, r7, r8, r9, r10, fp, lr}
 198              	.LCFI4:
 199              		.cfi_def_cfa_offset 36
 200              		.cfi_offset 4, -36
 201              		.cfi_offset 5, -32
 202              		.cfi_offset 6, -28
 203              		.cfi_offset 7, -24
 204              		.cfi_offset 8, -20
 205              		.cfi_offset 9, -16
 206              		.cfi_offset 10, -12
 207              		.cfi_offset 11, -8
 208              		.cfi_offset 14, -4
 209 0004 83B0     		sub	sp, sp, #12
 210              	.LCFI5:
 211              		.cfi_def_cfa_offset 48
  88:/Users/imashio/Electronics/ARM/_Library/u8g2_bitmap.c ****   u8g2_uint_t w;
  89:/Users/imashio/Electronics/ARM/_Library/u8g2_bitmap.c ****   w = cnt;
  90:/Users/imashio/Electronics/ARM/_Library/u8g2_bitmap.c ****   w *= 8;
 212              		.loc 1 90 0
 213 0006 DF00     		lsls	r7, r3, #3
  87:/Users/imashio/Electronics/ARM/_Library/u8g2_bitmap.c ****   u8g2_uint_t w;
 214              		.loc 1 87 0
 215 0008 9DF830B0 		ldrb	fp, [sp, #48]	@ zero_extendqisi2
 216 000c 0D9D     		ldr	r5, [sp, #52]
 217              		.loc 1 90 0
 218 000e FFB2     		uxtb	r7, r7
  91:/Users/imashio/Electronics/ARM/_Library/u8g2_bitmap.c **** #ifdef U8G2_WITH_INTERSECTION
  92:/Users/imashio/Electronics/ARM/_Library/u8g2_bitmap.c ****   if ( u8g2_IsIntersection(u8g2, x, y, x+w, y+h) == 0 ) 
 219              		.loc 1 92 0
 220 0010 02EB0B06 		add	r6, r2, fp
  87:/Users/imashio/Electronics/ARM/_Library/u8g2_bitmap.c ****   u8g2_uint_t w;
 221              		.loc 1 87 0
 222 0014 9946     		mov	r9, r3
 223              	.LVL19:
 224              		.loc 1 92 0
 225 0016 F6B2     		uxtb	r6, r6
 226 0018 7B18     		adds	r3, r7, r1
 227              	.LVL20:
 228 001a DBB2     		uxtb	r3, r3
 229 001c 0096     		str	r6, [sp]
  87:/Users/imashio/Electronics/ARM/_Library/u8g2_bitmap.c ****   u8g2_uint_t w;
 230              		.loc 1 87 0
 231 001e 1446     		mov	r4, r2
 232 0020 8846     		mov	r8, r1
 233 0022 8246     		mov	r10, r0
 234              		.loc 1 92 0
 235 0024 FFF7FEFF 		bl	u8g2_IsIntersection
 236              	.LVL21:
ARM GAS  /var/folders/v3/wysfpd052nz8jkbx04pk0ym80000gn/T//ccN4d7ns.s 			page 7


 237 0028 70B1     		cbz	r0, .L20
 238              	.LVL22:
  93:/Users/imashio/Electronics/ARM/_Library/u8g2_bitmap.c ****     return;
  94:/Users/imashio/Electronics/ARM/_Library/u8g2_bitmap.c **** #endif /* U8G2_WITH_INTERSECTION */
  95:/Users/imashio/Electronics/ARM/_Library/u8g2_bitmap.c ****   
  96:/Users/imashio/Electronics/ARM/_Library/u8g2_bitmap.c ****   while( h > 0 )
 239              		.loc 1 96 0
 240 002a BBF1000F 		cmp	fp, #0
 241 002e 0BD0     		beq	.L20
 242              	.LVL23:
 243              	.L22:
  97:/Users/imashio/Electronics/ARM/_Library/u8g2_bitmap.c ****   {
  98:/Users/imashio/Electronics/ARM/_Library/u8g2_bitmap.c ****     u8g2_DrawHorizontalBitmap(u8g2, x, y, w, bitmap);
 244              		.loc 1 98 0
 245 0030 2246     		mov	r2, r4
  99:/Users/imashio/Electronics/ARM/_Library/u8g2_bitmap.c ****     bitmap += cnt;
 100:/Users/imashio/Electronics/ARM/_Library/u8g2_bitmap.c ****     y++;
 246              		.loc 1 100 0
 247 0032 0134     		adds	r4, r4, #1
 248              	.LVL24:
  98:/Users/imashio/Electronics/ARM/_Library/u8g2_bitmap.c ****     bitmap += cnt;
 249              		.loc 1 98 0
 250 0034 0095     		str	r5, [sp]
 251 0036 3B46     		mov	r3, r7
 252 0038 4146     		mov	r1, r8
 253 003a 5046     		mov	r0, r10
 254              		.loc 1 100 0
 255 003c E4B2     		uxtb	r4, r4
  98:/Users/imashio/Electronics/ARM/_Library/u8g2_bitmap.c ****     bitmap += cnt;
 256              		.loc 1 98 0
 257 003e FFF7FEFF 		bl	u8g2_DrawHorizontalBitmap
 258              	.LVL25:
  96:/Users/imashio/Electronics/ARM/_Library/u8g2_bitmap.c ****   {
 259              		.loc 1 96 0
 260 0042 A642     		cmp	r6, r4
  99:/Users/imashio/Electronics/ARM/_Library/u8g2_bitmap.c ****     bitmap += cnt;
 261              		.loc 1 99 0
 262 0044 4D44     		add	r5, r5, r9
 263              	.LVL26:
  96:/Users/imashio/Electronics/ARM/_Library/u8g2_bitmap.c ****   {
 264              		.loc 1 96 0
 265 0046 F3D1     		bne	.L22
 266              	.LVL27:
 267              	.L20:
 101:/Users/imashio/Electronics/ARM/_Library/u8g2_bitmap.c ****     h--;
 102:/Users/imashio/Electronics/ARM/_Library/u8g2_bitmap.c ****   }
 103:/Users/imashio/Electronics/ARM/_Library/u8g2_bitmap.c **** }
 268              		.loc 1 103 0
 269 0048 03B0     		add	sp, sp, #12
 270              	.LCFI6:
 271              		.cfi_def_cfa_offset 36
 272              		@ sp needed
 273 004a BDE8F08F 		pop	{r4, r5, r6, r7, r8, r9, r10, fp, pc}
 274              		.cfi_endproc
 275              	.LFE2:
 277 004e 00BF     		.section	.text.u8g2_DrawHXBM,"ax",%progbits
 278              		.align	1
ARM GAS  /var/folders/v3/wysfpd052nz8jkbx04pk0ym80000gn/T//ccN4d7ns.s 			page 8


 279              		.p2align 2,,3
 280              		.global	u8g2_DrawHXBM
 281              		.syntax unified
 282              		.thumb
 283              		.thumb_func
 284              		.fpu fpv4-sp-d16
 286              	u8g2_DrawHXBM:
 287              	.LFB3:
 104:/Users/imashio/Electronics/ARM/_Library/u8g2_bitmap.c **** 
 105:/Users/imashio/Electronics/ARM/_Library/u8g2_bitmap.c **** 
 106:/Users/imashio/Electronics/ARM/_Library/u8g2_bitmap.c **** 
 107:/Users/imashio/Electronics/ARM/_Library/u8g2_bitmap.c **** void u8g2_DrawHXBM(u8g2_t *u8g2, u8g2_uint_t x, u8g2_uint_t y, u8g2_uint_t len, const uint8_t *b)
 108:/Users/imashio/Electronics/ARM/_Library/u8g2_bitmap.c **** {
 288              		.loc 1 108 0
 289              		.cfi_startproc
 290              		@ args = 4, pretend = 0, frame = 0
 291              		@ frame_needed = 0, uses_anonymous_args = 0
 292              	.LVL28:
 293 0000 2DE9F04F 		push	{r4, r5, r6, r7, r8, r9, r10, fp, lr}
 294              	.LCFI7:
 295              		.cfi_def_cfa_offset 36
 296              		.cfi_offset 4, -36
 297              		.cfi_offset 5, -32
 298              		.cfi_offset 6, -28
 299              		.cfi_offset 7, -24
 300              		.cfi_offset 8, -20
 301              		.cfi_offset 9, -16
 302              		.cfi_offset 10, -12
 303              		.cfi_offset 11, -8
 304              		.cfi_offset 14, -4
 109:/Users/imashio/Electronics/ARM/_Library/u8g2_bitmap.c ****   uint8_t mask;
 110:/Users/imashio/Electronics/ARM/_Library/u8g2_bitmap.c ****   uint8_t color = u8g2->draw_color;
 111:/Users/imashio/Electronics/ARM/_Library/u8g2_bitmap.c ****   uint8_t ncolor = (color == 0 ? 1 : 0);
 112:/Users/imashio/Electronics/ARM/_Library/u8g2_bitmap.c **** #ifdef U8G2_WITH_INTERSECTION
 113:/Users/imashio/Electronics/ARM/_Library/u8g2_bitmap.c ****   if ( u8g2_IsIntersection(u8g2, x, y, x+len, y+1) == 0 ) 
 305              		.loc 1 113 0
 306 0004 01EB0308 		add	r8, r1, r3
 108:/Users/imashio/Electronics/ARM/_Library/u8g2_bitmap.c ****   uint8_t mask;
 307              		.loc 1 108 0
 308 0008 83B0     		sub	sp, sp, #12
 309              	.LCFI8:
 310              		.cfi_def_cfa_offset 48
 311              		.loc 1 113 0
 312 000a 541C     		adds	r4, r2, #1
 313 000c 5FFA88F8 		uxtb	r8, r8
 314 0010 E4B2     		uxtb	r4, r4
 108:/Users/imashio/Electronics/ARM/_Library/u8g2_bitmap.c ****   uint8_t mask;
 315              		.loc 1 108 0
 316 0012 9B46     		mov	fp, r3
 317              		.loc 1 113 0
 318 0014 0094     		str	r4, [sp]
 319 0016 4346     		mov	r3, r8
 320              	.LVL29:
 108:/Users/imashio/Electronics/ARM/_Library/u8g2_bitmap.c ****   uint8_t mask;
 321              		.loc 1 108 0
 322 0018 0D46     		mov	r5, r1
 323 001a 9146     		mov	r9, r2
ARM GAS  /var/folders/v3/wysfpd052nz8jkbx04pk0ym80000gn/T//ccN4d7ns.s 			page 9


 324 001c 0646     		mov	r6, r0
 110:/Users/imashio/Electronics/ARM/_Library/u8g2_bitmap.c ****   uint8_t ncolor = (color == 0 ? 1 : 0);
 325              		.loc 1 110 0
 326 001e 90F87DA0 		ldrb	r10, [r0, #125]	@ zero_extendqisi2
 327              	.LVL30:
 108:/Users/imashio/Electronics/ARM/_Library/u8g2_bitmap.c ****   uint8_t mask;
 328              		.loc 1 108 0
 329 0022 0C9F     		ldr	r7, [sp, #48]
 330              		.loc 1 113 0
 331 0024 FFF7FEFF 		bl	u8g2_IsIntersection
 332              	.LVL31:
 333 0028 18B3     		cbz	r0, .L31
 334              	.LVL32:
 114:/Users/imashio/Electronics/ARM/_Library/u8g2_bitmap.c ****     return;
 115:/Users/imashio/Electronics/ARM/_Library/u8g2_bitmap.c **** #endif /* U8G2_WITH_INTERSECTION */
 116:/Users/imashio/Electronics/ARM/_Library/u8g2_bitmap.c ****   
 117:/Users/imashio/Electronics/ARM/_Library/u8g2_bitmap.c ****   mask = 1;
 118:/Users/imashio/Electronics/ARM/_Library/u8g2_bitmap.c ****   while(len > 0) {
 335              		.loc 1 118 0
 336 002a BBF1000F 		cmp	fp, #0
 337 002e 1ED0     		beq	.L33
 117:/Users/imashio/Electronics/ARM/_Library/u8g2_bitmap.c ****   while(len > 0) {
 338              		.loc 1 117 0
 339 0030 0124     		movs	r4, #1
 119:/Users/imashio/Electronics/ARM/_Library/u8g2_bitmap.c ****     if ( *b & mask ) {
 120:/Users/imashio/Electronics/ARM/_Library/u8g2_bitmap.c ****       u8g2->draw_color = color;
 121:/Users/imashio/Electronics/ARM/_Library/u8g2_bitmap.c ****       u8g2_DrawHVLine(u8g2, x, y, 1, 0);
 340              		.loc 1 121 0
 341 0032 4FF0000B 		mov	fp, #0
 342              	.LVL33:
 343 0036 0CE0     		b	.L37
 344              	.LVL34:
 345              	.L34:
 122:/Users/imashio/Electronics/ARM/_Library/u8g2_bitmap.c ****     } else if ( u8g2->bitmap_transparency == 0 ) {
 346              		.loc 1 122 0
 347 0038 96F87C30 		ldrb	r3, [r6, #124]	@ zero_extendqisi2
 348 003c E3B1     		cbz	r3, .L47
 349              	.L35:
 350              	.LVL35:
 123:/Users/imashio/Electronics/ARM/_Library/u8g2_bitmap.c ****       u8g2->draw_color = ncolor;
 124:/Users/imashio/Electronics/ARM/_Library/u8g2_bitmap.c ****       u8g2_DrawHVLine(u8g2, x, y, 1, 0);
 125:/Users/imashio/Electronics/ARM/_Library/u8g2_bitmap.c ****     }
 126:/Users/imashio/Electronics/ARM/_Library/u8g2_bitmap.c ****     x++;
 351              		.loc 1 126 0
 352 003e 0135     		adds	r5, r5, #1
 353              	.LVL36:
 127:/Users/imashio/Electronics/ARM/_Library/u8g2_bitmap.c ****     mask <<= 1;
 354              		.loc 1 127 0
 355 0040 6400     		lsls	r4, r4, #1
 128:/Users/imashio/Electronics/ARM/_Library/u8g2_bitmap.c ****     if ( mask == 0 )
 356              		.loc 1 128 0
 357 0042 14F0FF04 		ands	r4, r4, #255
 126:/Users/imashio/Electronics/ARM/_Library/u8g2_bitmap.c ****     mask <<= 1;
 358              		.loc 1 126 0
 359 0046 EDB2     		uxtb	r5, r5
 360              	.LVL37:
 129:/Users/imashio/Electronics/ARM/_Library/u8g2_bitmap.c ****     {
ARM GAS  /var/folders/v3/wysfpd052nz8jkbx04pk0ym80000gn/T//ccN4d7ns.s 			page 10


 130:/Users/imashio/Electronics/ARM/_Library/u8g2_bitmap.c ****       mask = 1;
 131:/Users/imashio/Electronics/ARM/_Library/u8g2_bitmap.c ****       b++;
 361              		.loc 1 131 0
 362 0048 04BF     		itt	eq
 363 004a 0137     		addeq	r7, r7, #1
 364              	.LVL38:
 130:/Users/imashio/Electronics/ARM/_Library/u8g2_bitmap.c ****       b++;
 365              		.loc 1 130 0
 366 004c 0124     		moveq	r4, #1
 367              	.LVL39:
 118:/Users/imashio/Electronics/ARM/_Library/u8g2_bitmap.c ****     if ( *b & mask ) {
 368              		.loc 1 118 0
 369 004e A845     		cmp	r8, r5
 370 0050 0DD0     		beq	.L33
 371              	.LVL40:
 372              	.L37:
 119:/Users/imashio/Electronics/ARM/_Library/u8g2_bitmap.c ****       u8g2->draw_color = color;
 373              		.loc 1 119 0
 374 0052 3B78     		ldrb	r3, [r7]	@ zero_extendqisi2
 375 0054 1C42     		tst	r4, r3
 376 0056 EFD0     		beq	.L34
 120:/Users/imashio/Electronics/ARM/_Library/u8g2_bitmap.c ****       u8g2_DrawHVLine(u8g2, x, y, 1, 0);
 377              		.loc 1 120 0
 378 0058 86F87DA0 		strb	r10, [r6, #125]
 121:/Users/imashio/Electronics/ARM/_Library/u8g2_bitmap.c ****     } else if ( u8g2->bitmap_transparency == 0 ) {
 379              		.loc 1 121 0
 380 005c CDF800B0 		str	fp, [sp]
 381              	.L46:
 124:/Users/imashio/Electronics/ARM/_Library/u8g2_bitmap.c ****     }
 382              		.loc 1 124 0
 383 0060 0123     		movs	r3, #1
 384 0062 4A46     		mov	r2, r9
 385 0064 2946     		mov	r1, r5
 386 0066 3046     		mov	r0, r6
 387 0068 FFF7FEFF 		bl	u8g2_DrawHVLine
 388              	.LVL41:
 389 006c E7E7     		b	.L35
 390              	.LVL42:
 391              	.L33:
 132:/Users/imashio/Electronics/ARM/_Library/u8g2_bitmap.c ****     }
 133:/Users/imashio/Electronics/ARM/_Library/u8g2_bitmap.c ****     len--;
 134:/Users/imashio/Electronics/ARM/_Library/u8g2_bitmap.c ****   }
 135:/Users/imashio/Electronics/ARM/_Library/u8g2_bitmap.c ****   u8g2->draw_color = color;
 392              		.loc 1 135 0
 393 006e 86F87DA0 		strb	r10, [r6, #125]
 394              	.LVL43:
 395              	.L31:
 136:/Users/imashio/Electronics/ARM/_Library/u8g2_bitmap.c **** }
 396              		.loc 1 136 0
 397 0072 03B0     		add	sp, sp, #12
 398              	.LCFI9:
 399              		.cfi_remember_state
 400              		.cfi_def_cfa_offset 36
 401              		@ sp needed
 402 0074 BDE8F08F 		pop	{r4, r5, r6, r7, r8, r9, r10, fp, pc}
 403              	.LVL44:
 404              	.L47:
ARM GAS  /var/folders/v3/wysfpd052nz8jkbx04pk0ym80000gn/T//ccN4d7ns.s 			page 11


 405              	.LCFI10:
 406              		.cfi_restore_state
 111:/Users/imashio/Electronics/ARM/_Library/u8g2_bitmap.c **** #ifdef U8G2_WITH_INTERSECTION
 407              		.loc 1 111 0
 408 0078 BAFA8AF2 		clz	r2, r10
 409 007c 5209     		lsrs	r2, r2, #5
 124:/Users/imashio/Electronics/ARM/_Library/u8g2_bitmap.c ****     }
 410              		.loc 1 124 0
 411 007e 0093     		str	r3, [sp]
 111:/Users/imashio/Electronics/ARM/_Library/u8g2_bitmap.c **** #ifdef U8G2_WITH_INTERSECTION
 412              		.loc 1 111 0
 413 0080 86F87D20 		strb	r2, [r6, #125]
 414 0084 ECE7     		b	.L46
 415              		.cfi_endproc
 416              	.LFE3:
 418 0086 00BF     		.section	.text.u8g2_DrawXBM,"ax",%progbits
 419              		.align	1
 420              		.p2align 2,,3
 421              		.global	u8g2_DrawXBM
 422              		.syntax unified
 423              		.thumb
 424              		.thumb_func
 425              		.fpu fpv4-sp-d16
 427              	u8g2_DrawXBM:
 428              	.LFB4:
 137:/Users/imashio/Electronics/ARM/_Library/u8g2_bitmap.c **** 
 138:/Users/imashio/Electronics/ARM/_Library/u8g2_bitmap.c **** 
 139:/Users/imashio/Electronics/ARM/_Library/u8g2_bitmap.c **** void u8g2_DrawXBM(u8g2_t *u8g2, u8g2_uint_t x, u8g2_uint_t y, u8g2_uint_t w, u8g2_uint_t h, const u
 140:/Users/imashio/Electronics/ARM/_Library/u8g2_bitmap.c **** {
 429              		.loc 1 140 0
 430              		.cfi_startproc
 431              		@ args = 8, pretend = 0, frame = 0
 432              		@ frame_needed = 0, uses_anonymous_args = 0
 433              	.LVL45:
 434 0000 2DE9F047 		push	{r4, r5, r6, r7, r8, r9, r10, lr}
 435              	.LCFI11:
 436              		.cfi_def_cfa_offset 32
 437              		.cfi_offset 4, -32
 438              		.cfi_offset 5, -28
 439              		.cfi_offset 6, -24
 440              		.cfi_offset 7, -20
 441              		.cfi_offset 8, -16
 442              		.cfi_offset 9, -12
 443              		.cfi_offset 10, -8
 444              		.cfi_offset 14, -4
 445 0004 82B0     		sub	sp, sp, #8
 446              	.LCFI12:
 447              		.cfi_def_cfa_offset 40
 448              		.loc 1 140 0
 449 0006 1F46     		mov	r7, r3
 450              	.LVL46:
 451 0008 9DF82890 		ldrb	r9, [sp, #40]	@ zero_extendqisi2
 452 000c 0B9D     		ldr	r5, [sp, #44]
 141:/Users/imashio/Electronics/ARM/_Library/u8g2_bitmap.c ****   u8g2_uint_t blen;
 142:/Users/imashio/Electronics/ARM/_Library/u8g2_bitmap.c ****   blen = w;
 143:/Users/imashio/Electronics/ARM/_Library/u8g2_bitmap.c ****   blen += 7;
 144:/Users/imashio/Electronics/ARM/_Library/u8g2_bitmap.c ****   blen >>= 3;
ARM GAS  /var/folders/v3/wysfpd052nz8jkbx04pk0ym80000gn/T//ccN4d7ns.s 			page 12


 145:/Users/imashio/Electronics/ARM/_Library/u8g2_bitmap.c **** #ifdef U8G2_WITH_INTERSECTION
 146:/Users/imashio/Electronics/ARM/_Library/u8g2_bitmap.c ****   if ( u8g2_IsIntersection(u8g2, x, y, x+w, y+h) == 0 ) 
 453              		.loc 1 146 0
 454 000e 02EB0906 		add	r6, r2, r9
 455 0012 F6B2     		uxtb	r6, r6
 456 0014 0B44     		add	r3, r3, r1
 457              	.LVL47:
 458 0016 0096     		str	r6, [sp]
 459 0018 DBB2     		uxtb	r3, r3
 140:/Users/imashio/Electronics/ARM/_Library/u8g2_bitmap.c ****   u8g2_uint_t blen;
 460              		.loc 1 140 0
 461 001a 1446     		mov	r4, r2
 462 001c 8846     		mov	r8, r1
 463 001e 8246     		mov	r10, r0
 464              		.loc 1 146 0
 465 0020 FFF7FEFF 		bl	u8g2_IsIntersection
 466              	.LVL48:
 467 0024 90B1     		cbz	r0, .L48
 468              	.LVL49:
 147:/Users/imashio/Electronics/ARM/_Library/u8g2_bitmap.c ****     return;
 148:/Users/imashio/Electronics/ARM/_Library/u8g2_bitmap.c **** #endif /* U8G2_WITH_INTERSECTION */
 149:/Users/imashio/Electronics/ARM/_Library/u8g2_bitmap.c ****   
 150:/Users/imashio/Electronics/ARM/_Library/u8g2_bitmap.c ****   while( h > 0 )
 469              		.loc 1 150 0
 470 0026 B9F1000F 		cmp	r9, #0
 471 002a 0FD0     		beq	.L48
 143:/Users/imashio/Electronics/ARM/_Library/u8g2_bitmap.c ****   blen >>= 3;
 472              		.loc 1 143 0
 473 002c 07F10709 		add	r9, r7, #7
 474              	.LVL50:
 475 0030 C9F3C409 		ubfx	r9, r9, #3, #5
 476              	.LVL51:
 477              	.L50:
 151:/Users/imashio/Electronics/ARM/_Library/u8g2_bitmap.c ****   {
 152:/Users/imashio/Electronics/ARM/_Library/u8g2_bitmap.c ****     u8g2_DrawHXBM(u8g2, x, y, w, bitmap);
 478              		.loc 1 152 0
 479 0034 2246     		mov	r2, r4
 153:/Users/imashio/Electronics/ARM/_Library/u8g2_bitmap.c ****     bitmap += blen;
 154:/Users/imashio/Electronics/ARM/_Library/u8g2_bitmap.c ****     y++;
 480              		.loc 1 154 0
 481 0036 0134     		adds	r4, r4, #1
 482              	.LVL52:
 152:/Users/imashio/Electronics/ARM/_Library/u8g2_bitmap.c ****     bitmap += blen;
 483              		.loc 1 152 0
 484 0038 0095     		str	r5, [sp]
 485 003a 3B46     		mov	r3, r7
 486 003c 4146     		mov	r1, r8
 487 003e 5046     		mov	r0, r10
 488              		.loc 1 154 0
 489 0040 E4B2     		uxtb	r4, r4
 152:/Users/imashio/Electronics/ARM/_Library/u8g2_bitmap.c ****     bitmap += blen;
 490              		.loc 1 152 0
 491 0042 FFF7FEFF 		bl	u8g2_DrawHXBM
 492              	.LVL53:
 150:/Users/imashio/Electronics/ARM/_Library/u8g2_bitmap.c ****   {
 493              		.loc 1 150 0
 494 0046 A642     		cmp	r6, r4
ARM GAS  /var/folders/v3/wysfpd052nz8jkbx04pk0ym80000gn/T//ccN4d7ns.s 			page 13


 153:/Users/imashio/Electronics/ARM/_Library/u8g2_bitmap.c ****     bitmap += blen;
 495              		.loc 1 153 0
 496 0048 4D44     		add	r5, r5, r9
 497              	.LVL54:
 150:/Users/imashio/Electronics/ARM/_Library/u8g2_bitmap.c ****   {
 498              		.loc 1 150 0
 499 004a F3D1     		bne	.L50
 500              	.LVL55:
 501              	.L48:
 155:/Users/imashio/Electronics/ARM/_Library/u8g2_bitmap.c ****     h--;
 156:/Users/imashio/Electronics/ARM/_Library/u8g2_bitmap.c ****   }
 157:/Users/imashio/Electronics/ARM/_Library/u8g2_bitmap.c **** }
 502              		.loc 1 157 0
 503 004c 02B0     		add	sp, sp, #8
 504              	.LCFI13:
 505              		.cfi_def_cfa_offset 32
 506              		@ sp needed
 507 004e BDE8F087 		pop	{r4, r5, r6, r7, r8, r9, r10, pc}
 508              		.cfi_endproc
 509              	.LFE4:
 511 0052 00BF     		.section	.text.u8g2_DrawHXBMP,"ax",%progbits
 512              		.align	1
 513              		.p2align 2,,3
 514              		.global	u8g2_DrawHXBMP
 515              		.syntax unified
 516              		.thumb
 517              		.thumb_func
 518              		.fpu fpv4-sp-d16
 520              	u8g2_DrawHXBMP:
 521              	.LFB10:
 522              		.cfi_startproc
 523              		@ args = 4, pretend = 0, frame = 0
 524              		@ frame_needed = 0, uses_anonymous_args = 0
 525              		@ link register save eliminated.
 526 0000 FFF7FEBF 		b	u8g2_DrawHXBM
 527              		.cfi_endproc
 528              	.LFE10:
 530              		.section	.text.u8g2_DrawXBMP,"ax",%progbits
 531              		.align	1
 532              		.p2align 2,,3
 533              		.global	u8g2_DrawXBMP
 534              		.syntax unified
 535              		.thumb
 536              		.thumb_func
 537              		.fpu fpv4-sp-d16
 539              	u8g2_DrawXBMP:
 540              	.LFB8:
 541              		.cfi_startproc
 542              		@ args = 8, pretend = 0, frame = 0
 543              		@ frame_needed = 0, uses_anonymous_args = 0
 544              		@ link register save eliminated.
 545 0000 10B4     		push	{r4}
 546              	.LCFI14:
 547              		.cfi_def_cfa_offset 4
 548              		.cfi_offset 4, -4
 549 0002 9DF80440 		ldrb	r4, [sp, #4]	@ zero_extendqisi2
 550 0006 0194     		str	r4, [sp, #4]
ARM GAS  /var/folders/v3/wysfpd052nz8jkbx04pk0ym80000gn/T//ccN4d7ns.s 			page 14


 551 0008 5DF8044B 		ldr	r4, [sp], #4
 552              	.LCFI15:
 553              		.cfi_restore 4
 554              		.cfi_def_cfa_offset 0
 555 000c FFF7FEBF 		b	u8g2_DrawXBM
 556              		.cfi_endproc
 557              	.LFE8:
 559              		.text
 560              	.Letext0:
 561              		.file 2 "/usr/local/gcc-arm-none-eabi-7-2018-q2-update/arm-none-eabi/include/machine/_default_type
 562              		.file 3 "/usr/local/gcc-arm-none-eabi-7-2018-q2-update/arm-none-eabi/include/sys/_stdint.h"
 563              		.file 4 "/Users/imashio/Electronics/ARM/_Library/u8x8.h"
 564              		.file 5 "/Users/imashio/Electronics/ARM/_Library/u8g2.h"
ARM GAS  /var/folders/v3/wysfpd052nz8jkbx04pk0ym80000gn/T//ccN4d7ns.s 			page 15

