ARM GAS  /var/folders/v3/wysfpd052nz8jkbx04pk0ym80000gn/T//cc0GVfKk.s 			page 1


   1              		.cpu cortex-m4
   2              		.eabi_attribute 27, 1
   3              		.eabi_attribute 28, 1
   4              		.eabi_attribute 20, 1
   5              		.eabi_attribute 21, 1
   6              		.eabi_attribute 23, 3
   7              		.eabi_attribute 24, 1
   8              		.eabi_attribute 25, 1
   9              		.eabi_attribute 26, 1
  10              		.eabi_attribute 30, 1
  11              		.eabi_attribute 34, 1
  12              		.eabi_attribute 18, 4
  13              		.file	"u8g2_d_memory.c"
  14              		.text
  15              	.Ltext0:
  16              		.cfi_sections	.debug_frame
  17              		.section	.text.u8g2_m_16_4_1,"ax",%progbits
  18              		.align	1
  19              		.global	u8g2_m_16_4_1
  20              		.syntax unified
  21              		.thumb
  22              		.thumb_func
  23              		.fpu fpv4-sp-d16
  25              	u8g2_m_16_4_1:
  26              	.LFB0:
  27              		.file 1 "/Users/imashio/Electronics/ARM/_Library/u8g2_d_memory.c"
   1:/Users/imashio/Electronics/ARM/_Library/u8g2_d_memory.c **** /* u8g2_d_memory.c */
   2:/Users/imashio/Electronics/ARM/_Library/u8g2_d_memory.c **** /* generated code, codebuild, u8g2 project */
   3:/Users/imashio/Electronics/ARM/_Library/u8g2_d_memory.c **** 
   4:/Users/imashio/Electronics/ARM/_Library/u8g2_d_memory.c **** #include "u8g2.h"
   5:/Users/imashio/Electronics/ARM/_Library/u8g2_d_memory.c **** 
   6:/Users/imashio/Electronics/ARM/_Library/u8g2_d_memory.c **** uint8_t *u8g2_m_16_4_1(uint8_t *page_cnt)
   7:/Users/imashio/Electronics/ARM/_Library/u8g2_d_memory.c **** {
  28              		.loc 1 7 0
  29              		.cfi_startproc
  30              		@ args = 0, pretend = 0, frame = 0
  31              		@ frame_needed = 0, uses_anonymous_args = 0
  32              		@ link register save eliminated.
  33              	.LVL0:
   8:/Users/imashio/Electronics/ARM/_Library/u8g2_d_memory.c ****   static uint8_t buf[128];
   9:/Users/imashio/Electronics/ARM/_Library/u8g2_d_memory.c ****   *page_cnt = 1;
  34              		.loc 1 9 0
  35 0000 0123     		movs	r3, #1
  36 0002 0370     		strb	r3, [r0]
  10:/Users/imashio/Electronics/ARM/_Library/u8g2_d_memory.c ****   return buf;
  11:/Users/imashio/Electronics/ARM/_Library/u8g2_d_memory.c **** }
  37              		.loc 1 11 0
  38 0004 0048     		ldr	r0, .L2
  39              	.LVL1:
  40 0006 7047     		bx	lr
  41              	.L3:
  42              		.align	2
  43              	.L2:
  44 0008 00000000 		.word	.LANCHOR0
  45              		.cfi_endproc
  46              	.LFE0:
  48              		.section	.text.u8g2_m_16_4_2,"ax",%progbits
ARM GAS  /var/folders/v3/wysfpd052nz8jkbx04pk0ym80000gn/T//cc0GVfKk.s 			page 2


  49              		.align	1
  50              		.global	u8g2_m_16_4_2
  51              		.syntax unified
  52              		.thumb
  53              		.thumb_func
  54              		.fpu fpv4-sp-d16
  56              	u8g2_m_16_4_2:
  57              	.LFB1:
  12:/Users/imashio/Electronics/ARM/_Library/u8g2_d_memory.c **** uint8_t *u8g2_m_16_4_2(uint8_t *page_cnt)
  13:/Users/imashio/Electronics/ARM/_Library/u8g2_d_memory.c **** {
  58              		.loc 1 13 0
  59              		.cfi_startproc
  60              		@ args = 0, pretend = 0, frame = 0
  61              		@ frame_needed = 0, uses_anonymous_args = 0
  62              		@ link register save eliminated.
  63              	.LVL2:
  14:/Users/imashio/Electronics/ARM/_Library/u8g2_d_memory.c ****   static uint8_t buf[256];
  15:/Users/imashio/Electronics/ARM/_Library/u8g2_d_memory.c ****   *page_cnt = 2;
  64              		.loc 1 15 0
  65 0000 0223     		movs	r3, #2
  66 0002 0370     		strb	r3, [r0]
  16:/Users/imashio/Electronics/ARM/_Library/u8g2_d_memory.c ****   return buf;
  17:/Users/imashio/Electronics/ARM/_Library/u8g2_d_memory.c **** }
  67              		.loc 1 17 0
  68 0004 0048     		ldr	r0, .L5
  69              	.LVL3:
  70 0006 7047     		bx	lr
  71              	.L6:
  72              		.align	2
  73              	.L5:
  74 0008 00000000 		.word	.LANCHOR1
  75              		.cfi_endproc
  76              	.LFE1:
  78              		.section	.text.u8g2_m_16_4_f,"ax",%progbits
  79              		.align	1
  80              		.global	u8g2_m_16_4_f
  81              		.syntax unified
  82              		.thumb
  83              		.thumb_func
  84              		.fpu fpv4-sp-d16
  86              	u8g2_m_16_4_f:
  87              	.LFB2:
  18:/Users/imashio/Electronics/ARM/_Library/u8g2_d_memory.c **** uint8_t *u8g2_m_16_4_f(uint8_t *page_cnt)
  19:/Users/imashio/Electronics/ARM/_Library/u8g2_d_memory.c **** {
  88              		.loc 1 19 0
  89              		.cfi_startproc
  90              		@ args = 0, pretend = 0, frame = 0
  91              		@ frame_needed = 0, uses_anonymous_args = 0
  92              		@ link register save eliminated.
  93              	.LVL4:
  20:/Users/imashio/Electronics/ARM/_Library/u8g2_d_memory.c ****   static uint8_t buf[512];
  21:/Users/imashio/Electronics/ARM/_Library/u8g2_d_memory.c ****   *page_cnt = 4;
  94              		.loc 1 21 0
  95 0000 0423     		movs	r3, #4
  96 0002 0370     		strb	r3, [r0]
  22:/Users/imashio/Electronics/ARM/_Library/u8g2_d_memory.c ****   return buf;
  23:/Users/imashio/Electronics/ARM/_Library/u8g2_d_memory.c **** }
ARM GAS  /var/folders/v3/wysfpd052nz8jkbx04pk0ym80000gn/T//cc0GVfKk.s 			page 3


  97              		.loc 1 23 0
  98 0004 0048     		ldr	r0, .L8
  99              	.LVL5:
 100 0006 7047     		bx	lr
 101              	.L9:
 102              		.align	2
 103              	.L8:
 104 0008 00000000 		.word	.LANCHOR2
 105              		.cfi_endproc
 106              	.LFE2:
 108              		.section	.text.u8g2_m_16_8_1,"ax",%progbits
 109              		.align	1
 110              		.global	u8g2_m_16_8_1
 111              		.syntax unified
 112              		.thumb
 113              		.thumb_func
 114              		.fpu fpv4-sp-d16
 116              	u8g2_m_16_8_1:
 117              	.LFB3:
  24:/Users/imashio/Electronics/ARM/_Library/u8g2_d_memory.c **** uint8_t *u8g2_m_16_8_1(uint8_t *page_cnt)
  25:/Users/imashio/Electronics/ARM/_Library/u8g2_d_memory.c **** {
 118              		.loc 1 25 0
 119              		.cfi_startproc
 120              		@ args = 0, pretend = 0, frame = 0
 121              		@ frame_needed = 0, uses_anonymous_args = 0
 122              		@ link register save eliminated.
 123              	.LVL6:
  26:/Users/imashio/Electronics/ARM/_Library/u8g2_d_memory.c ****   static uint8_t buf[128];
  27:/Users/imashio/Electronics/ARM/_Library/u8g2_d_memory.c ****   *page_cnt = 1;
 124              		.loc 1 27 0
 125 0000 0123     		movs	r3, #1
 126 0002 0370     		strb	r3, [r0]
  28:/Users/imashio/Electronics/ARM/_Library/u8g2_d_memory.c ****   return buf;
  29:/Users/imashio/Electronics/ARM/_Library/u8g2_d_memory.c **** }
 127              		.loc 1 29 0
 128 0004 0048     		ldr	r0, .L11
 129              	.LVL7:
 130 0006 7047     		bx	lr
 131              	.L12:
 132              		.align	2
 133              	.L11:
 134 0008 00000000 		.word	.LANCHOR3
 135              		.cfi_endproc
 136              	.LFE3:
 138              		.section	.text.u8g2_m_16_8_2,"ax",%progbits
 139              		.align	1
 140              		.global	u8g2_m_16_8_2
 141              		.syntax unified
 142              		.thumb
 143              		.thumb_func
 144              		.fpu fpv4-sp-d16
 146              	u8g2_m_16_8_2:
 147              	.LFB4:
  30:/Users/imashio/Electronics/ARM/_Library/u8g2_d_memory.c **** uint8_t *u8g2_m_16_8_2(uint8_t *page_cnt)
  31:/Users/imashio/Electronics/ARM/_Library/u8g2_d_memory.c **** {
 148              		.loc 1 31 0
 149              		.cfi_startproc
ARM GAS  /var/folders/v3/wysfpd052nz8jkbx04pk0ym80000gn/T//cc0GVfKk.s 			page 4


 150              		@ args = 0, pretend = 0, frame = 0
 151              		@ frame_needed = 0, uses_anonymous_args = 0
 152              		@ link register save eliminated.
 153              	.LVL8:
  32:/Users/imashio/Electronics/ARM/_Library/u8g2_d_memory.c ****   static uint8_t buf[256];
  33:/Users/imashio/Electronics/ARM/_Library/u8g2_d_memory.c ****   *page_cnt = 2;
 154              		.loc 1 33 0
 155 0000 0223     		movs	r3, #2
 156 0002 0370     		strb	r3, [r0]
  34:/Users/imashio/Electronics/ARM/_Library/u8g2_d_memory.c ****   return buf;
  35:/Users/imashio/Electronics/ARM/_Library/u8g2_d_memory.c **** }
 157              		.loc 1 35 0
 158 0004 0048     		ldr	r0, .L14
 159              	.LVL9:
 160 0006 7047     		bx	lr
 161              	.L15:
 162              		.align	2
 163              	.L14:
 164 0008 00000000 		.word	.LANCHOR4
 165              		.cfi_endproc
 166              	.LFE4:
 168              		.section	.text.u8g2_m_16_8_f,"ax",%progbits
 169              		.align	1
 170              		.global	u8g2_m_16_8_f
 171              		.syntax unified
 172              		.thumb
 173              		.thumb_func
 174              		.fpu fpv4-sp-d16
 176              	u8g2_m_16_8_f:
 177              	.LFB5:
  36:/Users/imashio/Electronics/ARM/_Library/u8g2_d_memory.c **** uint8_t *u8g2_m_16_8_f(uint8_t *page_cnt)
  37:/Users/imashio/Electronics/ARM/_Library/u8g2_d_memory.c **** {
 178              		.loc 1 37 0
 179              		.cfi_startproc
 180              		@ args = 0, pretend = 0, frame = 0
 181              		@ frame_needed = 0, uses_anonymous_args = 0
 182              		@ link register save eliminated.
 183              	.LVL10:
  38:/Users/imashio/Electronics/ARM/_Library/u8g2_d_memory.c ****   static uint8_t buf[1024];
  39:/Users/imashio/Electronics/ARM/_Library/u8g2_d_memory.c ****   *page_cnt = 8;
 184              		.loc 1 39 0
 185 0000 0823     		movs	r3, #8
 186 0002 0370     		strb	r3, [r0]
  40:/Users/imashio/Electronics/ARM/_Library/u8g2_d_memory.c ****   return buf;
  41:/Users/imashio/Electronics/ARM/_Library/u8g2_d_memory.c **** }
 187              		.loc 1 41 0
 188 0004 0048     		ldr	r0, .L17
 189              	.LVL11:
 190 0006 7047     		bx	lr
 191              	.L18:
 192              		.align	2
 193              	.L17:
 194 0008 00000000 		.word	.LANCHOR5
 195              		.cfi_endproc
 196              	.LFE5:
 198              		.section	.text.u8g2_m_12_12_1,"ax",%progbits
 199              		.align	1
ARM GAS  /var/folders/v3/wysfpd052nz8jkbx04pk0ym80000gn/T//cc0GVfKk.s 			page 5


 200              		.global	u8g2_m_12_12_1
 201              		.syntax unified
 202              		.thumb
 203              		.thumb_func
 204              		.fpu fpv4-sp-d16
 206              	u8g2_m_12_12_1:
 207              	.LFB6:
  42:/Users/imashio/Electronics/ARM/_Library/u8g2_d_memory.c **** uint8_t *u8g2_m_12_12_1(uint8_t *page_cnt)
  43:/Users/imashio/Electronics/ARM/_Library/u8g2_d_memory.c **** {
 208              		.loc 1 43 0
 209              		.cfi_startproc
 210              		@ args = 0, pretend = 0, frame = 0
 211              		@ frame_needed = 0, uses_anonymous_args = 0
 212              		@ link register save eliminated.
 213              	.LVL12:
  44:/Users/imashio/Electronics/ARM/_Library/u8g2_d_memory.c ****   static uint8_t buf[96];
  45:/Users/imashio/Electronics/ARM/_Library/u8g2_d_memory.c ****   *page_cnt = 1;
 214              		.loc 1 45 0
 215 0000 0123     		movs	r3, #1
 216 0002 0370     		strb	r3, [r0]
  46:/Users/imashio/Electronics/ARM/_Library/u8g2_d_memory.c ****   return buf;
  47:/Users/imashio/Electronics/ARM/_Library/u8g2_d_memory.c **** }
 217              		.loc 1 47 0
 218 0004 0048     		ldr	r0, .L20
 219              	.LVL13:
 220 0006 7047     		bx	lr
 221              	.L21:
 222              		.align	2
 223              	.L20:
 224 0008 00000000 		.word	.LANCHOR6
 225              		.cfi_endproc
 226              	.LFE6:
 228              		.section	.text.u8g2_m_12_12_2,"ax",%progbits
 229              		.align	1
 230              		.global	u8g2_m_12_12_2
 231              		.syntax unified
 232              		.thumb
 233              		.thumb_func
 234              		.fpu fpv4-sp-d16
 236              	u8g2_m_12_12_2:
 237              	.LFB7:
  48:/Users/imashio/Electronics/ARM/_Library/u8g2_d_memory.c **** uint8_t *u8g2_m_12_12_2(uint8_t *page_cnt)
  49:/Users/imashio/Electronics/ARM/_Library/u8g2_d_memory.c **** {
 238              		.loc 1 49 0
 239              		.cfi_startproc
 240              		@ args = 0, pretend = 0, frame = 0
 241              		@ frame_needed = 0, uses_anonymous_args = 0
 242              		@ link register save eliminated.
 243              	.LVL14:
  50:/Users/imashio/Electronics/ARM/_Library/u8g2_d_memory.c ****   static uint8_t buf[192];
  51:/Users/imashio/Electronics/ARM/_Library/u8g2_d_memory.c ****   *page_cnt = 2;
 244              		.loc 1 51 0
 245 0000 0223     		movs	r3, #2
 246 0002 0370     		strb	r3, [r0]
  52:/Users/imashio/Electronics/ARM/_Library/u8g2_d_memory.c ****   return buf;
  53:/Users/imashio/Electronics/ARM/_Library/u8g2_d_memory.c **** }
 247              		.loc 1 53 0
ARM GAS  /var/folders/v3/wysfpd052nz8jkbx04pk0ym80000gn/T//cc0GVfKk.s 			page 6


 248 0004 0048     		ldr	r0, .L23
 249              	.LVL15:
 250 0006 7047     		bx	lr
 251              	.L24:
 252              		.align	2
 253              	.L23:
 254 0008 00000000 		.word	.LANCHOR7
 255              		.cfi_endproc
 256              	.LFE7:
 258              		.section	.text.u8g2_m_12_12_f,"ax",%progbits
 259              		.align	1
 260              		.global	u8g2_m_12_12_f
 261              		.syntax unified
 262              		.thumb
 263              		.thumb_func
 264              		.fpu fpv4-sp-d16
 266              	u8g2_m_12_12_f:
 267              	.LFB8:
  54:/Users/imashio/Electronics/ARM/_Library/u8g2_d_memory.c **** uint8_t *u8g2_m_12_12_f(uint8_t *page_cnt)
  55:/Users/imashio/Electronics/ARM/_Library/u8g2_d_memory.c **** {
 268              		.loc 1 55 0
 269              		.cfi_startproc
 270              		@ args = 0, pretend = 0, frame = 0
 271              		@ frame_needed = 0, uses_anonymous_args = 0
 272              		@ link register save eliminated.
 273              	.LVL16:
  56:/Users/imashio/Electronics/ARM/_Library/u8g2_d_memory.c ****   static uint8_t buf[1152];
  57:/Users/imashio/Electronics/ARM/_Library/u8g2_d_memory.c ****   *page_cnt = 12;
 274              		.loc 1 57 0
 275 0000 0C23     		movs	r3, #12
 276 0002 0370     		strb	r3, [r0]
  58:/Users/imashio/Electronics/ARM/_Library/u8g2_d_memory.c ****   return buf;
  59:/Users/imashio/Electronics/ARM/_Library/u8g2_d_memory.c **** }
 277              		.loc 1 59 0
 278 0004 0048     		ldr	r0, .L26
 279              	.LVL17:
 280 0006 7047     		bx	lr
 281              	.L27:
 282              		.align	2
 283              	.L26:
 284 0008 00000000 		.word	.LANCHOR8
 285              		.cfi_endproc
 286              	.LFE8:
 288              		.section	.text.u8g2_m_8_6_1,"ax",%progbits
 289              		.align	1
 290              		.global	u8g2_m_8_6_1
 291              		.syntax unified
 292              		.thumb
 293              		.thumb_func
 294              		.fpu fpv4-sp-d16
 296              	u8g2_m_8_6_1:
 297              	.LFB9:
  60:/Users/imashio/Electronics/ARM/_Library/u8g2_d_memory.c **** uint8_t *u8g2_m_8_6_1(uint8_t *page_cnt)
  61:/Users/imashio/Electronics/ARM/_Library/u8g2_d_memory.c **** {
 298              		.loc 1 61 0
 299              		.cfi_startproc
 300              		@ args = 0, pretend = 0, frame = 0
ARM GAS  /var/folders/v3/wysfpd052nz8jkbx04pk0ym80000gn/T//cc0GVfKk.s 			page 7


 301              		@ frame_needed = 0, uses_anonymous_args = 0
 302              		@ link register save eliminated.
 303              	.LVL18:
  62:/Users/imashio/Electronics/ARM/_Library/u8g2_d_memory.c ****   static uint8_t buf[64];
  63:/Users/imashio/Electronics/ARM/_Library/u8g2_d_memory.c ****   *page_cnt = 1;
 304              		.loc 1 63 0
 305 0000 0123     		movs	r3, #1
 306 0002 0370     		strb	r3, [r0]
  64:/Users/imashio/Electronics/ARM/_Library/u8g2_d_memory.c ****   return buf;
  65:/Users/imashio/Electronics/ARM/_Library/u8g2_d_memory.c **** }
 307              		.loc 1 65 0
 308 0004 0048     		ldr	r0, .L29
 309              	.LVL19:
 310 0006 7047     		bx	lr
 311              	.L30:
 312              		.align	2
 313              	.L29:
 314 0008 00000000 		.word	.LANCHOR9
 315              		.cfi_endproc
 316              	.LFE9:
 318              		.section	.text.u8g2_m_8_6_2,"ax",%progbits
 319              		.align	1
 320              		.global	u8g2_m_8_6_2
 321              		.syntax unified
 322              		.thumb
 323              		.thumb_func
 324              		.fpu fpv4-sp-d16
 326              	u8g2_m_8_6_2:
 327              	.LFB10:
  66:/Users/imashio/Electronics/ARM/_Library/u8g2_d_memory.c **** uint8_t *u8g2_m_8_6_2(uint8_t *page_cnt)
  67:/Users/imashio/Electronics/ARM/_Library/u8g2_d_memory.c **** {
 328              		.loc 1 67 0
 329              		.cfi_startproc
 330              		@ args = 0, pretend = 0, frame = 0
 331              		@ frame_needed = 0, uses_anonymous_args = 0
 332              		@ link register save eliminated.
 333              	.LVL20:
  68:/Users/imashio/Electronics/ARM/_Library/u8g2_d_memory.c ****   static uint8_t buf[128];
  69:/Users/imashio/Electronics/ARM/_Library/u8g2_d_memory.c ****   *page_cnt = 2;
 334              		.loc 1 69 0
 335 0000 0223     		movs	r3, #2
 336 0002 0370     		strb	r3, [r0]
  70:/Users/imashio/Electronics/ARM/_Library/u8g2_d_memory.c ****   return buf;
  71:/Users/imashio/Electronics/ARM/_Library/u8g2_d_memory.c **** }
 337              		.loc 1 71 0
 338 0004 0048     		ldr	r0, .L32
 339              	.LVL21:
 340 0006 7047     		bx	lr
 341              	.L33:
 342              		.align	2
 343              	.L32:
 344 0008 00000000 		.word	.LANCHOR10
 345              		.cfi_endproc
 346              	.LFE10:
 348              		.section	.text.u8g2_m_8_6_f,"ax",%progbits
 349              		.align	1
 350              		.global	u8g2_m_8_6_f
ARM GAS  /var/folders/v3/wysfpd052nz8jkbx04pk0ym80000gn/T//cc0GVfKk.s 			page 8


 351              		.syntax unified
 352              		.thumb
 353              		.thumb_func
 354              		.fpu fpv4-sp-d16
 356              	u8g2_m_8_6_f:
 357              	.LFB11:
  72:/Users/imashio/Electronics/ARM/_Library/u8g2_d_memory.c **** uint8_t *u8g2_m_8_6_f(uint8_t *page_cnt)
  73:/Users/imashio/Electronics/ARM/_Library/u8g2_d_memory.c **** {
 358              		.loc 1 73 0
 359              		.cfi_startproc
 360              		@ args = 0, pretend = 0, frame = 0
 361              		@ frame_needed = 0, uses_anonymous_args = 0
 362              		@ link register save eliminated.
 363              	.LVL22:
  74:/Users/imashio/Electronics/ARM/_Library/u8g2_d_memory.c ****   static uint8_t buf[384];
  75:/Users/imashio/Electronics/ARM/_Library/u8g2_d_memory.c ****   *page_cnt = 6;
 364              		.loc 1 75 0
 365 0000 0623     		movs	r3, #6
 366 0002 0370     		strb	r3, [r0]
  76:/Users/imashio/Electronics/ARM/_Library/u8g2_d_memory.c ****   return buf;
  77:/Users/imashio/Electronics/ARM/_Library/u8g2_d_memory.c **** }
 367              		.loc 1 77 0
 368 0004 0048     		ldr	r0, .L35
 369              	.LVL23:
 370 0006 7047     		bx	lr
 371              	.L36:
 372              		.align	2
 373              	.L35:
 374 0008 00000000 		.word	.LANCHOR11
 375              		.cfi_endproc
 376              	.LFE11:
 378              		.section	.text.u8g2_m_8_4_1,"ax",%progbits
 379              		.align	1
 380              		.global	u8g2_m_8_4_1
 381              		.syntax unified
 382              		.thumb
 383              		.thumb_func
 384              		.fpu fpv4-sp-d16
 386              	u8g2_m_8_4_1:
 387              	.LFB12:
  78:/Users/imashio/Electronics/ARM/_Library/u8g2_d_memory.c **** uint8_t *u8g2_m_8_4_1(uint8_t *page_cnt)
  79:/Users/imashio/Electronics/ARM/_Library/u8g2_d_memory.c **** {
 388              		.loc 1 79 0
 389              		.cfi_startproc
 390              		@ args = 0, pretend = 0, frame = 0
 391              		@ frame_needed = 0, uses_anonymous_args = 0
 392              		@ link register save eliminated.
 393              	.LVL24:
  80:/Users/imashio/Electronics/ARM/_Library/u8g2_d_memory.c ****   static uint8_t buf[64];
  81:/Users/imashio/Electronics/ARM/_Library/u8g2_d_memory.c ****   *page_cnt = 1;
 394              		.loc 1 81 0
 395 0000 0123     		movs	r3, #1
 396 0002 0370     		strb	r3, [r0]
  82:/Users/imashio/Electronics/ARM/_Library/u8g2_d_memory.c ****   return buf;
  83:/Users/imashio/Electronics/ARM/_Library/u8g2_d_memory.c **** }
 397              		.loc 1 83 0
 398 0004 0048     		ldr	r0, .L38
ARM GAS  /var/folders/v3/wysfpd052nz8jkbx04pk0ym80000gn/T//cc0GVfKk.s 			page 9


 399              	.LVL25:
 400 0006 7047     		bx	lr
 401              	.L39:
 402              		.align	2
 403              	.L38:
 404 0008 00000000 		.word	.LANCHOR12
 405              		.cfi_endproc
 406              	.LFE12:
 408              		.section	.text.u8g2_m_8_4_2,"ax",%progbits
 409              		.align	1
 410              		.global	u8g2_m_8_4_2
 411              		.syntax unified
 412              		.thumb
 413              		.thumb_func
 414              		.fpu fpv4-sp-d16
 416              	u8g2_m_8_4_2:
 417              	.LFB13:
  84:/Users/imashio/Electronics/ARM/_Library/u8g2_d_memory.c **** uint8_t *u8g2_m_8_4_2(uint8_t *page_cnt)
  85:/Users/imashio/Electronics/ARM/_Library/u8g2_d_memory.c **** {
 418              		.loc 1 85 0
 419              		.cfi_startproc
 420              		@ args = 0, pretend = 0, frame = 0
 421              		@ frame_needed = 0, uses_anonymous_args = 0
 422              		@ link register save eliminated.
 423              	.LVL26:
  86:/Users/imashio/Electronics/ARM/_Library/u8g2_d_memory.c ****   static uint8_t buf[128];
  87:/Users/imashio/Electronics/ARM/_Library/u8g2_d_memory.c ****   *page_cnt = 2;
 424              		.loc 1 87 0
 425 0000 0223     		movs	r3, #2
 426 0002 0370     		strb	r3, [r0]
  88:/Users/imashio/Electronics/ARM/_Library/u8g2_d_memory.c ****   return buf;
  89:/Users/imashio/Electronics/ARM/_Library/u8g2_d_memory.c **** }
 427              		.loc 1 89 0
 428 0004 0048     		ldr	r0, .L41
 429              	.LVL27:
 430 0006 7047     		bx	lr
 431              	.L42:
 432              		.align	2
 433              	.L41:
 434 0008 00000000 		.word	.LANCHOR13
 435              		.cfi_endproc
 436              	.LFE13:
 438              		.section	.text.u8g2_m_8_4_f,"ax",%progbits
 439              		.align	1
 440              		.global	u8g2_m_8_4_f
 441              		.syntax unified
 442              		.thumb
 443              		.thumb_func
 444              		.fpu fpv4-sp-d16
 446              	u8g2_m_8_4_f:
 447              	.LFB14:
  90:/Users/imashio/Electronics/ARM/_Library/u8g2_d_memory.c **** uint8_t *u8g2_m_8_4_f(uint8_t *page_cnt)
  91:/Users/imashio/Electronics/ARM/_Library/u8g2_d_memory.c **** {
 448              		.loc 1 91 0
 449              		.cfi_startproc
 450              		@ args = 0, pretend = 0, frame = 0
 451              		@ frame_needed = 0, uses_anonymous_args = 0
ARM GAS  /var/folders/v3/wysfpd052nz8jkbx04pk0ym80000gn/T//cc0GVfKk.s 			page 10


 452              		@ link register save eliminated.
 453              	.LVL28:
  92:/Users/imashio/Electronics/ARM/_Library/u8g2_d_memory.c ****   static uint8_t buf[256];
  93:/Users/imashio/Electronics/ARM/_Library/u8g2_d_memory.c ****   *page_cnt = 4;
 454              		.loc 1 93 0
 455 0000 0423     		movs	r3, #4
 456 0002 0370     		strb	r3, [r0]
  94:/Users/imashio/Electronics/ARM/_Library/u8g2_d_memory.c ****   return buf;
  95:/Users/imashio/Electronics/ARM/_Library/u8g2_d_memory.c **** }
 457              		.loc 1 95 0
 458 0004 0048     		ldr	r0, .L44
 459              	.LVL29:
 460 0006 7047     		bx	lr
 461              	.L45:
 462              		.align	2
 463              	.L44:
 464 0008 00000000 		.word	.LANCHOR14
 465              		.cfi_endproc
 466              	.LFE14:
 468              		.section	.text.u8g2_m_12_2_1,"ax",%progbits
 469              		.align	1
 470              		.global	u8g2_m_12_2_1
 471              		.syntax unified
 472              		.thumb
 473              		.thumb_func
 474              		.fpu fpv4-sp-d16
 476              	u8g2_m_12_2_1:
 477              	.LFB15:
  96:/Users/imashio/Electronics/ARM/_Library/u8g2_d_memory.c **** uint8_t *u8g2_m_12_2_1(uint8_t *page_cnt)
  97:/Users/imashio/Electronics/ARM/_Library/u8g2_d_memory.c **** {
 478              		.loc 1 97 0
 479              		.cfi_startproc
 480              		@ args = 0, pretend = 0, frame = 0
 481              		@ frame_needed = 0, uses_anonymous_args = 0
 482              		@ link register save eliminated.
 483              	.LVL30:
  98:/Users/imashio/Electronics/ARM/_Library/u8g2_d_memory.c ****   static uint8_t buf[96];
  99:/Users/imashio/Electronics/ARM/_Library/u8g2_d_memory.c ****   *page_cnt = 1;
 484              		.loc 1 99 0
 485 0000 0123     		movs	r3, #1
 486 0002 0370     		strb	r3, [r0]
 100:/Users/imashio/Electronics/ARM/_Library/u8g2_d_memory.c ****   return buf;
 101:/Users/imashio/Electronics/ARM/_Library/u8g2_d_memory.c **** }
 487              		.loc 1 101 0
 488 0004 0048     		ldr	r0, .L47
 489              	.LVL31:
 490 0006 7047     		bx	lr
 491              	.L48:
 492              		.align	2
 493              	.L47:
 494 0008 00000000 		.word	.LANCHOR15
 495              		.cfi_endproc
 496              	.LFE15:
 498              		.section	.text.u8g2_m_12_2_2,"ax",%progbits
 499              		.align	1
 500              		.global	u8g2_m_12_2_2
 501              		.syntax unified
ARM GAS  /var/folders/v3/wysfpd052nz8jkbx04pk0ym80000gn/T//cc0GVfKk.s 			page 11


 502              		.thumb
 503              		.thumb_func
 504              		.fpu fpv4-sp-d16
 506              	u8g2_m_12_2_2:
 507              	.LFB16:
 102:/Users/imashio/Electronics/ARM/_Library/u8g2_d_memory.c **** uint8_t *u8g2_m_12_2_2(uint8_t *page_cnt)
 103:/Users/imashio/Electronics/ARM/_Library/u8g2_d_memory.c **** {
 508              		.loc 1 103 0
 509              		.cfi_startproc
 510              		@ args = 0, pretend = 0, frame = 0
 511              		@ frame_needed = 0, uses_anonymous_args = 0
 512              		@ link register save eliminated.
 513              	.LVL32:
 104:/Users/imashio/Electronics/ARM/_Library/u8g2_d_memory.c ****   static uint8_t buf[192];
 105:/Users/imashio/Electronics/ARM/_Library/u8g2_d_memory.c ****   *page_cnt = 2;
 514              		.loc 1 105 0
 515 0000 0223     		movs	r3, #2
 516 0002 0370     		strb	r3, [r0]
 106:/Users/imashio/Electronics/ARM/_Library/u8g2_d_memory.c ****   return buf;
 107:/Users/imashio/Electronics/ARM/_Library/u8g2_d_memory.c **** }
 517              		.loc 1 107 0
 518 0004 0048     		ldr	r0, .L50
 519              	.LVL33:
 520 0006 7047     		bx	lr
 521              	.L51:
 522              		.align	2
 523              	.L50:
 524 0008 00000000 		.word	.LANCHOR16
 525              		.cfi_endproc
 526              	.LFE16:
 528              		.section	.text.u8g2_m_12_2_f,"ax",%progbits
 529              		.align	1
 530              		.global	u8g2_m_12_2_f
 531              		.syntax unified
 532              		.thumb
 533              		.thumb_func
 534              		.fpu fpv4-sp-d16
 536              	u8g2_m_12_2_f:
 537              	.LFB17:
 108:/Users/imashio/Electronics/ARM/_Library/u8g2_d_memory.c **** uint8_t *u8g2_m_12_2_f(uint8_t *page_cnt)
 109:/Users/imashio/Electronics/ARM/_Library/u8g2_d_memory.c **** {
 538              		.loc 1 109 0
 539              		.cfi_startproc
 540              		@ args = 0, pretend = 0, frame = 0
 541              		@ frame_needed = 0, uses_anonymous_args = 0
 542              		@ link register save eliminated.
 543              	.LVL34:
 110:/Users/imashio/Electronics/ARM/_Library/u8g2_d_memory.c ****   static uint8_t buf[192];
 111:/Users/imashio/Electronics/ARM/_Library/u8g2_d_memory.c ****   *page_cnt = 2;
 544              		.loc 1 111 0
 545 0000 0223     		movs	r3, #2
 546 0002 0370     		strb	r3, [r0]
 112:/Users/imashio/Electronics/ARM/_Library/u8g2_d_memory.c ****   return buf;
 113:/Users/imashio/Electronics/ARM/_Library/u8g2_d_memory.c **** }
 547              		.loc 1 113 0
 548 0004 0048     		ldr	r0, .L53
 549              	.LVL35:
ARM GAS  /var/folders/v3/wysfpd052nz8jkbx04pk0ym80000gn/T//cc0GVfKk.s 			page 12


 550 0006 7047     		bx	lr
 551              	.L54:
 552              		.align	2
 553              	.L53:
 554 0008 00000000 		.word	.LANCHOR17
 555              		.cfi_endproc
 556              	.LFE17:
 558              		.section	.text.u8g2_m_32_4_1,"ax",%progbits
 559              		.align	1
 560              		.global	u8g2_m_32_4_1
 561              		.syntax unified
 562              		.thumb
 563              		.thumb_func
 564              		.fpu fpv4-sp-d16
 566              	u8g2_m_32_4_1:
 567              	.LFB18:
 114:/Users/imashio/Electronics/ARM/_Library/u8g2_d_memory.c **** uint8_t *u8g2_m_32_4_1(uint8_t *page_cnt)
 115:/Users/imashio/Electronics/ARM/_Library/u8g2_d_memory.c **** {
 568              		.loc 1 115 0
 569              		.cfi_startproc
 570              		@ args = 0, pretend = 0, frame = 0
 571              		@ frame_needed = 0, uses_anonymous_args = 0
 572              		@ link register save eliminated.
 573              	.LVL36:
 116:/Users/imashio/Electronics/ARM/_Library/u8g2_d_memory.c ****   static uint8_t buf[256];
 117:/Users/imashio/Electronics/ARM/_Library/u8g2_d_memory.c ****   *page_cnt = 1;
 574              		.loc 1 117 0
 575 0000 0123     		movs	r3, #1
 576 0002 0370     		strb	r3, [r0]
 118:/Users/imashio/Electronics/ARM/_Library/u8g2_d_memory.c ****   return buf;
 119:/Users/imashio/Electronics/ARM/_Library/u8g2_d_memory.c **** }
 577              		.loc 1 119 0
 578 0004 0048     		ldr	r0, .L56
 579              	.LVL37:
 580 0006 7047     		bx	lr
 581              	.L57:
 582              		.align	2
 583              	.L56:
 584 0008 00000000 		.word	.LANCHOR18
 585              		.cfi_endproc
 586              	.LFE18:
 588              		.section	.text.u8g2_m_32_4_2,"ax",%progbits
 589              		.align	1
 590              		.global	u8g2_m_32_4_2
 591              		.syntax unified
 592              		.thumb
 593              		.thumb_func
 594              		.fpu fpv4-sp-d16
 596              	u8g2_m_32_4_2:
 597              	.LFB19:
 120:/Users/imashio/Electronics/ARM/_Library/u8g2_d_memory.c **** uint8_t *u8g2_m_32_4_2(uint8_t *page_cnt)
 121:/Users/imashio/Electronics/ARM/_Library/u8g2_d_memory.c **** {
 598              		.loc 1 121 0
 599              		.cfi_startproc
 600              		@ args = 0, pretend = 0, frame = 0
 601              		@ frame_needed = 0, uses_anonymous_args = 0
 602              		@ link register save eliminated.
ARM GAS  /var/folders/v3/wysfpd052nz8jkbx04pk0ym80000gn/T//cc0GVfKk.s 			page 13


 603              	.LVL38:
 122:/Users/imashio/Electronics/ARM/_Library/u8g2_d_memory.c ****   static uint8_t buf[512];
 123:/Users/imashio/Electronics/ARM/_Library/u8g2_d_memory.c ****   *page_cnt = 2;
 604              		.loc 1 123 0
 605 0000 0223     		movs	r3, #2
 606 0002 0370     		strb	r3, [r0]
 124:/Users/imashio/Electronics/ARM/_Library/u8g2_d_memory.c ****   return buf;
 125:/Users/imashio/Electronics/ARM/_Library/u8g2_d_memory.c **** }
 607              		.loc 1 125 0
 608 0004 0048     		ldr	r0, .L59
 609              	.LVL39:
 610 0006 7047     		bx	lr
 611              	.L60:
 612              		.align	2
 613              	.L59:
 614 0008 00000000 		.word	.LANCHOR19
 615              		.cfi_endproc
 616              	.LFE19:
 618              		.section	.text.u8g2_m_32_4_f,"ax",%progbits
 619              		.align	1
 620              		.global	u8g2_m_32_4_f
 621              		.syntax unified
 622              		.thumb
 623              		.thumb_func
 624              		.fpu fpv4-sp-d16
 626              	u8g2_m_32_4_f:
 627              	.LFB20:
 126:/Users/imashio/Electronics/ARM/_Library/u8g2_d_memory.c **** uint8_t *u8g2_m_32_4_f(uint8_t *page_cnt)
 127:/Users/imashio/Electronics/ARM/_Library/u8g2_d_memory.c **** {
 628              		.loc 1 127 0
 629              		.cfi_startproc
 630              		@ args = 0, pretend = 0, frame = 0
 631              		@ frame_needed = 0, uses_anonymous_args = 0
 632              		@ link register save eliminated.
 633              	.LVL40:
 128:/Users/imashio/Electronics/ARM/_Library/u8g2_d_memory.c ****   static uint8_t buf[1024];
 129:/Users/imashio/Electronics/ARM/_Library/u8g2_d_memory.c ****   *page_cnt = 4;
 634              		.loc 1 129 0
 635 0000 0423     		movs	r3, #4
 636 0002 0370     		strb	r3, [r0]
 130:/Users/imashio/Electronics/ARM/_Library/u8g2_d_memory.c ****   return buf;
 131:/Users/imashio/Electronics/ARM/_Library/u8g2_d_memory.c **** }
 637              		.loc 1 131 0
 638 0004 0048     		ldr	r0, .L62
 639              	.LVL41:
 640 0006 7047     		bx	lr
 641              	.L63:
 642              		.align	2
 643              	.L62:
 644 0008 00000000 		.word	.LANCHOR20
 645              		.cfi_endproc
 646              	.LFE20:
 648              		.section	.text.u8g2_m_16_16_1,"ax",%progbits
 649              		.align	1
 650              		.global	u8g2_m_16_16_1
 651              		.syntax unified
 652              		.thumb
ARM GAS  /var/folders/v3/wysfpd052nz8jkbx04pk0ym80000gn/T//cc0GVfKk.s 			page 14


 653              		.thumb_func
 654              		.fpu fpv4-sp-d16
 656              	u8g2_m_16_16_1:
 657              	.LFB21:
 132:/Users/imashio/Electronics/ARM/_Library/u8g2_d_memory.c **** uint8_t *u8g2_m_16_16_1(uint8_t *page_cnt)
 133:/Users/imashio/Electronics/ARM/_Library/u8g2_d_memory.c **** {
 658              		.loc 1 133 0
 659              		.cfi_startproc
 660              		@ args = 0, pretend = 0, frame = 0
 661              		@ frame_needed = 0, uses_anonymous_args = 0
 662              		@ link register save eliminated.
 663              	.LVL42:
 134:/Users/imashio/Electronics/ARM/_Library/u8g2_d_memory.c ****   static uint8_t buf[128];
 135:/Users/imashio/Electronics/ARM/_Library/u8g2_d_memory.c ****   *page_cnt = 1;
 664              		.loc 1 135 0
 665 0000 0123     		movs	r3, #1
 666 0002 0370     		strb	r3, [r0]
 136:/Users/imashio/Electronics/ARM/_Library/u8g2_d_memory.c ****   return buf;
 137:/Users/imashio/Electronics/ARM/_Library/u8g2_d_memory.c **** }
 667              		.loc 1 137 0
 668 0004 0048     		ldr	r0, .L65
 669              	.LVL43:
 670 0006 7047     		bx	lr
 671              	.L66:
 672              		.align	2
 673              	.L65:
 674 0008 00000000 		.word	.LANCHOR21
 675              		.cfi_endproc
 676              	.LFE21:
 678              		.section	.text.u8g2_m_16_16_2,"ax",%progbits
 679              		.align	1
 680              		.global	u8g2_m_16_16_2
 681              		.syntax unified
 682              		.thumb
 683              		.thumb_func
 684              		.fpu fpv4-sp-d16
 686              	u8g2_m_16_16_2:
 687              	.LFB22:
 138:/Users/imashio/Electronics/ARM/_Library/u8g2_d_memory.c **** uint8_t *u8g2_m_16_16_2(uint8_t *page_cnt)
 139:/Users/imashio/Electronics/ARM/_Library/u8g2_d_memory.c **** {
 688              		.loc 1 139 0
 689              		.cfi_startproc
 690              		@ args = 0, pretend = 0, frame = 0
 691              		@ frame_needed = 0, uses_anonymous_args = 0
 692              		@ link register save eliminated.
 693              	.LVL44:
 140:/Users/imashio/Electronics/ARM/_Library/u8g2_d_memory.c ****   static uint8_t buf[256];
 141:/Users/imashio/Electronics/ARM/_Library/u8g2_d_memory.c ****   *page_cnt = 2;
 694              		.loc 1 141 0
 695 0000 0223     		movs	r3, #2
 696 0002 0370     		strb	r3, [r0]
 142:/Users/imashio/Electronics/ARM/_Library/u8g2_d_memory.c ****   return buf;
 143:/Users/imashio/Electronics/ARM/_Library/u8g2_d_memory.c **** }
 697              		.loc 1 143 0
 698 0004 0048     		ldr	r0, .L68
 699              	.LVL45:
 700 0006 7047     		bx	lr
ARM GAS  /var/folders/v3/wysfpd052nz8jkbx04pk0ym80000gn/T//cc0GVfKk.s 			page 15


 701              	.L69:
 702              		.align	2
 703              	.L68:
 704 0008 00000000 		.word	.LANCHOR22
 705              		.cfi_endproc
 706              	.LFE22:
 708              		.section	.text.u8g2_m_16_16_f,"ax",%progbits
 709              		.align	1
 710              		.global	u8g2_m_16_16_f
 711              		.syntax unified
 712              		.thumb
 713              		.thumb_func
 714              		.fpu fpv4-sp-d16
 716              	u8g2_m_16_16_f:
 717              	.LFB23:
 144:/Users/imashio/Electronics/ARM/_Library/u8g2_d_memory.c **** uint8_t *u8g2_m_16_16_f(uint8_t *page_cnt)
 145:/Users/imashio/Electronics/ARM/_Library/u8g2_d_memory.c **** {
 718              		.loc 1 145 0
 719              		.cfi_startproc
 720              		@ args = 0, pretend = 0, frame = 0
 721              		@ frame_needed = 0, uses_anonymous_args = 0
 722              		@ link register save eliminated.
 723              	.LVL46:
 146:/Users/imashio/Electronics/ARM/_Library/u8g2_d_memory.c ****   static uint8_t buf[2048];
 147:/Users/imashio/Electronics/ARM/_Library/u8g2_d_memory.c ****   *page_cnt = 16;
 724              		.loc 1 147 0
 725 0000 1023     		movs	r3, #16
 726 0002 0370     		strb	r3, [r0]
 148:/Users/imashio/Electronics/ARM/_Library/u8g2_d_memory.c ****   return buf;
 149:/Users/imashio/Electronics/ARM/_Library/u8g2_d_memory.c **** }
 727              		.loc 1 149 0
 728 0004 0048     		ldr	r0, .L71
 729              	.LVL47:
 730 0006 7047     		bx	lr
 731              	.L72:
 732              		.align	2
 733              	.L71:
 734 0008 00000000 		.word	.LANCHOR23
 735              		.cfi_endproc
 736              	.LFE23:
 738              		.section	.text.u8g2_m_16_12_1,"ax",%progbits
 739              		.align	1
 740              		.global	u8g2_m_16_12_1
 741              		.syntax unified
 742              		.thumb
 743              		.thumb_func
 744              		.fpu fpv4-sp-d16
 746              	u8g2_m_16_12_1:
 747              	.LFB24:
 150:/Users/imashio/Electronics/ARM/_Library/u8g2_d_memory.c **** uint8_t *u8g2_m_16_12_1(uint8_t *page_cnt)
 151:/Users/imashio/Electronics/ARM/_Library/u8g2_d_memory.c **** {
 748              		.loc 1 151 0
 749              		.cfi_startproc
 750              		@ args = 0, pretend = 0, frame = 0
 751              		@ frame_needed = 0, uses_anonymous_args = 0
 752              		@ link register save eliminated.
 753              	.LVL48:
ARM GAS  /var/folders/v3/wysfpd052nz8jkbx04pk0ym80000gn/T//cc0GVfKk.s 			page 16


 152:/Users/imashio/Electronics/ARM/_Library/u8g2_d_memory.c ****   static uint8_t buf[128];
 153:/Users/imashio/Electronics/ARM/_Library/u8g2_d_memory.c ****   *page_cnt = 1;
 754              		.loc 1 153 0
 755 0000 0123     		movs	r3, #1
 756 0002 0370     		strb	r3, [r0]
 154:/Users/imashio/Electronics/ARM/_Library/u8g2_d_memory.c ****   return buf;
 155:/Users/imashio/Electronics/ARM/_Library/u8g2_d_memory.c **** }
 757              		.loc 1 155 0
 758 0004 0048     		ldr	r0, .L74
 759              	.LVL49:
 760 0006 7047     		bx	lr
 761              	.L75:
 762              		.align	2
 763              	.L74:
 764 0008 00000000 		.word	.LANCHOR24
 765              		.cfi_endproc
 766              	.LFE24:
 768              		.section	.text.u8g2_m_16_12_2,"ax",%progbits
 769              		.align	1
 770              		.global	u8g2_m_16_12_2
 771              		.syntax unified
 772              		.thumb
 773              		.thumb_func
 774              		.fpu fpv4-sp-d16
 776              	u8g2_m_16_12_2:
 777              	.LFB25:
 156:/Users/imashio/Electronics/ARM/_Library/u8g2_d_memory.c **** uint8_t *u8g2_m_16_12_2(uint8_t *page_cnt)
 157:/Users/imashio/Electronics/ARM/_Library/u8g2_d_memory.c **** {
 778              		.loc 1 157 0
 779              		.cfi_startproc
 780              		@ args = 0, pretend = 0, frame = 0
 781              		@ frame_needed = 0, uses_anonymous_args = 0
 782              		@ link register save eliminated.
 783              	.LVL50:
 158:/Users/imashio/Electronics/ARM/_Library/u8g2_d_memory.c ****   static uint8_t buf[256];
 159:/Users/imashio/Electronics/ARM/_Library/u8g2_d_memory.c ****   *page_cnt = 2;
 784              		.loc 1 159 0
 785 0000 0223     		movs	r3, #2
 786 0002 0370     		strb	r3, [r0]
 160:/Users/imashio/Electronics/ARM/_Library/u8g2_d_memory.c ****   return buf;
 161:/Users/imashio/Electronics/ARM/_Library/u8g2_d_memory.c **** }
 787              		.loc 1 161 0
 788 0004 0048     		ldr	r0, .L77
 789              	.LVL51:
 790 0006 7047     		bx	lr
 791              	.L78:
 792              		.align	2
 793              	.L77:
 794 0008 00000000 		.word	.LANCHOR25
 795              		.cfi_endproc
 796              	.LFE25:
 798              		.section	.text.u8g2_m_16_12_f,"ax",%progbits
 799              		.align	1
 800              		.global	u8g2_m_16_12_f
 801              		.syntax unified
 802              		.thumb
 803              		.thumb_func
ARM GAS  /var/folders/v3/wysfpd052nz8jkbx04pk0ym80000gn/T//cc0GVfKk.s 			page 17


 804              		.fpu fpv4-sp-d16
 806              	u8g2_m_16_12_f:
 807              	.LFB26:
 162:/Users/imashio/Electronics/ARM/_Library/u8g2_d_memory.c **** uint8_t *u8g2_m_16_12_f(uint8_t *page_cnt)
 163:/Users/imashio/Electronics/ARM/_Library/u8g2_d_memory.c **** {
 808              		.loc 1 163 0
 809              		.cfi_startproc
 810              		@ args = 0, pretend = 0, frame = 0
 811              		@ frame_needed = 0, uses_anonymous_args = 0
 812              		@ link register save eliminated.
 813              	.LVL52:
 164:/Users/imashio/Electronics/ARM/_Library/u8g2_d_memory.c ****   static uint8_t buf[1536];
 165:/Users/imashio/Electronics/ARM/_Library/u8g2_d_memory.c ****   *page_cnt = 12;
 814              		.loc 1 165 0
 815 0000 0C23     		movs	r3, #12
 816 0002 0370     		strb	r3, [r0]
 166:/Users/imashio/Electronics/ARM/_Library/u8g2_d_memory.c ****   return buf;
 167:/Users/imashio/Electronics/ARM/_Library/u8g2_d_memory.c **** }
 817              		.loc 1 167 0
 818 0004 0048     		ldr	r0, .L80
 819              	.LVL53:
 820 0006 7047     		bx	lr
 821              	.L81:
 822              		.align	2
 823              	.L80:
 824 0008 00000000 		.word	.LANCHOR26
 825              		.cfi_endproc
 826              	.LFE26:
 828              		.section	.text.u8g2_m_24_4_1,"ax",%progbits
 829              		.align	1
 830              		.global	u8g2_m_24_4_1
 831              		.syntax unified
 832              		.thumb
 833              		.thumb_func
 834              		.fpu fpv4-sp-d16
 836              	u8g2_m_24_4_1:
 837              	.LFB27:
 168:/Users/imashio/Electronics/ARM/_Library/u8g2_d_memory.c **** uint8_t *u8g2_m_24_4_1(uint8_t *page_cnt)
 169:/Users/imashio/Electronics/ARM/_Library/u8g2_d_memory.c **** {
 838              		.loc 1 169 0
 839              		.cfi_startproc
 840              		@ args = 0, pretend = 0, frame = 0
 841              		@ frame_needed = 0, uses_anonymous_args = 0
 842              		@ link register save eliminated.
 843              	.LVL54:
 170:/Users/imashio/Electronics/ARM/_Library/u8g2_d_memory.c ****   static uint8_t buf[192];
 171:/Users/imashio/Electronics/ARM/_Library/u8g2_d_memory.c ****   *page_cnt = 1;
 844              		.loc 1 171 0
 845 0000 0123     		movs	r3, #1
 846 0002 0370     		strb	r3, [r0]
 172:/Users/imashio/Electronics/ARM/_Library/u8g2_d_memory.c ****   return buf;
 173:/Users/imashio/Electronics/ARM/_Library/u8g2_d_memory.c **** }
 847              		.loc 1 173 0
 848 0004 0048     		ldr	r0, .L83
 849              	.LVL55:
 850 0006 7047     		bx	lr
 851              	.L84:
ARM GAS  /var/folders/v3/wysfpd052nz8jkbx04pk0ym80000gn/T//cc0GVfKk.s 			page 18


 852              		.align	2
 853              	.L83:
 854 0008 00000000 		.word	.LANCHOR27
 855              		.cfi_endproc
 856              	.LFE27:
 858              		.section	.text.u8g2_m_24_4_2,"ax",%progbits
 859              		.align	1
 860              		.global	u8g2_m_24_4_2
 861              		.syntax unified
 862              		.thumb
 863              		.thumb_func
 864              		.fpu fpv4-sp-d16
 866              	u8g2_m_24_4_2:
 867              	.LFB28:
 174:/Users/imashio/Electronics/ARM/_Library/u8g2_d_memory.c **** uint8_t *u8g2_m_24_4_2(uint8_t *page_cnt)
 175:/Users/imashio/Electronics/ARM/_Library/u8g2_d_memory.c **** {
 868              		.loc 1 175 0
 869              		.cfi_startproc
 870              		@ args = 0, pretend = 0, frame = 0
 871              		@ frame_needed = 0, uses_anonymous_args = 0
 872              		@ link register save eliminated.
 873              	.LVL56:
 176:/Users/imashio/Electronics/ARM/_Library/u8g2_d_memory.c ****   static uint8_t buf[384];
 177:/Users/imashio/Electronics/ARM/_Library/u8g2_d_memory.c ****   *page_cnt = 2;
 874              		.loc 1 177 0
 875 0000 0223     		movs	r3, #2
 876 0002 0370     		strb	r3, [r0]
 178:/Users/imashio/Electronics/ARM/_Library/u8g2_d_memory.c ****   return buf;
 179:/Users/imashio/Electronics/ARM/_Library/u8g2_d_memory.c **** }
 877              		.loc 1 179 0
 878 0004 0048     		ldr	r0, .L86
 879              	.LVL57:
 880 0006 7047     		bx	lr
 881              	.L87:
 882              		.align	2
 883              	.L86:
 884 0008 00000000 		.word	.LANCHOR28
 885              		.cfi_endproc
 886              	.LFE28:
 888              		.section	.text.u8g2_m_24_4_f,"ax",%progbits
 889              		.align	1
 890              		.global	u8g2_m_24_4_f
 891              		.syntax unified
 892              		.thumb
 893              		.thumb_func
 894              		.fpu fpv4-sp-d16
 896              	u8g2_m_24_4_f:
 897              	.LFB29:
 180:/Users/imashio/Electronics/ARM/_Library/u8g2_d_memory.c **** uint8_t *u8g2_m_24_4_f(uint8_t *page_cnt)
 181:/Users/imashio/Electronics/ARM/_Library/u8g2_d_memory.c **** {
 898              		.loc 1 181 0
 899              		.cfi_startproc
 900              		@ args = 0, pretend = 0, frame = 0
 901              		@ frame_needed = 0, uses_anonymous_args = 0
 902              		@ link register save eliminated.
 903              	.LVL58:
 182:/Users/imashio/Electronics/ARM/_Library/u8g2_d_memory.c ****   static uint8_t buf[768];
ARM GAS  /var/folders/v3/wysfpd052nz8jkbx04pk0ym80000gn/T//cc0GVfKk.s 			page 19


 183:/Users/imashio/Electronics/ARM/_Library/u8g2_d_memory.c ****   *page_cnt = 4;
 904              		.loc 1 183 0
 905 0000 0423     		movs	r3, #4
 906 0002 0370     		strb	r3, [r0]
 184:/Users/imashio/Electronics/ARM/_Library/u8g2_d_memory.c ****   return buf;
 185:/Users/imashio/Electronics/ARM/_Library/u8g2_d_memory.c **** }
 907              		.loc 1 185 0
 908 0004 0048     		ldr	r0, .L89
 909              	.LVL59:
 910 0006 7047     		bx	lr
 911              	.L90:
 912              		.align	2
 913              	.L89:
 914 0008 00000000 		.word	.LANCHOR29
 915              		.cfi_endproc
 916              	.LFE29:
 918              		.section	.text.u8g2_m_13_8_1,"ax",%progbits
 919              		.align	1
 920              		.global	u8g2_m_13_8_1
 921              		.syntax unified
 922              		.thumb
 923              		.thumb_func
 924              		.fpu fpv4-sp-d16
 926              	u8g2_m_13_8_1:
 927              	.LFB30:
 186:/Users/imashio/Electronics/ARM/_Library/u8g2_d_memory.c **** uint8_t *u8g2_m_13_8_1(uint8_t *page_cnt)
 187:/Users/imashio/Electronics/ARM/_Library/u8g2_d_memory.c **** {
 928              		.loc 1 187 0
 929              		.cfi_startproc
 930              		@ args = 0, pretend = 0, frame = 0
 931              		@ frame_needed = 0, uses_anonymous_args = 0
 932              		@ link register save eliminated.
 933              	.LVL60:
 188:/Users/imashio/Electronics/ARM/_Library/u8g2_d_memory.c ****   static uint8_t buf[104];
 189:/Users/imashio/Electronics/ARM/_Library/u8g2_d_memory.c ****   *page_cnt = 1;
 934              		.loc 1 189 0
 935 0000 0123     		movs	r3, #1
 936 0002 0370     		strb	r3, [r0]
 190:/Users/imashio/Electronics/ARM/_Library/u8g2_d_memory.c ****   return buf;
 191:/Users/imashio/Electronics/ARM/_Library/u8g2_d_memory.c **** }
 937              		.loc 1 191 0
 938 0004 0048     		ldr	r0, .L92
 939              	.LVL61:
 940 0006 7047     		bx	lr
 941              	.L93:
 942              		.align	2
 943              	.L92:
 944 0008 00000000 		.word	.LANCHOR30
 945              		.cfi_endproc
 946              	.LFE30:
 948              		.section	.text.u8g2_m_13_8_2,"ax",%progbits
 949              		.align	1
 950              		.global	u8g2_m_13_8_2
 951              		.syntax unified
 952              		.thumb
 953              		.thumb_func
 954              		.fpu fpv4-sp-d16
ARM GAS  /var/folders/v3/wysfpd052nz8jkbx04pk0ym80000gn/T//cc0GVfKk.s 			page 20


 956              	u8g2_m_13_8_2:
 957              	.LFB31:
 192:/Users/imashio/Electronics/ARM/_Library/u8g2_d_memory.c **** uint8_t *u8g2_m_13_8_2(uint8_t *page_cnt)
 193:/Users/imashio/Electronics/ARM/_Library/u8g2_d_memory.c **** {
 958              		.loc 1 193 0
 959              		.cfi_startproc
 960              		@ args = 0, pretend = 0, frame = 0
 961              		@ frame_needed = 0, uses_anonymous_args = 0
 962              		@ link register save eliminated.
 963              	.LVL62:
 194:/Users/imashio/Electronics/ARM/_Library/u8g2_d_memory.c ****   static uint8_t buf[208];
 195:/Users/imashio/Electronics/ARM/_Library/u8g2_d_memory.c ****   *page_cnt = 2;
 964              		.loc 1 195 0
 965 0000 0223     		movs	r3, #2
 966 0002 0370     		strb	r3, [r0]
 196:/Users/imashio/Electronics/ARM/_Library/u8g2_d_memory.c ****   return buf;
 197:/Users/imashio/Electronics/ARM/_Library/u8g2_d_memory.c **** }
 967              		.loc 1 197 0
 968 0004 0048     		ldr	r0, .L95
 969              	.LVL63:
 970 0006 7047     		bx	lr
 971              	.L96:
 972              		.align	2
 973              	.L95:
 974 0008 00000000 		.word	.LANCHOR31
 975              		.cfi_endproc
 976              	.LFE31:
 978              		.section	.text.u8g2_m_13_8_f,"ax",%progbits
 979              		.align	1
 980              		.global	u8g2_m_13_8_f
 981              		.syntax unified
 982              		.thumb
 983              		.thumb_func
 984              		.fpu fpv4-sp-d16
 986              	u8g2_m_13_8_f:
 987              	.LFB32:
 198:/Users/imashio/Electronics/ARM/_Library/u8g2_d_memory.c **** uint8_t *u8g2_m_13_8_f(uint8_t *page_cnt)
 199:/Users/imashio/Electronics/ARM/_Library/u8g2_d_memory.c **** {
 988              		.loc 1 199 0
 989              		.cfi_startproc
 990              		@ args = 0, pretend = 0, frame = 0
 991              		@ frame_needed = 0, uses_anonymous_args = 0
 992              		@ link register save eliminated.
 993              	.LVL64:
 200:/Users/imashio/Electronics/ARM/_Library/u8g2_d_memory.c ****   static uint8_t buf[832];
 201:/Users/imashio/Electronics/ARM/_Library/u8g2_d_memory.c ****   *page_cnt = 8;
 994              		.loc 1 201 0
 995 0000 0823     		movs	r3, #8
 996 0002 0370     		strb	r3, [r0]
 202:/Users/imashio/Electronics/ARM/_Library/u8g2_d_memory.c ****   return buf;
 203:/Users/imashio/Electronics/ARM/_Library/u8g2_d_memory.c **** }
 997              		.loc 1 203 0
 998 0004 0048     		ldr	r0, .L98
 999              	.LVL65:
 1000 0006 7047     		bx	lr
 1001              	.L99:
 1002              		.align	2
ARM GAS  /var/folders/v3/wysfpd052nz8jkbx04pk0ym80000gn/T//cc0GVfKk.s 			page 21


 1003              	.L98:
 1004 0008 00000000 		.word	.LANCHOR32
 1005              		.cfi_endproc
 1006              	.LFE32:
 1008              		.section	.text.u8g2_m_11_6_1,"ax",%progbits
 1009              		.align	1
 1010              		.global	u8g2_m_11_6_1
 1011              		.syntax unified
 1012              		.thumb
 1013              		.thumb_func
 1014              		.fpu fpv4-sp-d16
 1016              	u8g2_m_11_6_1:
 1017              	.LFB33:
 204:/Users/imashio/Electronics/ARM/_Library/u8g2_d_memory.c **** uint8_t *u8g2_m_11_6_1(uint8_t *page_cnt)
 205:/Users/imashio/Electronics/ARM/_Library/u8g2_d_memory.c **** {
 1018              		.loc 1 205 0
 1019              		.cfi_startproc
 1020              		@ args = 0, pretend = 0, frame = 0
 1021              		@ frame_needed = 0, uses_anonymous_args = 0
 1022              		@ link register save eliminated.
 1023              	.LVL66:
 206:/Users/imashio/Electronics/ARM/_Library/u8g2_d_memory.c ****   static uint8_t buf[88];
 207:/Users/imashio/Electronics/ARM/_Library/u8g2_d_memory.c ****   *page_cnt = 1;
 1024              		.loc 1 207 0
 1025 0000 0123     		movs	r3, #1
 1026 0002 0370     		strb	r3, [r0]
 208:/Users/imashio/Electronics/ARM/_Library/u8g2_d_memory.c ****   return buf;
 209:/Users/imashio/Electronics/ARM/_Library/u8g2_d_memory.c **** }
 1027              		.loc 1 209 0
 1028 0004 0048     		ldr	r0, .L101
 1029              	.LVL67:
 1030 0006 7047     		bx	lr
 1031              	.L102:
 1032              		.align	2
 1033              	.L101:
 1034 0008 00000000 		.word	.LANCHOR33
 1035              		.cfi_endproc
 1036              	.LFE33:
 1038              		.section	.text.u8g2_m_11_6_2,"ax",%progbits
 1039              		.align	1
 1040              		.global	u8g2_m_11_6_2
 1041              		.syntax unified
 1042              		.thumb
 1043              		.thumb_func
 1044              		.fpu fpv4-sp-d16
 1046              	u8g2_m_11_6_2:
 1047              	.LFB34:
 210:/Users/imashio/Electronics/ARM/_Library/u8g2_d_memory.c **** uint8_t *u8g2_m_11_6_2(uint8_t *page_cnt)
 211:/Users/imashio/Electronics/ARM/_Library/u8g2_d_memory.c **** {
 1048              		.loc 1 211 0
 1049              		.cfi_startproc
 1050              		@ args = 0, pretend = 0, frame = 0
 1051              		@ frame_needed = 0, uses_anonymous_args = 0
 1052              		@ link register save eliminated.
 1053              	.LVL68:
 212:/Users/imashio/Electronics/ARM/_Library/u8g2_d_memory.c ****   static uint8_t buf[176];
 213:/Users/imashio/Electronics/ARM/_Library/u8g2_d_memory.c ****   *page_cnt = 2;
ARM GAS  /var/folders/v3/wysfpd052nz8jkbx04pk0ym80000gn/T//cc0GVfKk.s 			page 22


 1054              		.loc 1 213 0
 1055 0000 0223     		movs	r3, #2
 1056 0002 0370     		strb	r3, [r0]
 214:/Users/imashio/Electronics/ARM/_Library/u8g2_d_memory.c ****   return buf;
 215:/Users/imashio/Electronics/ARM/_Library/u8g2_d_memory.c **** }
 1057              		.loc 1 215 0
 1058 0004 0048     		ldr	r0, .L104
 1059              	.LVL69:
 1060 0006 7047     		bx	lr
 1061              	.L105:
 1062              		.align	2
 1063              	.L104:
 1064 0008 00000000 		.word	.LANCHOR34
 1065              		.cfi_endproc
 1066              	.LFE34:
 1068              		.section	.text.u8g2_m_11_6_f,"ax",%progbits
 1069              		.align	1
 1070              		.global	u8g2_m_11_6_f
 1071              		.syntax unified
 1072              		.thumb
 1073              		.thumb_func
 1074              		.fpu fpv4-sp-d16
 1076              	u8g2_m_11_6_f:
 1077              	.LFB35:
 216:/Users/imashio/Electronics/ARM/_Library/u8g2_d_memory.c **** uint8_t *u8g2_m_11_6_f(uint8_t *page_cnt)
 217:/Users/imashio/Electronics/ARM/_Library/u8g2_d_memory.c **** {
 1078              		.loc 1 217 0
 1079              		.cfi_startproc
 1080              		@ args = 0, pretend = 0, frame = 0
 1081              		@ frame_needed = 0, uses_anonymous_args = 0
 1082              		@ link register save eliminated.
 1083              	.LVL70:
 218:/Users/imashio/Electronics/ARM/_Library/u8g2_d_memory.c ****   static uint8_t buf[528];
 219:/Users/imashio/Electronics/ARM/_Library/u8g2_d_memory.c ****   *page_cnt = 6;
 1084              		.loc 1 219 0
 1085 0000 0623     		movs	r3, #6
 1086 0002 0370     		strb	r3, [r0]
 220:/Users/imashio/Electronics/ARM/_Library/u8g2_d_memory.c ****   return buf;
 221:/Users/imashio/Electronics/ARM/_Library/u8g2_d_memory.c **** }
 1087              		.loc 1 221 0
 1088 0004 0048     		ldr	r0, .L107
 1089              	.LVL71:
 1090 0006 7047     		bx	lr
 1091              	.L108:
 1092              		.align	2
 1093              	.L107:
 1094 0008 00000000 		.word	.LANCHOR35
 1095              		.cfi_endproc
 1096              	.LFE35:
 1098              		.section	.text.u8g2_m_12_9_1,"ax",%progbits
 1099              		.align	1
 1100              		.global	u8g2_m_12_9_1
 1101              		.syntax unified
 1102              		.thumb
 1103              		.thumb_func
 1104              		.fpu fpv4-sp-d16
 1106              	u8g2_m_12_9_1:
ARM GAS  /var/folders/v3/wysfpd052nz8jkbx04pk0ym80000gn/T//cc0GVfKk.s 			page 23


 1107              	.LFB36:
 222:/Users/imashio/Electronics/ARM/_Library/u8g2_d_memory.c **** uint8_t *u8g2_m_12_9_1(uint8_t *page_cnt)
 223:/Users/imashio/Electronics/ARM/_Library/u8g2_d_memory.c **** {
 1108              		.loc 1 223 0
 1109              		.cfi_startproc
 1110              		@ args = 0, pretend = 0, frame = 0
 1111              		@ frame_needed = 0, uses_anonymous_args = 0
 1112              		@ link register save eliminated.
 1113              	.LVL72:
 224:/Users/imashio/Electronics/ARM/_Library/u8g2_d_memory.c ****   static uint8_t buf[96];
 225:/Users/imashio/Electronics/ARM/_Library/u8g2_d_memory.c ****   *page_cnt = 1;
 1114              		.loc 1 225 0
 1115 0000 0123     		movs	r3, #1
 1116 0002 0370     		strb	r3, [r0]
 226:/Users/imashio/Electronics/ARM/_Library/u8g2_d_memory.c ****   return buf;
 227:/Users/imashio/Electronics/ARM/_Library/u8g2_d_memory.c **** }
 1117              		.loc 1 227 0
 1118 0004 0048     		ldr	r0, .L110
 1119              	.LVL73:
 1120 0006 7047     		bx	lr
 1121              	.L111:
 1122              		.align	2
 1123              	.L110:
 1124 0008 00000000 		.word	.LANCHOR36
 1125              		.cfi_endproc
 1126              	.LFE36:
 1128              		.section	.text.u8g2_m_12_9_2,"ax",%progbits
 1129              		.align	1
 1130              		.global	u8g2_m_12_9_2
 1131              		.syntax unified
 1132              		.thumb
 1133              		.thumb_func
 1134              		.fpu fpv4-sp-d16
 1136              	u8g2_m_12_9_2:
 1137              	.LFB37:
 228:/Users/imashio/Electronics/ARM/_Library/u8g2_d_memory.c **** uint8_t *u8g2_m_12_9_2(uint8_t *page_cnt)
 229:/Users/imashio/Electronics/ARM/_Library/u8g2_d_memory.c **** {
 1138              		.loc 1 229 0
 1139              		.cfi_startproc
 1140              		@ args = 0, pretend = 0, frame = 0
 1141              		@ frame_needed = 0, uses_anonymous_args = 0
 1142              		@ link register save eliminated.
 1143              	.LVL74:
 230:/Users/imashio/Electronics/ARM/_Library/u8g2_d_memory.c ****   static uint8_t buf[192];
 231:/Users/imashio/Electronics/ARM/_Library/u8g2_d_memory.c ****   *page_cnt = 2;
 1144              		.loc 1 231 0
 1145 0000 0223     		movs	r3, #2
 1146 0002 0370     		strb	r3, [r0]
 232:/Users/imashio/Electronics/ARM/_Library/u8g2_d_memory.c ****   return buf;
 233:/Users/imashio/Electronics/ARM/_Library/u8g2_d_memory.c **** }
 1147              		.loc 1 233 0
 1148 0004 0048     		ldr	r0, .L113
 1149              	.LVL75:
 1150 0006 7047     		bx	lr
 1151              	.L114:
 1152              		.align	2
 1153              	.L113:
ARM GAS  /var/folders/v3/wysfpd052nz8jkbx04pk0ym80000gn/T//cc0GVfKk.s 			page 24


 1154 0008 00000000 		.word	.LANCHOR37
 1155              		.cfi_endproc
 1156              	.LFE37:
 1158              		.section	.text.u8g2_m_12_9_f,"ax",%progbits
 1159              		.align	1
 1160              		.global	u8g2_m_12_9_f
 1161              		.syntax unified
 1162              		.thumb
 1163              		.thumb_func
 1164              		.fpu fpv4-sp-d16
 1166              	u8g2_m_12_9_f:
 1167              	.LFB38:
 234:/Users/imashio/Electronics/ARM/_Library/u8g2_d_memory.c **** uint8_t *u8g2_m_12_9_f(uint8_t *page_cnt)
 235:/Users/imashio/Electronics/ARM/_Library/u8g2_d_memory.c **** {
 1168              		.loc 1 235 0
 1169              		.cfi_startproc
 1170              		@ args = 0, pretend = 0, frame = 0
 1171              		@ frame_needed = 0, uses_anonymous_args = 0
 1172              		@ link register save eliminated.
 1173              	.LVL76:
 236:/Users/imashio/Electronics/ARM/_Library/u8g2_d_memory.c ****   static uint8_t buf[864];
 237:/Users/imashio/Electronics/ARM/_Library/u8g2_d_memory.c ****   *page_cnt = 9;
 1174              		.loc 1 237 0
 1175 0000 0923     		movs	r3, #9
 1176 0002 0370     		strb	r3, [r0]
 238:/Users/imashio/Electronics/ARM/_Library/u8g2_d_memory.c ****   return buf;
 239:/Users/imashio/Electronics/ARM/_Library/u8g2_d_memory.c **** }
 1177              		.loc 1 239 0
 1178 0004 0048     		ldr	r0, .L116
 1179              	.LVL77:
 1180 0006 7047     		bx	lr
 1181              	.L117:
 1182              		.align	2
 1183              	.L116:
 1184 0008 00000000 		.word	.LANCHOR38
 1185              		.cfi_endproc
 1186              	.LFE38:
 1188              		.section	.text.u8g2_m_24_8_1,"ax",%progbits
 1189              		.align	1
 1190              		.global	u8g2_m_24_8_1
 1191              		.syntax unified
 1192              		.thumb
 1193              		.thumb_func
 1194              		.fpu fpv4-sp-d16
 1196              	u8g2_m_24_8_1:
 1197              	.LFB39:
 240:/Users/imashio/Electronics/ARM/_Library/u8g2_d_memory.c **** uint8_t *u8g2_m_24_8_1(uint8_t *page_cnt)
 241:/Users/imashio/Electronics/ARM/_Library/u8g2_d_memory.c **** {
 1198              		.loc 1 241 0
 1199              		.cfi_startproc
 1200              		@ args = 0, pretend = 0, frame = 0
 1201              		@ frame_needed = 0, uses_anonymous_args = 0
 1202              		@ link register save eliminated.
 1203              	.LVL78:
 242:/Users/imashio/Electronics/ARM/_Library/u8g2_d_memory.c ****   static uint8_t buf[192];
 243:/Users/imashio/Electronics/ARM/_Library/u8g2_d_memory.c ****   *page_cnt = 1;
 1204              		.loc 1 243 0
ARM GAS  /var/folders/v3/wysfpd052nz8jkbx04pk0ym80000gn/T//cc0GVfKk.s 			page 25


 1205 0000 0123     		movs	r3, #1
 1206 0002 0370     		strb	r3, [r0]
 244:/Users/imashio/Electronics/ARM/_Library/u8g2_d_memory.c ****   return buf;
 245:/Users/imashio/Electronics/ARM/_Library/u8g2_d_memory.c **** }
 1207              		.loc 1 245 0
 1208 0004 0048     		ldr	r0, .L119
 1209              	.LVL79:
 1210 0006 7047     		bx	lr
 1211              	.L120:
 1212              		.align	2
 1213              	.L119:
 1214 0008 00000000 		.word	.LANCHOR39
 1215              		.cfi_endproc
 1216              	.LFE39:
 1218              		.section	.text.u8g2_m_24_8_2,"ax",%progbits
 1219              		.align	1
 1220              		.global	u8g2_m_24_8_2
 1221              		.syntax unified
 1222              		.thumb
 1223              		.thumb_func
 1224              		.fpu fpv4-sp-d16
 1226              	u8g2_m_24_8_2:
 1227              	.LFB40:
 246:/Users/imashio/Electronics/ARM/_Library/u8g2_d_memory.c **** uint8_t *u8g2_m_24_8_2(uint8_t *page_cnt)
 247:/Users/imashio/Electronics/ARM/_Library/u8g2_d_memory.c **** {
 1228              		.loc 1 247 0
 1229              		.cfi_startproc
 1230              		@ args = 0, pretend = 0, frame = 0
 1231              		@ frame_needed = 0, uses_anonymous_args = 0
 1232              		@ link register save eliminated.
 1233              	.LVL80:
 248:/Users/imashio/Electronics/ARM/_Library/u8g2_d_memory.c ****   static uint8_t buf[384];
 249:/Users/imashio/Electronics/ARM/_Library/u8g2_d_memory.c ****   *page_cnt = 2;
 1234              		.loc 1 249 0
 1235 0000 0223     		movs	r3, #2
 1236 0002 0370     		strb	r3, [r0]
 250:/Users/imashio/Electronics/ARM/_Library/u8g2_d_memory.c ****   return buf;
 251:/Users/imashio/Electronics/ARM/_Library/u8g2_d_memory.c **** }
 1237              		.loc 1 251 0
 1238 0004 0048     		ldr	r0, .L122
 1239              	.LVL81:
 1240 0006 7047     		bx	lr
 1241              	.L123:
 1242              		.align	2
 1243              	.L122:
 1244 0008 00000000 		.word	.LANCHOR40
 1245              		.cfi_endproc
 1246              	.LFE40:
 1248              		.section	.text.u8g2_m_24_8_f,"ax",%progbits
 1249              		.align	1
 1250              		.global	u8g2_m_24_8_f
 1251              		.syntax unified
 1252              		.thumb
 1253              		.thumb_func
 1254              		.fpu fpv4-sp-d16
 1256              	u8g2_m_24_8_f:
 1257              	.LFB41:
ARM GAS  /var/folders/v3/wysfpd052nz8jkbx04pk0ym80000gn/T//cc0GVfKk.s 			page 26


 252:/Users/imashio/Electronics/ARM/_Library/u8g2_d_memory.c **** uint8_t *u8g2_m_24_8_f(uint8_t *page_cnt)
 253:/Users/imashio/Electronics/ARM/_Library/u8g2_d_memory.c **** {
 1258              		.loc 1 253 0
 1259              		.cfi_startproc
 1260              		@ args = 0, pretend = 0, frame = 0
 1261              		@ frame_needed = 0, uses_anonymous_args = 0
 1262              		@ link register save eliminated.
 1263              	.LVL82:
 254:/Users/imashio/Electronics/ARM/_Library/u8g2_d_memory.c ****   static uint8_t buf[1536];
 255:/Users/imashio/Electronics/ARM/_Library/u8g2_d_memory.c ****   *page_cnt = 8;
 1264              		.loc 1 255 0
 1265 0000 0823     		movs	r3, #8
 1266 0002 0370     		strb	r3, [r0]
 256:/Users/imashio/Electronics/ARM/_Library/u8g2_d_memory.c ****   return buf;
 257:/Users/imashio/Electronics/ARM/_Library/u8g2_d_memory.c **** }
 1267              		.loc 1 257 0
 1268 0004 0048     		ldr	r0, .L125
 1269              	.LVL83:
 1270 0006 7047     		bx	lr
 1271              	.L126:
 1272              		.align	2
 1273              	.L125:
 1274 0008 00000000 		.word	.LANCHOR41
 1275              		.cfi_endproc
 1276              	.LFE41:
 1278              		.section	.text.u8g2_m_30_8_1,"ax",%progbits
 1279              		.align	1
 1280              		.global	u8g2_m_30_8_1
 1281              		.syntax unified
 1282              		.thumb
 1283              		.thumb_func
 1284              		.fpu fpv4-sp-d16
 1286              	u8g2_m_30_8_1:
 1287              	.LFB42:
 258:/Users/imashio/Electronics/ARM/_Library/u8g2_d_memory.c **** uint8_t *u8g2_m_30_8_1(uint8_t *page_cnt)
 259:/Users/imashio/Electronics/ARM/_Library/u8g2_d_memory.c **** {
 1288              		.loc 1 259 0
 1289              		.cfi_startproc
 1290              		@ args = 0, pretend = 0, frame = 0
 1291              		@ frame_needed = 0, uses_anonymous_args = 0
 1292              		@ link register save eliminated.
 1293              	.LVL84:
 260:/Users/imashio/Electronics/ARM/_Library/u8g2_d_memory.c ****   static uint8_t buf[240];
 261:/Users/imashio/Electronics/ARM/_Library/u8g2_d_memory.c ****   *page_cnt = 1;
 1294              		.loc 1 261 0
 1295 0000 0123     		movs	r3, #1
 1296 0002 0370     		strb	r3, [r0]
 262:/Users/imashio/Electronics/ARM/_Library/u8g2_d_memory.c ****   return buf;
 263:/Users/imashio/Electronics/ARM/_Library/u8g2_d_memory.c **** }
 1297              		.loc 1 263 0
 1298 0004 0048     		ldr	r0, .L128
 1299              	.LVL85:
 1300 0006 7047     		bx	lr
 1301              	.L129:
 1302              		.align	2
 1303              	.L128:
 1304 0008 00000000 		.word	.LANCHOR42
ARM GAS  /var/folders/v3/wysfpd052nz8jkbx04pk0ym80000gn/T//cc0GVfKk.s 			page 27


 1305              		.cfi_endproc
 1306              	.LFE42:
 1308              		.section	.text.u8g2_m_30_8_2,"ax",%progbits
 1309              		.align	1
 1310              		.global	u8g2_m_30_8_2
 1311              		.syntax unified
 1312              		.thumb
 1313              		.thumb_func
 1314              		.fpu fpv4-sp-d16
 1316              	u8g2_m_30_8_2:
 1317              	.LFB43:
 264:/Users/imashio/Electronics/ARM/_Library/u8g2_d_memory.c **** uint8_t *u8g2_m_30_8_2(uint8_t *page_cnt)
 265:/Users/imashio/Electronics/ARM/_Library/u8g2_d_memory.c **** {
 1318              		.loc 1 265 0
 1319              		.cfi_startproc
 1320              		@ args = 0, pretend = 0, frame = 0
 1321              		@ frame_needed = 0, uses_anonymous_args = 0
 1322              		@ link register save eliminated.
 1323              	.LVL86:
 266:/Users/imashio/Electronics/ARM/_Library/u8g2_d_memory.c ****   static uint8_t buf[480];
 267:/Users/imashio/Electronics/ARM/_Library/u8g2_d_memory.c ****   *page_cnt = 2;
 1324              		.loc 1 267 0
 1325 0000 0223     		movs	r3, #2
 1326 0002 0370     		strb	r3, [r0]
 268:/Users/imashio/Electronics/ARM/_Library/u8g2_d_memory.c ****   return buf;
 269:/Users/imashio/Electronics/ARM/_Library/u8g2_d_memory.c **** }
 1327              		.loc 1 269 0
 1328 0004 0048     		ldr	r0, .L131
 1329              	.LVL87:
 1330 0006 7047     		bx	lr
 1331              	.L132:
 1332              		.align	2
 1333              	.L131:
 1334 0008 00000000 		.word	.LANCHOR43
 1335              		.cfi_endproc
 1336              	.LFE43:
 1338              		.section	.text.u8g2_m_30_8_f,"ax",%progbits
 1339              		.align	1
 1340              		.global	u8g2_m_30_8_f
 1341              		.syntax unified
 1342              		.thumb
 1343              		.thumb_func
 1344              		.fpu fpv4-sp-d16
 1346              	u8g2_m_30_8_f:
 1347              	.LFB44:
 270:/Users/imashio/Electronics/ARM/_Library/u8g2_d_memory.c **** uint8_t *u8g2_m_30_8_f(uint8_t *page_cnt)
 271:/Users/imashio/Electronics/ARM/_Library/u8g2_d_memory.c **** {
 1348              		.loc 1 271 0
 1349              		.cfi_startproc
 1350              		@ args = 0, pretend = 0, frame = 0
 1351              		@ frame_needed = 0, uses_anonymous_args = 0
 1352              		@ link register save eliminated.
 1353              	.LVL88:
 272:/Users/imashio/Electronics/ARM/_Library/u8g2_d_memory.c ****   static uint8_t buf[1920];
 273:/Users/imashio/Electronics/ARM/_Library/u8g2_d_memory.c ****   *page_cnt = 8;
 1354              		.loc 1 273 0
 1355 0000 0823     		movs	r3, #8
ARM GAS  /var/folders/v3/wysfpd052nz8jkbx04pk0ym80000gn/T//cc0GVfKk.s 			page 28


 1356 0002 0370     		strb	r3, [r0]
 274:/Users/imashio/Electronics/ARM/_Library/u8g2_d_memory.c ****   return buf;
 275:/Users/imashio/Electronics/ARM/_Library/u8g2_d_memory.c **** }
 1357              		.loc 1 275 0
 1358 0004 0048     		ldr	r0, .L134
 1359              	.LVL89:
 1360 0006 7047     		bx	lr
 1361              	.L135:
 1362              		.align	2
 1363              	.L134:
 1364 0008 00000000 		.word	.LANCHOR44
 1365              		.cfi_endproc
 1366              	.LFE44:
 1368              		.section	.text.u8g2_m_30_15_1,"ax",%progbits
 1369              		.align	1
 1370              		.global	u8g2_m_30_15_1
 1371              		.syntax unified
 1372              		.thumb
 1373              		.thumb_func
 1374              		.fpu fpv4-sp-d16
 1376              	u8g2_m_30_15_1:
 1377              	.LFB45:
 276:/Users/imashio/Electronics/ARM/_Library/u8g2_d_memory.c **** uint8_t *u8g2_m_30_15_1(uint8_t *page_cnt)
 277:/Users/imashio/Electronics/ARM/_Library/u8g2_d_memory.c **** {
 1378              		.loc 1 277 0
 1379              		.cfi_startproc
 1380              		@ args = 0, pretend = 0, frame = 0
 1381              		@ frame_needed = 0, uses_anonymous_args = 0
 1382              		@ link register save eliminated.
 1383              	.LVL90:
 278:/Users/imashio/Electronics/ARM/_Library/u8g2_d_memory.c ****   static uint8_t buf[240];
 279:/Users/imashio/Electronics/ARM/_Library/u8g2_d_memory.c ****   *page_cnt = 1;
 1384              		.loc 1 279 0
 1385 0000 0123     		movs	r3, #1
 1386 0002 0370     		strb	r3, [r0]
 280:/Users/imashio/Electronics/ARM/_Library/u8g2_d_memory.c ****   return buf;
 281:/Users/imashio/Electronics/ARM/_Library/u8g2_d_memory.c **** }
 1387              		.loc 1 281 0
 1388 0004 0048     		ldr	r0, .L137
 1389              	.LVL91:
 1390 0006 7047     		bx	lr
 1391              	.L138:
 1392              		.align	2
 1393              	.L137:
 1394 0008 00000000 		.word	.LANCHOR45
 1395              		.cfi_endproc
 1396              	.LFE45:
 1398              		.section	.text.u8g2_m_30_15_2,"ax",%progbits
 1399              		.align	1
 1400              		.global	u8g2_m_30_15_2
 1401              		.syntax unified
 1402              		.thumb
 1403              		.thumb_func
 1404              		.fpu fpv4-sp-d16
 1406              	u8g2_m_30_15_2:
 1407              	.LFB46:
 282:/Users/imashio/Electronics/ARM/_Library/u8g2_d_memory.c **** uint8_t *u8g2_m_30_15_2(uint8_t *page_cnt)
ARM GAS  /var/folders/v3/wysfpd052nz8jkbx04pk0ym80000gn/T//cc0GVfKk.s 			page 29


 283:/Users/imashio/Electronics/ARM/_Library/u8g2_d_memory.c **** {
 1408              		.loc 1 283 0
 1409              		.cfi_startproc
 1410              		@ args = 0, pretend = 0, frame = 0
 1411              		@ frame_needed = 0, uses_anonymous_args = 0
 1412              		@ link register save eliminated.
 1413              	.LVL92:
 284:/Users/imashio/Electronics/ARM/_Library/u8g2_d_memory.c ****   static uint8_t buf[480];
 285:/Users/imashio/Electronics/ARM/_Library/u8g2_d_memory.c ****   *page_cnt = 2;
 1414              		.loc 1 285 0
 1415 0000 0223     		movs	r3, #2
 1416 0002 0370     		strb	r3, [r0]
 286:/Users/imashio/Electronics/ARM/_Library/u8g2_d_memory.c ****   return buf;
 287:/Users/imashio/Electronics/ARM/_Library/u8g2_d_memory.c **** }
 1417              		.loc 1 287 0
 1418 0004 0048     		ldr	r0, .L140
 1419              	.LVL93:
 1420 0006 7047     		bx	lr
 1421              	.L141:
 1422              		.align	2
 1423              	.L140:
 1424 0008 00000000 		.word	.LANCHOR46
 1425              		.cfi_endproc
 1426              	.LFE46:
 1428              		.section	.text.u8g2_m_30_15_f,"ax",%progbits
 1429              		.align	1
 1430              		.global	u8g2_m_30_15_f
 1431              		.syntax unified
 1432              		.thumb
 1433              		.thumb_func
 1434              		.fpu fpv4-sp-d16
 1436              	u8g2_m_30_15_f:
 1437              	.LFB47:
 288:/Users/imashio/Electronics/ARM/_Library/u8g2_d_memory.c **** uint8_t *u8g2_m_30_15_f(uint8_t *page_cnt)
 289:/Users/imashio/Electronics/ARM/_Library/u8g2_d_memory.c **** {
 1438              		.loc 1 289 0
 1439              		.cfi_startproc
 1440              		@ args = 0, pretend = 0, frame = 0
 1441              		@ frame_needed = 0, uses_anonymous_args = 0
 1442              		@ link register save eliminated.
 1443              	.LVL94:
 290:/Users/imashio/Electronics/ARM/_Library/u8g2_d_memory.c ****   static uint8_t buf[3600];
 291:/Users/imashio/Electronics/ARM/_Library/u8g2_d_memory.c ****   *page_cnt = 15;
 1444              		.loc 1 291 0
 1445 0000 0F23     		movs	r3, #15
 1446 0002 0370     		strb	r3, [r0]
 292:/Users/imashio/Electronics/ARM/_Library/u8g2_d_memory.c ****   return buf;
 293:/Users/imashio/Electronics/ARM/_Library/u8g2_d_memory.c **** }
 1447              		.loc 1 293 0
 1448 0004 0048     		ldr	r0, .L143
 1449              	.LVL95:
 1450 0006 7047     		bx	lr
 1451              	.L144:
 1452              		.align	2
 1453              	.L143:
 1454 0008 00000000 		.word	.LANCHOR47
 1455              		.cfi_endproc
ARM GAS  /var/folders/v3/wysfpd052nz8jkbx04pk0ym80000gn/T//cc0GVfKk.s 			page 30


 1456              	.LFE47:
 1458              		.section	.text.u8g2_m_30_16_1,"ax",%progbits
 1459              		.align	1
 1460              		.global	u8g2_m_30_16_1
 1461              		.syntax unified
 1462              		.thumb
 1463              		.thumb_func
 1464              		.fpu fpv4-sp-d16
 1466              	u8g2_m_30_16_1:
 1467              	.LFB48:
 294:/Users/imashio/Electronics/ARM/_Library/u8g2_d_memory.c **** uint8_t *u8g2_m_30_16_1(uint8_t *page_cnt)
 295:/Users/imashio/Electronics/ARM/_Library/u8g2_d_memory.c **** {
 1468              		.loc 1 295 0
 1469              		.cfi_startproc
 1470              		@ args = 0, pretend = 0, frame = 0
 1471              		@ frame_needed = 0, uses_anonymous_args = 0
 1472              		@ link register save eliminated.
 1473              	.LVL96:
 296:/Users/imashio/Electronics/ARM/_Library/u8g2_d_memory.c ****   static uint8_t buf[240];
 297:/Users/imashio/Electronics/ARM/_Library/u8g2_d_memory.c ****   *page_cnt = 1;
 1474              		.loc 1 297 0
 1475 0000 0123     		movs	r3, #1
 1476 0002 0370     		strb	r3, [r0]
 298:/Users/imashio/Electronics/ARM/_Library/u8g2_d_memory.c ****   return buf;
 299:/Users/imashio/Electronics/ARM/_Library/u8g2_d_memory.c **** }
 1477              		.loc 1 299 0
 1478 0004 0048     		ldr	r0, .L146
 1479              	.LVL97:
 1480 0006 7047     		bx	lr
 1481              	.L147:
 1482              		.align	2
 1483              	.L146:
 1484 0008 00000000 		.word	.LANCHOR48
 1485              		.cfi_endproc
 1486              	.LFE48:
 1488              		.section	.text.u8g2_m_30_16_2,"ax",%progbits
 1489              		.align	1
 1490              		.global	u8g2_m_30_16_2
 1491              		.syntax unified
 1492              		.thumb
 1493              		.thumb_func
 1494              		.fpu fpv4-sp-d16
 1496              	u8g2_m_30_16_2:
 1497              	.LFB49:
 300:/Users/imashio/Electronics/ARM/_Library/u8g2_d_memory.c **** uint8_t *u8g2_m_30_16_2(uint8_t *page_cnt)
 301:/Users/imashio/Electronics/ARM/_Library/u8g2_d_memory.c **** {
 1498              		.loc 1 301 0
 1499              		.cfi_startproc
 1500              		@ args = 0, pretend = 0, frame = 0
 1501              		@ frame_needed = 0, uses_anonymous_args = 0
 1502              		@ link register save eliminated.
 1503              	.LVL98:
 302:/Users/imashio/Electronics/ARM/_Library/u8g2_d_memory.c ****   static uint8_t buf[480];
 303:/Users/imashio/Electronics/ARM/_Library/u8g2_d_memory.c ****   *page_cnt = 2;
 1504              		.loc 1 303 0
 1505 0000 0223     		movs	r3, #2
 1506 0002 0370     		strb	r3, [r0]
ARM GAS  /var/folders/v3/wysfpd052nz8jkbx04pk0ym80000gn/T//cc0GVfKk.s 			page 31


 304:/Users/imashio/Electronics/ARM/_Library/u8g2_d_memory.c ****   return buf;
 305:/Users/imashio/Electronics/ARM/_Library/u8g2_d_memory.c **** }
 1507              		.loc 1 305 0
 1508 0004 0048     		ldr	r0, .L149
 1509              	.LVL99:
 1510 0006 7047     		bx	lr
 1511              	.L150:
 1512              		.align	2
 1513              	.L149:
 1514 0008 00000000 		.word	.LANCHOR49
 1515              		.cfi_endproc
 1516              	.LFE49:
 1518              		.section	.text.u8g2_m_30_16_f,"ax",%progbits
 1519              		.align	1
 1520              		.global	u8g2_m_30_16_f
 1521              		.syntax unified
 1522              		.thumb
 1523              		.thumb_func
 1524              		.fpu fpv4-sp-d16
 1526              	u8g2_m_30_16_f:
 1527              	.LFB50:
 306:/Users/imashio/Electronics/ARM/_Library/u8g2_d_memory.c **** uint8_t *u8g2_m_30_16_f(uint8_t *page_cnt)
 307:/Users/imashio/Electronics/ARM/_Library/u8g2_d_memory.c **** {
 1528              		.loc 1 307 0
 1529              		.cfi_startproc
 1530              		@ args = 0, pretend = 0, frame = 0
 1531              		@ frame_needed = 0, uses_anonymous_args = 0
 1532              		@ link register save eliminated.
 1533              	.LVL100:
 308:/Users/imashio/Electronics/ARM/_Library/u8g2_d_memory.c ****   static uint8_t buf[3840];
 309:/Users/imashio/Electronics/ARM/_Library/u8g2_d_memory.c ****   *page_cnt = 16;
 1534              		.loc 1 309 0
 1535 0000 1023     		movs	r3, #16
 1536 0002 0370     		strb	r3, [r0]
 310:/Users/imashio/Electronics/ARM/_Library/u8g2_d_memory.c ****   return buf;
 311:/Users/imashio/Electronics/ARM/_Library/u8g2_d_memory.c **** }
 1537              		.loc 1 311 0
 1538 0004 0048     		ldr	r0, .L152
 1539              	.LVL101:
 1540 0006 7047     		bx	lr
 1541              	.L153:
 1542              		.align	2
 1543              	.L152:
 1544 0008 00000000 		.word	.LANCHOR50
 1545              		.cfi_endproc
 1546              	.LFE50:
 1548              		.section	.text.u8g2_m_20_16_1,"ax",%progbits
 1549              		.align	1
 1550              		.global	u8g2_m_20_16_1
 1551              		.syntax unified
 1552              		.thumb
 1553              		.thumb_func
 1554              		.fpu fpv4-sp-d16
 1556              	u8g2_m_20_16_1:
 1557              	.LFB51:
 312:/Users/imashio/Electronics/ARM/_Library/u8g2_d_memory.c **** uint8_t *u8g2_m_20_16_1(uint8_t *page_cnt)
 313:/Users/imashio/Electronics/ARM/_Library/u8g2_d_memory.c **** {
ARM GAS  /var/folders/v3/wysfpd052nz8jkbx04pk0ym80000gn/T//cc0GVfKk.s 			page 32


 1558              		.loc 1 313 0
 1559              		.cfi_startproc
 1560              		@ args = 0, pretend = 0, frame = 0
 1561              		@ frame_needed = 0, uses_anonymous_args = 0
 1562              		@ link register save eliminated.
 1563              	.LVL102:
 314:/Users/imashio/Electronics/ARM/_Library/u8g2_d_memory.c ****   static uint8_t buf[160];
 315:/Users/imashio/Electronics/ARM/_Library/u8g2_d_memory.c ****   *page_cnt = 1;
 1564              		.loc 1 315 0
 1565 0000 0123     		movs	r3, #1
 1566 0002 0370     		strb	r3, [r0]
 316:/Users/imashio/Electronics/ARM/_Library/u8g2_d_memory.c ****   return buf;
 317:/Users/imashio/Electronics/ARM/_Library/u8g2_d_memory.c **** }
 1567              		.loc 1 317 0
 1568 0004 0048     		ldr	r0, .L155
 1569              	.LVL103:
 1570 0006 7047     		bx	lr
 1571              	.L156:
 1572              		.align	2
 1573              	.L155:
 1574 0008 00000000 		.word	.LANCHOR51
 1575              		.cfi_endproc
 1576              	.LFE51:
 1578              		.section	.text.u8g2_m_20_16_2,"ax",%progbits
 1579              		.align	1
 1580              		.global	u8g2_m_20_16_2
 1581              		.syntax unified
 1582              		.thumb
 1583              		.thumb_func
 1584              		.fpu fpv4-sp-d16
 1586              	u8g2_m_20_16_2:
 1587              	.LFB52:
 318:/Users/imashio/Electronics/ARM/_Library/u8g2_d_memory.c **** uint8_t *u8g2_m_20_16_2(uint8_t *page_cnt)
 319:/Users/imashio/Electronics/ARM/_Library/u8g2_d_memory.c **** {
 1588              		.loc 1 319 0
 1589              		.cfi_startproc
 1590              		@ args = 0, pretend = 0, frame = 0
 1591              		@ frame_needed = 0, uses_anonymous_args = 0
 1592              		@ link register save eliminated.
 1593              	.LVL104:
 320:/Users/imashio/Electronics/ARM/_Library/u8g2_d_memory.c ****   static uint8_t buf[320];
 321:/Users/imashio/Electronics/ARM/_Library/u8g2_d_memory.c ****   *page_cnt = 2;
 1594              		.loc 1 321 0
 1595 0000 0223     		movs	r3, #2
 1596 0002 0370     		strb	r3, [r0]
 322:/Users/imashio/Electronics/ARM/_Library/u8g2_d_memory.c ****   return buf;
 323:/Users/imashio/Electronics/ARM/_Library/u8g2_d_memory.c **** }
 1597              		.loc 1 323 0
 1598 0004 0048     		ldr	r0, .L158
 1599              	.LVL105:
 1600 0006 7047     		bx	lr
 1601              	.L159:
 1602              		.align	2
 1603              	.L158:
 1604 0008 00000000 		.word	.LANCHOR52
 1605              		.cfi_endproc
 1606              	.LFE52:
ARM GAS  /var/folders/v3/wysfpd052nz8jkbx04pk0ym80000gn/T//cc0GVfKk.s 			page 33


 1608              		.section	.text.u8g2_m_20_16_f,"ax",%progbits
 1609              		.align	1
 1610              		.global	u8g2_m_20_16_f
 1611              		.syntax unified
 1612              		.thumb
 1613              		.thumb_func
 1614              		.fpu fpv4-sp-d16
 1616              	u8g2_m_20_16_f:
 1617              	.LFB53:
 324:/Users/imashio/Electronics/ARM/_Library/u8g2_d_memory.c **** uint8_t *u8g2_m_20_16_f(uint8_t *page_cnt)
 325:/Users/imashio/Electronics/ARM/_Library/u8g2_d_memory.c **** {
 1618              		.loc 1 325 0
 1619              		.cfi_startproc
 1620              		@ args = 0, pretend = 0, frame = 0
 1621              		@ frame_needed = 0, uses_anonymous_args = 0
 1622              		@ link register save eliminated.
 1623              	.LVL106:
 326:/Users/imashio/Electronics/ARM/_Library/u8g2_d_memory.c ****   static uint8_t buf[2560];
 327:/Users/imashio/Electronics/ARM/_Library/u8g2_d_memory.c ****   *page_cnt = 16;
 1624              		.loc 1 327 0
 1625 0000 1023     		movs	r3, #16
 1626 0002 0370     		strb	r3, [r0]
 328:/Users/imashio/Electronics/ARM/_Library/u8g2_d_memory.c ****   return buf;
 329:/Users/imashio/Electronics/ARM/_Library/u8g2_d_memory.c **** }
 1627              		.loc 1 329 0
 1628 0004 0048     		ldr	r0, .L161
 1629              	.LVL107:
 1630 0006 7047     		bx	lr
 1631              	.L162:
 1632              		.align	2
 1633              	.L161:
 1634 0008 00000000 		.word	.LANCHOR53
 1635              		.cfi_endproc
 1636              	.LFE53:
 1638              		.section	.text.u8g2_m_20_13_1,"ax",%progbits
 1639              		.align	1
 1640              		.global	u8g2_m_20_13_1
 1641              		.syntax unified
 1642              		.thumb
 1643              		.thumb_func
 1644              		.fpu fpv4-sp-d16
 1646              	u8g2_m_20_13_1:
 1647              	.LFB54:
 330:/Users/imashio/Electronics/ARM/_Library/u8g2_d_memory.c **** uint8_t *u8g2_m_20_13_1(uint8_t *page_cnt)
 331:/Users/imashio/Electronics/ARM/_Library/u8g2_d_memory.c **** {
 1648              		.loc 1 331 0
 1649              		.cfi_startproc
 1650              		@ args = 0, pretend = 0, frame = 0
 1651              		@ frame_needed = 0, uses_anonymous_args = 0
 1652              		@ link register save eliminated.
 1653              	.LVL108:
 332:/Users/imashio/Electronics/ARM/_Library/u8g2_d_memory.c ****   static uint8_t buf[160];
 333:/Users/imashio/Electronics/ARM/_Library/u8g2_d_memory.c ****   *page_cnt = 1;
 1654              		.loc 1 333 0
 1655 0000 0123     		movs	r3, #1
 1656 0002 0370     		strb	r3, [r0]
 334:/Users/imashio/Electronics/ARM/_Library/u8g2_d_memory.c ****   return buf;
ARM GAS  /var/folders/v3/wysfpd052nz8jkbx04pk0ym80000gn/T//cc0GVfKk.s 			page 34


 335:/Users/imashio/Electronics/ARM/_Library/u8g2_d_memory.c **** }
 1657              		.loc 1 335 0
 1658 0004 0048     		ldr	r0, .L164
 1659              	.LVL109:
 1660 0006 7047     		bx	lr
 1661              	.L165:
 1662              		.align	2
 1663              	.L164:
 1664 0008 00000000 		.word	.LANCHOR54
 1665              		.cfi_endproc
 1666              	.LFE54:
 1668              		.section	.text.u8g2_m_20_13_2,"ax",%progbits
 1669              		.align	1
 1670              		.global	u8g2_m_20_13_2
 1671              		.syntax unified
 1672              		.thumb
 1673              		.thumb_func
 1674              		.fpu fpv4-sp-d16
 1676              	u8g2_m_20_13_2:
 1677              	.LFB55:
 336:/Users/imashio/Electronics/ARM/_Library/u8g2_d_memory.c **** uint8_t *u8g2_m_20_13_2(uint8_t *page_cnt)
 337:/Users/imashio/Electronics/ARM/_Library/u8g2_d_memory.c **** {
 1678              		.loc 1 337 0
 1679              		.cfi_startproc
 1680              		@ args = 0, pretend = 0, frame = 0
 1681              		@ frame_needed = 0, uses_anonymous_args = 0
 1682              		@ link register save eliminated.
 1683              	.LVL110:
 338:/Users/imashio/Electronics/ARM/_Library/u8g2_d_memory.c ****   static uint8_t buf[320];
 339:/Users/imashio/Electronics/ARM/_Library/u8g2_d_memory.c ****   *page_cnt = 2;
 1684              		.loc 1 339 0
 1685 0000 0223     		movs	r3, #2
 1686 0002 0370     		strb	r3, [r0]
 340:/Users/imashio/Electronics/ARM/_Library/u8g2_d_memory.c ****   return buf;
 341:/Users/imashio/Electronics/ARM/_Library/u8g2_d_memory.c **** }
 1687              		.loc 1 341 0
 1688 0004 0048     		ldr	r0, .L167
 1689              	.LVL111:
 1690 0006 7047     		bx	lr
 1691              	.L168:
 1692              		.align	2
 1693              	.L167:
 1694 0008 00000000 		.word	.LANCHOR55
 1695              		.cfi_endproc
 1696              	.LFE55:
 1698              		.section	.text.u8g2_m_20_13_f,"ax",%progbits
 1699              		.align	1
 1700              		.global	u8g2_m_20_13_f
 1701              		.syntax unified
 1702              		.thumb
 1703              		.thumb_func
 1704              		.fpu fpv4-sp-d16
 1706              	u8g2_m_20_13_f:
 1707              	.LFB56:
 342:/Users/imashio/Electronics/ARM/_Library/u8g2_d_memory.c **** uint8_t *u8g2_m_20_13_f(uint8_t *page_cnt)
 343:/Users/imashio/Electronics/ARM/_Library/u8g2_d_memory.c **** {
 1708              		.loc 1 343 0
ARM GAS  /var/folders/v3/wysfpd052nz8jkbx04pk0ym80000gn/T//cc0GVfKk.s 			page 35


 1709              		.cfi_startproc
 1710              		@ args = 0, pretend = 0, frame = 0
 1711              		@ frame_needed = 0, uses_anonymous_args = 0
 1712              		@ link register save eliminated.
 1713              	.LVL112:
 344:/Users/imashio/Electronics/ARM/_Library/u8g2_d_memory.c ****   static uint8_t buf[2080];
 345:/Users/imashio/Electronics/ARM/_Library/u8g2_d_memory.c ****   *page_cnt = 13;
 1714              		.loc 1 345 0
 1715 0000 0D23     		movs	r3, #13
 1716 0002 0370     		strb	r3, [r0]
 346:/Users/imashio/Electronics/ARM/_Library/u8g2_d_memory.c ****   return buf;
 347:/Users/imashio/Electronics/ARM/_Library/u8g2_d_memory.c **** }
 1717              		.loc 1 347 0
 1718 0004 0048     		ldr	r0, .L170
 1719              	.LVL113:
 1720 0006 7047     		bx	lr
 1721              	.L171:
 1722              		.align	2
 1723              	.L170:
 1724 0008 00000000 		.word	.LANCHOR56
 1725              		.cfi_endproc
 1726              	.LFE56:
 1728              		.section	.text.u8g2_m_30_20_1,"ax",%progbits
 1729              		.align	1
 1730              		.global	u8g2_m_30_20_1
 1731              		.syntax unified
 1732              		.thumb
 1733              		.thumb_func
 1734              		.fpu fpv4-sp-d16
 1736              	u8g2_m_30_20_1:
 1737              	.LFB57:
 348:/Users/imashio/Electronics/ARM/_Library/u8g2_d_memory.c **** uint8_t *u8g2_m_30_20_1(uint8_t *page_cnt)
 349:/Users/imashio/Electronics/ARM/_Library/u8g2_d_memory.c **** {
 1738              		.loc 1 349 0
 1739              		.cfi_startproc
 1740              		@ args = 0, pretend = 0, frame = 0
 1741              		@ frame_needed = 0, uses_anonymous_args = 0
 1742              		@ link register save eliminated.
 1743              	.LVL114:
 350:/Users/imashio/Electronics/ARM/_Library/u8g2_d_memory.c ****   static uint8_t buf[240];
 351:/Users/imashio/Electronics/ARM/_Library/u8g2_d_memory.c ****   *page_cnt = 1;
 1744              		.loc 1 351 0
 1745 0000 0123     		movs	r3, #1
 1746 0002 0370     		strb	r3, [r0]
 352:/Users/imashio/Electronics/ARM/_Library/u8g2_d_memory.c ****   return buf;
 353:/Users/imashio/Electronics/ARM/_Library/u8g2_d_memory.c **** }
 1747              		.loc 1 353 0
 1748 0004 0048     		ldr	r0, .L173
 1749              	.LVL115:
 1750 0006 7047     		bx	lr
 1751              	.L174:
 1752              		.align	2
 1753              	.L173:
 1754 0008 00000000 		.word	.LANCHOR57
 1755              		.cfi_endproc
 1756              	.LFE57:
 1758              		.section	.text.u8g2_m_30_20_2,"ax",%progbits
ARM GAS  /var/folders/v3/wysfpd052nz8jkbx04pk0ym80000gn/T//cc0GVfKk.s 			page 36


 1759              		.align	1
 1760              		.global	u8g2_m_30_20_2
 1761              		.syntax unified
 1762              		.thumb
 1763              		.thumb_func
 1764              		.fpu fpv4-sp-d16
 1766              	u8g2_m_30_20_2:
 1767              	.LFB58:
 354:/Users/imashio/Electronics/ARM/_Library/u8g2_d_memory.c **** uint8_t *u8g2_m_30_20_2(uint8_t *page_cnt)
 355:/Users/imashio/Electronics/ARM/_Library/u8g2_d_memory.c **** {
 1768              		.loc 1 355 0
 1769              		.cfi_startproc
 1770              		@ args = 0, pretend = 0, frame = 0
 1771              		@ frame_needed = 0, uses_anonymous_args = 0
 1772              		@ link register save eliminated.
 1773              	.LVL116:
 356:/Users/imashio/Electronics/ARM/_Library/u8g2_d_memory.c ****   static uint8_t buf[480];
 357:/Users/imashio/Electronics/ARM/_Library/u8g2_d_memory.c ****   *page_cnt = 2;
 1774              		.loc 1 357 0
 1775 0000 0223     		movs	r3, #2
 1776 0002 0370     		strb	r3, [r0]
 358:/Users/imashio/Electronics/ARM/_Library/u8g2_d_memory.c ****   return buf;
 359:/Users/imashio/Electronics/ARM/_Library/u8g2_d_memory.c **** }
 1777              		.loc 1 359 0
 1778 0004 0048     		ldr	r0, .L176
 1779              	.LVL117:
 1780 0006 7047     		bx	lr
 1781              	.L177:
 1782              		.align	2
 1783              	.L176:
 1784 0008 00000000 		.word	.LANCHOR58
 1785              		.cfi_endproc
 1786              	.LFE58:
 1788              		.section	.text.u8g2_m_30_20_f,"ax",%progbits
 1789              		.align	1
 1790              		.global	u8g2_m_30_20_f
 1791              		.syntax unified
 1792              		.thumb
 1793              		.thumb_func
 1794              		.fpu fpv4-sp-d16
 1796              	u8g2_m_30_20_f:
 1797              	.LFB59:
 360:/Users/imashio/Electronics/ARM/_Library/u8g2_d_memory.c **** uint8_t *u8g2_m_30_20_f(uint8_t *page_cnt)
 361:/Users/imashio/Electronics/ARM/_Library/u8g2_d_memory.c **** {
 1798              		.loc 1 361 0
 1799              		.cfi_startproc
 1800              		@ args = 0, pretend = 0, frame = 0
 1801              		@ frame_needed = 0, uses_anonymous_args = 0
 1802              		@ link register save eliminated.
 1803              	.LVL118:
 362:/Users/imashio/Electronics/ARM/_Library/u8g2_d_memory.c ****   static uint8_t buf[4800];
 363:/Users/imashio/Electronics/ARM/_Library/u8g2_d_memory.c ****   *page_cnt = 20;
 1804              		.loc 1 363 0
 1805 0000 1423     		movs	r3, #20
 1806 0002 0370     		strb	r3, [r0]
 364:/Users/imashio/Electronics/ARM/_Library/u8g2_d_memory.c ****   return buf;
 365:/Users/imashio/Electronics/ARM/_Library/u8g2_d_memory.c **** }
ARM GAS  /var/folders/v3/wysfpd052nz8jkbx04pk0ym80000gn/T//cc0GVfKk.s 			page 37


 1807              		.loc 1 365 0
 1808 0004 0048     		ldr	r0, .L179
 1809              	.LVL119:
 1810 0006 7047     		bx	lr
 1811              	.L180:
 1812              		.align	2
 1813              	.L179:
 1814 0008 00000000 		.word	buf.9905
 1815              		.cfi_endproc
 1816              	.LFE59:
 1818              		.section	.text.u8g2_m_17_4_1,"ax",%progbits
 1819              		.align	1
 1820              		.global	u8g2_m_17_4_1
 1821              		.syntax unified
 1822              		.thumb
 1823              		.thumb_func
 1824              		.fpu fpv4-sp-d16
 1826              	u8g2_m_17_4_1:
 1827              	.LFB60:
 366:/Users/imashio/Electronics/ARM/_Library/u8g2_d_memory.c **** uint8_t *u8g2_m_17_4_1(uint8_t *page_cnt)
 367:/Users/imashio/Electronics/ARM/_Library/u8g2_d_memory.c **** {
 1828              		.loc 1 367 0
 1829              		.cfi_startproc
 1830              		@ args = 0, pretend = 0, frame = 0
 1831              		@ frame_needed = 0, uses_anonymous_args = 0
 1832              		@ link register save eliminated.
 1833              	.LVL120:
 368:/Users/imashio/Electronics/ARM/_Library/u8g2_d_memory.c ****   static uint8_t buf[136];
 369:/Users/imashio/Electronics/ARM/_Library/u8g2_d_memory.c ****   *page_cnt = 1;
 1834              		.loc 1 369 0
 1835 0000 0123     		movs	r3, #1
 1836 0002 0370     		strb	r3, [r0]
 370:/Users/imashio/Electronics/ARM/_Library/u8g2_d_memory.c ****   return buf;
 371:/Users/imashio/Electronics/ARM/_Library/u8g2_d_memory.c **** }
 1837              		.loc 1 371 0
 1838 0004 0048     		ldr	r0, .L182
 1839              	.LVL121:
 1840 0006 7047     		bx	lr
 1841              	.L183:
 1842              		.align	2
 1843              	.L182:
 1844 0008 00000000 		.word	.LANCHOR59
 1845              		.cfi_endproc
 1846              	.LFE60:
 1848              		.section	.text.u8g2_m_17_4_2,"ax",%progbits
 1849              		.align	1
 1850              		.global	u8g2_m_17_4_2
 1851              		.syntax unified
 1852              		.thumb
 1853              		.thumb_func
 1854              		.fpu fpv4-sp-d16
 1856              	u8g2_m_17_4_2:
 1857              	.LFB61:
 372:/Users/imashio/Electronics/ARM/_Library/u8g2_d_memory.c **** uint8_t *u8g2_m_17_4_2(uint8_t *page_cnt)
 373:/Users/imashio/Electronics/ARM/_Library/u8g2_d_memory.c **** {
 1858              		.loc 1 373 0
 1859              		.cfi_startproc
ARM GAS  /var/folders/v3/wysfpd052nz8jkbx04pk0ym80000gn/T//cc0GVfKk.s 			page 38


 1860              		@ args = 0, pretend = 0, frame = 0
 1861              		@ frame_needed = 0, uses_anonymous_args = 0
 1862              		@ link register save eliminated.
 1863              	.LVL122:
 374:/Users/imashio/Electronics/ARM/_Library/u8g2_d_memory.c ****   static uint8_t buf[272];
 375:/Users/imashio/Electronics/ARM/_Library/u8g2_d_memory.c ****   *page_cnt = 2;
 1864              		.loc 1 375 0
 1865 0000 0223     		movs	r3, #2
 1866 0002 0370     		strb	r3, [r0]
 376:/Users/imashio/Electronics/ARM/_Library/u8g2_d_memory.c ****   return buf;
 377:/Users/imashio/Electronics/ARM/_Library/u8g2_d_memory.c **** }
 1867              		.loc 1 377 0
 1868 0004 0048     		ldr	r0, .L185
 1869              	.LVL123:
 1870 0006 7047     		bx	lr
 1871              	.L186:
 1872              		.align	2
 1873              	.L185:
 1874 0008 00000000 		.word	.LANCHOR60
 1875              		.cfi_endproc
 1876              	.LFE61:
 1878              		.section	.text.u8g2_m_17_4_f,"ax",%progbits
 1879              		.align	1
 1880              		.global	u8g2_m_17_4_f
 1881              		.syntax unified
 1882              		.thumb
 1883              		.thumb_func
 1884              		.fpu fpv4-sp-d16
 1886              	u8g2_m_17_4_f:
 1887              	.LFB62:
 378:/Users/imashio/Electronics/ARM/_Library/u8g2_d_memory.c **** uint8_t *u8g2_m_17_4_f(uint8_t *page_cnt)
 379:/Users/imashio/Electronics/ARM/_Library/u8g2_d_memory.c **** {
 1888              		.loc 1 379 0
 1889              		.cfi_startproc
 1890              		@ args = 0, pretend = 0, frame = 0
 1891              		@ frame_needed = 0, uses_anonymous_args = 0
 1892              		@ link register save eliminated.
 1893              	.LVL124:
 380:/Users/imashio/Electronics/ARM/_Library/u8g2_d_memory.c ****   static uint8_t buf[544];
 381:/Users/imashio/Electronics/ARM/_Library/u8g2_d_memory.c ****   *page_cnt = 4;
 1894              		.loc 1 381 0
 1895 0000 0423     		movs	r3, #4
 1896 0002 0370     		strb	r3, [r0]
 382:/Users/imashio/Electronics/ARM/_Library/u8g2_d_memory.c ****   return buf;
 383:/Users/imashio/Electronics/ARM/_Library/u8g2_d_memory.c **** }
 1897              		.loc 1 383 0
 1898 0004 0048     		ldr	r0, .L188
 1899              	.LVL125:
 1900 0006 7047     		bx	lr
 1901              	.L189:
 1902              		.align	2
 1903              	.L188:
 1904 0008 00000000 		.word	.LANCHOR61
 1905              		.cfi_endproc
 1906              	.LFE62:
 1908              		.section	.text.u8g2_m_17_8_1,"ax",%progbits
 1909              		.align	1
ARM GAS  /var/folders/v3/wysfpd052nz8jkbx04pk0ym80000gn/T//cc0GVfKk.s 			page 39


 1910              		.global	u8g2_m_17_8_1
 1911              		.syntax unified
 1912              		.thumb
 1913              		.thumb_func
 1914              		.fpu fpv4-sp-d16
 1916              	u8g2_m_17_8_1:
 1917              	.LFB63:
 384:/Users/imashio/Electronics/ARM/_Library/u8g2_d_memory.c **** uint8_t *u8g2_m_17_8_1(uint8_t *page_cnt)
 385:/Users/imashio/Electronics/ARM/_Library/u8g2_d_memory.c **** {
 1918              		.loc 1 385 0
 1919              		.cfi_startproc
 1920              		@ args = 0, pretend = 0, frame = 0
 1921              		@ frame_needed = 0, uses_anonymous_args = 0
 1922              		@ link register save eliminated.
 1923              	.LVL126:
 386:/Users/imashio/Electronics/ARM/_Library/u8g2_d_memory.c ****   static uint8_t buf[136];
 387:/Users/imashio/Electronics/ARM/_Library/u8g2_d_memory.c ****   *page_cnt = 1;
 1924              		.loc 1 387 0
 1925 0000 0123     		movs	r3, #1
 1926 0002 0370     		strb	r3, [r0]
 388:/Users/imashio/Electronics/ARM/_Library/u8g2_d_memory.c ****   return buf;
 389:/Users/imashio/Electronics/ARM/_Library/u8g2_d_memory.c **** }
 1927              		.loc 1 389 0
 1928 0004 0048     		ldr	r0, .L191
 1929              	.LVL127:
 1930 0006 7047     		bx	lr
 1931              	.L192:
 1932              		.align	2
 1933              	.L191:
 1934 0008 00000000 		.word	.LANCHOR62
 1935              		.cfi_endproc
 1936              	.LFE63:
 1938              		.section	.text.u8g2_m_17_8_2,"ax",%progbits
 1939              		.align	1
 1940              		.global	u8g2_m_17_8_2
 1941              		.syntax unified
 1942              		.thumb
 1943              		.thumb_func
 1944              		.fpu fpv4-sp-d16
 1946              	u8g2_m_17_8_2:
 1947              	.LFB64:
 390:/Users/imashio/Electronics/ARM/_Library/u8g2_d_memory.c **** uint8_t *u8g2_m_17_8_2(uint8_t *page_cnt)
 391:/Users/imashio/Electronics/ARM/_Library/u8g2_d_memory.c **** {
 1948              		.loc 1 391 0
 1949              		.cfi_startproc
 1950              		@ args = 0, pretend = 0, frame = 0
 1951              		@ frame_needed = 0, uses_anonymous_args = 0
 1952              		@ link register save eliminated.
 1953              	.LVL128:
 392:/Users/imashio/Electronics/ARM/_Library/u8g2_d_memory.c ****   static uint8_t buf[272];
 393:/Users/imashio/Electronics/ARM/_Library/u8g2_d_memory.c ****   *page_cnt = 2;
 1954              		.loc 1 393 0
 1955 0000 0223     		movs	r3, #2
 1956 0002 0370     		strb	r3, [r0]
 394:/Users/imashio/Electronics/ARM/_Library/u8g2_d_memory.c ****   return buf;
 395:/Users/imashio/Electronics/ARM/_Library/u8g2_d_memory.c **** }
 1957              		.loc 1 395 0
ARM GAS  /var/folders/v3/wysfpd052nz8jkbx04pk0ym80000gn/T//cc0GVfKk.s 			page 40


 1958 0004 0048     		ldr	r0, .L194
 1959              	.LVL129:
 1960 0006 7047     		bx	lr
 1961              	.L195:
 1962              		.align	2
 1963              	.L194:
 1964 0008 00000000 		.word	.LANCHOR63
 1965              		.cfi_endproc
 1966              	.LFE64:
 1968              		.section	.text.u8g2_m_17_8_f,"ax",%progbits
 1969              		.align	1
 1970              		.global	u8g2_m_17_8_f
 1971              		.syntax unified
 1972              		.thumb
 1973              		.thumb_func
 1974              		.fpu fpv4-sp-d16
 1976              	u8g2_m_17_8_f:
 1977              	.LFB65:
 396:/Users/imashio/Electronics/ARM/_Library/u8g2_d_memory.c **** uint8_t *u8g2_m_17_8_f(uint8_t *page_cnt)
 397:/Users/imashio/Electronics/ARM/_Library/u8g2_d_memory.c **** {
 1978              		.loc 1 397 0
 1979              		.cfi_startproc
 1980              		@ args = 0, pretend = 0, frame = 0
 1981              		@ frame_needed = 0, uses_anonymous_args = 0
 1982              		@ link register save eliminated.
 1983              	.LVL130:
 398:/Users/imashio/Electronics/ARM/_Library/u8g2_d_memory.c ****   static uint8_t buf[1088];
 399:/Users/imashio/Electronics/ARM/_Library/u8g2_d_memory.c ****   *page_cnt = 8;
 1984              		.loc 1 399 0
 1985 0000 0823     		movs	r3, #8
 1986 0002 0370     		strb	r3, [r0]
 400:/Users/imashio/Electronics/ARM/_Library/u8g2_d_memory.c ****   return buf;
 401:/Users/imashio/Electronics/ARM/_Library/u8g2_d_memory.c **** }
 1987              		.loc 1 401 0
 1988 0004 0048     		ldr	r0, .L197
 1989              	.LVL131:
 1990 0006 7047     		bx	lr
 1991              	.L198:
 1992              		.align	2
 1993              	.L197:
 1994 0008 00000000 		.word	.LANCHOR64
 1995              		.cfi_endproc
 1996              	.LFE65:
 1998              		.section	.text.u8g2_m_32_16_1,"ax",%progbits
 1999              		.align	1
 2000              		.global	u8g2_m_32_16_1
 2001              		.syntax unified
 2002              		.thumb
 2003              		.thumb_func
 2004              		.fpu fpv4-sp-d16
 2006              	u8g2_m_32_16_1:
 2007              	.LFB66:
 402:/Users/imashio/Electronics/ARM/_Library/u8g2_d_memory.c **** uint8_t *u8g2_m_32_16_1(uint8_t *page_cnt)
 403:/Users/imashio/Electronics/ARM/_Library/u8g2_d_memory.c **** {
 2008              		.loc 1 403 0
 2009              		.cfi_startproc
 2010              		@ args = 0, pretend = 0, frame = 0
ARM GAS  /var/folders/v3/wysfpd052nz8jkbx04pk0ym80000gn/T//cc0GVfKk.s 			page 41


 2011              		@ frame_needed = 0, uses_anonymous_args = 0
 2012              		@ link register save eliminated.
 2013              	.LVL132:
 404:/Users/imashio/Electronics/ARM/_Library/u8g2_d_memory.c ****   static uint8_t buf[256];
 405:/Users/imashio/Electronics/ARM/_Library/u8g2_d_memory.c ****   *page_cnt = 1;
 2014              		.loc 1 405 0
 2015 0000 0123     		movs	r3, #1
 2016 0002 0370     		strb	r3, [r0]
 406:/Users/imashio/Electronics/ARM/_Library/u8g2_d_memory.c ****   return buf;
 407:/Users/imashio/Electronics/ARM/_Library/u8g2_d_memory.c **** }
 2017              		.loc 1 407 0
 2018 0004 0048     		ldr	r0, .L200
 2019              	.LVL133:
 2020 0006 7047     		bx	lr
 2021              	.L201:
 2022              		.align	2
 2023              	.L200:
 2024 0008 00000000 		.word	.LANCHOR65
 2025              		.cfi_endproc
 2026              	.LFE66:
 2028              		.section	.text.u8g2_m_32_16_2,"ax",%progbits
 2029              		.align	1
 2030              		.global	u8g2_m_32_16_2
 2031              		.syntax unified
 2032              		.thumb
 2033              		.thumb_func
 2034              		.fpu fpv4-sp-d16
 2036              	u8g2_m_32_16_2:
 2037              	.LFB67:
 408:/Users/imashio/Electronics/ARM/_Library/u8g2_d_memory.c **** uint8_t *u8g2_m_32_16_2(uint8_t *page_cnt)
 409:/Users/imashio/Electronics/ARM/_Library/u8g2_d_memory.c **** {
 2038              		.loc 1 409 0
 2039              		.cfi_startproc
 2040              		@ args = 0, pretend = 0, frame = 0
 2041              		@ frame_needed = 0, uses_anonymous_args = 0
 2042              		@ link register save eliminated.
 2043              	.LVL134:
 410:/Users/imashio/Electronics/ARM/_Library/u8g2_d_memory.c ****   static uint8_t buf[512];
 411:/Users/imashio/Electronics/ARM/_Library/u8g2_d_memory.c ****   *page_cnt = 2;
 2044              		.loc 1 411 0
 2045 0000 0223     		movs	r3, #2
 2046 0002 0370     		strb	r3, [r0]
 412:/Users/imashio/Electronics/ARM/_Library/u8g2_d_memory.c ****   return buf;
 413:/Users/imashio/Electronics/ARM/_Library/u8g2_d_memory.c **** }
 2047              		.loc 1 413 0
 2048 0004 0048     		ldr	r0, .L203
 2049              	.LVL135:
 2050 0006 7047     		bx	lr
 2051              	.L204:
 2052              		.align	2
 2053              	.L203:
 2054 0008 00000000 		.word	.LANCHOR66
 2055              		.cfi_endproc
 2056              	.LFE67:
 2058              		.section	.text.u8g2_m_32_16_f,"ax",%progbits
 2059              		.align	1
 2060              		.global	u8g2_m_32_16_f
ARM GAS  /var/folders/v3/wysfpd052nz8jkbx04pk0ym80000gn/T//cc0GVfKk.s 			page 42


 2061              		.syntax unified
 2062              		.thumb
 2063              		.thumb_func
 2064              		.fpu fpv4-sp-d16
 2066              	u8g2_m_32_16_f:
 2067              	.LFB68:
 414:/Users/imashio/Electronics/ARM/_Library/u8g2_d_memory.c **** uint8_t *u8g2_m_32_16_f(uint8_t *page_cnt)
 415:/Users/imashio/Electronics/ARM/_Library/u8g2_d_memory.c **** {
 2068              		.loc 1 415 0
 2069              		.cfi_startproc
 2070              		@ args = 0, pretend = 0, frame = 0
 2071              		@ frame_needed = 0, uses_anonymous_args = 0
 2072              		@ link register save eliminated.
 2073              	.LVL136:
 416:/Users/imashio/Electronics/ARM/_Library/u8g2_d_memory.c ****   static uint8_t buf[4096];
 417:/Users/imashio/Electronics/ARM/_Library/u8g2_d_memory.c ****   *page_cnt = 16;
 2074              		.loc 1 417 0
 2075 0000 1023     		movs	r3, #16
 2076 0002 0370     		strb	r3, [r0]
 418:/Users/imashio/Electronics/ARM/_Library/u8g2_d_memory.c ****   return buf;
 419:/Users/imashio/Electronics/ARM/_Library/u8g2_d_memory.c **** }
 2077              		.loc 1 419 0
 2078 0004 0048     		ldr	r0, .L206
 2079              	.LVL137:
 2080 0006 7047     		bx	lr
 2081              	.L207:
 2082              		.align	2
 2083              	.L206:
 2084 0008 00000000 		.word	buf.9941
 2085              		.cfi_endproc
 2086              	.LFE68:
 2088              		.section	.text.u8g2_m_32_8_1,"ax",%progbits
 2089              		.align	1
 2090              		.global	u8g2_m_32_8_1
 2091              		.syntax unified
 2092              		.thumb
 2093              		.thumb_func
 2094              		.fpu fpv4-sp-d16
 2096              	u8g2_m_32_8_1:
 2097              	.LFB69:
 420:/Users/imashio/Electronics/ARM/_Library/u8g2_d_memory.c **** uint8_t *u8g2_m_32_8_1(uint8_t *page_cnt)
 421:/Users/imashio/Electronics/ARM/_Library/u8g2_d_memory.c **** {
 2098              		.loc 1 421 0
 2099              		.cfi_startproc
 2100              		@ args = 0, pretend = 0, frame = 0
 2101              		@ frame_needed = 0, uses_anonymous_args = 0
 2102              		@ link register save eliminated.
 2103              	.LVL138:
 422:/Users/imashio/Electronics/ARM/_Library/u8g2_d_memory.c ****   static uint8_t buf[256];
 423:/Users/imashio/Electronics/ARM/_Library/u8g2_d_memory.c ****   *page_cnt = 1;
 2104              		.loc 1 423 0
 2105 0000 0123     		movs	r3, #1
 2106 0002 0370     		strb	r3, [r0]
 424:/Users/imashio/Electronics/ARM/_Library/u8g2_d_memory.c ****   return buf;
 425:/Users/imashio/Electronics/ARM/_Library/u8g2_d_memory.c **** }
 2107              		.loc 1 425 0
 2108 0004 0048     		ldr	r0, .L209
ARM GAS  /var/folders/v3/wysfpd052nz8jkbx04pk0ym80000gn/T//cc0GVfKk.s 			page 43


 2109              	.LVL139:
 2110 0006 7047     		bx	lr
 2111              	.L210:
 2112              		.align	2
 2113              	.L209:
 2114 0008 00000000 		.word	.LANCHOR67
 2115              		.cfi_endproc
 2116              	.LFE69:
 2118              		.section	.text.u8g2_m_32_8_2,"ax",%progbits
 2119              		.align	1
 2120              		.global	u8g2_m_32_8_2
 2121              		.syntax unified
 2122              		.thumb
 2123              		.thumb_func
 2124              		.fpu fpv4-sp-d16
 2126              	u8g2_m_32_8_2:
 2127              	.LFB70:
 426:/Users/imashio/Electronics/ARM/_Library/u8g2_d_memory.c **** uint8_t *u8g2_m_32_8_2(uint8_t *page_cnt)
 427:/Users/imashio/Electronics/ARM/_Library/u8g2_d_memory.c **** {
 2128              		.loc 1 427 0
 2129              		.cfi_startproc
 2130              		@ args = 0, pretend = 0, frame = 0
 2131              		@ frame_needed = 0, uses_anonymous_args = 0
 2132              		@ link register save eliminated.
 2133              	.LVL140:
 428:/Users/imashio/Electronics/ARM/_Library/u8g2_d_memory.c ****   static uint8_t buf[512];
 429:/Users/imashio/Electronics/ARM/_Library/u8g2_d_memory.c ****   *page_cnt = 2;
 2134              		.loc 1 429 0
 2135 0000 0223     		movs	r3, #2
 2136 0002 0370     		strb	r3, [r0]
 430:/Users/imashio/Electronics/ARM/_Library/u8g2_d_memory.c ****   return buf;
 431:/Users/imashio/Electronics/ARM/_Library/u8g2_d_memory.c **** }
 2137              		.loc 1 431 0
 2138 0004 0048     		ldr	r0, .L212
 2139              	.LVL141:
 2140 0006 7047     		bx	lr
 2141              	.L213:
 2142              		.align	2
 2143              	.L212:
 2144 0008 00000000 		.word	.LANCHOR68
 2145              		.cfi_endproc
 2146              	.LFE70:
 2148              		.section	.text.u8g2_m_32_8_f,"ax",%progbits
 2149              		.align	1
 2150              		.global	u8g2_m_32_8_f
 2151              		.syntax unified
 2152              		.thumb
 2153              		.thumb_func
 2154              		.fpu fpv4-sp-d16
 2156              	u8g2_m_32_8_f:
 2157              	.LFB71:
 432:/Users/imashio/Electronics/ARM/_Library/u8g2_d_memory.c **** uint8_t *u8g2_m_32_8_f(uint8_t *page_cnt)
 433:/Users/imashio/Electronics/ARM/_Library/u8g2_d_memory.c **** {
 2158              		.loc 1 433 0
 2159              		.cfi_startproc
 2160              		@ args = 0, pretend = 0, frame = 0
 2161              		@ frame_needed = 0, uses_anonymous_args = 0
ARM GAS  /var/folders/v3/wysfpd052nz8jkbx04pk0ym80000gn/T//cc0GVfKk.s 			page 44


 2162              		@ link register save eliminated.
 2163              	.LVL142:
 434:/Users/imashio/Electronics/ARM/_Library/u8g2_d_memory.c ****   static uint8_t buf[2048];
 435:/Users/imashio/Electronics/ARM/_Library/u8g2_d_memory.c ****   *page_cnt = 8;
 2164              		.loc 1 435 0
 2165 0000 0823     		movs	r3, #8
 2166 0002 0370     		strb	r3, [r0]
 436:/Users/imashio/Electronics/ARM/_Library/u8g2_d_memory.c ****   return buf;
 437:/Users/imashio/Electronics/ARM/_Library/u8g2_d_memory.c **** }
 2167              		.loc 1 437 0
 2168 0004 0048     		ldr	r0, .L215
 2169              	.LVL143:
 2170 0006 7047     		bx	lr
 2171              	.L216:
 2172              		.align	2
 2173              	.L215:
 2174 0008 00000000 		.word	.LANCHOR69
 2175              		.cfi_endproc
 2176              	.LFE71:
 2178              		.section	.text.u8g2_m_22_13_1,"ax",%progbits
 2179              		.align	1
 2180              		.global	u8g2_m_22_13_1
 2181              		.syntax unified
 2182              		.thumb
 2183              		.thumb_func
 2184              		.fpu fpv4-sp-d16
 2186              	u8g2_m_22_13_1:
 2187              	.LFB72:
 438:/Users/imashio/Electronics/ARM/_Library/u8g2_d_memory.c **** uint8_t *u8g2_m_22_13_1(uint8_t *page_cnt)
 439:/Users/imashio/Electronics/ARM/_Library/u8g2_d_memory.c **** {
 2188              		.loc 1 439 0
 2189              		.cfi_startproc
 2190              		@ args = 0, pretend = 0, frame = 0
 2191              		@ frame_needed = 0, uses_anonymous_args = 0
 2192              		@ link register save eliminated.
 2193              	.LVL144:
 440:/Users/imashio/Electronics/ARM/_Library/u8g2_d_memory.c ****   static uint8_t buf[176];
 441:/Users/imashio/Electronics/ARM/_Library/u8g2_d_memory.c ****   *page_cnt = 1;
 2194              		.loc 1 441 0
 2195 0000 0123     		movs	r3, #1
 2196 0002 0370     		strb	r3, [r0]
 442:/Users/imashio/Electronics/ARM/_Library/u8g2_d_memory.c ****   return buf;
 443:/Users/imashio/Electronics/ARM/_Library/u8g2_d_memory.c **** }
 2197              		.loc 1 443 0
 2198 0004 0048     		ldr	r0, .L218
 2199              	.LVL145:
 2200 0006 7047     		bx	lr
 2201              	.L219:
 2202              		.align	2
 2203              	.L218:
 2204 0008 00000000 		.word	.LANCHOR70
 2205              		.cfi_endproc
 2206              	.LFE72:
 2208              		.section	.text.u8g2_m_22_13_2,"ax",%progbits
 2209              		.align	1
 2210              		.global	u8g2_m_22_13_2
 2211              		.syntax unified
ARM GAS  /var/folders/v3/wysfpd052nz8jkbx04pk0ym80000gn/T//cc0GVfKk.s 			page 45


 2212              		.thumb
 2213              		.thumb_func
 2214              		.fpu fpv4-sp-d16
 2216              	u8g2_m_22_13_2:
 2217              	.LFB73:
 444:/Users/imashio/Electronics/ARM/_Library/u8g2_d_memory.c **** uint8_t *u8g2_m_22_13_2(uint8_t *page_cnt)
 445:/Users/imashio/Electronics/ARM/_Library/u8g2_d_memory.c **** {
 2218              		.loc 1 445 0
 2219              		.cfi_startproc
 2220              		@ args = 0, pretend = 0, frame = 0
 2221              		@ frame_needed = 0, uses_anonymous_args = 0
 2222              		@ link register save eliminated.
 2223              	.LVL146:
 446:/Users/imashio/Electronics/ARM/_Library/u8g2_d_memory.c ****   static uint8_t buf[352];
 447:/Users/imashio/Electronics/ARM/_Library/u8g2_d_memory.c ****   *page_cnt = 2;
 2224              		.loc 1 447 0
 2225 0000 0223     		movs	r3, #2
 2226 0002 0370     		strb	r3, [r0]
 448:/Users/imashio/Electronics/ARM/_Library/u8g2_d_memory.c ****   return buf;
 449:/Users/imashio/Electronics/ARM/_Library/u8g2_d_memory.c **** }
 2227              		.loc 1 449 0
 2228 0004 0048     		ldr	r0, .L221
 2229              	.LVL147:
 2230 0006 7047     		bx	lr
 2231              	.L222:
 2232              		.align	2
 2233              	.L221:
 2234 0008 00000000 		.word	.LANCHOR71
 2235              		.cfi_endproc
 2236              	.LFE73:
 2238              		.section	.text.u8g2_m_22_13_f,"ax",%progbits
 2239              		.align	1
 2240              		.global	u8g2_m_22_13_f
 2241              		.syntax unified
 2242              		.thumb
 2243              		.thumb_func
 2244              		.fpu fpv4-sp-d16
 2246              	u8g2_m_22_13_f:
 2247              	.LFB74:
 450:/Users/imashio/Electronics/ARM/_Library/u8g2_d_memory.c **** uint8_t *u8g2_m_22_13_f(uint8_t *page_cnt)
 451:/Users/imashio/Electronics/ARM/_Library/u8g2_d_memory.c **** {
 2248              		.loc 1 451 0
 2249              		.cfi_startproc
 2250              		@ args = 0, pretend = 0, frame = 0
 2251              		@ frame_needed = 0, uses_anonymous_args = 0
 2252              		@ link register save eliminated.
 2253              	.LVL148:
 452:/Users/imashio/Electronics/ARM/_Library/u8g2_d_memory.c ****   static uint8_t buf[2288];
 453:/Users/imashio/Electronics/ARM/_Library/u8g2_d_memory.c ****   *page_cnt = 13;
 2254              		.loc 1 453 0
 2255 0000 0D23     		movs	r3, #13
 2256 0002 0370     		strb	r3, [r0]
 454:/Users/imashio/Electronics/ARM/_Library/u8g2_d_memory.c ****   return buf;
 455:/Users/imashio/Electronics/ARM/_Library/u8g2_d_memory.c **** }
 2257              		.loc 1 455 0
 2258 0004 0048     		ldr	r0, .L224
 2259              	.LVL149:
ARM GAS  /var/folders/v3/wysfpd052nz8jkbx04pk0ym80000gn/T//cc0GVfKk.s 			page 46


 2260 0006 7047     		bx	lr
 2261              	.L225:
 2262              		.align	2
 2263              	.L224:
 2264 0008 00000000 		.word	.LANCHOR72
 2265              		.cfi_endproc
 2266              	.LFE74:
 2268              		.section	.text.u8g2_m_20_10_1,"ax",%progbits
 2269              		.align	1
 2270              		.global	u8g2_m_20_10_1
 2271              		.syntax unified
 2272              		.thumb
 2273              		.thumb_func
 2274              		.fpu fpv4-sp-d16
 2276              	u8g2_m_20_10_1:
 2277              	.LFB75:
 456:/Users/imashio/Electronics/ARM/_Library/u8g2_d_memory.c **** uint8_t *u8g2_m_20_10_1(uint8_t *page_cnt)
 457:/Users/imashio/Electronics/ARM/_Library/u8g2_d_memory.c **** {
 2278              		.loc 1 457 0
 2279              		.cfi_startproc
 2280              		@ args = 0, pretend = 0, frame = 0
 2281              		@ frame_needed = 0, uses_anonymous_args = 0
 2282              		@ link register save eliminated.
 2283              	.LVL150:
 458:/Users/imashio/Electronics/ARM/_Library/u8g2_d_memory.c ****   static uint8_t buf[160];
 459:/Users/imashio/Electronics/ARM/_Library/u8g2_d_memory.c ****   *page_cnt = 1;
 2284              		.loc 1 459 0
 2285 0000 0123     		movs	r3, #1
 2286 0002 0370     		strb	r3, [r0]
 460:/Users/imashio/Electronics/ARM/_Library/u8g2_d_memory.c ****   return buf;
 461:/Users/imashio/Electronics/ARM/_Library/u8g2_d_memory.c **** }
 2287              		.loc 1 461 0
 2288 0004 0048     		ldr	r0, .L227
 2289              	.LVL151:
 2290 0006 7047     		bx	lr
 2291              	.L228:
 2292              		.align	2
 2293              	.L227:
 2294 0008 00000000 		.word	.LANCHOR73
 2295              		.cfi_endproc
 2296              	.LFE75:
 2298              		.section	.text.u8g2_m_20_10_2,"ax",%progbits
 2299              		.align	1
 2300              		.global	u8g2_m_20_10_2
 2301              		.syntax unified
 2302              		.thumb
 2303              		.thumb_func
 2304              		.fpu fpv4-sp-d16
 2306              	u8g2_m_20_10_2:
 2307              	.LFB76:
 462:/Users/imashio/Electronics/ARM/_Library/u8g2_d_memory.c **** uint8_t *u8g2_m_20_10_2(uint8_t *page_cnt)
 463:/Users/imashio/Electronics/ARM/_Library/u8g2_d_memory.c **** {
 2308              		.loc 1 463 0
 2309              		.cfi_startproc
 2310              		@ args = 0, pretend = 0, frame = 0
 2311              		@ frame_needed = 0, uses_anonymous_args = 0
 2312              		@ link register save eliminated.
ARM GAS  /var/folders/v3/wysfpd052nz8jkbx04pk0ym80000gn/T//cc0GVfKk.s 			page 47


 2313              	.LVL152:
 464:/Users/imashio/Electronics/ARM/_Library/u8g2_d_memory.c ****   static uint8_t buf[320];
 465:/Users/imashio/Electronics/ARM/_Library/u8g2_d_memory.c ****   *page_cnt = 2;
 2314              		.loc 1 465 0
 2315 0000 0223     		movs	r3, #2
 2316 0002 0370     		strb	r3, [r0]
 466:/Users/imashio/Electronics/ARM/_Library/u8g2_d_memory.c ****   return buf;
 467:/Users/imashio/Electronics/ARM/_Library/u8g2_d_memory.c **** }
 2317              		.loc 1 467 0
 2318 0004 0048     		ldr	r0, .L230
 2319              	.LVL153:
 2320 0006 7047     		bx	lr
 2321              	.L231:
 2322              		.align	2
 2323              	.L230:
 2324 0008 00000000 		.word	.LANCHOR74
 2325              		.cfi_endproc
 2326              	.LFE76:
 2328              		.section	.text.u8g2_m_20_10_f,"ax",%progbits
 2329              		.align	1
 2330              		.global	u8g2_m_20_10_f
 2331              		.syntax unified
 2332              		.thumb
 2333              		.thumb_func
 2334              		.fpu fpv4-sp-d16
 2336              	u8g2_m_20_10_f:
 2337              	.LFB77:
 468:/Users/imashio/Electronics/ARM/_Library/u8g2_d_memory.c **** uint8_t *u8g2_m_20_10_f(uint8_t *page_cnt)
 469:/Users/imashio/Electronics/ARM/_Library/u8g2_d_memory.c **** {
 2338              		.loc 1 469 0
 2339              		.cfi_startproc
 2340              		@ args = 0, pretend = 0, frame = 0
 2341              		@ frame_needed = 0, uses_anonymous_args = 0
 2342              		@ link register save eliminated.
 2343              	.LVL154:
 470:/Users/imashio/Electronics/ARM/_Library/u8g2_d_memory.c ****   static uint8_t buf[1600];
 471:/Users/imashio/Electronics/ARM/_Library/u8g2_d_memory.c ****   *page_cnt = 10;
 2344              		.loc 1 471 0
 2345 0000 0A23     		movs	r3, #10
 2346 0002 0370     		strb	r3, [r0]
 472:/Users/imashio/Electronics/ARM/_Library/u8g2_d_memory.c ****   return buf;
 473:/Users/imashio/Electronics/ARM/_Library/u8g2_d_memory.c **** }
 2347              		.loc 1 473 0
 2348 0004 0048     		ldr	r0, .L233
 2349              	.LVL155:
 2350 0006 7047     		bx	lr
 2351              	.L234:
 2352              		.align	2
 2353              	.L233:
 2354 0008 00000000 		.word	.LANCHOR75
 2355              		.cfi_endproc
 2356              	.LFE77:
 2358              		.section	.text.u8g2_m_20_20_1,"ax",%progbits
 2359              		.align	1
 2360              		.global	u8g2_m_20_20_1
 2361              		.syntax unified
 2362              		.thumb
ARM GAS  /var/folders/v3/wysfpd052nz8jkbx04pk0ym80000gn/T//cc0GVfKk.s 			page 48


 2363              		.thumb_func
 2364              		.fpu fpv4-sp-d16
 2366              	u8g2_m_20_20_1:
 2367              	.LFB78:
 474:/Users/imashio/Electronics/ARM/_Library/u8g2_d_memory.c **** uint8_t *u8g2_m_20_20_1(uint8_t *page_cnt)
 475:/Users/imashio/Electronics/ARM/_Library/u8g2_d_memory.c **** {
 2368              		.loc 1 475 0
 2369              		.cfi_startproc
 2370              		@ args = 0, pretend = 0, frame = 0
 2371              		@ frame_needed = 0, uses_anonymous_args = 0
 2372              		@ link register save eliminated.
 2373              	.LVL156:
 476:/Users/imashio/Electronics/ARM/_Library/u8g2_d_memory.c ****   static uint8_t buf[160];
 477:/Users/imashio/Electronics/ARM/_Library/u8g2_d_memory.c ****   *page_cnt = 1;
 2374              		.loc 1 477 0
 2375 0000 0123     		movs	r3, #1
 2376 0002 0370     		strb	r3, [r0]
 478:/Users/imashio/Electronics/ARM/_Library/u8g2_d_memory.c ****   return buf;
 479:/Users/imashio/Electronics/ARM/_Library/u8g2_d_memory.c **** }
 2377              		.loc 1 479 0
 2378 0004 0048     		ldr	r0, .L236
 2379              	.LVL157:
 2380 0006 7047     		bx	lr
 2381              	.L237:
 2382              		.align	2
 2383              	.L236:
 2384 0008 00000000 		.word	.LANCHOR76
 2385              		.cfi_endproc
 2386              	.LFE78:
 2388              		.section	.text.u8g2_m_20_20_2,"ax",%progbits
 2389              		.align	1
 2390              		.global	u8g2_m_20_20_2
 2391              		.syntax unified
 2392              		.thumb
 2393              		.thumb_func
 2394              		.fpu fpv4-sp-d16
 2396              	u8g2_m_20_20_2:
 2397              	.LFB79:
 480:/Users/imashio/Electronics/ARM/_Library/u8g2_d_memory.c **** uint8_t *u8g2_m_20_20_2(uint8_t *page_cnt)
 481:/Users/imashio/Electronics/ARM/_Library/u8g2_d_memory.c **** {
 2398              		.loc 1 481 0
 2399              		.cfi_startproc
 2400              		@ args = 0, pretend = 0, frame = 0
 2401              		@ frame_needed = 0, uses_anonymous_args = 0
 2402              		@ link register save eliminated.
 2403              	.LVL158:
 482:/Users/imashio/Electronics/ARM/_Library/u8g2_d_memory.c ****   static uint8_t buf[320];
 483:/Users/imashio/Electronics/ARM/_Library/u8g2_d_memory.c ****   *page_cnt = 2;
 2404              		.loc 1 483 0
 2405 0000 0223     		movs	r3, #2
 2406 0002 0370     		strb	r3, [r0]
 484:/Users/imashio/Electronics/ARM/_Library/u8g2_d_memory.c ****   return buf;
 485:/Users/imashio/Electronics/ARM/_Library/u8g2_d_memory.c **** }
 2407              		.loc 1 485 0
 2408 0004 0048     		ldr	r0, .L239
 2409              	.LVL159:
 2410 0006 7047     		bx	lr
ARM GAS  /var/folders/v3/wysfpd052nz8jkbx04pk0ym80000gn/T//cc0GVfKk.s 			page 49


 2411              	.L240:
 2412              		.align	2
 2413              	.L239:
 2414 0008 00000000 		.word	.LANCHOR77
 2415              		.cfi_endproc
 2416              	.LFE79:
 2418              		.section	.text.u8g2_m_20_20_f,"ax",%progbits
 2419              		.align	1
 2420              		.global	u8g2_m_20_20_f
 2421              		.syntax unified
 2422              		.thumb
 2423              		.thumb_func
 2424              		.fpu fpv4-sp-d16
 2426              	u8g2_m_20_20_f:
 2427              	.LFB80:
 486:/Users/imashio/Electronics/ARM/_Library/u8g2_d_memory.c **** uint8_t *u8g2_m_20_20_f(uint8_t *page_cnt)
 487:/Users/imashio/Electronics/ARM/_Library/u8g2_d_memory.c **** {
 2428              		.loc 1 487 0
 2429              		.cfi_startproc
 2430              		@ args = 0, pretend = 0, frame = 0
 2431              		@ frame_needed = 0, uses_anonymous_args = 0
 2432              		@ link register save eliminated.
 2433              	.LVL160:
 488:/Users/imashio/Electronics/ARM/_Library/u8g2_d_memory.c ****   static uint8_t buf[3200];
 489:/Users/imashio/Electronics/ARM/_Library/u8g2_d_memory.c ****   *page_cnt = 20;
 2434              		.loc 1 489 0
 2435 0000 1423     		movs	r3, #20
 2436 0002 0370     		strb	r3, [r0]
 490:/Users/imashio/Electronics/ARM/_Library/u8g2_d_memory.c ****   return buf;
 491:/Users/imashio/Electronics/ARM/_Library/u8g2_d_memory.c **** }
 2437              		.loc 1 491 0
 2438 0004 0048     		ldr	r0, .L242
 2439              	.LVL161:
 2440 0006 7047     		bx	lr
 2441              	.L243:
 2442              		.align	2
 2443              	.L242:
 2444 0008 00000000 		.word	.LANCHOR78
 2445              		.cfi_endproc
 2446              	.LFE80:
 2448              		.section	.text.u8g2_m_22_9_1,"ax",%progbits
 2449              		.align	1
 2450              		.global	u8g2_m_22_9_1
 2451              		.syntax unified
 2452              		.thumb
 2453              		.thumb_func
 2454              		.fpu fpv4-sp-d16
 2456              	u8g2_m_22_9_1:
 2457              	.LFB81:
 492:/Users/imashio/Electronics/ARM/_Library/u8g2_d_memory.c **** uint8_t *u8g2_m_22_9_1(uint8_t *page_cnt)
 493:/Users/imashio/Electronics/ARM/_Library/u8g2_d_memory.c **** {
 2458              		.loc 1 493 0
 2459              		.cfi_startproc
 2460              		@ args = 0, pretend = 0, frame = 0
 2461              		@ frame_needed = 0, uses_anonymous_args = 0
 2462              		@ link register save eliminated.
 2463              	.LVL162:
ARM GAS  /var/folders/v3/wysfpd052nz8jkbx04pk0ym80000gn/T//cc0GVfKk.s 			page 50


 494:/Users/imashio/Electronics/ARM/_Library/u8g2_d_memory.c ****   static uint8_t buf[176];
 495:/Users/imashio/Electronics/ARM/_Library/u8g2_d_memory.c ****   *page_cnt = 1;
 2464              		.loc 1 495 0
 2465 0000 0123     		movs	r3, #1
 2466 0002 0370     		strb	r3, [r0]
 496:/Users/imashio/Electronics/ARM/_Library/u8g2_d_memory.c ****   return buf;
 497:/Users/imashio/Electronics/ARM/_Library/u8g2_d_memory.c **** }
 2467              		.loc 1 497 0
 2468 0004 0048     		ldr	r0, .L245
 2469              	.LVL163:
 2470 0006 7047     		bx	lr
 2471              	.L246:
 2472              		.align	2
 2473              	.L245:
 2474 0008 00000000 		.word	.LANCHOR79
 2475              		.cfi_endproc
 2476              	.LFE81:
 2478              		.section	.text.u8g2_m_22_9_2,"ax",%progbits
 2479              		.align	1
 2480              		.global	u8g2_m_22_9_2
 2481              		.syntax unified
 2482              		.thumb
 2483              		.thumb_func
 2484              		.fpu fpv4-sp-d16
 2486              	u8g2_m_22_9_2:
 2487              	.LFB82:
 498:/Users/imashio/Electronics/ARM/_Library/u8g2_d_memory.c **** uint8_t *u8g2_m_22_9_2(uint8_t *page_cnt)
 499:/Users/imashio/Electronics/ARM/_Library/u8g2_d_memory.c **** {
 2488              		.loc 1 499 0
 2489              		.cfi_startproc
 2490              		@ args = 0, pretend = 0, frame = 0
 2491              		@ frame_needed = 0, uses_anonymous_args = 0
 2492              		@ link register save eliminated.
 2493              	.LVL164:
 500:/Users/imashio/Electronics/ARM/_Library/u8g2_d_memory.c ****   static uint8_t buf[352];
 501:/Users/imashio/Electronics/ARM/_Library/u8g2_d_memory.c ****   *page_cnt = 2;
 2494              		.loc 1 501 0
 2495 0000 0223     		movs	r3, #2
 2496 0002 0370     		strb	r3, [r0]
 502:/Users/imashio/Electronics/ARM/_Library/u8g2_d_memory.c ****   return buf;
 503:/Users/imashio/Electronics/ARM/_Library/u8g2_d_memory.c **** }
 2497              		.loc 1 503 0
 2498 0004 0048     		ldr	r0, .L248
 2499              	.LVL165:
 2500 0006 7047     		bx	lr
 2501              	.L249:
 2502              		.align	2
 2503              	.L248:
 2504 0008 00000000 		.word	.LANCHOR80
 2505              		.cfi_endproc
 2506              	.LFE82:
 2508              		.section	.text.u8g2_m_22_9_f,"ax",%progbits
 2509              		.align	1
 2510              		.global	u8g2_m_22_9_f
 2511              		.syntax unified
 2512              		.thumb
 2513              		.thumb_func
ARM GAS  /var/folders/v3/wysfpd052nz8jkbx04pk0ym80000gn/T//cc0GVfKk.s 			page 51


 2514              		.fpu fpv4-sp-d16
 2516              	u8g2_m_22_9_f:
 2517              	.LFB83:
 504:/Users/imashio/Electronics/ARM/_Library/u8g2_d_memory.c **** uint8_t *u8g2_m_22_9_f(uint8_t *page_cnt)
 505:/Users/imashio/Electronics/ARM/_Library/u8g2_d_memory.c **** {
 2518              		.loc 1 505 0
 2519              		.cfi_startproc
 2520              		@ args = 0, pretend = 0, frame = 0
 2521              		@ frame_needed = 0, uses_anonymous_args = 0
 2522              		@ link register save eliminated.
 2523              	.LVL166:
 506:/Users/imashio/Electronics/ARM/_Library/u8g2_d_memory.c ****   static uint8_t buf[1584];
 507:/Users/imashio/Electronics/ARM/_Library/u8g2_d_memory.c ****   *page_cnt = 9;
 2524              		.loc 1 507 0
 2525 0000 0923     		movs	r3, #9
 2526 0002 0370     		strb	r3, [r0]
 508:/Users/imashio/Electronics/ARM/_Library/u8g2_d_memory.c ****   return buf;
 509:/Users/imashio/Electronics/ARM/_Library/u8g2_d_memory.c **** }
 2527              		.loc 1 509 0
 2528 0004 0048     		ldr	r0, .L251
 2529              	.LVL167:
 2530 0006 7047     		bx	lr
 2531              	.L252:
 2532              		.align	2
 2533              	.L251:
 2534 0008 00000000 		.word	.LANCHOR81
 2535              		.cfi_endproc
 2536              	.LFE83:
 2538              		.section	.text.u8g2_m_25_25_1,"ax",%progbits
 2539              		.align	1
 2540              		.global	u8g2_m_25_25_1
 2541              		.syntax unified
 2542              		.thumb
 2543              		.thumb_func
 2544              		.fpu fpv4-sp-d16
 2546              	u8g2_m_25_25_1:
 2547              	.LFB84:
 510:/Users/imashio/Electronics/ARM/_Library/u8g2_d_memory.c **** uint8_t *u8g2_m_25_25_1(uint8_t *page_cnt)
 511:/Users/imashio/Electronics/ARM/_Library/u8g2_d_memory.c **** {
 2548              		.loc 1 511 0
 2549              		.cfi_startproc
 2550              		@ args = 0, pretend = 0, frame = 0
 2551              		@ frame_needed = 0, uses_anonymous_args = 0
 2552              		@ link register save eliminated.
 2553              	.LVL168:
 512:/Users/imashio/Electronics/ARM/_Library/u8g2_d_memory.c ****   static uint8_t buf[200];
 513:/Users/imashio/Electronics/ARM/_Library/u8g2_d_memory.c ****   *page_cnt = 1;
 2554              		.loc 1 513 0
 2555 0000 0123     		movs	r3, #1
 2556 0002 0370     		strb	r3, [r0]
 514:/Users/imashio/Electronics/ARM/_Library/u8g2_d_memory.c ****   return buf;
 515:/Users/imashio/Electronics/ARM/_Library/u8g2_d_memory.c **** }
 2557              		.loc 1 515 0
 2558 0004 0048     		ldr	r0, .L254
 2559              	.LVL169:
 2560 0006 7047     		bx	lr
 2561              	.L255:
ARM GAS  /var/folders/v3/wysfpd052nz8jkbx04pk0ym80000gn/T//cc0GVfKk.s 			page 52


 2562              		.align	2
 2563              	.L254:
 2564 0008 00000000 		.word	.LANCHOR82
 2565              		.cfi_endproc
 2566              	.LFE84:
 2568              		.section	.text.u8g2_m_25_25_2,"ax",%progbits
 2569              		.align	1
 2570              		.global	u8g2_m_25_25_2
 2571              		.syntax unified
 2572              		.thumb
 2573              		.thumb_func
 2574              		.fpu fpv4-sp-d16
 2576              	u8g2_m_25_25_2:
 2577              	.LFB85:
 516:/Users/imashio/Electronics/ARM/_Library/u8g2_d_memory.c **** uint8_t *u8g2_m_25_25_2(uint8_t *page_cnt)
 517:/Users/imashio/Electronics/ARM/_Library/u8g2_d_memory.c **** {
 2578              		.loc 1 517 0
 2579              		.cfi_startproc
 2580              		@ args = 0, pretend = 0, frame = 0
 2581              		@ frame_needed = 0, uses_anonymous_args = 0
 2582              		@ link register save eliminated.
 2583              	.LVL170:
 518:/Users/imashio/Electronics/ARM/_Library/u8g2_d_memory.c ****   static uint8_t buf[400];
 519:/Users/imashio/Electronics/ARM/_Library/u8g2_d_memory.c ****   *page_cnt = 2;
 2584              		.loc 1 519 0
 2585 0000 0223     		movs	r3, #2
 2586 0002 0370     		strb	r3, [r0]
 520:/Users/imashio/Electronics/ARM/_Library/u8g2_d_memory.c ****   return buf;
 521:/Users/imashio/Electronics/ARM/_Library/u8g2_d_memory.c **** }
 2587              		.loc 1 521 0
 2588 0004 0048     		ldr	r0, .L257
 2589              	.LVL171:
 2590 0006 7047     		bx	lr
 2591              	.L258:
 2592              		.align	2
 2593              	.L257:
 2594 0008 00000000 		.word	.LANCHOR83
 2595              		.cfi_endproc
 2596              	.LFE85:
 2598              		.section	.text.u8g2_m_25_25_f,"ax",%progbits
 2599              		.align	1
 2600              		.global	u8g2_m_25_25_f
 2601              		.syntax unified
 2602              		.thumb
 2603              		.thumb_func
 2604              		.fpu fpv4-sp-d16
 2606              	u8g2_m_25_25_f:
 2607              	.LFB86:
 522:/Users/imashio/Electronics/ARM/_Library/u8g2_d_memory.c **** uint8_t *u8g2_m_25_25_f(uint8_t *page_cnt)
 523:/Users/imashio/Electronics/ARM/_Library/u8g2_d_memory.c **** {
 2608              		.loc 1 523 0
 2609              		.cfi_startproc
 2610              		@ args = 0, pretend = 0, frame = 0
 2611              		@ frame_needed = 0, uses_anonymous_args = 0
 2612              		@ link register save eliminated.
 2613              	.LVL172:
 524:/Users/imashio/Electronics/ARM/_Library/u8g2_d_memory.c ****   static uint8_t buf[5000];
ARM GAS  /var/folders/v3/wysfpd052nz8jkbx04pk0ym80000gn/T//cc0GVfKk.s 			page 53


 525:/Users/imashio/Electronics/ARM/_Library/u8g2_d_memory.c ****   *page_cnt = 25;
 2614              		.loc 1 525 0
 2615 0000 1923     		movs	r3, #25
 2616 0002 0370     		strb	r3, [r0]
 526:/Users/imashio/Electronics/ARM/_Library/u8g2_d_memory.c ****   return buf;
 527:/Users/imashio/Electronics/ARM/_Library/u8g2_d_memory.c **** }
 2617              		.loc 1 527 0
 2618 0004 0048     		ldr	r0, .L260
 2619              	.LVL173:
 2620 0006 7047     		bx	lr
 2621              	.L261:
 2622              		.align	2
 2623              	.L260:
 2624 0008 00000000 		.word	buf.10013
 2625              		.cfi_endproc
 2626              	.LFE86:
 2628              		.section	.text.u8g2_m_37_16_1,"ax",%progbits
 2629              		.align	1
 2630              		.global	u8g2_m_37_16_1
 2631              		.syntax unified
 2632              		.thumb
 2633              		.thumb_func
 2634              		.fpu fpv4-sp-d16
 2636              	u8g2_m_37_16_1:
 2637              	.LFB87:
 528:/Users/imashio/Electronics/ARM/_Library/u8g2_d_memory.c **** uint8_t *u8g2_m_37_16_1(uint8_t *page_cnt)
 529:/Users/imashio/Electronics/ARM/_Library/u8g2_d_memory.c **** {
 2638              		.loc 1 529 0
 2639              		.cfi_startproc
 2640              		@ args = 0, pretend = 0, frame = 0
 2641              		@ frame_needed = 0, uses_anonymous_args = 0
 2642              		@ link register save eliminated.
 2643              	.LVL174:
 530:/Users/imashio/Electronics/ARM/_Library/u8g2_d_memory.c ****   static uint8_t buf[296];
 531:/Users/imashio/Electronics/ARM/_Library/u8g2_d_memory.c ****   *page_cnt = 1;
 2644              		.loc 1 531 0
 2645 0000 0123     		movs	r3, #1
 2646 0002 0370     		strb	r3, [r0]
 532:/Users/imashio/Electronics/ARM/_Library/u8g2_d_memory.c ****   return buf;
 533:/Users/imashio/Electronics/ARM/_Library/u8g2_d_memory.c **** }
 2647              		.loc 1 533 0
 2648 0004 0048     		ldr	r0, .L263
 2649              	.LVL175:
 2650 0006 7047     		bx	lr
 2651              	.L264:
 2652              		.align	2
 2653              	.L263:
 2654 0008 00000000 		.word	.LANCHOR84
 2655              		.cfi_endproc
 2656              	.LFE87:
 2658              		.section	.text.u8g2_m_37_16_2,"ax",%progbits
 2659              		.align	1
 2660              		.global	u8g2_m_37_16_2
 2661              		.syntax unified
 2662              		.thumb
 2663              		.thumb_func
 2664              		.fpu fpv4-sp-d16
ARM GAS  /var/folders/v3/wysfpd052nz8jkbx04pk0ym80000gn/T//cc0GVfKk.s 			page 54


 2666              	u8g2_m_37_16_2:
 2667              	.LFB88:
 534:/Users/imashio/Electronics/ARM/_Library/u8g2_d_memory.c **** uint8_t *u8g2_m_37_16_2(uint8_t *page_cnt)
 535:/Users/imashio/Electronics/ARM/_Library/u8g2_d_memory.c **** {
 2668              		.loc 1 535 0
 2669              		.cfi_startproc
 2670              		@ args = 0, pretend = 0, frame = 0
 2671              		@ frame_needed = 0, uses_anonymous_args = 0
 2672              		@ link register save eliminated.
 2673              	.LVL176:
 536:/Users/imashio/Electronics/ARM/_Library/u8g2_d_memory.c ****   static uint8_t buf[592];
 537:/Users/imashio/Electronics/ARM/_Library/u8g2_d_memory.c ****   *page_cnt = 2;
 2674              		.loc 1 537 0
 2675 0000 0223     		movs	r3, #2
 2676 0002 0370     		strb	r3, [r0]
 538:/Users/imashio/Electronics/ARM/_Library/u8g2_d_memory.c ****   return buf;
 539:/Users/imashio/Electronics/ARM/_Library/u8g2_d_memory.c **** }
 2677              		.loc 1 539 0
 2678 0004 0048     		ldr	r0, .L266
 2679              	.LVL177:
 2680 0006 7047     		bx	lr
 2681              	.L267:
 2682              		.align	2
 2683              	.L266:
 2684 0008 00000000 		.word	.LANCHOR85
 2685              		.cfi_endproc
 2686              	.LFE88:
 2688              		.section	.text.u8g2_m_37_16_f,"ax",%progbits
 2689              		.align	1
 2690              		.global	u8g2_m_37_16_f
 2691              		.syntax unified
 2692              		.thumb
 2693              		.thumb_func
 2694              		.fpu fpv4-sp-d16
 2696              	u8g2_m_37_16_f:
 2697              	.LFB89:
 540:/Users/imashio/Electronics/ARM/_Library/u8g2_d_memory.c **** uint8_t *u8g2_m_37_16_f(uint8_t *page_cnt)
 541:/Users/imashio/Electronics/ARM/_Library/u8g2_d_memory.c **** {
 2698              		.loc 1 541 0
 2699              		.cfi_startproc
 2700              		@ args = 0, pretend = 0, frame = 0
 2701              		@ frame_needed = 0, uses_anonymous_args = 0
 2702              		@ link register save eliminated.
 2703              	.LVL178:
 542:/Users/imashio/Electronics/ARM/_Library/u8g2_d_memory.c ****   static uint8_t buf[4736];
 543:/Users/imashio/Electronics/ARM/_Library/u8g2_d_memory.c ****   *page_cnt = 16;
 2704              		.loc 1 543 0
 2705 0000 1023     		movs	r3, #16
 2706 0002 0370     		strb	r3, [r0]
 544:/Users/imashio/Electronics/ARM/_Library/u8g2_d_memory.c ****   return buf;
 545:/Users/imashio/Electronics/ARM/_Library/u8g2_d_memory.c **** }
 2707              		.loc 1 545 0
 2708 0004 0048     		ldr	r0, .L269
 2709              	.LVL179:
 2710 0006 7047     		bx	lr
 2711              	.L270:
 2712              		.align	2
ARM GAS  /var/folders/v3/wysfpd052nz8jkbx04pk0ym80000gn/T//cc0GVfKk.s 			page 55


 2713              	.L269:
 2714 0008 00000000 		.word	buf.10025
 2715              		.cfi_endproc
 2716              	.LFE89:
 2718              		.section	.text.u8g2_m_40_30_1,"ax",%progbits
 2719              		.align	1
 2720              		.global	u8g2_m_40_30_1
 2721              		.syntax unified
 2722              		.thumb
 2723              		.thumb_func
 2724              		.fpu fpv4-sp-d16
 2726              	u8g2_m_40_30_1:
 2727              	.LFB90:
 546:/Users/imashio/Electronics/ARM/_Library/u8g2_d_memory.c **** uint8_t *u8g2_m_40_30_1(uint8_t *page_cnt)
 547:/Users/imashio/Electronics/ARM/_Library/u8g2_d_memory.c **** {
 2728              		.loc 1 547 0
 2729              		.cfi_startproc
 2730              		@ args = 0, pretend = 0, frame = 0
 2731              		@ frame_needed = 0, uses_anonymous_args = 0
 2732              		@ link register save eliminated.
 2733              	.LVL180:
 548:/Users/imashio/Electronics/ARM/_Library/u8g2_d_memory.c ****   static uint8_t buf[320];
 549:/Users/imashio/Electronics/ARM/_Library/u8g2_d_memory.c ****   *page_cnt = 1;
 2734              		.loc 1 549 0
 2735 0000 0123     		movs	r3, #1
 2736 0002 0370     		strb	r3, [r0]
 550:/Users/imashio/Electronics/ARM/_Library/u8g2_d_memory.c ****   return buf;
 551:/Users/imashio/Electronics/ARM/_Library/u8g2_d_memory.c **** }
 2737              		.loc 1 551 0
 2738 0004 0048     		ldr	r0, .L272
 2739              	.LVL181:
 2740 0006 7047     		bx	lr
 2741              	.L273:
 2742              		.align	2
 2743              	.L272:
 2744 0008 00000000 		.word	.LANCHOR86
 2745              		.cfi_endproc
 2746              	.LFE90:
 2748              		.section	.text.u8g2_m_40_30_2,"ax",%progbits
 2749              		.align	1
 2750              		.global	u8g2_m_40_30_2
 2751              		.syntax unified
 2752              		.thumb
 2753              		.thumb_func
 2754              		.fpu fpv4-sp-d16
 2756              	u8g2_m_40_30_2:
 2757              	.LFB91:
 552:/Users/imashio/Electronics/ARM/_Library/u8g2_d_memory.c **** uint8_t *u8g2_m_40_30_2(uint8_t *page_cnt)
 553:/Users/imashio/Electronics/ARM/_Library/u8g2_d_memory.c **** {
 2758              		.loc 1 553 0
 2759              		.cfi_startproc
 2760              		@ args = 0, pretend = 0, frame = 0
 2761              		@ frame_needed = 0, uses_anonymous_args = 0
 2762              		@ link register save eliminated.
 2763              	.LVL182:
 554:/Users/imashio/Electronics/ARM/_Library/u8g2_d_memory.c ****   static uint8_t buf[640];
 555:/Users/imashio/Electronics/ARM/_Library/u8g2_d_memory.c ****   *page_cnt = 2;
ARM GAS  /var/folders/v3/wysfpd052nz8jkbx04pk0ym80000gn/T//cc0GVfKk.s 			page 56


 2764              		.loc 1 555 0
 2765 0000 0223     		movs	r3, #2
 2766 0002 0370     		strb	r3, [r0]
 556:/Users/imashio/Electronics/ARM/_Library/u8g2_d_memory.c ****   return buf;
 557:/Users/imashio/Electronics/ARM/_Library/u8g2_d_memory.c **** }
 2767              		.loc 1 557 0
 2768 0004 0048     		ldr	r0, .L275
 2769              	.LVL183:
 2770 0006 7047     		bx	lr
 2771              	.L276:
 2772              		.align	2
 2773              	.L275:
 2774 0008 00000000 		.word	.LANCHOR87
 2775              		.cfi_endproc
 2776              	.LFE91:
 2778              		.section	.text.u8g2_m_40_30_f,"ax",%progbits
 2779              		.align	1
 2780              		.global	u8g2_m_40_30_f
 2781              		.syntax unified
 2782              		.thumb
 2783              		.thumb_func
 2784              		.fpu fpv4-sp-d16
 2786              	u8g2_m_40_30_f:
 2787              	.LFB92:
 558:/Users/imashio/Electronics/ARM/_Library/u8g2_d_memory.c **** uint8_t *u8g2_m_40_30_f(uint8_t *page_cnt)
 559:/Users/imashio/Electronics/ARM/_Library/u8g2_d_memory.c **** {
 2788              		.loc 1 559 0
 2789              		.cfi_startproc
 2790              		@ args = 0, pretend = 0, frame = 0
 2791              		@ frame_needed = 0, uses_anonymous_args = 0
 2792              		@ link register save eliminated.
 2793              	.LVL184:
 560:/Users/imashio/Electronics/ARM/_Library/u8g2_d_memory.c ****   static uint8_t buf[9600];
 561:/Users/imashio/Electronics/ARM/_Library/u8g2_d_memory.c ****   *page_cnt = 30;
 2794              		.loc 1 561 0
 2795 0000 1E23     		movs	r3, #30
 2796 0002 0370     		strb	r3, [r0]
 562:/Users/imashio/Electronics/ARM/_Library/u8g2_d_memory.c ****   return buf;
 563:/Users/imashio/Electronics/ARM/_Library/u8g2_d_memory.c **** }
 2797              		.loc 1 563 0
 2798 0004 0048     		ldr	r0, .L278
 2799              	.LVL185:
 2800 0006 7047     		bx	lr
 2801              	.L279:
 2802              		.align	2
 2803              	.L278:
 2804 0008 00000000 		.word	buf.10037
 2805              		.cfi_endproc
 2806              	.LFE92:
 2808              		.section	.text.u8g2_m_4_1_1,"ax",%progbits
 2809              		.align	1
 2810              		.global	u8g2_m_4_1_1
 2811              		.syntax unified
 2812              		.thumb
 2813              		.thumb_func
 2814              		.fpu fpv4-sp-d16
 2816              	u8g2_m_4_1_1:
ARM GAS  /var/folders/v3/wysfpd052nz8jkbx04pk0ym80000gn/T//cc0GVfKk.s 			page 57


 2817              	.LFB93:
 564:/Users/imashio/Electronics/ARM/_Library/u8g2_d_memory.c **** uint8_t *u8g2_m_4_1_1(uint8_t *page_cnt)
 565:/Users/imashio/Electronics/ARM/_Library/u8g2_d_memory.c **** {
 2818              		.loc 1 565 0
 2819              		.cfi_startproc
 2820              		@ args = 0, pretend = 0, frame = 0
 2821              		@ frame_needed = 0, uses_anonymous_args = 0
 2822              		@ link register save eliminated.
 2823              	.LVL186:
 566:/Users/imashio/Electronics/ARM/_Library/u8g2_d_memory.c ****   static uint8_t buf[32];
 567:/Users/imashio/Electronics/ARM/_Library/u8g2_d_memory.c ****   *page_cnt = 1;
 2824              		.loc 1 567 0
 2825 0000 0123     		movs	r3, #1
 2826 0002 0370     		strb	r3, [r0]
 568:/Users/imashio/Electronics/ARM/_Library/u8g2_d_memory.c ****   return buf;
 569:/Users/imashio/Electronics/ARM/_Library/u8g2_d_memory.c **** }
 2827              		.loc 1 569 0
 2828 0004 0048     		ldr	r0, .L281
 2829              	.LVL187:
 2830 0006 7047     		bx	lr
 2831              	.L282:
 2832              		.align	2
 2833              	.L281:
 2834 0008 00000000 		.word	.LANCHOR88
 2835              		.cfi_endproc
 2836              	.LFE93:
 2838              		.section	.text.u8g2_m_4_1_2,"ax",%progbits
 2839              		.align	1
 2840              		.global	u8g2_m_4_1_2
 2841              		.syntax unified
 2842              		.thumb
 2843              		.thumb_func
 2844              		.fpu fpv4-sp-d16
 2846              	u8g2_m_4_1_2:
 2847              	.LFB94:
 570:/Users/imashio/Electronics/ARM/_Library/u8g2_d_memory.c **** uint8_t *u8g2_m_4_1_2(uint8_t *page_cnt)
 571:/Users/imashio/Electronics/ARM/_Library/u8g2_d_memory.c **** {
 2848              		.loc 1 571 0
 2849              		.cfi_startproc
 2850              		@ args = 0, pretend = 0, frame = 0
 2851              		@ frame_needed = 0, uses_anonymous_args = 0
 2852              		@ link register save eliminated.
 2853              	.LVL188:
 572:/Users/imashio/Electronics/ARM/_Library/u8g2_d_memory.c ****   static uint8_t buf[64];
 573:/Users/imashio/Electronics/ARM/_Library/u8g2_d_memory.c ****   *page_cnt = 2;
 2854              		.loc 1 573 0
 2855 0000 0223     		movs	r3, #2
 2856 0002 0370     		strb	r3, [r0]
 574:/Users/imashio/Electronics/ARM/_Library/u8g2_d_memory.c ****   return buf;
 575:/Users/imashio/Electronics/ARM/_Library/u8g2_d_memory.c **** }
 2857              		.loc 1 575 0
 2858 0004 0048     		ldr	r0, .L284
 2859              	.LVL189:
 2860 0006 7047     		bx	lr
 2861              	.L285:
 2862              		.align	2
 2863              	.L284:
ARM GAS  /var/folders/v3/wysfpd052nz8jkbx04pk0ym80000gn/T//cc0GVfKk.s 			page 58


 2864 0008 00000000 		.word	.LANCHOR89
 2865              		.cfi_endproc
 2866              	.LFE94:
 2868              		.section	.text.u8g2_m_4_1_f,"ax",%progbits
 2869              		.align	1
 2870              		.global	u8g2_m_4_1_f
 2871              		.syntax unified
 2872              		.thumb
 2873              		.thumb_func
 2874              		.fpu fpv4-sp-d16
 2876              	u8g2_m_4_1_f:
 2877              	.LFB95:
 576:/Users/imashio/Electronics/ARM/_Library/u8g2_d_memory.c **** uint8_t *u8g2_m_4_1_f(uint8_t *page_cnt)
 577:/Users/imashio/Electronics/ARM/_Library/u8g2_d_memory.c **** {
 2878              		.loc 1 577 0
 2879              		.cfi_startproc
 2880              		@ args = 0, pretend = 0, frame = 0
 2881              		@ frame_needed = 0, uses_anonymous_args = 0
 2882              		@ link register save eliminated.
 2883              	.LVL190:
 578:/Users/imashio/Electronics/ARM/_Library/u8g2_d_memory.c ****   static uint8_t buf[32];
 579:/Users/imashio/Electronics/ARM/_Library/u8g2_d_memory.c ****   *page_cnt = 1;
 2884              		.loc 1 579 0
 2885 0000 0123     		movs	r3, #1
 2886 0002 0370     		strb	r3, [r0]
 580:/Users/imashio/Electronics/ARM/_Library/u8g2_d_memory.c ****   return buf;
 581:/Users/imashio/Electronics/ARM/_Library/u8g2_d_memory.c **** }
 2887              		.loc 1 581 0
 2888 0004 0048     		ldr	r0, .L287
 2889              	.LVL191:
 2890 0006 7047     		bx	lr
 2891              	.L288:
 2892              		.align	2
 2893              	.L287:
 2894 0008 00000000 		.word	.LANCHOR90
 2895              		.cfi_endproc
 2896              	.LFE95:
 2898              		.section	.text.u8g2_m_48_30_1,"ax",%progbits
 2899              		.align	1
 2900              		.global	u8g2_m_48_30_1
 2901              		.syntax unified
 2902              		.thumb
 2903              		.thumb_func
 2904              		.fpu fpv4-sp-d16
 2906              	u8g2_m_48_30_1:
 2907              	.LFB96:
 582:/Users/imashio/Electronics/ARM/_Library/u8g2_d_memory.c **** uint8_t *u8g2_m_48_30_1(uint8_t *page_cnt)
 583:/Users/imashio/Electronics/ARM/_Library/u8g2_d_memory.c **** {
 2908              		.loc 1 583 0
 2909              		.cfi_startproc
 2910              		@ args = 0, pretend = 0, frame = 0
 2911              		@ frame_needed = 0, uses_anonymous_args = 0
 2912              		@ link register save eliminated.
 2913              	.LVL192:
 584:/Users/imashio/Electronics/ARM/_Library/u8g2_d_memory.c ****   static uint8_t buf[384];
 585:/Users/imashio/Electronics/ARM/_Library/u8g2_d_memory.c ****   *page_cnt = 1;
 2914              		.loc 1 585 0
ARM GAS  /var/folders/v3/wysfpd052nz8jkbx04pk0ym80000gn/T//cc0GVfKk.s 			page 59


 2915 0000 0123     		movs	r3, #1
 2916 0002 0370     		strb	r3, [r0]
 586:/Users/imashio/Electronics/ARM/_Library/u8g2_d_memory.c ****   return buf;
 587:/Users/imashio/Electronics/ARM/_Library/u8g2_d_memory.c **** }
 2917              		.loc 1 587 0
 2918 0004 0048     		ldr	r0, .L290
 2919              	.LVL193:
 2920 0006 7047     		bx	lr
 2921              	.L291:
 2922              		.align	2
 2923              	.L290:
 2924 0008 00000000 		.word	.LANCHOR91
 2925              		.cfi_endproc
 2926              	.LFE96:
 2928              		.section	.text.u8g2_m_48_30_2,"ax",%progbits
 2929              		.align	1
 2930              		.global	u8g2_m_48_30_2
 2931              		.syntax unified
 2932              		.thumb
 2933              		.thumb_func
 2934              		.fpu fpv4-sp-d16
 2936              	u8g2_m_48_30_2:
 2937              	.LFB97:
 588:/Users/imashio/Electronics/ARM/_Library/u8g2_d_memory.c **** uint8_t *u8g2_m_48_30_2(uint8_t *page_cnt)
 589:/Users/imashio/Electronics/ARM/_Library/u8g2_d_memory.c **** {
 2938              		.loc 1 589 0
 2939              		.cfi_startproc
 2940              		@ args = 0, pretend = 0, frame = 0
 2941              		@ frame_needed = 0, uses_anonymous_args = 0
 2942              		@ link register save eliminated.
 2943              	.LVL194:
 590:/Users/imashio/Electronics/ARM/_Library/u8g2_d_memory.c ****   static uint8_t buf[768];
 591:/Users/imashio/Electronics/ARM/_Library/u8g2_d_memory.c ****   *page_cnt = 2;
 2944              		.loc 1 591 0
 2945 0000 0223     		movs	r3, #2
 2946 0002 0370     		strb	r3, [r0]
 592:/Users/imashio/Electronics/ARM/_Library/u8g2_d_memory.c ****   return buf;
 593:/Users/imashio/Electronics/ARM/_Library/u8g2_d_memory.c **** }
 2947              		.loc 1 593 0
 2948 0004 0048     		ldr	r0, .L293
 2949              	.LVL195:
 2950 0006 7047     		bx	lr
 2951              	.L294:
 2952              		.align	2
 2953              	.L293:
 2954 0008 00000000 		.word	.LANCHOR92
 2955              		.cfi_endproc
 2956              	.LFE97:
 2958              		.section	.text.u8g2_m_48_30_f,"ax",%progbits
 2959              		.align	1
 2960              		.global	u8g2_m_48_30_f
 2961              		.syntax unified
 2962              		.thumb
 2963              		.thumb_func
 2964              		.fpu fpv4-sp-d16
 2966              	u8g2_m_48_30_f:
 2967              	.LFB98:
ARM GAS  /var/folders/v3/wysfpd052nz8jkbx04pk0ym80000gn/T//cc0GVfKk.s 			page 60


 594:/Users/imashio/Electronics/ARM/_Library/u8g2_d_memory.c **** uint8_t *u8g2_m_48_30_f(uint8_t *page_cnt)
 595:/Users/imashio/Electronics/ARM/_Library/u8g2_d_memory.c **** {
 2968              		.loc 1 595 0
 2969              		.cfi_startproc
 2970              		@ args = 0, pretend = 0, frame = 0
 2971              		@ frame_needed = 0, uses_anonymous_args = 0
 2972              		@ link register save eliminated.
 2973              	.LVL196:
 596:/Users/imashio/Electronics/ARM/_Library/u8g2_d_memory.c ****   static uint8_t buf[11520];
 597:/Users/imashio/Electronics/ARM/_Library/u8g2_d_memory.c ****   *page_cnt = 30;
 2974              		.loc 1 597 0
 2975 0000 1E23     		movs	r3, #30
 2976 0002 0370     		strb	r3, [r0]
 598:/Users/imashio/Electronics/ARM/_Library/u8g2_d_memory.c ****   return buf;
 599:/Users/imashio/Electronics/ARM/_Library/u8g2_d_memory.c **** }
 2977              		.loc 1 599 0
 2978 0004 0048     		ldr	r0, .L296
 2979              	.LVL197:
 2980 0006 7047     		bx	lr
 2981              	.L297:
 2982              		.align	2
 2983              	.L296:
 2984 0008 00000000 		.word	buf.10061
 2985              		.cfi_endproc
 2986              	.LFE98:
 2988              		.section	.bss.buf.10001,"aw",%nobits
 2989              		.align	2
 2990              		.set	.LANCHOR81,. + 0
 2993              	buf.10001:
 2994 0000 00000000 		.space	1584
 2994      00000000 
 2994      00000000 
 2994      00000000 
 2994      00000000 
 2995              		.section	.bss.buf.10005,"aw",%nobits
 2996              		.align	2
 2997              		.set	.LANCHOR82,. + 0
 3000              	buf.10005:
 3001 0000 00000000 		.space	200
 3001      00000000 
 3001      00000000 
 3001      00000000 
 3001      00000000 
 3002              		.section	.bss.buf.10009,"aw",%nobits
 3003              		.align	2
 3004              		.set	.LANCHOR83,. + 0
 3007              	buf.10009:
 3008 0000 00000000 		.space	400
 3008      00000000 
 3008      00000000 
 3008      00000000 
 3008      00000000 
 3009              		.section	.bss.buf.10013,"aw",%nobits
 3010              		.align	2
 3013              	buf.10013:
 3014 0000 00000000 		.space	5000
 3014      00000000 
ARM GAS  /var/folders/v3/wysfpd052nz8jkbx04pk0ym80000gn/T//cc0GVfKk.s 			page 61


 3014      00000000 
 3014      00000000 
 3014      00000000 
 3015              		.section	.bss.buf.10017,"aw",%nobits
 3016              		.align	2
 3017              		.set	.LANCHOR84,. + 0
 3020              	buf.10017:
 3021 0000 00000000 		.space	296
 3021      00000000 
 3021      00000000 
 3021      00000000 
 3021      00000000 
 3022              		.section	.bss.buf.10021,"aw",%nobits
 3023              		.align	2
 3024              		.set	.LANCHOR85,. + 0
 3027              	buf.10021:
 3028 0000 00000000 		.space	592
 3028      00000000 
 3028      00000000 
 3028      00000000 
 3028      00000000 
 3029              		.section	.bss.buf.10025,"aw",%nobits
 3030              		.align	2
 3033              	buf.10025:
 3034 0000 00000000 		.space	4736
 3034      00000000 
 3034      00000000 
 3034      00000000 
 3034      00000000 
 3035              		.section	.bss.buf.10029,"aw",%nobits
 3036              		.align	2
 3037              		.set	.LANCHOR86,. + 0
 3040              	buf.10029:
 3041 0000 00000000 		.space	320
 3041      00000000 
 3041      00000000 
 3041      00000000 
 3041      00000000 
 3042              		.section	.bss.buf.10033,"aw",%nobits
 3043              		.align	2
 3044              		.set	.LANCHOR87,. + 0
 3047              	buf.10033:
 3048 0000 00000000 		.space	640
 3048      00000000 
 3048      00000000 
 3048      00000000 
 3048      00000000 
 3049              		.section	.bss.buf.10037,"aw",%nobits
 3050              		.align	2
 3053              	buf.10037:
 3054 0000 00000000 		.space	9600
 3054      00000000 
 3054      00000000 
 3054      00000000 
 3054      00000000 
 3055              		.section	.bss.buf.10041,"aw",%nobits
 3056              		.align	2
ARM GAS  /var/folders/v3/wysfpd052nz8jkbx04pk0ym80000gn/T//cc0GVfKk.s 			page 62


 3057              		.set	.LANCHOR88,. + 0
 3060              	buf.10041:
 3061 0000 00000000 		.space	32
 3061      00000000 
 3061      00000000 
 3061      00000000 
 3061      00000000 
 3062              		.section	.bss.buf.10045,"aw",%nobits
 3063              		.align	2
 3064              		.set	.LANCHOR89,. + 0
 3067              	buf.10045:
 3068 0000 00000000 		.space	64
 3068      00000000 
 3068      00000000 
 3068      00000000 
 3068      00000000 
 3069              		.section	.bss.buf.10049,"aw",%nobits
 3070              		.align	2
 3071              		.set	.LANCHOR90,. + 0
 3074              	buf.10049:
 3075 0000 00000000 		.space	32
 3075      00000000 
 3075      00000000 
 3075      00000000 
 3075      00000000 
 3076              		.section	.bss.buf.10053,"aw",%nobits
 3077              		.align	2
 3078              		.set	.LANCHOR91,. + 0
 3081              	buf.10053:
 3082 0000 00000000 		.space	384
 3082      00000000 
 3082      00000000 
 3082      00000000 
 3082      00000000 
 3083              		.section	.bss.buf.10057,"aw",%nobits
 3084              		.align	2
 3085              		.set	.LANCHOR92,. + 0
 3088              	buf.10057:
 3089 0000 00000000 		.space	768
 3089      00000000 
 3089      00000000 
 3089      00000000 
 3089      00000000 
 3090              		.section	.bss.buf.10061,"aw",%nobits
 3091              		.align	2
 3094              	buf.10061:
 3095 0000 00000000 		.space	11520
 3095      00000000 
 3095      00000000 
 3095      00000000 
 3095      00000000 
 3096              		.section	.bss.buf.9669,"aw",%nobits
 3097              		.align	2
 3098              		.set	.LANCHOR0,. + 0
 3101              	buf.9669:
 3102 0000 00000000 		.space	128
 3102      00000000 
ARM GAS  /var/folders/v3/wysfpd052nz8jkbx04pk0ym80000gn/T//cc0GVfKk.s 			page 63


 3102      00000000 
 3102      00000000 
 3102      00000000 
 3103              		.section	.bss.buf.9673,"aw",%nobits
 3104              		.align	2
 3105              		.set	.LANCHOR1,. + 0
 3108              	buf.9673:
 3109 0000 00000000 		.space	256
 3109      00000000 
 3109      00000000 
 3109      00000000 
 3109      00000000 
 3110              		.section	.bss.buf.9677,"aw",%nobits
 3111              		.align	2
 3112              		.set	.LANCHOR2,. + 0
 3115              	buf.9677:
 3116 0000 00000000 		.space	512
 3116      00000000 
 3116      00000000 
 3116      00000000 
 3116      00000000 
 3117              		.section	.bss.buf.9681,"aw",%nobits
 3118              		.align	2
 3119              		.set	.LANCHOR3,. + 0
 3122              	buf.9681:
 3123 0000 00000000 		.space	128
 3123      00000000 
 3123      00000000 
 3123      00000000 
 3123      00000000 
 3124              		.section	.bss.buf.9685,"aw",%nobits
 3125              		.align	2
 3126              		.set	.LANCHOR4,. + 0
 3129              	buf.9685:
 3130 0000 00000000 		.space	256
 3130      00000000 
 3130      00000000 
 3130      00000000 
 3130      00000000 
 3131              		.section	.bss.buf.9689,"aw",%nobits
 3132              		.align	2
 3133              		.set	.LANCHOR5,. + 0
 3136              	buf.9689:
 3137 0000 00000000 		.space	1024
 3137      00000000 
 3137      00000000 
 3137      00000000 
 3137      00000000 
 3138              		.section	.bss.buf.9693,"aw",%nobits
 3139              		.align	2
 3140              		.set	.LANCHOR6,. + 0
 3143              	buf.9693:
 3144 0000 00000000 		.space	96
 3144      00000000 
 3144      00000000 
 3144      00000000 
 3144      00000000 
ARM GAS  /var/folders/v3/wysfpd052nz8jkbx04pk0ym80000gn/T//cc0GVfKk.s 			page 64


 3145              		.section	.bss.buf.9697,"aw",%nobits
 3146              		.align	2
 3147              		.set	.LANCHOR7,. + 0
 3150              	buf.9697:
 3151 0000 00000000 		.space	192
 3151      00000000 
 3151      00000000 
 3151      00000000 
 3151      00000000 
 3152              		.section	.bss.buf.9701,"aw",%nobits
 3153              		.align	2
 3154              		.set	.LANCHOR8,. + 0
 3157              	buf.9701:
 3158 0000 00000000 		.space	1152
 3158      00000000 
 3158      00000000 
 3158      00000000 
 3158      00000000 
 3159              		.section	.bss.buf.9705,"aw",%nobits
 3160              		.align	2
 3161              		.set	.LANCHOR9,. + 0
 3164              	buf.9705:
 3165 0000 00000000 		.space	64
 3165      00000000 
 3165      00000000 
 3165      00000000 
 3165      00000000 
 3166              		.section	.bss.buf.9709,"aw",%nobits
 3167              		.align	2
 3168              		.set	.LANCHOR10,. + 0
 3171              	buf.9709:
 3172 0000 00000000 		.space	128
 3172      00000000 
 3172      00000000 
 3172      00000000 
 3172      00000000 
 3173              		.section	.bss.buf.9713,"aw",%nobits
 3174              		.align	2
 3175              		.set	.LANCHOR11,. + 0
 3178              	buf.9713:
 3179 0000 00000000 		.space	384
 3179      00000000 
 3179      00000000 
 3179      00000000 
 3179      00000000 
 3180              		.section	.bss.buf.9717,"aw",%nobits
 3181              		.align	2
 3182              		.set	.LANCHOR12,. + 0
 3185              	buf.9717:
 3186 0000 00000000 		.space	64
 3186      00000000 
 3186      00000000 
 3186      00000000 
 3186      00000000 
 3187              		.section	.bss.buf.9721,"aw",%nobits
 3188              		.align	2
 3189              		.set	.LANCHOR13,. + 0
ARM GAS  /var/folders/v3/wysfpd052nz8jkbx04pk0ym80000gn/T//cc0GVfKk.s 			page 65


 3192              	buf.9721:
 3193 0000 00000000 		.space	128
 3193      00000000 
 3193      00000000 
 3193      00000000 
 3193      00000000 
 3194              		.section	.bss.buf.9725,"aw",%nobits
 3195              		.align	2
 3196              		.set	.LANCHOR14,. + 0
 3199              	buf.9725:
 3200 0000 00000000 		.space	256
 3200      00000000 
 3200      00000000 
 3200      00000000 
 3200      00000000 
 3201              		.section	.bss.buf.9729,"aw",%nobits
 3202              		.align	2
 3203              		.set	.LANCHOR15,. + 0
 3206              	buf.9729:
 3207 0000 00000000 		.space	96
 3207      00000000 
 3207      00000000 
 3207      00000000 
 3207      00000000 
 3208              		.section	.bss.buf.9733,"aw",%nobits
 3209              		.align	2
 3210              		.set	.LANCHOR16,. + 0
 3213              	buf.9733:
 3214 0000 00000000 		.space	192
 3214      00000000 
 3214      00000000 
 3214      00000000 
 3214      00000000 
 3215              		.section	.bss.buf.9737,"aw",%nobits
 3216              		.align	2
 3217              		.set	.LANCHOR17,. + 0
 3220              	buf.9737:
 3221 0000 00000000 		.space	192
 3221      00000000 
 3221      00000000 
 3221      00000000 
 3221      00000000 
 3222              		.section	.bss.buf.9741,"aw",%nobits
 3223              		.align	2
 3224              		.set	.LANCHOR18,. + 0
 3227              	buf.9741:
 3228 0000 00000000 		.space	256
 3228      00000000 
 3228      00000000 
 3228      00000000 
 3228      00000000 
 3229              		.section	.bss.buf.9745,"aw",%nobits
 3230              		.align	2
 3231              		.set	.LANCHOR19,. + 0
 3234              	buf.9745:
 3235 0000 00000000 		.space	512
 3235      00000000 
ARM GAS  /var/folders/v3/wysfpd052nz8jkbx04pk0ym80000gn/T//cc0GVfKk.s 			page 66


 3235      00000000 
 3235      00000000 
 3235      00000000 
 3236              		.section	.bss.buf.9749,"aw",%nobits
 3237              		.align	2
 3238              		.set	.LANCHOR20,. + 0
 3241              	buf.9749:
 3242 0000 00000000 		.space	1024
 3242      00000000 
 3242      00000000 
 3242      00000000 
 3242      00000000 
 3243              		.section	.bss.buf.9753,"aw",%nobits
 3244              		.align	2
 3245              		.set	.LANCHOR21,. + 0
 3248              	buf.9753:
 3249 0000 00000000 		.space	128
 3249      00000000 
 3249      00000000 
 3249      00000000 
 3249      00000000 
 3250              		.section	.bss.buf.9757,"aw",%nobits
 3251              		.align	2
 3252              		.set	.LANCHOR22,. + 0
 3255              	buf.9757:
 3256 0000 00000000 		.space	256
 3256      00000000 
 3256      00000000 
 3256      00000000 
 3256      00000000 
 3257              		.section	.bss.buf.9761,"aw",%nobits
 3258              		.align	2
 3259              		.set	.LANCHOR23,. + 0
 3262              	buf.9761:
 3263 0000 00000000 		.space	2048
 3263      00000000 
 3263      00000000 
 3263      00000000 
 3263      00000000 
 3264              		.section	.bss.buf.9765,"aw",%nobits
 3265              		.align	2
 3266              		.set	.LANCHOR24,. + 0
 3269              	buf.9765:
 3270 0000 00000000 		.space	128
 3270      00000000 
 3270      00000000 
 3270      00000000 
 3270      00000000 
 3271              		.section	.bss.buf.9769,"aw",%nobits
 3272              		.align	2
 3273              		.set	.LANCHOR25,. + 0
 3276              	buf.9769:
 3277 0000 00000000 		.space	256
 3277      00000000 
 3277      00000000 
 3277      00000000 
 3277      00000000 
ARM GAS  /var/folders/v3/wysfpd052nz8jkbx04pk0ym80000gn/T//cc0GVfKk.s 			page 67


 3278              		.section	.bss.buf.9773,"aw",%nobits
 3279              		.align	2
 3280              		.set	.LANCHOR26,. + 0
 3283              	buf.9773:
 3284 0000 00000000 		.space	1536
 3284      00000000 
 3284      00000000 
 3284      00000000 
 3284      00000000 
 3285              		.section	.bss.buf.9777,"aw",%nobits
 3286              		.align	2
 3287              		.set	.LANCHOR27,. + 0
 3290              	buf.9777:
 3291 0000 00000000 		.space	192
 3291      00000000 
 3291      00000000 
 3291      00000000 
 3291      00000000 
 3292              		.section	.bss.buf.9781,"aw",%nobits
 3293              		.align	2
 3294              		.set	.LANCHOR28,. + 0
 3297              	buf.9781:
 3298 0000 00000000 		.space	384
 3298      00000000 
 3298      00000000 
 3298      00000000 
 3298      00000000 
 3299              		.section	.bss.buf.9785,"aw",%nobits
 3300              		.align	2
 3301              		.set	.LANCHOR29,. + 0
 3304              	buf.9785:
 3305 0000 00000000 		.space	768
 3305      00000000 
 3305      00000000 
 3305      00000000 
 3305      00000000 
 3306              		.section	.bss.buf.9789,"aw",%nobits
 3307              		.align	2
 3308              		.set	.LANCHOR30,. + 0
 3311              	buf.9789:
 3312 0000 00000000 		.space	104
 3312      00000000 
 3312      00000000 
 3312      00000000 
 3312      00000000 
 3313              		.section	.bss.buf.9793,"aw",%nobits
 3314              		.align	2
 3315              		.set	.LANCHOR31,. + 0
 3318              	buf.9793:
 3319 0000 00000000 		.space	208
 3319      00000000 
 3319      00000000 
 3319      00000000 
 3319      00000000 
 3320              		.section	.bss.buf.9797,"aw",%nobits
 3321              		.align	2
 3322              		.set	.LANCHOR32,. + 0
ARM GAS  /var/folders/v3/wysfpd052nz8jkbx04pk0ym80000gn/T//cc0GVfKk.s 			page 68


 3325              	buf.9797:
 3326 0000 00000000 		.space	832
 3326      00000000 
 3326      00000000 
 3326      00000000 
 3326      00000000 
 3327              		.section	.bss.buf.9801,"aw",%nobits
 3328              		.align	2
 3329              		.set	.LANCHOR33,. + 0
 3332              	buf.9801:
 3333 0000 00000000 		.space	88
 3333      00000000 
 3333      00000000 
 3333      00000000 
 3333      00000000 
 3334              		.section	.bss.buf.9805,"aw",%nobits
 3335              		.align	2
 3336              		.set	.LANCHOR34,. + 0
 3339              	buf.9805:
 3340 0000 00000000 		.space	176
 3340      00000000 
 3340      00000000 
 3340      00000000 
 3340      00000000 
 3341              		.section	.bss.buf.9809,"aw",%nobits
 3342              		.align	2
 3343              		.set	.LANCHOR35,. + 0
 3346              	buf.9809:
 3347 0000 00000000 		.space	528
 3347      00000000 
 3347      00000000 
 3347      00000000 
 3347      00000000 
 3348              		.section	.bss.buf.9813,"aw",%nobits
 3349              		.align	2
 3350              		.set	.LANCHOR36,. + 0
 3353              	buf.9813:
 3354 0000 00000000 		.space	96
 3354      00000000 
 3354      00000000 
 3354      00000000 
 3354      00000000 
 3355              		.section	.bss.buf.9817,"aw",%nobits
 3356              		.align	2
 3357              		.set	.LANCHOR37,. + 0
 3360              	buf.9817:
 3361 0000 00000000 		.space	192
 3361      00000000 
 3361      00000000 
 3361      00000000 
 3361      00000000 
 3362              		.section	.bss.buf.9821,"aw",%nobits
 3363              		.align	2
 3364              		.set	.LANCHOR38,. + 0
 3367              	buf.9821:
 3368 0000 00000000 		.space	864
 3368      00000000 
ARM GAS  /var/folders/v3/wysfpd052nz8jkbx04pk0ym80000gn/T//cc0GVfKk.s 			page 69


 3368      00000000 
 3368      00000000 
 3368      00000000 
 3369              		.section	.bss.buf.9825,"aw",%nobits
 3370              		.align	2
 3371              		.set	.LANCHOR39,. + 0
 3374              	buf.9825:
 3375 0000 00000000 		.space	192
 3375      00000000 
 3375      00000000 
 3375      00000000 
 3375      00000000 
 3376              		.section	.bss.buf.9829,"aw",%nobits
 3377              		.align	2
 3378              		.set	.LANCHOR40,. + 0
 3381              	buf.9829:
 3382 0000 00000000 		.space	384
 3382      00000000 
 3382      00000000 
 3382      00000000 
 3382      00000000 
 3383              		.section	.bss.buf.9833,"aw",%nobits
 3384              		.align	2
 3385              		.set	.LANCHOR41,. + 0
 3388              	buf.9833:
 3389 0000 00000000 		.space	1536
 3389      00000000 
 3389      00000000 
 3389      00000000 
 3389      00000000 
 3390              		.section	.bss.buf.9837,"aw",%nobits
 3391              		.align	2
 3392              		.set	.LANCHOR42,. + 0
 3395              	buf.9837:
 3396 0000 00000000 		.space	240
 3396      00000000 
 3396      00000000 
 3396      00000000 
 3396      00000000 
 3397              		.section	.bss.buf.9841,"aw",%nobits
 3398              		.align	2
 3399              		.set	.LANCHOR43,. + 0
 3402              	buf.9841:
 3403 0000 00000000 		.space	480
 3403      00000000 
 3403      00000000 
 3403      00000000 
 3403      00000000 
 3404              		.section	.bss.buf.9845,"aw",%nobits
 3405              		.align	2
 3406              		.set	.LANCHOR44,. + 0
 3409              	buf.9845:
 3410 0000 00000000 		.space	1920
 3410      00000000 
 3410      00000000 
 3410      00000000 
 3410      00000000 
ARM GAS  /var/folders/v3/wysfpd052nz8jkbx04pk0ym80000gn/T//cc0GVfKk.s 			page 70


 3411              		.section	.bss.buf.9849,"aw",%nobits
 3412              		.align	2
 3413              		.set	.LANCHOR45,. + 0
 3416              	buf.9849:
 3417 0000 00000000 		.space	240
 3417      00000000 
 3417      00000000 
 3417      00000000 
 3417      00000000 
 3418              		.section	.bss.buf.9853,"aw",%nobits
 3419              		.align	2
 3420              		.set	.LANCHOR46,. + 0
 3423              	buf.9853:
 3424 0000 00000000 		.space	480
 3424      00000000 
 3424      00000000 
 3424      00000000 
 3424      00000000 
 3425              		.section	.bss.buf.9857,"aw",%nobits
 3426              		.align	2
 3427              		.set	.LANCHOR47,. + 0
 3430              	buf.9857:
 3431 0000 00000000 		.space	3600
 3431      00000000 
 3431      00000000 
 3431      00000000 
 3431      00000000 
 3432              		.section	.bss.buf.9861,"aw",%nobits
 3433              		.align	2
 3434              		.set	.LANCHOR48,. + 0
 3437              	buf.9861:
 3438 0000 00000000 		.space	240
 3438      00000000 
 3438      00000000 
 3438      00000000 
 3438      00000000 
 3439              		.section	.bss.buf.9865,"aw",%nobits
 3440              		.align	2
 3441              		.set	.LANCHOR49,. + 0
 3444              	buf.9865:
 3445 0000 00000000 		.space	480
 3445      00000000 
 3445      00000000 
 3445      00000000 
 3445      00000000 
 3446              		.section	.bss.buf.9869,"aw",%nobits
 3447              		.align	2
 3448              		.set	.LANCHOR50,. + 0
 3451              	buf.9869:
 3452 0000 00000000 		.space	3840
 3452      00000000 
 3452      00000000 
 3452      00000000 
 3452      00000000 
 3453              		.section	.bss.buf.9873,"aw",%nobits
 3454              		.align	2
 3455              		.set	.LANCHOR51,. + 0
ARM GAS  /var/folders/v3/wysfpd052nz8jkbx04pk0ym80000gn/T//cc0GVfKk.s 			page 71


 3458              	buf.9873:
 3459 0000 00000000 		.space	160
 3459      00000000 
 3459      00000000 
 3459      00000000 
 3459      00000000 
 3460              		.section	.bss.buf.9877,"aw",%nobits
 3461              		.align	2
 3462              		.set	.LANCHOR52,. + 0
 3465              	buf.9877:
 3466 0000 00000000 		.space	320
 3466      00000000 
 3466      00000000 
 3466      00000000 
 3466      00000000 
 3467              		.section	.bss.buf.9881,"aw",%nobits
 3468              		.align	2
 3469              		.set	.LANCHOR53,. + 0
 3472              	buf.9881:
 3473 0000 00000000 		.space	2560
 3473      00000000 
 3473      00000000 
 3473      00000000 
 3473      00000000 
 3474              		.section	.bss.buf.9885,"aw",%nobits
 3475              		.align	2
 3476              		.set	.LANCHOR54,. + 0
 3479              	buf.9885:
 3480 0000 00000000 		.space	160
 3480      00000000 
 3480      00000000 
 3480      00000000 
 3480      00000000 
 3481              		.section	.bss.buf.9889,"aw",%nobits
 3482              		.align	2
 3483              		.set	.LANCHOR55,. + 0
 3486              	buf.9889:
 3487 0000 00000000 		.space	320
 3487      00000000 
 3487      00000000 
 3487      00000000 
 3487      00000000 
 3488              		.section	.bss.buf.9893,"aw",%nobits
 3489              		.align	2
 3490              		.set	.LANCHOR56,. + 0
 3493              	buf.9893:
 3494 0000 00000000 		.space	2080
 3494      00000000 
 3494      00000000 
 3494      00000000 
 3494      00000000 
 3495              		.section	.bss.buf.9897,"aw",%nobits
 3496              		.align	2
 3497              		.set	.LANCHOR57,. + 0
 3500              	buf.9897:
 3501 0000 00000000 		.space	240
 3501      00000000 
ARM GAS  /var/folders/v3/wysfpd052nz8jkbx04pk0ym80000gn/T//cc0GVfKk.s 			page 72


 3501      00000000 
 3501      00000000 
 3501      00000000 
 3502              		.section	.bss.buf.9901,"aw",%nobits
 3503              		.align	2
 3504              		.set	.LANCHOR58,. + 0
 3507              	buf.9901:
 3508 0000 00000000 		.space	480
 3508      00000000 
 3508      00000000 
 3508      00000000 
 3508      00000000 
 3509              		.section	.bss.buf.9905,"aw",%nobits
 3510              		.align	2
 3513              	buf.9905:
 3514 0000 00000000 		.space	4800
 3514      00000000 
 3514      00000000 
 3514      00000000 
 3514      00000000 
 3515              		.section	.bss.buf.9909,"aw",%nobits
 3516              		.align	2
 3517              		.set	.LANCHOR59,. + 0
 3520              	buf.9909:
 3521 0000 00000000 		.space	136
 3521      00000000 
 3521      00000000 
 3521      00000000 
 3521      00000000 
 3522              		.section	.bss.buf.9913,"aw",%nobits
 3523              		.align	2
 3524              		.set	.LANCHOR60,. + 0
 3527              	buf.9913:
 3528 0000 00000000 		.space	272
 3528      00000000 
 3528      00000000 
 3528      00000000 
 3528      00000000 
 3529              		.section	.bss.buf.9917,"aw",%nobits
 3530              		.align	2
 3531              		.set	.LANCHOR61,. + 0
 3534              	buf.9917:
 3535 0000 00000000 		.space	544
 3535      00000000 
 3535      00000000 
 3535      00000000 
 3535      00000000 
 3536              		.section	.bss.buf.9921,"aw",%nobits
 3537              		.align	2
 3538              		.set	.LANCHOR62,. + 0
 3541              	buf.9921:
 3542 0000 00000000 		.space	136
 3542      00000000 
 3542      00000000 
 3542      00000000 
 3542      00000000 
 3543              		.section	.bss.buf.9925,"aw",%nobits
ARM GAS  /var/folders/v3/wysfpd052nz8jkbx04pk0ym80000gn/T//cc0GVfKk.s 			page 73


 3544              		.align	2
 3545              		.set	.LANCHOR63,. + 0
 3548              	buf.9925:
 3549 0000 00000000 		.space	272
 3549      00000000 
 3549      00000000 
 3549      00000000 
 3549      00000000 
 3550              		.section	.bss.buf.9929,"aw",%nobits
 3551              		.align	2
 3552              		.set	.LANCHOR64,. + 0
 3555              	buf.9929:
 3556 0000 00000000 		.space	1088
 3556      00000000 
 3556      00000000 
 3556      00000000 
 3556      00000000 
 3557              		.section	.bss.buf.9933,"aw",%nobits
 3558              		.align	2
 3559              		.set	.LANCHOR65,. + 0
 3562              	buf.9933:
 3563 0000 00000000 		.space	256
 3563      00000000 
 3563      00000000 
 3563      00000000 
 3563      00000000 
 3564              		.section	.bss.buf.9937,"aw",%nobits
 3565              		.align	2
 3566              		.set	.LANCHOR66,. + 0
 3569              	buf.9937:
 3570 0000 00000000 		.space	512
 3570      00000000 
 3570      00000000 
 3570      00000000 
 3570      00000000 
 3571              		.section	.bss.buf.9941,"aw",%nobits
 3572              		.align	2
 3575              	buf.9941:
 3576 0000 00000000 		.space	4096
 3576      00000000 
 3576      00000000 
 3576      00000000 
 3576      00000000 
 3577              		.section	.bss.buf.9945,"aw",%nobits
 3578              		.align	2
 3579              		.set	.LANCHOR67,. + 0
 3582              	buf.9945:
 3583 0000 00000000 		.space	256
 3583      00000000 
 3583      00000000 
 3583      00000000 
 3583      00000000 
 3584              		.section	.bss.buf.9949,"aw",%nobits
 3585              		.align	2
 3586              		.set	.LANCHOR68,. + 0
 3589              	buf.9949:
 3590 0000 00000000 		.space	512
ARM GAS  /var/folders/v3/wysfpd052nz8jkbx04pk0ym80000gn/T//cc0GVfKk.s 			page 74


 3590      00000000 
 3590      00000000 
 3590      00000000 
 3590      00000000 
 3591              		.section	.bss.buf.9953,"aw",%nobits
 3592              		.align	2
 3593              		.set	.LANCHOR69,. + 0
 3596              	buf.9953:
 3597 0000 00000000 		.space	2048
 3597      00000000 
 3597      00000000 
 3597      00000000 
 3597      00000000 
 3598              		.section	.bss.buf.9957,"aw",%nobits
 3599              		.align	2
 3600              		.set	.LANCHOR70,. + 0
 3603              	buf.9957:
 3604 0000 00000000 		.space	176
 3604      00000000 
 3604      00000000 
 3604      00000000 
 3604      00000000 
 3605              		.section	.bss.buf.9961,"aw",%nobits
 3606              		.align	2
 3607              		.set	.LANCHOR71,. + 0
 3610              	buf.9961:
 3611 0000 00000000 		.space	352
 3611      00000000 
 3611      00000000 
 3611      00000000 
 3611      00000000 
 3612              		.section	.bss.buf.9965,"aw",%nobits
 3613              		.align	2
 3614              		.set	.LANCHOR72,. + 0
 3617              	buf.9965:
 3618 0000 00000000 		.space	2288
 3618      00000000 
 3618      00000000 
 3618      00000000 
 3618      00000000 
 3619              		.section	.bss.buf.9969,"aw",%nobits
 3620              		.align	2
 3621              		.set	.LANCHOR73,. + 0
 3624              	buf.9969:
 3625 0000 00000000 		.space	160
 3625      00000000 
 3625      00000000 
 3625      00000000 
 3625      00000000 
 3626              		.section	.bss.buf.9973,"aw",%nobits
 3627              		.align	2
 3628              		.set	.LANCHOR74,. + 0
 3631              	buf.9973:
 3632 0000 00000000 		.space	320
 3632      00000000 
 3632      00000000 
 3632      00000000 
ARM GAS  /var/folders/v3/wysfpd052nz8jkbx04pk0ym80000gn/T//cc0GVfKk.s 			page 75


 3632      00000000 
 3633              		.section	.bss.buf.9977,"aw",%nobits
 3634              		.align	2
 3635              		.set	.LANCHOR75,. + 0
 3638              	buf.9977:
 3639 0000 00000000 		.space	1600
 3639      00000000 
 3639      00000000 
 3639      00000000 
 3639      00000000 
 3640              		.section	.bss.buf.9981,"aw",%nobits
 3641              		.align	2
 3642              		.set	.LANCHOR76,. + 0
 3645              	buf.9981:
 3646 0000 00000000 		.space	160
 3646      00000000 
 3646      00000000 
 3646      00000000 
 3646      00000000 
 3647              		.section	.bss.buf.9985,"aw",%nobits
 3648              		.align	2
 3649              		.set	.LANCHOR77,. + 0
 3652              	buf.9985:
 3653 0000 00000000 		.space	320
 3653      00000000 
 3653      00000000 
 3653      00000000 
 3653      00000000 
 3654              		.section	.bss.buf.9989,"aw",%nobits
 3655              		.align	2
 3656              		.set	.LANCHOR78,. + 0
 3659              	buf.9989:
 3660 0000 00000000 		.space	3200
 3660      00000000 
 3660      00000000 
 3660      00000000 
 3660      00000000 
 3661              		.section	.bss.buf.9993,"aw",%nobits
 3662              		.align	2
 3663              		.set	.LANCHOR79,. + 0
 3666              	buf.9993:
 3667 0000 00000000 		.space	176
 3667      00000000 
 3667      00000000 
 3667      00000000 
 3667      00000000 
 3668              		.section	.bss.buf.9997,"aw",%nobits
 3669              		.align	2
 3670              		.set	.LANCHOR80,. + 0
 3673              	buf.9997:
 3674 0000 00000000 		.space	352
 3674      00000000 
 3674      00000000 
 3674      00000000 
 3674      00000000 
 3675              		.text
 3676              	.Letext0:
ARM GAS  /var/folders/v3/wysfpd052nz8jkbx04pk0ym80000gn/T//cc0GVfKk.s 			page 76


 3677              		.file 2 "/usr/local/gcc-arm-none-eabi-7-2018-q2-update/arm-none-eabi/include/machine/_default_type
 3678              		.file 3 "/usr/local/gcc-arm-none-eabi-7-2018-q2-update/arm-none-eabi/include/sys/_stdint.h"
 3679              		.file 4 "/Users/imashio/Electronics/ARM/_Library/u8x8.h"
 3680              		.file 5 "/Users/imashio/Electronics/ARM/_Library/u8g2.h"
ARM GAS  /var/folders/v3/wysfpd052nz8jkbx04pk0ym80000gn/T//cc0GVfKk.s 			page 77

