ARM GAS  /var/folders/v3/wysfpd052nz8jkbx04pk0ym80000gn/T//ccJItEm3.s 			page 1


   1              		.cpu cortex-m4
   2              		.eabi_attribute 27, 1
   3              		.eabi_attribute 28, 1
   4              		.eabi_attribute 20, 1
   5              		.eabi_attribute 21, 1
   6              		.eabi_attribute 23, 3
   7              		.eabi_attribute 24, 1
   8              		.eabi_attribute 25, 1
   9              		.eabi_attribute 26, 1
  10              		.eabi_attribute 30, 2
  11              		.eabi_attribute 34, 1
  12              		.eabi_attribute 18, 4
  13              		.file	"u8g2_d_memory.c"
  14              		.text
  15              	.Ltext0:
  16              		.cfi_sections	.debug_frame
  17              		.section	.text.u8g2_m_16_4_1,"ax",%progbits
  18              		.align	1
  19              		.p2align 2,,3
  20              		.global	u8g2_m_16_4_1
  21              		.syntax unified
  22              		.thumb
  23              		.thumb_func
  24              		.fpu fpv4-sp-d16
  26              	u8g2_m_16_4_1:
  27              	.LFB0:
  28              		.file 1 "/Users/imashio/Electronics/ARM/_Library/u8g2_d_memory.c"
   1:/Users/imashio/Electronics/ARM/_Library/u8g2_d_memory.c **** /* u8g2_d_memory.c */
   2:/Users/imashio/Electronics/ARM/_Library/u8g2_d_memory.c **** /* generated code, codebuild, u8g2 project */
   3:/Users/imashio/Electronics/ARM/_Library/u8g2_d_memory.c **** 
   4:/Users/imashio/Electronics/ARM/_Library/u8g2_d_memory.c **** #include "u8g2.h"
   5:/Users/imashio/Electronics/ARM/_Library/u8g2_d_memory.c **** 
   6:/Users/imashio/Electronics/ARM/_Library/u8g2_d_memory.c **** uint8_t *u8g2_m_16_4_1(uint8_t *page_cnt)
   7:/Users/imashio/Electronics/ARM/_Library/u8g2_d_memory.c **** {
  29              		.loc 1 7 0
  30              		.cfi_startproc
  31              		@ args = 0, pretend = 0, frame = 0
  32              		@ frame_needed = 0, uses_anonymous_args = 0
  33              		@ link register save eliminated.
  34              	.LVL0:
   8:/Users/imashio/Electronics/ARM/_Library/u8g2_d_memory.c ****   static uint8_t buf[128];
   9:/Users/imashio/Electronics/ARM/_Library/u8g2_d_memory.c ****   *page_cnt = 1;
  35              		.loc 1 9 0
  36 0000 0123     		movs	r3, #1
  37 0002 0370     		strb	r3, [r0]
  10:/Users/imashio/Electronics/ARM/_Library/u8g2_d_memory.c ****   return buf;
  11:/Users/imashio/Electronics/ARM/_Library/u8g2_d_memory.c **** }
  38              		.loc 1 11 0
  39 0004 0048     		ldr	r0, .L3
  40              	.LVL1:
  41 0006 7047     		bx	lr
  42              	.L4:
  43              		.align	2
  44              	.L3:
  45 0008 00000000 		.word	.LANCHOR0
  46              		.cfi_endproc
  47              	.LFE0:
ARM GAS  /var/folders/v3/wysfpd052nz8jkbx04pk0ym80000gn/T//ccJItEm3.s 			page 2


  49              		.section	.text.u8g2_m_16_4_2,"ax",%progbits
  50              		.align	1
  51              		.p2align 2,,3
  52              		.global	u8g2_m_16_4_2
  53              		.syntax unified
  54              		.thumb
  55              		.thumb_func
  56              		.fpu fpv4-sp-d16
  58              	u8g2_m_16_4_2:
  59              	.LFB1:
  12:/Users/imashio/Electronics/ARM/_Library/u8g2_d_memory.c **** uint8_t *u8g2_m_16_4_2(uint8_t *page_cnt)
  13:/Users/imashio/Electronics/ARM/_Library/u8g2_d_memory.c **** {
  60              		.loc 1 13 0
  61              		.cfi_startproc
  62              		@ args = 0, pretend = 0, frame = 0
  63              		@ frame_needed = 0, uses_anonymous_args = 0
  64              		@ link register save eliminated.
  65              	.LVL2:
  14:/Users/imashio/Electronics/ARM/_Library/u8g2_d_memory.c ****   static uint8_t buf[256];
  15:/Users/imashio/Electronics/ARM/_Library/u8g2_d_memory.c ****   *page_cnt = 2;
  66              		.loc 1 15 0
  67 0000 0223     		movs	r3, #2
  68 0002 0370     		strb	r3, [r0]
  16:/Users/imashio/Electronics/ARM/_Library/u8g2_d_memory.c ****   return buf;
  17:/Users/imashio/Electronics/ARM/_Library/u8g2_d_memory.c **** }
  69              		.loc 1 17 0
  70 0004 0048     		ldr	r0, .L6
  71              	.LVL3:
  72 0006 7047     		bx	lr
  73              	.L7:
  74              		.align	2
  75              	.L6:
  76 0008 00000000 		.word	.LANCHOR1
  77              		.cfi_endproc
  78              	.LFE1:
  80              		.section	.text.u8g2_m_16_4_f,"ax",%progbits
  81              		.align	1
  82              		.p2align 2,,3
  83              		.global	u8g2_m_16_4_f
  84              		.syntax unified
  85              		.thumb
  86              		.thumb_func
  87              		.fpu fpv4-sp-d16
  89              	u8g2_m_16_4_f:
  90              	.LFB2:
  18:/Users/imashio/Electronics/ARM/_Library/u8g2_d_memory.c **** uint8_t *u8g2_m_16_4_f(uint8_t *page_cnt)
  19:/Users/imashio/Electronics/ARM/_Library/u8g2_d_memory.c **** {
  91              		.loc 1 19 0
  92              		.cfi_startproc
  93              		@ args = 0, pretend = 0, frame = 0
  94              		@ frame_needed = 0, uses_anonymous_args = 0
  95              		@ link register save eliminated.
  96              	.LVL4:
  20:/Users/imashio/Electronics/ARM/_Library/u8g2_d_memory.c ****   static uint8_t buf[512];
  21:/Users/imashio/Electronics/ARM/_Library/u8g2_d_memory.c ****   *page_cnt = 4;
  97              		.loc 1 21 0
  98 0000 0423     		movs	r3, #4
ARM GAS  /var/folders/v3/wysfpd052nz8jkbx04pk0ym80000gn/T//ccJItEm3.s 			page 3


  99 0002 0370     		strb	r3, [r0]
  22:/Users/imashio/Electronics/ARM/_Library/u8g2_d_memory.c ****   return buf;
  23:/Users/imashio/Electronics/ARM/_Library/u8g2_d_memory.c **** }
 100              		.loc 1 23 0
 101 0004 0048     		ldr	r0, .L9
 102              	.LVL5:
 103 0006 7047     		bx	lr
 104              	.L10:
 105              		.align	2
 106              	.L9:
 107 0008 00000000 		.word	.LANCHOR2
 108              		.cfi_endproc
 109              	.LFE2:
 111              		.section	.text.u8g2_m_16_8_1,"ax",%progbits
 112              		.align	1
 113              		.p2align 2,,3
 114              		.global	u8g2_m_16_8_1
 115              		.syntax unified
 116              		.thumb
 117              		.thumb_func
 118              		.fpu fpv4-sp-d16
 120              	u8g2_m_16_8_1:
 121              	.LFB3:
  24:/Users/imashio/Electronics/ARM/_Library/u8g2_d_memory.c **** uint8_t *u8g2_m_16_8_1(uint8_t *page_cnt)
  25:/Users/imashio/Electronics/ARM/_Library/u8g2_d_memory.c **** {
 122              		.loc 1 25 0
 123              		.cfi_startproc
 124              		@ args = 0, pretend = 0, frame = 0
 125              		@ frame_needed = 0, uses_anonymous_args = 0
 126              		@ link register save eliminated.
 127              	.LVL6:
  26:/Users/imashio/Electronics/ARM/_Library/u8g2_d_memory.c ****   static uint8_t buf[128];
  27:/Users/imashio/Electronics/ARM/_Library/u8g2_d_memory.c ****   *page_cnt = 1;
 128              		.loc 1 27 0
 129 0000 0123     		movs	r3, #1
 130 0002 0370     		strb	r3, [r0]
  28:/Users/imashio/Electronics/ARM/_Library/u8g2_d_memory.c ****   return buf;
  29:/Users/imashio/Electronics/ARM/_Library/u8g2_d_memory.c **** }
 131              		.loc 1 29 0
 132 0004 0048     		ldr	r0, .L12
 133              	.LVL7:
 134 0006 7047     		bx	lr
 135              	.L13:
 136              		.align	2
 137              	.L12:
 138 0008 00000000 		.word	.LANCHOR3
 139              		.cfi_endproc
 140              	.LFE3:
 142              		.section	.text.u8g2_m_16_8_2,"ax",%progbits
 143              		.align	1
 144              		.p2align 2,,3
 145              		.global	u8g2_m_16_8_2
 146              		.syntax unified
 147              		.thumb
 148              		.thumb_func
 149              		.fpu fpv4-sp-d16
 151              	u8g2_m_16_8_2:
ARM GAS  /var/folders/v3/wysfpd052nz8jkbx04pk0ym80000gn/T//ccJItEm3.s 			page 4


 152              	.LFB4:
  30:/Users/imashio/Electronics/ARM/_Library/u8g2_d_memory.c **** uint8_t *u8g2_m_16_8_2(uint8_t *page_cnt)
  31:/Users/imashio/Electronics/ARM/_Library/u8g2_d_memory.c **** {
 153              		.loc 1 31 0
 154              		.cfi_startproc
 155              		@ args = 0, pretend = 0, frame = 0
 156              		@ frame_needed = 0, uses_anonymous_args = 0
 157              		@ link register save eliminated.
 158              	.LVL8:
  32:/Users/imashio/Electronics/ARM/_Library/u8g2_d_memory.c ****   static uint8_t buf[256];
  33:/Users/imashio/Electronics/ARM/_Library/u8g2_d_memory.c ****   *page_cnt = 2;
 159              		.loc 1 33 0
 160 0000 0223     		movs	r3, #2
 161 0002 0370     		strb	r3, [r0]
  34:/Users/imashio/Electronics/ARM/_Library/u8g2_d_memory.c ****   return buf;
  35:/Users/imashio/Electronics/ARM/_Library/u8g2_d_memory.c **** }
 162              		.loc 1 35 0
 163 0004 0048     		ldr	r0, .L15
 164              	.LVL9:
 165 0006 7047     		bx	lr
 166              	.L16:
 167              		.align	2
 168              	.L15:
 169 0008 00000000 		.word	.LANCHOR4
 170              		.cfi_endproc
 171              	.LFE4:
 173              		.section	.text.u8g2_m_16_8_f,"ax",%progbits
 174              		.align	1
 175              		.p2align 2,,3
 176              		.global	u8g2_m_16_8_f
 177              		.syntax unified
 178              		.thumb
 179              		.thumb_func
 180              		.fpu fpv4-sp-d16
 182              	u8g2_m_16_8_f:
 183              	.LFB5:
  36:/Users/imashio/Electronics/ARM/_Library/u8g2_d_memory.c **** uint8_t *u8g2_m_16_8_f(uint8_t *page_cnt)
  37:/Users/imashio/Electronics/ARM/_Library/u8g2_d_memory.c **** {
 184              		.loc 1 37 0
 185              		.cfi_startproc
 186              		@ args = 0, pretend = 0, frame = 0
 187              		@ frame_needed = 0, uses_anonymous_args = 0
 188              		@ link register save eliminated.
 189              	.LVL10:
  38:/Users/imashio/Electronics/ARM/_Library/u8g2_d_memory.c ****   static uint8_t buf[1024];
  39:/Users/imashio/Electronics/ARM/_Library/u8g2_d_memory.c ****   *page_cnt = 8;
 190              		.loc 1 39 0
 191 0000 0823     		movs	r3, #8
 192 0002 0370     		strb	r3, [r0]
  40:/Users/imashio/Electronics/ARM/_Library/u8g2_d_memory.c ****   return buf;
  41:/Users/imashio/Electronics/ARM/_Library/u8g2_d_memory.c **** }
 193              		.loc 1 41 0
 194 0004 0048     		ldr	r0, .L18
 195              	.LVL11:
 196 0006 7047     		bx	lr
 197              	.L19:
 198              		.align	2
ARM GAS  /var/folders/v3/wysfpd052nz8jkbx04pk0ym80000gn/T//ccJItEm3.s 			page 5


 199              	.L18:
 200 0008 00000000 		.word	.LANCHOR5
 201              		.cfi_endproc
 202              	.LFE5:
 204              		.section	.text.u8g2_m_12_12_1,"ax",%progbits
 205              		.align	1
 206              		.p2align 2,,3
 207              		.global	u8g2_m_12_12_1
 208              		.syntax unified
 209              		.thumb
 210              		.thumb_func
 211              		.fpu fpv4-sp-d16
 213              	u8g2_m_12_12_1:
 214              	.LFB6:
  42:/Users/imashio/Electronics/ARM/_Library/u8g2_d_memory.c **** uint8_t *u8g2_m_12_12_1(uint8_t *page_cnt)
  43:/Users/imashio/Electronics/ARM/_Library/u8g2_d_memory.c **** {
 215              		.loc 1 43 0
 216              		.cfi_startproc
 217              		@ args = 0, pretend = 0, frame = 0
 218              		@ frame_needed = 0, uses_anonymous_args = 0
 219              		@ link register save eliminated.
 220              	.LVL12:
  44:/Users/imashio/Electronics/ARM/_Library/u8g2_d_memory.c ****   static uint8_t buf[96];
  45:/Users/imashio/Electronics/ARM/_Library/u8g2_d_memory.c ****   *page_cnt = 1;
 221              		.loc 1 45 0
 222 0000 0123     		movs	r3, #1
 223 0002 0370     		strb	r3, [r0]
  46:/Users/imashio/Electronics/ARM/_Library/u8g2_d_memory.c ****   return buf;
  47:/Users/imashio/Electronics/ARM/_Library/u8g2_d_memory.c **** }
 224              		.loc 1 47 0
 225 0004 0048     		ldr	r0, .L21
 226              	.LVL13:
 227 0006 7047     		bx	lr
 228              	.L22:
 229              		.align	2
 230              	.L21:
 231 0008 00000000 		.word	.LANCHOR6
 232              		.cfi_endproc
 233              	.LFE6:
 235              		.section	.text.u8g2_m_12_12_2,"ax",%progbits
 236              		.align	1
 237              		.p2align 2,,3
 238              		.global	u8g2_m_12_12_2
 239              		.syntax unified
 240              		.thumb
 241              		.thumb_func
 242              		.fpu fpv4-sp-d16
 244              	u8g2_m_12_12_2:
 245              	.LFB7:
  48:/Users/imashio/Electronics/ARM/_Library/u8g2_d_memory.c **** uint8_t *u8g2_m_12_12_2(uint8_t *page_cnt)
  49:/Users/imashio/Electronics/ARM/_Library/u8g2_d_memory.c **** {
 246              		.loc 1 49 0
 247              		.cfi_startproc
 248              		@ args = 0, pretend = 0, frame = 0
 249              		@ frame_needed = 0, uses_anonymous_args = 0
 250              		@ link register save eliminated.
 251              	.LVL14:
ARM GAS  /var/folders/v3/wysfpd052nz8jkbx04pk0ym80000gn/T//ccJItEm3.s 			page 6


  50:/Users/imashio/Electronics/ARM/_Library/u8g2_d_memory.c ****   static uint8_t buf[192];
  51:/Users/imashio/Electronics/ARM/_Library/u8g2_d_memory.c ****   *page_cnt = 2;
 252              		.loc 1 51 0
 253 0000 0223     		movs	r3, #2
 254 0002 0370     		strb	r3, [r0]
  52:/Users/imashio/Electronics/ARM/_Library/u8g2_d_memory.c ****   return buf;
  53:/Users/imashio/Electronics/ARM/_Library/u8g2_d_memory.c **** }
 255              		.loc 1 53 0
 256 0004 0048     		ldr	r0, .L24
 257              	.LVL15:
 258 0006 7047     		bx	lr
 259              	.L25:
 260              		.align	2
 261              	.L24:
 262 0008 00000000 		.word	.LANCHOR7
 263              		.cfi_endproc
 264              	.LFE7:
 266              		.section	.text.u8g2_m_12_12_f,"ax",%progbits
 267              		.align	1
 268              		.p2align 2,,3
 269              		.global	u8g2_m_12_12_f
 270              		.syntax unified
 271              		.thumb
 272              		.thumb_func
 273              		.fpu fpv4-sp-d16
 275              	u8g2_m_12_12_f:
 276              	.LFB8:
  54:/Users/imashio/Electronics/ARM/_Library/u8g2_d_memory.c **** uint8_t *u8g2_m_12_12_f(uint8_t *page_cnt)
  55:/Users/imashio/Electronics/ARM/_Library/u8g2_d_memory.c **** {
 277              		.loc 1 55 0
 278              		.cfi_startproc
 279              		@ args = 0, pretend = 0, frame = 0
 280              		@ frame_needed = 0, uses_anonymous_args = 0
 281              		@ link register save eliminated.
 282              	.LVL16:
  56:/Users/imashio/Electronics/ARM/_Library/u8g2_d_memory.c ****   static uint8_t buf[1152];
  57:/Users/imashio/Electronics/ARM/_Library/u8g2_d_memory.c ****   *page_cnt = 12;
 283              		.loc 1 57 0
 284 0000 0C23     		movs	r3, #12
 285 0002 0370     		strb	r3, [r0]
  58:/Users/imashio/Electronics/ARM/_Library/u8g2_d_memory.c ****   return buf;
  59:/Users/imashio/Electronics/ARM/_Library/u8g2_d_memory.c **** }
 286              		.loc 1 59 0
 287 0004 0048     		ldr	r0, .L27
 288              	.LVL17:
 289 0006 7047     		bx	lr
 290              	.L28:
 291              		.align	2
 292              	.L27:
 293 0008 00000000 		.word	.LANCHOR8
 294              		.cfi_endproc
 295              	.LFE8:
 297              		.section	.text.u8g2_m_8_6_1,"ax",%progbits
 298              		.align	1
 299              		.p2align 2,,3
 300              		.global	u8g2_m_8_6_1
 301              		.syntax unified
ARM GAS  /var/folders/v3/wysfpd052nz8jkbx04pk0ym80000gn/T//ccJItEm3.s 			page 7


 302              		.thumb
 303              		.thumb_func
 304              		.fpu fpv4-sp-d16
 306              	u8g2_m_8_6_1:
 307              	.LFB9:
  60:/Users/imashio/Electronics/ARM/_Library/u8g2_d_memory.c **** uint8_t *u8g2_m_8_6_1(uint8_t *page_cnt)
  61:/Users/imashio/Electronics/ARM/_Library/u8g2_d_memory.c **** {
 308              		.loc 1 61 0
 309              		.cfi_startproc
 310              		@ args = 0, pretend = 0, frame = 0
 311              		@ frame_needed = 0, uses_anonymous_args = 0
 312              		@ link register save eliminated.
 313              	.LVL18:
  62:/Users/imashio/Electronics/ARM/_Library/u8g2_d_memory.c ****   static uint8_t buf[64];
  63:/Users/imashio/Electronics/ARM/_Library/u8g2_d_memory.c ****   *page_cnt = 1;
 314              		.loc 1 63 0
 315 0000 0123     		movs	r3, #1
 316 0002 0370     		strb	r3, [r0]
  64:/Users/imashio/Electronics/ARM/_Library/u8g2_d_memory.c ****   return buf;
  65:/Users/imashio/Electronics/ARM/_Library/u8g2_d_memory.c **** }
 317              		.loc 1 65 0
 318 0004 0048     		ldr	r0, .L30
 319              	.LVL19:
 320 0006 7047     		bx	lr
 321              	.L31:
 322              		.align	2
 323              	.L30:
 324 0008 00000000 		.word	.LANCHOR9
 325              		.cfi_endproc
 326              	.LFE9:
 328              		.section	.text.u8g2_m_8_6_2,"ax",%progbits
 329              		.align	1
 330              		.p2align 2,,3
 331              		.global	u8g2_m_8_6_2
 332              		.syntax unified
 333              		.thumb
 334              		.thumb_func
 335              		.fpu fpv4-sp-d16
 337              	u8g2_m_8_6_2:
 338              	.LFB10:
  66:/Users/imashio/Electronics/ARM/_Library/u8g2_d_memory.c **** uint8_t *u8g2_m_8_6_2(uint8_t *page_cnt)
  67:/Users/imashio/Electronics/ARM/_Library/u8g2_d_memory.c **** {
 339              		.loc 1 67 0
 340              		.cfi_startproc
 341              		@ args = 0, pretend = 0, frame = 0
 342              		@ frame_needed = 0, uses_anonymous_args = 0
 343              		@ link register save eliminated.
 344              	.LVL20:
  68:/Users/imashio/Electronics/ARM/_Library/u8g2_d_memory.c ****   static uint8_t buf[128];
  69:/Users/imashio/Electronics/ARM/_Library/u8g2_d_memory.c ****   *page_cnt = 2;
 345              		.loc 1 69 0
 346 0000 0223     		movs	r3, #2
 347 0002 0370     		strb	r3, [r0]
  70:/Users/imashio/Electronics/ARM/_Library/u8g2_d_memory.c ****   return buf;
  71:/Users/imashio/Electronics/ARM/_Library/u8g2_d_memory.c **** }
 348              		.loc 1 71 0
 349 0004 0048     		ldr	r0, .L33
ARM GAS  /var/folders/v3/wysfpd052nz8jkbx04pk0ym80000gn/T//ccJItEm3.s 			page 8


 350              	.LVL21:
 351 0006 7047     		bx	lr
 352              	.L34:
 353              		.align	2
 354              	.L33:
 355 0008 00000000 		.word	.LANCHOR10
 356              		.cfi_endproc
 357              	.LFE10:
 359              		.section	.text.u8g2_m_8_6_f,"ax",%progbits
 360              		.align	1
 361              		.p2align 2,,3
 362              		.global	u8g2_m_8_6_f
 363              		.syntax unified
 364              		.thumb
 365              		.thumb_func
 366              		.fpu fpv4-sp-d16
 368              	u8g2_m_8_6_f:
 369              	.LFB11:
  72:/Users/imashio/Electronics/ARM/_Library/u8g2_d_memory.c **** uint8_t *u8g2_m_8_6_f(uint8_t *page_cnt)
  73:/Users/imashio/Electronics/ARM/_Library/u8g2_d_memory.c **** {
 370              		.loc 1 73 0
 371              		.cfi_startproc
 372              		@ args = 0, pretend = 0, frame = 0
 373              		@ frame_needed = 0, uses_anonymous_args = 0
 374              		@ link register save eliminated.
 375              	.LVL22:
  74:/Users/imashio/Electronics/ARM/_Library/u8g2_d_memory.c ****   static uint8_t buf[384];
  75:/Users/imashio/Electronics/ARM/_Library/u8g2_d_memory.c ****   *page_cnt = 6;
 376              		.loc 1 75 0
 377 0000 0623     		movs	r3, #6
 378 0002 0370     		strb	r3, [r0]
  76:/Users/imashio/Electronics/ARM/_Library/u8g2_d_memory.c ****   return buf;
  77:/Users/imashio/Electronics/ARM/_Library/u8g2_d_memory.c **** }
 379              		.loc 1 77 0
 380 0004 0048     		ldr	r0, .L36
 381              	.LVL23:
 382 0006 7047     		bx	lr
 383              	.L37:
 384              		.align	2
 385              	.L36:
 386 0008 00000000 		.word	.LANCHOR11
 387              		.cfi_endproc
 388              	.LFE11:
 390              		.section	.text.u8g2_m_8_4_1,"ax",%progbits
 391              		.align	1
 392              		.p2align 2,,3
 393              		.global	u8g2_m_8_4_1
 394              		.syntax unified
 395              		.thumb
 396              		.thumb_func
 397              		.fpu fpv4-sp-d16
 399              	u8g2_m_8_4_1:
 400              	.LFB12:
  78:/Users/imashio/Electronics/ARM/_Library/u8g2_d_memory.c **** uint8_t *u8g2_m_8_4_1(uint8_t *page_cnt)
  79:/Users/imashio/Electronics/ARM/_Library/u8g2_d_memory.c **** {
 401              		.loc 1 79 0
 402              		.cfi_startproc
ARM GAS  /var/folders/v3/wysfpd052nz8jkbx04pk0ym80000gn/T//ccJItEm3.s 			page 9


 403              		@ args = 0, pretend = 0, frame = 0
 404              		@ frame_needed = 0, uses_anonymous_args = 0
 405              		@ link register save eliminated.
 406              	.LVL24:
  80:/Users/imashio/Electronics/ARM/_Library/u8g2_d_memory.c ****   static uint8_t buf[64];
  81:/Users/imashio/Electronics/ARM/_Library/u8g2_d_memory.c ****   *page_cnt = 1;
 407              		.loc 1 81 0
 408 0000 0123     		movs	r3, #1
 409 0002 0370     		strb	r3, [r0]
  82:/Users/imashio/Electronics/ARM/_Library/u8g2_d_memory.c ****   return buf;
  83:/Users/imashio/Electronics/ARM/_Library/u8g2_d_memory.c **** }
 410              		.loc 1 83 0
 411 0004 0048     		ldr	r0, .L39
 412              	.LVL25:
 413 0006 7047     		bx	lr
 414              	.L40:
 415              		.align	2
 416              	.L39:
 417 0008 00000000 		.word	.LANCHOR12
 418              		.cfi_endproc
 419              	.LFE12:
 421              		.section	.text.u8g2_m_8_4_2,"ax",%progbits
 422              		.align	1
 423              		.p2align 2,,3
 424              		.global	u8g2_m_8_4_2
 425              		.syntax unified
 426              		.thumb
 427              		.thumb_func
 428              		.fpu fpv4-sp-d16
 430              	u8g2_m_8_4_2:
 431              	.LFB13:
  84:/Users/imashio/Electronics/ARM/_Library/u8g2_d_memory.c **** uint8_t *u8g2_m_8_4_2(uint8_t *page_cnt)
  85:/Users/imashio/Electronics/ARM/_Library/u8g2_d_memory.c **** {
 432              		.loc 1 85 0
 433              		.cfi_startproc
 434              		@ args = 0, pretend = 0, frame = 0
 435              		@ frame_needed = 0, uses_anonymous_args = 0
 436              		@ link register save eliminated.
 437              	.LVL26:
  86:/Users/imashio/Electronics/ARM/_Library/u8g2_d_memory.c ****   static uint8_t buf[128];
  87:/Users/imashio/Electronics/ARM/_Library/u8g2_d_memory.c ****   *page_cnt = 2;
 438              		.loc 1 87 0
 439 0000 0223     		movs	r3, #2
 440 0002 0370     		strb	r3, [r0]
  88:/Users/imashio/Electronics/ARM/_Library/u8g2_d_memory.c ****   return buf;
  89:/Users/imashio/Electronics/ARM/_Library/u8g2_d_memory.c **** }
 441              		.loc 1 89 0
 442 0004 0048     		ldr	r0, .L42
 443              	.LVL27:
 444 0006 7047     		bx	lr
 445              	.L43:
 446              		.align	2
 447              	.L42:
 448 0008 00000000 		.word	.LANCHOR13
 449              		.cfi_endproc
 450              	.LFE13:
 452              		.section	.text.u8g2_m_8_4_f,"ax",%progbits
ARM GAS  /var/folders/v3/wysfpd052nz8jkbx04pk0ym80000gn/T//ccJItEm3.s 			page 10


 453              		.align	1
 454              		.p2align 2,,3
 455              		.global	u8g2_m_8_4_f
 456              		.syntax unified
 457              		.thumb
 458              		.thumb_func
 459              		.fpu fpv4-sp-d16
 461              	u8g2_m_8_4_f:
 462              	.LFB14:
  90:/Users/imashio/Electronics/ARM/_Library/u8g2_d_memory.c **** uint8_t *u8g2_m_8_4_f(uint8_t *page_cnt)
  91:/Users/imashio/Electronics/ARM/_Library/u8g2_d_memory.c **** {
 463              		.loc 1 91 0
 464              		.cfi_startproc
 465              		@ args = 0, pretend = 0, frame = 0
 466              		@ frame_needed = 0, uses_anonymous_args = 0
 467              		@ link register save eliminated.
 468              	.LVL28:
  92:/Users/imashio/Electronics/ARM/_Library/u8g2_d_memory.c ****   static uint8_t buf[256];
  93:/Users/imashio/Electronics/ARM/_Library/u8g2_d_memory.c ****   *page_cnt = 4;
 469              		.loc 1 93 0
 470 0000 0423     		movs	r3, #4
 471 0002 0370     		strb	r3, [r0]
  94:/Users/imashio/Electronics/ARM/_Library/u8g2_d_memory.c ****   return buf;
  95:/Users/imashio/Electronics/ARM/_Library/u8g2_d_memory.c **** }
 472              		.loc 1 95 0
 473 0004 0048     		ldr	r0, .L45
 474              	.LVL29:
 475 0006 7047     		bx	lr
 476              	.L46:
 477              		.align	2
 478              	.L45:
 479 0008 00000000 		.word	.LANCHOR14
 480              		.cfi_endproc
 481              	.LFE14:
 483              		.section	.text.u8g2_m_12_2_1,"ax",%progbits
 484              		.align	1
 485              		.p2align 2,,3
 486              		.global	u8g2_m_12_2_1
 487              		.syntax unified
 488              		.thumb
 489              		.thumb_func
 490              		.fpu fpv4-sp-d16
 492              	u8g2_m_12_2_1:
 493              	.LFB15:
  96:/Users/imashio/Electronics/ARM/_Library/u8g2_d_memory.c **** uint8_t *u8g2_m_12_2_1(uint8_t *page_cnt)
  97:/Users/imashio/Electronics/ARM/_Library/u8g2_d_memory.c **** {
 494              		.loc 1 97 0
 495              		.cfi_startproc
 496              		@ args = 0, pretend = 0, frame = 0
 497              		@ frame_needed = 0, uses_anonymous_args = 0
 498              		@ link register save eliminated.
 499              	.LVL30:
  98:/Users/imashio/Electronics/ARM/_Library/u8g2_d_memory.c ****   static uint8_t buf[96];
  99:/Users/imashio/Electronics/ARM/_Library/u8g2_d_memory.c ****   *page_cnt = 1;
 500              		.loc 1 99 0
 501 0000 0123     		movs	r3, #1
 502 0002 0370     		strb	r3, [r0]
ARM GAS  /var/folders/v3/wysfpd052nz8jkbx04pk0ym80000gn/T//ccJItEm3.s 			page 11


 100:/Users/imashio/Electronics/ARM/_Library/u8g2_d_memory.c ****   return buf;
 101:/Users/imashio/Electronics/ARM/_Library/u8g2_d_memory.c **** }
 503              		.loc 1 101 0
 504 0004 0048     		ldr	r0, .L48
 505              	.LVL31:
 506 0006 7047     		bx	lr
 507              	.L49:
 508              		.align	2
 509              	.L48:
 510 0008 00000000 		.word	.LANCHOR15
 511              		.cfi_endproc
 512              	.LFE15:
 514              		.section	.text.u8g2_m_12_2_2,"ax",%progbits
 515              		.align	1
 516              		.p2align 2,,3
 517              		.global	u8g2_m_12_2_2
 518              		.syntax unified
 519              		.thumb
 520              		.thumb_func
 521              		.fpu fpv4-sp-d16
 523              	u8g2_m_12_2_2:
 524              	.LFB16:
 102:/Users/imashio/Electronics/ARM/_Library/u8g2_d_memory.c **** uint8_t *u8g2_m_12_2_2(uint8_t *page_cnt)
 103:/Users/imashio/Electronics/ARM/_Library/u8g2_d_memory.c **** {
 525              		.loc 1 103 0
 526              		.cfi_startproc
 527              		@ args = 0, pretend = 0, frame = 0
 528              		@ frame_needed = 0, uses_anonymous_args = 0
 529              		@ link register save eliminated.
 530              	.LVL32:
 104:/Users/imashio/Electronics/ARM/_Library/u8g2_d_memory.c ****   static uint8_t buf[192];
 105:/Users/imashio/Electronics/ARM/_Library/u8g2_d_memory.c ****   *page_cnt = 2;
 531              		.loc 1 105 0
 532 0000 0223     		movs	r3, #2
 533 0002 0370     		strb	r3, [r0]
 106:/Users/imashio/Electronics/ARM/_Library/u8g2_d_memory.c ****   return buf;
 107:/Users/imashio/Electronics/ARM/_Library/u8g2_d_memory.c **** }
 534              		.loc 1 107 0
 535 0004 0048     		ldr	r0, .L51
 536              	.LVL33:
 537 0006 7047     		bx	lr
 538              	.L52:
 539              		.align	2
 540              	.L51:
 541 0008 00000000 		.word	.LANCHOR16
 542              		.cfi_endproc
 543              	.LFE16:
 545              		.section	.text.u8g2_m_12_2_f,"ax",%progbits
 546              		.align	1
 547              		.p2align 2,,3
 548              		.global	u8g2_m_12_2_f
 549              		.syntax unified
 550              		.thumb
 551              		.thumb_func
 552              		.fpu fpv4-sp-d16
 554              	u8g2_m_12_2_f:
 555              	.LFB17:
ARM GAS  /var/folders/v3/wysfpd052nz8jkbx04pk0ym80000gn/T//ccJItEm3.s 			page 12


 108:/Users/imashio/Electronics/ARM/_Library/u8g2_d_memory.c **** uint8_t *u8g2_m_12_2_f(uint8_t *page_cnt)
 109:/Users/imashio/Electronics/ARM/_Library/u8g2_d_memory.c **** {
 556              		.loc 1 109 0
 557              		.cfi_startproc
 558              		@ args = 0, pretend = 0, frame = 0
 559              		@ frame_needed = 0, uses_anonymous_args = 0
 560              		@ link register save eliminated.
 561              	.LVL34:
 110:/Users/imashio/Electronics/ARM/_Library/u8g2_d_memory.c ****   static uint8_t buf[192];
 111:/Users/imashio/Electronics/ARM/_Library/u8g2_d_memory.c ****   *page_cnt = 2;
 562              		.loc 1 111 0
 563 0000 0223     		movs	r3, #2
 564 0002 0370     		strb	r3, [r0]
 112:/Users/imashio/Electronics/ARM/_Library/u8g2_d_memory.c ****   return buf;
 113:/Users/imashio/Electronics/ARM/_Library/u8g2_d_memory.c **** }
 565              		.loc 1 113 0
 566 0004 0048     		ldr	r0, .L54
 567              	.LVL35:
 568 0006 7047     		bx	lr
 569              	.L55:
 570              		.align	2
 571              	.L54:
 572 0008 00000000 		.word	.LANCHOR17
 573              		.cfi_endproc
 574              	.LFE17:
 576              		.section	.text.u8g2_m_32_4_1,"ax",%progbits
 577              		.align	1
 578              		.p2align 2,,3
 579              		.global	u8g2_m_32_4_1
 580              		.syntax unified
 581              		.thumb
 582              		.thumb_func
 583              		.fpu fpv4-sp-d16
 585              	u8g2_m_32_4_1:
 586              	.LFB18:
 114:/Users/imashio/Electronics/ARM/_Library/u8g2_d_memory.c **** uint8_t *u8g2_m_32_4_1(uint8_t *page_cnt)
 115:/Users/imashio/Electronics/ARM/_Library/u8g2_d_memory.c **** {
 587              		.loc 1 115 0
 588              		.cfi_startproc
 589              		@ args = 0, pretend = 0, frame = 0
 590              		@ frame_needed = 0, uses_anonymous_args = 0
 591              		@ link register save eliminated.
 592              	.LVL36:
 116:/Users/imashio/Electronics/ARM/_Library/u8g2_d_memory.c ****   static uint8_t buf[256];
 117:/Users/imashio/Electronics/ARM/_Library/u8g2_d_memory.c ****   *page_cnt = 1;
 593              		.loc 1 117 0
 594 0000 0123     		movs	r3, #1
 595 0002 0370     		strb	r3, [r0]
 118:/Users/imashio/Electronics/ARM/_Library/u8g2_d_memory.c ****   return buf;
 119:/Users/imashio/Electronics/ARM/_Library/u8g2_d_memory.c **** }
 596              		.loc 1 119 0
 597 0004 0048     		ldr	r0, .L57
 598              	.LVL37:
 599 0006 7047     		bx	lr
 600              	.L58:
 601              		.align	2
 602              	.L57:
ARM GAS  /var/folders/v3/wysfpd052nz8jkbx04pk0ym80000gn/T//ccJItEm3.s 			page 13


 603 0008 00000000 		.word	.LANCHOR18
 604              		.cfi_endproc
 605              	.LFE18:
 607              		.section	.text.u8g2_m_32_4_2,"ax",%progbits
 608              		.align	1
 609              		.p2align 2,,3
 610              		.global	u8g2_m_32_4_2
 611              		.syntax unified
 612              		.thumb
 613              		.thumb_func
 614              		.fpu fpv4-sp-d16
 616              	u8g2_m_32_4_2:
 617              	.LFB19:
 120:/Users/imashio/Electronics/ARM/_Library/u8g2_d_memory.c **** uint8_t *u8g2_m_32_4_2(uint8_t *page_cnt)
 121:/Users/imashio/Electronics/ARM/_Library/u8g2_d_memory.c **** {
 618              		.loc 1 121 0
 619              		.cfi_startproc
 620              		@ args = 0, pretend = 0, frame = 0
 621              		@ frame_needed = 0, uses_anonymous_args = 0
 622              		@ link register save eliminated.
 623              	.LVL38:
 122:/Users/imashio/Electronics/ARM/_Library/u8g2_d_memory.c ****   static uint8_t buf[512];
 123:/Users/imashio/Electronics/ARM/_Library/u8g2_d_memory.c ****   *page_cnt = 2;
 624              		.loc 1 123 0
 625 0000 0223     		movs	r3, #2
 626 0002 0370     		strb	r3, [r0]
 124:/Users/imashio/Electronics/ARM/_Library/u8g2_d_memory.c ****   return buf;
 125:/Users/imashio/Electronics/ARM/_Library/u8g2_d_memory.c **** }
 627              		.loc 1 125 0
 628 0004 0048     		ldr	r0, .L60
 629              	.LVL39:
 630 0006 7047     		bx	lr
 631              	.L61:
 632              		.align	2
 633              	.L60:
 634 0008 00000000 		.word	.LANCHOR19
 635              		.cfi_endproc
 636              	.LFE19:
 638              		.section	.text.u8g2_m_32_4_f,"ax",%progbits
 639              		.align	1
 640              		.p2align 2,,3
 641              		.global	u8g2_m_32_4_f
 642              		.syntax unified
 643              		.thumb
 644              		.thumb_func
 645              		.fpu fpv4-sp-d16
 647              	u8g2_m_32_4_f:
 648              	.LFB20:
 126:/Users/imashio/Electronics/ARM/_Library/u8g2_d_memory.c **** uint8_t *u8g2_m_32_4_f(uint8_t *page_cnt)
 127:/Users/imashio/Electronics/ARM/_Library/u8g2_d_memory.c **** {
 649              		.loc 1 127 0
 650              		.cfi_startproc
 651              		@ args = 0, pretend = 0, frame = 0
 652              		@ frame_needed = 0, uses_anonymous_args = 0
 653              		@ link register save eliminated.
 654              	.LVL40:
 128:/Users/imashio/Electronics/ARM/_Library/u8g2_d_memory.c ****   static uint8_t buf[1024];
ARM GAS  /var/folders/v3/wysfpd052nz8jkbx04pk0ym80000gn/T//ccJItEm3.s 			page 14


 129:/Users/imashio/Electronics/ARM/_Library/u8g2_d_memory.c ****   *page_cnt = 4;
 655              		.loc 1 129 0
 656 0000 0423     		movs	r3, #4
 657 0002 0370     		strb	r3, [r0]
 130:/Users/imashio/Electronics/ARM/_Library/u8g2_d_memory.c ****   return buf;
 131:/Users/imashio/Electronics/ARM/_Library/u8g2_d_memory.c **** }
 658              		.loc 1 131 0
 659 0004 0048     		ldr	r0, .L63
 660              	.LVL41:
 661 0006 7047     		bx	lr
 662              	.L64:
 663              		.align	2
 664              	.L63:
 665 0008 00000000 		.word	.LANCHOR20
 666              		.cfi_endproc
 667              	.LFE20:
 669              		.section	.text.u8g2_m_16_16_1,"ax",%progbits
 670              		.align	1
 671              		.p2align 2,,3
 672              		.global	u8g2_m_16_16_1
 673              		.syntax unified
 674              		.thumb
 675              		.thumb_func
 676              		.fpu fpv4-sp-d16
 678              	u8g2_m_16_16_1:
 679              	.LFB21:
 132:/Users/imashio/Electronics/ARM/_Library/u8g2_d_memory.c **** uint8_t *u8g2_m_16_16_1(uint8_t *page_cnt)
 133:/Users/imashio/Electronics/ARM/_Library/u8g2_d_memory.c **** {
 680              		.loc 1 133 0
 681              		.cfi_startproc
 682              		@ args = 0, pretend = 0, frame = 0
 683              		@ frame_needed = 0, uses_anonymous_args = 0
 684              		@ link register save eliminated.
 685              	.LVL42:
 134:/Users/imashio/Electronics/ARM/_Library/u8g2_d_memory.c ****   static uint8_t buf[128];
 135:/Users/imashio/Electronics/ARM/_Library/u8g2_d_memory.c ****   *page_cnt = 1;
 686              		.loc 1 135 0
 687 0000 0123     		movs	r3, #1
 688 0002 0370     		strb	r3, [r0]
 136:/Users/imashio/Electronics/ARM/_Library/u8g2_d_memory.c ****   return buf;
 137:/Users/imashio/Electronics/ARM/_Library/u8g2_d_memory.c **** }
 689              		.loc 1 137 0
 690 0004 0048     		ldr	r0, .L66
 691              	.LVL43:
 692 0006 7047     		bx	lr
 693              	.L67:
 694              		.align	2
 695              	.L66:
 696 0008 00000000 		.word	.LANCHOR21
 697              		.cfi_endproc
 698              	.LFE21:
 700              		.section	.text.u8g2_m_16_16_2,"ax",%progbits
 701              		.align	1
 702              		.p2align 2,,3
 703              		.global	u8g2_m_16_16_2
 704              		.syntax unified
 705              		.thumb
ARM GAS  /var/folders/v3/wysfpd052nz8jkbx04pk0ym80000gn/T//ccJItEm3.s 			page 15


 706              		.thumb_func
 707              		.fpu fpv4-sp-d16
 709              	u8g2_m_16_16_2:
 710              	.LFB22:
 138:/Users/imashio/Electronics/ARM/_Library/u8g2_d_memory.c **** uint8_t *u8g2_m_16_16_2(uint8_t *page_cnt)
 139:/Users/imashio/Electronics/ARM/_Library/u8g2_d_memory.c **** {
 711              		.loc 1 139 0
 712              		.cfi_startproc
 713              		@ args = 0, pretend = 0, frame = 0
 714              		@ frame_needed = 0, uses_anonymous_args = 0
 715              		@ link register save eliminated.
 716              	.LVL44:
 140:/Users/imashio/Electronics/ARM/_Library/u8g2_d_memory.c ****   static uint8_t buf[256];
 141:/Users/imashio/Electronics/ARM/_Library/u8g2_d_memory.c ****   *page_cnt = 2;
 717              		.loc 1 141 0
 718 0000 0223     		movs	r3, #2
 719 0002 0370     		strb	r3, [r0]
 142:/Users/imashio/Electronics/ARM/_Library/u8g2_d_memory.c ****   return buf;
 143:/Users/imashio/Electronics/ARM/_Library/u8g2_d_memory.c **** }
 720              		.loc 1 143 0
 721 0004 0048     		ldr	r0, .L69
 722              	.LVL45:
 723 0006 7047     		bx	lr
 724              	.L70:
 725              		.align	2
 726              	.L69:
 727 0008 00000000 		.word	.LANCHOR22
 728              		.cfi_endproc
 729              	.LFE22:
 731              		.section	.text.u8g2_m_16_16_f,"ax",%progbits
 732              		.align	1
 733              		.p2align 2,,3
 734              		.global	u8g2_m_16_16_f
 735              		.syntax unified
 736              		.thumb
 737              		.thumb_func
 738              		.fpu fpv4-sp-d16
 740              	u8g2_m_16_16_f:
 741              	.LFB23:
 144:/Users/imashio/Electronics/ARM/_Library/u8g2_d_memory.c **** uint8_t *u8g2_m_16_16_f(uint8_t *page_cnt)
 145:/Users/imashio/Electronics/ARM/_Library/u8g2_d_memory.c **** {
 742              		.loc 1 145 0
 743              		.cfi_startproc
 744              		@ args = 0, pretend = 0, frame = 0
 745              		@ frame_needed = 0, uses_anonymous_args = 0
 746              		@ link register save eliminated.
 747              	.LVL46:
 146:/Users/imashio/Electronics/ARM/_Library/u8g2_d_memory.c ****   static uint8_t buf[2048];
 147:/Users/imashio/Electronics/ARM/_Library/u8g2_d_memory.c ****   *page_cnt = 16;
 748              		.loc 1 147 0
 749 0000 1023     		movs	r3, #16
 750 0002 0370     		strb	r3, [r0]
 148:/Users/imashio/Electronics/ARM/_Library/u8g2_d_memory.c ****   return buf;
 149:/Users/imashio/Electronics/ARM/_Library/u8g2_d_memory.c **** }
 751              		.loc 1 149 0
 752 0004 0048     		ldr	r0, .L72
 753              	.LVL47:
ARM GAS  /var/folders/v3/wysfpd052nz8jkbx04pk0ym80000gn/T//ccJItEm3.s 			page 16


 754 0006 7047     		bx	lr
 755              	.L73:
 756              		.align	2
 757              	.L72:
 758 0008 00000000 		.word	.LANCHOR23
 759              		.cfi_endproc
 760              	.LFE23:
 762              		.section	.text.u8g2_m_16_12_1,"ax",%progbits
 763              		.align	1
 764              		.p2align 2,,3
 765              		.global	u8g2_m_16_12_1
 766              		.syntax unified
 767              		.thumb
 768              		.thumb_func
 769              		.fpu fpv4-sp-d16
 771              	u8g2_m_16_12_1:
 772              	.LFB24:
 150:/Users/imashio/Electronics/ARM/_Library/u8g2_d_memory.c **** uint8_t *u8g2_m_16_12_1(uint8_t *page_cnt)
 151:/Users/imashio/Electronics/ARM/_Library/u8g2_d_memory.c **** {
 773              		.loc 1 151 0
 774              		.cfi_startproc
 775              		@ args = 0, pretend = 0, frame = 0
 776              		@ frame_needed = 0, uses_anonymous_args = 0
 777              		@ link register save eliminated.
 778              	.LVL48:
 152:/Users/imashio/Electronics/ARM/_Library/u8g2_d_memory.c ****   static uint8_t buf[128];
 153:/Users/imashio/Electronics/ARM/_Library/u8g2_d_memory.c ****   *page_cnt = 1;
 779              		.loc 1 153 0
 780 0000 0123     		movs	r3, #1
 781 0002 0370     		strb	r3, [r0]
 154:/Users/imashio/Electronics/ARM/_Library/u8g2_d_memory.c ****   return buf;
 155:/Users/imashio/Electronics/ARM/_Library/u8g2_d_memory.c **** }
 782              		.loc 1 155 0
 783 0004 0048     		ldr	r0, .L75
 784              	.LVL49:
 785 0006 7047     		bx	lr
 786              	.L76:
 787              		.align	2
 788              	.L75:
 789 0008 00000000 		.word	.LANCHOR24
 790              		.cfi_endproc
 791              	.LFE24:
 793              		.section	.text.u8g2_m_16_12_2,"ax",%progbits
 794              		.align	1
 795              		.p2align 2,,3
 796              		.global	u8g2_m_16_12_2
 797              		.syntax unified
 798              		.thumb
 799              		.thumb_func
 800              		.fpu fpv4-sp-d16
 802              	u8g2_m_16_12_2:
 803              	.LFB25:
 156:/Users/imashio/Electronics/ARM/_Library/u8g2_d_memory.c **** uint8_t *u8g2_m_16_12_2(uint8_t *page_cnt)
 157:/Users/imashio/Electronics/ARM/_Library/u8g2_d_memory.c **** {
 804              		.loc 1 157 0
 805              		.cfi_startproc
 806              		@ args = 0, pretend = 0, frame = 0
ARM GAS  /var/folders/v3/wysfpd052nz8jkbx04pk0ym80000gn/T//ccJItEm3.s 			page 17


 807              		@ frame_needed = 0, uses_anonymous_args = 0
 808              		@ link register save eliminated.
 809              	.LVL50:
 158:/Users/imashio/Electronics/ARM/_Library/u8g2_d_memory.c ****   static uint8_t buf[256];
 159:/Users/imashio/Electronics/ARM/_Library/u8g2_d_memory.c ****   *page_cnt = 2;
 810              		.loc 1 159 0
 811 0000 0223     		movs	r3, #2
 812 0002 0370     		strb	r3, [r0]
 160:/Users/imashio/Electronics/ARM/_Library/u8g2_d_memory.c ****   return buf;
 161:/Users/imashio/Electronics/ARM/_Library/u8g2_d_memory.c **** }
 813              		.loc 1 161 0
 814 0004 0048     		ldr	r0, .L78
 815              	.LVL51:
 816 0006 7047     		bx	lr
 817              	.L79:
 818              		.align	2
 819              	.L78:
 820 0008 00000000 		.word	.LANCHOR25
 821              		.cfi_endproc
 822              	.LFE25:
 824              		.section	.text.u8g2_m_16_12_f,"ax",%progbits
 825              		.align	1
 826              		.p2align 2,,3
 827              		.global	u8g2_m_16_12_f
 828              		.syntax unified
 829              		.thumb
 830              		.thumb_func
 831              		.fpu fpv4-sp-d16
 833              	u8g2_m_16_12_f:
 834              	.LFB26:
 162:/Users/imashio/Electronics/ARM/_Library/u8g2_d_memory.c **** uint8_t *u8g2_m_16_12_f(uint8_t *page_cnt)
 163:/Users/imashio/Electronics/ARM/_Library/u8g2_d_memory.c **** {
 835              		.loc 1 163 0
 836              		.cfi_startproc
 837              		@ args = 0, pretend = 0, frame = 0
 838              		@ frame_needed = 0, uses_anonymous_args = 0
 839              		@ link register save eliminated.
 840              	.LVL52:
 164:/Users/imashio/Electronics/ARM/_Library/u8g2_d_memory.c ****   static uint8_t buf[1536];
 165:/Users/imashio/Electronics/ARM/_Library/u8g2_d_memory.c ****   *page_cnt = 12;
 841              		.loc 1 165 0
 842 0000 0C23     		movs	r3, #12
 843 0002 0370     		strb	r3, [r0]
 166:/Users/imashio/Electronics/ARM/_Library/u8g2_d_memory.c ****   return buf;
 167:/Users/imashio/Electronics/ARM/_Library/u8g2_d_memory.c **** }
 844              		.loc 1 167 0
 845 0004 0048     		ldr	r0, .L81
 846              	.LVL53:
 847 0006 7047     		bx	lr
 848              	.L82:
 849              		.align	2
 850              	.L81:
 851 0008 00000000 		.word	.LANCHOR26
 852              		.cfi_endproc
 853              	.LFE26:
 855              		.section	.text.u8g2_m_24_4_1,"ax",%progbits
 856              		.align	1
ARM GAS  /var/folders/v3/wysfpd052nz8jkbx04pk0ym80000gn/T//ccJItEm3.s 			page 18


 857              		.p2align 2,,3
 858              		.global	u8g2_m_24_4_1
 859              		.syntax unified
 860              		.thumb
 861              		.thumb_func
 862              		.fpu fpv4-sp-d16
 864              	u8g2_m_24_4_1:
 865              	.LFB27:
 168:/Users/imashio/Electronics/ARM/_Library/u8g2_d_memory.c **** uint8_t *u8g2_m_24_4_1(uint8_t *page_cnt)
 169:/Users/imashio/Electronics/ARM/_Library/u8g2_d_memory.c **** {
 866              		.loc 1 169 0
 867              		.cfi_startproc
 868              		@ args = 0, pretend = 0, frame = 0
 869              		@ frame_needed = 0, uses_anonymous_args = 0
 870              		@ link register save eliminated.
 871              	.LVL54:
 170:/Users/imashio/Electronics/ARM/_Library/u8g2_d_memory.c ****   static uint8_t buf[192];
 171:/Users/imashio/Electronics/ARM/_Library/u8g2_d_memory.c ****   *page_cnt = 1;
 872              		.loc 1 171 0
 873 0000 0123     		movs	r3, #1
 874 0002 0370     		strb	r3, [r0]
 172:/Users/imashio/Electronics/ARM/_Library/u8g2_d_memory.c ****   return buf;
 173:/Users/imashio/Electronics/ARM/_Library/u8g2_d_memory.c **** }
 875              		.loc 1 173 0
 876 0004 0048     		ldr	r0, .L84
 877              	.LVL55:
 878 0006 7047     		bx	lr
 879              	.L85:
 880              		.align	2
 881              	.L84:
 882 0008 00000000 		.word	.LANCHOR27
 883              		.cfi_endproc
 884              	.LFE27:
 886              		.section	.text.u8g2_m_24_4_2,"ax",%progbits
 887              		.align	1
 888              		.p2align 2,,3
 889              		.global	u8g2_m_24_4_2
 890              		.syntax unified
 891              		.thumb
 892              		.thumb_func
 893              		.fpu fpv4-sp-d16
 895              	u8g2_m_24_4_2:
 896              	.LFB28:
 174:/Users/imashio/Electronics/ARM/_Library/u8g2_d_memory.c **** uint8_t *u8g2_m_24_4_2(uint8_t *page_cnt)
 175:/Users/imashio/Electronics/ARM/_Library/u8g2_d_memory.c **** {
 897              		.loc 1 175 0
 898              		.cfi_startproc
 899              		@ args = 0, pretend = 0, frame = 0
 900              		@ frame_needed = 0, uses_anonymous_args = 0
 901              		@ link register save eliminated.
 902              	.LVL56:
 176:/Users/imashio/Electronics/ARM/_Library/u8g2_d_memory.c ****   static uint8_t buf[384];
 177:/Users/imashio/Electronics/ARM/_Library/u8g2_d_memory.c ****   *page_cnt = 2;
 903              		.loc 1 177 0
 904 0000 0223     		movs	r3, #2
 905 0002 0370     		strb	r3, [r0]
 178:/Users/imashio/Electronics/ARM/_Library/u8g2_d_memory.c ****   return buf;
ARM GAS  /var/folders/v3/wysfpd052nz8jkbx04pk0ym80000gn/T//ccJItEm3.s 			page 19


 179:/Users/imashio/Electronics/ARM/_Library/u8g2_d_memory.c **** }
 906              		.loc 1 179 0
 907 0004 0048     		ldr	r0, .L87
 908              	.LVL57:
 909 0006 7047     		bx	lr
 910              	.L88:
 911              		.align	2
 912              	.L87:
 913 0008 00000000 		.word	.LANCHOR28
 914              		.cfi_endproc
 915              	.LFE28:
 917              		.section	.text.u8g2_m_24_4_f,"ax",%progbits
 918              		.align	1
 919              		.p2align 2,,3
 920              		.global	u8g2_m_24_4_f
 921              		.syntax unified
 922              		.thumb
 923              		.thumb_func
 924              		.fpu fpv4-sp-d16
 926              	u8g2_m_24_4_f:
 927              	.LFB29:
 180:/Users/imashio/Electronics/ARM/_Library/u8g2_d_memory.c **** uint8_t *u8g2_m_24_4_f(uint8_t *page_cnt)
 181:/Users/imashio/Electronics/ARM/_Library/u8g2_d_memory.c **** {
 928              		.loc 1 181 0
 929              		.cfi_startproc
 930              		@ args = 0, pretend = 0, frame = 0
 931              		@ frame_needed = 0, uses_anonymous_args = 0
 932              		@ link register save eliminated.
 933              	.LVL58:
 182:/Users/imashio/Electronics/ARM/_Library/u8g2_d_memory.c ****   static uint8_t buf[768];
 183:/Users/imashio/Electronics/ARM/_Library/u8g2_d_memory.c ****   *page_cnt = 4;
 934              		.loc 1 183 0
 935 0000 0423     		movs	r3, #4
 936 0002 0370     		strb	r3, [r0]
 184:/Users/imashio/Electronics/ARM/_Library/u8g2_d_memory.c ****   return buf;
 185:/Users/imashio/Electronics/ARM/_Library/u8g2_d_memory.c **** }
 937              		.loc 1 185 0
 938 0004 0048     		ldr	r0, .L90
 939              	.LVL59:
 940 0006 7047     		bx	lr
 941              	.L91:
 942              		.align	2
 943              	.L90:
 944 0008 00000000 		.word	.LANCHOR29
 945              		.cfi_endproc
 946              	.LFE29:
 948              		.section	.text.u8g2_m_13_8_1,"ax",%progbits
 949              		.align	1
 950              		.p2align 2,,3
 951              		.global	u8g2_m_13_8_1
 952              		.syntax unified
 953              		.thumb
 954              		.thumb_func
 955              		.fpu fpv4-sp-d16
 957              	u8g2_m_13_8_1:
 958              	.LFB30:
 186:/Users/imashio/Electronics/ARM/_Library/u8g2_d_memory.c **** uint8_t *u8g2_m_13_8_1(uint8_t *page_cnt)
ARM GAS  /var/folders/v3/wysfpd052nz8jkbx04pk0ym80000gn/T//ccJItEm3.s 			page 20


 187:/Users/imashio/Electronics/ARM/_Library/u8g2_d_memory.c **** {
 959              		.loc 1 187 0
 960              		.cfi_startproc
 961              		@ args = 0, pretend = 0, frame = 0
 962              		@ frame_needed = 0, uses_anonymous_args = 0
 963              		@ link register save eliminated.
 964              	.LVL60:
 188:/Users/imashio/Electronics/ARM/_Library/u8g2_d_memory.c ****   static uint8_t buf[104];
 189:/Users/imashio/Electronics/ARM/_Library/u8g2_d_memory.c ****   *page_cnt = 1;
 965              		.loc 1 189 0
 966 0000 0123     		movs	r3, #1
 967 0002 0370     		strb	r3, [r0]
 190:/Users/imashio/Electronics/ARM/_Library/u8g2_d_memory.c ****   return buf;
 191:/Users/imashio/Electronics/ARM/_Library/u8g2_d_memory.c **** }
 968              		.loc 1 191 0
 969 0004 0048     		ldr	r0, .L93
 970              	.LVL61:
 971 0006 7047     		bx	lr
 972              	.L94:
 973              		.align	2
 974              	.L93:
 975 0008 00000000 		.word	.LANCHOR30
 976              		.cfi_endproc
 977              	.LFE30:
 979              		.section	.text.u8g2_m_13_8_2,"ax",%progbits
 980              		.align	1
 981              		.p2align 2,,3
 982              		.global	u8g2_m_13_8_2
 983              		.syntax unified
 984              		.thumb
 985              		.thumb_func
 986              		.fpu fpv4-sp-d16
 988              	u8g2_m_13_8_2:
 989              	.LFB31:
 192:/Users/imashio/Electronics/ARM/_Library/u8g2_d_memory.c **** uint8_t *u8g2_m_13_8_2(uint8_t *page_cnt)
 193:/Users/imashio/Electronics/ARM/_Library/u8g2_d_memory.c **** {
 990              		.loc 1 193 0
 991              		.cfi_startproc
 992              		@ args = 0, pretend = 0, frame = 0
 993              		@ frame_needed = 0, uses_anonymous_args = 0
 994              		@ link register save eliminated.
 995              	.LVL62:
 194:/Users/imashio/Electronics/ARM/_Library/u8g2_d_memory.c ****   static uint8_t buf[208];
 195:/Users/imashio/Electronics/ARM/_Library/u8g2_d_memory.c ****   *page_cnt = 2;
 996              		.loc 1 195 0
 997 0000 0223     		movs	r3, #2
 998 0002 0370     		strb	r3, [r0]
 196:/Users/imashio/Electronics/ARM/_Library/u8g2_d_memory.c ****   return buf;
 197:/Users/imashio/Electronics/ARM/_Library/u8g2_d_memory.c **** }
 999              		.loc 1 197 0
 1000 0004 0048     		ldr	r0, .L96
 1001              	.LVL63:
 1002 0006 7047     		bx	lr
 1003              	.L97:
 1004              		.align	2
 1005              	.L96:
 1006 0008 00000000 		.word	.LANCHOR31
ARM GAS  /var/folders/v3/wysfpd052nz8jkbx04pk0ym80000gn/T//ccJItEm3.s 			page 21


 1007              		.cfi_endproc
 1008              	.LFE31:
 1010              		.section	.text.u8g2_m_13_8_f,"ax",%progbits
 1011              		.align	1
 1012              		.p2align 2,,3
 1013              		.global	u8g2_m_13_8_f
 1014              		.syntax unified
 1015              		.thumb
 1016              		.thumb_func
 1017              		.fpu fpv4-sp-d16
 1019              	u8g2_m_13_8_f:
 1020              	.LFB32:
 198:/Users/imashio/Electronics/ARM/_Library/u8g2_d_memory.c **** uint8_t *u8g2_m_13_8_f(uint8_t *page_cnt)
 199:/Users/imashio/Electronics/ARM/_Library/u8g2_d_memory.c **** {
 1021              		.loc 1 199 0
 1022              		.cfi_startproc
 1023              		@ args = 0, pretend = 0, frame = 0
 1024              		@ frame_needed = 0, uses_anonymous_args = 0
 1025              		@ link register save eliminated.
 1026              	.LVL64:
 200:/Users/imashio/Electronics/ARM/_Library/u8g2_d_memory.c ****   static uint8_t buf[832];
 201:/Users/imashio/Electronics/ARM/_Library/u8g2_d_memory.c ****   *page_cnt = 8;
 1027              		.loc 1 201 0
 1028 0000 0823     		movs	r3, #8
 1029 0002 0370     		strb	r3, [r0]
 202:/Users/imashio/Electronics/ARM/_Library/u8g2_d_memory.c ****   return buf;
 203:/Users/imashio/Electronics/ARM/_Library/u8g2_d_memory.c **** }
 1030              		.loc 1 203 0
 1031 0004 0048     		ldr	r0, .L99
 1032              	.LVL65:
 1033 0006 7047     		bx	lr
 1034              	.L100:
 1035              		.align	2
 1036              	.L99:
 1037 0008 00000000 		.word	.LANCHOR32
 1038              		.cfi_endproc
 1039              	.LFE32:
 1041              		.section	.text.u8g2_m_11_6_1,"ax",%progbits
 1042              		.align	1
 1043              		.p2align 2,,3
 1044              		.global	u8g2_m_11_6_1
 1045              		.syntax unified
 1046              		.thumb
 1047              		.thumb_func
 1048              		.fpu fpv4-sp-d16
 1050              	u8g2_m_11_6_1:
 1051              	.LFB33:
 204:/Users/imashio/Electronics/ARM/_Library/u8g2_d_memory.c **** uint8_t *u8g2_m_11_6_1(uint8_t *page_cnt)
 205:/Users/imashio/Electronics/ARM/_Library/u8g2_d_memory.c **** {
 1052              		.loc 1 205 0
 1053              		.cfi_startproc
 1054              		@ args = 0, pretend = 0, frame = 0
 1055              		@ frame_needed = 0, uses_anonymous_args = 0
 1056              		@ link register save eliminated.
 1057              	.LVL66:
 206:/Users/imashio/Electronics/ARM/_Library/u8g2_d_memory.c ****   static uint8_t buf[88];
 207:/Users/imashio/Electronics/ARM/_Library/u8g2_d_memory.c ****   *page_cnt = 1;
ARM GAS  /var/folders/v3/wysfpd052nz8jkbx04pk0ym80000gn/T//ccJItEm3.s 			page 22


 1058              		.loc 1 207 0
 1059 0000 0123     		movs	r3, #1
 1060 0002 0370     		strb	r3, [r0]
 208:/Users/imashio/Electronics/ARM/_Library/u8g2_d_memory.c ****   return buf;
 209:/Users/imashio/Electronics/ARM/_Library/u8g2_d_memory.c **** }
 1061              		.loc 1 209 0
 1062 0004 0048     		ldr	r0, .L102
 1063              	.LVL67:
 1064 0006 7047     		bx	lr
 1065              	.L103:
 1066              		.align	2
 1067              	.L102:
 1068 0008 00000000 		.word	.LANCHOR33
 1069              		.cfi_endproc
 1070              	.LFE33:
 1072              		.section	.text.u8g2_m_11_6_2,"ax",%progbits
 1073              		.align	1
 1074              		.p2align 2,,3
 1075              		.global	u8g2_m_11_6_2
 1076              		.syntax unified
 1077              		.thumb
 1078              		.thumb_func
 1079              		.fpu fpv4-sp-d16
 1081              	u8g2_m_11_6_2:
 1082              	.LFB34:
 210:/Users/imashio/Electronics/ARM/_Library/u8g2_d_memory.c **** uint8_t *u8g2_m_11_6_2(uint8_t *page_cnt)
 211:/Users/imashio/Electronics/ARM/_Library/u8g2_d_memory.c **** {
 1083              		.loc 1 211 0
 1084              		.cfi_startproc
 1085              		@ args = 0, pretend = 0, frame = 0
 1086              		@ frame_needed = 0, uses_anonymous_args = 0
 1087              		@ link register save eliminated.
 1088              	.LVL68:
 212:/Users/imashio/Electronics/ARM/_Library/u8g2_d_memory.c ****   static uint8_t buf[176];
 213:/Users/imashio/Electronics/ARM/_Library/u8g2_d_memory.c ****   *page_cnt = 2;
 1089              		.loc 1 213 0
 1090 0000 0223     		movs	r3, #2
 1091 0002 0370     		strb	r3, [r0]
 214:/Users/imashio/Electronics/ARM/_Library/u8g2_d_memory.c ****   return buf;
 215:/Users/imashio/Electronics/ARM/_Library/u8g2_d_memory.c **** }
 1092              		.loc 1 215 0
 1093 0004 0048     		ldr	r0, .L105
 1094              	.LVL69:
 1095 0006 7047     		bx	lr
 1096              	.L106:
 1097              		.align	2
 1098              	.L105:
 1099 0008 00000000 		.word	.LANCHOR34
 1100              		.cfi_endproc
 1101              	.LFE34:
 1103              		.section	.text.u8g2_m_11_6_f,"ax",%progbits
 1104              		.align	1
 1105              		.p2align 2,,3
 1106              		.global	u8g2_m_11_6_f
 1107              		.syntax unified
 1108              		.thumb
 1109              		.thumb_func
ARM GAS  /var/folders/v3/wysfpd052nz8jkbx04pk0ym80000gn/T//ccJItEm3.s 			page 23


 1110              		.fpu fpv4-sp-d16
 1112              	u8g2_m_11_6_f:
 1113              	.LFB35:
 216:/Users/imashio/Electronics/ARM/_Library/u8g2_d_memory.c **** uint8_t *u8g2_m_11_6_f(uint8_t *page_cnt)
 217:/Users/imashio/Electronics/ARM/_Library/u8g2_d_memory.c **** {
 1114              		.loc 1 217 0
 1115              		.cfi_startproc
 1116              		@ args = 0, pretend = 0, frame = 0
 1117              		@ frame_needed = 0, uses_anonymous_args = 0
 1118              		@ link register save eliminated.
 1119              	.LVL70:
 218:/Users/imashio/Electronics/ARM/_Library/u8g2_d_memory.c ****   static uint8_t buf[528];
 219:/Users/imashio/Electronics/ARM/_Library/u8g2_d_memory.c ****   *page_cnt = 6;
 1120              		.loc 1 219 0
 1121 0000 0623     		movs	r3, #6
 1122 0002 0370     		strb	r3, [r0]
 220:/Users/imashio/Electronics/ARM/_Library/u8g2_d_memory.c ****   return buf;
 221:/Users/imashio/Electronics/ARM/_Library/u8g2_d_memory.c **** }
 1123              		.loc 1 221 0
 1124 0004 0048     		ldr	r0, .L108
 1125              	.LVL71:
 1126 0006 7047     		bx	lr
 1127              	.L109:
 1128              		.align	2
 1129              	.L108:
 1130 0008 00000000 		.word	.LANCHOR35
 1131              		.cfi_endproc
 1132              	.LFE35:
 1134              		.section	.text.u8g2_m_12_9_1,"ax",%progbits
 1135              		.align	1
 1136              		.p2align 2,,3
 1137              		.global	u8g2_m_12_9_1
 1138              		.syntax unified
 1139              		.thumb
 1140              		.thumb_func
 1141              		.fpu fpv4-sp-d16
 1143              	u8g2_m_12_9_1:
 1144              	.LFB36:
 222:/Users/imashio/Electronics/ARM/_Library/u8g2_d_memory.c **** uint8_t *u8g2_m_12_9_1(uint8_t *page_cnt)
 223:/Users/imashio/Electronics/ARM/_Library/u8g2_d_memory.c **** {
 1145              		.loc 1 223 0
 1146              		.cfi_startproc
 1147              		@ args = 0, pretend = 0, frame = 0
 1148              		@ frame_needed = 0, uses_anonymous_args = 0
 1149              		@ link register save eliminated.
 1150              	.LVL72:
 224:/Users/imashio/Electronics/ARM/_Library/u8g2_d_memory.c ****   static uint8_t buf[96];
 225:/Users/imashio/Electronics/ARM/_Library/u8g2_d_memory.c ****   *page_cnt = 1;
 1151              		.loc 1 225 0
 1152 0000 0123     		movs	r3, #1
 1153 0002 0370     		strb	r3, [r0]
 226:/Users/imashio/Electronics/ARM/_Library/u8g2_d_memory.c ****   return buf;
 227:/Users/imashio/Electronics/ARM/_Library/u8g2_d_memory.c **** }
 1154              		.loc 1 227 0
 1155 0004 0048     		ldr	r0, .L111
 1156              	.LVL73:
 1157 0006 7047     		bx	lr
ARM GAS  /var/folders/v3/wysfpd052nz8jkbx04pk0ym80000gn/T//ccJItEm3.s 			page 24


 1158              	.L112:
 1159              		.align	2
 1160              	.L111:
 1161 0008 00000000 		.word	.LANCHOR36
 1162              		.cfi_endproc
 1163              	.LFE36:
 1165              		.section	.text.u8g2_m_12_9_2,"ax",%progbits
 1166              		.align	1
 1167              		.p2align 2,,3
 1168              		.global	u8g2_m_12_9_2
 1169              		.syntax unified
 1170              		.thumb
 1171              		.thumb_func
 1172              		.fpu fpv4-sp-d16
 1174              	u8g2_m_12_9_2:
 1175              	.LFB37:
 228:/Users/imashio/Electronics/ARM/_Library/u8g2_d_memory.c **** uint8_t *u8g2_m_12_9_2(uint8_t *page_cnt)
 229:/Users/imashio/Electronics/ARM/_Library/u8g2_d_memory.c **** {
 1176              		.loc 1 229 0
 1177              		.cfi_startproc
 1178              		@ args = 0, pretend = 0, frame = 0
 1179              		@ frame_needed = 0, uses_anonymous_args = 0
 1180              		@ link register save eliminated.
 1181              	.LVL74:
 230:/Users/imashio/Electronics/ARM/_Library/u8g2_d_memory.c ****   static uint8_t buf[192];
 231:/Users/imashio/Electronics/ARM/_Library/u8g2_d_memory.c ****   *page_cnt = 2;
 1182              		.loc 1 231 0
 1183 0000 0223     		movs	r3, #2
 1184 0002 0370     		strb	r3, [r0]
 232:/Users/imashio/Electronics/ARM/_Library/u8g2_d_memory.c ****   return buf;
 233:/Users/imashio/Electronics/ARM/_Library/u8g2_d_memory.c **** }
 1185              		.loc 1 233 0
 1186 0004 0048     		ldr	r0, .L114
 1187              	.LVL75:
 1188 0006 7047     		bx	lr
 1189              	.L115:
 1190              		.align	2
 1191              	.L114:
 1192 0008 00000000 		.word	.LANCHOR37
 1193              		.cfi_endproc
 1194              	.LFE37:
 1196              		.section	.text.u8g2_m_12_9_f,"ax",%progbits
 1197              		.align	1
 1198              		.p2align 2,,3
 1199              		.global	u8g2_m_12_9_f
 1200              		.syntax unified
 1201              		.thumb
 1202              		.thumb_func
 1203              		.fpu fpv4-sp-d16
 1205              	u8g2_m_12_9_f:
 1206              	.LFB38:
 234:/Users/imashio/Electronics/ARM/_Library/u8g2_d_memory.c **** uint8_t *u8g2_m_12_9_f(uint8_t *page_cnt)
 235:/Users/imashio/Electronics/ARM/_Library/u8g2_d_memory.c **** {
 1207              		.loc 1 235 0
 1208              		.cfi_startproc
 1209              		@ args = 0, pretend = 0, frame = 0
 1210              		@ frame_needed = 0, uses_anonymous_args = 0
ARM GAS  /var/folders/v3/wysfpd052nz8jkbx04pk0ym80000gn/T//ccJItEm3.s 			page 25


 1211              		@ link register save eliminated.
 1212              	.LVL76:
 236:/Users/imashio/Electronics/ARM/_Library/u8g2_d_memory.c ****   static uint8_t buf[864];
 237:/Users/imashio/Electronics/ARM/_Library/u8g2_d_memory.c ****   *page_cnt = 9;
 1213              		.loc 1 237 0
 1214 0000 0923     		movs	r3, #9
 1215 0002 0370     		strb	r3, [r0]
 238:/Users/imashio/Electronics/ARM/_Library/u8g2_d_memory.c ****   return buf;
 239:/Users/imashio/Electronics/ARM/_Library/u8g2_d_memory.c **** }
 1216              		.loc 1 239 0
 1217 0004 0048     		ldr	r0, .L117
 1218              	.LVL77:
 1219 0006 7047     		bx	lr
 1220              	.L118:
 1221              		.align	2
 1222              	.L117:
 1223 0008 00000000 		.word	.LANCHOR38
 1224              		.cfi_endproc
 1225              	.LFE38:
 1227              		.section	.text.u8g2_m_24_8_1,"ax",%progbits
 1228              		.align	1
 1229              		.p2align 2,,3
 1230              		.global	u8g2_m_24_8_1
 1231              		.syntax unified
 1232              		.thumb
 1233              		.thumb_func
 1234              		.fpu fpv4-sp-d16
 1236              	u8g2_m_24_8_1:
 1237              	.LFB39:
 240:/Users/imashio/Electronics/ARM/_Library/u8g2_d_memory.c **** uint8_t *u8g2_m_24_8_1(uint8_t *page_cnt)
 241:/Users/imashio/Electronics/ARM/_Library/u8g2_d_memory.c **** {
 1238              		.loc 1 241 0
 1239              		.cfi_startproc
 1240              		@ args = 0, pretend = 0, frame = 0
 1241              		@ frame_needed = 0, uses_anonymous_args = 0
 1242              		@ link register save eliminated.
 1243              	.LVL78:
 242:/Users/imashio/Electronics/ARM/_Library/u8g2_d_memory.c ****   static uint8_t buf[192];
 243:/Users/imashio/Electronics/ARM/_Library/u8g2_d_memory.c ****   *page_cnt = 1;
 1244              		.loc 1 243 0
 1245 0000 0123     		movs	r3, #1
 1246 0002 0370     		strb	r3, [r0]
 244:/Users/imashio/Electronics/ARM/_Library/u8g2_d_memory.c ****   return buf;
 245:/Users/imashio/Electronics/ARM/_Library/u8g2_d_memory.c **** }
 1247              		.loc 1 245 0
 1248 0004 0048     		ldr	r0, .L120
 1249              	.LVL79:
 1250 0006 7047     		bx	lr
 1251              	.L121:
 1252              		.align	2
 1253              	.L120:
 1254 0008 00000000 		.word	.LANCHOR39
 1255              		.cfi_endproc
 1256              	.LFE39:
 1258              		.section	.text.u8g2_m_24_8_2,"ax",%progbits
 1259              		.align	1
 1260              		.p2align 2,,3
ARM GAS  /var/folders/v3/wysfpd052nz8jkbx04pk0ym80000gn/T//ccJItEm3.s 			page 26


 1261              		.global	u8g2_m_24_8_2
 1262              		.syntax unified
 1263              		.thumb
 1264              		.thumb_func
 1265              		.fpu fpv4-sp-d16
 1267              	u8g2_m_24_8_2:
 1268              	.LFB40:
 246:/Users/imashio/Electronics/ARM/_Library/u8g2_d_memory.c **** uint8_t *u8g2_m_24_8_2(uint8_t *page_cnt)
 247:/Users/imashio/Electronics/ARM/_Library/u8g2_d_memory.c **** {
 1269              		.loc 1 247 0
 1270              		.cfi_startproc
 1271              		@ args = 0, pretend = 0, frame = 0
 1272              		@ frame_needed = 0, uses_anonymous_args = 0
 1273              		@ link register save eliminated.
 1274              	.LVL80:
 248:/Users/imashio/Electronics/ARM/_Library/u8g2_d_memory.c ****   static uint8_t buf[384];
 249:/Users/imashio/Electronics/ARM/_Library/u8g2_d_memory.c ****   *page_cnt = 2;
 1275              		.loc 1 249 0
 1276 0000 0223     		movs	r3, #2
 1277 0002 0370     		strb	r3, [r0]
 250:/Users/imashio/Electronics/ARM/_Library/u8g2_d_memory.c ****   return buf;
 251:/Users/imashio/Electronics/ARM/_Library/u8g2_d_memory.c **** }
 1278              		.loc 1 251 0
 1279 0004 0048     		ldr	r0, .L123
 1280              	.LVL81:
 1281 0006 7047     		bx	lr
 1282              	.L124:
 1283              		.align	2
 1284              	.L123:
 1285 0008 00000000 		.word	.LANCHOR40
 1286              		.cfi_endproc
 1287              	.LFE40:
 1289              		.section	.text.u8g2_m_24_8_f,"ax",%progbits
 1290              		.align	1
 1291              		.p2align 2,,3
 1292              		.global	u8g2_m_24_8_f
 1293              		.syntax unified
 1294              		.thumb
 1295              		.thumb_func
 1296              		.fpu fpv4-sp-d16
 1298              	u8g2_m_24_8_f:
 1299              	.LFB41:
 252:/Users/imashio/Electronics/ARM/_Library/u8g2_d_memory.c **** uint8_t *u8g2_m_24_8_f(uint8_t *page_cnt)
 253:/Users/imashio/Electronics/ARM/_Library/u8g2_d_memory.c **** {
 1300              		.loc 1 253 0
 1301              		.cfi_startproc
 1302              		@ args = 0, pretend = 0, frame = 0
 1303              		@ frame_needed = 0, uses_anonymous_args = 0
 1304              		@ link register save eliminated.
 1305              	.LVL82:
 254:/Users/imashio/Electronics/ARM/_Library/u8g2_d_memory.c ****   static uint8_t buf[1536];
 255:/Users/imashio/Electronics/ARM/_Library/u8g2_d_memory.c ****   *page_cnt = 8;
 1306              		.loc 1 255 0
 1307 0000 0823     		movs	r3, #8
 1308 0002 0370     		strb	r3, [r0]
 256:/Users/imashio/Electronics/ARM/_Library/u8g2_d_memory.c ****   return buf;
 257:/Users/imashio/Electronics/ARM/_Library/u8g2_d_memory.c **** }
ARM GAS  /var/folders/v3/wysfpd052nz8jkbx04pk0ym80000gn/T//ccJItEm3.s 			page 27


 1309              		.loc 1 257 0
 1310 0004 0048     		ldr	r0, .L126
 1311              	.LVL83:
 1312 0006 7047     		bx	lr
 1313              	.L127:
 1314              		.align	2
 1315              	.L126:
 1316 0008 00000000 		.word	.LANCHOR41
 1317              		.cfi_endproc
 1318              	.LFE41:
 1320              		.section	.text.u8g2_m_30_8_1,"ax",%progbits
 1321              		.align	1
 1322              		.p2align 2,,3
 1323              		.global	u8g2_m_30_8_1
 1324              		.syntax unified
 1325              		.thumb
 1326              		.thumb_func
 1327              		.fpu fpv4-sp-d16
 1329              	u8g2_m_30_8_1:
 1330              	.LFB42:
 258:/Users/imashio/Electronics/ARM/_Library/u8g2_d_memory.c **** uint8_t *u8g2_m_30_8_1(uint8_t *page_cnt)
 259:/Users/imashio/Electronics/ARM/_Library/u8g2_d_memory.c **** {
 1331              		.loc 1 259 0
 1332              		.cfi_startproc
 1333              		@ args = 0, pretend = 0, frame = 0
 1334              		@ frame_needed = 0, uses_anonymous_args = 0
 1335              		@ link register save eliminated.
 1336              	.LVL84:
 260:/Users/imashio/Electronics/ARM/_Library/u8g2_d_memory.c ****   static uint8_t buf[240];
 261:/Users/imashio/Electronics/ARM/_Library/u8g2_d_memory.c ****   *page_cnt = 1;
 1337              		.loc 1 261 0
 1338 0000 0123     		movs	r3, #1
 1339 0002 0370     		strb	r3, [r0]
 262:/Users/imashio/Electronics/ARM/_Library/u8g2_d_memory.c ****   return buf;
 263:/Users/imashio/Electronics/ARM/_Library/u8g2_d_memory.c **** }
 1340              		.loc 1 263 0
 1341 0004 0048     		ldr	r0, .L129
 1342              	.LVL85:
 1343 0006 7047     		bx	lr
 1344              	.L130:
 1345              		.align	2
 1346              	.L129:
 1347 0008 00000000 		.word	.LANCHOR42
 1348              		.cfi_endproc
 1349              	.LFE42:
 1351              		.section	.text.u8g2_m_30_8_2,"ax",%progbits
 1352              		.align	1
 1353              		.p2align 2,,3
 1354              		.global	u8g2_m_30_8_2
 1355              		.syntax unified
 1356              		.thumb
 1357              		.thumb_func
 1358              		.fpu fpv4-sp-d16
 1360              	u8g2_m_30_8_2:
 1361              	.LFB43:
 264:/Users/imashio/Electronics/ARM/_Library/u8g2_d_memory.c **** uint8_t *u8g2_m_30_8_2(uint8_t *page_cnt)
 265:/Users/imashio/Electronics/ARM/_Library/u8g2_d_memory.c **** {
ARM GAS  /var/folders/v3/wysfpd052nz8jkbx04pk0ym80000gn/T//ccJItEm3.s 			page 28


 1362              		.loc 1 265 0
 1363              		.cfi_startproc
 1364              		@ args = 0, pretend = 0, frame = 0
 1365              		@ frame_needed = 0, uses_anonymous_args = 0
 1366              		@ link register save eliminated.
 1367              	.LVL86:
 266:/Users/imashio/Electronics/ARM/_Library/u8g2_d_memory.c ****   static uint8_t buf[480];
 267:/Users/imashio/Electronics/ARM/_Library/u8g2_d_memory.c ****   *page_cnt = 2;
 1368              		.loc 1 267 0
 1369 0000 0223     		movs	r3, #2
 1370 0002 0370     		strb	r3, [r0]
 268:/Users/imashio/Electronics/ARM/_Library/u8g2_d_memory.c ****   return buf;
 269:/Users/imashio/Electronics/ARM/_Library/u8g2_d_memory.c **** }
 1371              		.loc 1 269 0
 1372 0004 0048     		ldr	r0, .L132
 1373              	.LVL87:
 1374 0006 7047     		bx	lr
 1375              	.L133:
 1376              		.align	2
 1377              	.L132:
 1378 0008 00000000 		.word	.LANCHOR43
 1379              		.cfi_endproc
 1380              	.LFE43:
 1382              		.section	.text.u8g2_m_30_8_f,"ax",%progbits
 1383              		.align	1
 1384              		.p2align 2,,3
 1385              		.global	u8g2_m_30_8_f
 1386              		.syntax unified
 1387              		.thumb
 1388              		.thumb_func
 1389              		.fpu fpv4-sp-d16
 1391              	u8g2_m_30_8_f:
 1392              	.LFB44:
 270:/Users/imashio/Electronics/ARM/_Library/u8g2_d_memory.c **** uint8_t *u8g2_m_30_8_f(uint8_t *page_cnt)
 271:/Users/imashio/Electronics/ARM/_Library/u8g2_d_memory.c **** {
 1393              		.loc 1 271 0
 1394              		.cfi_startproc
 1395              		@ args = 0, pretend = 0, frame = 0
 1396              		@ frame_needed = 0, uses_anonymous_args = 0
 1397              		@ link register save eliminated.
 1398              	.LVL88:
 272:/Users/imashio/Electronics/ARM/_Library/u8g2_d_memory.c ****   static uint8_t buf[1920];
 273:/Users/imashio/Electronics/ARM/_Library/u8g2_d_memory.c ****   *page_cnt = 8;
 1399              		.loc 1 273 0
 1400 0000 0823     		movs	r3, #8
 1401 0002 0370     		strb	r3, [r0]
 274:/Users/imashio/Electronics/ARM/_Library/u8g2_d_memory.c ****   return buf;
 275:/Users/imashio/Electronics/ARM/_Library/u8g2_d_memory.c **** }
 1402              		.loc 1 275 0
 1403 0004 0048     		ldr	r0, .L135
 1404              	.LVL89:
 1405 0006 7047     		bx	lr
 1406              	.L136:
 1407              		.align	2
 1408              	.L135:
 1409 0008 00000000 		.word	.LANCHOR44
 1410              		.cfi_endproc
ARM GAS  /var/folders/v3/wysfpd052nz8jkbx04pk0ym80000gn/T//ccJItEm3.s 			page 29


 1411              	.LFE44:
 1413              		.section	.text.u8g2_m_30_15_1,"ax",%progbits
 1414              		.align	1
 1415              		.p2align 2,,3
 1416              		.global	u8g2_m_30_15_1
 1417              		.syntax unified
 1418              		.thumb
 1419              		.thumb_func
 1420              		.fpu fpv4-sp-d16
 1422              	u8g2_m_30_15_1:
 1423              	.LFB45:
 276:/Users/imashio/Electronics/ARM/_Library/u8g2_d_memory.c **** uint8_t *u8g2_m_30_15_1(uint8_t *page_cnt)
 277:/Users/imashio/Electronics/ARM/_Library/u8g2_d_memory.c **** {
 1424              		.loc 1 277 0
 1425              		.cfi_startproc
 1426              		@ args = 0, pretend = 0, frame = 0
 1427              		@ frame_needed = 0, uses_anonymous_args = 0
 1428              		@ link register save eliminated.
 1429              	.LVL90:
 278:/Users/imashio/Electronics/ARM/_Library/u8g2_d_memory.c ****   static uint8_t buf[240];
 279:/Users/imashio/Electronics/ARM/_Library/u8g2_d_memory.c ****   *page_cnt = 1;
 1430              		.loc 1 279 0
 1431 0000 0123     		movs	r3, #1
 1432 0002 0370     		strb	r3, [r0]
 280:/Users/imashio/Electronics/ARM/_Library/u8g2_d_memory.c ****   return buf;
 281:/Users/imashio/Electronics/ARM/_Library/u8g2_d_memory.c **** }
 1433              		.loc 1 281 0
 1434 0004 0048     		ldr	r0, .L138
 1435              	.LVL91:
 1436 0006 7047     		bx	lr
 1437              	.L139:
 1438              		.align	2
 1439              	.L138:
 1440 0008 00000000 		.word	.LANCHOR45
 1441              		.cfi_endproc
 1442              	.LFE45:
 1444              		.section	.text.u8g2_m_30_15_2,"ax",%progbits
 1445              		.align	1
 1446              		.p2align 2,,3
 1447              		.global	u8g2_m_30_15_2
 1448              		.syntax unified
 1449              		.thumb
 1450              		.thumb_func
 1451              		.fpu fpv4-sp-d16
 1453              	u8g2_m_30_15_2:
 1454              	.LFB46:
 282:/Users/imashio/Electronics/ARM/_Library/u8g2_d_memory.c **** uint8_t *u8g2_m_30_15_2(uint8_t *page_cnt)
 283:/Users/imashio/Electronics/ARM/_Library/u8g2_d_memory.c **** {
 1455              		.loc 1 283 0
 1456              		.cfi_startproc
 1457              		@ args = 0, pretend = 0, frame = 0
 1458              		@ frame_needed = 0, uses_anonymous_args = 0
 1459              		@ link register save eliminated.
 1460              	.LVL92:
 284:/Users/imashio/Electronics/ARM/_Library/u8g2_d_memory.c ****   static uint8_t buf[480];
 285:/Users/imashio/Electronics/ARM/_Library/u8g2_d_memory.c ****   *page_cnt = 2;
 1461              		.loc 1 285 0
ARM GAS  /var/folders/v3/wysfpd052nz8jkbx04pk0ym80000gn/T//ccJItEm3.s 			page 30


 1462 0000 0223     		movs	r3, #2
 1463 0002 0370     		strb	r3, [r0]
 286:/Users/imashio/Electronics/ARM/_Library/u8g2_d_memory.c ****   return buf;
 287:/Users/imashio/Electronics/ARM/_Library/u8g2_d_memory.c **** }
 1464              		.loc 1 287 0
 1465 0004 0048     		ldr	r0, .L141
 1466              	.LVL93:
 1467 0006 7047     		bx	lr
 1468              	.L142:
 1469              		.align	2
 1470              	.L141:
 1471 0008 00000000 		.word	.LANCHOR46
 1472              		.cfi_endproc
 1473              	.LFE46:
 1475              		.section	.text.u8g2_m_30_15_f,"ax",%progbits
 1476              		.align	1
 1477              		.p2align 2,,3
 1478              		.global	u8g2_m_30_15_f
 1479              		.syntax unified
 1480              		.thumb
 1481              		.thumb_func
 1482              		.fpu fpv4-sp-d16
 1484              	u8g2_m_30_15_f:
 1485              	.LFB47:
 288:/Users/imashio/Electronics/ARM/_Library/u8g2_d_memory.c **** uint8_t *u8g2_m_30_15_f(uint8_t *page_cnt)
 289:/Users/imashio/Electronics/ARM/_Library/u8g2_d_memory.c **** {
 1486              		.loc 1 289 0
 1487              		.cfi_startproc
 1488              		@ args = 0, pretend = 0, frame = 0
 1489              		@ frame_needed = 0, uses_anonymous_args = 0
 1490              		@ link register save eliminated.
 1491              	.LVL94:
 290:/Users/imashio/Electronics/ARM/_Library/u8g2_d_memory.c ****   static uint8_t buf[3600];
 291:/Users/imashio/Electronics/ARM/_Library/u8g2_d_memory.c ****   *page_cnt = 15;
 1492              		.loc 1 291 0
 1493 0000 0F23     		movs	r3, #15
 1494 0002 0370     		strb	r3, [r0]
 292:/Users/imashio/Electronics/ARM/_Library/u8g2_d_memory.c ****   return buf;
 293:/Users/imashio/Electronics/ARM/_Library/u8g2_d_memory.c **** }
 1495              		.loc 1 293 0
 1496 0004 0048     		ldr	r0, .L144
 1497              	.LVL95:
 1498 0006 7047     		bx	lr
 1499              	.L145:
 1500              		.align	2
 1501              	.L144:
 1502 0008 00000000 		.word	.LANCHOR47
 1503              		.cfi_endproc
 1504              	.LFE47:
 1506              		.section	.text.u8g2_m_30_16_1,"ax",%progbits
 1507              		.align	1
 1508              		.p2align 2,,3
 1509              		.global	u8g2_m_30_16_1
 1510              		.syntax unified
 1511              		.thumb
 1512              		.thumb_func
 1513              		.fpu fpv4-sp-d16
ARM GAS  /var/folders/v3/wysfpd052nz8jkbx04pk0ym80000gn/T//ccJItEm3.s 			page 31


 1515              	u8g2_m_30_16_1:
 1516              	.LFB48:
 294:/Users/imashio/Electronics/ARM/_Library/u8g2_d_memory.c **** uint8_t *u8g2_m_30_16_1(uint8_t *page_cnt)
 295:/Users/imashio/Electronics/ARM/_Library/u8g2_d_memory.c **** {
 1517              		.loc 1 295 0
 1518              		.cfi_startproc
 1519              		@ args = 0, pretend = 0, frame = 0
 1520              		@ frame_needed = 0, uses_anonymous_args = 0
 1521              		@ link register save eliminated.
 1522              	.LVL96:
 296:/Users/imashio/Electronics/ARM/_Library/u8g2_d_memory.c ****   static uint8_t buf[240];
 297:/Users/imashio/Electronics/ARM/_Library/u8g2_d_memory.c ****   *page_cnt = 1;
 1523              		.loc 1 297 0
 1524 0000 0123     		movs	r3, #1
 1525 0002 0370     		strb	r3, [r0]
 298:/Users/imashio/Electronics/ARM/_Library/u8g2_d_memory.c ****   return buf;
 299:/Users/imashio/Electronics/ARM/_Library/u8g2_d_memory.c **** }
 1526              		.loc 1 299 0
 1527 0004 0048     		ldr	r0, .L147
 1528              	.LVL97:
 1529 0006 7047     		bx	lr
 1530              	.L148:
 1531              		.align	2
 1532              	.L147:
 1533 0008 00000000 		.word	.LANCHOR48
 1534              		.cfi_endproc
 1535              	.LFE48:
 1537              		.section	.text.u8g2_m_30_16_2,"ax",%progbits
 1538              		.align	1
 1539              		.p2align 2,,3
 1540              		.global	u8g2_m_30_16_2
 1541              		.syntax unified
 1542              		.thumb
 1543              		.thumb_func
 1544              		.fpu fpv4-sp-d16
 1546              	u8g2_m_30_16_2:
 1547              	.LFB49:
 300:/Users/imashio/Electronics/ARM/_Library/u8g2_d_memory.c **** uint8_t *u8g2_m_30_16_2(uint8_t *page_cnt)
 301:/Users/imashio/Electronics/ARM/_Library/u8g2_d_memory.c **** {
 1548              		.loc 1 301 0
 1549              		.cfi_startproc
 1550              		@ args = 0, pretend = 0, frame = 0
 1551              		@ frame_needed = 0, uses_anonymous_args = 0
 1552              		@ link register save eliminated.
 1553              	.LVL98:
 302:/Users/imashio/Electronics/ARM/_Library/u8g2_d_memory.c ****   static uint8_t buf[480];
 303:/Users/imashio/Electronics/ARM/_Library/u8g2_d_memory.c ****   *page_cnt = 2;
 1554              		.loc 1 303 0
 1555 0000 0223     		movs	r3, #2
 1556 0002 0370     		strb	r3, [r0]
 304:/Users/imashio/Electronics/ARM/_Library/u8g2_d_memory.c ****   return buf;
 305:/Users/imashio/Electronics/ARM/_Library/u8g2_d_memory.c **** }
 1557              		.loc 1 305 0
 1558 0004 0048     		ldr	r0, .L150
 1559              	.LVL99:
 1560 0006 7047     		bx	lr
 1561              	.L151:
ARM GAS  /var/folders/v3/wysfpd052nz8jkbx04pk0ym80000gn/T//ccJItEm3.s 			page 32


 1562              		.align	2
 1563              	.L150:
 1564 0008 00000000 		.word	.LANCHOR49
 1565              		.cfi_endproc
 1566              	.LFE49:
 1568              		.section	.text.u8g2_m_30_16_f,"ax",%progbits
 1569              		.align	1
 1570              		.p2align 2,,3
 1571              		.global	u8g2_m_30_16_f
 1572              		.syntax unified
 1573              		.thumb
 1574              		.thumb_func
 1575              		.fpu fpv4-sp-d16
 1577              	u8g2_m_30_16_f:
 1578              	.LFB50:
 306:/Users/imashio/Electronics/ARM/_Library/u8g2_d_memory.c **** uint8_t *u8g2_m_30_16_f(uint8_t *page_cnt)
 307:/Users/imashio/Electronics/ARM/_Library/u8g2_d_memory.c **** {
 1579              		.loc 1 307 0
 1580              		.cfi_startproc
 1581              		@ args = 0, pretend = 0, frame = 0
 1582              		@ frame_needed = 0, uses_anonymous_args = 0
 1583              		@ link register save eliminated.
 1584              	.LVL100:
 308:/Users/imashio/Electronics/ARM/_Library/u8g2_d_memory.c ****   static uint8_t buf[3840];
 309:/Users/imashio/Electronics/ARM/_Library/u8g2_d_memory.c ****   *page_cnt = 16;
 1585              		.loc 1 309 0
 1586 0000 1023     		movs	r3, #16
 1587 0002 0370     		strb	r3, [r0]
 310:/Users/imashio/Electronics/ARM/_Library/u8g2_d_memory.c ****   return buf;
 311:/Users/imashio/Electronics/ARM/_Library/u8g2_d_memory.c **** }
 1588              		.loc 1 311 0
 1589 0004 0048     		ldr	r0, .L153
 1590              	.LVL101:
 1591 0006 7047     		bx	lr
 1592              	.L154:
 1593              		.align	2
 1594              	.L153:
 1595 0008 00000000 		.word	.LANCHOR50
 1596              		.cfi_endproc
 1597              	.LFE50:
 1599              		.section	.text.u8g2_m_20_16_1,"ax",%progbits
 1600              		.align	1
 1601              		.p2align 2,,3
 1602              		.global	u8g2_m_20_16_1
 1603              		.syntax unified
 1604              		.thumb
 1605              		.thumb_func
 1606              		.fpu fpv4-sp-d16
 1608              	u8g2_m_20_16_1:
 1609              	.LFB51:
 312:/Users/imashio/Electronics/ARM/_Library/u8g2_d_memory.c **** uint8_t *u8g2_m_20_16_1(uint8_t *page_cnt)
 313:/Users/imashio/Electronics/ARM/_Library/u8g2_d_memory.c **** {
 1610              		.loc 1 313 0
 1611              		.cfi_startproc
 1612              		@ args = 0, pretend = 0, frame = 0
 1613              		@ frame_needed = 0, uses_anonymous_args = 0
 1614              		@ link register save eliminated.
ARM GAS  /var/folders/v3/wysfpd052nz8jkbx04pk0ym80000gn/T//ccJItEm3.s 			page 33


 1615              	.LVL102:
 314:/Users/imashio/Electronics/ARM/_Library/u8g2_d_memory.c ****   static uint8_t buf[160];
 315:/Users/imashio/Electronics/ARM/_Library/u8g2_d_memory.c ****   *page_cnt = 1;
 1616              		.loc 1 315 0
 1617 0000 0123     		movs	r3, #1
 1618 0002 0370     		strb	r3, [r0]
 316:/Users/imashio/Electronics/ARM/_Library/u8g2_d_memory.c ****   return buf;
 317:/Users/imashio/Electronics/ARM/_Library/u8g2_d_memory.c **** }
 1619              		.loc 1 317 0
 1620 0004 0048     		ldr	r0, .L156
 1621              	.LVL103:
 1622 0006 7047     		bx	lr
 1623              	.L157:
 1624              		.align	2
 1625              	.L156:
 1626 0008 00000000 		.word	.LANCHOR51
 1627              		.cfi_endproc
 1628              	.LFE51:
 1630              		.section	.text.u8g2_m_20_16_2,"ax",%progbits
 1631              		.align	1
 1632              		.p2align 2,,3
 1633              		.global	u8g2_m_20_16_2
 1634              		.syntax unified
 1635              		.thumb
 1636              		.thumb_func
 1637              		.fpu fpv4-sp-d16
 1639              	u8g2_m_20_16_2:
 1640              	.LFB52:
 318:/Users/imashio/Electronics/ARM/_Library/u8g2_d_memory.c **** uint8_t *u8g2_m_20_16_2(uint8_t *page_cnt)
 319:/Users/imashio/Electronics/ARM/_Library/u8g2_d_memory.c **** {
 1641              		.loc 1 319 0
 1642              		.cfi_startproc
 1643              		@ args = 0, pretend = 0, frame = 0
 1644              		@ frame_needed = 0, uses_anonymous_args = 0
 1645              		@ link register save eliminated.
 1646              	.LVL104:
 320:/Users/imashio/Electronics/ARM/_Library/u8g2_d_memory.c ****   static uint8_t buf[320];
 321:/Users/imashio/Electronics/ARM/_Library/u8g2_d_memory.c ****   *page_cnt = 2;
 1647              		.loc 1 321 0
 1648 0000 0223     		movs	r3, #2
 1649 0002 0370     		strb	r3, [r0]
 322:/Users/imashio/Electronics/ARM/_Library/u8g2_d_memory.c ****   return buf;
 323:/Users/imashio/Electronics/ARM/_Library/u8g2_d_memory.c **** }
 1650              		.loc 1 323 0
 1651 0004 0048     		ldr	r0, .L159
 1652              	.LVL105:
 1653 0006 7047     		bx	lr
 1654              	.L160:
 1655              		.align	2
 1656              	.L159:
 1657 0008 00000000 		.word	.LANCHOR52
 1658              		.cfi_endproc
 1659              	.LFE52:
 1661              		.section	.text.u8g2_m_20_16_f,"ax",%progbits
 1662              		.align	1
 1663              		.p2align 2,,3
 1664              		.global	u8g2_m_20_16_f
ARM GAS  /var/folders/v3/wysfpd052nz8jkbx04pk0ym80000gn/T//ccJItEm3.s 			page 34


 1665              		.syntax unified
 1666              		.thumb
 1667              		.thumb_func
 1668              		.fpu fpv4-sp-d16
 1670              	u8g2_m_20_16_f:
 1671              	.LFB53:
 324:/Users/imashio/Electronics/ARM/_Library/u8g2_d_memory.c **** uint8_t *u8g2_m_20_16_f(uint8_t *page_cnt)
 325:/Users/imashio/Electronics/ARM/_Library/u8g2_d_memory.c **** {
 1672              		.loc 1 325 0
 1673              		.cfi_startproc
 1674              		@ args = 0, pretend = 0, frame = 0
 1675              		@ frame_needed = 0, uses_anonymous_args = 0
 1676              		@ link register save eliminated.
 1677              	.LVL106:
 326:/Users/imashio/Electronics/ARM/_Library/u8g2_d_memory.c ****   static uint8_t buf[2560];
 327:/Users/imashio/Electronics/ARM/_Library/u8g2_d_memory.c ****   *page_cnt = 16;
 1678              		.loc 1 327 0
 1679 0000 1023     		movs	r3, #16
 1680 0002 0370     		strb	r3, [r0]
 328:/Users/imashio/Electronics/ARM/_Library/u8g2_d_memory.c ****   return buf;
 329:/Users/imashio/Electronics/ARM/_Library/u8g2_d_memory.c **** }
 1681              		.loc 1 329 0
 1682 0004 0048     		ldr	r0, .L162
 1683              	.LVL107:
 1684 0006 7047     		bx	lr
 1685              	.L163:
 1686              		.align	2
 1687              	.L162:
 1688 0008 00000000 		.word	.LANCHOR53
 1689              		.cfi_endproc
 1690              	.LFE53:
 1692              		.section	.text.u8g2_m_20_13_1,"ax",%progbits
 1693              		.align	1
 1694              		.p2align 2,,3
 1695              		.global	u8g2_m_20_13_1
 1696              		.syntax unified
 1697              		.thumb
 1698              		.thumb_func
 1699              		.fpu fpv4-sp-d16
 1701              	u8g2_m_20_13_1:
 1702              	.LFB54:
 330:/Users/imashio/Electronics/ARM/_Library/u8g2_d_memory.c **** uint8_t *u8g2_m_20_13_1(uint8_t *page_cnt)
 331:/Users/imashio/Electronics/ARM/_Library/u8g2_d_memory.c **** {
 1703              		.loc 1 331 0
 1704              		.cfi_startproc
 1705              		@ args = 0, pretend = 0, frame = 0
 1706              		@ frame_needed = 0, uses_anonymous_args = 0
 1707              		@ link register save eliminated.
 1708              	.LVL108:
 332:/Users/imashio/Electronics/ARM/_Library/u8g2_d_memory.c ****   static uint8_t buf[160];
 333:/Users/imashio/Electronics/ARM/_Library/u8g2_d_memory.c ****   *page_cnt = 1;
 1709              		.loc 1 333 0
 1710 0000 0123     		movs	r3, #1
 1711 0002 0370     		strb	r3, [r0]
 334:/Users/imashio/Electronics/ARM/_Library/u8g2_d_memory.c ****   return buf;
 335:/Users/imashio/Electronics/ARM/_Library/u8g2_d_memory.c **** }
 1712              		.loc 1 335 0
ARM GAS  /var/folders/v3/wysfpd052nz8jkbx04pk0ym80000gn/T//ccJItEm3.s 			page 35


 1713 0004 0048     		ldr	r0, .L165
 1714              	.LVL109:
 1715 0006 7047     		bx	lr
 1716              	.L166:
 1717              		.align	2
 1718              	.L165:
 1719 0008 00000000 		.word	.LANCHOR54
 1720              		.cfi_endproc
 1721              	.LFE54:
 1723              		.section	.text.u8g2_m_20_13_2,"ax",%progbits
 1724              		.align	1
 1725              		.p2align 2,,3
 1726              		.global	u8g2_m_20_13_2
 1727              		.syntax unified
 1728              		.thumb
 1729              		.thumb_func
 1730              		.fpu fpv4-sp-d16
 1732              	u8g2_m_20_13_2:
 1733              	.LFB55:
 336:/Users/imashio/Electronics/ARM/_Library/u8g2_d_memory.c **** uint8_t *u8g2_m_20_13_2(uint8_t *page_cnt)
 337:/Users/imashio/Electronics/ARM/_Library/u8g2_d_memory.c **** {
 1734              		.loc 1 337 0
 1735              		.cfi_startproc
 1736              		@ args = 0, pretend = 0, frame = 0
 1737              		@ frame_needed = 0, uses_anonymous_args = 0
 1738              		@ link register save eliminated.
 1739              	.LVL110:
 338:/Users/imashio/Electronics/ARM/_Library/u8g2_d_memory.c ****   static uint8_t buf[320];
 339:/Users/imashio/Electronics/ARM/_Library/u8g2_d_memory.c ****   *page_cnt = 2;
 1740              		.loc 1 339 0
 1741 0000 0223     		movs	r3, #2
 1742 0002 0370     		strb	r3, [r0]
 340:/Users/imashio/Electronics/ARM/_Library/u8g2_d_memory.c ****   return buf;
 341:/Users/imashio/Electronics/ARM/_Library/u8g2_d_memory.c **** }
 1743              		.loc 1 341 0
 1744 0004 0048     		ldr	r0, .L168
 1745              	.LVL111:
 1746 0006 7047     		bx	lr
 1747              	.L169:
 1748              		.align	2
 1749              	.L168:
 1750 0008 00000000 		.word	.LANCHOR55
 1751              		.cfi_endproc
 1752              	.LFE55:
 1754              		.section	.text.u8g2_m_20_13_f,"ax",%progbits
 1755              		.align	1
 1756              		.p2align 2,,3
 1757              		.global	u8g2_m_20_13_f
 1758              		.syntax unified
 1759              		.thumb
 1760              		.thumb_func
 1761              		.fpu fpv4-sp-d16
 1763              	u8g2_m_20_13_f:
 1764              	.LFB56:
 342:/Users/imashio/Electronics/ARM/_Library/u8g2_d_memory.c **** uint8_t *u8g2_m_20_13_f(uint8_t *page_cnt)
 343:/Users/imashio/Electronics/ARM/_Library/u8g2_d_memory.c **** {
 1765              		.loc 1 343 0
ARM GAS  /var/folders/v3/wysfpd052nz8jkbx04pk0ym80000gn/T//ccJItEm3.s 			page 36


 1766              		.cfi_startproc
 1767              		@ args = 0, pretend = 0, frame = 0
 1768              		@ frame_needed = 0, uses_anonymous_args = 0
 1769              		@ link register save eliminated.
 1770              	.LVL112:
 344:/Users/imashio/Electronics/ARM/_Library/u8g2_d_memory.c ****   static uint8_t buf[2080];
 345:/Users/imashio/Electronics/ARM/_Library/u8g2_d_memory.c ****   *page_cnt = 13;
 1771              		.loc 1 345 0
 1772 0000 0D23     		movs	r3, #13
 1773 0002 0370     		strb	r3, [r0]
 346:/Users/imashio/Electronics/ARM/_Library/u8g2_d_memory.c ****   return buf;
 347:/Users/imashio/Electronics/ARM/_Library/u8g2_d_memory.c **** }
 1774              		.loc 1 347 0
 1775 0004 0048     		ldr	r0, .L171
 1776              	.LVL113:
 1777 0006 7047     		bx	lr
 1778              	.L172:
 1779              		.align	2
 1780              	.L171:
 1781 0008 00000000 		.word	.LANCHOR56
 1782              		.cfi_endproc
 1783              	.LFE56:
 1785              		.section	.text.u8g2_m_30_20_1,"ax",%progbits
 1786              		.align	1
 1787              		.p2align 2,,3
 1788              		.global	u8g2_m_30_20_1
 1789              		.syntax unified
 1790              		.thumb
 1791              		.thumb_func
 1792              		.fpu fpv4-sp-d16
 1794              	u8g2_m_30_20_1:
 1795              	.LFB57:
 348:/Users/imashio/Electronics/ARM/_Library/u8g2_d_memory.c **** uint8_t *u8g2_m_30_20_1(uint8_t *page_cnt)
 349:/Users/imashio/Electronics/ARM/_Library/u8g2_d_memory.c **** {
 1796              		.loc 1 349 0
 1797              		.cfi_startproc
 1798              		@ args = 0, pretend = 0, frame = 0
 1799              		@ frame_needed = 0, uses_anonymous_args = 0
 1800              		@ link register save eliminated.
 1801              	.LVL114:
 350:/Users/imashio/Electronics/ARM/_Library/u8g2_d_memory.c ****   static uint8_t buf[240];
 351:/Users/imashio/Electronics/ARM/_Library/u8g2_d_memory.c ****   *page_cnt = 1;
 1802              		.loc 1 351 0
 1803 0000 0123     		movs	r3, #1
 1804 0002 0370     		strb	r3, [r0]
 352:/Users/imashio/Electronics/ARM/_Library/u8g2_d_memory.c ****   return buf;
 353:/Users/imashio/Electronics/ARM/_Library/u8g2_d_memory.c **** }
 1805              		.loc 1 353 0
 1806 0004 0048     		ldr	r0, .L174
 1807              	.LVL115:
 1808 0006 7047     		bx	lr
 1809              	.L175:
 1810              		.align	2
 1811              	.L174:
 1812 0008 00000000 		.word	.LANCHOR57
 1813              		.cfi_endproc
 1814              	.LFE57:
ARM GAS  /var/folders/v3/wysfpd052nz8jkbx04pk0ym80000gn/T//ccJItEm3.s 			page 37


 1816              		.section	.text.u8g2_m_30_20_2,"ax",%progbits
 1817              		.align	1
 1818              		.p2align 2,,3
 1819              		.global	u8g2_m_30_20_2
 1820              		.syntax unified
 1821              		.thumb
 1822              		.thumb_func
 1823              		.fpu fpv4-sp-d16
 1825              	u8g2_m_30_20_2:
 1826              	.LFB58:
 354:/Users/imashio/Electronics/ARM/_Library/u8g2_d_memory.c **** uint8_t *u8g2_m_30_20_2(uint8_t *page_cnt)
 355:/Users/imashio/Electronics/ARM/_Library/u8g2_d_memory.c **** {
 1827              		.loc 1 355 0
 1828              		.cfi_startproc
 1829              		@ args = 0, pretend = 0, frame = 0
 1830              		@ frame_needed = 0, uses_anonymous_args = 0
 1831              		@ link register save eliminated.
 1832              	.LVL116:
 356:/Users/imashio/Electronics/ARM/_Library/u8g2_d_memory.c ****   static uint8_t buf[480];
 357:/Users/imashio/Electronics/ARM/_Library/u8g2_d_memory.c ****   *page_cnt = 2;
 1833              		.loc 1 357 0
 1834 0000 0223     		movs	r3, #2
 1835 0002 0370     		strb	r3, [r0]
 358:/Users/imashio/Electronics/ARM/_Library/u8g2_d_memory.c ****   return buf;
 359:/Users/imashio/Electronics/ARM/_Library/u8g2_d_memory.c **** }
 1836              		.loc 1 359 0
 1837 0004 0048     		ldr	r0, .L177
 1838              	.LVL117:
 1839 0006 7047     		bx	lr
 1840              	.L178:
 1841              		.align	2
 1842              	.L177:
 1843 0008 00000000 		.word	.LANCHOR58
 1844              		.cfi_endproc
 1845              	.LFE58:
 1847              		.section	.text.u8g2_m_30_20_f,"ax",%progbits
 1848              		.align	1
 1849              		.p2align 2,,3
 1850              		.global	u8g2_m_30_20_f
 1851              		.syntax unified
 1852              		.thumb
 1853              		.thumb_func
 1854              		.fpu fpv4-sp-d16
 1856              	u8g2_m_30_20_f:
 1857              	.LFB59:
 360:/Users/imashio/Electronics/ARM/_Library/u8g2_d_memory.c **** uint8_t *u8g2_m_30_20_f(uint8_t *page_cnt)
 361:/Users/imashio/Electronics/ARM/_Library/u8g2_d_memory.c **** {
 1858              		.loc 1 361 0
 1859              		.cfi_startproc
 1860              		@ args = 0, pretend = 0, frame = 0
 1861              		@ frame_needed = 0, uses_anonymous_args = 0
 1862              		@ link register save eliminated.
 1863              	.LVL118:
 362:/Users/imashio/Electronics/ARM/_Library/u8g2_d_memory.c ****   static uint8_t buf[4800];
 363:/Users/imashio/Electronics/ARM/_Library/u8g2_d_memory.c ****   *page_cnt = 20;
 1864              		.loc 1 363 0
 1865 0000 1423     		movs	r3, #20
ARM GAS  /var/folders/v3/wysfpd052nz8jkbx04pk0ym80000gn/T//ccJItEm3.s 			page 38


 1866 0002 0370     		strb	r3, [r0]
 364:/Users/imashio/Electronics/ARM/_Library/u8g2_d_memory.c ****   return buf;
 365:/Users/imashio/Electronics/ARM/_Library/u8g2_d_memory.c **** }
 1867              		.loc 1 365 0
 1868 0004 0048     		ldr	r0, .L180
 1869              	.LVL119:
 1870 0006 7047     		bx	lr
 1871              	.L181:
 1872              		.align	2
 1873              	.L180:
 1874 0008 00000000 		.word	buf.9905
 1875              		.cfi_endproc
 1876              	.LFE59:
 1878              		.section	.text.u8g2_m_17_4_1,"ax",%progbits
 1879              		.align	1
 1880              		.p2align 2,,3
 1881              		.global	u8g2_m_17_4_1
 1882              		.syntax unified
 1883              		.thumb
 1884              		.thumb_func
 1885              		.fpu fpv4-sp-d16
 1887              	u8g2_m_17_4_1:
 1888              	.LFB60:
 366:/Users/imashio/Electronics/ARM/_Library/u8g2_d_memory.c **** uint8_t *u8g2_m_17_4_1(uint8_t *page_cnt)
 367:/Users/imashio/Electronics/ARM/_Library/u8g2_d_memory.c **** {
 1889              		.loc 1 367 0
 1890              		.cfi_startproc
 1891              		@ args = 0, pretend = 0, frame = 0
 1892              		@ frame_needed = 0, uses_anonymous_args = 0
 1893              		@ link register save eliminated.
 1894              	.LVL120:
 368:/Users/imashio/Electronics/ARM/_Library/u8g2_d_memory.c ****   static uint8_t buf[136];
 369:/Users/imashio/Electronics/ARM/_Library/u8g2_d_memory.c ****   *page_cnt = 1;
 1895              		.loc 1 369 0
 1896 0000 0123     		movs	r3, #1
 1897 0002 0370     		strb	r3, [r0]
 370:/Users/imashio/Electronics/ARM/_Library/u8g2_d_memory.c ****   return buf;
 371:/Users/imashio/Electronics/ARM/_Library/u8g2_d_memory.c **** }
 1898              		.loc 1 371 0
 1899 0004 0048     		ldr	r0, .L183
 1900              	.LVL121:
 1901 0006 7047     		bx	lr
 1902              	.L184:
 1903              		.align	2
 1904              	.L183:
 1905 0008 00000000 		.word	.LANCHOR59
 1906              		.cfi_endproc
 1907              	.LFE60:
 1909              		.section	.text.u8g2_m_17_4_2,"ax",%progbits
 1910              		.align	1
 1911              		.p2align 2,,3
 1912              		.global	u8g2_m_17_4_2
 1913              		.syntax unified
 1914              		.thumb
 1915              		.thumb_func
 1916              		.fpu fpv4-sp-d16
 1918              	u8g2_m_17_4_2:
ARM GAS  /var/folders/v3/wysfpd052nz8jkbx04pk0ym80000gn/T//ccJItEm3.s 			page 39


 1919              	.LFB61:
 372:/Users/imashio/Electronics/ARM/_Library/u8g2_d_memory.c **** uint8_t *u8g2_m_17_4_2(uint8_t *page_cnt)
 373:/Users/imashio/Electronics/ARM/_Library/u8g2_d_memory.c **** {
 1920              		.loc 1 373 0
 1921              		.cfi_startproc
 1922              		@ args = 0, pretend = 0, frame = 0
 1923              		@ frame_needed = 0, uses_anonymous_args = 0
 1924              		@ link register save eliminated.
 1925              	.LVL122:
 374:/Users/imashio/Electronics/ARM/_Library/u8g2_d_memory.c ****   static uint8_t buf[272];
 375:/Users/imashio/Electronics/ARM/_Library/u8g2_d_memory.c ****   *page_cnt = 2;
 1926              		.loc 1 375 0
 1927 0000 0223     		movs	r3, #2
 1928 0002 0370     		strb	r3, [r0]
 376:/Users/imashio/Electronics/ARM/_Library/u8g2_d_memory.c ****   return buf;
 377:/Users/imashio/Electronics/ARM/_Library/u8g2_d_memory.c **** }
 1929              		.loc 1 377 0
 1930 0004 0048     		ldr	r0, .L186
 1931              	.LVL123:
 1932 0006 7047     		bx	lr
 1933              	.L187:
 1934              		.align	2
 1935              	.L186:
 1936 0008 00000000 		.word	.LANCHOR60
 1937              		.cfi_endproc
 1938              	.LFE61:
 1940              		.section	.text.u8g2_m_17_4_f,"ax",%progbits
 1941              		.align	1
 1942              		.p2align 2,,3
 1943              		.global	u8g2_m_17_4_f
 1944              		.syntax unified
 1945              		.thumb
 1946              		.thumb_func
 1947              		.fpu fpv4-sp-d16
 1949              	u8g2_m_17_4_f:
 1950              	.LFB62:
 378:/Users/imashio/Electronics/ARM/_Library/u8g2_d_memory.c **** uint8_t *u8g2_m_17_4_f(uint8_t *page_cnt)
 379:/Users/imashio/Electronics/ARM/_Library/u8g2_d_memory.c **** {
 1951              		.loc 1 379 0
 1952              		.cfi_startproc
 1953              		@ args = 0, pretend = 0, frame = 0
 1954              		@ frame_needed = 0, uses_anonymous_args = 0
 1955              		@ link register save eliminated.
 1956              	.LVL124:
 380:/Users/imashio/Electronics/ARM/_Library/u8g2_d_memory.c ****   static uint8_t buf[544];
 381:/Users/imashio/Electronics/ARM/_Library/u8g2_d_memory.c ****   *page_cnt = 4;
 1957              		.loc 1 381 0
 1958 0000 0423     		movs	r3, #4
 1959 0002 0370     		strb	r3, [r0]
 382:/Users/imashio/Electronics/ARM/_Library/u8g2_d_memory.c ****   return buf;
 383:/Users/imashio/Electronics/ARM/_Library/u8g2_d_memory.c **** }
 1960              		.loc 1 383 0
 1961 0004 0048     		ldr	r0, .L189
 1962              	.LVL125:
 1963 0006 7047     		bx	lr
 1964              	.L190:
 1965              		.align	2
ARM GAS  /var/folders/v3/wysfpd052nz8jkbx04pk0ym80000gn/T//ccJItEm3.s 			page 40


 1966              	.L189:
 1967 0008 00000000 		.word	.LANCHOR61
 1968              		.cfi_endproc
 1969              	.LFE62:
 1971              		.section	.text.u8g2_m_17_8_1,"ax",%progbits
 1972              		.align	1
 1973              		.p2align 2,,3
 1974              		.global	u8g2_m_17_8_1
 1975              		.syntax unified
 1976              		.thumb
 1977              		.thumb_func
 1978              		.fpu fpv4-sp-d16
 1980              	u8g2_m_17_8_1:
 1981              	.LFB63:
 384:/Users/imashio/Electronics/ARM/_Library/u8g2_d_memory.c **** uint8_t *u8g2_m_17_8_1(uint8_t *page_cnt)
 385:/Users/imashio/Electronics/ARM/_Library/u8g2_d_memory.c **** {
 1982              		.loc 1 385 0
 1983              		.cfi_startproc
 1984              		@ args = 0, pretend = 0, frame = 0
 1985              		@ frame_needed = 0, uses_anonymous_args = 0
 1986              		@ link register save eliminated.
 1987              	.LVL126:
 386:/Users/imashio/Electronics/ARM/_Library/u8g2_d_memory.c ****   static uint8_t buf[136];
 387:/Users/imashio/Electronics/ARM/_Library/u8g2_d_memory.c ****   *page_cnt = 1;
 1988              		.loc 1 387 0
 1989 0000 0123     		movs	r3, #1
 1990 0002 0370     		strb	r3, [r0]
 388:/Users/imashio/Electronics/ARM/_Library/u8g2_d_memory.c ****   return buf;
 389:/Users/imashio/Electronics/ARM/_Library/u8g2_d_memory.c **** }
 1991              		.loc 1 389 0
 1992 0004 0048     		ldr	r0, .L192
 1993              	.LVL127:
 1994 0006 7047     		bx	lr
 1995              	.L193:
 1996              		.align	2
 1997              	.L192:
 1998 0008 00000000 		.word	.LANCHOR62
 1999              		.cfi_endproc
 2000              	.LFE63:
 2002              		.section	.text.u8g2_m_17_8_2,"ax",%progbits
 2003              		.align	1
 2004              		.p2align 2,,3
 2005              		.global	u8g2_m_17_8_2
 2006              		.syntax unified
 2007              		.thumb
 2008              		.thumb_func
 2009              		.fpu fpv4-sp-d16
 2011              	u8g2_m_17_8_2:
 2012              	.LFB64:
 390:/Users/imashio/Electronics/ARM/_Library/u8g2_d_memory.c **** uint8_t *u8g2_m_17_8_2(uint8_t *page_cnt)
 391:/Users/imashio/Electronics/ARM/_Library/u8g2_d_memory.c **** {
 2013              		.loc 1 391 0
 2014              		.cfi_startproc
 2015              		@ args = 0, pretend = 0, frame = 0
 2016              		@ frame_needed = 0, uses_anonymous_args = 0
 2017              		@ link register save eliminated.
 2018              	.LVL128:
ARM GAS  /var/folders/v3/wysfpd052nz8jkbx04pk0ym80000gn/T//ccJItEm3.s 			page 41


 392:/Users/imashio/Electronics/ARM/_Library/u8g2_d_memory.c ****   static uint8_t buf[272];
 393:/Users/imashio/Electronics/ARM/_Library/u8g2_d_memory.c ****   *page_cnt = 2;
 2019              		.loc 1 393 0
 2020 0000 0223     		movs	r3, #2
 2021 0002 0370     		strb	r3, [r0]
 394:/Users/imashio/Electronics/ARM/_Library/u8g2_d_memory.c ****   return buf;
 395:/Users/imashio/Electronics/ARM/_Library/u8g2_d_memory.c **** }
 2022              		.loc 1 395 0
 2023 0004 0048     		ldr	r0, .L195
 2024              	.LVL129:
 2025 0006 7047     		bx	lr
 2026              	.L196:
 2027              		.align	2
 2028              	.L195:
 2029 0008 00000000 		.word	.LANCHOR63
 2030              		.cfi_endproc
 2031              	.LFE64:
 2033              		.section	.text.u8g2_m_17_8_f,"ax",%progbits
 2034              		.align	1
 2035              		.p2align 2,,3
 2036              		.global	u8g2_m_17_8_f
 2037              		.syntax unified
 2038              		.thumb
 2039              		.thumb_func
 2040              		.fpu fpv4-sp-d16
 2042              	u8g2_m_17_8_f:
 2043              	.LFB65:
 396:/Users/imashio/Electronics/ARM/_Library/u8g2_d_memory.c **** uint8_t *u8g2_m_17_8_f(uint8_t *page_cnt)
 397:/Users/imashio/Electronics/ARM/_Library/u8g2_d_memory.c **** {
 2044              		.loc 1 397 0
 2045              		.cfi_startproc
 2046              		@ args = 0, pretend = 0, frame = 0
 2047              		@ frame_needed = 0, uses_anonymous_args = 0
 2048              		@ link register save eliminated.
 2049              	.LVL130:
 398:/Users/imashio/Electronics/ARM/_Library/u8g2_d_memory.c ****   static uint8_t buf[1088];
 399:/Users/imashio/Electronics/ARM/_Library/u8g2_d_memory.c ****   *page_cnt = 8;
 2050              		.loc 1 399 0
 2051 0000 0823     		movs	r3, #8
 2052 0002 0370     		strb	r3, [r0]
 400:/Users/imashio/Electronics/ARM/_Library/u8g2_d_memory.c ****   return buf;
 401:/Users/imashio/Electronics/ARM/_Library/u8g2_d_memory.c **** }
 2053              		.loc 1 401 0
 2054 0004 0048     		ldr	r0, .L198
 2055              	.LVL131:
 2056 0006 7047     		bx	lr
 2057              	.L199:
 2058              		.align	2
 2059              	.L198:
 2060 0008 00000000 		.word	.LANCHOR64
 2061              		.cfi_endproc
 2062              	.LFE65:
 2064              		.section	.text.u8g2_m_32_16_1,"ax",%progbits
 2065              		.align	1
 2066              		.p2align 2,,3
 2067              		.global	u8g2_m_32_16_1
 2068              		.syntax unified
ARM GAS  /var/folders/v3/wysfpd052nz8jkbx04pk0ym80000gn/T//ccJItEm3.s 			page 42


 2069              		.thumb
 2070              		.thumb_func
 2071              		.fpu fpv4-sp-d16
 2073              	u8g2_m_32_16_1:
 2074              	.LFB66:
 402:/Users/imashio/Electronics/ARM/_Library/u8g2_d_memory.c **** uint8_t *u8g2_m_32_16_1(uint8_t *page_cnt)
 403:/Users/imashio/Electronics/ARM/_Library/u8g2_d_memory.c **** {
 2075              		.loc 1 403 0
 2076              		.cfi_startproc
 2077              		@ args = 0, pretend = 0, frame = 0
 2078              		@ frame_needed = 0, uses_anonymous_args = 0
 2079              		@ link register save eliminated.
 2080              	.LVL132:
 404:/Users/imashio/Electronics/ARM/_Library/u8g2_d_memory.c ****   static uint8_t buf[256];
 405:/Users/imashio/Electronics/ARM/_Library/u8g2_d_memory.c ****   *page_cnt = 1;
 2081              		.loc 1 405 0
 2082 0000 0123     		movs	r3, #1
 2083 0002 0370     		strb	r3, [r0]
 406:/Users/imashio/Electronics/ARM/_Library/u8g2_d_memory.c ****   return buf;
 407:/Users/imashio/Electronics/ARM/_Library/u8g2_d_memory.c **** }
 2084              		.loc 1 407 0
 2085 0004 0048     		ldr	r0, .L201
 2086              	.LVL133:
 2087 0006 7047     		bx	lr
 2088              	.L202:
 2089              		.align	2
 2090              	.L201:
 2091 0008 00000000 		.word	.LANCHOR65
 2092              		.cfi_endproc
 2093              	.LFE66:
 2095              		.section	.text.u8g2_m_32_16_2,"ax",%progbits
 2096              		.align	1
 2097              		.p2align 2,,3
 2098              		.global	u8g2_m_32_16_2
 2099              		.syntax unified
 2100              		.thumb
 2101              		.thumb_func
 2102              		.fpu fpv4-sp-d16
 2104              	u8g2_m_32_16_2:
 2105              	.LFB67:
 408:/Users/imashio/Electronics/ARM/_Library/u8g2_d_memory.c **** uint8_t *u8g2_m_32_16_2(uint8_t *page_cnt)
 409:/Users/imashio/Electronics/ARM/_Library/u8g2_d_memory.c **** {
 2106              		.loc 1 409 0
 2107              		.cfi_startproc
 2108              		@ args = 0, pretend = 0, frame = 0
 2109              		@ frame_needed = 0, uses_anonymous_args = 0
 2110              		@ link register save eliminated.
 2111              	.LVL134:
 410:/Users/imashio/Electronics/ARM/_Library/u8g2_d_memory.c ****   static uint8_t buf[512];
 411:/Users/imashio/Electronics/ARM/_Library/u8g2_d_memory.c ****   *page_cnt = 2;
 2112              		.loc 1 411 0
 2113 0000 0223     		movs	r3, #2
 2114 0002 0370     		strb	r3, [r0]
 412:/Users/imashio/Electronics/ARM/_Library/u8g2_d_memory.c ****   return buf;
 413:/Users/imashio/Electronics/ARM/_Library/u8g2_d_memory.c **** }
 2115              		.loc 1 413 0
 2116 0004 0048     		ldr	r0, .L204
ARM GAS  /var/folders/v3/wysfpd052nz8jkbx04pk0ym80000gn/T//ccJItEm3.s 			page 43


 2117              	.LVL135:
 2118 0006 7047     		bx	lr
 2119              	.L205:
 2120              		.align	2
 2121              	.L204:
 2122 0008 00000000 		.word	.LANCHOR66
 2123              		.cfi_endproc
 2124              	.LFE67:
 2126              		.section	.text.u8g2_m_32_16_f,"ax",%progbits
 2127              		.align	1
 2128              		.p2align 2,,3
 2129              		.global	u8g2_m_32_16_f
 2130              		.syntax unified
 2131              		.thumb
 2132              		.thumb_func
 2133              		.fpu fpv4-sp-d16
 2135              	u8g2_m_32_16_f:
 2136              	.LFB68:
 414:/Users/imashio/Electronics/ARM/_Library/u8g2_d_memory.c **** uint8_t *u8g2_m_32_16_f(uint8_t *page_cnt)
 415:/Users/imashio/Electronics/ARM/_Library/u8g2_d_memory.c **** {
 2137              		.loc 1 415 0
 2138              		.cfi_startproc
 2139              		@ args = 0, pretend = 0, frame = 0
 2140              		@ frame_needed = 0, uses_anonymous_args = 0
 2141              		@ link register save eliminated.
 2142              	.LVL136:
 416:/Users/imashio/Electronics/ARM/_Library/u8g2_d_memory.c ****   static uint8_t buf[4096];
 417:/Users/imashio/Electronics/ARM/_Library/u8g2_d_memory.c ****   *page_cnt = 16;
 2143              		.loc 1 417 0
 2144 0000 1023     		movs	r3, #16
 2145 0002 0370     		strb	r3, [r0]
 418:/Users/imashio/Electronics/ARM/_Library/u8g2_d_memory.c ****   return buf;
 419:/Users/imashio/Electronics/ARM/_Library/u8g2_d_memory.c **** }
 2146              		.loc 1 419 0
 2147 0004 0048     		ldr	r0, .L207
 2148              	.LVL137:
 2149 0006 7047     		bx	lr
 2150              	.L208:
 2151              		.align	2
 2152              	.L207:
 2153 0008 00000000 		.word	buf.9941
 2154              		.cfi_endproc
 2155              	.LFE68:
 2157              		.section	.text.u8g2_m_32_8_1,"ax",%progbits
 2158              		.align	1
 2159              		.p2align 2,,3
 2160              		.global	u8g2_m_32_8_1
 2161              		.syntax unified
 2162              		.thumb
 2163              		.thumb_func
 2164              		.fpu fpv4-sp-d16
 2166              	u8g2_m_32_8_1:
 2167              	.LFB69:
 420:/Users/imashio/Electronics/ARM/_Library/u8g2_d_memory.c **** uint8_t *u8g2_m_32_8_1(uint8_t *page_cnt)
 421:/Users/imashio/Electronics/ARM/_Library/u8g2_d_memory.c **** {
 2168              		.loc 1 421 0
 2169              		.cfi_startproc
ARM GAS  /var/folders/v3/wysfpd052nz8jkbx04pk0ym80000gn/T//ccJItEm3.s 			page 44


 2170              		@ args = 0, pretend = 0, frame = 0
 2171              		@ frame_needed = 0, uses_anonymous_args = 0
 2172              		@ link register save eliminated.
 2173              	.LVL138:
 422:/Users/imashio/Electronics/ARM/_Library/u8g2_d_memory.c ****   static uint8_t buf[256];
 423:/Users/imashio/Electronics/ARM/_Library/u8g2_d_memory.c ****   *page_cnt = 1;
 2174              		.loc 1 423 0
 2175 0000 0123     		movs	r3, #1
 2176 0002 0370     		strb	r3, [r0]
 424:/Users/imashio/Electronics/ARM/_Library/u8g2_d_memory.c ****   return buf;
 425:/Users/imashio/Electronics/ARM/_Library/u8g2_d_memory.c **** }
 2177              		.loc 1 425 0
 2178 0004 0048     		ldr	r0, .L210
 2179              	.LVL139:
 2180 0006 7047     		bx	lr
 2181              	.L211:
 2182              		.align	2
 2183              	.L210:
 2184 0008 00000000 		.word	.LANCHOR67
 2185              		.cfi_endproc
 2186              	.LFE69:
 2188              		.section	.text.u8g2_m_32_8_2,"ax",%progbits
 2189              		.align	1
 2190              		.p2align 2,,3
 2191              		.global	u8g2_m_32_8_2
 2192              		.syntax unified
 2193              		.thumb
 2194              		.thumb_func
 2195              		.fpu fpv4-sp-d16
 2197              	u8g2_m_32_8_2:
 2198              	.LFB70:
 426:/Users/imashio/Electronics/ARM/_Library/u8g2_d_memory.c **** uint8_t *u8g2_m_32_8_2(uint8_t *page_cnt)
 427:/Users/imashio/Electronics/ARM/_Library/u8g2_d_memory.c **** {
 2199              		.loc 1 427 0
 2200              		.cfi_startproc
 2201              		@ args = 0, pretend = 0, frame = 0
 2202              		@ frame_needed = 0, uses_anonymous_args = 0
 2203              		@ link register save eliminated.
 2204              	.LVL140:
 428:/Users/imashio/Electronics/ARM/_Library/u8g2_d_memory.c ****   static uint8_t buf[512];
 429:/Users/imashio/Electronics/ARM/_Library/u8g2_d_memory.c ****   *page_cnt = 2;
 2205              		.loc 1 429 0
 2206 0000 0223     		movs	r3, #2
 2207 0002 0370     		strb	r3, [r0]
 430:/Users/imashio/Electronics/ARM/_Library/u8g2_d_memory.c ****   return buf;
 431:/Users/imashio/Electronics/ARM/_Library/u8g2_d_memory.c **** }
 2208              		.loc 1 431 0
 2209 0004 0048     		ldr	r0, .L213
 2210              	.LVL141:
 2211 0006 7047     		bx	lr
 2212              	.L214:
 2213              		.align	2
 2214              	.L213:
 2215 0008 00000000 		.word	.LANCHOR68
 2216              		.cfi_endproc
 2217              	.LFE70:
 2219              		.section	.text.u8g2_m_32_8_f,"ax",%progbits
ARM GAS  /var/folders/v3/wysfpd052nz8jkbx04pk0ym80000gn/T//ccJItEm3.s 			page 45


 2220              		.align	1
 2221              		.p2align 2,,3
 2222              		.global	u8g2_m_32_8_f
 2223              		.syntax unified
 2224              		.thumb
 2225              		.thumb_func
 2226              		.fpu fpv4-sp-d16
 2228              	u8g2_m_32_8_f:
 2229              	.LFB71:
 432:/Users/imashio/Electronics/ARM/_Library/u8g2_d_memory.c **** uint8_t *u8g2_m_32_8_f(uint8_t *page_cnt)
 433:/Users/imashio/Electronics/ARM/_Library/u8g2_d_memory.c **** {
 2230              		.loc 1 433 0
 2231              		.cfi_startproc
 2232              		@ args = 0, pretend = 0, frame = 0
 2233              		@ frame_needed = 0, uses_anonymous_args = 0
 2234              		@ link register save eliminated.
 2235              	.LVL142:
 434:/Users/imashio/Electronics/ARM/_Library/u8g2_d_memory.c ****   static uint8_t buf[2048];
 435:/Users/imashio/Electronics/ARM/_Library/u8g2_d_memory.c ****   *page_cnt = 8;
 2236              		.loc 1 435 0
 2237 0000 0823     		movs	r3, #8
 2238 0002 0370     		strb	r3, [r0]
 436:/Users/imashio/Electronics/ARM/_Library/u8g2_d_memory.c ****   return buf;
 437:/Users/imashio/Electronics/ARM/_Library/u8g2_d_memory.c **** }
 2239              		.loc 1 437 0
 2240 0004 0048     		ldr	r0, .L216
 2241              	.LVL143:
 2242 0006 7047     		bx	lr
 2243              	.L217:
 2244              		.align	2
 2245              	.L216:
 2246 0008 00000000 		.word	.LANCHOR69
 2247              		.cfi_endproc
 2248              	.LFE71:
 2250              		.section	.text.u8g2_m_22_13_1,"ax",%progbits
 2251              		.align	1
 2252              		.p2align 2,,3
 2253              		.global	u8g2_m_22_13_1
 2254              		.syntax unified
 2255              		.thumb
 2256              		.thumb_func
 2257              		.fpu fpv4-sp-d16
 2259              	u8g2_m_22_13_1:
 2260              	.LFB72:
 438:/Users/imashio/Electronics/ARM/_Library/u8g2_d_memory.c **** uint8_t *u8g2_m_22_13_1(uint8_t *page_cnt)
 439:/Users/imashio/Electronics/ARM/_Library/u8g2_d_memory.c **** {
 2261              		.loc 1 439 0
 2262              		.cfi_startproc
 2263              		@ args = 0, pretend = 0, frame = 0
 2264              		@ frame_needed = 0, uses_anonymous_args = 0
 2265              		@ link register save eliminated.
 2266              	.LVL144:
 440:/Users/imashio/Electronics/ARM/_Library/u8g2_d_memory.c ****   static uint8_t buf[176];
 441:/Users/imashio/Electronics/ARM/_Library/u8g2_d_memory.c ****   *page_cnt = 1;
 2267              		.loc 1 441 0
 2268 0000 0123     		movs	r3, #1
 2269 0002 0370     		strb	r3, [r0]
ARM GAS  /var/folders/v3/wysfpd052nz8jkbx04pk0ym80000gn/T//ccJItEm3.s 			page 46


 442:/Users/imashio/Electronics/ARM/_Library/u8g2_d_memory.c ****   return buf;
 443:/Users/imashio/Electronics/ARM/_Library/u8g2_d_memory.c **** }
 2270              		.loc 1 443 0
 2271 0004 0048     		ldr	r0, .L219
 2272              	.LVL145:
 2273 0006 7047     		bx	lr
 2274              	.L220:
 2275              		.align	2
 2276              	.L219:
 2277 0008 00000000 		.word	.LANCHOR70
 2278              		.cfi_endproc
 2279              	.LFE72:
 2281              		.section	.text.u8g2_m_22_13_2,"ax",%progbits
 2282              		.align	1
 2283              		.p2align 2,,3
 2284              		.global	u8g2_m_22_13_2
 2285              		.syntax unified
 2286              		.thumb
 2287              		.thumb_func
 2288              		.fpu fpv4-sp-d16
 2290              	u8g2_m_22_13_2:
 2291              	.LFB73:
 444:/Users/imashio/Electronics/ARM/_Library/u8g2_d_memory.c **** uint8_t *u8g2_m_22_13_2(uint8_t *page_cnt)
 445:/Users/imashio/Electronics/ARM/_Library/u8g2_d_memory.c **** {
 2292              		.loc 1 445 0
 2293              		.cfi_startproc
 2294              		@ args = 0, pretend = 0, frame = 0
 2295              		@ frame_needed = 0, uses_anonymous_args = 0
 2296              		@ link register save eliminated.
 2297              	.LVL146:
 446:/Users/imashio/Electronics/ARM/_Library/u8g2_d_memory.c ****   static uint8_t buf[352];
 447:/Users/imashio/Electronics/ARM/_Library/u8g2_d_memory.c ****   *page_cnt = 2;
 2298              		.loc 1 447 0
 2299 0000 0223     		movs	r3, #2
 2300 0002 0370     		strb	r3, [r0]
 448:/Users/imashio/Electronics/ARM/_Library/u8g2_d_memory.c ****   return buf;
 449:/Users/imashio/Electronics/ARM/_Library/u8g2_d_memory.c **** }
 2301              		.loc 1 449 0
 2302 0004 0048     		ldr	r0, .L222
 2303              	.LVL147:
 2304 0006 7047     		bx	lr
 2305              	.L223:
 2306              		.align	2
 2307              	.L222:
 2308 0008 00000000 		.word	.LANCHOR71
 2309              		.cfi_endproc
 2310              	.LFE73:
 2312              		.section	.text.u8g2_m_22_13_f,"ax",%progbits
 2313              		.align	1
 2314              		.p2align 2,,3
 2315              		.global	u8g2_m_22_13_f
 2316              		.syntax unified
 2317              		.thumb
 2318              		.thumb_func
 2319              		.fpu fpv4-sp-d16
 2321              	u8g2_m_22_13_f:
 2322              	.LFB74:
ARM GAS  /var/folders/v3/wysfpd052nz8jkbx04pk0ym80000gn/T//ccJItEm3.s 			page 47


 450:/Users/imashio/Electronics/ARM/_Library/u8g2_d_memory.c **** uint8_t *u8g2_m_22_13_f(uint8_t *page_cnt)
 451:/Users/imashio/Electronics/ARM/_Library/u8g2_d_memory.c **** {
 2323              		.loc 1 451 0
 2324              		.cfi_startproc
 2325              		@ args = 0, pretend = 0, frame = 0
 2326              		@ frame_needed = 0, uses_anonymous_args = 0
 2327              		@ link register save eliminated.
 2328              	.LVL148:
 452:/Users/imashio/Electronics/ARM/_Library/u8g2_d_memory.c ****   static uint8_t buf[2288];
 453:/Users/imashio/Electronics/ARM/_Library/u8g2_d_memory.c ****   *page_cnt = 13;
 2329              		.loc 1 453 0
 2330 0000 0D23     		movs	r3, #13
 2331 0002 0370     		strb	r3, [r0]
 454:/Users/imashio/Electronics/ARM/_Library/u8g2_d_memory.c ****   return buf;
 455:/Users/imashio/Electronics/ARM/_Library/u8g2_d_memory.c **** }
 2332              		.loc 1 455 0
 2333 0004 0048     		ldr	r0, .L225
 2334              	.LVL149:
 2335 0006 7047     		bx	lr
 2336              	.L226:
 2337              		.align	2
 2338              	.L225:
 2339 0008 00000000 		.word	.LANCHOR72
 2340              		.cfi_endproc
 2341              	.LFE74:
 2343              		.section	.text.u8g2_m_20_10_1,"ax",%progbits
 2344              		.align	1
 2345              		.p2align 2,,3
 2346              		.global	u8g2_m_20_10_1
 2347              		.syntax unified
 2348              		.thumb
 2349              		.thumb_func
 2350              		.fpu fpv4-sp-d16
 2352              	u8g2_m_20_10_1:
 2353              	.LFB75:
 456:/Users/imashio/Electronics/ARM/_Library/u8g2_d_memory.c **** uint8_t *u8g2_m_20_10_1(uint8_t *page_cnt)
 457:/Users/imashio/Electronics/ARM/_Library/u8g2_d_memory.c **** {
 2354              		.loc 1 457 0
 2355              		.cfi_startproc
 2356              		@ args = 0, pretend = 0, frame = 0
 2357              		@ frame_needed = 0, uses_anonymous_args = 0
 2358              		@ link register save eliminated.
 2359              	.LVL150:
 458:/Users/imashio/Electronics/ARM/_Library/u8g2_d_memory.c ****   static uint8_t buf[160];
 459:/Users/imashio/Electronics/ARM/_Library/u8g2_d_memory.c ****   *page_cnt = 1;
 2360              		.loc 1 459 0
 2361 0000 0123     		movs	r3, #1
 2362 0002 0370     		strb	r3, [r0]
 460:/Users/imashio/Electronics/ARM/_Library/u8g2_d_memory.c ****   return buf;
 461:/Users/imashio/Electronics/ARM/_Library/u8g2_d_memory.c **** }
 2363              		.loc 1 461 0
 2364 0004 0048     		ldr	r0, .L228
 2365              	.LVL151:
 2366 0006 7047     		bx	lr
 2367              	.L229:
 2368              		.align	2
 2369              	.L228:
ARM GAS  /var/folders/v3/wysfpd052nz8jkbx04pk0ym80000gn/T//ccJItEm3.s 			page 48


 2370 0008 00000000 		.word	.LANCHOR73
 2371              		.cfi_endproc
 2372              	.LFE75:
 2374              		.section	.text.u8g2_m_20_10_2,"ax",%progbits
 2375              		.align	1
 2376              		.p2align 2,,3
 2377              		.global	u8g2_m_20_10_2
 2378              		.syntax unified
 2379              		.thumb
 2380              		.thumb_func
 2381              		.fpu fpv4-sp-d16
 2383              	u8g2_m_20_10_2:
 2384              	.LFB76:
 462:/Users/imashio/Electronics/ARM/_Library/u8g2_d_memory.c **** uint8_t *u8g2_m_20_10_2(uint8_t *page_cnt)
 463:/Users/imashio/Electronics/ARM/_Library/u8g2_d_memory.c **** {
 2385              		.loc 1 463 0
 2386              		.cfi_startproc
 2387              		@ args = 0, pretend = 0, frame = 0
 2388              		@ frame_needed = 0, uses_anonymous_args = 0
 2389              		@ link register save eliminated.
 2390              	.LVL152:
 464:/Users/imashio/Electronics/ARM/_Library/u8g2_d_memory.c ****   static uint8_t buf[320];
 465:/Users/imashio/Electronics/ARM/_Library/u8g2_d_memory.c ****   *page_cnt = 2;
 2391              		.loc 1 465 0
 2392 0000 0223     		movs	r3, #2
 2393 0002 0370     		strb	r3, [r0]
 466:/Users/imashio/Electronics/ARM/_Library/u8g2_d_memory.c ****   return buf;
 467:/Users/imashio/Electronics/ARM/_Library/u8g2_d_memory.c **** }
 2394              		.loc 1 467 0
 2395 0004 0048     		ldr	r0, .L231
 2396              	.LVL153:
 2397 0006 7047     		bx	lr
 2398              	.L232:
 2399              		.align	2
 2400              	.L231:
 2401 0008 00000000 		.word	.LANCHOR74
 2402              		.cfi_endproc
 2403              	.LFE76:
 2405              		.section	.text.u8g2_m_20_10_f,"ax",%progbits
 2406              		.align	1
 2407              		.p2align 2,,3
 2408              		.global	u8g2_m_20_10_f
 2409              		.syntax unified
 2410              		.thumb
 2411              		.thumb_func
 2412              		.fpu fpv4-sp-d16
 2414              	u8g2_m_20_10_f:
 2415              	.LFB77:
 468:/Users/imashio/Electronics/ARM/_Library/u8g2_d_memory.c **** uint8_t *u8g2_m_20_10_f(uint8_t *page_cnt)
 469:/Users/imashio/Electronics/ARM/_Library/u8g2_d_memory.c **** {
 2416              		.loc 1 469 0
 2417              		.cfi_startproc
 2418              		@ args = 0, pretend = 0, frame = 0
 2419              		@ frame_needed = 0, uses_anonymous_args = 0
 2420              		@ link register save eliminated.
 2421              	.LVL154:
 470:/Users/imashio/Electronics/ARM/_Library/u8g2_d_memory.c ****   static uint8_t buf[1600];
ARM GAS  /var/folders/v3/wysfpd052nz8jkbx04pk0ym80000gn/T//ccJItEm3.s 			page 49


 471:/Users/imashio/Electronics/ARM/_Library/u8g2_d_memory.c ****   *page_cnt = 10;
 2422              		.loc 1 471 0
 2423 0000 0A23     		movs	r3, #10
 2424 0002 0370     		strb	r3, [r0]
 472:/Users/imashio/Electronics/ARM/_Library/u8g2_d_memory.c ****   return buf;
 473:/Users/imashio/Electronics/ARM/_Library/u8g2_d_memory.c **** }
 2425              		.loc 1 473 0
 2426 0004 0048     		ldr	r0, .L234
 2427              	.LVL155:
 2428 0006 7047     		bx	lr
 2429              	.L235:
 2430              		.align	2
 2431              	.L234:
 2432 0008 00000000 		.word	.LANCHOR75
 2433              		.cfi_endproc
 2434              	.LFE77:
 2436              		.section	.text.u8g2_m_20_20_1,"ax",%progbits
 2437              		.align	1
 2438              		.p2align 2,,3
 2439              		.global	u8g2_m_20_20_1
 2440              		.syntax unified
 2441              		.thumb
 2442              		.thumb_func
 2443              		.fpu fpv4-sp-d16
 2445              	u8g2_m_20_20_1:
 2446              	.LFB78:
 474:/Users/imashio/Electronics/ARM/_Library/u8g2_d_memory.c **** uint8_t *u8g2_m_20_20_1(uint8_t *page_cnt)
 475:/Users/imashio/Electronics/ARM/_Library/u8g2_d_memory.c **** {
 2447              		.loc 1 475 0
 2448              		.cfi_startproc
 2449              		@ args = 0, pretend = 0, frame = 0
 2450              		@ frame_needed = 0, uses_anonymous_args = 0
 2451              		@ link register save eliminated.
 2452              	.LVL156:
 476:/Users/imashio/Electronics/ARM/_Library/u8g2_d_memory.c ****   static uint8_t buf[160];
 477:/Users/imashio/Electronics/ARM/_Library/u8g2_d_memory.c ****   *page_cnt = 1;
 2453              		.loc 1 477 0
 2454 0000 0123     		movs	r3, #1
 2455 0002 0370     		strb	r3, [r0]
 478:/Users/imashio/Electronics/ARM/_Library/u8g2_d_memory.c ****   return buf;
 479:/Users/imashio/Electronics/ARM/_Library/u8g2_d_memory.c **** }
 2456              		.loc 1 479 0
 2457 0004 0048     		ldr	r0, .L237
 2458              	.LVL157:
 2459 0006 7047     		bx	lr
 2460              	.L238:
 2461              		.align	2
 2462              	.L237:
 2463 0008 00000000 		.word	.LANCHOR76
 2464              		.cfi_endproc
 2465              	.LFE78:
 2467              		.section	.text.u8g2_m_20_20_2,"ax",%progbits
 2468              		.align	1
 2469              		.p2align 2,,3
 2470              		.global	u8g2_m_20_20_2
 2471              		.syntax unified
 2472              		.thumb
ARM GAS  /var/folders/v3/wysfpd052nz8jkbx04pk0ym80000gn/T//ccJItEm3.s 			page 50


 2473              		.thumb_func
 2474              		.fpu fpv4-sp-d16
 2476              	u8g2_m_20_20_2:
 2477              	.LFB79:
 480:/Users/imashio/Electronics/ARM/_Library/u8g2_d_memory.c **** uint8_t *u8g2_m_20_20_2(uint8_t *page_cnt)
 481:/Users/imashio/Electronics/ARM/_Library/u8g2_d_memory.c **** {
 2478              		.loc 1 481 0
 2479              		.cfi_startproc
 2480              		@ args = 0, pretend = 0, frame = 0
 2481              		@ frame_needed = 0, uses_anonymous_args = 0
 2482              		@ link register save eliminated.
 2483              	.LVL158:
 482:/Users/imashio/Electronics/ARM/_Library/u8g2_d_memory.c ****   static uint8_t buf[320];
 483:/Users/imashio/Electronics/ARM/_Library/u8g2_d_memory.c ****   *page_cnt = 2;
 2484              		.loc 1 483 0
 2485 0000 0223     		movs	r3, #2
 2486 0002 0370     		strb	r3, [r0]
 484:/Users/imashio/Electronics/ARM/_Library/u8g2_d_memory.c ****   return buf;
 485:/Users/imashio/Electronics/ARM/_Library/u8g2_d_memory.c **** }
 2487              		.loc 1 485 0
 2488 0004 0048     		ldr	r0, .L240
 2489              	.LVL159:
 2490 0006 7047     		bx	lr
 2491              	.L241:
 2492              		.align	2
 2493              	.L240:
 2494 0008 00000000 		.word	.LANCHOR77
 2495              		.cfi_endproc
 2496              	.LFE79:
 2498              		.section	.text.u8g2_m_20_20_f,"ax",%progbits
 2499              		.align	1
 2500              		.p2align 2,,3
 2501              		.global	u8g2_m_20_20_f
 2502              		.syntax unified
 2503              		.thumb
 2504              		.thumb_func
 2505              		.fpu fpv4-sp-d16
 2507              	u8g2_m_20_20_f:
 2508              	.LFB80:
 486:/Users/imashio/Electronics/ARM/_Library/u8g2_d_memory.c **** uint8_t *u8g2_m_20_20_f(uint8_t *page_cnt)
 487:/Users/imashio/Electronics/ARM/_Library/u8g2_d_memory.c **** {
 2509              		.loc 1 487 0
 2510              		.cfi_startproc
 2511              		@ args = 0, pretend = 0, frame = 0
 2512              		@ frame_needed = 0, uses_anonymous_args = 0
 2513              		@ link register save eliminated.
 2514              	.LVL160:
 488:/Users/imashio/Electronics/ARM/_Library/u8g2_d_memory.c ****   static uint8_t buf[3200];
 489:/Users/imashio/Electronics/ARM/_Library/u8g2_d_memory.c ****   *page_cnt = 20;
 2515              		.loc 1 489 0
 2516 0000 1423     		movs	r3, #20
 2517 0002 0370     		strb	r3, [r0]
 490:/Users/imashio/Electronics/ARM/_Library/u8g2_d_memory.c ****   return buf;
 491:/Users/imashio/Electronics/ARM/_Library/u8g2_d_memory.c **** }
 2518              		.loc 1 491 0
 2519 0004 0048     		ldr	r0, .L243
 2520              	.LVL161:
ARM GAS  /var/folders/v3/wysfpd052nz8jkbx04pk0ym80000gn/T//ccJItEm3.s 			page 51


 2521 0006 7047     		bx	lr
 2522              	.L244:
 2523              		.align	2
 2524              	.L243:
 2525 0008 00000000 		.word	.LANCHOR78
 2526              		.cfi_endproc
 2527              	.LFE80:
 2529              		.section	.text.u8g2_m_22_9_1,"ax",%progbits
 2530              		.align	1
 2531              		.p2align 2,,3
 2532              		.global	u8g2_m_22_9_1
 2533              		.syntax unified
 2534              		.thumb
 2535              		.thumb_func
 2536              		.fpu fpv4-sp-d16
 2538              	u8g2_m_22_9_1:
 2539              	.LFB81:
 492:/Users/imashio/Electronics/ARM/_Library/u8g2_d_memory.c **** uint8_t *u8g2_m_22_9_1(uint8_t *page_cnt)
 493:/Users/imashio/Electronics/ARM/_Library/u8g2_d_memory.c **** {
 2540              		.loc 1 493 0
 2541              		.cfi_startproc
 2542              		@ args = 0, pretend = 0, frame = 0
 2543              		@ frame_needed = 0, uses_anonymous_args = 0
 2544              		@ link register save eliminated.
 2545              	.LVL162:
 494:/Users/imashio/Electronics/ARM/_Library/u8g2_d_memory.c ****   static uint8_t buf[176];
 495:/Users/imashio/Electronics/ARM/_Library/u8g2_d_memory.c ****   *page_cnt = 1;
 2546              		.loc 1 495 0
 2547 0000 0123     		movs	r3, #1
 2548 0002 0370     		strb	r3, [r0]
 496:/Users/imashio/Electronics/ARM/_Library/u8g2_d_memory.c ****   return buf;
 497:/Users/imashio/Electronics/ARM/_Library/u8g2_d_memory.c **** }
 2549              		.loc 1 497 0
 2550 0004 0048     		ldr	r0, .L246
 2551              	.LVL163:
 2552 0006 7047     		bx	lr
 2553              	.L247:
 2554              		.align	2
 2555              	.L246:
 2556 0008 00000000 		.word	.LANCHOR79
 2557              		.cfi_endproc
 2558              	.LFE81:
 2560              		.section	.text.u8g2_m_22_9_2,"ax",%progbits
 2561              		.align	1
 2562              		.p2align 2,,3
 2563              		.global	u8g2_m_22_9_2
 2564              		.syntax unified
 2565              		.thumb
 2566              		.thumb_func
 2567              		.fpu fpv4-sp-d16
 2569              	u8g2_m_22_9_2:
 2570              	.LFB82:
 498:/Users/imashio/Electronics/ARM/_Library/u8g2_d_memory.c **** uint8_t *u8g2_m_22_9_2(uint8_t *page_cnt)
 499:/Users/imashio/Electronics/ARM/_Library/u8g2_d_memory.c **** {
 2571              		.loc 1 499 0
 2572              		.cfi_startproc
 2573              		@ args = 0, pretend = 0, frame = 0
ARM GAS  /var/folders/v3/wysfpd052nz8jkbx04pk0ym80000gn/T//ccJItEm3.s 			page 52


 2574              		@ frame_needed = 0, uses_anonymous_args = 0
 2575              		@ link register save eliminated.
 2576              	.LVL164:
 500:/Users/imashio/Electronics/ARM/_Library/u8g2_d_memory.c ****   static uint8_t buf[352];
 501:/Users/imashio/Electronics/ARM/_Library/u8g2_d_memory.c ****   *page_cnt = 2;
 2577              		.loc 1 501 0
 2578 0000 0223     		movs	r3, #2
 2579 0002 0370     		strb	r3, [r0]
 502:/Users/imashio/Electronics/ARM/_Library/u8g2_d_memory.c ****   return buf;
 503:/Users/imashio/Electronics/ARM/_Library/u8g2_d_memory.c **** }
 2580              		.loc 1 503 0
 2581 0004 0048     		ldr	r0, .L249
 2582              	.LVL165:
 2583 0006 7047     		bx	lr
 2584              	.L250:
 2585              		.align	2
 2586              	.L249:
 2587 0008 00000000 		.word	.LANCHOR80
 2588              		.cfi_endproc
 2589              	.LFE82:
 2591              		.section	.text.u8g2_m_22_9_f,"ax",%progbits
 2592              		.align	1
 2593              		.p2align 2,,3
 2594              		.global	u8g2_m_22_9_f
 2595              		.syntax unified
 2596              		.thumb
 2597              		.thumb_func
 2598              		.fpu fpv4-sp-d16
 2600              	u8g2_m_22_9_f:
 2601              	.LFB83:
 504:/Users/imashio/Electronics/ARM/_Library/u8g2_d_memory.c **** uint8_t *u8g2_m_22_9_f(uint8_t *page_cnt)
 505:/Users/imashio/Electronics/ARM/_Library/u8g2_d_memory.c **** {
 2602              		.loc 1 505 0
 2603              		.cfi_startproc
 2604              		@ args = 0, pretend = 0, frame = 0
 2605              		@ frame_needed = 0, uses_anonymous_args = 0
 2606              		@ link register save eliminated.
 2607              	.LVL166:
 506:/Users/imashio/Electronics/ARM/_Library/u8g2_d_memory.c ****   static uint8_t buf[1584];
 507:/Users/imashio/Electronics/ARM/_Library/u8g2_d_memory.c ****   *page_cnt = 9;
 2608              		.loc 1 507 0
 2609 0000 0923     		movs	r3, #9
 2610 0002 0370     		strb	r3, [r0]
 508:/Users/imashio/Electronics/ARM/_Library/u8g2_d_memory.c ****   return buf;
 509:/Users/imashio/Electronics/ARM/_Library/u8g2_d_memory.c **** }
 2611              		.loc 1 509 0
 2612 0004 0048     		ldr	r0, .L252
 2613              	.LVL167:
 2614 0006 7047     		bx	lr
 2615              	.L253:
 2616              		.align	2
 2617              	.L252:
 2618 0008 00000000 		.word	.LANCHOR81
 2619              		.cfi_endproc
 2620              	.LFE83:
 2622              		.section	.text.u8g2_m_25_25_1,"ax",%progbits
 2623              		.align	1
ARM GAS  /var/folders/v3/wysfpd052nz8jkbx04pk0ym80000gn/T//ccJItEm3.s 			page 53


 2624              		.p2align 2,,3
 2625              		.global	u8g2_m_25_25_1
 2626              		.syntax unified
 2627              		.thumb
 2628              		.thumb_func
 2629              		.fpu fpv4-sp-d16
 2631              	u8g2_m_25_25_1:
 2632              	.LFB84:
 510:/Users/imashio/Electronics/ARM/_Library/u8g2_d_memory.c **** uint8_t *u8g2_m_25_25_1(uint8_t *page_cnt)
 511:/Users/imashio/Electronics/ARM/_Library/u8g2_d_memory.c **** {
 2633              		.loc 1 511 0
 2634              		.cfi_startproc
 2635              		@ args = 0, pretend = 0, frame = 0
 2636              		@ frame_needed = 0, uses_anonymous_args = 0
 2637              		@ link register save eliminated.
 2638              	.LVL168:
 512:/Users/imashio/Electronics/ARM/_Library/u8g2_d_memory.c ****   static uint8_t buf[200];
 513:/Users/imashio/Electronics/ARM/_Library/u8g2_d_memory.c ****   *page_cnt = 1;
 2639              		.loc 1 513 0
 2640 0000 0123     		movs	r3, #1
 2641 0002 0370     		strb	r3, [r0]
 514:/Users/imashio/Electronics/ARM/_Library/u8g2_d_memory.c ****   return buf;
 515:/Users/imashio/Electronics/ARM/_Library/u8g2_d_memory.c **** }
 2642              		.loc 1 515 0
 2643 0004 0048     		ldr	r0, .L255
 2644              	.LVL169:
 2645 0006 7047     		bx	lr
 2646              	.L256:
 2647              		.align	2
 2648              	.L255:
 2649 0008 00000000 		.word	.LANCHOR82
 2650              		.cfi_endproc
 2651              	.LFE84:
 2653              		.section	.text.u8g2_m_25_25_2,"ax",%progbits
 2654              		.align	1
 2655              		.p2align 2,,3
 2656              		.global	u8g2_m_25_25_2
 2657              		.syntax unified
 2658              		.thumb
 2659              		.thumb_func
 2660              		.fpu fpv4-sp-d16
 2662              	u8g2_m_25_25_2:
 2663              	.LFB85:
 516:/Users/imashio/Electronics/ARM/_Library/u8g2_d_memory.c **** uint8_t *u8g2_m_25_25_2(uint8_t *page_cnt)
 517:/Users/imashio/Electronics/ARM/_Library/u8g2_d_memory.c **** {
 2664              		.loc 1 517 0
 2665              		.cfi_startproc
 2666              		@ args = 0, pretend = 0, frame = 0
 2667              		@ frame_needed = 0, uses_anonymous_args = 0
 2668              		@ link register save eliminated.
 2669              	.LVL170:
 518:/Users/imashio/Electronics/ARM/_Library/u8g2_d_memory.c ****   static uint8_t buf[400];
 519:/Users/imashio/Electronics/ARM/_Library/u8g2_d_memory.c ****   *page_cnt = 2;
 2670              		.loc 1 519 0
 2671 0000 0223     		movs	r3, #2
 2672 0002 0370     		strb	r3, [r0]
 520:/Users/imashio/Electronics/ARM/_Library/u8g2_d_memory.c ****   return buf;
ARM GAS  /var/folders/v3/wysfpd052nz8jkbx04pk0ym80000gn/T//ccJItEm3.s 			page 54


 521:/Users/imashio/Electronics/ARM/_Library/u8g2_d_memory.c **** }
 2673              		.loc 1 521 0
 2674 0004 0048     		ldr	r0, .L258
 2675              	.LVL171:
 2676 0006 7047     		bx	lr
 2677              	.L259:
 2678              		.align	2
 2679              	.L258:
 2680 0008 00000000 		.word	.LANCHOR83
 2681              		.cfi_endproc
 2682              	.LFE85:
 2684              		.section	.text.u8g2_m_25_25_f,"ax",%progbits
 2685              		.align	1
 2686              		.p2align 2,,3
 2687              		.global	u8g2_m_25_25_f
 2688              		.syntax unified
 2689              		.thumb
 2690              		.thumb_func
 2691              		.fpu fpv4-sp-d16
 2693              	u8g2_m_25_25_f:
 2694              	.LFB86:
 522:/Users/imashio/Electronics/ARM/_Library/u8g2_d_memory.c **** uint8_t *u8g2_m_25_25_f(uint8_t *page_cnt)
 523:/Users/imashio/Electronics/ARM/_Library/u8g2_d_memory.c **** {
 2695              		.loc 1 523 0
 2696              		.cfi_startproc
 2697              		@ args = 0, pretend = 0, frame = 0
 2698              		@ frame_needed = 0, uses_anonymous_args = 0
 2699              		@ link register save eliminated.
 2700              	.LVL172:
 524:/Users/imashio/Electronics/ARM/_Library/u8g2_d_memory.c ****   static uint8_t buf[5000];
 525:/Users/imashio/Electronics/ARM/_Library/u8g2_d_memory.c ****   *page_cnt = 25;
 2701              		.loc 1 525 0
 2702 0000 1923     		movs	r3, #25
 2703 0002 0370     		strb	r3, [r0]
 526:/Users/imashio/Electronics/ARM/_Library/u8g2_d_memory.c ****   return buf;
 527:/Users/imashio/Electronics/ARM/_Library/u8g2_d_memory.c **** }
 2704              		.loc 1 527 0
 2705 0004 0048     		ldr	r0, .L261
 2706              	.LVL173:
 2707 0006 7047     		bx	lr
 2708              	.L262:
 2709              		.align	2
 2710              	.L261:
 2711 0008 00000000 		.word	buf.10013
 2712              		.cfi_endproc
 2713              	.LFE86:
 2715              		.section	.text.u8g2_m_37_16_1,"ax",%progbits
 2716              		.align	1
 2717              		.p2align 2,,3
 2718              		.global	u8g2_m_37_16_1
 2719              		.syntax unified
 2720              		.thumb
 2721              		.thumb_func
 2722              		.fpu fpv4-sp-d16
 2724              	u8g2_m_37_16_1:
 2725              	.LFB87:
 528:/Users/imashio/Electronics/ARM/_Library/u8g2_d_memory.c **** uint8_t *u8g2_m_37_16_1(uint8_t *page_cnt)
ARM GAS  /var/folders/v3/wysfpd052nz8jkbx04pk0ym80000gn/T//ccJItEm3.s 			page 55


 529:/Users/imashio/Electronics/ARM/_Library/u8g2_d_memory.c **** {
 2726              		.loc 1 529 0
 2727              		.cfi_startproc
 2728              		@ args = 0, pretend = 0, frame = 0
 2729              		@ frame_needed = 0, uses_anonymous_args = 0
 2730              		@ link register save eliminated.
 2731              	.LVL174:
 530:/Users/imashio/Electronics/ARM/_Library/u8g2_d_memory.c ****   static uint8_t buf[296];
 531:/Users/imashio/Electronics/ARM/_Library/u8g2_d_memory.c ****   *page_cnt = 1;
 2732              		.loc 1 531 0
 2733 0000 0123     		movs	r3, #1
 2734 0002 0370     		strb	r3, [r0]
 532:/Users/imashio/Electronics/ARM/_Library/u8g2_d_memory.c ****   return buf;
 533:/Users/imashio/Electronics/ARM/_Library/u8g2_d_memory.c **** }
 2735              		.loc 1 533 0
 2736 0004 0048     		ldr	r0, .L264
 2737              	.LVL175:
 2738 0006 7047     		bx	lr
 2739              	.L265:
 2740              		.align	2
 2741              	.L264:
 2742 0008 00000000 		.word	.LANCHOR84
 2743              		.cfi_endproc
 2744              	.LFE87:
 2746              		.section	.text.u8g2_m_37_16_2,"ax",%progbits
 2747              		.align	1
 2748              		.p2align 2,,3
 2749              		.global	u8g2_m_37_16_2
 2750              		.syntax unified
 2751              		.thumb
 2752              		.thumb_func
 2753              		.fpu fpv4-sp-d16
 2755              	u8g2_m_37_16_2:
 2756              	.LFB88:
 534:/Users/imashio/Electronics/ARM/_Library/u8g2_d_memory.c **** uint8_t *u8g2_m_37_16_2(uint8_t *page_cnt)
 535:/Users/imashio/Electronics/ARM/_Library/u8g2_d_memory.c **** {
 2757              		.loc 1 535 0
 2758              		.cfi_startproc
 2759              		@ args = 0, pretend = 0, frame = 0
 2760              		@ frame_needed = 0, uses_anonymous_args = 0
 2761              		@ link register save eliminated.
 2762              	.LVL176:
 536:/Users/imashio/Electronics/ARM/_Library/u8g2_d_memory.c ****   static uint8_t buf[592];
 537:/Users/imashio/Electronics/ARM/_Library/u8g2_d_memory.c ****   *page_cnt = 2;
 2763              		.loc 1 537 0
 2764 0000 0223     		movs	r3, #2
 2765 0002 0370     		strb	r3, [r0]
 538:/Users/imashio/Electronics/ARM/_Library/u8g2_d_memory.c ****   return buf;
 539:/Users/imashio/Electronics/ARM/_Library/u8g2_d_memory.c **** }
 2766              		.loc 1 539 0
 2767 0004 0048     		ldr	r0, .L267
 2768              	.LVL177:
 2769 0006 7047     		bx	lr
 2770              	.L268:
 2771              		.align	2
 2772              	.L267:
 2773 0008 00000000 		.word	.LANCHOR85
ARM GAS  /var/folders/v3/wysfpd052nz8jkbx04pk0ym80000gn/T//ccJItEm3.s 			page 56


 2774              		.cfi_endproc
 2775              	.LFE88:
 2777              		.section	.text.u8g2_m_37_16_f,"ax",%progbits
 2778              		.align	1
 2779              		.p2align 2,,3
 2780              		.global	u8g2_m_37_16_f
 2781              		.syntax unified
 2782              		.thumb
 2783              		.thumb_func
 2784              		.fpu fpv4-sp-d16
 2786              	u8g2_m_37_16_f:
 2787              	.LFB89:
 540:/Users/imashio/Electronics/ARM/_Library/u8g2_d_memory.c **** uint8_t *u8g2_m_37_16_f(uint8_t *page_cnt)
 541:/Users/imashio/Electronics/ARM/_Library/u8g2_d_memory.c **** {
 2788              		.loc 1 541 0
 2789              		.cfi_startproc
 2790              		@ args = 0, pretend = 0, frame = 0
 2791              		@ frame_needed = 0, uses_anonymous_args = 0
 2792              		@ link register save eliminated.
 2793              	.LVL178:
 542:/Users/imashio/Electronics/ARM/_Library/u8g2_d_memory.c ****   static uint8_t buf[4736];
 543:/Users/imashio/Electronics/ARM/_Library/u8g2_d_memory.c ****   *page_cnt = 16;
 2794              		.loc 1 543 0
 2795 0000 1023     		movs	r3, #16
 2796 0002 0370     		strb	r3, [r0]
 544:/Users/imashio/Electronics/ARM/_Library/u8g2_d_memory.c ****   return buf;
 545:/Users/imashio/Electronics/ARM/_Library/u8g2_d_memory.c **** }
 2797              		.loc 1 545 0
 2798 0004 0048     		ldr	r0, .L270
 2799              	.LVL179:
 2800 0006 7047     		bx	lr
 2801              	.L271:
 2802              		.align	2
 2803              	.L270:
 2804 0008 00000000 		.word	buf.10025
 2805              		.cfi_endproc
 2806              	.LFE89:
 2808              		.section	.text.u8g2_m_40_30_1,"ax",%progbits
 2809              		.align	1
 2810              		.p2align 2,,3
 2811              		.global	u8g2_m_40_30_1
 2812              		.syntax unified
 2813              		.thumb
 2814              		.thumb_func
 2815              		.fpu fpv4-sp-d16
 2817              	u8g2_m_40_30_1:
 2818              	.LFB90:
 546:/Users/imashio/Electronics/ARM/_Library/u8g2_d_memory.c **** uint8_t *u8g2_m_40_30_1(uint8_t *page_cnt)
 547:/Users/imashio/Electronics/ARM/_Library/u8g2_d_memory.c **** {
 2819              		.loc 1 547 0
 2820              		.cfi_startproc
 2821              		@ args = 0, pretend = 0, frame = 0
 2822              		@ frame_needed = 0, uses_anonymous_args = 0
 2823              		@ link register save eliminated.
 2824              	.LVL180:
 548:/Users/imashio/Electronics/ARM/_Library/u8g2_d_memory.c ****   static uint8_t buf[320];
 549:/Users/imashio/Electronics/ARM/_Library/u8g2_d_memory.c ****   *page_cnt = 1;
ARM GAS  /var/folders/v3/wysfpd052nz8jkbx04pk0ym80000gn/T//ccJItEm3.s 			page 57


 2825              		.loc 1 549 0
 2826 0000 0123     		movs	r3, #1
 2827 0002 0370     		strb	r3, [r0]
 550:/Users/imashio/Electronics/ARM/_Library/u8g2_d_memory.c ****   return buf;
 551:/Users/imashio/Electronics/ARM/_Library/u8g2_d_memory.c **** }
 2828              		.loc 1 551 0
 2829 0004 0048     		ldr	r0, .L273
 2830              	.LVL181:
 2831 0006 7047     		bx	lr
 2832              	.L274:
 2833              		.align	2
 2834              	.L273:
 2835 0008 00000000 		.word	.LANCHOR86
 2836              		.cfi_endproc
 2837              	.LFE90:
 2839              		.section	.text.u8g2_m_40_30_2,"ax",%progbits
 2840              		.align	1
 2841              		.p2align 2,,3
 2842              		.global	u8g2_m_40_30_2
 2843              		.syntax unified
 2844              		.thumb
 2845              		.thumb_func
 2846              		.fpu fpv4-sp-d16
 2848              	u8g2_m_40_30_2:
 2849              	.LFB91:
 552:/Users/imashio/Electronics/ARM/_Library/u8g2_d_memory.c **** uint8_t *u8g2_m_40_30_2(uint8_t *page_cnt)
 553:/Users/imashio/Electronics/ARM/_Library/u8g2_d_memory.c **** {
 2850              		.loc 1 553 0
 2851              		.cfi_startproc
 2852              		@ args = 0, pretend = 0, frame = 0
 2853              		@ frame_needed = 0, uses_anonymous_args = 0
 2854              		@ link register save eliminated.
 2855              	.LVL182:
 554:/Users/imashio/Electronics/ARM/_Library/u8g2_d_memory.c ****   static uint8_t buf[640];
 555:/Users/imashio/Electronics/ARM/_Library/u8g2_d_memory.c ****   *page_cnt = 2;
 2856              		.loc 1 555 0
 2857 0000 0223     		movs	r3, #2
 2858 0002 0370     		strb	r3, [r0]
 556:/Users/imashio/Electronics/ARM/_Library/u8g2_d_memory.c ****   return buf;
 557:/Users/imashio/Electronics/ARM/_Library/u8g2_d_memory.c **** }
 2859              		.loc 1 557 0
 2860 0004 0048     		ldr	r0, .L276
 2861              	.LVL183:
 2862 0006 7047     		bx	lr
 2863              	.L277:
 2864              		.align	2
 2865              	.L276:
 2866 0008 00000000 		.word	.LANCHOR87
 2867              		.cfi_endproc
 2868              	.LFE91:
 2870              		.section	.text.u8g2_m_40_30_f,"ax",%progbits
 2871              		.align	1
 2872              		.p2align 2,,3
 2873              		.global	u8g2_m_40_30_f
 2874              		.syntax unified
 2875              		.thumb
 2876              		.thumb_func
ARM GAS  /var/folders/v3/wysfpd052nz8jkbx04pk0ym80000gn/T//ccJItEm3.s 			page 58


 2877              		.fpu fpv4-sp-d16
 2879              	u8g2_m_40_30_f:
 2880              	.LFB92:
 558:/Users/imashio/Electronics/ARM/_Library/u8g2_d_memory.c **** uint8_t *u8g2_m_40_30_f(uint8_t *page_cnt)
 559:/Users/imashio/Electronics/ARM/_Library/u8g2_d_memory.c **** {
 2881              		.loc 1 559 0
 2882              		.cfi_startproc
 2883              		@ args = 0, pretend = 0, frame = 0
 2884              		@ frame_needed = 0, uses_anonymous_args = 0
 2885              		@ link register save eliminated.
 2886              	.LVL184:
 560:/Users/imashio/Electronics/ARM/_Library/u8g2_d_memory.c ****   static uint8_t buf[9600];
 561:/Users/imashio/Electronics/ARM/_Library/u8g2_d_memory.c ****   *page_cnt = 30;
 2887              		.loc 1 561 0
 2888 0000 1E23     		movs	r3, #30
 2889 0002 0370     		strb	r3, [r0]
 562:/Users/imashio/Electronics/ARM/_Library/u8g2_d_memory.c ****   return buf;
 563:/Users/imashio/Electronics/ARM/_Library/u8g2_d_memory.c **** }
 2890              		.loc 1 563 0
 2891 0004 0048     		ldr	r0, .L279
 2892              	.LVL185:
 2893 0006 7047     		bx	lr
 2894              	.L280:
 2895              		.align	2
 2896              	.L279:
 2897 0008 00000000 		.word	buf.10037
 2898              		.cfi_endproc
 2899              	.LFE92:
 2901              		.section	.text.u8g2_m_4_1_1,"ax",%progbits
 2902              		.align	1
 2903              		.p2align 2,,3
 2904              		.global	u8g2_m_4_1_1
 2905              		.syntax unified
 2906              		.thumb
 2907              		.thumb_func
 2908              		.fpu fpv4-sp-d16
 2910              	u8g2_m_4_1_1:
 2911              	.LFB93:
 564:/Users/imashio/Electronics/ARM/_Library/u8g2_d_memory.c **** uint8_t *u8g2_m_4_1_1(uint8_t *page_cnt)
 565:/Users/imashio/Electronics/ARM/_Library/u8g2_d_memory.c **** {
 2912              		.loc 1 565 0
 2913              		.cfi_startproc
 2914              		@ args = 0, pretend = 0, frame = 0
 2915              		@ frame_needed = 0, uses_anonymous_args = 0
 2916              		@ link register save eliminated.
 2917              	.LVL186:
 566:/Users/imashio/Electronics/ARM/_Library/u8g2_d_memory.c ****   static uint8_t buf[32];
 567:/Users/imashio/Electronics/ARM/_Library/u8g2_d_memory.c ****   *page_cnt = 1;
 2918              		.loc 1 567 0
 2919 0000 0123     		movs	r3, #1
 2920 0002 0370     		strb	r3, [r0]
 568:/Users/imashio/Electronics/ARM/_Library/u8g2_d_memory.c ****   return buf;
 569:/Users/imashio/Electronics/ARM/_Library/u8g2_d_memory.c **** }
 2921              		.loc 1 569 0
 2922 0004 0048     		ldr	r0, .L282
 2923              	.LVL187:
 2924 0006 7047     		bx	lr
ARM GAS  /var/folders/v3/wysfpd052nz8jkbx04pk0ym80000gn/T//ccJItEm3.s 			page 59


 2925              	.L283:
 2926              		.align	2
 2927              	.L282:
 2928 0008 00000000 		.word	.LANCHOR88
 2929              		.cfi_endproc
 2930              	.LFE93:
 2932              		.section	.text.u8g2_m_4_1_2,"ax",%progbits
 2933              		.align	1
 2934              		.p2align 2,,3
 2935              		.global	u8g2_m_4_1_2
 2936              		.syntax unified
 2937              		.thumb
 2938              		.thumb_func
 2939              		.fpu fpv4-sp-d16
 2941              	u8g2_m_4_1_2:
 2942              	.LFB94:
 570:/Users/imashio/Electronics/ARM/_Library/u8g2_d_memory.c **** uint8_t *u8g2_m_4_1_2(uint8_t *page_cnt)
 571:/Users/imashio/Electronics/ARM/_Library/u8g2_d_memory.c **** {
 2943              		.loc 1 571 0
 2944              		.cfi_startproc
 2945              		@ args = 0, pretend = 0, frame = 0
 2946              		@ frame_needed = 0, uses_anonymous_args = 0
 2947              		@ link register save eliminated.
 2948              	.LVL188:
 572:/Users/imashio/Electronics/ARM/_Library/u8g2_d_memory.c ****   static uint8_t buf[64];
 573:/Users/imashio/Electronics/ARM/_Library/u8g2_d_memory.c ****   *page_cnt = 2;
 2949              		.loc 1 573 0
 2950 0000 0223     		movs	r3, #2
 2951 0002 0370     		strb	r3, [r0]
 574:/Users/imashio/Electronics/ARM/_Library/u8g2_d_memory.c ****   return buf;
 575:/Users/imashio/Electronics/ARM/_Library/u8g2_d_memory.c **** }
 2952              		.loc 1 575 0
 2953 0004 0048     		ldr	r0, .L285
 2954              	.LVL189:
 2955 0006 7047     		bx	lr
 2956              	.L286:
 2957              		.align	2
 2958              	.L285:
 2959 0008 00000000 		.word	.LANCHOR89
 2960              		.cfi_endproc
 2961              	.LFE94:
 2963              		.section	.text.u8g2_m_4_1_f,"ax",%progbits
 2964              		.align	1
 2965              		.p2align 2,,3
 2966              		.global	u8g2_m_4_1_f
 2967              		.syntax unified
 2968              		.thumb
 2969              		.thumb_func
 2970              		.fpu fpv4-sp-d16
 2972              	u8g2_m_4_1_f:
 2973              	.LFB95:
 576:/Users/imashio/Electronics/ARM/_Library/u8g2_d_memory.c **** uint8_t *u8g2_m_4_1_f(uint8_t *page_cnt)
 577:/Users/imashio/Electronics/ARM/_Library/u8g2_d_memory.c **** {
 2974              		.loc 1 577 0
 2975              		.cfi_startproc
 2976              		@ args = 0, pretend = 0, frame = 0
 2977              		@ frame_needed = 0, uses_anonymous_args = 0
ARM GAS  /var/folders/v3/wysfpd052nz8jkbx04pk0ym80000gn/T//ccJItEm3.s 			page 60


 2978              		@ link register save eliminated.
 2979              	.LVL190:
 578:/Users/imashio/Electronics/ARM/_Library/u8g2_d_memory.c ****   static uint8_t buf[32];
 579:/Users/imashio/Electronics/ARM/_Library/u8g2_d_memory.c ****   *page_cnt = 1;
 2980              		.loc 1 579 0
 2981 0000 0123     		movs	r3, #1
 2982 0002 0370     		strb	r3, [r0]
 580:/Users/imashio/Electronics/ARM/_Library/u8g2_d_memory.c ****   return buf;
 581:/Users/imashio/Electronics/ARM/_Library/u8g2_d_memory.c **** }
 2983              		.loc 1 581 0
 2984 0004 0048     		ldr	r0, .L288
 2985              	.LVL191:
 2986 0006 7047     		bx	lr
 2987              	.L289:
 2988              		.align	2
 2989              	.L288:
 2990 0008 00000000 		.word	.LANCHOR90
 2991              		.cfi_endproc
 2992              	.LFE95:
 2994              		.section	.text.u8g2_m_48_30_1,"ax",%progbits
 2995              		.align	1
 2996              		.p2align 2,,3
 2997              		.global	u8g2_m_48_30_1
 2998              		.syntax unified
 2999              		.thumb
 3000              		.thumb_func
 3001              		.fpu fpv4-sp-d16
 3003              	u8g2_m_48_30_1:
 3004              	.LFB96:
 582:/Users/imashio/Electronics/ARM/_Library/u8g2_d_memory.c **** uint8_t *u8g2_m_48_30_1(uint8_t *page_cnt)
 583:/Users/imashio/Electronics/ARM/_Library/u8g2_d_memory.c **** {
 3005              		.loc 1 583 0
 3006              		.cfi_startproc
 3007              		@ args = 0, pretend = 0, frame = 0
 3008              		@ frame_needed = 0, uses_anonymous_args = 0
 3009              		@ link register save eliminated.
 3010              	.LVL192:
 584:/Users/imashio/Electronics/ARM/_Library/u8g2_d_memory.c ****   static uint8_t buf[384];
 585:/Users/imashio/Electronics/ARM/_Library/u8g2_d_memory.c ****   *page_cnt = 1;
 3011              		.loc 1 585 0
 3012 0000 0123     		movs	r3, #1
 3013 0002 0370     		strb	r3, [r0]
 586:/Users/imashio/Electronics/ARM/_Library/u8g2_d_memory.c ****   return buf;
 587:/Users/imashio/Electronics/ARM/_Library/u8g2_d_memory.c **** }
 3014              		.loc 1 587 0
 3015 0004 0048     		ldr	r0, .L291
 3016              	.LVL193:
 3017 0006 7047     		bx	lr
 3018              	.L292:
 3019              		.align	2
 3020              	.L291:
 3021 0008 00000000 		.word	.LANCHOR91
 3022              		.cfi_endproc
 3023              	.LFE96:
 3025              		.section	.text.u8g2_m_48_30_2,"ax",%progbits
 3026              		.align	1
 3027              		.p2align 2,,3
ARM GAS  /var/folders/v3/wysfpd052nz8jkbx04pk0ym80000gn/T//ccJItEm3.s 			page 61


 3028              		.global	u8g2_m_48_30_2
 3029              		.syntax unified
 3030              		.thumb
 3031              		.thumb_func
 3032              		.fpu fpv4-sp-d16
 3034              	u8g2_m_48_30_2:
 3035              	.LFB97:
 588:/Users/imashio/Electronics/ARM/_Library/u8g2_d_memory.c **** uint8_t *u8g2_m_48_30_2(uint8_t *page_cnt)
 589:/Users/imashio/Electronics/ARM/_Library/u8g2_d_memory.c **** {
 3036              		.loc 1 589 0
 3037              		.cfi_startproc
 3038              		@ args = 0, pretend = 0, frame = 0
 3039              		@ frame_needed = 0, uses_anonymous_args = 0
 3040              		@ link register save eliminated.
 3041              	.LVL194:
 590:/Users/imashio/Electronics/ARM/_Library/u8g2_d_memory.c ****   static uint8_t buf[768];
 591:/Users/imashio/Electronics/ARM/_Library/u8g2_d_memory.c ****   *page_cnt = 2;
 3042              		.loc 1 591 0
 3043 0000 0223     		movs	r3, #2
 3044 0002 0370     		strb	r3, [r0]
 592:/Users/imashio/Electronics/ARM/_Library/u8g2_d_memory.c ****   return buf;
 593:/Users/imashio/Electronics/ARM/_Library/u8g2_d_memory.c **** }
 3045              		.loc 1 593 0
 3046 0004 0048     		ldr	r0, .L294
 3047              	.LVL195:
 3048 0006 7047     		bx	lr
 3049              	.L295:
 3050              		.align	2
 3051              	.L294:
 3052 0008 00000000 		.word	.LANCHOR92
 3053              		.cfi_endproc
 3054              	.LFE97:
 3056              		.section	.text.u8g2_m_48_30_f,"ax",%progbits
 3057              		.align	1
 3058              		.p2align 2,,3
 3059              		.global	u8g2_m_48_30_f
 3060              		.syntax unified
 3061              		.thumb
 3062              		.thumb_func
 3063              		.fpu fpv4-sp-d16
 3065              	u8g2_m_48_30_f:
 3066              	.LFB98:
 594:/Users/imashio/Electronics/ARM/_Library/u8g2_d_memory.c **** uint8_t *u8g2_m_48_30_f(uint8_t *page_cnt)
 595:/Users/imashio/Electronics/ARM/_Library/u8g2_d_memory.c **** {
 3067              		.loc 1 595 0
 3068              		.cfi_startproc
 3069              		@ args = 0, pretend = 0, frame = 0
 3070              		@ frame_needed = 0, uses_anonymous_args = 0
 3071              		@ link register save eliminated.
 3072              	.LVL196:
 596:/Users/imashio/Electronics/ARM/_Library/u8g2_d_memory.c ****   static uint8_t buf[11520];
 597:/Users/imashio/Electronics/ARM/_Library/u8g2_d_memory.c ****   *page_cnt = 30;
 3073              		.loc 1 597 0
 3074 0000 1E23     		movs	r3, #30
 3075 0002 0370     		strb	r3, [r0]
 598:/Users/imashio/Electronics/ARM/_Library/u8g2_d_memory.c ****   return buf;
 599:/Users/imashio/Electronics/ARM/_Library/u8g2_d_memory.c **** }
ARM GAS  /var/folders/v3/wysfpd052nz8jkbx04pk0ym80000gn/T//ccJItEm3.s 			page 62


 3076              		.loc 1 599 0
 3077 0004 0048     		ldr	r0, .L297
 3078              	.LVL197:
 3079 0006 7047     		bx	lr
 3080              	.L298:
 3081              		.align	2
 3082              	.L297:
 3083 0008 00000000 		.word	buf.10061
 3084              		.cfi_endproc
 3085              	.LFE98:
 3087              		.section	.bss.buf.10001,"aw",%nobits
 3088              		.align	2
 3089              		.set	.LANCHOR81,. + 0
 3092              	buf.10001:
 3093 0000 00000000 		.space	1584
 3093      00000000 
 3093      00000000 
 3093      00000000 
 3093      00000000 
 3094              		.section	.bss.buf.10005,"aw",%nobits
 3095              		.align	2
 3096              		.set	.LANCHOR82,. + 0
 3099              	buf.10005:
 3100 0000 00000000 		.space	200
 3100      00000000 
 3100      00000000 
 3100      00000000 
 3100      00000000 
 3101              		.section	.bss.buf.10009,"aw",%nobits
 3102              		.align	2
 3103              		.set	.LANCHOR83,. + 0
 3106              	buf.10009:
 3107 0000 00000000 		.space	400
 3107      00000000 
 3107      00000000 
 3107      00000000 
 3107      00000000 
 3108              		.section	.bss.buf.10013,"aw",%nobits
 3109              		.align	2
 3112              	buf.10013:
 3113 0000 00000000 		.space	5000
 3113      00000000 
 3113      00000000 
 3113      00000000 
 3113      00000000 
 3114              		.section	.bss.buf.10017,"aw",%nobits
 3115              		.align	2
 3116              		.set	.LANCHOR84,. + 0
 3119              	buf.10017:
 3120 0000 00000000 		.space	296
 3120      00000000 
 3120      00000000 
 3120      00000000 
 3120      00000000 
 3121              		.section	.bss.buf.10021,"aw",%nobits
 3122              		.align	2
 3123              		.set	.LANCHOR85,. + 0
ARM GAS  /var/folders/v3/wysfpd052nz8jkbx04pk0ym80000gn/T//ccJItEm3.s 			page 63


 3126              	buf.10021:
 3127 0000 00000000 		.space	592
 3127      00000000 
 3127      00000000 
 3127      00000000 
 3127      00000000 
 3128              		.section	.bss.buf.10025,"aw",%nobits
 3129              		.align	2
 3132              	buf.10025:
 3133 0000 00000000 		.space	4736
 3133      00000000 
 3133      00000000 
 3133      00000000 
 3133      00000000 
 3134              		.section	.bss.buf.10029,"aw",%nobits
 3135              		.align	2
 3136              		.set	.LANCHOR86,. + 0
 3139              	buf.10029:
 3140 0000 00000000 		.space	320
 3140      00000000 
 3140      00000000 
 3140      00000000 
 3140      00000000 
 3141              		.section	.bss.buf.10033,"aw",%nobits
 3142              		.align	2
 3143              		.set	.LANCHOR87,. + 0
 3146              	buf.10033:
 3147 0000 00000000 		.space	640
 3147      00000000 
 3147      00000000 
 3147      00000000 
 3147      00000000 
 3148              		.section	.bss.buf.10037,"aw",%nobits
 3149              		.align	2
 3152              	buf.10037:
 3153 0000 00000000 		.space	9600
 3153      00000000 
 3153      00000000 
 3153      00000000 
 3153      00000000 
 3154              		.section	.bss.buf.10041,"aw",%nobits
 3155              		.align	2
 3156              		.set	.LANCHOR88,. + 0
 3159              	buf.10041:
 3160 0000 00000000 		.space	32
 3160      00000000 
 3160      00000000 
 3160      00000000 
 3160      00000000 
 3161              		.section	.bss.buf.10045,"aw",%nobits
 3162              		.align	2
 3163              		.set	.LANCHOR89,. + 0
 3166              	buf.10045:
 3167 0000 00000000 		.space	64
 3167      00000000 
 3167      00000000 
 3167      00000000 
ARM GAS  /var/folders/v3/wysfpd052nz8jkbx04pk0ym80000gn/T//ccJItEm3.s 			page 64


 3167      00000000 
 3168              		.section	.bss.buf.10049,"aw",%nobits
 3169              		.align	2
 3170              		.set	.LANCHOR90,. + 0
 3173              	buf.10049:
 3174 0000 00000000 		.space	32
 3174      00000000 
 3174      00000000 
 3174      00000000 
 3174      00000000 
 3175              		.section	.bss.buf.10053,"aw",%nobits
 3176              		.align	2
 3177              		.set	.LANCHOR91,. + 0
 3180              	buf.10053:
 3181 0000 00000000 		.space	384
 3181      00000000 
 3181      00000000 
 3181      00000000 
 3181      00000000 
 3182              		.section	.bss.buf.10057,"aw",%nobits
 3183              		.align	2
 3184              		.set	.LANCHOR92,. + 0
 3187              	buf.10057:
 3188 0000 00000000 		.space	768
 3188      00000000 
 3188      00000000 
 3188      00000000 
 3188      00000000 
 3189              		.section	.bss.buf.10061,"aw",%nobits
 3190              		.align	2
 3193              	buf.10061:
 3194 0000 00000000 		.space	11520
 3194      00000000 
 3194      00000000 
 3194      00000000 
 3194      00000000 
 3195              		.section	.bss.buf.9669,"aw",%nobits
 3196              		.align	2
 3197              		.set	.LANCHOR0,. + 0
 3200              	buf.9669:
 3201 0000 00000000 		.space	128
 3201      00000000 
 3201      00000000 
 3201      00000000 
 3201      00000000 
 3202              		.section	.bss.buf.9673,"aw",%nobits
 3203              		.align	2
 3204              		.set	.LANCHOR1,. + 0
 3207              	buf.9673:
 3208 0000 00000000 		.space	256
 3208      00000000 
 3208      00000000 
 3208      00000000 
 3208      00000000 
 3209              		.section	.bss.buf.9677,"aw",%nobits
 3210              		.align	2
 3211              		.set	.LANCHOR2,. + 0
ARM GAS  /var/folders/v3/wysfpd052nz8jkbx04pk0ym80000gn/T//ccJItEm3.s 			page 65


 3214              	buf.9677:
 3215 0000 00000000 		.space	512
 3215      00000000 
 3215      00000000 
 3215      00000000 
 3215      00000000 
 3216              		.section	.bss.buf.9681,"aw",%nobits
 3217              		.align	2
 3218              		.set	.LANCHOR3,. + 0
 3221              	buf.9681:
 3222 0000 00000000 		.space	128
 3222      00000000 
 3222      00000000 
 3222      00000000 
 3222      00000000 
 3223              		.section	.bss.buf.9685,"aw",%nobits
 3224              		.align	2
 3225              		.set	.LANCHOR4,. + 0
 3228              	buf.9685:
 3229 0000 00000000 		.space	256
 3229      00000000 
 3229      00000000 
 3229      00000000 
 3229      00000000 
 3230              		.section	.bss.buf.9689,"aw",%nobits
 3231              		.align	2
 3232              		.set	.LANCHOR5,. + 0
 3235              	buf.9689:
 3236 0000 00000000 		.space	1024
 3236      00000000 
 3236      00000000 
 3236      00000000 
 3236      00000000 
 3237              		.section	.bss.buf.9693,"aw",%nobits
 3238              		.align	2
 3239              		.set	.LANCHOR6,. + 0
 3242              	buf.9693:
 3243 0000 00000000 		.space	96
 3243      00000000 
 3243      00000000 
 3243      00000000 
 3243      00000000 
 3244              		.section	.bss.buf.9697,"aw",%nobits
 3245              		.align	2
 3246              		.set	.LANCHOR7,. + 0
 3249              	buf.9697:
 3250 0000 00000000 		.space	192
 3250      00000000 
 3250      00000000 
 3250      00000000 
 3250      00000000 
 3251              		.section	.bss.buf.9701,"aw",%nobits
 3252              		.align	2
 3253              		.set	.LANCHOR8,. + 0
 3256              	buf.9701:
 3257 0000 00000000 		.space	1152
 3257      00000000 
ARM GAS  /var/folders/v3/wysfpd052nz8jkbx04pk0ym80000gn/T//ccJItEm3.s 			page 66


 3257      00000000 
 3257      00000000 
 3257      00000000 
 3258              		.section	.bss.buf.9705,"aw",%nobits
 3259              		.align	2
 3260              		.set	.LANCHOR9,. + 0
 3263              	buf.9705:
 3264 0000 00000000 		.space	64
 3264      00000000 
 3264      00000000 
 3264      00000000 
 3264      00000000 
 3265              		.section	.bss.buf.9709,"aw",%nobits
 3266              		.align	2
 3267              		.set	.LANCHOR10,. + 0
 3270              	buf.9709:
 3271 0000 00000000 		.space	128
 3271      00000000 
 3271      00000000 
 3271      00000000 
 3271      00000000 
 3272              		.section	.bss.buf.9713,"aw",%nobits
 3273              		.align	2
 3274              		.set	.LANCHOR11,. + 0
 3277              	buf.9713:
 3278 0000 00000000 		.space	384
 3278      00000000 
 3278      00000000 
 3278      00000000 
 3278      00000000 
 3279              		.section	.bss.buf.9717,"aw",%nobits
 3280              		.align	2
 3281              		.set	.LANCHOR12,. + 0
 3284              	buf.9717:
 3285 0000 00000000 		.space	64
 3285      00000000 
 3285      00000000 
 3285      00000000 
 3285      00000000 
 3286              		.section	.bss.buf.9721,"aw",%nobits
 3287              		.align	2
 3288              		.set	.LANCHOR13,. + 0
 3291              	buf.9721:
 3292 0000 00000000 		.space	128
 3292      00000000 
 3292      00000000 
 3292      00000000 
 3292      00000000 
 3293              		.section	.bss.buf.9725,"aw",%nobits
 3294              		.align	2
 3295              		.set	.LANCHOR14,. + 0
 3298              	buf.9725:
 3299 0000 00000000 		.space	256
 3299      00000000 
 3299      00000000 
 3299      00000000 
 3299      00000000 
ARM GAS  /var/folders/v3/wysfpd052nz8jkbx04pk0ym80000gn/T//ccJItEm3.s 			page 67


 3300              		.section	.bss.buf.9729,"aw",%nobits
 3301              		.align	2
 3302              		.set	.LANCHOR15,. + 0
 3305              	buf.9729:
 3306 0000 00000000 		.space	96
 3306      00000000 
 3306      00000000 
 3306      00000000 
 3306      00000000 
 3307              		.section	.bss.buf.9733,"aw",%nobits
 3308              		.align	2
 3309              		.set	.LANCHOR16,. + 0
 3312              	buf.9733:
 3313 0000 00000000 		.space	192
 3313      00000000 
 3313      00000000 
 3313      00000000 
 3313      00000000 
 3314              		.section	.bss.buf.9737,"aw",%nobits
 3315              		.align	2
 3316              		.set	.LANCHOR17,. + 0
 3319              	buf.9737:
 3320 0000 00000000 		.space	192
 3320      00000000 
 3320      00000000 
 3320      00000000 
 3320      00000000 
 3321              		.section	.bss.buf.9741,"aw",%nobits
 3322              		.align	2
 3323              		.set	.LANCHOR18,. + 0
 3326              	buf.9741:
 3327 0000 00000000 		.space	256
 3327      00000000 
 3327      00000000 
 3327      00000000 
 3327      00000000 
 3328              		.section	.bss.buf.9745,"aw",%nobits
 3329              		.align	2
 3330              		.set	.LANCHOR19,. + 0
 3333              	buf.9745:
 3334 0000 00000000 		.space	512
 3334      00000000 
 3334      00000000 
 3334      00000000 
 3334      00000000 
 3335              		.section	.bss.buf.9749,"aw",%nobits
 3336              		.align	2
 3337              		.set	.LANCHOR20,. + 0
 3340              	buf.9749:
 3341 0000 00000000 		.space	1024
 3341      00000000 
 3341      00000000 
 3341      00000000 
 3341      00000000 
 3342              		.section	.bss.buf.9753,"aw",%nobits
 3343              		.align	2
 3344              		.set	.LANCHOR21,. + 0
ARM GAS  /var/folders/v3/wysfpd052nz8jkbx04pk0ym80000gn/T//ccJItEm3.s 			page 68


 3347              	buf.9753:
 3348 0000 00000000 		.space	128
 3348      00000000 
 3348      00000000 
 3348      00000000 
 3348      00000000 
 3349              		.section	.bss.buf.9757,"aw",%nobits
 3350              		.align	2
 3351              		.set	.LANCHOR22,. + 0
 3354              	buf.9757:
 3355 0000 00000000 		.space	256
 3355      00000000 
 3355      00000000 
 3355      00000000 
 3355      00000000 
 3356              		.section	.bss.buf.9761,"aw",%nobits
 3357              		.align	2
 3358              		.set	.LANCHOR23,. + 0
 3361              	buf.9761:
 3362 0000 00000000 		.space	2048
 3362      00000000 
 3362      00000000 
 3362      00000000 
 3362      00000000 
 3363              		.section	.bss.buf.9765,"aw",%nobits
 3364              		.align	2
 3365              		.set	.LANCHOR24,. + 0
 3368              	buf.9765:
 3369 0000 00000000 		.space	128
 3369      00000000 
 3369      00000000 
 3369      00000000 
 3369      00000000 
 3370              		.section	.bss.buf.9769,"aw",%nobits
 3371              		.align	2
 3372              		.set	.LANCHOR25,. + 0
 3375              	buf.9769:
 3376 0000 00000000 		.space	256
 3376      00000000 
 3376      00000000 
 3376      00000000 
 3376      00000000 
 3377              		.section	.bss.buf.9773,"aw",%nobits
 3378              		.align	2
 3379              		.set	.LANCHOR26,. + 0
 3382              	buf.9773:
 3383 0000 00000000 		.space	1536
 3383      00000000 
 3383      00000000 
 3383      00000000 
 3383      00000000 
 3384              		.section	.bss.buf.9777,"aw",%nobits
 3385              		.align	2
 3386              		.set	.LANCHOR27,. + 0
 3389              	buf.9777:
 3390 0000 00000000 		.space	192
 3390      00000000 
ARM GAS  /var/folders/v3/wysfpd052nz8jkbx04pk0ym80000gn/T//ccJItEm3.s 			page 69


 3390      00000000 
 3390      00000000 
 3390      00000000 
 3391              		.section	.bss.buf.9781,"aw",%nobits
 3392              		.align	2
 3393              		.set	.LANCHOR28,. + 0
 3396              	buf.9781:
 3397 0000 00000000 		.space	384
 3397      00000000 
 3397      00000000 
 3397      00000000 
 3397      00000000 
 3398              		.section	.bss.buf.9785,"aw",%nobits
 3399              		.align	2
 3400              		.set	.LANCHOR29,. + 0
 3403              	buf.9785:
 3404 0000 00000000 		.space	768
 3404      00000000 
 3404      00000000 
 3404      00000000 
 3404      00000000 
 3405              		.section	.bss.buf.9789,"aw",%nobits
 3406              		.align	2
 3407              		.set	.LANCHOR30,. + 0
 3410              	buf.9789:
 3411 0000 00000000 		.space	104
 3411      00000000 
 3411      00000000 
 3411      00000000 
 3411      00000000 
 3412              		.section	.bss.buf.9793,"aw",%nobits
 3413              		.align	2
 3414              		.set	.LANCHOR31,. + 0
 3417              	buf.9793:
 3418 0000 00000000 		.space	208
 3418      00000000 
 3418      00000000 
 3418      00000000 
 3418      00000000 
 3419              		.section	.bss.buf.9797,"aw",%nobits
 3420              		.align	2
 3421              		.set	.LANCHOR32,. + 0
 3424              	buf.9797:
 3425 0000 00000000 		.space	832
 3425      00000000 
 3425      00000000 
 3425      00000000 
 3425      00000000 
 3426              		.section	.bss.buf.9801,"aw",%nobits
 3427              		.align	2
 3428              		.set	.LANCHOR33,. + 0
 3431              	buf.9801:
 3432 0000 00000000 		.space	88
 3432      00000000 
 3432      00000000 
 3432      00000000 
 3432      00000000 
ARM GAS  /var/folders/v3/wysfpd052nz8jkbx04pk0ym80000gn/T//ccJItEm3.s 			page 70


 3433              		.section	.bss.buf.9805,"aw",%nobits
 3434              		.align	2
 3435              		.set	.LANCHOR34,. + 0
 3438              	buf.9805:
 3439 0000 00000000 		.space	176
 3439      00000000 
 3439      00000000 
 3439      00000000 
 3439      00000000 
 3440              		.section	.bss.buf.9809,"aw",%nobits
 3441              		.align	2
 3442              		.set	.LANCHOR35,. + 0
 3445              	buf.9809:
 3446 0000 00000000 		.space	528
 3446      00000000 
 3446      00000000 
 3446      00000000 
 3446      00000000 
 3447              		.section	.bss.buf.9813,"aw",%nobits
 3448              		.align	2
 3449              		.set	.LANCHOR36,. + 0
 3452              	buf.9813:
 3453 0000 00000000 		.space	96
 3453      00000000 
 3453      00000000 
 3453      00000000 
 3453      00000000 
 3454              		.section	.bss.buf.9817,"aw",%nobits
 3455              		.align	2
 3456              		.set	.LANCHOR37,. + 0
 3459              	buf.9817:
 3460 0000 00000000 		.space	192
 3460      00000000 
 3460      00000000 
 3460      00000000 
 3460      00000000 
 3461              		.section	.bss.buf.9821,"aw",%nobits
 3462              		.align	2
 3463              		.set	.LANCHOR38,. + 0
 3466              	buf.9821:
 3467 0000 00000000 		.space	864
 3467      00000000 
 3467      00000000 
 3467      00000000 
 3467      00000000 
 3468              		.section	.bss.buf.9825,"aw",%nobits
 3469              		.align	2
 3470              		.set	.LANCHOR39,. + 0
 3473              	buf.9825:
 3474 0000 00000000 		.space	192
 3474      00000000 
 3474      00000000 
 3474      00000000 
 3474      00000000 
 3475              		.section	.bss.buf.9829,"aw",%nobits
 3476              		.align	2
 3477              		.set	.LANCHOR40,. + 0
ARM GAS  /var/folders/v3/wysfpd052nz8jkbx04pk0ym80000gn/T//ccJItEm3.s 			page 71


 3480              	buf.9829:
 3481 0000 00000000 		.space	384
 3481      00000000 
 3481      00000000 
 3481      00000000 
 3481      00000000 
 3482              		.section	.bss.buf.9833,"aw",%nobits
 3483              		.align	2
 3484              		.set	.LANCHOR41,. + 0
 3487              	buf.9833:
 3488 0000 00000000 		.space	1536
 3488      00000000 
 3488      00000000 
 3488      00000000 
 3488      00000000 
 3489              		.section	.bss.buf.9837,"aw",%nobits
 3490              		.align	2
 3491              		.set	.LANCHOR42,. + 0
 3494              	buf.9837:
 3495 0000 00000000 		.space	240
 3495      00000000 
 3495      00000000 
 3495      00000000 
 3495      00000000 
 3496              		.section	.bss.buf.9841,"aw",%nobits
 3497              		.align	2
 3498              		.set	.LANCHOR43,. + 0
 3501              	buf.9841:
 3502 0000 00000000 		.space	480
 3502      00000000 
 3502      00000000 
 3502      00000000 
 3502      00000000 
 3503              		.section	.bss.buf.9845,"aw",%nobits
 3504              		.align	2
 3505              		.set	.LANCHOR44,. + 0
 3508              	buf.9845:
 3509 0000 00000000 		.space	1920
 3509      00000000 
 3509      00000000 
 3509      00000000 
 3509      00000000 
 3510              		.section	.bss.buf.9849,"aw",%nobits
 3511              		.align	2
 3512              		.set	.LANCHOR45,. + 0
 3515              	buf.9849:
 3516 0000 00000000 		.space	240
 3516      00000000 
 3516      00000000 
 3516      00000000 
 3516      00000000 
 3517              		.section	.bss.buf.9853,"aw",%nobits
 3518              		.align	2
 3519              		.set	.LANCHOR46,. + 0
 3522              	buf.9853:
 3523 0000 00000000 		.space	480
 3523      00000000 
ARM GAS  /var/folders/v3/wysfpd052nz8jkbx04pk0ym80000gn/T//ccJItEm3.s 			page 72


 3523      00000000 
 3523      00000000 
 3523      00000000 
 3524              		.section	.bss.buf.9857,"aw",%nobits
 3525              		.align	2
 3526              		.set	.LANCHOR47,. + 0
 3529              	buf.9857:
 3530 0000 00000000 		.space	3600
 3530      00000000 
 3530      00000000 
 3530      00000000 
 3530      00000000 
 3531              		.section	.bss.buf.9861,"aw",%nobits
 3532              		.align	2
 3533              		.set	.LANCHOR48,. + 0
 3536              	buf.9861:
 3537 0000 00000000 		.space	240
 3537      00000000 
 3537      00000000 
 3537      00000000 
 3537      00000000 
 3538              		.section	.bss.buf.9865,"aw",%nobits
 3539              		.align	2
 3540              		.set	.LANCHOR49,. + 0
 3543              	buf.9865:
 3544 0000 00000000 		.space	480
 3544      00000000 
 3544      00000000 
 3544      00000000 
 3544      00000000 
 3545              		.section	.bss.buf.9869,"aw",%nobits
 3546              		.align	2
 3547              		.set	.LANCHOR50,. + 0
 3550              	buf.9869:
 3551 0000 00000000 		.space	3840
 3551      00000000 
 3551      00000000 
 3551      00000000 
 3551      00000000 
 3552              		.section	.bss.buf.9873,"aw",%nobits
 3553              		.align	2
 3554              		.set	.LANCHOR51,. + 0
 3557              	buf.9873:
 3558 0000 00000000 		.space	160
 3558      00000000 
 3558      00000000 
 3558      00000000 
 3558      00000000 
 3559              		.section	.bss.buf.9877,"aw",%nobits
 3560              		.align	2
 3561              		.set	.LANCHOR52,. + 0
 3564              	buf.9877:
 3565 0000 00000000 		.space	320
 3565      00000000 
 3565      00000000 
 3565      00000000 
 3565      00000000 
ARM GAS  /var/folders/v3/wysfpd052nz8jkbx04pk0ym80000gn/T//ccJItEm3.s 			page 73


 3566              		.section	.bss.buf.9881,"aw",%nobits
 3567              		.align	2
 3568              		.set	.LANCHOR53,. + 0
 3571              	buf.9881:
 3572 0000 00000000 		.space	2560
 3572      00000000 
 3572      00000000 
 3572      00000000 
 3572      00000000 
 3573              		.section	.bss.buf.9885,"aw",%nobits
 3574              		.align	2
 3575              		.set	.LANCHOR54,. + 0
 3578              	buf.9885:
 3579 0000 00000000 		.space	160
 3579      00000000 
 3579      00000000 
 3579      00000000 
 3579      00000000 
 3580              		.section	.bss.buf.9889,"aw",%nobits
 3581              		.align	2
 3582              		.set	.LANCHOR55,. + 0
 3585              	buf.9889:
 3586 0000 00000000 		.space	320
 3586      00000000 
 3586      00000000 
 3586      00000000 
 3586      00000000 
 3587              		.section	.bss.buf.9893,"aw",%nobits
 3588              		.align	2
 3589              		.set	.LANCHOR56,. + 0
 3592              	buf.9893:
 3593 0000 00000000 		.space	2080
 3593      00000000 
 3593      00000000 
 3593      00000000 
 3593      00000000 
 3594              		.section	.bss.buf.9897,"aw",%nobits
 3595              		.align	2
 3596              		.set	.LANCHOR57,. + 0
 3599              	buf.9897:
 3600 0000 00000000 		.space	240
 3600      00000000 
 3600      00000000 
 3600      00000000 
 3600      00000000 
 3601              		.section	.bss.buf.9901,"aw",%nobits
 3602              		.align	2
 3603              		.set	.LANCHOR58,. + 0
 3606              	buf.9901:
 3607 0000 00000000 		.space	480
 3607      00000000 
 3607      00000000 
 3607      00000000 
 3607      00000000 
 3608              		.section	.bss.buf.9905,"aw",%nobits
 3609              		.align	2
 3612              	buf.9905:
ARM GAS  /var/folders/v3/wysfpd052nz8jkbx04pk0ym80000gn/T//ccJItEm3.s 			page 74


 3613 0000 00000000 		.space	4800
 3613      00000000 
 3613      00000000 
 3613      00000000 
 3613      00000000 
 3614              		.section	.bss.buf.9909,"aw",%nobits
 3615              		.align	2
 3616              		.set	.LANCHOR59,. + 0
 3619              	buf.9909:
 3620 0000 00000000 		.space	136
 3620      00000000 
 3620      00000000 
 3620      00000000 
 3620      00000000 
 3621              		.section	.bss.buf.9913,"aw",%nobits
 3622              		.align	2
 3623              		.set	.LANCHOR60,. + 0
 3626              	buf.9913:
 3627 0000 00000000 		.space	272
 3627      00000000 
 3627      00000000 
 3627      00000000 
 3627      00000000 
 3628              		.section	.bss.buf.9917,"aw",%nobits
 3629              		.align	2
 3630              		.set	.LANCHOR61,. + 0
 3633              	buf.9917:
 3634 0000 00000000 		.space	544
 3634      00000000 
 3634      00000000 
 3634      00000000 
 3634      00000000 
 3635              		.section	.bss.buf.9921,"aw",%nobits
 3636              		.align	2
 3637              		.set	.LANCHOR62,. + 0
 3640              	buf.9921:
 3641 0000 00000000 		.space	136
 3641      00000000 
 3641      00000000 
 3641      00000000 
 3641      00000000 
 3642              		.section	.bss.buf.9925,"aw",%nobits
 3643              		.align	2
 3644              		.set	.LANCHOR63,. + 0
 3647              	buf.9925:
 3648 0000 00000000 		.space	272
 3648      00000000 
 3648      00000000 
 3648      00000000 
 3648      00000000 
 3649              		.section	.bss.buf.9929,"aw",%nobits
 3650              		.align	2
 3651              		.set	.LANCHOR64,. + 0
 3654              	buf.9929:
 3655 0000 00000000 		.space	1088
 3655      00000000 
 3655      00000000 
ARM GAS  /var/folders/v3/wysfpd052nz8jkbx04pk0ym80000gn/T//ccJItEm3.s 			page 75


 3655      00000000 
 3655      00000000 
 3656              		.section	.bss.buf.9933,"aw",%nobits
 3657              		.align	2
 3658              		.set	.LANCHOR65,. + 0
 3661              	buf.9933:
 3662 0000 00000000 		.space	256
 3662      00000000 
 3662      00000000 
 3662      00000000 
 3662      00000000 
 3663              		.section	.bss.buf.9937,"aw",%nobits
 3664              		.align	2
 3665              		.set	.LANCHOR66,. + 0
 3668              	buf.9937:
 3669 0000 00000000 		.space	512
 3669      00000000 
 3669      00000000 
 3669      00000000 
 3669      00000000 
 3670              		.section	.bss.buf.9941,"aw",%nobits
 3671              		.align	2
 3674              	buf.9941:
 3675 0000 00000000 		.space	4096
 3675      00000000 
 3675      00000000 
 3675      00000000 
 3675      00000000 
 3676              		.section	.bss.buf.9945,"aw",%nobits
 3677              		.align	2
 3678              		.set	.LANCHOR67,. + 0
 3681              	buf.9945:
 3682 0000 00000000 		.space	256
 3682      00000000 
 3682      00000000 
 3682      00000000 
 3682      00000000 
 3683              		.section	.bss.buf.9949,"aw",%nobits
 3684              		.align	2
 3685              		.set	.LANCHOR68,. + 0
 3688              	buf.9949:
 3689 0000 00000000 		.space	512
 3689      00000000 
 3689      00000000 
 3689      00000000 
 3689      00000000 
 3690              		.section	.bss.buf.9953,"aw",%nobits
 3691              		.align	2
 3692              		.set	.LANCHOR69,. + 0
 3695              	buf.9953:
 3696 0000 00000000 		.space	2048
 3696      00000000 
 3696      00000000 
 3696      00000000 
 3696      00000000 
 3697              		.section	.bss.buf.9957,"aw",%nobits
 3698              		.align	2
ARM GAS  /var/folders/v3/wysfpd052nz8jkbx04pk0ym80000gn/T//ccJItEm3.s 			page 76


 3699              		.set	.LANCHOR70,. + 0
 3702              	buf.9957:
 3703 0000 00000000 		.space	176
 3703      00000000 
 3703      00000000 
 3703      00000000 
 3703      00000000 
 3704              		.section	.bss.buf.9961,"aw",%nobits
 3705              		.align	2
 3706              		.set	.LANCHOR71,. + 0
 3709              	buf.9961:
 3710 0000 00000000 		.space	352
 3710      00000000 
 3710      00000000 
 3710      00000000 
 3710      00000000 
 3711              		.section	.bss.buf.9965,"aw",%nobits
 3712              		.align	2
 3713              		.set	.LANCHOR72,. + 0
 3716              	buf.9965:
 3717 0000 00000000 		.space	2288
 3717      00000000 
 3717      00000000 
 3717      00000000 
 3717      00000000 
 3718              		.section	.bss.buf.9969,"aw",%nobits
 3719              		.align	2
 3720              		.set	.LANCHOR73,. + 0
 3723              	buf.9969:
 3724 0000 00000000 		.space	160
 3724      00000000 
 3724      00000000 
 3724      00000000 
 3724      00000000 
 3725              		.section	.bss.buf.9973,"aw",%nobits
 3726              		.align	2
 3727              		.set	.LANCHOR74,. + 0
 3730              	buf.9973:
 3731 0000 00000000 		.space	320
 3731      00000000 
 3731      00000000 
 3731      00000000 
 3731      00000000 
 3732              		.section	.bss.buf.9977,"aw",%nobits
 3733              		.align	2
 3734              		.set	.LANCHOR75,. + 0
 3737              	buf.9977:
 3738 0000 00000000 		.space	1600
 3738      00000000 
 3738      00000000 
 3738      00000000 
 3738      00000000 
 3739              		.section	.bss.buf.9981,"aw",%nobits
 3740              		.align	2
 3741              		.set	.LANCHOR76,. + 0
 3744              	buf.9981:
 3745 0000 00000000 		.space	160
ARM GAS  /var/folders/v3/wysfpd052nz8jkbx04pk0ym80000gn/T//ccJItEm3.s 			page 77


 3745      00000000 
 3745      00000000 
 3745      00000000 
 3745      00000000 
 3746              		.section	.bss.buf.9985,"aw",%nobits
 3747              		.align	2
 3748              		.set	.LANCHOR77,. + 0
 3751              	buf.9985:
 3752 0000 00000000 		.space	320
 3752      00000000 
 3752      00000000 
 3752      00000000 
 3752      00000000 
 3753              		.section	.bss.buf.9989,"aw",%nobits
 3754              		.align	2
 3755              		.set	.LANCHOR78,. + 0
 3758              	buf.9989:
 3759 0000 00000000 		.space	3200
 3759      00000000 
 3759      00000000 
 3759      00000000 
 3759      00000000 
 3760              		.section	.bss.buf.9993,"aw",%nobits
 3761              		.align	2
 3762              		.set	.LANCHOR79,. + 0
 3765              	buf.9993:
 3766 0000 00000000 		.space	176
 3766      00000000 
 3766      00000000 
 3766      00000000 
 3766      00000000 
 3767              		.section	.bss.buf.9997,"aw",%nobits
 3768              		.align	2
 3769              		.set	.LANCHOR80,. + 0
 3772              	buf.9997:
 3773 0000 00000000 		.space	352
 3773      00000000 
 3773      00000000 
 3773      00000000 
 3773      00000000 
 3774              		.text
 3775              	.Letext0:
 3776              		.file 2 "/usr/local/gcc-arm-none-eabi-7-2018-q2-update/arm-none-eabi/include/machine/_default_type
 3777              		.file 3 "/usr/local/gcc-arm-none-eabi-7-2018-q2-update/arm-none-eabi/include/sys/_stdint.h"
 3778              		.file 4 "/Users/imashio/Electronics/ARM/_Library/u8x8.h"
 3779              		.file 5 "/Users/imashio/Electronics/ARM/_Library/u8g2.h"
ARM GAS  /var/folders/v3/wysfpd052nz8jkbx04pk0ym80000gn/T//ccJItEm3.s 			page 78


DEFINED SYMBOLS
                            *ABS*:0000000000000000 u8g2_d_memory.c
/var/folders/v3/wysfpd052nz8jkbx04pk0ym80000gn/T//ccJItEm3.s:18     .text.u8g2_m_16_4_1:0000000000000000 $t
/var/folders/v3/wysfpd052nz8jkbx04pk0ym80000gn/T//ccJItEm3.s:26     .text.u8g2_m_16_4_1:0000000000000000 u8g2_m_16_4_1
/var/folders/v3/wysfpd052nz8jkbx04pk0ym80000gn/T//ccJItEm3.s:45     .text.u8g2_m_16_4_1:0000000000000008 $d
/var/folders/v3/wysfpd052nz8jkbx04pk0ym80000gn/T//ccJItEm3.s:50     .text.u8g2_m_16_4_2:0000000000000000 $t
/var/folders/v3/wysfpd052nz8jkbx04pk0ym80000gn/T//ccJItEm3.s:58     .text.u8g2_m_16_4_2:0000000000000000 u8g2_m_16_4_2
/var/folders/v3/wysfpd052nz8jkbx04pk0ym80000gn/T//ccJItEm3.s:76     .text.u8g2_m_16_4_2:0000000000000008 $d
/var/folders/v3/wysfpd052nz8jkbx04pk0ym80000gn/T//ccJItEm3.s:81     .text.u8g2_m_16_4_f:0000000000000000 $t
/var/folders/v3/wysfpd052nz8jkbx04pk0ym80000gn/T//ccJItEm3.s:89     .text.u8g2_m_16_4_f:0000000000000000 u8g2_m_16_4_f
/var/folders/v3/wysfpd052nz8jkbx04pk0ym80000gn/T//ccJItEm3.s:107    .text.u8g2_m_16_4_f:0000000000000008 $d
/var/folders/v3/wysfpd052nz8jkbx04pk0ym80000gn/T//ccJItEm3.s:112    .text.u8g2_m_16_8_1:0000000000000000 $t
/var/folders/v3/wysfpd052nz8jkbx04pk0ym80000gn/T//ccJItEm3.s:120    .text.u8g2_m_16_8_1:0000000000000000 u8g2_m_16_8_1
/var/folders/v3/wysfpd052nz8jkbx04pk0ym80000gn/T//ccJItEm3.s:138    .text.u8g2_m_16_8_1:0000000000000008 $d
/var/folders/v3/wysfpd052nz8jkbx04pk0ym80000gn/T//ccJItEm3.s:143    .text.u8g2_m_16_8_2:0000000000000000 $t
/var/folders/v3/wysfpd052nz8jkbx04pk0ym80000gn/T//ccJItEm3.s:151    .text.u8g2_m_16_8_2:0000000000000000 u8g2_m_16_8_2
/var/folders/v3/wysfpd052nz8jkbx04pk0ym80000gn/T//ccJItEm3.s:169    .text.u8g2_m_16_8_2:0000000000000008 $d
/var/folders/v3/wysfpd052nz8jkbx04pk0ym80000gn/T//ccJItEm3.s:174    .text.u8g2_m_16_8_f:0000000000000000 $t
/var/folders/v3/wysfpd052nz8jkbx04pk0ym80000gn/T//ccJItEm3.s:182    .text.u8g2_m_16_8_f:0000000000000000 u8g2_m_16_8_f
/var/folders/v3/wysfpd052nz8jkbx04pk0ym80000gn/T//ccJItEm3.s:200    .text.u8g2_m_16_8_f:0000000000000008 $d
/var/folders/v3/wysfpd052nz8jkbx04pk0ym80000gn/T//ccJItEm3.s:205    .text.u8g2_m_12_12_1:0000000000000000 $t
/var/folders/v3/wysfpd052nz8jkbx04pk0ym80000gn/T//ccJItEm3.s:213    .text.u8g2_m_12_12_1:0000000000000000 u8g2_m_12_12_1
/var/folders/v3/wysfpd052nz8jkbx04pk0ym80000gn/T//ccJItEm3.s:231    .text.u8g2_m_12_12_1:0000000000000008 $d
/var/folders/v3/wysfpd052nz8jkbx04pk0ym80000gn/T//ccJItEm3.s:236    .text.u8g2_m_12_12_2:0000000000000000 $t
/var/folders/v3/wysfpd052nz8jkbx04pk0ym80000gn/T//ccJItEm3.s:244    .text.u8g2_m_12_12_2:0000000000000000 u8g2_m_12_12_2
/var/folders/v3/wysfpd052nz8jkbx04pk0ym80000gn/T//ccJItEm3.s:262    .text.u8g2_m_12_12_2:0000000000000008 $d
/var/folders/v3/wysfpd052nz8jkbx04pk0ym80000gn/T//ccJItEm3.s:267    .text.u8g2_m_12_12_f:0000000000000000 $t
/var/folders/v3/wysfpd052nz8jkbx04pk0ym80000gn/T//ccJItEm3.s:275    .text.u8g2_m_12_12_f:0000000000000000 u8g2_m_12_12_f
/var/folders/v3/wysfpd052nz8jkbx04pk0ym80000gn/T//ccJItEm3.s:293    .text.u8g2_m_12_12_f:0000000000000008 $d
/var/folders/v3/wysfpd052nz8jkbx04pk0ym80000gn/T//ccJItEm3.s:298    .text.u8g2_m_8_6_1:0000000000000000 $t
/var/folders/v3/wysfpd052nz8jkbx04pk0ym80000gn/T//ccJItEm3.s:306    .text.u8g2_m_8_6_1:0000000000000000 u8g2_m_8_6_1
/var/folders/v3/wysfpd052nz8jkbx04pk0ym80000gn/T//ccJItEm3.s:324    .text.u8g2_m_8_6_1:0000000000000008 $d
/var/folders/v3/wysfpd052nz8jkbx04pk0ym80000gn/T//ccJItEm3.s:329    .text.u8g2_m_8_6_2:0000000000000000 $t
/var/folders/v3/wysfpd052nz8jkbx04pk0ym80000gn/T//ccJItEm3.s:337    .text.u8g2_m_8_6_2:0000000000000000 u8g2_m_8_6_2
/var/folders/v3/wysfpd052nz8jkbx04pk0ym80000gn/T//ccJItEm3.s:355    .text.u8g2_m_8_6_2:0000000000000008 $d
/var/folders/v3/wysfpd052nz8jkbx04pk0ym80000gn/T//ccJItEm3.s:360    .text.u8g2_m_8_6_f:0000000000000000 $t
/var/folders/v3/wysfpd052nz8jkbx04pk0ym80000gn/T//ccJItEm3.s:368    .text.u8g2_m_8_6_f:0000000000000000 u8g2_m_8_6_f
/var/folders/v3/wysfpd052nz8jkbx04pk0ym80000gn/T//ccJItEm3.s:386    .text.u8g2_m_8_6_f:0000000000000008 $d
/var/folders/v3/wysfpd052nz8jkbx04pk0ym80000gn/T//ccJItEm3.s:391    .text.u8g2_m_8_4_1:0000000000000000 $t
/var/folders/v3/wysfpd052nz8jkbx04pk0ym80000gn/T//ccJItEm3.s:399    .text.u8g2_m_8_4_1:0000000000000000 u8g2_m_8_4_1
/var/folders/v3/wysfpd052nz8jkbx04pk0ym80000gn/T//ccJItEm3.s:417    .text.u8g2_m_8_4_1:0000000000000008 $d
/var/folders/v3/wysfpd052nz8jkbx04pk0ym80000gn/T//ccJItEm3.s:422    .text.u8g2_m_8_4_2:0000000000000000 $t
/var/folders/v3/wysfpd052nz8jkbx04pk0ym80000gn/T//ccJItEm3.s:430    .text.u8g2_m_8_4_2:0000000000000000 u8g2_m_8_4_2
/var/folders/v3/wysfpd052nz8jkbx04pk0ym80000gn/T//ccJItEm3.s:448    .text.u8g2_m_8_4_2:0000000000000008 $d
/var/folders/v3/wysfpd052nz8jkbx04pk0ym80000gn/T//ccJItEm3.s:453    .text.u8g2_m_8_4_f:0000000000000000 $t
/var/folders/v3/wysfpd052nz8jkbx04pk0ym80000gn/T//ccJItEm3.s:461    .text.u8g2_m_8_4_f:0000000000000000 u8g2_m_8_4_f
/var/folders/v3/wysfpd052nz8jkbx04pk0ym80000gn/T//ccJItEm3.s:479    .text.u8g2_m_8_4_f:0000000000000008 $d
/var/folders/v3/wysfpd052nz8jkbx04pk0ym80000gn/T//ccJItEm3.s:484    .text.u8g2_m_12_2_1:0000000000000000 $t
/var/folders/v3/wysfpd052nz8jkbx04pk0ym80000gn/T//ccJItEm3.s:492    .text.u8g2_m_12_2_1:0000000000000000 u8g2_m_12_2_1
/var/folders/v3/wysfpd052nz8jkbx04pk0ym80000gn/T//ccJItEm3.s:510    .text.u8g2_m_12_2_1:0000000000000008 $d
/var/folders/v3/wysfpd052nz8jkbx04pk0ym80000gn/T//ccJItEm3.s:515    .text.u8g2_m_12_2_2:0000000000000000 $t
/var/folders/v3/wysfpd052nz8jkbx04pk0ym80000gn/T//ccJItEm3.s:523    .text.u8g2_m_12_2_2:0000000000000000 u8g2_m_12_2_2
/var/folders/v3/wysfpd052nz8jkbx04pk0ym80000gn/T//ccJItEm3.s:541    .text.u8g2_m_12_2_2:0000000000000008 $d
/var/folders/v3/wysfpd052nz8jkbx04pk0ym80000gn/T//ccJItEm3.s:546    .text.u8g2_m_12_2_f:0000000000000000 $t
/var/folders/v3/wysfpd052nz8jkbx04pk0ym80000gn/T//ccJItEm3.s:554    .text.u8g2_m_12_2_f:0000000000000000 u8g2_m_12_2_f
/var/folders/v3/wysfpd052nz8jkbx04pk0ym80000gn/T//ccJItEm3.s:572    .text.u8g2_m_12_2_f:0000000000000008 $d
/var/folders/v3/wysfpd052nz8jkbx04pk0ym80000gn/T//ccJItEm3.s:577    .text.u8g2_m_32_4_1:0000000000000000 $t
ARM GAS  /var/folders/v3/wysfpd052nz8jkbx04pk0ym80000gn/T//ccJItEm3.s 			page 79


/var/folders/v3/wysfpd052nz8jkbx04pk0ym80000gn/T//ccJItEm3.s:585    .text.u8g2_m_32_4_1:0000000000000000 u8g2_m_32_4_1
/var/folders/v3/wysfpd052nz8jkbx04pk0ym80000gn/T//ccJItEm3.s:603    .text.u8g2_m_32_4_1:0000000000000008 $d
/var/folders/v3/wysfpd052nz8jkbx04pk0ym80000gn/T//ccJItEm3.s:608    .text.u8g2_m_32_4_2:0000000000000000 $t
/var/folders/v3/wysfpd052nz8jkbx04pk0ym80000gn/T//ccJItEm3.s:616    .text.u8g2_m_32_4_2:0000000000000000 u8g2_m_32_4_2
/var/folders/v3/wysfpd052nz8jkbx04pk0ym80000gn/T//ccJItEm3.s:634    .text.u8g2_m_32_4_2:0000000000000008 $d
/var/folders/v3/wysfpd052nz8jkbx04pk0ym80000gn/T//ccJItEm3.s:639    .text.u8g2_m_32_4_f:0000000000000000 $t
/var/folders/v3/wysfpd052nz8jkbx04pk0ym80000gn/T//ccJItEm3.s:647    .text.u8g2_m_32_4_f:0000000000000000 u8g2_m_32_4_f
/var/folders/v3/wysfpd052nz8jkbx04pk0ym80000gn/T//ccJItEm3.s:665    .text.u8g2_m_32_4_f:0000000000000008 $d
/var/folders/v3/wysfpd052nz8jkbx04pk0ym80000gn/T//ccJItEm3.s:670    .text.u8g2_m_16_16_1:0000000000000000 $t
/var/folders/v3/wysfpd052nz8jkbx04pk0ym80000gn/T//ccJItEm3.s:678    .text.u8g2_m_16_16_1:0000000000000000 u8g2_m_16_16_1
/var/folders/v3/wysfpd052nz8jkbx04pk0ym80000gn/T//ccJItEm3.s:696    .text.u8g2_m_16_16_1:0000000000000008 $d
/var/folders/v3/wysfpd052nz8jkbx04pk0ym80000gn/T//ccJItEm3.s:701    .text.u8g2_m_16_16_2:0000000000000000 $t
/var/folders/v3/wysfpd052nz8jkbx04pk0ym80000gn/T//ccJItEm3.s:709    .text.u8g2_m_16_16_2:0000000000000000 u8g2_m_16_16_2
/var/folders/v3/wysfpd052nz8jkbx04pk0ym80000gn/T//ccJItEm3.s:727    .text.u8g2_m_16_16_2:0000000000000008 $d
/var/folders/v3/wysfpd052nz8jkbx04pk0ym80000gn/T//ccJItEm3.s:732    .text.u8g2_m_16_16_f:0000000000000000 $t
/var/folders/v3/wysfpd052nz8jkbx04pk0ym80000gn/T//ccJItEm3.s:740    .text.u8g2_m_16_16_f:0000000000000000 u8g2_m_16_16_f
/var/folders/v3/wysfpd052nz8jkbx04pk0ym80000gn/T//ccJItEm3.s:758    .text.u8g2_m_16_16_f:0000000000000008 $d
/var/folders/v3/wysfpd052nz8jkbx04pk0ym80000gn/T//ccJItEm3.s:763    .text.u8g2_m_16_12_1:0000000000000000 $t
/var/folders/v3/wysfpd052nz8jkbx04pk0ym80000gn/T//ccJItEm3.s:771    .text.u8g2_m_16_12_1:0000000000000000 u8g2_m_16_12_1
/var/folders/v3/wysfpd052nz8jkbx04pk0ym80000gn/T//ccJItEm3.s:789    .text.u8g2_m_16_12_1:0000000000000008 $d
/var/folders/v3/wysfpd052nz8jkbx04pk0ym80000gn/T//ccJItEm3.s:794    .text.u8g2_m_16_12_2:0000000000000000 $t
/var/folders/v3/wysfpd052nz8jkbx04pk0ym80000gn/T//ccJItEm3.s:802    .text.u8g2_m_16_12_2:0000000000000000 u8g2_m_16_12_2
/var/folders/v3/wysfpd052nz8jkbx04pk0ym80000gn/T//ccJItEm3.s:820    .text.u8g2_m_16_12_2:0000000000000008 $d
/var/folders/v3/wysfpd052nz8jkbx04pk0ym80000gn/T//ccJItEm3.s:825    .text.u8g2_m_16_12_f:0000000000000000 $t
/var/folders/v3/wysfpd052nz8jkbx04pk0ym80000gn/T//ccJItEm3.s:833    .text.u8g2_m_16_12_f:0000000000000000 u8g2_m_16_12_f
/var/folders/v3/wysfpd052nz8jkbx04pk0ym80000gn/T//ccJItEm3.s:851    .text.u8g2_m_16_12_f:0000000000000008 $d
/var/folders/v3/wysfpd052nz8jkbx04pk0ym80000gn/T//ccJItEm3.s:856    .text.u8g2_m_24_4_1:0000000000000000 $t
/var/folders/v3/wysfpd052nz8jkbx04pk0ym80000gn/T//ccJItEm3.s:864    .text.u8g2_m_24_4_1:0000000000000000 u8g2_m_24_4_1
/var/folders/v3/wysfpd052nz8jkbx04pk0ym80000gn/T//ccJItEm3.s:882    .text.u8g2_m_24_4_1:0000000000000008 $d
/var/folders/v3/wysfpd052nz8jkbx04pk0ym80000gn/T//ccJItEm3.s:887    .text.u8g2_m_24_4_2:0000000000000000 $t
/var/folders/v3/wysfpd052nz8jkbx04pk0ym80000gn/T//ccJItEm3.s:895    .text.u8g2_m_24_4_2:0000000000000000 u8g2_m_24_4_2
/var/folders/v3/wysfpd052nz8jkbx04pk0ym80000gn/T//ccJItEm3.s:913    .text.u8g2_m_24_4_2:0000000000000008 $d
/var/folders/v3/wysfpd052nz8jkbx04pk0ym80000gn/T//ccJItEm3.s:918    .text.u8g2_m_24_4_f:0000000000000000 $t
/var/folders/v3/wysfpd052nz8jkbx04pk0ym80000gn/T//ccJItEm3.s:926    .text.u8g2_m_24_4_f:0000000000000000 u8g2_m_24_4_f
/var/folders/v3/wysfpd052nz8jkbx04pk0ym80000gn/T//ccJItEm3.s:944    .text.u8g2_m_24_4_f:0000000000000008 $d
/var/folders/v3/wysfpd052nz8jkbx04pk0ym80000gn/T//ccJItEm3.s:949    .text.u8g2_m_13_8_1:0000000000000000 $t
/var/folders/v3/wysfpd052nz8jkbx04pk0ym80000gn/T//ccJItEm3.s:957    .text.u8g2_m_13_8_1:0000000000000000 u8g2_m_13_8_1
/var/folders/v3/wysfpd052nz8jkbx04pk0ym80000gn/T//ccJItEm3.s:975    .text.u8g2_m_13_8_1:0000000000000008 $d
/var/folders/v3/wysfpd052nz8jkbx04pk0ym80000gn/T//ccJItEm3.s:980    .text.u8g2_m_13_8_2:0000000000000000 $t
/var/folders/v3/wysfpd052nz8jkbx04pk0ym80000gn/T//ccJItEm3.s:988    .text.u8g2_m_13_8_2:0000000000000000 u8g2_m_13_8_2
/var/folders/v3/wysfpd052nz8jkbx04pk0ym80000gn/T//ccJItEm3.s:1006   .text.u8g2_m_13_8_2:0000000000000008 $d
/var/folders/v3/wysfpd052nz8jkbx04pk0ym80000gn/T//ccJItEm3.s:1011   .text.u8g2_m_13_8_f:0000000000000000 $t
/var/folders/v3/wysfpd052nz8jkbx04pk0ym80000gn/T//ccJItEm3.s:1019   .text.u8g2_m_13_8_f:0000000000000000 u8g2_m_13_8_f
/var/folders/v3/wysfpd052nz8jkbx04pk0ym80000gn/T//ccJItEm3.s:1037   .text.u8g2_m_13_8_f:0000000000000008 $d
/var/folders/v3/wysfpd052nz8jkbx04pk0ym80000gn/T//ccJItEm3.s:1042   .text.u8g2_m_11_6_1:0000000000000000 $t
/var/folders/v3/wysfpd052nz8jkbx04pk0ym80000gn/T//ccJItEm3.s:1050   .text.u8g2_m_11_6_1:0000000000000000 u8g2_m_11_6_1
/var/folders/v3/wysfpd052nz8jkbx04pk0ym80000gn/T//ccJItEm3.s:1068   .text.u8g2_m_11_6_1:0000000000000008 $d
/var/folders/v3/wysfpd052nz8jkbx04pk0ym80000gn/T//ccJItEm3.s:1073   .text.u8g2_m_11_6_2:0000000000000000 $t
/var/folders/v3/wysfpd052nz8jkbx04pk0ym80000gn/T//ccJItEm3.s:1081   .text.u8g2_m_11_6_2:0000000000000000 u8g2_m_11_6_2
/var/folders/v3/wysfpd052nz8jkbx04pk0ym80000gn/T//ccJItEm3.s:1099   .text.u8g2_m_11_6_2:0000000000000008 $d
/var/folders/v3/wysfpd052nz8jkbx04pk0ym80000gn/T//ccJItEm3.s:1104   .text.u8g2_m_11_6_f:0000000000000000 $t
/var/folders/v3/wysfpd052nz8jkbx04pk0ym80000gn/T//ccJItEm3.s:1112   .text.u8g2_m_11_6_f:0000000000000000 u8g2_m_11_6_f
/var/folders/v3/wysfpd052nz8jkbx04pk0ym80000gn/T//ccJItEm3.s:1130   .text.u8g2_m_11_6_f:0000000000000008 $d
/var/folders/v3/wysfpd052nz8jkbx04pk0ym80000gn/T//ccJItEm3.s:1135   .text.u8g2_m_12_9_1:0000000000000000 $t
/var/folders/v3/wysfpd052nz8jkbx04pk0ym80000gn/T//ccJItEm3.s:1143   .text.u8g2_m_12_9_1:0000000000000000 u8g2_m_12_9_1
/var/folders/v3/wysfpd052nz8jkbx04pk0ym80000gn/T//ccJItEm3.s:1161   .text.u8g2_m_12_9_1:0000000000000008 $d
/var/folders/v3/wysfpd052nz8jkbx04pk0ym80000gn/T//ccJItEm3.s:1166   .text.u8g2_m_12_9_2:0000000000000000 $t
ARM GAS  /var/folders/v3/wysfpd052nz8jkbx04pk0ym80000gn/T//ccJItEm3.s 			page 80


/var/folders/v3/wysfpd052nz8jkbx04pk0ym80000gn/T//ccJItEm3.s:1174   .text.u8g2_m_12_9_2:0000000000000000 u8g2_m_12_9_2
/var/folders/v3/wysfpd052nz8jkbx04pk0ym80000gn/T//ccJItEm3.s:1192   .text.u8g2_m_12_9_2:0000000000000008 $d
/var/folders/v3/wysfpd052nz8jkbx04pk0ym80000gn/T//ccJItEm3.s:1197   .text.u8g2_m_12_9_f:0000000000000000 $t
/var/folders/v3/wysfpd052nz8jkbx04pk0ym80000gn/T//ccJItEm3.s:1205   .text.u8g2_m_12_9_f:0000000000000000 u8g2_m_12_9_f
/var/folders/v3/wysfpd052nz8jkbx04pk0ym80000gn/T//ccJItEm3.s:1223   .text.u8g2_m_12_9_f:0000000000000008 $d
/var/folders/v3/wysfpd052nz8jkbx04pk0ym80000gn/T//ccJItEm3.s:1228   .text.u8g2_m_24_8_1:0000000000000000 $t
/var/folders/v3/wysfpd052nz8jkbx04pk0ym80000gn/T//ccJItEm3.s:1236   .text.u8g2_m_24_8_1:0000000000000000 u8g2_m_24_8_1
/var/folders/v3/wysfpd052nz8jkbx04pk0ym80000gn/T//ccJItEm3.s:1254   .text.u8g2_m_24_8_1:0000000000000008 $d
/var/folders/v3/wysfpd052nz8jkbx04pk0ym80000gn/T//ccJItEm3.s:1259   .text.u8g2_m_24_8_2:0000000000000000 $t
/var/folders/v3/wysfpd052nz8jkbx04pk0ym80000gn/T//ccJItEm3.s:1267   .text.u8g2_m_24_8_2:0000000000000000 u8g2_m_24_8_2
/var/folders/v3/wysfpd052nz8jkbx04pk0ym80000gn/T//ccJItEm3.s:1285   .text.u8g2_m_24_8_2:0000000000000008 $d
/var/folders/v3/wysfpd052nz8jkbx04pk0ym80000gn/T//ccJItEm3.s:1290   .text.u8g2_m_24_8_f:0000000000000000 $t
/var/folders/v3/wysfpd052nz8jkbx04pk0ym80000gn/T//ccJItEm3.s:1298   .text.u8g2_m_24_8_f:0000000000000000 u8g2_m_24_8_f
/var/folders/v3/wysfpd052nz8jkbx04pk0ym80000gn/T//ccJItEm3.s:1316   .text.u8g2_m_24_8_f:0000000000000008 $d
/var/folders/v3/wysfpd052nz8jkbx04pk0ym80000gn/T//ccJItEm3.s:1321   .text.u8g2_m_30_8_1:0000000000000000 $t
/var/folders/v3/wysfpd052nz8jkbx04pk0ym80000gn/T//ccJItEm3.s:1329   .text.u8g2_m_30_8_1:0000000000000000 u8g2_m_30_8_1
/var/folders/v3/wysfpd052nz8jkbx04pk0ym80000gn/T//ccJItEm3.s:1347   .text.u8g2_m_30_8_1:0000000000000008 $d
/var/folders/v3/wysfpd052nz8jkbx04pk0ym80000gn/T//ccJItEm3.s:1352   .text.u8g2_m_30_8_2:0000000000000000 $t
/var/folders/v3/wysfpd052nz8jkbx04pk0ym80000gn/T//ccJItEm3.s:1360   .text.u8g2_m_30_8_2:0000000000000000 u8g2_m_30_8_2
/var/folders/v3/wysfpd052nz8jkbx04pk0ym80000gn/T//ccJItEm3.s:1378   .text.u8g2_m_30_8_2:0000000000000008 $d
/var/folders/v3/wysfpd052nz8jkbx04pk0ym80000gn/T//ccJItEm3.s:1383   .text.u8g2_m_30_8_f:0000000000000000 $t
/var/folders/v3/wysfpd052nz8jkbx04pk0ym80000gn/T//ccJItEm3.s:1391   .text.u8g2_m_30_8_f:0000000000000000 u8g2_m_30_8_f
/var/folders/v3/wysfpd052nz8jkbx04pk0ym80000gn/T//ccJItEm3.s:1409   .text.u8g2_m_30_8_f:0000000000000008 $d
/var/folders/v3/wysfpd052nz8jkbx04pk0ym80000gn/T//ccJItEm3.s:1414   .text.u8g2_m_30_15_1:0000000000000000 $t
/var/folders/v3/wysfpd052nz8jkbx04pk0ym80000gn/T//ccJItEm3.s:1422   .text.u8g2_m_30_15_1:0000000000000000 u8g2_m_30_15_1
/var/folders/v3/wysfpd052nz8jkbx04pk0ym80000gn/T//ccJItEm3.s:1440   .text.u8g2_m_30_15_1:0000000000000008 $d
/var/folders/v3/wysfpd052nz8jkbx04pk0ym80000gn/T//ccJItEm3.s:1445   .text.u8g2_m_30_15_2:0000000000000000 $t
/var/folders/v3/wysfpd052nz8jkbx04pk0ym80000gn/T//ccJItEm3.s:1453   .text.u8g2_m_30_15_2:0000000000000000 u8g2_m_30_15_2
/var/folders/v3/wysfpd052nz8jkbx04pk0ym80000gn/T//ccJItEm3.s:1471   .text.u8g2_m_30_15_2:0000000000000008 $d
/var/folders/v3/wysfpd052nz8jkbx04pk0ym80000gn/T//ccJItEm3.s:1476   .text.u8g2_m_30_15_f:0000000000000000 $t
/var/folders/v3/wysfpd052nz8jkbx04pk0ym80000gn/T//ccJItEm3.s:1484   .text.u8g2_m_30_15_f:0000000000000000 u8g2_m_30_15_f
/var/folders/v3/wysfpd052nz8jkbx04pk0ym80000gn/T//ccJItEm3.s:1502   .text.u8g2_m_30_15_f:0000000000000008 $d
/var/folders/v3/wysfpd052nz8jkbx04pk0ym80000gn/T//ccJItEm3.s:1507   .text.u8g2_m_30_16_1:0000000000000000 $t
/var/folders/v3/wysfpd052nz8jkbx04pk0ym80000gn/T//ccJItEm3.s:1515   .text.u8g2_m_30_16_1:0000000000000000 u8g2_m_30_16_1
/var/folders/v3/wysfpd052nz8jkbx04pk0ym80000gn/T//ccJItEm3.s:1533   .text.u8g2_m_30_16_1:0000000000000008 $d
/var/folders/v3/wysfpd052nz8jkbx04pk0ym80000gn/T//ccJItEm3.s:1538   .text.u8g2_m_30_16_2:0000000000000000 $t
/var/folders/v3/wysfpd052nz8jkbx04pk0ym80000gn/T//ccJItEm3.s:1546   .text.u8g2_m_30_16_2:0000000000000000 u8g2_m_30_16_2
/var/folders/v3/wysfpd052nz8jkbx04pk0ym80000gn/T//ccJItEm3.s:1564   .text.u8g2_m_30_16_2:0000000000000008 $d
/var/folders/v3/wysfpd052nz8jkbx04pk0ym80000gn/T//ccJItEm3.s:1569   .text.u8g2_m_30_16_f:0000000000000000 $t
/var/folders/v3/wysfpd052nz8jkbx04pk0ym80000gn/T//ccJItEm3.s:1577   .text.u8g2_m_30_16_f:0000000000000000 u8g2_m_30_16_f
/var/folders/v3/wysfpd052nz8jkbx04pk0ym80000gn/T//ccJItEm3.s:1595   .text.u8g2_m_30_16_f:0000000000000008 $d
/var/folders/v3/wysfpd052nz8jkbx04pk0ym80000gn/T//ccJItEm3.s:1600   .text.u8g2_m_20_16_1:0000000000000000 $t
/var/folders/v3/wysfpd052nz8jkbx04pk0ym80000gn/T//ccJItEm3.s:1608   .text.u8g2_m_20_16_1:0000000000000000 u8g2_m_20_16_1
/var/folders/v3/wysfpd052nz8jkbx04pk0ym80000gn/T//ccJItEm3.s:1626   .text.u8g2_m_20_16_1:0000000000000008 $d
/var/folders/v3/wysfpd052nz8jkbx04pk0ym80000gn/T//ccJItEm3.s:1631   .text.u8g2_m_20_16_2:0000000000000000 $t
/var/folders/v3/wysfpd052nz8jkbx04pk0ym80000gn/T//ccJItEm3.s:1639   .text.u8g2_m_20_16_2:0000000000000000 u8g2_m_20_16_2
/var/folders/v3/wysfpd052nz8jkbx04pk0ym80000gn/T//ccJItEm3.s:1657   .text.u8g2_m_20_16_2:0000000000000008 $d
/var/folders/v3/wysfpd052nz8jkbx04pk0ym80000gn/T//ccJItEm3.s:1662   .text.u8g2_m_20_16_f:0000000000000000 $t
/var/folders/v3/wysfpd052nz8jkbx04pk0ym80000gn/T//ccJItEm3.s:1670   .text.u8g2_m_20_16_f:0000000000000000 u8g2_m_20_16_f
/var/folders/v3/wysfpd052nz8jkbx04pk0ym80000gn/T//ccJItEm3.s:1688   .text.u8g2_m_20_16_f:0000000000000008 $d
/var/folders/v3/wysfpd052nz8jkbx04pk0ym80000gn/T//ccJItEm3.s:1693   .text.u8g2_m_20_13_1:0000000000000000 $t
/var/folders/v3/wysfpd052nz8jkbx04pk0ym80000gn/T//ccJItEm3.s:1701   .text.u8g2_m_20_13_1:0000000000000000 u8g2_m_20_13_1
/var/folders/v3/wysfpd052nz8jkbx04pk0ym80000gn/T//ccJItEm3.s:1719   .text.u8g2_m_20_13_1:0000000000000008 $d
/var/folders/v3/wysfpd052nz8jkbx04pk0ym80000gn/T//ccJItEm3.s:1724   .text.u8g2_m_20_13_2:0000000000000000 $t
/var/folders/v3/wysfpd052nz8jkbx04pk0ym80000gn/T//ccJItEm3.s:1732   .text.u8g2_m_20_13_2:0000000000000000 u8g2_m_20_13_2
/var/folders/v3/wysfpd052nz8jkbx04pk0ym80000gn/T//ccJItEm3.s:1750   .text.u8g2_m_20_13_2:0000000000000008 $d
/var/folders/v3/wysfpd052nz8jkbx04pk0ym80000gn/T//ccJItEm3.s:1755   .text.u8g2_m_20_13_f:0000000000000000 $t
ARM GAS  /var/folders/v3/wysfpd052nz8jkbx04pk0ym80000gn/T//ccJItEm3.s 			page 81


/var/folders/v3/wysfpd052nz8jkbx04pk0ym80000gn/T//ccJItEm3.s:1763   .text.u8g2_m_20_13_f:0000000000000000 u8g2_m_20_13_f
/var/folders/v3/wysfpd052nz8jkbx04pk0ym80000gn/T//ccJItEm3.s:1781   .text.u8g2_m_20_13_f:0000000000000008 $d
/var/folders/v3/wysfpd052nz8jkbx04pk0ym80000gn/T//ccJItEm3.s:1786   .text.u8g2_m_30_20_1:0000000000000000 $t
/var/folders/v3/wysfpd052nz8jkbx04pk0ym80000gn/T//ccJItEm3.s:1794   .text.u8g2_m_30_20_1:0000000000000000 u8g2_m_30_20_1
/var/folders/v3/wysfpd052nz8jkbx04pk0ym80000gn/T//ccJItEm3.s:1812   .text.u8g2_m_30_20_1:0000000000000008 $d
/var/folders/v3/wysfpd052nz8jkbx04pk0ym80000gn/T//ccJItEm3.s:1817   .text.u8g2_m_30_20_2:0000000000000000 $t
/var/folders/v3/wysfpd052nz8jkbx04pk0ym80000gn/T//ccJItEm3.s:1825   .text.u8g2_m_30_20_2:0000000000000000 u8g2_m_30_20_2
/var/folders/v3/wysfpd052nz8jkbx04pk0ym80000gn/T//ccJItEm3.s:1843   .text.u8g2_m_30_20_2:0000000000000008 $d
/var/folders/v3/wysfpd052nz8jkbx04pk0ym80000gn/T//ccJItEm3.s:1848   .text.u8g2_m_30_20_f:0000000000000000 $t
/var/folders/v3/wysfpd052nz8jkbx04pk0ym80000gn/T//ccJItEm3.s:1856   .text.u8g2_m_30_20_f:0000000000000000 u8g2_m_30_20_f
/var/folders/v3/wysfpd052nz8jkbx04pk0ym80000gn/T//ccJItEm3.s:1874   .text.u8g2_m_30_20_f:0000000000000008 $d
/var/folders/v3/wysfpd052nz8jkbx04pk0ym80000gn/T//ccJItEm3.s:3612   .bss.buf.9905:0000000000000000 buf.9905
/var/folders/v3/wysfpd052nz8jkbx04pk0ym80000gn/T//ccJItEm3.s:1879   .text.u8g2_m_17_4_1:0000000000000000 $t
/var/folders/v3/wysfpd052nz8jkbx04pk0ym80000gn/T//ccJItEm3.s:1887   .text.u8g2_m_17_4_1:0000000000000000 u8g2_m_17_4_1
/var/folders/v3/wysfpd052nz8jkbx04pk0ym80000gn/T//ccJItEm3.s:1905   .text.u8g2_m_17_4_1:0000000000000008 $d
/var/folders/v3/wysfpd052nz8jkbx04pk0ym80000gn/T//ccJItEm3.s:1910   .text.u8g2_m_17_4_2:0000000000000000 $t
/var/folders/v3/wysfpd052nz8jkbx04pk0ym80000gn/T//ccJItEm3.s:1918   .text.u8g2_m_17_4_2:0000000000000000 u8g2_m_17_4_2
/var/folders/v3/wysfpd052nz8jkbx04pk0ym80000gn/T//ccJItEm3.s:1936   .text.u8g2_m_17_4_2:0000000000000008 $d
/var/folders/v3/wysfpd052nz8jkbx04pk0ym80000gn/T//ccJItEm3.s:1941   .text.u8g2_m_17_4_f:0000000000000000 $t
/var/folders/v3/wysfpd052nz8jkbx04pk0ym80000gn/T//ccJItEm3.s:1949   .text.u8g2_m_17_4_f:0000000000000000 u8g2_m_17_4_f
/var/folders/v3/wysfpd052nz8jkbx04pk0ym80000gn/T//ccJItEm3.s:1967   .text.u8g2_m_17_4_f:0000000000000008 $d
/var/folders/v3/wysfpd052nz8jkbx04pk0ym80000gn/T//ccJItEm3.s:1972   .text.u8g2_m_17_8_1:0000000000000000 $t
/var/folders/v3/wysfpd052nz8jkbx04pk0ym80000gn/T//ccJItEm3.s:1980   .text.u8g2_m_17_8_1:0000000000000000 u8g2_m_17_8_1
/var/folders/v3/wysfpd052nz8jkbx04pk0ym80000gn/T//ccJItEm3.s:1998   .text.u8g2_m_17_8_1:0000000000000008 $d
/var/folders/v3/wysfpd052nz8jkbx04pk0ym80000gn/T//ccJItEm3.s:2003   .text.u8g2_m_17_8_2:0000000000000000 $t
/var/folders/v3/wysfpd052nz8jkbx04pk0ym80000gn/T//ccJItEm3.s:2011   .text.u8g2_m_17_8_2:0000000000000000 u8g2_m_17_8_2
/var/folders/v3/wysfpd052nz8jkbx04pk0ym80000gn/T//ccJItEm3.s:2029   .text.u8g2_m_17_8_2:0000000000000008 $d
/var/folders/v3/wysfpd052nz8jkbx04pk0ym80000gn/T//ccJItEm3.s:2034   .text.u8g2_m_17_8_f:0000000000000000 $t
/var/folders/v3/wysfpd052nz8jkbx04pk0ym80000gn/T//ccJItEm3.s:2042   .text.u8g2_m_17_8_f:0000000000000000 u8g2_m_17_8_f
/var/folders/v3/wysfpd052nz8jkbx04pk0ym80000gn/T//ccJItEm3.s:2060   .text.u8g2_m_17_8_f:0000000000000008 $d
/var/folders/v3/wysfpd052nz8jkbx04pk0ym80000gn/T//ccJItEm3.s:2065   .text.u8g2_m_32_16_1:0000000000000000 $t
/var/folders/v3/wysfpd052nz8jkbx04pk0ym80000gn/T//ccJItEm3.s:2073   .text.u8g2_m_32_16_1:0000000000000000 u8g2_m_32_16_1
/var/folders/v3/wysfpd052nz8jkbx04pk0ym80000gn/T//ccJItEm3.s:2091   .text.u8g2_m_32_16_1:0000000000000008 $d
/var/folders/v3/wysfpd052nz8jkbx04pk0ym80000gn/T//ccJItEm3.s:2096   .text.u8g2_m_32_16_2:0000000000000000 $t
/var/folders/v3/wysfpd052nz8jkbx04pk0ym80000gn/T//ccJItEm3.s:2104   .text.u8g2_m_32_16_2:0000000000000000 u8g2_m_32_16_2
/var/folders/v3/wysfpd052nz8jkbx04pk0ym80000gn/T//ccJItEm3.s:2122   .text.u8g2_m_32_16_2:0000000000000008 $d
/var/folders/v3/wysfpd052nz8jkbx04pk0ym80000gn/T//ccJItEm3.s:2127   .text.u8g2_m_32_16_f:0000000000000000 $t
/var/folders/v3/wysfpd052nz8jkbx04pk0ym80000gn/T//ccJItEm3.s:2135   .text.u8g2_m_32_16_f:0000000000000000 u8g2_m_32_16_f
/var/folders/v3/wysfpd052nz8jkbx04pk0ym80000gn/T//ccJItEm3.s:2153   .text.u8g2_m_32_16_f:0000000000000008 $d
/var/folders/v3/wysfpd052nz8jkbx04pk0ym80000gn/T//ccJItEm3.s:3674   .bss.buf.9941:0000000000000000 buf.9941
/var/folders/v3/wysfpd052nz8jkbx04pk0ym80000gn/T//ccJItEm3.s:2158   .text.u8g2_m_32_8_1:0000000000000000 $t
/var/folders/v3/wysfpd052nz8jkbx04pk0ym80000gn/T//ccJItEm3.s:2166   .text.u8g2_m_32_8_1:0000000000000000 u8g2_m_32_8_1
/var/folders/v3/wysfpd052nz8jkbx04pk0ym80000gn/T//ccJItEm3.s:2184   .text.u8g2_m_32_8_1:0000000000000008 $d
/var/folders/v3/wysfpd052nz8jkbx04pk0ym80000gn/T//ccJItEm3.s:2189   .text.u8g2_m_32_8_2:0000000000000000 $t
/var/folders/v3/wysfpd052nz8jkbx04pk0ym80000gn/T//ccJItEm3.s:2197   .text.u8g2_m_32_8_2:0000000000000000 u8g2_m_32_8_2
/var/folders/v3/wysfpd052nz8jkbx04pk0ym80000gn/T//ccJItEm3.s:2215   .text.u8g2_m_32_8_2:0000000000000008 $d
/var/folders/v3/wysfpd052nz8jkbx04pk0ym80000gn/T//ccJItEm3.s:2220   .text.u8g2_m_32_8_f:0000000000000000 $t
/var/folders/v3/wysfpd052nz8jkbx04pk0ym80000gn/T//ccJItEm3.s:2228   .text.u8g2_m_32_8_f:0000000000000000 u8g2_m_32_8_f
/var/folders/v3/wysfpd052nz8jkbx04pk0ym80000gn/T//ccJItEm3.s:2246   .text.u8g2_m_32_8_f:0000000000000008 $d
/var/folders/v3/wysfpd052nz8jkbx04pk0ym80000gn/T//ccJItEm3.s:2251   .text.u8g2_m_22_13_1:0000000000000000 $t
/var/folders/v3/wysfpd052nz8jkbx04pk0ym80000gn/T//ccJItEm3.s:2259   .text.u8g2_m_22_13_1:0000000000000000 u8g2_m_22_13_1
/var/folders/v3/wysfpd052nz8jkbx04pk0ym80000gn/T//ccJItEm3.s:2277   .text.u8g2_m_22_13_1:0000000000000008 $d
/var/folders/v3/wysfpd052nz8jkbx04pk0ym80000gn/T//ccJItEm3.s:2282   .text.u8g2_m_22_13_2:0000000000000000 $t
/var/folders/v3/wysfpd052nz8jkbx04pk0ym80000gn/T//ccJItEm3.s:2290   .text.u8g2_m_22_13_2:0000000000000000 u8g2_m_22_13_2
/var/folders/v3/wysfpd052nz8jkbx04pk0ym80000gn/T//ccJItEm3.s:2308   .text.u8g2_m_22_13_2:0000000000000008 $d
/var/folders/v3/wysfpd052nz8jkbx04pk0ym80000gn/T//ccJItEm3.s:2313   .text.u8g2_m_22_13_f:0000000000000000 $t
/var/folders/v3/wysfpd052nz8jkbx04pk0ym80000gn/T//ccJItEm3.s:2321   .text.u8g2_m_22_13_f:0000000000000000 u8g2_m_22_13_f
ARM GAS  /var/folders/v3/wysfpd052nz8jkbx04pk0ym80000gn/T//ccJItEm3.s 			page 82


/var/folders/v3/wysfpd052nz8jkbx04pk0ym80000gn/T//ccJItEm3.s:2339   .text.u8g2_m_22_13_f:0000000000000008 $d
/var/folders/v3/wysfpd052nz8jkbx04pk0ym80000gn/T//ccJItEm3.s:2344   .text.u8g2_m_20_10_1:0000000000000000 $t
/var/folders/v3/wysfpd052nz8jkbx04pk0ym80000gn/T//ccJItEm3.s:2352   .text.u8g2_m_20_10_1:0000000000000000 u8g2_m_20_10_1
/var/folders/v3/wysfpd052nz8jkbx04pk0ym80000gn/T//ccJItEm3.s:2370   .text.u8g2_m_20_10_1:0000000000000008 $d
/var/folders/v3/wysfpd052nz8jkbx04pk0ym80000gn/T//ccJItEm3.s:2375   .text.u8g2_m_20_10_2:0000000000000000 $t
/var/folders/v3/wysfpd052nz8jkbx04pk0ym80000gn/T//ccJItEm3.s:2383   .text.u8g2_m_20_10_2:0000000000000000 u8g2_m_20_10_2
/var/folders/v3/wysfpd052nz8jkbx04pk0ym80000gn/T//ccJItEm3.s:2401   .text.u8g2_m_20_10_2:0000000000000008 $d
/var/folders/v3/wysfpd052nz8jkbx04pk0ym80000gn/T//ccJItEm3.s:2406   .text.u8g2_m_20_10_f:0000000000000000 $t
/var/folders/v3/wysfpd052nz8jkbx04pk0ym80000gn/T//ccJItEm3.s:2414   .text.u8g2_m_20_10_f:0000000000000000 u8g2_m_20_10_f
/var/folders/v3/wysfpd052nz8jkbx04pk0ym80000gn/T//ccJItEm3.s:2432   .text.u8g2_m_20_10_f:0000000000000008 $d
/var/folders/v3/wysfpd052nz8jkbx04pk0ym80000gn/T//ccJItEm3.s:2437   .text.u8g2_m_20_20_1:0000000000000000 $t
/var/folders/v3/wysfpd052nz8jkbx04pk0ym80000gn/T//ccJItEm3.s:2445   .text.u8g2_m_20_20_1:0000000000000000 u8g2_m_20_20_1
/var/folders/v3/wysfpd052nz8jkbx04pk0ym80000gn/T//ccJItEm3.s:2463   .text.u8g2_m_20_20_1:0000000000000008 $d
/var/folders/v3/wysfpd052nz8jkbx04pk0ym80000gn/T//ccJItEm3.s:2468   .text.u8g2_m_20_20_2:0000000000000000 $t
/var/folders/v3/wysfpd052nz8jkbx04pk0ym80000gn/T//ccJItEm3.s:2476   .text.u8g2_m_20_20_2:0000000000000000 u8g2_m_20_20_2
/var/folders/v3/wysfpd052nz8jkbx04pk0ym80000gn/T//ccJItEm3.s:2494   .text.u8g2_m_20_20_2:0000000000000008 $d
/var/folders/v3/wysfpd052nz8jkbx04pk0ym80000gn/T//ccJItEm3.s:2499   .text.u8g2_m_20_20_f:0000000000000000 $t
/var/folders/v3/wysfpd052nz8jkbx04pk0ym80000gn/T//ccJItEm3.s:2507   .text.u8g2_m_20_20_f:0000000000000000 u8g2_m_20_20_f
/var/folders/v3/wysfpd052nz8jkbx04pk0ym80000gn/T//ccJItEm3.s:2525   .text.u8g2_m_20_20_f:0000000000000008 $d
/var/folders/v3/wysfpd052nz8jkbx04pk0ym80000gn/T//ccJItEm3.s:2530   .text.u8g2_m_22_9_1:0000000000000000 $t
/var/folders/v3/wysfpd052nz8jkbx04pk0ym80000gn/T//ccJItEm3.s:2538   .text.u8g2_m_22_9_1:0000000000000000 u8g2_m_22_9_1
/var/folders/v3/wysfpd052nz8jkbx04pk0ym80000gn/T//ccJItEm3.s:2556   .text.u8g2_m_22_9_1:0000000000000008 $d
/var/folders/v3/wysfpd052nz8jkbx04pk0ym80000gn/T//ccJItEm3.s:2561   .text.u8g2_m_22_9_2:0000000000000000 $t
/var/folders/v3/wysfpd052nz8jkbx04pk0ym80000gn/T//ccJItEm3.s:2569   .text.u8g2_m_22_9_2:0000000000000000 u8g2_m_22_9_2
/var/folders/v3/wysfpd052nz8jkbx04pk0ym80000gn/T//ccJItEm3.s:2587   .text.u8g2_m_22_9_2:0000000000000008 $d
/var/folders/v3/wysfpd052nz8jkbx04pk0ym80000gn/T//ccJItEm3.s:2592   .text.u8g2_m_22_9_f:0000000000000000 $t
/var/folders/v3/wysfpd052nz8jkbx04pk0ym80000gn/T//ccJItEm3.s:2600   .text.u8g2_m_22_9_f:0000000000000000 u8g2_m_22_9_f
/var/folders/v3/wysfpd052nz8jkbx04pk0ym80000gn/T//ccJItEm3.s:2618   .text.u8g2_m_22_9_f:0000000000000008 $d
/var/folders/v3/wysfpd052nz8jkbx04pk0ym80000gn/T//ccJItEm3.s:2623   .text.u8g2_m_25_25_1:0000000000000000 $t
/var/folders/v3/wysfpd052nz8jkbx04pk0ym80000gn/T//ccJItEm3.s:2631   .text.u8g2_m_25_25_1:0000000000000000 u8g2_m_25_25_1
/var/folders/v3/wysfpd052nz8jkbx04pk0ym80000gn/T//ccJItEm3.s:2649   .text.u8g2_m_25_25_1:0000000000000008 $d
/var/folders/v3/wysfpd052nz8jkbx04pk0ym80000gn/T//ccJItEm3.s:2654   .text.u8g2_m_25_25_2:0000000000000000 $t
/var/folders/v3/wysfpd052nz8jkbx04pk0ym80000gn/T//ccJItEm3.s:2662   .text.u8g2_m_25_25_2:0000000000000000 u8g2_m_25_25_2
/var/folders/v3/wysfpd052nz8jkbx04pk0ym80000gn/T//ccJItEm3.s:2680   .text.u8g2_m_25_25_2:0000000000000008 $d
/var/folders/v3/wysfpd052nz8jkbx04pk0ym80000gn/T//ccJItEm3.s:2685   .text.u8g2_m_25_25_f:0000000000000000 $t
/var/folders/v3/wysfpd052nz8jkbx04pk0ym80000gn/T//ccJItEm3.s:2693   .text.u8g2_m_25_25_f:0000000000000000 u8g2_m_25_25_f
/var/folders/v3/wysfpd052nz8jkbx04pk0ym80000gn/T//ccJItEm3.s:2711   .text.u8g2_m_25_25_f:0000000000000008 $d
/var/folders/v3/wysfpd052nz8jkbx04pk0ym80000gn/T//ccJItEm3.s:3112   .bss.buf.10013:0000000000000000 buf.10013
/var/folders/v3/wysfpd052nz8jkbx04pk0ym80000gn/T//ccJItEm3.s:2716   .text.u8g2_m_37_16_1:0000000000000000 $t
/var/folders/v3/wysfpd052nz8jkbx04pk0ym80000gn/T//ccJItEm3.s:2724   .text.u8g2_m_37_16_1:0000000000000000 u8g2_m_37_16_1
/var/folders/v3/wysfpd052nz8jkbx04pk0ym80000gn/T//ccJItEm3.s:2742   .text.u8g2_m_37_16_1:0000000000000008 $d
/var/folders/v3/wysfpd052nz8jkbx04pk0ym80000gn/T//ccJItEm3.s:2747   .text.u8g2_m_37_16_2:0000000000000000 $t
/var/folders/v3/wysfpd052nz8jkbx04pk0ym80000gn/T//ccJItEm3.s:2755   .text.u8g2_m_37_16_2:0000000000000000 u8g2_m_37_16_2
/var/folders/v3/wysfpd052nz8jkbx04pk0ym80000gn/T//ccJItEm3.s:2773   .text.u8g2_m_37_16_2:0000000000000008 $d
/var/folders/v3/wysfpd052nz8jkbx04pk0ym80000gn/T//ccJItEm3.s:2778   .text.u8g2_m_37_16_f:0000000000000000 $t
/var/folders/v3/wysfpd052nz8jkbx04pk0ym80000gn/T//ccJItEm3.s:2786   .text.u8g2_m_37_16_f:0000000000000000 u8g2_m_37_16_f
/var/folders/v3/wysfpd052nz8jkbx04pk0ym80000gn/T//ccJItEm3.s:2804   .text.u8g2_m_37_16_f:0000000000000008 $d
/var/folders/v3/wysfpd052nz8jkbx04pk0ym80000gn/T//ccJItEm3.s:3132   .bss.buf.10025:0000000000000000 buf.10025
/var/folders/v3/wysfpd052nz8jkbx04pk0ym80000gn/T//ccJItEm3.s:2809   .text.u8g2_m_40_30_1:0000000000000000 $t
/var/folders/v3/wysfpd052nz8jkbx04pk0ym80000gn/T//ccJItEm3.s:2817   .text.u8g2_m_40_30_1:0000000000000000 u8g2_m_40_30_1
/var/folders/v3/wysfpd052nz8jkbx04pk0ym80000gn/T//ccJItEm3.s:2835   .text.u8g2_m_40_30_1:0000000000000008 $d
/var/folders/v3/wysfpd052nz8jkbx04pk0ym80000gn/T//ccJItEm3.s:2840   .text.u8g2_m_40_30_2:0000000000000000 $t
/var/folders/v3/wysfpd052nz8jkbx04pk0ym80000gn/T//ccJItEm3.s:2848   .text.u8g2_m_40_30_2:0000000000000000 u8g2_m_40_30_2
/var/folders/v3/wysfpd052nz8jkbx04pk0ym80000gn/T//ccJItEm3.s:2866   .text.u8g2_m_40_30_2:0000000000000008 $d
/var/folders/v3/wysfpd052nz8jkbx04pk0ym80000gn/T//ccJItEm3.s:2871   .text.u8g2_m_40_30_f:0000000000000000 $t
/var/folders/v3/wysfpd052nz8jkbx04pk0ym80000gn/T//ccJItEm3.s:2879   .text.u8g2_m_40_30_f:0000000000000000 u8g2_m_40_30_f
/var/folders/v3/wysfpd052nz8jkbx04pk0ym80000gn/T//ccJItEm3.s:2897   .text.u8g2_m_40_30_f:0000000000000008 $d
ARM GAS  /var/folders/v3/wysfpd052nz8jkbx04pk0ym80000gn/T//ccJItEm3.s 			page 83


/var/folders/v3/wysfpd052nz8jkbx04pk0ym80000gn/T//ccJItEm3.s:3152   .bss.buf.10037:0000000000000000 buf.10037
/var/folders/v3/wysfpd052nz8jkbx04pk0ym80000gn/T//ccJItEm3.s:2902   .text.u8g2_m_4_1_1:0000000000000000 $t
/var/folders/v3/wysfpd052nz8jkbx04pk0ym80000gn/T//ccJItEm3.s:2910   .text.u8g2_m_4_1_1:0000000000000000 u8g2_m_4_1_1
/var/folders/v3/wysfpd052nz8jkbx04pk0ym80000gn/T//ccJItEm3.s:2928   .text.u8g2_m_4_1_1:0000000000000008 $d
/var/folders/v3/wysfpd052nz8jkbx04pk0ym80000gn/T//ccJItEm3.s:2933   .text.u8g2_m_4_1_2:0000000000000000 $t
/var/folders/v3/wysfpd052nz8jkbx04pk0ym80000gn/T//ccJItEm3.s:2941   .text.u8g2_m_4_1_2:0000000000000000 u8g2_m_4_1_2
/var/folders/v3/wysfpd052nz8jkbx04pk0ym80000gn/T//ccJItEm3.s:2959   .text.u8g2_m_4_1_2:0000000000000008 $d
/var/folders/v3/wysfpd052nz8jkbx04pk0ym80000gn/T//ccJItEm3.s:2964   .text.u8g2_m_4_1_f:0000000000000000 $t
/var/folders/v3/wysfpd052nz8jkbx04pk0ym80000gn/T//ccJItEm3.s:2972   .text.u8g2_m_4_1_f:0000000000000000 u8g2_m_4_1_f
/var/folders/v3/wysfpd052nz8jkbx04pk0ym80000gn/T//ccJItEm3.s:2990   .text.u8g2_m_4_1_f:0000000000000008 $d
/var/folders/v3/wysfpd052nz8jkbx04pk0ym80000gn/T//ccJItEm3.s:2995   .text.u8g2_m_48_30_1:0000000000000000 $t
/var/folders/v3/wysfpd052nz8jkbx04pk0ym80000gn/T//ccJItEm3.s:3003   .text.u8g2_m_48_30_1:0000000000000000 u8g2_m_48_30_1
/var/folders/v3/wysfpd052nz8jkbx04pk0ym80000gn/T//ccJItEm3.s:3021   .text.u8g2_m_48_30_1:0000000000000008 $d
/var/folders/v3/wysfpd052nz8jkbx04pk0ym80000gn/T//ccJItEm3.s:3026   .text.u8g2_m_48_30_2:0000000000000000 $t
/var/folders/v3/wysfpd052nz8jkbx04pk0ym80000gn/T//ccJItEm3.s:3034   .text.u8g2_m_48_30_2:0000000000000000 u8g2_m_48_30_2
/var/folders/v3/wysfpd052nz8jkbx04pk0ym80000gn/T//ccJItEm3.s:3052   .text.u8g2_m_48_30_2:0000000000000008 $d
/var/folders/v3/wysfpd052nz8jkbx04pk0ym80000gn/T//ccJItEm3.s:3057   .text.u8g2_m_48_30_f:0000000000000000 $t
/var/folders/v3/wysfpd052nz8jkbx04pk0ym80000gn/T//ccJItEm3.s:3065   .text.u8g2_m_48_30_f:0000000000000000 u8g2_m_48_30_f
/var/folders/v3/wysfpd052nz8jkbx04pk0ym80000gn/T//ccJItEm3.s:3083   .text.u8g2_m_48_30_f:0000000000000008 $d
/var/folders/v3/wysfpd052nz8jkbx04pk0ym80000gn/T//ccJItEm3.s:3193   .bss.buf.10061:0000000000000000 buf.10061
/var/folders/v3/wysfpd052nz8jkbx04pk0ym80000gn/T//ccJItEm3.s:3088   .bss.buf.10001:0000000000000000 $d
/var/folders/v3/wysfpd052nz8jkbx04pk0ym80000gn/T//ccJItEm3.s:3092   .bss.buf.10001:0000000000000000 buf.10001
/var/folders/v3/wysfpd052nz8jkbx04pk0ym80000gn/T//ccJItEm3.s:3095   .bss.buf.10005:0000000000000000 $d
/var/folders/v3/wysfpd052nz8jkbx04pk0ym80000gn/T//ccJItEm3.s:3099   .bss.buf.10005:0000000000000000 buf.10005
/var/folders/v3/wysfpd052nz8jkbx04pk0ym80000gn/T//ccJItEm3.s:3102   .bss.buf.10009:0000000000000000 $d
/var/folders/v3/wysfpd052nz8jkbx04pk0ym80000gn/T//ccJItEm3.s:3106   .bss.buf.10009:0000000000000000 buf.10009
/var/folders/v3/wysfpd052nz8jkbx04pk0ym80000gn/T//ccJItEm3.s:3109   .bss.buf.10013:0000000000000000 $d
/var/folders/v3/wysfpd052nz8jkbx04pk0ym80000gn/T//ccJItEm3.s:3115   .bss.buf.10017:0000000000000000 $d
/var/folders/v3/wysfpd052nz8jkbx04pk0ym80000gn/T//ccJItEm3.s:3119   .bss.buf.10017:0000000000000000 buf.10017
/var/folders/v3/wysfpd052nz8jkbx04pk0ym80000gn/T//ccJItEm3.s:3122   .bss.buf.10021:0000000000000000 $d
/var/folders/v3/wysfpd052nz8jkbx04pk0ym80000gn/T//ccJItEm3.s:3126   .bss.buf.10021:0000000000000000 buf.10021
/var/folders/v3/wysfpd052nz8jkbx04pk0ym80000gn/T//ccJItEm3.s:3129   .bss.buf.10025:0000000000000000 $d
/var/folders/v3/wysfpd052nz8jkbx04pk0ym80000gn/T//ccJItEm3.s:3135   .bss.buf.10029:0000000000000000 $d
/var/folders/v3/wysfpd052nz8jkbx04pk0ym80000gn/T//ccJItEm3.s:3139   .bss.buf.10029:0000000000000000 buf.10029
/var/folders/v3/wysfpd052nz8jkbx04pk0ym80000gn/T//ccJItEm3.s:3142   .bss.buf.10033:0000000000000000 $d
/var/folders/v3/wysfpd052nz8jkbx04pk0ym80000gn/T//ccJItEm3.s:3146   .bss.buf.10033:0000000000000000 buf.10033
/var/folders/v3/wysfpd052nz8jkbx04pk0ym80000gn/T//ccJItEm3.s:3149   .bss.buf.10037:0000000000000000 $d
/var/folders/v3/wysfpd052nz8jkbx04pk0ym80000gn/T//ccJItEm3.s:3155   .bss.buf.10041:0000000000000000 $d
/var/folders/v3/wysfpd052nz8jkbx04pk0ym80000gn/T//ccJItEm3.s:3159   .bss.buf.10041:0000000000000000 buf.10041
/var/folders/v3/wysfpd052nz8jkbx04pk0ym80000gn/T//ccJItEm3.s:3162   .bss.buf.10045:0000000000000000 $d
/var/folders/v3/wysfpd052nz8jkbx04pk0ym80000gn/T//ccJItEm3.s:3166   .bss.buf.10045:0000000000000000 buf.10045
/var/folders/v3/wysfpd052nz8jkbx04pk0ym80000gn/T//ccJItEm3.s:3169   .bss.buf.10049:0000000000000000 $d
/var/folders/v3/wysfpd052nz8jkbx04pk0ym80000gn/T//ccJItEm3.s:3173   .bss.buf.10049:0000000000000000 buf.10049
/var/folders/v3/wysfpd052nz8jkbx04pk0ym80000gn/T//ccJItEm3.s:3176   .bss.buf.10053:0000000000000000 $d
/var/folders/v3/wysfpd052nz8jkbx04pk0ym80000gn/T//ccJItEm3.s:3180   .bss.buf.10053:0000000000000000 buf.10053
/var/folders/v3/wysfpd052nz8jkbx04pk0ym80000gn/T//ccJItEm3.s:3183   .bss.buf.10057:0000000000000000 $d
/var/folders/v3/wysfpd052nz8jkbx04pk0ym80000gn/T//ccJItEm3.s:3187   .bss.buf.10057:0000000000000000 buf.10057
/var/folders/v3/wysfpd052nz8jkbx04pk0ym80000gn/T//ccJItEm3.s:3190   .bss.buf.10061:0000000000000000 $d
/var/folders/v3/wysfpd052nz8jkbx04pk0ym80000gn/T//ccJItEm3.s:3196   .bss.buf.9669:0000000000000000 $d
/var/folders/v3/wysfpd052nz8jkbx04pk0ym80000gn/T//ccJItEm3.s:3200   .bss.buf.9669:0000000000000000 buf.9669
/var/folders/v3/wysfpd052nz8jkbx04pk0ym80000gn/T//ccJItEm3.s:3203   .bss.buf.9673:0000000000000000 $d
/var/folders/v3/wysfpd052nz8jkbx04pk0ym80000gn/T//ccJItEm3.s:3207   .bss.buf.9673:0000000000000000 buf.9673
/var/folders/v3/wysfpd052nz8jkbx04pk0ym80000gn/T//ccJItEm3.s:3210   .bss.buf.9677:0000000000000000 $d
/var/folders/v3/wysfpd052nz8jkbx04pk0ym80000gn/T//ccJItEm3.s:3214   .bss.buf.9677:0000000000000000 buf.9677
/var/folders/v3/wysfpd052nz8jkbx04pk0ym80000gn/T//ccJItEm3.s:3217   .bss.buf.9681:0000000000000000 $d
/var/folders/v3/wysfpd052nz8jkbx04pk0ym80000gn/T//ccJItEm3.s:3221   .bss.buf.9681:0000000000000000 buf.9681
/var/folders/v3/wysfpd052nz8jkbx04pk0ym80000gn/T//ccJItEm3.s:3224   .bss.buf.9685:0000000000000000 $d
ARM GAS  /var/folders/v3/wysfpd052nz8jkbx04pk0ym80000gn/T//ccJItEm3.s 			page 84


/var/folders/v3/wysfpd052nz8jkbx04pk0ym80000gn/T//ccJItEm3.s:3228   .bss.buf.9685:0000000000000000 buf.9685
/var/folders/v3/wysfpd052nz8jkbx04pk0ym80000gn/T//ccJItEm3.s:3231   .bss.buf.9689:0000000000000000 $d
/var/folders/v3/wysfpd052nz8jkbx04pk0ym80000gn/T//ccJItEm3.s:3235   .bss.buf.9689:0000000000000000 buf.9689
/var/folders/v3/wysfpd052nz8jkbx04pk0ym80000gn/T//ccJItEm3.s:3238   .bss.buf.9693:0000000000000000 $d
/var/folders/v3/wysfpd052nz8jkbx04pk0ym80000gn/T//ccJItEm3.s:3242   .bss.buf.9693:0000000000000000 buf.9693
/var/folders/v3/wysfpd052nz8jkbx04pk0ym80000gn/T//ccJItEm3.s:3245   .bss.buf.9697:0000000000000000 $d
/var/folders/v3/wysfpd052nz8jkbx04pk0ym80000gn/T//ccJItEm3.s:3249   .bss.buf.9697:0000000000000000 buf.9697
/var/folders/v3/wysfpd052nz8jkbx04pk0ym80000gn/T//ccJItEm3.s:3252   .bss.buf.9701:0000000000000000 $d
/var/folders/v3/wysfpd052nz8jkbx04pk0ym80000gn/T//ccJItEm3.s:3256   .bss.buf.9701:0000000000000000 buf.9701
/var/folders/v3/wysfpd052nz8jkbx04pk0ym80000gn/T//ccJItEm3.s:3259   .bss.buf.9705:0000000000000000 $d
/var/folders/v3/wysfpd052nz8jkbx04pk0ym80000gn/T//ccJItEm3.s:3263   .bss.buf.9705:0000000000000000 buf.9705
/var/folders/v3/wysfpd052nz8jkbx04pk0ym80000gn/T//ccJItEm3.s:3266   .bss.buf.9709:0000000000000000 $d
/var/folders/v3/wysfpd052nz8jkbx04pk0ym80000gn/T//ccJItEm3.s:3270   .bss.buf.9709:0000000000000000 buf.9709
/var/folders/v3/wysfpd052nz8jkbx04pk0ym80000gn/T//ccJItEm3.s:3273   .bss.buf.9713:0000000000000000 $d
/var/folders/v3/wysfpd052nz8jkbx04pk0ym80000gn/T//ccJItEm3.s:3277   .bss.buf.9713:0000000000000000 buf.9713
/var/folders/v3/wysfpd052nz8jkbx04pk0ym80000gn/T//ccJItEm3.s:3280   .bss.buf.9717:0000000000000000 $d
/var/folders/v3/wysfpd052nz8jkbx04pk0ym80000gn/T//ccJItEm3.s:3284   .bss.buf.9717:0000000000000000 buf.9717
/var/folders/v3/wysfpd052nz8jkbx04pk0ym80000gn/T//ccJItEm3.s:3287   .bss.buf.9721:0000000000000000 $d
/var/folders/v3/wysfpd052nz8jkbx04pk0ym80000gn/T//ccJItEm3.s:3291   .bss.buf.9721:0000000000000000 buf.9721
/var/folders/v3/wysfpd052nz8jkbx04pk0ym80000gn/T//ccJItEm3.s:3294   .bss.buf.9725:0000000000000000 $d
/var/folders/v3/wysfpd052nz8jkbx04pk0ym80000gn/T//ccJItEm3.s:3298   .bss.buf.9725:0000000000000000 buf.9725
/var/folders/v3/wysfpd052nz8jkbx04pk0ym80000gn/T//ccJItEm3.s:3301   .bss.buf.9729:0000000000000000 $d
/var/folders/v3/wysfpd052nz8jkbx04pk0ym80000gn/T//ccJItEm3.s:3305   .bss.buf.9729:0000000000000000 buf.9729
/var/folders/v3/wysfpd052nz8jkbx04pk0ym80000gn/T//ccJItEm3.s:3308   .bss.buf.9733:0000000000000000 $d
/var/folders/v3/wysfpd052nz8jkbx04pk0ym80000gn/T//ccJItEm3.s:3312   .bss.buf.9733:0000000000000000 buf.9733
/var/folders/v3/wysfpd052nz8jkbx04pk0ym80000gn/T//ccJItEm3.s:3315   .bss.buf.9737:0000000000000000 $d
/var/folders/v3/wysfpd052nz8jkbx04pk0ym80000gn/T//ccJItEm3.s:3319   .bss.buf.9737:0000000000000000 buf.9737
/var/folders/v3/wysfpd052nz8jkbx04pk0ym80000gn/T//ccJItEm3.s:3322   .bss.buf.9741:0000000000000000 $d
/var/folders/v3/wysfpd052nz8jkbx04pk0ym80000gn/T//ccJItEm3.s:3326   .bss.buf.9741:0000000000000000 buf.9741
/var/folders/v3/wysfpd052nz8jkbx04pk0ym80000gn/T//ccJItEm3.s:3329   .bss.buf.9745:0000000000000000 $d
/var/folders/v3/wysfpd052nz8jkbx04pk0ym80000gn/T//ccJItEm3.s:3333   .bss.buf.9745:0000000000000000 buf.9745
/var/folders/v3/wysfpd052nz8jkbx04pk0ym80000gn/T//ccJItEm3.s:3336   .bss.buf.9749:0000000000000000 $d
/var/folders/v3/wysfpd052nz8jkbx04pk0ym80000gn/T//ccJItEm3.s:3340   .bss.buf.9749:0000000000000000 buf.9749
/var/folders/v3/wysfpd052nz8jkbx04pk0ym80000gn/T//ccJItEm3.s:3343   .bss.buf.9753:0000000000000000 $d
/var/folders/v3/wysfpd052nz8jkbx04pk0ym80000gn/T//ccJItEm3.s:3347   .bss.buf.9753:0000000000000000 buf.9753
/var/folders/v3/wysfpd052nz8jkbx04pk0ym80000gn/T//ccJItEm3.s:3350   .bss.buf.9757:0000000000000000 $d
/var/folders/v3/wysfpd052nz8jkbx04pk0ym80000gn/T//ccJItEm3.s:3354   .bss.buf.9757:0000000000000000 buf.9757
/var/folders/v3/wysfpd052nz8jkbx04pk0ym80000gn/T//ccJItEm3.s:3357   .bss.buf.9761:0000000000000000 $d
/var/folders/v3/wysfpd052nz8jkbx04pk0ym80000gn/T//ccJItEm3.s:3361   .bss.buf.9761:0000000000000000 buf.9761
/var/folders/v3/wysfpd052nz8jkbx04pk0ym80000gn/T//ccJItEm3.s:3364   .bss.buf.9765:0000000000000000 $d
/var/folders/v3/wysfpd052nz8jkbx04pk0ym80000gn/T//ccJItEm3.s:3368   .bss.buf.9765:0000000000000000 buf.9765
/var/folders/v3/wysfpd052nz8jkbx04pk0ym80000gn/T//ccJItEm3.s:3371   .bss.buf.9769:0000000000000000 $d
/var/folders/v3/wysfpd052nz8jkbx04pk0ym80000gn/T//ccJItEm3.s:3375   .bss.buf.9769:0000000000000000 buf.9769
/var/folders/v3/wysfpd052nz8jkbx04pk0ym80000gn/T//ccJItEm3.s:3378   .bss.buf.9773:0000000000000000 $d
/var/folders/v3/wysfpd052nz8jkbx04pk0ym80000gn/T//ccJItEm3.s:3382   .bss.buf.9773:0000000000000000 buf.9773
/var/folders/v3/wysfpd052nz8jkbx04pk0ym80000gn/T//ccJItEm3.s:3385   .bss.buf.9777:0000000000000000 $d
/var/folders/v3/wysfpd052nz8jkbx04pk0ym80000gn/T//ccJItEm3.s:3389   .bss.buf.9777:0000000000000000 buf.9777
/var/folders/v3/wysfpd052nz8jkbx04pk0ym80000gn/T//ccJItEm3.s:3392   .bss.buf.9781:0000000000000000 $d
/var/folders/v3/wysfpd052nz8jkbx04pk0ym80000gn/T//ccJItEm3.s:3396   .bss.buf.9781:0000000000000000 buf.9781
/var/folders/v3/wysfpd052nz8jkbx04pk0ym80000gn/T//ccJItEm3.s:3399   .bss.buf.9785:0000000000000000 $d
/var/folders/v3/wysfpd052nz8jkbx04pk0ym80000gn/T//ccJItEm3.s:3403   .bss.buf.9785:0000000000000000 buf.9785
/var/folders/v3/wysfpd052nz8jkbx04pk0ym80000gn/T//ccJItEm3.s:3406   .bss.buf.9789:0000000000000000 $d
/var/folders/v3/wysfpd052nz8jkbx04pk0ym80000gn/T//ccJItEm3.s:3410   .bss.buf.9789:0000000000000000 buf.9789
/var/folders/v3/wysfpd052nz8jkbx04pk0ym80000gn/T//ccJItEm3.s:3413   .bss.buf.9793:0000000000000000 $d
/var/folders/v3/wysfpd052nz8jkbx04pk0ym80000gn/T//ccJItEm3.s:3417   .bss.buf.9793:0000000000000000 buf.9793
/var/folders/v3/wysfpd052nz8jkbx04pk0ym80000gn/T//ccJItEm3.s:3420   .bss.buf.9797:0000000000000000 $d
/var/folders/v3/wysfpd052nz8jkbx04pk0ym80000gn/T//ccJItEm3.s:3424   .bss.buf.9797:0000000000000000 buf.9797
ARM GAS  /var/folders/v3/wysfpd052nz8jkbx04pk0ym80000gn/T//ccJItEm3.s 			page 85


/var/folders/v3/wysfpd052nz8jkbx04pk0ym80000gn/T//ccJItEm3.s:3427   .bss.buf.9801:0000000000000000 $d
/var/folders/v3/wysfpd052nz8jkbx04pk0ym80000gn/T//ccJItEm3.s:3431   .bss.buf.9801:0000000000000000 buf.9801
/var/folders/v3/wysfpd052nz8jkbx04pk0ym80000gn/T//ccJItEm3.s:3434   .bss.buf.9805:0000000000000000 $d
/var/folders/v3/wysfpd052nz8jkbx04pk0ym80000gn/T//ccJItEm3.s:3438   .bss.buf.9805:0000000000000000 buf.9805
/var/folders/v3/wysfpd052nz8jkbx04pk0ym80000gn/T//ccJItEm3.s:3441   .bss.buf.9809:0000000000000000 $d
/var/folders/v3/wysfpd052nz8jkbx04pk0ym80000gn/T//ccJItEm3.s:3445   .bss.buf.9809:0000000000000000 buf.9809
/var/folders/v3/wysfpd052nz8jkbx04pk0ym80000gn/T//ccJItEm3.s:3448   .bss.buf.9813:0000000000000000 $d
/var/folders/v3/wysfpd052nz8jkbx04pk0ym80000gn/T//ccJItEm3.s:3452   .bss.buf.9813:0000000000000000 buf.9813
/var/folders/v3/wysfpd052nz8jkbx04pk0ym80000gn/T//ccJItEm3.s:3455   .bss.buf.9817:0000000000000000 $d
/var/folders/v3/wysfpd052nz8jkbx04pk0ym80000gn/T//ccJItEm3.s:3459   .bss.buf.9817:0000000000000000 buf.9817
/var/folders/v3/wysfpd052nz8jkbx04pk0ym80000gn/T//ccJItEm3.s:3462   .bss.buf.9821:0000000000000000 $d
/var/folders/v3/wysfpd052nz8jkbx04pk0ym80000gn/T//ccJItEm3.s:3466   .bss.buf.9821:0000000000000000 buf.9821
/var/folders/v3/wysfpd052nz8jkbx04pk0ym80000gn/T//ccJItEm3.s:3469   .bss.buf.9825:0000000000000000 $d
/var/folders/v3/wysfpd052nz8jkbx04pk0ym80000gn/T//ccJItEm3.s:3473   .bss.buf.9825:0000000000000000 buf.9825
/var/folders/v3/wysfpd052nz8jkbx04pk0ym80000gn/T//ccJItEm3.s:3476   .bss.buf.9829:0000000000000000 $d
/var/folders/v3/wysfpd052nz8jkbx04pk0ym80000gn/T//ccJItEm3.s:3480   .bss.buf.9829:0000000000000000 buf.9829
/var/folders/v3/wysfpd052nz8jkbx04pk0ym80000gn/T//ccJItEm3.s:3483   .bss.buf.9833:0000000000000000 $d
/var/folders/v3/wysfpd052nz8jkbx04pk0ym80000gn/T//ccJItEm3.s:3487   .bss.buf.9833:0000000000000000 buf.9833
/var/folders/v3/wysfpd052nz8jkbx04pk0ym80000gn/T//ccJItEm3.s:3490   .bss.buf.9837:0000000000000000 $d
/var/folders/v3/wysfpd052nz8jkbx04pk0ym80000gn/T//ccJItEm3.s:3494   .bss.buf.9837:0000000000000000 buf.9837
/var/folders/v3/wysfpd052nz8jkbx04pk0ym80000gn/T//ccJItEm3.s:3497   .bss.buf.9841:0000000000000000 $d
/var/folders/v3/wysfpd052nz8jkbx04pk0ym80000gn/T//ccJItEm3.s:3501   .bss.buf.9841:0000000000000000 buf.9841
/var/folders/v3/wysfpd052nz8jkbx04pk0ym80000gn/T//ccJItEm3.s:3504   .bss.buf.9845:0000000000000000 $d
/var/folders/v3/wysfpd052nz8jkbx04pk0ym80000gn/T//ccJItEm3.s:3508   .bss.buf.9845:0000000000000000 buf.9845
/var/folders/v3/wysfpd052nz8jkbx04pk0ym80000gn/T//ccJItEm3.s:3511   .bss.buf.9849:0000000000000000 $d
/var/folders/v3/wysfpd052nz8jkbx04pk0ym80000gn/T//ccJItEm3.s:3515   .bss.buf.9849:0000000000000000 buf.9849
/var/folders/v3/wysfpd052nz8jkbx04pk0ym80000gn/T//ccJItEm3.s:3518   .bss.buf.9853:0000000000000000 $d
/var/folders/v3/wysfpd052nz8jkbx04pk0ym80000gn/T//ccJItEm3.s:3522   .bss.buf.9853:0000000000000000 buf.9853
/var/folders/v3/wysfpd052nz8jkbx04pk0ym80000gn/T//ccJItEm3.s:3525   .bss.buf.9857:0000000000000000 $d
/var/folders/v3/wysfpd052nz8jkbx04pk0ym80000gn/T//ccJItEm3.s:3529   .bss.buf.9857:0000000000000000 buf.9857
/var/folders/v3/wysfpd052nz8jkbx04pk0ym80000gn/T//ccJItEm3.s:3532   .bss.buf.9861:0000000000000000 $d
/var/folders/v3/wysfpd052nz8jkbx04pk0ym80000gn/T//ccJItEm3.s:3536   .bss.buf.9861:0000000000000000 buf.9861
/var/folders/v3/wysfpd052nz8jkbx04pk0ym80000gn/T//ccJItEm3.s:3539   .bss.buf.9865:0000000000000000 $d
/var/folders/v3/wysfpd052nz8jkbx04pk0ym80000gn/T//ccJItEm3.s:3543   .bss.buf.9865:0000000000000000 buf.9865
/var/folders/v3/wysfpd052nz8jkbx04pk0ym80000gn/T//ccJItEm3.s:3546   .bss.buf.9869:0000000000000000 $d
/var/folders/v3/wysfpd052nz8jkbx04pk0ym80000gn/T//ccJItEm3.s:3550   .bss.buf.9869:0000000000000000 buf.9869
/var/folders/v3/wysfpd052nz8jkbx04pk0ym80000gn/T//ccJItEm3.s:3553   .bss.buf.9873:0000000000000000 $d
/var/folders/v3/wysfpd052nz8jkbx04pk0ym80000gn/T//ccJItEm3.s:3557   .bss.buf.9873:0000000000000000 buf.9873
/var/folders/v3/wysfpd052nz8jkbx04pk0ym80000gn/T//ccJItEm3.s:3560   .bss.buf.9877:0000000000000000 $d
/var/folders/v3/wysfpd052nz8jkbx04pk0ym80000gn/T//ccJItEm3.s:3564   .bss.buf.9877:0000000000000000 buf.9877
/var/folders/v3/wysfpd052nz8jkbx04pk0ym80000gn/T//ccJItEm3.s:3567   .bss.buf.9881:0000000000000000 $d
/var/folders/v3/wysfpd052nz8jkbx04pk0ym80000gn/T//ccJItEm3.s:3571   .bss.buf.9881:0000000000000000 buf.9881
/var/folders/v3/wysfpd052nz8jkbx04pk0ym80000gn/T//ccJItEm3.s:3574   .bss.buf.9885:0000000000000000 $d
/var/folders/v3/wysfpd052nz8jkbx04pk0ym80000gn/T//ccJItEm3.s:3578   .bss.buf.9885:0000000000000000 buf.9885
/var/folders/v3/wysfpd052nz8jkbx04pk0ym80000gn/T//ccJItEm3.s:3581   .bss.buf.9889:0000000000000000 $d
/var/folders/v3/wysfpd052nz8jkbx04pk0ym80000gn/T//ccJItEm3.s:3585   .bss.buf.9889:0000000000000000 buf.9889
/var/folders/v3/wysfpd052nz8jkbx04pk0ym80000gn/T//ccJItEm3.s:3588   .bss.buf.9893:0000000000000000 $d
/var/folders/v3/wysfpd052nz8jkbx04pk0ym80000gn/T//ccJItEm3.s:3592   .bss.buf.9893:0000000000000000 buf.9893
/var/folders/v3/wysfpd052nz8jkbx04pk0ym80000gn/T//ccJItEm3.s:3595   .bss.buf.9897:0000000000000000 $d
/var/folders/v3/wysfpd052nz8jkbx04pk0ym80000gn/T//ccJItEm3.s:3599   .bss.buf.9897:0000000000000000 buf.9897
/var/folders/v3/wysfpd052nz8jkbx04pk0ym80000gn/T//ccJItEm3.s:3602   .bss.buf.9901:0000000000000000 $d
/var/folders/v3/wysfpd052nz8jkbx04pk0ym80000gn/T//ccJItEm3.s:3606   .bss.buf.9901:0000000000000000 buf.9901
/var/folders/v3/wysfpd052nz8jkbx04pk0ym80000gn/T//ccJItEm3.s:3609   .bss.buf.9905:0000000000000000 $d
/var/folders/v3/wysfpd052nz8jkbx04pk0ym80000gn/T//ccJItEm3.s:3615   .bss.buf.9909:0000000000000000 $d
/var/folders/v3/wysfpd052nz8jkbx04pk0ym80000gn/T//ccJItEm3.s:3619   .bss.buf.9909:0000000000000000 buf.9909
/var/folders/v3/wysfpd052nz8jkbx04pk0ym80000gn/T//ccJItEm3.s:3622   .bss.buf.9913:0000000000000000 $d
/var/folders/v3/wysfpd052nz8jkbx04pk0ym80000gn/T//ccJItEm3.s:3626   .bss.buf.9913:0000000000000000 buf.9913
ARM GAS  /var/folders/v3/wysfpd052nz8jkbx04pk0ym80000gn/T//ccJItEm3.s 			page 86


/var/folders/v3/wysfpd052nz8jkbx04pk0ym80000gn/T//ccJItEm3.s:3629   .bss.buf.9917:0000000000000000 $d
/var/folders/v3/wysfpd052nz8jkbx04pk0ym80000gn/T//ccJItEm3.s:3633   .bss.buf.9917:0000000000000000 buf.9917
/var/folders/v3/wysfpd052nz8jkbx04pk0ym80000gn/T//ccJItEm3.s:3636   .bss.buf.9921:0000000000000000 $d
/var/folders/v3/wysfpd052nz8jkbx04pk0ym80000gn/T//ccJItEm3.s:3640   .bss.buf.9921:0000000000000000 buf.9921
/var/folders/v3/wysfpd052nz8jkbx04pk0ym80000gn/T//ccJItEm3.s:3643   .bss.buf.9925:0000000000000000 $d
/var/folders/v3/wysfpd052nz8jkbx04pk0ym80000gn/T//ccJItEm3.s:3647   .bss.buf.9925:0000000000000000 buf.9925
/var/folders/v3/wysfpd052nz8jkbx04pk0ym80000gn/T//ccJItEm3.s:3650   .bss.buf.9929:0000000000000000 $d
/var/folders/v3/wysfpd052nz8jkbx04pk0ym80000gn/T//ccJItEm3.s:3654   .bss.buf.9929:0000000000000000 buf.9929
/var/folders/v3/wysfpd052nz8jkbx04pk0ym80000gn/T//ccJItEm3.s:3657   .bss.buf.9933:0000000000000000 $d
/var/folders/v3/wysfpd052nz8jkbx04pk0ym80000gn/T//ccJItEm3.s:3661   .bss.buf.9933:0000000000000000 buf.9933
/var/folders/v3/wysfpd052nz8jkbx04pk0ym80000gn/T//ccJItEm3.s:3664   .bss.buf.9937:0000000000000000 $d
/var/folders/v3/wysfpd052nz8jkbx04pk0ym80000gn/T//ccJItEm3.s:3668   .bss.buf.9937:0000000000000000 buf.9937
/var/folders/v3/wysfpd052nz8jkbx04pk0ym80000gn/T//ccJItEm3.s:3671   .bss.buf.9941:0000000000000000 $d
/var/folders/v3/wysfpd052nz8jkbx04pk0ym80000gn/T//ccJItEm3.s:3677   .bss.buf.9945:0000000000000000 $d
/var/folders/v3/wysfpd052nz8jkbx04pk0ym80000gn/T//ccJItEm3.s:3681   .bss.buf.9945:0000000000000000 buf.9945
/var/folders/v3/wysfpd052nz8jkbx04pk0ym80000gn/T//ccJItEm3.s:3684   .bss.buf.9949:0000000000000000 $d
/var/folders/v3/wysfpd052nz8jkbx04pk0ym80000gn/T//ccJItEm3.s:3688   .bss.buf.9949:0000000000000000 buf.9949
/var/folders/v3/wysfpd052nz8jkbx04pk0ym80000gn/T//ccJItEm3.s:3691   .bss.buf.9953:0000000000000000 $d
/var/folders/v3/wysfpd052nz8jkbx04pk0ym80000gn/T//ccJItEm3.s:3695   .bss.buf.9953:0000000000000000 buf.9953
/var/folders/v3/wysfpd052nz8jkbx04pk0ym80000gn/T//ccJItEm3.s:3698   .bss.buf.9957:0000000000000000 $d
/var/folders/v3/wysfpd052nz8jkbx04pk0ym80000gn/T//ccJItEm3.s:3702   .bss.buf.9957:0000000000000000 buf.9957
/var/folders/v3/wysfpd052nz8jkbx04pk0ym80000gn/T//ccJItEm3.s:3705   .bss.buf.9961:0000000000000000 $d
/var/folders/v3/wysfpd052nz8jkbx04pk0ym80000gn/T//ccJItEm3.s:3709   .bss.buf.9961:0000000000000000 buf.9961
/var/folders/v3/wysfpd052nz8jkbx04pk0ym80000gn/T//ccJItEm3.s:3712   .bss.buf.9965:0000000000000000 $d
/var/folders/v3/wysfpd052nz8jkbx04pk0ym80000gn/T//ccJItEm3.s:3716   .bss.buf.9965:0000000000000000 buf.9965
/var/folders/v3/wysfpd052nz8jkbx04pk0ym80000gn/T//ccJItEm3.s:3719   .bss.buf.9969:0000000000000000 $d
/var/folders/v3/wysfpd052nz8jkbx04pk0ym80000gn/T//ccJItEm3.s:3723   .bss.buf.9969:0000000000000000 buf.9969
/var/folders/v3/wysfpd052nz8jkbx04pk0ym80000gn/T//ccJItEm3.s:3726   .bss.buf.9973:0000000000000000 $d
/var/folders/v3/wysfpd052nz8jkbx04pk0ym80000gn/T//ccJItEm3.s:3730   .bss.buf.9973:0000000000000000 buf.9973
/var/folders/v3/wysfpd052nz8jkbx04pk0ym80000gn/T//ccJItEm3.s:3733   .bss.buf.9977:0000000000000000 $d
/var/folders/v3/wysfpd052nz8jkbx04pk0ym80000gn/T//ccJItEm3.s:3737   .bss.buf.9977:0000000000000000 buf.9977
/var/folders/v3/wysfpd052nz8jkbx04pk0ym80000gn/T//ccJItEm3.s:3740   .bss.buf.9981:0000000000000000 $d
/var/folders/v3/wysfpd052nz8jkbx04pk0ym80000gn/T//ccJItEm3.s:3744   .bss.buf.9981:0000000000000000 buf.9981
/var/folders/v3/wysfpd052nz8jkbx04pk0ym80000gn/T//ccJItEm3.s:3747   .bss.buf.9985:0000000000000000 $d
/var/folders/v3/wysfpd052nz8jkbx04pk0ym80000gn/T//ccJItEm3.s:3751   .bss.buf.9985:0000000000000000 buf.9985
/var/folders/v3/wysfpd052nz8jkbx04pk0ym80000gn/T//ccJItEm3.s:3754   .bss.buf.9989:0000000000000000 $d
/var/folders/v3/wysfpd052nz8jkbx04pk0ym80000gn/T//ccJItEm3.s:3758   .bss.buf.9989:0000000000000000 buf.9989
/var/folders/v3/wysfpd052nz8jkbx04pk0ym80000gn/T//ccJItEm3.s:3761   .bss.buf.9993:0000000000000000 $d
/var/folders/v3/wysfpd052nz8jkbx04pk0ym80000gn/T//ccJItEm3.s:3765   .bss.buf.9993:0000000000000000 buf.9993
/var/folders/v3/wysfpd052nz8jkbx04pk0ym80000gn/T//ccJItEm3.s:3768   .bss.buf.9997:0000000000000000 $d
/var/folders/v3/wysfpd052nz8jkbx04pk0ym80000gn/T//ccJItEm3.s:3772   .bss.buf.9997:0000000000000000 buf.9997

NO UNDEFINED SYMBOLS
