ARM GAS  /var/folders/v3/wysfpd052nz8jkbx04pk0ym80000gn/T//ccoQpOVZ.s 			page 1


   1              		.cpu cortex-m4
   2              		.eabi_attribute 27, 1
   3              		.eabi_attribute 28, 1
   4              		.eabi_attribute 20, 1
   5              		.eabi_attribute 21, 1
   6              		.eabi_attribute 23, 3
   7              		.eabi_attribute 24, 1
   8              		.eabi_attribute 25, 1
   9              		.eabi_attribute 26, 1
  10              		.eabi_attribute 30, 1
  11              		.eabi_attribute 34, 1
  12              		.eabi_attribute 18, 4
  13              		.file	"u8g2_ll_hvline.c"
  14              		.text
  15              	.Ltext0:
  16              		.cfi_sections	.debug_frame
  17              		.section	.text.u8g2_ll_hvline_vertical_top_lsb,"ax",%progbits
  18              		.align	1
  19              		.global	u8g2_ll_hvline_vertical_top_lsb
  20              		.syntax unified
  21              		.thumb
  22              		.thumb_func
  23              		.fpu fpv4-sp-d16
  25              	u8g2_ll_hvline_vertical_top_lsb:
  26              	.LFB0:
  27              		.file 1 "/Users/imashio/Electronics/ARM/_Library/u8g2_ll_hvline.c"
   1:/Users/imashio/Electronics/ARM/_Library/u8g2_ll_hvline.c **** /*
   2:/Users/imashio/Electronics/ARM/_Library/u8g2_ll_hvline.c **** 
   3:/Users/imashio/Electronics/ARM/_Library/u8g2_ll_hvline.c ****   u8g2_ll_hvline.c
   4:/Users/imashio/Electronics/ARM/_Library/u8g2_ll_hvline.c ****   
   5:/Users/imashio/Electronics/ARM/_Library/u8g2_ll_hvline.c ****   low level hvline
   6:/Users/imashio/Electronics/ARM/_Library/u8g2_ll_hvline.c **** 
   7:/Users/imashio/Electronics/ARM/_Library/u8g2_ll_hvline.c ****   Universal 8bit Graphics Library (https://github.com/olikraus/u8g2/)
   8:/Users/imashio/Electronics/ARM/_Library/u8g2_ll_hvline.c **** 
   9:/Users/imashio/Electronics/ARM/_Library/u8g2_ll_hvline.c ****   Copyright (c) 2016, olikraus@gmail.com
  10:/Users/imashio/Electronics/ARM/_Library/u8g2_ll_hvline.c ****   All rights reserved.
  11:/Users/imashio/Electronics/ARM/_Library/u8g2_ll_hvline.c **** 
  12:/Users/imashio/Electronics/ARM/_Library/u8g2_ll_hvline.c ****   Redistribution and use in source and binary forms, with or without modification, 
  13:/Users/imashio/Electronics/ARM/_Library/u8g2_ll_hvline.c ****   are permitted provided that the following conditions are met:
  14:/Users/imashio/Electronics/ARM/_Library/u8g2_ll_hvline.c **** 
  15:/Users/imashio/Electronics/ARM/_Library/u8g2_ll_hvline.c ****   * Redistributions of source code must retain the above copyright notice, this list 
  16:/Users/imashio/Electronics/ARM/_Library/u8g2_ll_hvline.c ****     of conditions and the following disclaimer.
  17:/Users/imashio/Electronics/ARM/_Library/u8g2_ll_hvline.c ****     
  18:/Users/imashio/Electronics/ARM/_Library/u8g2_ll_hvline.c ****   * Redistributions in binary form must reproduce the above copyright notice, this 
  19:/Users/imashio/Electronics/ARM/_Library/u8g2_ll_hvline.c ****     list of conditions and the following disclaimer in the documentation and/or other 
  20:/Users/imashio/Electronics/ARM/_Library/u8g2_ll_hvline.c ****     materials provided with the distribution.
  21:/Users/imashio/Electronics/ARM/_Library/u8g2_ll_hvline.c **** 
  22:/Users/imashio/Electronics/ARM/_Library/u8g2_ll_hvline.c ****   THIS SOFTWARE IS PROVIDED BY THE COPYRIGHT HOLDERS AND 
  23:/Users/imashio/Electronics/ARM/_Library/u8g2_ll_hvline.c ****   CONTRIBUTORS "AS IS" AND ANY EXPRESS OR IMPLIED WARRANTIES, 
  24:/Users/imashio/Electronics/ARM/_Library/u8g2_ll_hvline.c ****   INCLUDING, BUT NOT LIMITED TO, THE IMPLIED WARRANTIES OF 
  25:/Users/imashio/Electronics/ARM/_Library/u8g2_ll_hvline.c ****   MERCHANTABILITY AND FITNESS FOR A PARTICULAR PURPOSE ARE 
  26:/Users/imashio/Electronics/ARM/_Library/u8g2_ll_hvline.c ****   DISCLAIMED. IN NO EVENT SHALL THE COPYRIGHT HOLDER OR 
  27:/Users/imashio/Electronics/ARM/_Library/u8g2_ll_hvline.c ****   CONTRIBUTORS BE LIABLE FOR ANY DIRECT, INDIRECT, INCIDENTAL, 
  28:/Users/imashio/Electronics/ARM/_Library/u8g2_ll_hvline.c ****   SPECIAL, EXEMPLARY, OR CONSEQUENTIAL DAMAGES (INCLUDING, BUT 
  29:/Users/imashio/Electronics/ARM/_Library/u8g2_ll_hvline.c ****   NOT LIMITED TO, PROCUREMENT OF SUBSTITUTE GOODS OR SERVICES; 
  30:/Users/imashio/Electronics/ARM/_Library/u8g2_ll_hvline.c ****   LOSS OF USE, DATA, OR PROFITS; OR BUSINESS INTERRUPTION) HOWEVER 
  31:/Users/imashio/Electronics/ARM/_Library/u8g2_ll_hvline.c ****   CAUSED AND ON ANY THEORY OF LIABILITY, WHETHER IN CONTRACT, 
ARM GAS  /var/folders/v3/wysfpd052nz8jkbx04pk0ym80000gn/T//ccoQpOVZ.s 			page 2


  32:/Users/imashio/Electronics/ARM/_Library/u8g2_ll_hvline.c ****   STRICT LIABILITY, OR TORT (INCLUDING NEGLIGENCE OR OTHERWISE) 
  33:/Users/imashio/Electronics/ARM/_Library/u8g2_ll_hvline.c ****   ARISING IN ANY WAY OUT OF THE USE OF THIS SOFTWARE, EVEN IF 
  34:/Users/imashio/Electronics/ARM/_Library/u8g2_ll_hvline.c ****   ADVISED OF THE POSSIBILITY OF SUCH DAMAGE.  
  35:/Users/imashio/Electronics/ARM/_Library/u8g2_ll_hvline.c **** 
  36:/Users/imashio/Electronics/ARM/_Library/u8g2_ll_hvline.c **** 
  37:/Users/imashio/Electronics/ARM/_Library/u8g2_ll_hvline.c ****   *ptr |= or_mask
  38:/Users/imashio/Electronics/ARM/_Library/u8g2_ll_hvline.c ****   *ptr ^= xor_mask
  39:/Users/imashio/Electronics/ARM/_Library/u8g2_ll_hvline.c ****   
  40:/Users/imashio/Electronics/ARM/_Library/u8g2_ll_hvline.c ****   color = 0:   or_mask = 1, xor_mask = 1
  41:/Users/imashio/Electronics/ARM/_Library/u8g2_ll_hvline.c ****   color = 1:   or_mask = 1, xor_mask = 0
  42:/Users/imashio/Electronics/ARM/_Library/u8g2_ll_hvline.c ****   color = 2:   or_mask = 0, xor_mask = 1
  43:/Users/imashio/Electronics/ARM/_Library/u8g2_ll_hvline.c **** 
  44:/Users/imashio/Electronics/ARM/_Library/u8g2_ll_hvline.c ****   if ( color <= 1 )
  45:/Users/imashio/Electronics/ARM/_Library/u8g2_ll_hvline.c ****     or_mask  = mask;
  46:/Users/imashio/Electronics/ARM/_Library/u8g2_ll_hvline.c ****   if ( color != 1 )
  47:/Users/imashio/Electronics/ARM/_Library/u8g2_ll_hvline.c ****     xor_mask = mask;
  48:/Users/imashio/Electronics/ARM/_Library/u8g2_ll_hvline.c ****     
  49:/Users/imashio/Electronics/ARM/_Library/u8g2_ll_hvline.c **** */
  50:/Users/imashio/Electronics/ARM/_Library/u8g2_ll_hvline.c **** 
  51:/Users/imashio/Electronics/ARM/_Library/u8g2_ll_hvline.c **** #include "u8g2.h"
  52:/Users/imashio/Electronics/ARM/_Library/u8g2_ll_hvline.c **** #include <assert.h>
  53:/Users/imashio/Electronics/ARM/_Library/u8g2_ll_hvline.c **** 
  54:/Users/imashio/Electronics/ARM/_Library/u8g2_ll_hvline.c **** /*=================================================*/
  55:/Users/imashio/Electronics/ARM/_Library/u8g2_ll_hvline.c **** /*
  56:/Users/imashio/Electronics/ARM/_Library/u8g2_ll_hvline.c ****   u8g2_ll_hvline_vertical_top_lsb
  57:/Users/imashio/Electronics/ARM/_Library/u8g2_ll_hvline.c ****     SSD13xx
  58:/Users/imashio/Electronics/ARM/_Library/u8g2_ll_hvline.c ****     UC1701    
  59:/Users/imashio/Electronics/ARM/_Library/u8g2_ll_hvline.c **** */
  60:/Users/imashio/Electronics/ARM/_Library/u8g2_ll_hvline.c **** 
  61:/Users/imashio/Electronics/ARM/_Library/u8g2_ll_hvline.c **** 
  62:/Users/imashio/Electronics/ARM/_Library/u8g2_ll_hvline.c **** #ifdef U8G2_HVLINE_SPEED_OPTIMIZATION
  63:/Users/imashio/Electronics/ARM/_Library/u8g2_ll_hvline.c **** 
  64:/Users/imashio/Electronics/ARM/_Library/u8g2_ll_hvline.c **** /*
  65:/Users/imashio/Electronics/ARM/_Library/u8g2_ll_hvline.c ****   x,y		Upper left position of the line within the local buffer (not the display!)
  66:/Users/imashio/Electronics/ARM/_Library/u8g2_ll_hvline.c ****   len		length of the line in pixel, len must not be 0
  67:/Users/imashio/Electronics/ARM/_Library/u8g2_ll_hvline.c ****   dir		0: horizontal line (left to right)
  68:/Users/imashio/Electronics/ARM/_Library/u8g2_ll_hvline.c **** 		1: vertical line (top to bottom)
  69:/Users/imashio/Electronics/ARM/_Library/u8g2_ll_hvline.c ****   asumption: 
  70:/Users/imashio/Electronics/ARM/_Library/u8g2_ll_hvline.c ****     all clipping done
  71:/Users/imashio/Electronics/ARM/_Library/u8g2_ll_hvline.c **** */
  72:/Users/imashio/Electronics/ARM/_Library/u8g2_ll_hvline.c **** void u8g2_ll_hvline_vertical_top_lsb(u8g2_t *u8g2, u8g2_uint_t x, u8g2_uint_t y, u8g2_uint_t len, u
  73:/Users/imashio/Electronics/ARM/_Library/u8g2_ll_hvline.c **** {
  28              		.loc 1 73 0
  29              		.cfi_startproc
  30              		@ args = 4, pretend = 0, frame = 0
  31              		@ frame_needed = 0, uses_anonymous_args = 0
  32              	.LVL0:
  33 0000 F0B5     		push	{r4, r5, r6, r7, lr}
  34              	.LCFI0:
  35              		.cfi_def_cfa_offset 20
  36              		.cfi_offset 4, -20
  37              		.cfi_offset 5, -16
  38              		.cfi_offset 6, -12
  39              		.cfi_offset 7, -8
  40              		.cfi_offset 14, -4
  41 0002 9DF814C0 		ldrb	ip, [sp, #20]	@ zero_extendqisi2
  42              	.LVL1:
ARM GAS  /var/folders/v3/wysfpd052nz8jkbx04pk0ym80000gn/T//ccoQpOVZ.s 			page 3


  74:/Users/imashio/Electronics/ARM/_Library/u8g2_ll_hvline.c ****   uint16_t offset;
  75:/Users/imashio/Electronics/ARM/_Library/u8g2_ll_hvline.c ****   uint8_t *ptr;
  76:/Users/imashio/Electronics/ARM/_Library/u8g2_ll_hvline.c ****   uint8_t bit_pos, mask;
  77:/Users/imashio/Electronics/ARM/_Library/u8g2_ll_hvline.c ****   uint8_t or_mask, xor_mask;
  78:/Users/imashio/Electronics/ARM/_Library/u8g2_ll_hvline.c **** 
  79:/Users/imashio/Electronics/ARM/_Library/u8g2_ll_hvline.c ****   //assert(x >= u8g2->buf_x0);
  80:/Users/imashio/Electronics/ARM/_Library/u8g2_ll_hvline.c ****   //assert(x < u8g2_GetU8x8(u8g2)->display_info->tile_width*8);
  81:/Users/imashio/Electronics/ARM/_Library/u8g2_ll_hvline.c ****   //assert(y >= u8g2->buf_y0);
  82:/Users/imashio/Electronics/ARM/_Library/u8g2_ll_hvline.c ****   //assert(y < u8g2_GetU8x8(u8g2)->display_info->tile_height*8);
  83:/Users/imashio/Electronics/ARM/_Library/u8g2_ll_hvline.c ****   
  84:/Users/imashio/Electronics/ARM/_Library/u8g2_ll_hvline.c ****   /* bytes are vertical, lsb on top (y=0), msb at bottom (y=7) */
  85:/Users/imashio/Electronics/ARM/_Library/u8g2_ll_hvline.c ****   bit_pos = y;		/* overflow truncate is ok here... */
  86:/Users/imashio/Electronics/ARM/_Library/u8g2_ll_hvline.c ****   bit_pos &= 7; 	/* ... because only the lowest 3 bits are needed */
  43              		.loc 1 86 0
  44 0006 02F00705 		and	r5, r2, #7
  45              	.LVL2:
  87:/Users/imashio/Electronics/ARM/_Library/u8g2_ll_hvline.c ****   mask = 1;
  88:/Users/imashio/Electronics/ARM/_Library/u8g2_ll_hvline.c ****   mask <<= bit_pos;
  46              		.loc 1 88 0
  47 000a 0124     		movs	r4, #1
  48 000c AC40     		lsls	r4, r4, r5
  49 000e E4B2     		uxtb	r4, r4
  50              	.LVL3:
  89:/Users/imashio/Electronics/ARM/_Library/u8g2_ll_hvline.c **** 
  90:/Users/imashio/Electronics/ARM/_Library/u8g2_ll_hvline.c ****   or_mask = 0;
  91:/Users/imashio/Electronics/ARM/_Library/u8g2_ll_hvline.c ****   xor_mask = 0;
  92:/Users/imashio/Electronics/ARM/_Library/u8g2_ll_hvline.c ****   if ( u8g2->draw_color <= 1 )
  51              		.loc 1 92 0
  52 0010 90F87D70 		ldrb	r7, [r0, #125]	@ zero_extendqisi2
  53 0014 012F     		cmp	r7, #1
  54 0016 19D9     		bls	.L10
  90:/Users/imashio/Electronics/ARM/_Library/u8g2_ll_hvline.c ****   xor_mask = 0;
  55              		.loc 1 90 0
  56 0018 0026     		movs	r6, #0
  57              	.L2:
  58              	.LVL4:
  93:/Users/imashio/Electronics/ARM/_Library/u8g2_ll_hvline.c ****     or_mask  = mask;
  94:/Users/imashio/Electronics/ARM/_Library/u8g2_ll_hvline.c ****   if ( u8g2->draw_color != 1 )
  59              		.loc 1 94 0
  60 001a 012F     		cmp	r7, #1
  61 001c 18D0     		beq	.L14
  62              	.LVL5:
  63              	.L3:
  95:/Users/imashio/Electronics/ARM/_Library/u8g2_ll_hvline.c ****     xor_mask = mask;
  96:/Users/imashio/Electronics/ARM/_Library/u8g2_ll_hvline.c **** 
  97:/Users/imashio/Electronics/ARM/_Library/u8g2_ll_hvline.c **** 
  98:/Users/imashio/Electronics/ARM/_Library/u8g2_ll_hvline.c ****   offset = y;		/* y might be 8 or 16 bit, but we need 16 bit, so use a 16 bit variable */
  99:/Users/imashio/Electronics/ARM/_Library/u8g2_ll_hvline.c ****   offset &= ~7;
  64              		.loc 1 99 0
  65 001e 02F0F802 		and	r2, r2, #248
  66              	.LVL6:
 100:/Users/imashio/Electronics/ARM/_Library/u8g2_ll_hvline.c ****   offset *= u8g2_GetU8x8(u8g2)->display_info->tile_width;
  67              		.loc 1 100 0
  68 0022 0768     		ldr	r7, [r0]
  69 0024 97F810E0 		ldrb	lr, [r7, #16]	@ zero_extendqisi2
  70              	.LVL7:
 101:/Users/imashio/Electronics/ARM/_Library/u8g2_ll_hvline.c ****   ptr = u8g2->tile_buf_ptr;
ARM GAS  /var/folders/v3/wysfpd052nz8jkbx04pk0ym80000gn/T//ccoQpOVZ.s 			page 4


  71              		.loc 1 101 0
  72 0028 476B     		ldr	r7, [r0, #52]
  73              	.LVL8:
 102:/Users/imashio/Electronics/ARM/_Library/u8g2_ll_hvline.c ****   ptr += offset;
 103:/Users/imashio/Electronics/ARM/_Library/u8g2_ll_hvline.c ****   ptr += x;
  74              		.loc 1 103 0
  75 002a 0EFB0211 		mla	r1, lr, r2, r1
  76              	.LVL9:
  77 002e 3944     		add	r1, r1, r7
  78              	.LVL10:
 104:/Users/imashio/Electronics/ARM/_Library/u8g2_ll_hvline.c ****   
 105:/Users/imashio/Electronics/ARM/_Library/u8g2_ll_hvline.c ****   if ( dir == 0 )
  79              		.loc 1 105 0
  80 0030 BCF1000F 		cmp	ip, #0
  81 0034 16D1     		bne	.L4
  82              	.LVL11:
  83              	.L5:
 106:/Users/imashio/Electronics/ARM/_Library/u8g2_ll_hvline.c ****   {
 107:/Users/imashio/Electronics/ARM/_Library/u8g2_ll_hvline.c ****       do
 108:/Users/imashio/Electronics/ARM/_Library/u8g2_ll_hvline.c ****       {
 109:/Users/imashio/Electronics/ARM/_Library/u8g2_ll_hvline.c **** 	*ptr |= or_mask;
  84              		.loc 1 109 0 discriminator 1
  85 0036 0A78     		ldrb	r2, [r1]	@ zero_extendqisi2
  86 0038 3243     		orrs	r2, r2, r6
  87 003a D2B2     		uxtb	r2, r2
 110:/Users/imashio/Electronics/ARM/_Library/u8g2_ll_hvline.c **** 	*ptr ^= xor_mask;
  88              		.loc 1 110 0 discriminator 1
  89 003c 6240     		eors	r2, r2, r4
  90 003e 01F8012B 		strb	r2, [r1], #1
  91              	.LVL12:
 111:/Users/imashio/Electronics/ARM/_Library/u8g2_ll_hvline.c **** 	ptr++;
 112:/Users/imashio/Electronics/ARM/_Library/u8g2_ll_hvline.c **** 	len--;
  92              		.loc 1 112 0 discriminator 1
  93 0042 013B     		subs	r3, r3, #1
  94              	.LVL13:
 113:/Users/imashio/Electronics/ARM/_Library/u8g2_ll_hvline.c ****       } while( len != 0 );
  95              		.loc 1 113 0 discriminator 1
  96 0044 13F0FF03 		ands	r3, r3, #255
  97              	.LVL14:
  98 0048 F5D1     		bne	.L5
  99              	.LVL15:
 100              	.L1:
 114:/Users/imashio/Electronics/ARM/_Library/u8g2_ll_hvline.c ****   }
 115:/Users/imashio/Electronics/ARM/_Library/u8g2_ll_hvline.c ****   else
 116:/Users/imashio/Electronics/ARM/_Library/u8g2_ll_hvline.c ****   {    
 117:/Users/imashio/Electronics/ARM/_Library/u8g2_ll_hvline.c ****     do
 118:/Users/imashio/Electronics/ARM/_Library/u8g2_ll_hvline.c ****     {
 119:/Users/imashio/Electronics/ARM/_Library/u8g2_ll_hvline.c ****       *ptr |= or_mask;
 120:/Users/imashio/Electronics/ARM/_Library/u8g2_ll_hvline.c ****       *ptr ^= xor_mask;
 121:/Users/imashio/Electronics/ARM/_Library/u8g2_ll_hvline.c ****       
 122:/Users/imashio/Electronics/ARM/_Library/u8g2_ll_hvline.c ****       bit_pos++;
 123:/Users/imashio/Electronics/ARM/_Library/u8g2_ll_hvline.c ****       bit_pos &= 7;
 124:/Users/imashio/Electronics/ARM/_Library/u8g2_ll_hvline.c **** 
 125:/Users/imashio/Electronics/ARM/_Library/u8g2_ll_hvline.c ****       len--;
 126:/Users/imashio/Electronics/ARM/_Library/u8g2_ll_hvline.c **** 
 127:/Users/imashio/Electronics/ARM/_Library/u8g2_ll_hvline.c ****       if ( bit_pos == 0 )
 128:/Users/imashio/Electronics/ARM/_Library/u8g2_ll_hvline.c ****       {
ARM GAS  /var/folders/v3/wysfpd052nz8jkbx04pk0ym80000gn/T//ccoQpOVZ.s 			page 5


 129:/Users/imashio/Electronics/ARM/_Library/u8g2_ll_hvline.c **** 	ptr+=u8g2->pixel_buf_width;	/* 6 Jan 17: Changed u8g2->width to u8g2->pixel_buf_width, issue #148 
 130:/Users/imashio/Electronics/ARM/_Library/u8g2_ll_hvline.c **** 		
 131:/Users/imashio/Electronics/ARM/_Library/u8g2_ll_hvline.c **** 	if ( u8g2->draw_color <= 1 )
 132:/Users/imashio/Electronics/ARM/_Library/u8g2_ll_hvline.c **** 	  or_mask  = 1;
 133:/Users/imashio/Electronics/ARM/_Library/u8g2_ll_hvline.c **** 	if ( u8g2->draw_color != 1 )
 134:/Users/imashio/Electronics/ARM/_Library/u8g2_ll_hvline.c **** 	  xor_mask = 1;
 135:/Users/imashio/Electronics/ARM/_Library/u8g2_ll_hvline.c ****       }
 136:/Users/imashio/Electronics/ARM/_Library/u8g2_ll_hvline.c ****       else
 137:/Users/imashio/Electronics/ARM/_Library/u8g2_ll_hvline.c ****       {
 138:/Users/imashio/Electronics/ARM/_Library/u8g2_ll_hvline.c **** 	or_mask <<= 1;
 139:/Users/imashio/Electronics/ARM/_Library/u8g2_ll_hvline.c **** 	xor_mask <<= 1;
 140:/Users/imashio/Electronics/ARM/_Library/u8g2_ll_hvline.c ****       }
 141:/Users/imashio/Electronics/ARM/_Library/u8g2_ll_hvline.c ****     } while( len != 0 );
 142:/Users/imashio/Electronics/ARM/_Library/u8g2_ll_hvline.c ****   }
 143:/Users/imashio/Electronics/ARM/_Library/u8g2_ll_hvline.c **** }
 101              		.loc 1 143 0
 102 004a F0BD     		pop	{r4, r5, r6, r7, pc}
 103              	.LVL16:
 104              	.L10:
  93:/Users/imashio/Electronics/ARM/_Library/u8g2_ll_hvline.c ****   if ( u8g2->draw_color != 1 )
 105              		.loc 1 93 0
 106 004c 2646     		mov	r6, r4
 107 004e E4E7     		b	.L2
 108              	.LVL17:
 109              	.L14:
  91:/Users/imashio/Electronics/ARM/_Library/u8g2_ll_hvline.c ****   if ( u8g2->draw_color <= 1 )
 110              		.loc 1 91 0
 111 0050 0024     		movs	r4, #0
 112              	.LVL18:
 113 0052 E4E7     		b	.L3
 114              	.LVL19:
 115              	.L15:
 132:/Users/imashio/Electronics/ARM/_Library/u8g2_ll_hvline.c **** 	if ( u8g2->draw_color != 1 )
 116              		.loc 1 132 0
 117 0054 0126     		movs	r6, #1
 118              	.LVL20:
 119 0056 17E0     		b	.L8
 120              	.LVL21:
 121              	.L7:
 138:/Users/imashio/Electronics/ARM/_Library/u8g2_ll_hvline.c **** 	xor_mask <<= 1;
 122              		.loc 1 138 0
 123 0058 7600     		lsls	r6, r6, #1
 124              	.LVL22:
 125 005a F6B2     		uxtb	r6, r6
 126              	.LVL23:
 139:/Users/imashio/Electronics/ARM/_Library/u8g2_ll_hvline.c ****       }
 127              		.loc 1 139 0
 128 005c 6400     		lsls	r4, r4, #1
 129              	.LVL24:
 130 005e E4B2     		uxtb	r4, r4
 131              	.LVL25:
 132              	.L9:
 141:/Users/imashio/Electronics/ARM/_Library/u8g2_ll_hvline.c ****   }
 133              		.loc 1 141 0
 134 0060 002B     		cmp	r3, #0
 135 0062 F2D0     		beq	.L1
 136              	.L4:
ARM GAS  /var/folders/v3/wysfpd052nz8jkbx04pk0ym80000gn/T//ccoQpOVZ.s 			page 6


 137              	.LVL26:
 119:/Users/imashio/Electronics/ARM/_Library/u8g2_ll_hvline.c ****       *ptr ^= xor_mask;
 138              		.loc 1 119 0
 139 0064 0A78     		ldrb	r2, [r1]	@ zero_extendqisi2
 140 0066 3243     		orrs	r2, r2, r6
 141 0068 D2B2     		uxtb	r2, r2
 120:/Users/imashio/Electronics/ARM/_Library/u8g2_ll_hvline.c ****       
 142              		.loc 1 120 0
 143 006a 6240     		eors	r2, r2, r4
 144 006c 0A70     		strb	r2, [r1]
 122:/Users/imashio/Electronics/ARM/_Library/u8g2_ll_hvline.c ****       bit_pos &= 7;
 145              		.loc 1 122 0
 146 006e 6A1C     		adds	r2, r5, #1
 147              	.LVL27:
 125:/Users/imashio/Electronics/ARM/_Library/u8g2_ll_hvline.c **** 
 148              		.loc 1 125 0
 149 0070 013B     		subs	r3, r3, #1
 150              	.LVL28:
 151 0072 DBB2     		uxtb	r3, r3
 152              	.LVL29:
 127:/Users/imashio/Electronics/ARM/_Library/u8g2_ll_hvline.c ****       {
 153              		.loc 1 127 0
 154 0074 12F00705 		ands	r5, r2, #7
 155 0078 EED1     		bne	.L7
 129:/Users/imashio/Electronics/ARM/_Library/u8g2_ll_hvline.c **** 		
 156              		.loc 1 129 0
 157 007a 90F83A20 		ldrb	r2, [r0, #58]	@ zero_extendqisi2
 158              	.LVL30:
 159 007e 1144     		add	r1, r1, r2
 160              	.LVL31:
 131:/Users/imashio/Electronics/ARM/_Library/u8g2_ll_hvline.c **** 	  or_mask  = 1;
 161              		.loc 1 131 0
 162 0080 90F87D20 		ldrb	r2, [r0, #125]	@ zero_extendqisi2
 163 0084 012A     		cmp	r2, #1
 164 0086 E5D9     		bls	.L15
 165              	.LVL32:
 166              	.L8:
 133:/Users/imashio/Electronics/ARM/_Library/u8g2_ll_hvline.c **** 	  xor_mask = 1;
 167              		.loc 1 133 0
 168 0088 012A     		cmp	r2, #1
 169 008a E9D0     		beq	.L9
 134:/Users/imashio/Electronics/ARM/_Library/u8g2_ll_hvline.c ****       }
 170              		.loc 1 134 0
 171 008c 0124     		movs	r4, #1
 172              	.LVL33:
 173 008e E7E7     		b	.L9
 174              		.cfi_endproc
 175              	.LFE0:
 177              		.section	.text.u8g2_ll_hvline_horizontal_right_lsb,"ax",%progbits
 178              		.align	1
 179              		.global	u8g2_ll_hvline_horizontal_right_lsb
 180              		.syntax unified
 181              		.thumb
 182              		.thumb_func
 183              		.fpu fpv4-sp-d16
 185              	u8g2_ll_hvline_horizontal_right_lsb:
 186              	.LFB1:
ARM GAS  /var/folders/v3/wysfpd052nz8jkbx04pk0ym80000gn/T//ccoQpOVZ.s 			page 7


 144:/Users/imashio/Electronics/ARM/_Library/u8g2_ll_hvline.c **** 
 145:/Users/imashio/Electronics/ARM/_Library/u8g2_ll_hvline.c **** 
 146:/Users/imashio/Electronics/ARM/_Library/u8g2_ll_hvline.c **** 
 147:/Users/imashio/Electronics/ARM/_Library/u8g2_ll_hvline.c **** #else /* U8G2_HVLINE_SPEED_OPTIMIZATION */
 148:/Users/imashio/Electronics/ARM/_Library/u8g2_ll_hvline.c **** 
 149:/Users/imashio/Electronics/ARM/_Library/u8g2_ll_hvline.c **** /*
 150:/Users/imashio/Electronics/ARM/_Library/u8g2_ll_hvline.c ****   x,y position within the buffer
 151:/Users/imashio/Electronics/ARM/_Library/u8g2_ll_hvline.c **** */
 152:/Users/imashio/Electronics/ARM/_Library/u8g2_ll_hvline.c **** static void u8g2_draw_pixel_vertical_top_lsb(u8g2_t *u8g2, u8g2_uint_t x, u8g2_uint_t y)
 153:/Users/imashio/Electronics/ARM/_Library/u8g2_ll_hvline.c **** {
 154:/Users/imashio/Electronics/ARM/_Library/u8g2_ll_hvline.c ****   uint16_t offset;
 155:/Users/imashio/Electronics/ARM/_Library/u8g2_ll_hvline.c ****   uint8_t *ptr;
 156:/Users/imashio/Electronics/ARM/_Library/u8g2_ll_hvline.c ****   uint8_t bit_pos, mask;
 157:/Users/imashio/Electronics/ARM/_Library/u8g2_ll_hvline.c ****   
 158:/Users/imashio/Electronics/ARM/_Library/u8g2_ll_hvline.c ****   //assert(x >= u8g2->buf_x0);
 159:/Users/imashio/Electronics/ARM/_Library/u8g2_ll_hvline.c ****   //assert(x < u8g2_GetU8x8(u8g2)->display_info->tile_width*8);
 160:/Users/imashio/Electronics/ARM/_Library/u8g2_ll_hvline.c ****   //assert(y >= u8g2->buf_y0);
 161:/Users/imashio/Electronics/ARM/_Library/u8g2_ll_hvline.c ****   //assert(y < u8g2_GetU8x8(u8g2)->display_info->tile_height*8);
 162:/Users/imashio/Electronics/ARM/_Library/u8g2_ll_hvline.c ****   
 163:/Users/imashio/Electronics/ARM/_Library/u8g2_ll_hvline.c ****   /* bytes are vertical, lsb on top (y=0), msb at bottom (y=7) */
 164:/Users/imashio/Electronics/ARM/_Library/u8g2_ll_hvline.c ****   bit_pos = y;		/* overflow truncate is ok here... */
 165:/Users/imashio/Electronics/ARM/_Library/u8g2_ll_hvline.c ****   bit_pos &= 7; 	/* ... because only the lowest 3 bits are needed */
 166:/Users/imashio/Electronics/ARM/_Library/u8g2_ll_hvline.c ****   mask = 1;
 167:/Users/imashio/Electronics/ARM/_Library/u8g2_ll_hvline.c ****   mask <<= bit_pos;
 168:/Users/imashio/Electronics/ARM/_Library/u8g2_ll_hvline.c **** 
 169:/Users/imashio/Electronics/ARM/_Library/u8g2_ll_hvline.c ****   offset = y;		/* y might be 8 or 16 bit, but we need 16 bit, so use a 16 bit variable */
 170:/Users/imashio/Electronics/ARM/_Library/u8g2_ll_hvline.c ****   offset &= ~7;
 171:/Users/imashio/Electronics/ARM/_Library/u8g2_ll_hvline.c ****   offset *= u8g2_GetU8x8(u8g2)->display_info->tile_width;
 172:/Users/imashio/Electronics/ARM/_Library/u8g2_ll_hvline.c ****   ptr = u8g2->tile_buf_ptr;
 173:/Users/imashio/Electronics/ARM/_Library/u8g2_ll_hvline.c ****   ptr += offset;
 174:/Users/imashio/Electronics/ARM/_Library/u8g2_ll_hvline.c ****   ptr += x;
 175:/Users/imashio/Electronics/ARM/_Library/u8g2_ll_hvline.c **** 
 176:/Users/imashio/Electronics/ARM/_Library/u8g2_ll_hvline.c **** 
 177:/Users/imashio/Electronics/ARM/_Library/u8g2_ll_hvline.c ****   if ( u8g2->draw_color <= 1 )
 178:/Users/imashio/Electronics/ARM/_Library/u8g2_ll_hvline.c ****     *ptr |= mask;
 179:/Users/imashio/Electronics/ARM/_Library/u8g2_ll_hvline.c ****   if ( u8g2->draw_color != 1 )
 180:/Users/imashio/Electronics/ARM/_Library/u8g2_ll_hvline.c ****     *ptr ^= mask;
 181:/Users/imashio/Electronics/ARM/_Library/u8g2_ll_hvline.c **** 
 182:/Users/imashio/Electronics/ARM/_Library/u8g2_ll_hvline.c **** }
 183:/Users/imashio/Electronics/ARM/_Library/u8g2_ll_hvline.c **** 
 184:/Users/imashio/Electronics/ARM/_Library/u8g2_ll_hvline.c **** /*
 185:/Users/imashio/Electronics/ARM/_Library/u8g2_ll_hvline.c ****   x,y		Upper left position of the line within the local buffer (not the display!)
 186:/Users/imashio/Electronics/ARM/_Library/u8g2_ll_hvline.c ****   len		length of the line in pixel, len must not be 0
 187:/Users/imashio/Electronics/ARM/_Library/u8g2_ll_hvline.c ****   dir		0: horizontal line (left to right)
 188:/Users/imashio/Electronics/ARM/_Library/u8g2_ll_hvline.c **** 		1: vertical line (top to bottom)
 189:/Users/imashio/Electronics/ARM/_Library/u8g2_ll_hvline.c ****   asumption: 
 190:/Users/imashio/Electronics/ARM/_Library/u8g2_ll_hvline.c ****     all clipping done
 191:/Users/imashio/Electronics/ARM/_Library/u8g2_ll_hvline.c **** */
 192:/Users/imashio/Electronics/ARM/_Library/u8g2_ll_hvline.c **** void u8g2_ll_hvline_vertical_top_lsb(u8g2_t *u8g2, u8g2_uint_t x, u8g2_uint_t y, u8g2_uint_t len, u
 193:/Users/imashio/Electronics/ARM/_Library/u8g2_ll_hvline.c **** {
 194:/Users/imashio/Electronics/ARM/_Library/u8g2_ll_hvline.c ****   if ( dir == 0 )
 195:/Users/imashio/Electronics/ARM/_Library/u8g2_ll_hvline.c ****   {
 196:/Users/imashio/Electronics/ARM/_Library/u8g2_ll_hvline.c ****     do
 197:/Users/imashio/Electronics/ARM/_Library/u8g2_ll_hvline.c ****     {
 198:/Users/imashio/Electronics/ARM/_Library/u8g2_ll_hvline.c ****       u8g2_draw_pixel_vertical_top_lsb(u8g2, x, y);
 199:/Users/imashio/Electronics/ARM/_Library/u8g2_ll_hvline.c ****       x++;
 200:/Users/imashio/Electronics/ARM/_Library/u8g2_ll_hvline.c ****       len--;
ARM GAS  /var/folders/v3/wysfpd052nz8jkbx04pk0ym80000gn/T//ccoQpOVZ.s 			page 8


 201:/Users/imashio/Electronics/ARM/_Library/u8g2_ll_hvline.c ****     } while( len != 0 );
 202:/Users/imashio/Electronics/ARM/_Library/u8g2_ll_hvline.c ****   }
 203:/Users/imashio/Electronics/ARM/_Library/u8g2_ll_hvline.c ****   else
 204:/Users/imashio/Electronics/ARM/_Library/u8g2_ll_hvline.c ****   {
 205:/Users/imashio/Electronics/ARM/_Library/u8g2_ll_hvline.c ****     do
 206:/Users/imashio/Electronics/ARM/_Library/u8g2_ll_hvline.c ****     {
 207:/Users/imashio/Electronics/ARM/_Library/u8g2_ll_hvline.c ****       u8g2_draw_pixel_vertical_top_lsb(u8g2, x, y);
 208:/Users/imashio/Electronics/ARM/_Library/u8g2_ll_hvline.c ****       y++;
 209:/Users/imashio/Electronics/ARM/_Library/u8g2_ll_hvline.c ****       len--;
 210:/Users/imashio/Electronics/ARM/_Library/u8g2_ll_hvline.c ****     } while( len != 0 );
 211:/Users/imashio/Electronics/ARM/_Library/u8g2_ll_hvline.c ****   }
 212:/Users/imashio/Electronics/ARM/_Library/u8g2_ll_hvline.c **** }
 213:/Users/imashio/Electronics/ARM/_Library/u8g2_ll_hvline.c **** 
 214:/Users/imashio/Electronics/ARM/_Library/u8g2_ll_hvline.c **** 
 215:/Users/imashio/Electronics/ARM/_Library/u8g2_ll_hvline.c **** #endif /* U8G2_HVLINE_SPEED_OPTIMIZATION */
 216:/Users/imashio/Electronics/ARM/_Library/u8g2_ll_hvline.c **** 
 217:/Users/imashio/Electronics/ARM/_Library/u8g2_ll_hvline.c **** /*=================================================*/
 218:/Users/imashio/Electronics/ARM/_Library/u8g2_ll_hvline.c **** /*
 219:/Users/imashio/Electronics/ARM/_Library/u8g2_ll_hvline.c ****   u8g2_ll_hvline_horizontal_right_lsb
 220:/Users/imashio/Electronics/ARM/_Library/u8g2_ll_hvline.c ****     ST7920
 221:/Users/imashio/Electronics/ARM/_Library/u8g2_ll_hvline.c **** */
 222:/Users/imashio/Electronics/ARM/_Library/u8g2_ll_hvline.c **** 
 223:/Users/imashio/Electronics/ARM/_Library/u8g2_ll_hvline.c **** #ifdef U8G2_HVLINE_SPEED_OPTIMIZATION
 224:/Users/imashio/Electronics/ARM/_Library/u8g2_ll_hvline.c **** 
 225:/Users/imashio/Electronics/ARM/_Library/u8g2_ll_hvline.c **** /*
 226:/Users/imashio/Electronics/ARM/_Library/u8g2_ll_hvline.c ****   x,y		Upper left position of the line within the local buffer (not the display!)
 227:/Users/imashio/Electronics/ARM/_Library/u8g2_ll_hvline.c ****   len		length of the line in pixel, len must not be 0
 228:/Users/imashio/Electronics/ARM/_Library/u8g2_ll_hvline.c ****   dir		0: horizontal line (left to right)
 229:/Users/imashio/Electronics/ARM/_Library/u8g2_ll_hvline.c **** 		1: vertical line (top to bottom)
 230:/Users/imashio/Electronics/ARM/_Library/u8g2_ll_hvline.c ****   asumption: 
 231:/Users/imashio/Electronics/ARM/_Library/u8g2_ll_hvline.c ****     all clipping done
 232:/Users/imashio/Electronics/ARM/_Library/u8g2_ll_hvline.c **** */
 233:/Users/imashio/Electronics/ARM/_Library/u8g2_ll_hvline.c **** 
 234:/Users/imashio/Electronics/ARM/_Library/u8g2_ll_hvline.c **** void u8g2_ll_hvline_horizontal_right_lsb(u8g2_t *u8g2, u8g2_uint_t x, u8g2_uint_t y, u8g2_uint_t le
 235:/Users/imashio/Electronics/ARM/_Library/u8g2_ll_hvline.c **** {
 187              		.loc 1 235 0
 188              		.cfi_startproc
 189              		@ args = 4, pretend = 0, frame = 0
 190              		@ frame_needed = 0, uses_anonymous_args = 0
 191              		@ link register save eliminated.
 192              	.LVL34:
 193 0000 F0B4     		push	{r4, r5, r6, r7}
 194              	.LCFI1:
 195              		.cfi_def_cfa_offset 16
 196              		.cfi_offset 4, -16
 197              		.cfi_offset 5, -12
 198              		.cfi_offset 6, -8
 199              		.cfi_offset 7, -4
 200 0002 9DF81060 		ldrb	r6, [sp, #16]	@ zero_extendqisi2
 236:/Users/imashio/Electronics/ARM/_Library/u8g2_ll_hvline.c ****   uint16_t offset;
 237:/Users/imashio/Electronics/ARM/_Library/u8g2_ll_hvline.c ****   uint8_t *ptr;
 238:/Users/imashio/Electronics/ARM/_Library/u8g2_ll_hvline.c ****   uint8_t bit_pos;
 239:/Users/imashio/Electronics/ARM/_Library/u8g2_ll_hvline.c ****   uint8_t mask;
 240:/Users/imashio/Electronics/ARM/_Library/u8g2_ll_hvline.c ****   uint8_t tile_width = u8g2_GetU8x8(u8g2)->display_info->tile_width;
 201              		.loc 1 240 0
 202 0006 0468     		ldr	r4, [r0]
 203 0008 257C     		ldrb	r5, [r4, #16]	@ zero_extendqisi2
ARM GAS  /var/folders/v3/wysfpd052nz8jkbx04pk0ym80000gn/T//ccoQpOVZ.s 			page 9


 204              	.LVL35:
 241:/Users/imashio/Electronics/ARM/_Library/u8g2_ll_hvline.c **** 
 242:/Users/imashio/Electronics/ARM/_Library/u8g2_ll_hvline.c ****   bit_pos = x;		/* overflow truncate is ok here... */
 243:/Users/imashio/Electronics/ARM/_Library/u8g2_ll_hvline.c ****   bit_pos &= 7; 	/* ... because only the lowest 3 bits are needed */
 205              		.loc 1 243 0
 206 000a 01F00707 		and	r7, r1, #7
 207              	.LVL36:
 244:/Users/imashio/Electronics/ARM/_Library/u8g2_ll_hvline.c ****   mask = 128;
 245:/Users/imashio/Electronics/ARM/_Library/u8g2_ll_hvline.c ****   mask >>= bit_pos;
 208              		.loc 1 245 0
 209 000e 8024     		movs	r4, #128
 210 0010 3C41     		asrs	r4, r4, r7
 211 0012 E4B2     		uxtb	r4, r4
 212              	.LVL37:
 246:/Users/imashio/Electronics/ARM/_Library/u8g2_ll_hvline.c **** 
 247:/Users/imashio/Electronics/ARM/_Library/u8g2_ll_hvline.c ****   offset = y;		/* y might be 8 or 16 bit, but we need 16 bit, so use a 16 bit variable */
 248:/Users/imashio/Electronics/ARM/_Library/u8g2_ll_hvline.c ****   offset *= tile_width;
 249:/Users/imashio/Electronics/ARM/_Library/u8g2_ll_hvline.c ****   offset += x>>3;
 213              		.loc 1 249 0
 214 0014 C908     		lsrs	r1, r1, #3
 215              	.LVL38:
 216 0016 05FB0211 		mla	r1, r5, r2, r1
 217              	.LVL39:
 250:/Users/imashio/Electronics/ARM/_Library/u8g2_ll_hvline.c ****   ptr = u8g2->tile_buf_ptr;
 218              		.loc 1 250 0
 219 001a 426B     		ldr	r2, [r0, #52]
 220              	.LVL40:
 251:/Users/imashio/Electronics/ARM/_Library/u8g2_ll_hvline.c ****   ptr += offset;
 221              		.loc 1 251 0
 222 001c 12FA81F2 		uxtah	r2, r2, r1
 223              	.LVL41:
 252:/Users/imashio/Electronics/ARM/_Library/u8g2_ll_hvline.c ****   
 253:/Users/imashio/Electronics/ARM/_Library/u8g2_ll_hvline.c ****   if ( dir == 0 )
 224              		.loc 1 253 0
 225 0020 26BB     		cbnz	r6, .L17
 226 0022 07E0     		b	.L21
 227              	.LVL42:
 228              	.L26:
 254:/Users/imashio/Electronics/ARM/_Library/u8g2_ll_hvline.c ****   {
 255:/Users/imashio/Electronics/ARM/_Library/u8g2_ll_hvline.c ****       
 256:/Users/imashio/Electronics/ARM/_Library/u8g2_ll_hvline.c ****     do
 257:/Users/imashio/Electronics/ARM/_Library/u8g2_ll_hvline.c ****     {
 258:/Users/imashio/Electronics/ARM/_Library/u8g2_ll_hvline.c **** 
 259:/Users/imashio/Electronics/ARM/_Library/u8g2_ll_hvline.c ****       if ( u8g2->draw_color <= 1 )
 260:/Users/imashio/Electronics/ARM/_Library/u8g2_ll_hvline.c **** 	*ptr |= mask;
 229              		.loc 1 260 0
 230 0024 1178     		ldrb	r1, [r2]	@ zero_extendqisi2
 231 0026 2143     		orrs	r1, r1, r4
 232 0028 1170     		strb	r1, [r2]
 233 002a 07E0     		b	.L18
 234              	.LVL43:
 235              	.L20:
 261:/Users/imashio/Electronics/ARM/_Library/u8g2_ll_hvline.c ****       if ( u8g2->draw_color != 1 )
 262:/Users/imashio/Electronics/ARM/_Library/u8g2_ll_hvline.c **** 	*ptr ^= mask;
 263:/Users/imashio/Electronics/ARM/_Library/u8g2_ll_hvline.c ****       
 264:/Users/imashio/Electronics/ARM/_Library/u8g2_ll_hvline.c ****       mask >>= 1;
 265:/Users/imashio/Electronics/ARM/_Library/u8g2_ll_hvline.c ****       if ( mask == 0 )
ARM GAS  /var/folders/v3/wysfpd052nz8jkbx04pk0ym80000gn/T//ccoQpOVZ.s 			page 10


 266:/Users/imashio/Electronics/ARM/_Library/u8g2_ll_hvline.c ****       {
 267:/Users/imashio/Electronics/ARM/_Library/u8g2_ll_hvline.c **** 	mask = 128;
 268:/Users/imashio/Electronics/ARM/_Library/u8g2_ll_hvline.c ****         ptr++;
 269:/Users/imashio/Electronics/ARM/_Library/u8g2_ll_hvline.c ****       }
 270:/Users/imashio/Electronics/ARM/_Library/u8g2_ll_hvline.c ****       
 271:/Users/imashio/Electronics/ARM/_Library/u8g2_ll_hvline.c ****       //x++;
 272:/Users/imashio/Electronics/ARM/_Library/u8g2_ll_hvline.c ****       len--;
 236              		.loc 1 272 0
 237 002c 013B     		subs	r3, r3, #1
 238              	.LVL44:
 273:/Users/imashio/Electronics/ARM/_Library/u8g2_ll_hvline.c ****     } while( len != 0 );
 239              		.loc 1 273 0
 240 002e 13F0FF03 		ands	r3, r3, #255
 241              	.LVL45:
 242 0032 23D0     		beq	.L16
 243              	.L21:
 244              	.LVL46:
 259:/Users/imashio/Electronics/ARM/_Library/u8g2_ll_hvline.c **** 	*ptr |= mask;
 245              		.loc 1 259 0
 246 0034 90F87D10 		ldrb	r1, [r0, #125]	@ zero_extendqisi2
 247 0038 0129     		cmp	r1, #1
 248 003a F3D9     		bls	.L26
 249              	.L18:
 261:/Users/imashio/Electronics/ARM/_Library/u8g2_ll_hvline.c ****       if ( u8g2->draw_color != 1 )
 250              		.loc 1 261 0
 251 003c 90F87D10 		ldrb	r1, [r0, #125]	@ zero_extendqisi2
 252 0040 0129     		cmp	r1, #1
 253 0042 02D0     		beq	.L19
 262:/Users/imashio/Electronics/ARM/_Library/u8g2_ll_hvline.c ****       
 254              		.loc 1 262 0
 255 0044 1178     		ldrb	r1, [r2]	@ zero_extendqisi2
 256 0046 6140     		eors	r1, r1, r4
 257 0048 1170     		strb	r1, [r2]
 258              	.L19:
 259              	.LVL47:
 265:/Users/imashio/Electronics/ARM/_Library/u8g2_ll_hvline.c ****       {
 260              		.loc 1 265 0
 261 004a 6408     		lsrs	r4, r4, #1
 262              	.LVL48:
 263 004c EED1     		bne	.L20
 264              	.LVL49:
 268:/Users/imashio/Electronics/ARM/_Library/u8g2_ll_hvline.c ****       }
 265              		.loc 1 268 0
 266 004e 0132     		adds	r2, r2, #1
 267              	.LVL50:
 267:/Users/imashio/Electronics/ARM/_Library/u8g2_ll_hvline.c ****         ptr++;
 268              		.loc 1 267 0
 269 0050 8024     		movs	r4, #128
 270 0052 EBE7     		b	.L20
 271              	.LVL51:
 272              	.L23:
 274:/Users/imashio/Electronics/ARM/_Library/u8g2_ll_hvline.c ****   }
 275:/Users/imashio/Electronics/ARM/_Library/u8g2_ll_hvline.c ****   else
 276:/Users/imashio/Electronics/ARM/_Library/u8g2_ll_hvline.c ****   {
 277:/Users/imashio/Electronics/ARM/_Library/u8g2_ll_hvline.c ****     do
 278:/Users/imashio/Electronics/ARM/_Library/u8g2_ll_hvline.c ****     {
 279:/Users/imashio/Electronics/ARM/_Library/u8g2_ll_hvline.c ****       if ( u8g2->draw_color <= 1 )
ARM GAS  /var/folders/v3/wysfpd052nz8jkbx04pk0ym80000gn/T//ccoQpOVZ.s 			page 11


 280:/Users/imashio/Electronics/ARM/_Library/u8g2_ll_hvline.c **** 	*ptr |= mask;
 281:/Users/imashio/Electronics/ARM/_Library/u8g2_ll_hvline.c ****       if ( u8g2->draw_color != 1 )
 273              		.loc 1 281 0
 274 0054 90F87D10 		ldrb	r1, [r0, #125]	@ zero_extendqisi2
 275 0058 0129     		cmp	r1, #1
 276 005a 02D0     		beq	.L24
 282:/Users/imashio/Electronics/ARM/_Library/u8g2_ll_hvline.c **** 	*ptr ^= mask;
 277              		.loc 1 282 0
 278 005c 1178     		ldrb	r1, [r2]	@ zero_extendqisi2
 279 005e 6140     		eors	r1, r1, r4
 280 0060 1170     		strb	r1, [r2]
 281              	.L24:
 283:/Users/imashio/Electronics/ARM/_Library/u8g2_ll_hvline.c ****       
 284:/Users/imashio/Electronics/ARM/_Library/u8g2_ll_hvline.c ****       ptr += tile_width;
 282              		.loc 1 284 0
 283 0062 2A44     		add	r2, r2, r5
 284              	.LVL52:
 285:/Users/imashio/Electronics/ARM/_Library/u8g2_ll_hvline.c ****       //y++;
 286:/Users/imashio/Electronics/ARM/_Library/u8g2_ll_hvline.c ****       len--;
 285              		.loc 1 286 0
 286 0064 013B     		subs	r3, r3, #1
 287              	.LVL53:
 287:/Users/imashio/Electronics/ARM/_Library/u8g2_ll_hvline.c ****     } while( len != 0 );
 288              		.loc 1 287 0
 289 0066 13F0FF03 		ands	r3, r3, #255
 290              	.LVL54:
 291 006a 07D0     		beq	.L16
 292              	.L17:
 293              	.LVL55:
 279:/Users/imashio/Electronics/ARM/_Library/u8g2_ll_hvline.c **** 	*ptr |= mask;
 294              		.loc 1 279 0
 295 006c 90F87D10 		ldrb	r1, [r0, #125]	@ zero_extendqisi2
 296 0070 0129     		cmp	r1, #1
 297 0072 EFD8     		bhi	.L23
 280:/Users/imashio/Electronics/ARM/_Library/u8g2_ll_hvline.c ****       if ( u8g2->draw_color != 1 )
 298              		.loc 1 280 0
 299 0074 1178     		ldrb	r1, [r2]	@ zero_extendqisi2
 300 0076 2143     		orrs	r1, r1, r4
 301 0078 1170     		strb	r1, [r2]
 302 007a EBE7     		b	.L23
 303              	.LVL56:
 304              	.L16:
 288:/Users/imashio/Electronics/ARM/_Library/u8g2_ll_hvline.c ****   }
 289:/Users/imashio/Electronics/ARM/_Library/u8g2_ll_hvline.c **** }
 305              		.loc 1 289 0
 306 007c F0BC     		pop	{r4, r5, r6, r7}
 307              	.LCFI2:
 308              		.cfi_restore 7
 309              		.cfi_restore 6
 310              		.cfi_restore 5
 311              		.cfi_restore 4
 312              		.cfi_def_cfa_offset 0
 313              	.LVL57:
 314 007e 7047     		bx	lr
 315              		.cfi_endproc
 316              	.LFE1:
 318              		.text
ARM GAS  /var/folders/v3/wysfpd052nz8jkbx04pk0ym80000gn/T//ccoQpOVZ.s 			page 12


 319              	.Letext0:
 320              		.file 2 "/usr/local/gcc-arm-none-eabi-7-2018-q2-update/arm-none-eabi/include/machine/_default_type
 321              		.file 3 "/usr/local/gcc-arm-none-eabi-7-2018-q2-update/arm-none-eabi/include/sys/_stdint.h"
 322              		.file 4 "/Users/imashio/Electronics/ARM/_Library/u8x8.h"
 323              		.file 5 "/Users/imashio/Electronics/ARM/_Library/u8g2.h"
ARM GAS  /var/folders/v3/wysfpd052nz8jkbx04pk0ym80000gn/T//ccoQpOVZ.s 			page 13


DEFINED SYMBOLS
                            *ABS*:0000000000000000 u8g2_ll_hvline.c
/var/folders/v3/wysfpd052nz8jkbx04pk0ym80000gn/T//ccoQpOVZ.s:18     .text.u8g2_ll_hvline_vertical_top_lsb:0000000000000000 $t
/var/folders/v3/wysfpd052nz8jkbx04pk0ym80000gn/T//ccoQpOVZ.s:25     .text.u8g2_ll_hvline_vertical_top_lsb:0000000000000000 u8g2_ll_hvline_vertical_top_lsb
/var/folders/v3/wysfpd052nz8jkbx04pk0ym80000gn/T//ccoQpOVZ.s:178    .text.u8g2_ll_hvline_horizontal_right_lsb:0000000000000000 $t
/var/folders/v3/wysfpd052nz8jkbx04pk0ym80000gn/T//ccoQpOVZ.s:185    .text.u8g2_ll_hvline_horizontal_right_lsb:0000000000000000 u8g2_ll_hvline_horizontal_right_lsb

NO UNDEFINED SYMBOLS
