ARM GAS  /var/folders/v3/wysfpd052nz8jkbx04pk0ym80000gn/T//ccvO5eNH.s 			page 1


   1              		.cpu cortex-m4
   2              		.eabi_attribute 27, 1
   3              		.eabi_attribute 28, 1
   4              		.eabi_attribute 20, 1
   5              		.eabi_attribute 21, 1
   6              		.eabi_attribute 23, 3
   7              		.eabi_attribute 24, 1
   8              		.eabi_attribute 25, 1
   9              		.eabi_attribute 26, 1
  10              		.eabi_attribute 30, 2
  11              		.eabi_attribute 34, 1
  12              		.eabi_attribute 18, 4
  13              		.file	"u8x8_d_ld7032_60x32.c"
  14              		.text
  15              	.Ltext0:
  16              		.cfi_sections	.debug_frame
  17              		.section	.text.u8x8_d_ld7032_60x32,"ax",%progbits
  18              		.align	1
  19              		.p2align 2,,3
  20              		.global	u8x8_d_ld7032_60x32
  21              		.syntax unified
  22              		.thumb
  23              		.thumb_func
  24              		.fpu fpv4-sp-d16
  26              	u8x8_d_ld7032_60x32:
  27              	.LFB1:
  28              		.file 1 "/Users/imashio/Electronics/ARM/_Library/u8x8_d_ld7032_60x32.c"
   1:/Users/imashio/Electronics/ARM/_Library/u8x8_d_ld7032_60x32.c **** /*
   2:/Users/imashio/Electronics/ARM/_Library/u8x8_d_ld7032_60x32.c **** 
   3:/Users/imashio/Electronics/ARM/_Library/u8x8_d_ld7032_60x32.c ****   u8x8_d_ld7032_60x32.c
   4:/Users/imashio/Electronics/ARM/_Library/u8x8_d_ld7032_60x32.c ****   Note: Flip Mode is NOT supported
   5:/Users/imashio/Electronics/ARM/_Library/u8x8_d_ld7032_60x32.c **** 
   6:/Users/imashio/Electronics/ARM/_Library/u8x8_d_ld7032_60x32.c ****   Universal 8bit Graphics Library (https://github.com/olikraus/u8g2/)
   7:/Users/imashio/Electronics/ARM/_Library/u8x8_d_ld7032_60x32.c **** 
   8:/Users/imashio/Electronics/ARM/_Library/u8x8_d_ld7032_60x32.c ****   Copyright (c) 2016, olikraus@gmail.com
   9:/Users/imashio/Electronics/ARM/_Library/u8x8_d_ld7032_60x32.c ****   All rights reserved.
  10:/Users/imashio/Electronics/ARM/_Library/u8x8_d_ld7032_60x32.c **** 
  11:/Users/imashio/Electronics/ARM/_Library/u8x8_d_ld7032_60x32.c ****   Redistribution and use in source and binary forms, with or without modification, 
  12:/Users/imashio/Electronics/ARM/_Library/u8x8_d_ld7032_60x32.c ****   are permitted provided that the following conditions are met:
  13:/Users/imashio/Electronics/ARM/_Library/u8x8_d_ld7032_60x32.c **** 
  14:/Users/imashio/Electronics/ARM/_Library/u8x8_d_ld7032_60x32.c ****   * Redistributions of source code must retain the above copyright notice, this list 
  15:/Users/imashio/Electronics/ARM/_Library/u8x8_d_ld7032_60x32.c ****     of conditions and the following disclaimer.
  16:/Users/imashio/Electronics/ARM/_Library/u8x8_d_ld7032_60x32.c ****     
  17:/Users/imashio/Electronics/ARM/_Library/u8x8_d_ld7032_60x32.c ****   * Redistributions in binary form must reproduce the above copyright notice, this 
  18:/Users/imashio/Electronics/ARM/_Library/u8x8_d_ld7032_60x32.c ****     list of conditions and the following disclaimer in the documentation and/or other 
  19:/Users/imashio/Electronics/ARM/_Library/u8x8_d_ld7032_60x32.c ****     materials provided with the distribution.
  20:/Users/imashio/Electronics/ARM/_Library/u8x8_d_ld7032_60x32.c **** 
  21:/Users/imashio/Electronics/ARM/_Library/u8x8_d_ld7032_60x32.c ****   THIS SOFTWARE IS PROVIDED BY THE COPYRIGHT HOLDERS AND 
  22:/Users/imashio/Electronics/ARM/_Library/u8x8_d_ld7032_60x32.c ****   CONTRIBUTORS "AS IS" AND ANY EXPRESS OR IMPLIED WARRANTIES, 
  23:/Users/imashio/Electronics/ARM/_Library/u8x8_d_ld7032_60x32.c ****   INCLUDING, BUT NOT LIMITED TO, THE IMPLIED WARRANTIES OF 
  24:/Users/imashio/Electronics/ARM/_Library/u8x8_d_ld7032_60x32.c ****   MERCHANTABILITY AND FITNESS FOR A PARTICULAR PURPOSE ARE 
  25:/Users/imashio/Electronics/ARM/_Library/u8x8_d_ld7032_60x32.c ****   DISCLAIMED. IN NO EVENT SHALL THE COPYRIGHT HOLDER OR 
  26:/Users/imashio/Electronics/ARM/_Library/u8x8_d_ld7032_60x32.c ****   CONTRIBUTORS BE LIABLE FOR ANY DIRECT, INDIRECT, INCIDENTAL, 
  27:/Users/imashio/Electronics/ARM/_Library/u8x8_d_ld7032_60x32.c ****   SPECIAL, EXEMPLARY, OR CONSEQUENTIAL DAMAGES (INCLUDING, BUT 
  28:/Users/imashio/Electronics/ARM/_Library/u8x8_d_ld7032_60x32.c ****   NOT LIMITED TO, PROCUREMENT OF SUBSTITUTE GOODS OR SERVICES; 
  29:/Users/imashio/Electronics/ARM/_Library/u8x8_d_ld7032_60x32.c ****   LOSS OF USE, DATA, OR PROFITS; OR BUSINESS INTERRUPTION) HOWEVER 
  30:/Users/imashio/Electronics/ARM/_Library/u8x8_d_ld7032_60x32.c ****   CAUSED AND ON ANY THEORY OF LIABILITY, WHETHER IN CONTRACT, 
ARM GAS  /var/folders/v3/wysfpd052nz8jkbx04pk0ym80000gn/T//ccvO5eNH.s 			page 2


  31:/Users/imashio/Electronics/ARM/_Library/u8x8_d_ld7032_60x32.c ****   STRICT LIABILITY, OR TORT (INCLUDING NEGLIGENCE OR OTHERWISE) 
  32:/Users/imashio/Electronics/ARM/_Library/u8x8_d_ld7032_60x32.c ****   ARISING IN ANY WAY OUT OF THE USE OF THIS SOFTWARE, EVEN IF 
  33:/Users/imashio/Electronics/ARM/_Library/u8x8_d_ld7032_60x32.c ****   ADVISED OF THE POSSIBILITY OF SUCH DAMAGE.  
  34:/Users/imashio/Electronics/ARM/_Library/u8x8_d_ld7032_60x32.c ****   
  35:/Users/imashio/Electronics/ARM/_Library/u8x8_d_ld7032_60x32.c **** */
  36:/Users/imashio/Electronics/ARM/_Library/u8x8_d_ld7032_60x32.c **** 
  37:/Users/imashio/Electronics/ARM/_Library/u8x8_d_ld7032_60x32.c **** 
  38:/Users/imashio/Electronics/ARM/_Library/u8x8_d_ld7032_60x32.c **** #include "u8x8.h"
  39:/Users/imashio/Electronics/ARM/_Library/u8x8_d_ld7032_60x32.c **** 
  40:/Users/imashio/Electronics/ARM/_Library/u8x8_d_ld7032_60x32.c **** 
  41:/Users/imashio/Electronics/ARM/_Library/u8x8_d_ld7032_60x32.c **** /* testboard U8GLIB_LD7032_60x32 u8g(11, 12, 9, 10, 8);	// SPI Com: SCK = 11, MOSI = 12, CS = 9, A0
  42:/Users/imashio/Electronics/ARM/_Library/u8x8_d_ld7032_60x32.c **** /* http://www.seeedstudio.com/document/pdf/0.5OLED%20SPEC.pdf */
  43:/Users/imashio/Electronics/ARM/_Library/u8x8_d_ld7032_60x32.c **** static const uint8_t u8x8_d_ld7032_60x32_init_seq[] = {
  44:/Users/imashio/Electronics/ARM/_Library/u8x8_d_ld7032_60x32.c ****     
  45:/Users/imashio/Electronics/ARM/_Library/u8x8_d_ld7032_60x32.c ****   U8X8_START_TRANSFER(),             	/* enable chip, delay is part of the transfer start */
  46:/Users/imashio/Electronics/ARM/_Library/u8x8_d_ld7032_60x32.c **** 
  47:/Users/imashio/Electronics/ARM/_Library/u8x8_d_ld7032_60x32.c ****   //U8X8_CA(0x002, 0x001),		/* Dot Matrix Display ON */
  48:/Users/imashio/Electronics/ARM/_Library/u8x8_d_ld7032_60x32.c ****   U8X8_CA(0x014, 0x000),		/* Stand-by OFF */
  49:/Users/imashio/Electronics/ARM/_Library/u8x8_d_ld7032_60x32.c ****   U8X8_CA(0x01a, 0x004),		/* Dot Matrix Frame Rate,  special value for this OLED from manual*/
  50:/Users/imashio/Electronics/ARM/_Library/u8x8_d_ld7032_60x32.c ****   U8X8_CA(0x01d, 0x000),		/* Graphics Memory Writing Direction: reset default (right down, horizont
  51:/Users/imashio/Electronics/ARM/_Library/u8x8_d_ld7032_60x32.c ****   U8X8_CA(0x009, 0x000),		/* Display Direction:  reset default (x,y: min --> max) */
  52:/Users/imashio/Electronics/ARM/_Library/u8x8_d_ld7032_60x32.c ****   U8X8_CAA(0x030, 0x000, 0x03b),	/* Display Size X, Column Start - End*/
  53:/Users/imashio/Electronics/ARM/_Library/u8x8_d_ld7032_60x32.c ****   U8X8_CAA(0x032, 0x000, 0x01f),	/* Display Size Y, Row Start - End*/
  54:/Users/imashio/Electronics/ARM/_Library/u8x8_d_ld7032_60x32.c ****   U8X8_CA(0x010, 0x000),		/* Peak Pulse Width Set: 0 SCLK */
  55:/Users/imashio/Electronics/ARM/_Library/u8x8_d_ld7032_60x32.c ****   U8X8_CA(0x016, 0x000),		/* Peak Pulse Delay Set: 0 SCLK */
  56:/Users/imashio/Electronics/ARM/_Library/u8x8_d_ld7032_60x32.c ****   U8X8_CA(0x012, 0x040),		/* Dot Matrix Current Level Set: 0x050 * 1 uA = 80 uA */
  57:/Users/imashio/Electronics/ARM/_Library/u8x8_d_ld7032_60x32.c ****   U8X8_CA(0x018, 0x003),		/* Pre-Charge Pulse Width: 3 SCLK */
  58:/Users/imashio/Electronics/ARM/_Library/u8x8_d_ld7032_60x32.c ****   U8X8_CA(0x044, 0x002),		/* Pre-Charge Mode: Every Time */
  59:/Users/imashio/Electronics/ARM/_Library/u8x8_d_ld7032_60x32.c ****   U8X8_CA(0x048, 0x003),		/* Row overlap timing: Pre-Charge + Peak Delay + Peak boot Timing */
  60:/Users/imashio/Electronics/ARM/_Library/u8x8_d_ld7032_60x32.c ****   U8X8_CA(0x03f, 0x011),		/* VCC_R_SEL: ??? */
  61:/Users/imashio/Electronics/ARM/_Library/u8x8_d_ld7032_60x32.c ****   U8X8_CA(0x03d, 0x000),		/* VSS selection: 2.8V */
  62:/Users/imashio/Electronics/ARM/_Library/u8x8_d_ld7032_60x32.c ****   //U8X8_CA(0x002, 0x001),		/* Dot Matrix Display ON */
  63:/Users/imashio/Electronics/ARM/_Library/u8x8_d_ld7032_60x32.c ****   
  64:/Users/imashio/Electronics/ARM/_Library/u8x8_d_ld7032_60x32.c ****     
  65:/Users/imashio/Electronics/ARM/_Library/u8x8_d_ld7032_60x32.c ****   U8X8_END_TRANSFER(),             	/* disable chip */
  66:/Users/imashio/Electronics/ARM/_Library/u8x8_d_ld7032_60x32.c ****   U8X8_END()             			/* end of sequence */
  67:/Users/imashio/Electronics/ARM/_Library/u8x8_d_ld7032_60x32.c **** };
  68:/Users/imashio/Electronics/ARM/_Library/u8x8_d_ld7032_60x32.c **** 
  69:/Users/imashio/Electronics/ARM/_Library/u8x8_d_ld7032_60x32.c **** static const uint8_t u8x8_d_ld7032_60x32_powersave0_seq[] = {
  70:/Users/imashio/Electronics/ARM/_Library/u8x8_d_ld7032_60x32.c ****   U8X8_START_TRANSFER(),             	/* enable chip, delay is part of the transfer start */
  71:/Users/imashio/Electronics/ARM/_Library/u8x8_d_ld7032_60x32.c ****   U8X8_CA(0x002, 0x001),		/* Dot Matrix Display ON */
  72:/Users/imashio/Electronics/ARM/_Library/u8x8_d_ld7032_60x32.c ****   U8X8_END_TRANSFER(),             	/* disable chip */
  73:/Users/imashio/Electronics/ARM/_Library/u8x8_d_ld7032_60x32.c ****   U8X8_END()             			/* end of sequence */
  74:/Users/imashio/Electronics/ARM/_Library/u8x8_d_ld7032_60x32.c **** };
  75:/Users/imashio/Electronics/ARM/_Library/u8x8_d_ld7032_60x32.c **** 
  76:/Users/imashio/Electronics/ARM/_Library/u8x8_d_ld7032_60x32.c **** static const uint8_t u8x8_d_ld7032_60x32_powersave1_seq[] = {
  77:/Users/imashio/Electronics/ARM/_Library/u8x8_d_ld7032_60x32.c ****   U8X8_START_TRANSFER(),             	/* enable chip, delay is part of the transfer start */
  78:/Users/imashio/Electronics/ARM/_Library/u8x8_d_ld7032_60x32.c ****   U8X8_CA(0x002, 0x000),		/* Dot Matrix Display ON */
  79:/Users/imashio/Electronics/ARM/_Library/u8x8_d_ld7032_60x32.c ****   U8X8_END_TRANSFER(),             	/* disable chip */
  80:/Users/imashio/Electronics/ARM/_Library/u8x8_d_ld7032_60x32.c ****   U8X8_END()             			/* end of sequence */
  81:/Users/imashio/Electronics/ARM/_Library/u8x8_d_ld7032_60x32.c **** };
  82:/Users/imashio/Electronics/ARM/_Library/u8x8_d_ld7032_60x32.c **** 
  83:/Users/imashio/Electronics/ARM/_Library/u8x8_d_ld7032_60x32.c **** static const uint8_t u8x8_d_ld7032_60x32_flip0_seq[] = {
  84:/Users/imashio/Electronics/ARM/_Library/u8x8_d_ld7032_60x32.c ****   U8X8_START_TRANSFER(),             	/* enable chip, delay is part of the transfer start */
  85:/Users/imashio/Electronics/ARM/_Library/u8x8_d_ld7032_60x32.c ****   U8X8_CA(0x009, 0x000),		/* Display Direction:  reset default (x,y: min --> max) */  
  86:/Users/imashio/Electronics/ARM/_Library/u8x8_d_ld7032_60x32.c ****   U8X8_END_TRANSFER(),             	/* disable chip */
  87:/Users/imashio/Electronics/ARM/_Library/u8x8_d_ld7032_60x32.c ****   U8X8_END()             			/* end of sequence */
ARM GAS  /var/folders/v3/wysfpd052nz8jkbx04pk0ym80000gn/T//ccvO5eNH.s 			page 3


  88:/Users/imashio/Electronics/ARM/_Library/u8x8_d_ld7032_60x32.c **** };
  89:/Users/imashio/Electronics/ARM/_Library/u8x8_d_ld7032_60x32.c **** 
  90:/Users/imashio/Electronics/ARM/_Library/u8x8_d_ld7032_60x32.c **** static const uint8_t u8x8_d_ld7032_60x32_flip1_seq[] = {
  91:/Users/imashio/Electronics/ARM/_Library/u8x8_d_ld7032_60x32.c ****   U8X8_START_TRANSFER(),             	/* enable chip, delay is part of the transfer start */
  92:/Users/imashio/Electronics/ARM/_Library/u8x8_d_ld7032_60x32.c ****   //U8X8_CA(0x009, 0x002),		/* Display Direction:  reset default (x,y: min --> max) */  
  93:/Users/imashio/Electronics/ARM/_Library/u8x8_d_ld7032_60x32.c ****   U8X8_END_TRANSFER(),             	/* disable chip */
  94:/Users/imashio/Electronics/ARM/_Library/u8x8_d_ld7032_60x32.c ****   U8X8_END()             			/* end of sequence */
  95:/Users/imashio/Electronics/ARM/_Library/u8x8_d_ld7032_60x32.c **** };
  96:/Users/imashio/Electronics/ARM/_Library/u8x8_d_ld7032_60x32.c **** 
  97:/Users/imashio/Electronics/ARM/_Library/u8x8_d_ld7032_60x32.c **** 
  98:/Users/imashio/Electronics/ARM/_Library/u8x8_d_ld7032_60x32.c **** static uint8_t u8x8_d_ld7032_generic(u8x8_t *u8x8, uint8_t msg, uint8_t arg_int, void *arg_ptr)
  99:/Users/imashio/Electronics/ARM/_Library/u8x8_d_ld7032_60x32.c **** {
 100:/Users/imashio/Electronics/ARM/_Library/u8x8_d_ld7032_60x32.c ****   uint8_t x, c;
 101:/Users/imashio/Electronics/ARM/_Library/u8x8_d_ld7032_60x32.c ****   uint8_t *ptr;
 102:/Users/imashio/Electronics/ARM/_Library/u8x8_d_ld7032_60x32.c ****   switch(msg)
 103:/Users/imashio/Electronics/ARM/_Library/u8x8_d_ld7032_60x32.c ****   {
 104:/Users/imashio/Electronics/ARM/_Library/u8x8_d_ld7032_60x32.c ****     /* handled by the calling function
 105:/Users/imashio/Electronics/ARM/_Library/u8x8_d_ld7032_60x32.c ****     case U8X8_MSG_DISPLAY_SETUP_MEMORY:
 106:/Users/imashio/Electronics/ARM/_Library/u8x8_d_ld7032_60x32.c ****       u8x8_d_helper_display_setup_memory(u8x8, &u8x8_ld7032_60x32_display_info);
 107:/Users/imashio/Electronics/ARM/_Library/u8x8_d_ld7032_60x32.c ****       break;
 108:/Users/imashio/Electronics/ARM/_Library/u8x8_d_ld7032_60x32.c ****     */
 109:/Users/imashio/Electronics/ARM/_Library/u8x8_d_ld7032_60x32.c ****     case U8X8_MSG_DISPLAY_INIT:
 110:/Users/imashio/Electronics/ARM/_Library/u8x8_d_ld7032_60x32.c ****       u8x8_d_helper_display_init(u8x8);
 111:/Users/imashio/Electronics/ARM/_Library/u8x8_d_ld7032_60x32.c ****       u8x8_cad_SendSequence(u8x8, u8x8_d_ld7032_60x32_init_seq);    
 112:/Users/imashio/Electronics/ARM/_Library/u8x8_d_ld7032_60x32.c ****       break;
 113:/Users/imashio/Electronics/ARM/_Library/u8x8_d_ld7032_60x32.c ****     case U8X8_MSG_DISPLAY_SET_POWER_SAVE:
 114:/Users/imashio/Electronics/ARM/_Library/u8x8_d_ld7032_60x32.c ****       if ( arg_int == 0 )
 115:/Users/imashio/Electronics/ARM/_Library/u8x8_d_ld7032_60x32.c **** 	u8x8_cad_SendSequence(u8x8, u8x8_d_ld7032_60x32_powersave0_seq);
 116:/Users/imashio/Electronics/ARM/_Library/u8x8_d_ld7032_60x32.c ****       else
 117:/Users/imashio/Electronics/ARM/_Library/u8x8_d_ld7032_60x32.c **** 	u8x8_cad_SendSequence(u8x8, u8x8_d_ld7032_60x32_powersave1_seq);
 118:/Users/imashio/Electronics/ARM/_Library/u8x8_d_ld7032_60x32.c ****       break;
 119:/Users/imashio/Electronics/ARM/_Library/u8x8_d_ld7032_60x32.c ****     case U8X8_MSG_DISPLAY_SET_FLIP_MODE:
 120:/Users/imashio/Electronics/ARM/_Library/u8x8_d_ld7032_60x32.c ****       if ( arg_int == 0 )
 121:/Users/imashio/Electronics/ARM/_Library/u8x8_d_ld7032_60x32.c ****       {
 122:/Users/imashio/Electronics/ARM/_Library/u8x8_d_ld7032_60x32.c **** 	u8x8_cad_SendSequence(u8x8, u8x8_d_ld7032_60x32_flip0_seq);
 123:/Users/imashio/Electronics/ARM/_Library/u8x8_d_ld7032_60x32.c **** 	u8x8->x_offset = u8x8->display_info->default_x_offset;
 124:/Users/imashio/Electronics/ARM/_Library/u8x8_d_ld7032_60x32.c ****       }
 125:/Users/imashio/Electronics/ARM/_Library/u8x8_d_ld7032_60x32.c ****       else
 126:/Users/imashio/Electronics/ARM/_Library/u8x8_d_ld7032_60x32.c ****       {
 127:/Users/imashio/Electronics/ARM/_Library/u8x8_d_ld7032_60x32.c **** 	u8x8_cad_SendSequence(u8x8, u8x8_d_ld7032_60x32_flip1_seq);
 128:/Users/imashio/Electronics/ARM/_Library/u8x8_d_ld7032_60x32.c **** 	u8x8->x_offset = u8x8->display_info->flipmode_x_offset;
 129:/Users/imashio/Electronics/ARM/_Library/u8x8_d_ld7032_60x32.c ****       }
 130:/Users/imashio/Electronics/ARM/_Library/u8x8_d_ld7032_60x32.c ****       break;
 131:/Users/imashio/Electronics/ARM/_Library/u8x8_d_ld7032_60x32.c **** #ifdef U8X8_WITH_SET_CONTRAST
 132:/Users/imashio/Electronics/ARM/_Library/u8x8_d_ld7032_60x32.c ****     case U8X8_MSG_DISPLAY_SET_CONTRAST:
 133:/Users/imashio/Electronics/ARM/_Library/u8x8_d_ld7032_60x32.c ****       u8x8_cad_StartTransfer(u8x8);
 134:/Users/imashio/Electronics/ARM/_Library/u8x8_d_ld7032_60x32.c ****       u8x8_cad_SendCmd(u8x8, 0x012 );
 135:/Users/imashio/Electronics/ARM/_Library/u8x8_d_ld7032_60x32.c ****       if ( arg_int > 0x07f )			/* default is 0x040, limit to 0x07f to be on the safe side (hopefull
 136:/Users/imashio/Electronics/ARM/_Library/u8x8_d_ld7032_60x32.c **** 	arg_int= 0x07f;
 137:/Users/imashio/Electronics/ARM/_Library/u8x8_d_ld7032_60x32.c ****       u8x8_cad_SendArg(u8x8, arg_int );	/* values from 0x00 to 0x0ff are allowed, bit will all valu
 138:/Users/imashio/Electronics/ARM/_Library/u8x8_d_ld7032_60x32.c ****       u8x8_cad_EndTransfer(u8x8);
 139:/Users/imashio/Electronics/ARM/_Library/u8x8_d_ld7032_60x32.c ****       break;
 140:/Users/imashio/Electronics/ARM/_Library/u8x8_d_ld7032_60x32.c **** #endif
 141:/Users/imashio/Electronics/ARM/_Library/u8x8_d_ld7032_60x32.c ****     case U8X8_MSG_DISPLAY_DRAW_TILE:
 142:/Users/imashio/Electronics/ARM/_Library/u8x8_d_ld7032_60x32.c ****       u8x8_cad_StartTransfer(u8x8);
 143:/Users/imashio/Electronics/ARM/_Library/u8x8_d_ld7032_60x32.c ****       x = ((u8x8_tile_t *)arg_ptr)->x_pos;    
 144:/Users/imashio/Electronics/ARM/_Library/u8x8_d_ld7032_60x32.c ****       x += u8x8->x_offset/8;
ARM GAS  /var/folders/v3/wysfpd052nz8jkbx04pk0ym80000gn/T//ccvO5eNH.s 			page 4


 145:/Users/imashio/Electronics/ARM/_Library/u8x8_d_ld7032_60x32.c ****       u8x8_cad_SendCmd(u8x8, 0x034 );
 146:/Users/imashio/Electronics/ARM/_Library/u8x8_d_ld7032_60x32.c ****       u8x8_cad_SendArg(u8x8, x );
 147:/Users/imashio/Electronics/ARM/_Library/u8x8_d_ld7032_60x32.c ****       u8x8_cad_SendCmd(u8x8, 0x035 );
 148:/Users/imashio/Electronics/ARM/_Library/u8x8_d_ld7032_60x32.c ****       u8x8_cad_SendArg(u8x8, 0x007 );
 149:/Users/imashio/Electronics/ARM/_Library/u8x8_d_ld7032_60x32.c ****       u8x8_cad_SendCmd(u8x8, 0x036 );
 150:/Users/imashio/Electronics/ARM/_Library/u8x8_d_ld7032_60x32.c ****       u8x8_cad_SendArg(u8x8, (((u8x8_tile_t *)arg_ptr)->y_pos)*8 );
 151:/Users/imashio/Electronics/ARM/_Library/u8x8_d_ld7032_60x32.c ****       u8x8_cad_SendCmd(u8x8, 0x037 );
 152:/Users/imashio/Electronics/ARM/_Library/u8x8_d_ld7032_60x32.c ****       u8x8_cad_SendArg(u8x8, 0x01f );
 153:/Users/imashio/Electronics/ARM/_Library/u8x8_d_ld7032_60x32.c ****       u8x8_cad_SendCmd(u8x8, 0x008 );
 154:/Users/imashio/Electronics/ARM/_Library/u8x8_d_ld7032_60x32.c ****     
 155:/Users/imashio/Electronics/ARM/_Library/u8x8_d_ld7032_60x32.c ****       
 156:/Users/imashio/Electronics/ARM/_Library/u8x8_d_ld7032_60x32.c ****       do
 157:/Users/imashio/Electronics/ARM/_Library/u8x8_d_ld7032_60x32.c ****       {
 158:/Users/imashio/Electronics/ARM/_Library/u8x8_d_ld7032_60x32.c **** 	c = ((u8x8_tile_t *)arg_ptr)->cnt;
 159:/Users/imashio/Electronics/ARM/_Library/u8x8_d_ld7032_60x32.c **** 	ptr = ((u8x8_tile_t *)arg_ptr)->tile_ptr;
 160:/Users/imashio/Electronics/ARM/_Library/u8x8_d_ld7032_60x32.c **** 	u8x8_cad_SendData(u8x8, c*8, ptr); 	/* note: SendData can not handle more than 255 bytes */
 161:/Users/imashio/Electronics/ARM/_Library/u8x8_d_ld7032_60x32.c **** 	arg_int--;
 162:/Users/imashio/Electronics/ARM/_Library/u8x8_d_ld7032_60x32.c ****       } while( arg_int > 0 );
 163:/Users/imashio/Electronics/ARM/_Library/u8x8_d_ld7032_60x32.c ****       
 164:/Users/imashio/Electronics/ARM/_Library/u8x8_d_ld7032_60x32.c ****       u8x8_cad_EndTransfer(u8x8);
 165:/Users/imashio/Electronics/ARM/_Library/u8x8_d_ld7032_60x32.c ****       break;
 166:/Users/imashio/Electronics/ARM/_Library/u8x8_d_ld7032_60x32.c ****     default:
 167:/Users/imashio/Electronics/ARM/_Library/u8x8_d_ld7032_60x32.c ****       return 0;
 168:/Users/imashio/Electronics/ARM/_Library/u8x8_d_ld7032_60x32.c ****   }
 169:/Users/imashio/Electronics/ARM/_Library/u8x8_d_ld7032_60x32.c ****   return 1;
 170:/Users/imashio/Electronics/ARM/_Library/u8x8_d_ld7032_60x32.c **** }
 171:/Users/imashio/Electronics/ARM/_Library/u8x8_d_ld7032_60x32.c **** 
 172:/Users/imashio/Electronics/ARM/_Library/u8x8_d_ld7032_60x32.c **** 
 173:/Users/imashio/Electronics/ARM/_Library/u8x8_d_ld7032_60x32.c **** static const u8x8_display_info_t u8x8_ld7032_60x32_display_info =
 174:/Users/imashio/Electronics/ARM/_Library/u8x8_d_ld7032_60x32.c **** {
 175:/Users/imashio/Electronics/ARM/_Library/u8x8_d_ld7032_60x32.c ****   /* chip_enable_level = */ 0,
 176:/Users/imashio/Electronics/ARM/_Library/u8x8_d_ld7032_60x32.c ****   /* chip_disable_level = */ 1,
 177:/Users/imashio/Electronics/ARM/_Library/u8x8_d_ld7032_60x32.c ****   
 178:/Users/imashio/Electronics/ARM/_Library/u8x8_d_ld7032_60x32.c ****   /* post_chip_enable_wait_ns = */ 15,
 179:/Users/imashio/Electronics/ARM/_Library/u8x8_d_ld7032_60x32.c ****   /* pre_chip_disable_wait_ns = */ 20,
 180:/Users/imashio/Electronics/ARM/_Library/u8x8_d_ld7032_60x32.c ****   /* reset_pulse_width_ms = */ 100, 	
 181:/Users/imashio/Electronics/ARM/_Library/u8x8_d_ld7032_60x32.c ****   /* post_reset_wait_ms = */ 100, 
 182:/Users/imashio/Electronics/ARM/_Library/u8x8_d_ld7032_60x32.c ****   /* sda_setup_time_ns = */ 30,		/* 20ns, but cycle time is 60ns, so use 60/2 */
 183:/Users/imashio/Electronics/ARM/_Library/u8x8_d_ld7032_60x32.c ****   /* sck_pulse_width_ns = */ 30,	/* 20ns, but cycle time is 60ns, so use 60/2  */
 184:/Users/imashio/Electronics/ARM/_Library/u8x8_d_ld7032_60x32.c ****   /* sck_clock_hz = */ 4000000UL,	/* since Arduino 1.6.0, the SPI bus speed in Hz. Should be  10000
 185:/Users/imashio/Electronics/ARM/_Library/u8x8_d_ld7032_60x32.c ****   /* spi_mode = */ 0,		/* active high, rising edge */
 186:/Users/imashio/Electronics/ARM/_Library/u8x8_d_ld7032_60x32.c ****   /* i2c_bus_clock_100kHz = */ 4,
 187:/Users/imashio/Electronics/ARM/_Library/u8x8_d_ld7032_60x32.c ****   /* data_setup_time_ns = */ 20,
 188:/Users/imashio/Electronics/ARM/_Library/u8x8_d_ld7032_60x32.c ****   /* write_pulse_width_ns = */ 40,	
 189:/Users/imashio/Electronics/ARM/_Library/u8x8_d_ld7032_60x32.c ****   /* tile_width = */ 8,
 190:/Users/imashio/Electronics/ARM/_Library/u8x8_d_ld7032_60x32.c ****   /* tile_hight = */ 4,
 191:/Users/imashio/Electronics/ARM/_Library/u8x8_d_ld7032_60x32.c ****   /* default_x_offset = */ 0,
 192:/Users/imashio/Electronics/ARM/_Library/u8x8_d_ld7032_60x32.c ****   /* flipmode_x_offset = */ 0,
 193:/Users/imashio/Electronics/ARM/_Library/u8x8_d_ld7032_60x32.c ****   /* pixel_width = */ 60,
 194:/Users/imashio/Electronics/ARM/_Library/u8x8_d_ld7032_60x32.c ****   /* pixel_height = */ 32
 195:/Users/imashio/Electronics/ARM/_Library/u8x8_d_ld7032_60x32.c **** };
 196:/Users/imashio/Electronics/ARM/_Library/u8x8_d_ld7032_60x32.c **** 
 197:/Users/imashio/Electronics/ARM/_Library/u8x8_d_ld7032_60x32.c **** uint8_t u8x8_d_ld7032_60x32(u8x8_t *u8x8, uint8_t msg, uint8_t arg_int, void *arg_ptr)
 198:/Users/imashio/Electronics/ARM/_Library/u8x8_d_ld7032_60x32.c **** {
  29              		.loc 1 198 0
  30              		.cfi_startproc
  31              		@ args = 0, pretend = 0, frame = 0
ARM GAS  /var/folders/v3/wysfpd052nz8jkbx04pk0ym80000gn/T//ccvO5eNH.s 			page 5


  32              		@ frame_needed = 0, uses_anonymous_args = 0
  33              	.LVL0:
 199:/Users/imashio/Electronics/ARM/_Library/u8x8_d_ld7032_60x32.c ****     if ( msg == U8X8_MSG_DISPLAY_SETUP_MEMORY )
  34              		.loc 1 199 0
  35 0000 0929     		cmp	r1, #9
 198:/Users/imashio/Electronics/ARM/_Library/u8x8_d_ld7032_60x32.c ****     if ( msg == U8X8_MSG_DISPLAY_SETUP_MEMORY )
  36              		.loc 1 198 0
  37 0002 F8B5     		push	{r3, r4, r5, r6, r7, lr}
  38              	.LCFI0:
  39              		.cfi_def_cfa_offset 24
  40              		.cfi_offset 3, -24
  41              		.cfi_offset 4, -20
  42              		.cfi_offset 5, -16
  43              		.cfi_offset 6, -12
  44              		.cfi_offset 7, -8
  45              		.cfi_offset 14, -4
  46              		.loc 1 199 0
  47 0004 0AD0     		beq	.L18
  48              	.LBB4:
  49              	.LBB5:
 102:/Users/imashio/Electronics/ARM/_Library/u8x8_d_ld7032_60x32.c ****   {
  50              		.loc 1 102 0
  51 0006 0A39     		subs	r1, r1, #10
  52              	.LVL1:
  53 0008 1446     		mov	r4, r2
  54 000a 1D46     		mov	r5, r3
  55 000c 0646     		mov	r6, r0
  56              	.LVL2:
  57 000e 0529     		cmp	r1, #5
  58 0010 72D8     		bhi	.L14
  59 0012 DFE801F0 		tbb	[pc, r1]
  60              	.LVL3:
  61              	.L5:
  62 0016 47       		.byte	(.L4-.L5)/2
  63 0017 6B       		.byte	(.L6-.L5)/2
  64 0018 71       		.byte	(.L14-.L5)/2
  65 0019 4F       		.byte	(.L7-.L5)/2
  66 001a 58       		.byte	(.L8-.L5)/2
  67 001b 08       		.byte	(.L9-.L5)/2
  68              		.p2align 1
  69              	.L18:
  70              	.LBE5:
  71              	.LBE4:
 200:/Users/imashio/Electronics/ARM/_Library/u8x8_d_ld7032_60x32.c ****     {
 201:/Users/imashio/Electronics/ARM/_Library/u8x8_d_ld7032_60x32.c ****       u8x8_d_helper_display_setup_memory(u8x8, &u8x8_ld7032_60x32_display_info);
  72              		.loc 1 201 0
  73 001c 3E49     		ldr	r1, .L19
  74              	.LVL4:
  75 001e FFF7FEFF 		bl	u8x8_d_helper_display_setup_memory
  76              	.LVL5:
 202:/Users/imashio/Electronics/ARM/_Library/u8x8_d_ld7032_60x32.c ****       return 1;
  77              		.loc 1 202 0
  78 0022 0120     		movs	r0, #1
 203:/Users/imashio/Electronics/ARM/_Library/u8x8_d_ld7032_60x32.c ****     }
 204:/Users/imashio/Electronics/ARM/_Library/u8x8_d_ld7032_60x32.c ****     return u8x8_d_ld7032_generic(u8x8, msg, arg_int, arg_ptr);
 205:/Users/imashio/Electronics/ARM/_Library/u8x8_d_ld7032_60x32.c **** }
  79              		.loc 1 205 0
ARM GAS  /var/folders/v3/wysfpd052nz8jkbx04pk0ym80000gn/T//ccvO5eNH.s 			page 6


  80 0024 F8BD     		pop	{r3, r4, r5, r6, r7, pc}
  81              	.LVL6:
  82              	.L9:
  83              	.LBB14:
  84              	.LBB6:
 142:/Users/imashio/Electronics/ARM/_Library/u8x8_d_ld7032_60x32.c ****       x = ((u8x8_tile_t *)arg_ptr)->x_pos;    
  85              		.loc 1 142 0
  86 0026 FFF7FEFF 		bl	u8x8_cad_StartTransfer
  87              	.LVL7:
 144:/Users/imashio/Electronics/ARM/_Library/u8x8_d_ld7032_60x32.c ****       u8x8_cad_SendCmd(u8x8, 0x034 );
  88              		.loc 1 144 0
  89 002a B37F     		ldrb	r3, [r6, #30]	@ zero_extendqisi2
 143:/Users/imashio/Electronics/ARM/_Library/u8x8_d_ld7032_60x32.c ****       x += u8x8->x_offset/8;
  90              		.loc 1 143 0
  91 002c 6F79     		ldrb	r7, [r5, #5]	@ zero_extendqisi2
  92              	.LVL8:
 144:/Users/imashio/Electronics/ARM/_Library/u8x8_d_ld7032_60x32.c ****       u8x8_cad_SendCmd(u8x8, 0x034 );
  93              		.loc 1 144 0
  94 002e 07EBD307 		add	r7, r7, r3, lsr #3
  95              	.LVL9:
 145:/Users/imashio/Electronics/ARM/_Library/u8x8_d_ld7032_60x32.c ****       u8x8_cad_SendArg(u8x8, x );
  96              		.loc 1 145 0
  97 0032 3421     		movs	r1, #52
 144:/Users/imashio/Electronics/ARM/_Library/u8x8_d_ld7032_60x32.c ****       u8x8_cad_SendCmd(u8x8, 0x034 );
  98              		.loc 1 144 0
  99 0034 FFB2     		uxtb	r7, r7
 100              	.LVL10:
 145:/Users/imashio/Electronics/ARM/_Library/u8x8_d_ld7032_60x32.c ****       u8x8_cad_SendArg(u8x8, x );
 101              		.loc 1 145 0
 102 0036 3046     		mov	r0, r6
 103 0038 FFF7FEFF 		bl	u8x8_cad_SendCmd
 104              	.LVL11:
 146:/Users/imashio/Electronics/ARM/_Library/u8x8_d_ld7032_60x32.c ****       u8x8_cad_SendCmd(u8x8, 0x035 );
 105              		.loc 1 146 0
 106 003c 3946     		mov	r1, r7
 107 003e 3046     		mov	r0, r6
 108 0040 FFF7FEFF 		bl	u8x8_cad_SendArg
 109              	.LVL12:
 147:/Users/imashio/Electronics/ARM/_Library/u8x8_d_ld7032_60x32.c ****       u8x8_cad_SendArg(u8x8, 0x007 );
 110              		.loc 1 147 0
 111 0044 3521     		movs	r1, #53
 112 0046 3046     		mov	r0, r6
 113 0048 FFF7FEFF 		bl	u8x8_cad_SendCmd
 114              	.LVL13:
 148:/Users/imashio/Electronics/ARM/_Library/u8x8_d_ld7032_60x32.c ****       u8x8_cad_SendCmd(u8x8, 0x036 );
 115              		.loc 1 148 0
 116 004c 0721     		movs	r1, #7
 117 004e 3046     		mov	r0, r6
 118 0050 FFF7FEFF 		bl	u8x8_cad_SendArg
 119              	.LVL14:
 149:/Users/imashio/Electronics/ARM/_Library/u8x8_d_ld7032_60x32.c ****       u8x8_cad_SendArg(u8x8, (((u8x8_tile_t *)arg_ptr)->y_pos)*8 );
 120              		.loc 1 149 0
 121 0054 3621     		movs	r1, #54
 122 0056 3046     		mov	r0, r6
 123 0058 FFF7FEFF 		bl	u8x8_cad_SendCmd
 124              	.LVL15:
 150:/Users/imashio/Electronics/ARM/_Library/u8x8_d_ld7032_60x32.c ****       u8x8_cad_SendCmd(u8x8, 0x037 );
ARM GAS  /var/folders/v3/wysfpd052nz8jkbx04pk0ym80000gn/T//ccvO5eNH.s 			page 7


 125              		.loc 1 150 0
 126 005c A979     		ldrb	r1, [r5, #6]	@ zero_extendqisi2
 127 005e C900     		lsls	r1, r1, #3
 128 0060 01F0F801 		and	r1, r1, #248
 129 0064 3046     		mov	r0, r6
 130 0066 FFF7FEFF 		bl	u8x8_cad_SendArg
 131              	.LVL16:
 151:/Users/imashio/Electronics/ARM/_Library/u8x8_d_ld7032_60x32.c ****       u8x8_cad_SendArg(u8x8, 0x01f );
 132              		.loc 1 151 0
 133 006a 3721     		movs	r1, #55
 134 006c 3046     		mov	r0, r6
 135 006e FFF7FEFF 		bl	u8x8_cad_SendCmd
 136              	.LVL17:
 152:/Users/imashio/Electronics/ARM/_Library/u8x8_d_ld7032_60x32.c ****       u8x8_cad_SendCmd(u8x8, 0x008 );
 137              		.loc 1 152 0
 138 0072 1F21     		movs	r1, #31
 139 0074 3046     		mov	r0, r6
 140 0076 FFF7FEFF 		bl	u8x8_cad_SendArg
 141              	.LVL18:
 153:/Users/imashio/Electronics/ARM/_Library/u8x8_d_ld7032_60x32.c ****     
 142              		.loc 1 153 0
 143 007a 0821     		movs	r1, #8
 144 007c 3046     		mov	r0, r6
 145 007e FFF7FEFF 		bl	u8x8_cad_SendCmd
 146              	.LVL19:
 147              	.L13:
 160:/Users/imashio/Electronics/ARM/_Library/u8x8_d_ld7032_60x32.c **** 	arg_int--;
 148              		.loc 1 160 0
 149 0082 2979     		ldrb	r1, [r5, #4]	@ zero_extendqisi2
 150 0084 2A68     		ldr	r2, [r5]
 151 0086 C900     		lsls	r1, r1, #3
 152 0088 01F0F801 		and	r1, r1, #248
 153 008c 3046     		mov	r0, r6
 161:/Users/imashio/Electronics/ARM/_Library/u8x8_d_ld7032_60x32.c ****       } while( arg_int > 0 );
 154              		.loc 1 161 0
 155 008e 013C     		subs	r4, r4, #1
 156              	.LVL20:
 160:/Users/imashio/Electronics/ARM/_Library/u8x8_d_ld7032_60x32.c **** 	arg_int--;
 157              		.loc 1 160 0
 158 0090 FFF7FEFF 		bl	u8x8_cad_SendData
 159              	.LVL21:
 162:/Users/imashio/Electronics/ARM/_Library/u8x8_d_ld7032_60x32.c ****       
 160              		.loc 1 162 0
 161 0094 14F0FF04 		ands	r4, r4, #255
 162              	.LVL22:
 163 0098 F3D1     		bne	.L13
 164:/Users/imashio/Electronics/ARM/_Library/u8x8_d_ld7032_60x32.c ****       break;
 164              		.loc 1 164 0
 165 009a 3046     		mov	r0, r6
 166 009c FFF7FEFF 		bl	u8x8_cad_EndTransfer
 167              	.LVL23:
 169:/Users/imashio/Electronics/ARM/_Library/u8x8_d_ld7032_60x32.c **** }
 168              		.loc 1 169 0
 169 00a0 0120     		movs	r0, #1
 170              	.LBE6:
 171              	.LBE14:
 172              		.loc 1 205 0
ARM GAS  /var/folders/v3/wysfpd052nz8jkbx04pk0ym80000gn/T//ccvO5eNH.s 			page 8


 173 00a2 F8BD     		pop	{r3, r4, r5, r6, r7, pc}
 174              	.LVL24:
 175              	.L4:
 176              	.LBB15:
 177              	.LBB7:
 110:/Users/imashio/Electronics/ARM/_Library/u8x8_d_ld7032_60x32.c ****       u8x8_cad_SendSequence(u8x8, u8x8_d_ld7032_60x32_init_seq);    
 178              		.loc 1 110 0
 179 00a4 FFF7FEFF 		bl	u8x8_d_helper_display_init
 180              	.LVL25:
 111:/Users/imashio/Electronics/ARM/_Library/u8x8_d_ld7032_60x32.c ****       break;
 181              		.loc 1 111 0
 182 00a8 3046     		mov	r0, r6
 183 00aa 1C49     		ldr	r1, .L19+4
 184 00ac FFF7FEFF 		bl	u8x8_cad_SendSequence
 185              	.LVL26:
 169:/Users/imashio/Electronics/ARM/_Library/u8x8_d_ld7032_60x32.c **** }
 186              		.loc 1 169 0
 187 00b0 0120     		movs	r0, #1
 188              	.LBE7:
 189              	.LBE15:
 190              		.loc 1 205 0
 191 00b2 F8BD     		pop	{r3, r4, r5, r6, r7, pc}
 192              	.LVL27:
 193              	.L7:
 194              	.LBB16:
 195              	.LBB8:
 120:/Users/imashio/Electronics/ARM/_Library/u8x8_d_ld7032_60x32.c ****       {
 196              		.loc 1 120 0
 197 00b4 3ABB     		cbnz	r2, .L11
 122:/Users/imashio/Electronics/ARM/_Library/u8x8_d_ld7032_60x32.c **** 	u8x8->x_offset = u8x8->display_info->default_x_offset;
 198              		.loc 1 122 0
 199 00b6 1A49     		ldr	r1, .L19+8
 200 00b8 FFF7FEFF 		bl	u8x8_cad_SendSequence
 201              	.LVL28:
 123:/Users/imashio/Electronics/ARM/_Library/u8x8_d_ld7032_60x32.c ****       }
 202              		.loc 1 123 0
 203 00bc 3368     		ldr	r3, [r6]
 204 00be 9B7C     		ldrb	r3, [r3, #18]	@ zero_extendqisi2
 205 00c0 B377     		strb	r3, [r6, #30]
 169:/Users/imashio/Electronics/ARM/_Library/u8x8_d_ld7032_60x32.c **** }
 206              		.loc 1 169 0
 207 00c2 0120     		movs	r0, #1
 208              	.LBE8:
 209              	.LBE16:
 210              		.loc 1 205 0
 211 00c4 F8BD     		pop	{r3, r4, r5, r6, r7, pc}
 212              	.LVL29:
 213              	.L8:
 214              	.LBB17:
 215              	.LBB9:
 133:/Users/imashio/Electronics/ARM/_Library/u8x8_d_ld7032_60x32.c ****       u8x8_cad_SendCmd(u8x8, 0x012 );
 216              		.loc 1 133 0
 217 00c6 FFF7FEFF 		bl	u8x8_cad_StartTransfer
 218              	.LVL30:
 134:/Users/imashio/Electronics/ARM/_Library/u8x8_d_ld7032_60x32.c ****       if ( arg_int > 0x07f )			/* default is 0x040, limit to 0x07f to be on the safe side (hopefull
 219              		.loc 1 134 0
 220 00ca 1221     		movs	r1, #18
ARM GAS  /var/folders/v3/wysfpd052nz8jkbx04pk0ym80000gn/T//ccvO5eNH.s 			page 9


 221 00cc 3046     		mov	r0, r6
 222 00ce FFF7FEFF 		bl	u8x8_cad_SendCmd
 223              	.LVL31:
 136:/Users/imashio/Electronics/ARM/_Library/u8x8_d_ld7032_60x32.c ****       u8x8_cad_SendArg(u8x8, arg_int );	/* values from 0x00 to 0x0ff are allowed, bit will all valu
 224              		.loc 1 136 0
 225 00d2 14F0800F 		tst	r4, #128
 226              	.LVL32:
 137:/Users/imashio/Electronics/ARM/_Library/u8x8_d_ld7032_60x32.c ****       u8x8_cad_EndTransfer(u8x8);
 227              		.loc 1 137 0
 228 00d6 0CBF     		ite	eq
 229 00d8 2146     		moveq	r1, r4
 230 00da 7F21     		movne	r1, #127
 231 00dc 3046     		mov	r0, r6
 232 00de FFF7FEFF 		bl	u8x8_cad_SendArg
 233              	.LVL33:
 138:/Users/imashio/Electronics/ARM/_Library/u8x8_d_ld7032_60x32.c ****       break;
 234              		.loc 1 138 0
 235 00e2 3046     		mov	r0, r6
 236 00e4 FFF7FEFF 		bl	u8x8_cad_EndTransfer
 237              	.LVL34:
 169:/Users/imashio/Electronics/ARM/_Library/u8x8_d_ld7032_60x32.c **** }
 238              		.loc 1 169 0
 239 00e8 0120     		movs	r0, #1
 240              	.LBE9:
 241              	.LBE17:
 242              		.loc 1 205 0
 243 00ea F8BD     		pop	{r3, r4, r5, r6, r7, pc}
 244              	.LVL35:
 245              	.L6:
 246              	.LBB18:
 247              	.LBB10:
 114:/Users/imashio/Electronics/ARM/_Library/u8x8_d_ld7032_60x32.c **** 	u8x8_cad_SendSequence(u8x8, u8x8_d_ld7032_60x32_powersave0_seq);
 248              		.loc 1 114 0
 249 00ec 32B9     		cbnz	r2, .L10
 115:/Users/imashio/Electronics/ARM/_Library/u8x8_d_ld7032_60x32.c ****       else
 250              		.loc 1 115 0
 251 00ee 0D49     		ldr	r1, .L19+12
 252 00f0 FFF7FEFF 		bl	u8x8_cad_SendSequence
 253              	.LVL36:
 169:/Users/imashio/Electronics/ARM/_Library/u8x8_d_ld7032_60x32.c **** }
 254              		.loc 1 169 0
 255 00f4 0120     		movs	r0, #1
 256              	.LBE10:
 257              	.LBE18:
 258              		.loc 1 205 0
 259 00f6 F8BD     		pop	{r3, r4, r5, r6, r7, pc}
 260              	.LVL37:
 261              	.L14:
 262              	.LBB19:
 263              	.LBB11:
 167:/Users/imashio/Electronics/ARM/_Library/u8x8_d_ld7032_60x32.c ****   }
 264              		.loc 1 167 0
 265 00f8 0020     		movs	r0, #0
 266              	.LVL38:
 267              	.LBE11:
 268              	.LBE19:
 269              		.loc 1 205 0
ARM GAS  /var/folders/v3/wysfpd052nz8jkbx04pk0ym80000gn/T//ccvO5eNH.s 			page 10


 270 00fa F8BD     		pop	{r3, r4, r5, r6, r7, pc}
 271              	.LVL39:
 272              	.L10:
 273              	.LBB20:
 274              	.LBB12:
 117:/Users/imashio/Electronics/ARM/_Library/u8x8_d_ld7032_60x32.c ****       break;
 275              		.loc 1 117 0
 276 00fc 0A49     		ldr	r1, .L19+16
 277 00fe FFF7FEFF 		bl	u8x8_cad_SendSequence
 278              	.LVL40:
 169:/Users/imashio/Electronics/ARM/_Library/u8x8_d_ld7032_60x32.c **** }
 279              		.loc 1 169 0
 280 0102 0120     		movs	r0, #1
 281              	.LBE12:
 282              	.LBE20:
 283              		.loc 1 205 0
 284 0104 F8BD     		pop	{r3, r4, r5, r6, r7, pc}
 285              	.LVL41:
 286              	.L11:
 287              	.LBB21:
 288              	.LBB13:
 127:/Users/imashio/Electronics/ARM/_Library/u8x8_d_ld7032_60x32.c **** 	u8x8->x_offset = u8x8->display_info->flipmode_x_offset;
 289              		.loc 1 127 0
 290 0106 0949     		ldr	r1, .L19+20
 291 0108 FFF7FEFF 		bl	u8x8_cad_SendSequence
 292              	.LVL42:
 128:/Users/imashio/Electronics/ARM/_Library/u8x8_d_ld7032_60x32.c ****       }
 293              		.loc 1 128 0
 294 010c 3368     		ldr	r3, [r6]
 295 010e DB7C     		ldrb	r3, [r3, #19]	@ zero_extendqisi2
 296 0110 B377     		strb	r3, [r6, #30]
 169:/Users/imashio/Electronics/ARM/_Library/u8x8_d_ld7032_60x32.c **** }
 297              		.loc 1 169 0
 298 0112 0120     		movs	r0, #1
 299              	.LBE13:
 300              	.LBE21:
 301              		.loc 1 205 0
 302 0114 F8BD     		pop	{r3, r4, r5, r6, r7, pc}
 303              	.LVL43:
 304              	.L20:
 305 0116 00BF     		.align	2
 306              	.L19:
 307 0118 00000000 		.word	.LANCHOR0
 308 011c 00000000 		.word	.LANCHOR1
 309 0120 00000000 		.word	.LANCHOR4
 310 0124 00000000 		.word	.LANCHOR2
 311 0128 00000000 		.word	.LANCHOR3
 312 012c 00000000 		.word	.LANCHOR5
 313              		.cfi_endproc
 314              	.LFE1:
 316              		.section	.rodata.u8x8_d_ld7032_60x32_flip0_seq,"a",%progbits
 317              		.align	2
 318              		.set	.LANCHOR4,. + 0
 321              	u8x8_d_ld7032_60x32_flip0_seq:
 322 0000 18       		.byte	24
 323 0001 15       		.byte	21
 324 0002 09       		.byte	9
ARM GAS  /var/folders/v3/wysfpd052nz8jkbx04pk0ym80000gn/T//ccvO5eNH.s 			page 11


 325 0003 16       		.byte	22
 326 0004 00       		.byte	0
 327 0005 19       		.byte	25
 328 0006 FF       		.byte	-1
 329              		.section	.rodata.u8x8_d_ld7032_60x32_flip1_seq,"a",%progbits
 330              		.align	2
 331              		.set	.LANCHOR5,. + 0
 334              	u8x8_d_ld7032_60x32_flip1_seq:
 335 0000 18       		.byte	24
 336 0001 19       		.byte	25
 337 0002 FF       		.byte	-1
 338              		.section	.rodata.u8x8_d_ld7032_60x32_init_seq,"a",%progbits
 339              		.align	2
 340              		.set	.LANCHOR1,. + 0
 343              	u8x8_d_ld7032_60x32_init_seq:
 344 0000 18       		.byte	24
 345 0001 15       		.byte	21
 346 0002 14       		.byte	20
 347 0003 16       		.byte	22
 348 0004 00       		.byte	0
 349 0005 15       		.byte	21
 350 0006 1A       		.byte	26
 351 0007 16       		.byte	22
 352 0008 04       		.byte	4
 353 0009 15       		.byte	21
 354 000a 1D       		.byte	29
 355 000b 16       		.byte	22
 356 000c 00       		.byte	0
 357 000d 15       		.byte	21
 358 000e 09       		.byte	9
 359 000f 16       		.byte	22
 360 0010 00       		.byte	0
 361 0011 15       		.byte	21
 362 0012 30       		.byte	48
 363 0013 16       		.byte	22
 364 0014 00       		.byte	0
 365 0015 16       		.byte	22
 366 0016 3B       		.byte	59
 367 0017 15       		.byte	21
 368 0018 32       		.byte	50
 369 0019 16       		.byte	22
 370 001a 00       		.byte	0
 371 001b 16       		.byte	22
 372 001c 1F       		.byte	31
 373 001d 15       		.byte	21
 374 001e 10       		.byte	16
 375 001f 16       		.byte	22
 376 0020 00       		.byte	0
 377 0021 15       		.byte	21
 378 0022 16       		.byte	22
 379 0023 16       		.byte	22
 380 0024 00       		.byte	0
 381 0025 15       		.byte	21
 382 0026 12       		.byte	18
 383 0027 16       		.byte	22
 384 0028 40       		.byte	64
 385 0029 15       		.byte	21
ARM GAS  /var/folders/v3/wysfpd052nz8jkbx04pk0ym80000gn/T//ccvO5eNH.s 			page 12


 386 002a 18       		.byte	24
 387 002b 16       		.byte	22
 388 002c 03       		.byte	3
 389 002d 15       		.byte	21
 390 002e 44       		.byte	68
 391 002f 16       		.byte	22
 392 0030 02       		.byte	2
 393 0031 15       		.byte	21
 394 0032 48       		.byte	72
 395 0033 16       		.byte	22
 396 0034 03       		.byte	3
 397 0035 15       		.byte	21
 398 0036 3F       		.byte	63
 399 0037 16       		.byte	22
 400 0038 11       		.byte	17
 401 0039 15       		.byte	21
 402 003a 3D       		.byte	61
 403 003b 16       		.byte	22
 404 003c 00       		.byte	0
 405 003d 19       		.byte	25
 406 003e FF       		.byte	-1
 407              		.section	.rodata.u8x8_d_ld7032_60x32_powersave0_seq,"a",%progbits
 408              		.align	2
 409              		.set	.LANCHOR2,. + 0
 412              	u8x8_d_ld7032_60x32_powersave0_seq:
 413 0000 18       		.byte	24
 414 0001 15       		.byte	21
 415 0002 02       		.byte	2
 416 0003 16       		.byte	22
 417 0004 01       		.byte	1
 418 0005 19       		.byte	25
 419 0006 FF       		.byte	-1
 420              		.section	.rodata.u8x8_d_ld7032_60x32_powersave1_seq,"a",%progbits
 421              		.align	2
 422              		.set	.LANCHOR3,. + 0
 425              	u8x8_d_ld7032_60x32_powersave1_seq:
 426 0000 18       		.byte	24
 427 0001 15       		.byte	21
 428 0002 02       		.byte	2
 429 0003 16       		.byte	22
 430 0004 00       		.byte	0
 431 0005 19       		.byte	25
 432 0006 FF       		.byte	-1
 433              		.section	.rodata.u8x8_ld7032_60x32_display_info,"a",%progbits
 434              		.align	2
 435              		.set	.LANCHOR0,. + 0
 438              	u8x8_ld7032_60x32_display_info:
 439 0000 00       		.byte	0
 440 0001 01       		.byte	1
 441 0002 0F       		.byte	15
 442 0003 14       		.byte	20
 443 0004 64       		.byte	100
 444 0005 64       		.byte	100
 445 0006 1E       		.byte	30
 446 0007 1E       		.byte	30
 447 0008 00093D00 		.word	4000000
 448 000c 00       		.byte	0
ARM GAS  /var/folders/v3/wysfpd052nz8jkbx04pk0ym80000gn/T//ccvO5eNH.s 			page 13


 449 000d 04       		.byte	4
 450 000e 14       		.byte	20
 451 000f 28       		.byte	40
 452 0010 08       		.byte	8
 453 0011 04       		.byte	4
 454 0012 00       		.byte	0
 455 0013 00       		.byte	0
 456 0014 3C00     		.short	60
 457 0016 2000     		.short	32
 458              		.text
 459              	.Letext0:
 460              		.file 2 "/usr/local/gcc-arm-none-eabi-7-2018-q2-update/arm-none-eabi/include/machine/_default_type
 461              		.file 3 "/usr/local/gcc-arm-none-eabi-7-2018-q2-update/arm-none-eabi/include/sys/_stdint.h"
 462              		.file 4 "/Users/imashio/Electronics/ARM/_Library/u8x8.h"
ARM GAS  /var/folders/v3/wysfpd052nz8jkbx04pk0ym80000gn/T//ccvO5eNH.s 			page 14

