ARM GAS  /var/folders/v3/wysfpd052nz8jkbx04pk0ym80000gn/T//ccTER67s.s 			page 1


   1              		.cpu cortex-m4
   2              		.eabi_attribute 27, 1
   3              		.eabi_attribute 28, 1
   4              		.eabi_attribute 20, 1
   5              		.eabi_attribute 21, 1
   6              		.eabi_attribute 23, 3
   7              		.eabi_attribute 24, 1
   8              		.eabi_attribute 25, 1
   9              		.eabi_attribute 26, 1
  10              		.eabi_attribute 30, 2
  11              		.eabi_attribute 34, 1
  12              		.eabi_attribute 18, 4
  13              		.file	"u8x8_d_ssd1306_128x32.c"
  14              		.text
  15              	.Ltext0:
  16              		.cfi_sections	.debug_frame
  17              		.section	.text.u8x8_d_ssd1306_128x32_univision,"ax",%progbits
  18              		.align	1
  19              		.p2align 2,,3
  20              		.global	u8x8_d_ssd1306_128x32_univision
  21              		.syntax unified
  22              		.thumb
  23              		.thumb_func
  24              		.fpu fpv4-sp-d16
  26              	u8x8_d_ssd1306_128x32_univision:
  27              	.LFB1:
  28              		.file 1 "/Users/imashio/Electronics/ARM/_Library/u8x8_d_ssd1306_128x32.c"
   1:/Users/imashio/Electronics/ARM/_Library/u8x8_d_ssd1306_128x32.c **** /*
   2:/Users/imashio/Electronics/ARM/_Library/u8x8_d_ssd1306_128x32.c **** 
   3:/Users/imashio/Electronics/ARM/_Library/u8x8_d_ssd1306_128x32.c ****   u8x8_d_ssd1306_128x32.c
   4:/Users/imashio/Electronics/ARM/_Library/u8x8_d_ssd1306_128x32.c **** 
   5:/Users/imashio/Electronics/ARM/_Library/u8x8_d_ssd1306_128x32.c ****   Universal 8bit Graphics Library (https://github.com/olikraus/u8g2/)
   6:/Users/imashio/Electronics/ARM/_Library/u8x8_d_ssd1306_128x32.c **** 
   7:/Users/imashio/Electronics/ARM/_Library/u8x8_d_ssd1306_128x32.c ****   Copyright (c) 2016, olikraus@gmail.com
   8:/Users/imashio/Electronics/ARM/_Library/u8x8_d_ssd1306_128x32.c ****   All rights reserved.
   9:/Users/imashio/Electronics/ARM/_Library/u8x8_d_ssd1306_128x32.c **** 
  10:/Users/imashio/Electronics/ARM/_Library/u8x8_d_ssd1306_128x32.c ****   Redistribution and use in source and binary forms, with or without modification, 
  11:/Users/imashio/Electronics/ARM/_Library/u8x8_d_ssd1306_128x32.c ****   are permitted provided that the following conditions are met:
  12:/Users/imashio/Electronics/ARM/_Library/u8x8_d_ssd1306_128x32.c **** 
  13:/Users/imashio/Electronics/ARM/_Library/u8x8_d_ssd1306_128x32.c ****   * Redistributions of source code must retain the above copyright notice, this list 
  14:/Users/imashio/Electronics/ARM/_Library/u8x8_d_ssd1306_128x32.c ****     of conditions and the following disclaimer.
  15:/Users/imashio/Electronics/ARM/_Library/u8x8_d_ssd1306_128x32.c ****     
  16:/Users/imashio/Electronics/ARM/_Library/u8x8_d_ssd1306_128x32.c ****   * Redistributions in binary form must reproduce the above copyright notice, this 
  17:/Users/imashio/Electronics/ARM/_Library/u8x8_d_ssd1306_128x32.c ****     list of conditions and the following disclaimer in the documentation and/or other 
  18:/Users/imashio/Electronics/ARM/_Library/u8x8_d_ssd1306_128x32.c ****     materials provided with the distribution.
  19:/Users/imashio/Electronics/ARM/_Library/u8x8_d_ssd1306_128x32.c **** 
  20:/Users/imashio/Electronics/ARM/_Library/u8x8_d_ssd1306_128x32.c ****   THIS SOFTWARE IS PROVIDED BY THE COPYRIGHT HOLDERS AND 
  21:/Users/imashio/Electronics/ARM/_Library/u8x8_d_ssd1306_128x32.c ****   CONTRIBUTORS "AS IS" AND ANY EXPRESS OR IMPLIED WARRANTIES, 
  22:/Users/imashio/Electronics/ARM/_Library/u8x8_d_ssd1306_128x32.c ****   INCLUDING, BUT NOT LIMITED TO, THE IMPLIED WARRANTIES OF 
  23:/Users/imashio/Electronics/ARM/_Library/u8x8_d_ssd1306_128x32.c ****   MERCHANTABILITY AND FITNESS FOR A PARTICULAR PURPOSE ARE 
  24:/Users/imashio/Electronics/ARM/_Library/u8x8_d_ssd1306_128x32.c ****   DISCLAIMED. IN NO EVENT SHALL THE COPYRIGHT HOLDER OR 
  25:/Users/imashio/Electronics/ARM/_Library/u8x8_d_ssd1306_128x32.c ****   CONTRIBUTORS BE LIABLE FOR ANY DIRECT, INDIRECT, INCIDENTAL, 
  26:/Users/imashio/Electronics/ARM/_Library/u8x8_d_ssd1306_128x32.c ****   SPECIAL, EXEMPLARY, OR CONSEQUENTIAL DAMAGES (INCLUDING, BUT 
  27:/Users/imashio/Electronics/ARM/_Library/u8x8_d_ssd1306_128x32.c ****   NOT LIMITED TO, PROCUREMENT OF SUBSTITUTE GOODS OR SERVICES; 
  28:/Users/imashio/Electronics/ARM/_Library/u8x8_d_ssd1306_128x32.c ****   LOSS OF USE, DATA, OR PROFITS; OR BUSINESS INTERRUPTION) HOWEVER 
  29:/Users/imashio/Electronics/ARM/_Library/u8x8_d_ssd1306_128x32.c ****   CAUSED AND ON ANY THEORY OF LIABILITY, WHETHER IN CONTRACT, 
  30:/Users/imashio/Electronics/ARM/_Library/u8x8_d_ssd1306_128x32.c ****   STRICT LIABILITY, OR TORT (INCLUDING NEGLIGENCE OR OTHERWISE) 
ARM GAS  /var/folders/v3/wysfpd052nz8jkbx04pk0ym80000gn/T//ccTER67s.s 			page 2


  31:/Users/imashio/Electronics/ARM/_Library/u8x8_d_ssd1306_128x32.c ****   ARISING IN ANY WAY OUT OF THE USE OF THIS SOFTWARE, EVEN IF 
  32:/Users/imashio/Electronics/ARM/_Library/u8x8_d_ssd1306_128x32.c ****   ADVISED OF THE POSSIBILITY OF SUCH DAMAGE.  
  33:/Users/imashio/Electronics/ARM/_Library/u8x8_d_ssd1306_128x32.c ****   
  34:/Users/imashio/Electronics/ARM/_Library/u8x8_d_ssd1306_128x32.c **** */
  35:/Users/imashio/Electronics/ARM/_Library/u8x8_d_ssd1306_128x32.c **** 
  36:/Users/imashio/Electronics/ARM/_Library/u8x8_d_ssd1306_128x32.c **** 
  37:/Users/imashio/Electronics/ARM/_Library/u8x8_d_ssd1306_128x32.c **** #include "u8x8.h"
  38:/Users/imashio/Electronics/ARM/_Library/u8x8_d_ssd1306_128x32.c **** 
  39:/Users/imashio/Electronics/ARM/_Library/u8x8_d_ssd1306_128x32.c **** 
  40:/Users/imashio/Electronics/ARM/_Library/u8x8_d_ssd1306_128x32.c **** 
  41:/Users/imashio/Electronics/ARM/_Library/u8x8_d_ssd1306_128x32.c **** /* UG-2832HSWEG02 Datasheet, Section 4.4 */
  42:/Users/imashio/Electronics/ARM/_Library/u8x8_d_ssd1306_128x32.c **** static const uint8_t u8x8_d_ssd1306_128x32_univision_init_seq[] = {
  43:/Users/imashio/Electronics/ARM/_Library/u8x8_d_ssd1306_128x32.c ****     
  44:/Users/imashio/Electronics/ARM/_Library/u8x8_d_ssd1306_128x32.c ****   U8X8_START_TRANSFER(),             	/* enable chip, delay is part of the transfer start */
  45:/Users/imashio/Electronics/ARM/_Library/u8x8_d_ssd1306_128x32.c ****   
  46:/Users/imashio/Electronics/ARM/_Library/u8x8_d_ssd1306_128x32.c ****   
  47:/Users/imashio/Electronics/ARM/_Library/u8x8_d_ssd1306_128x32.c ****   U8X8_C(0x0ae),		                /* display off */
  48:/Users/imashio/Electronics/ARM/_Library/u8x8_d_ssd1306_128x32.c ****   U8X8_CA(0x0d5, 0x080),		/* clock divide ratio (0x00=1) and oscillator frequency (0x8) */
  49:/Users/imashio/Electronics/ARM/_Library/u8x8_d_ssd1306_128x32.c ****   U8X8_CA(0x0a8, 0x01f),		/* multiplex ratio */
  50:/Users/imashio/Electronics/ARM/_Library/u8x8_d_ssd1306_128x32.c ****   U8X8_CA(0x0d3, 0x000),		/* display offset */
  51:/Users/imashio/Electronics/ARM/_Library/u8x8_d_ssd1306_128x32.c ****   U8X8_C(0x040),		                /* set display start line to 0 */
  52:/Users/imashio/Electronics/ARM/_Library/u8x8_d_ssd1306_128x32.c ****   U8X8_CA(0x08d, 0x014),		/* [2] charge pump setting (p62): 0x014 enable, 0x010 disable */
  53:/Users/imashio/Electronics/ARM/_Library/u8x8_d_ssd1306_128x32.c ****   U8X8_CA(0x020, 0x000),		/* page addressing mode */
  54:/Users/imashio/Electronics/ARM/_Library/u8x8_d_ssd1306_128x32.c ****   
  55:/Users/imashio/Electronics/ARM/_Library/u8x8_d_ssd1306_128x32.c ****   U8X8_C(0x0a1),				/* segment remap a0/a1*/
  56:/Users/imashio/Electronics/ARM/_Library/u8x8_d_ssd1306_128x32.c ****   U8X8_C(0x0c8),				/* c0: scan dir normal, c8: reverse */
  57:/Users/imashio/Electronics/ARM/_Library/u8x8_d_ssd1306_128x32.c ****   // Flipmode
  58:/Users/imashio/Electronics/ARM/_Library/u8x8_d_ssd1306_128x32.c ****   // U8X8_C(0x0a0),				/* segment remap a0/a1*/
  59:/Users/imashio/Electronics/ARM/_Library/u8x8_d_ssd1306_128x32.c ****   // U8X8_C(0x0c0),				/* c0: scan dir normal, c8: reverse */
  60:/Users/imashio/Electronics/ARM/_Library/u8x8_d_ssd1306_128x32.c ****   
  61:/Users/imashio/Electronics/ARM/_Library/u8x8_d_ssd1306_128x32.c ****   U8X8_CA(0x0da, 0x002),		/* com pin HW config, sequential com pin config (bit 4), disable left/rig
  62:/Users/imashio/Electronics/ARM/_Library/u8x8_d_ssd1306_128x32.c ****   U8X8_CA(0x081, 0x08f),		/* [2] set contrast control */
  63:/Users/imashio/Electronics/ARM/_Library/u8x8_d_ssd1306_128x32.c ****   U8X8_CA(0x0d9, 0x0f1),		/* [2] pre-charge period 0x022/f1*/
  64:/Users/imashio/Electronics/ARM/_Library/u8x8_d_ssd1306_128x32.c ****   U8X8_CA(0x0db, 0x040),		/* vcomh deselect level */
  65:/Users/imashio/Electronics/ARM/_Library/u8x8_d_ssd1306_128x32.c ****   
  66:/Users/imashio/Electronics/ARM/_Library/u8x8_d_ssd1306_128x32.c ****   U8X8_C(0x02e),				/* Deactivate scroll */ 
  67:/Users/imashio/Electronics/ARM/_Library/u8x8_d_ssd1306_128x32.c ****   U8X8_C(0x0a4),				/* output ram to display */
  68:/Users/imashio/Electronics/ARM/_Library/u8x8_d_ssd1306_128x32.c ****   U8X8_C(0x0a6),				/* none inverted normal display mode */
  69:/Users/imashio/Electronics/ARM/_Library/u8x8_d_ssd1306_128x32.c ****     
  70:/Users/imashio/Electronics/ARM/_Library/u8x8_d_ssd1306_128x32.c ****   U8X8_END_TRANSFER(),             	/* disable chip */
  71:/Users/imashio/Electronics/ARM/_Library/u8x8_d_ssd1306_128x32.c ****   U8X8_END()             			/* end of sequence */
  72:/Users/imashio/Electronics/ARM/_Library/u8x8_d_ssd1306_128x32.c **** };
  73:/Users/imashio/Electronics/ARM/_Library/u8x8_d_ssd1306_128x32.c **** 
  74:/Users/imashio/Electronics/ARM/_Library/u8x8_d_ssd1306_128x32.c **** static const uint8_t u8x8_d_ssd1306_128x32_univision_powersave0_seq[] = {
  75:/Users/imashio/Electronics/ARM/_Library/u8x8_d_ssd1306_128x32.c ****   U8X8_START_TRANSFER(),             	/* enable chip, delay is part of the transfer start */
  76:/Users/imashio/Electronics/ARM/_Library/u8x8_d_ssd1306_128x32.c ****   U8X8_C(0x0af),		                /* display on */
  77:/Users/imashio/Electronics/ARM/_Library/u8x8_d_ssd1306_128x32.c ****   U8X8_END_TRANSFER(),             	/* disable chip */
  78:/Users/imashio/Electronics/ARM/_Library/u8x8_d_ssd1306_128x32.c ****   U8X8_END()             			/* end of sequence */
  79:/Users/imashio/Electronics/ARM/_Library/u8x8_d_ssd1306_128x32.c **** };
  80:/Users/imashio/Electronics/ARM/_Library/u8x8_d_ssd1306_128x32.c **** 
  81:/Users/imashio/Electronics/ARM/_Library/u8x8_d_ssd1306_128x32.c **** static const uint8_t u8x8_d_ssd1306_128x32_univision_powersave1_seq[] = {
  82:/Users/imashio/Electronics/ARM/_Library/u8x8_d_ssd1306_128x32.c ****   U8X8_START_TRANSFER(),             	/* enable chip, delay is part of the transfer start */
  83:/Users/imashio/Electronics/ARM/_Library/u8x8_d_ssd1306_128x32.c ****   U8X8_C(0x0ae),		                /* display off */
  84:/Users/imashio/Electronics/ARM/_Library/u8x8_d_ssd1306_128x32.c ****   U8X8_END_TRANSFER(),             	/* disable chip */
  85:/Users/imashio/Electronics/ARM/_Library/u8x8_d_ssd1306_128x32.c ****   U8X8_END()             			/* end of sequence */
  86:/Users/imashio/Electronics/ARM/_Library/u8x8_d_ssd1306_128x32.c **** };
  87:/Users/imashio/Electronics/ARM/_Library/u8x8_d_ssd1306_128x32.c **** 
ARM GAS  /var/folders/v3/wysfpd052nz8jkbx04pk0ym80000gn/T//ccTER67s.s 			page 3


  88:/Users/imashio/Electronics/ARM/_Library/u8x8_d_ssd1306_128x32.c **** static const uint8_t u8x8_d_ssd1306_128x32_univision_flip0_seq[] = {
  89:/Users/imashio/Electronics/ARM/_Library/u8x8_d_ssd1306_128x32.c ****   U8X8_START_TRANSFER(),             	/* enable chip, delay is part of the transfer start */
  90:/Users/imashio/Electronics/ARM/_Library/u8x8_d_ssd1306_128x32.c ****   U8X8_C(0x0a1),				/* segment remap a0/a1*/
  91:/Users/imashio/Electronics/ARM/_Library/u8x8_d_ssd1306_128x32.c ****   U8X8_C(0x0c8),				/* c0: scan dir normal, c8: reverse */
  92:/Users/imashio/Electronics/ARM/_Library/u8x8_d_ssd1306_128x32.c ****   U8X8_END_TRANSFER(),             	/* disable chip */
  93:/Users/imashio/Electronics/ARM/_Library/u8x8_d_ssd1306_128x32.c ****   U8X8_END()             			/* end of sequence */
  94:/Users/imashio/Electronics/ARM/_Library/u8x8_d_ssd1306_128x32.c **** };
  95:/Users/imashio/Electronics/ARM/_Library/u8x8_d_ssd1306_128x32.c **** 
  96:/Users/imashio/Electronics/ARM/_Library/u8x8_d_ssd1306_128x32.c **** static const uint8_t u8x8_d_ssd1306_128x32_univision_flip1_seq[] = {
  97:/Users/imashio/Electronics/ARM/_Library/u8x8_d_ssd1306_128x32.c ****   U8X8_START_TRANSFER(),             	/* enable chip, delay is part of the transfer start */
  98:/Users/imashio/Electronics/ARM/_Library/u8x8_d_ssd1306_128x32.c ****   U8X8_C(0x0a0),				/* segment remap a0/a1*/
  99:/Users/imashio/Electronics/ARM/_Library/u8x8_d_ssd1306_128x32.c ****   U8X8_C(0x0c0),				/* c0: scan dir normal, c8: reverse */
 100:/Users/imashio/Electronics/ARM/_Library/u8x8_d_ssd1306_128x32.c ****   U8X8_END_TRANSFER(),             	/* disable chip */
 101:/Users/imashio/Electronics/ARM/_Library/u8x8_d_ssd1306_128x32.c ****   U8X8_END()             			/* end of sequence */
 102:/Users/imashio/Electronics/ARM/_Library/u8x8_d_ssd1306_128x32.c **** };
 103:/Users/imashio/Electronics/ARM/_Library/u8x8_d_ssd1306_128x32.c **** 
 104:/Users/imashio/Electronics/ARM/_Library/u8x8_d_ssd1306_128x32.c **** 
 105:/Users/imashio/Electronics/ARM/_Library/u8x8_d_ssd1306_128x32.c **** static uint8_t u8x8_d_ssd1306_128x32_generic(u8x8_t *u8x8, uint8_t msg, uint8_t arg_int, void *arg_
 106:/Users/imashio/Electronics/ARM/_Library/u8x8_d_ssd1306_128x32.c **** {
 107:/Users/imashio/Electronics/ARM/_Library/u8x8_d_ssd1306_128x32.c ****   uint8_t x, c;
 108:/Users/imashio/Electronics/ARM/_Library/u8x8_d_ssd1306_128x32.c ****   uint8_t *ptr;
 109:/Users/imashio/Electronics/ARM/_Library/u8x8_d_ssd1306_128x32.c ****   switch(msg)
 110:/Users/imashio/Electronics/ARM/_Library/u8x8_d_ssd1306_128x32.c ****   {
 111:/Users/imashio/Electronics/ARM/_Library/u8x8_d_ssd1306_128x32.c ****     /* handled by the calling function
 112:/Users/imashio/Electronics/ARM/_Library/u8x8_d_ssd1306_128x32.c ****     case U8X8_MSG_DISPLAY_SETUP_MEMORY:
 113:/Users/imashio/Electronics/ARM/_Library/u8x8_d_ssd1306_128x32.c ****       u8x8_d_helper_display_setup_memory(u8x8, &u8x8_ssd1306_128x32_univision_display_info);
 114:/Users/imashio/Electronics/ARM/_Library/u8x8_d_ssd1306_128x32.c ****       break;
 115:/Users/imashio/Electronics/ARM/_Library/u8x8_d_ssd1306_128x32.c ****     */
 116:/Users/imashio/Electronics/ARM/_Library/u8x8_d_ssd1306_128x32.c ****     case U8X8_MSG_DISPLAY_INIT:
 117:/Users/imashio/Electronics/ARM/_Library/u8x8_d_ssd1306_128x32.c ****       u8x8_d_helper_display_init(u8x8);
 118:/Users/imashio/Electronics/ARM/_Library/u8x8_d_ssd1306_128x32.c ****       u8x8_cad_SendSequence(u8x8, u8x8_d_ssd1306_128x32_univision_init_seq);    
 119:/Users/imashio/Electronics/ARM/_Library/u8x8_d_ssd1306_128x32.c ****       break;
 120:/Users/imashio/Electronics/ARM/_Library/u8x8_d_ssd1306_128x32.c ****     case U8X8_MSG_DISPLAY_SET_POWER_SAVE:
 121:/Users/imashio/Electronics/ARM/_Library/u8x8_d_ssd1306_128x32.c ****       if ( arg_int == 0 )
 122:/Users/imashio/Electronics/ARM/_Library/u8x8_d_ssd1306_128x32.c **** 	u8x8_cad_SendSequence(u8x8, u8x8_d_ssd1306_128x32_univision_powersave0_seq);
 123:/Users/imashio/Electronics/ARM/_Library/u8x8_d_ssd1306_128x32.c ****       else
 124:/Users/imashio/Electronics/ARM/_Library/u8x8_d_ssd1306_128x32.c **** 	u8x8_cad_SendSequence(u8x8, u8x8_d_ssd1306_128x32_univision_powersave1_seq);
 125:/Users/imashio/Electronics/ARM/_Library/u8x8_d_ssd1306_128x32.c ****       break;
 126:/Users/imashio/Electronics/ARM/_Library/u8x8_d_ssd1306_128x32.c ****     case U8X8_MSG_DISPLAY_SET_FLIP_MODE:
 127:/Users/imashio/Electronics/ARM/_Library/u8x8_d_ssd1306_128x32.c ****       if ( arg_int == 0 )
 128:/Users/imashio/Electronics/ARM/_Library/u8x8_d_ssd1306_128x32.c ****       {
 129:/Users/imashio/Electronics/ARM/_Library/u8x8_d_ssd1306_128x32.c **** 	u8x8_cad_SendSequence(u8x8, u8x8_d_ssd1306_128x32_univision_flip0_seq);
 130:/Users/imashio/Electronics/ARM/_Library/u8x8_d_ssd1306_128x32.c **** 	u8x8->x_offset = u8x8->display_info->default_x_offset;
 131:/Users/imashio/Electronics/ARM/_Library/u8x8_d_ssd1306_128x32.c ****       }
 132:/Users/imashio/Electronics/ARM/_Library/u8x8_d_ssd1306_128x32.c ****       else
 133:/Users/imashio/Electronics/ARM/_Library/u8x8_d_ssd1306_128x32.c ****       {
 134:/Users/imashio/Electronics/ARM/_Library/u8x8_d_ssd1306_128x32.c **** 	u8x8_cad_SendSequence(u8x8, u8x8_d_ssd1306_128x32_univision_flip1_seq);
 135:/Users/imashio/Electronics/ARM/_Library/u8x8_d_ssd1306_128x32.c **** 	u8x8->x_offset = u8x8->display_info->flipmode_x_offset;
 136:/Users/imashio/Electronics/ARM/_Library/u8x8_d_ssd1306_128x32.c ****       }
 137:/Users/imashio/Electronics/ARM/_Library/u8x8_d_ssd1306_128x32.c ****       break;
 138:/Users/imashio/Electronics/ARM/_Library/u8x8_d_ssd1306_128x32.c **** #ifdef U8X8_WITH_SET_CONTRAST
 139:/Users/imashio/Electronics/ARM/_Library/u8x8_d_ssd1306_128x32.c ****     case U8X8_MSG_DISPLAY_SET_CONTRAST:
 140:/Users/imashio/Electronics/ARM/_Library/u8x8_d_ssd1306_128x32.c ****       u8x8_cad_StartTransfer(u8x8);
 141:/Users/imashio/Electronics/ARM/_Library/u8x8_d_ssd1306_128x32.c ****       u8x8_cad_SendCmd(u8x8, 0x081 );
 142:/Users/imashio/Electronics/ARM/_Library/u8x8_d_ssd1306_128x32.c ****       u8x8_cad_SendArg(u8x8, arg_int );	/* ssd1306 has range from 0 to 255 */
 143:/Users/imashio/Electronics/ARM/_Library/u8x8_d_ssd1306_128x32.c ****       u8x8_cad_EndTransfer(u8x8);
 144:/Users/imashio/Electronics/ARM/_Library/u8x8_d_ssd1306_128x32.c ****       break;
ARM GAS  /var/folders/v3/wysfpd052nz8jkbx04pk0ym80000gn/T//ccTER67s.s 			page 4


 145:/Users/imashio/Electronics/ARM/_Library/u8x8_d_ssd1306_128x32.c **** #endif
 146:/Users/imashio/Electronics/ARM/_Library/u8x8_d_ssd1306_128x32.c ****     case U8X8_MSG_DISPLAY_DRAW_TILE:
 147:/Users/imashio/Electronics/ARM/_Library/u8x8_d_ssd1306_128x32.c ****       u8x8_cad_StartTransfer(u8x8);
 148:/Users/imashio/Electronics/ARM/_Library/u8x8_d_ssd1306_128x32.c ****       x = ((u8x8_tile_t *)arg_ptr)->x_pos;    
 149:/Users/imashio/Electronics/ARM/_Library/u8x8_d_ssd1306_128x32.c ****       x *= 8;
 150:/Users/imashio/Electronics/ARM/_Library/u8x8_d_ssd1306_128x32.c ****       x += u8x8->x_offset;
 151:/Users/imashio/Electronics/ARM/_Library/u8x8_d_ssd1306_128x32.c ****       u8x8_cad_SendCmd(u8x8, 0x010 | (x>>4) );
 152:/Users/imashio/Electronics/ARM/_Library/u8x8_d_ssd1306_128x32.c ****       u8x8_cad_SendCmd(u8x8, 0x000 | ((x&15)));
 153:/Users/imashio/Electronics/ARM/_Library/u8x8_d_ssd1306_128x32.c ****       u8x8_cad_SendCmd(u8x8, 0x0b0 | (((u8x8_tile_t *)arg_ptr)->y_pos));
 154:/Users/imashio/Electronics/ARM/_Library/u8x8_d_ssd1306_128x32.c ****       
 155:/Users/imashio/Electronics/ARM/_Library/u8x8_d_ssd1306_128x32.c ****       do
 156:/Users/imashio/Electronics/ARM/_Library/u8x8_d_ssd1306_128x32.c ****       {
 157:/Users/imashio/Electronics/ARM/_Library/u8x8_d_ssd1306_128x32.c **** 	c = ((u8x8_tile_t *)arg_ptr)->cnt;
 158:/Users/imashio/Electronics/ARM/_Library/u8x8_d_ssd1306_128x32.c **** 	ptr = ((u8x8_tile_t *)arg_ptr)->tile_ptr;
 159:/Users/imashio/Electronics/ARM/_Library/u8x8_d_ssd1306_128x32.c **** 	u8x8_cad_SendData(u8x8, c*8, ptr); 	/* note: SendData can not handle more than 255 bytes */
 160:/Users/imashio/Electronics/ARM/_Library/u8x8_d_ssd1306_128x32.c **** 	/*
 161:/Users/imashio/Electronics/ARM/_Library/u8x8_d_ssd1306_128x32.c **** 	do
 162:/Users/imashio/Electronics/ARM/_Library/u8x8_d_ssd1306_128x32.c **** 	{
 163:/Users/imashio/Electronics/ARM/_Library/u8x8_d_ssd1306_128x32.c **** 	  u8x8_cad_SendData(u8x8, 8, ptr);
 164:/Users/imashio/Electronics/ARM/_Library/u8x8_d_ssd1306_128x32.c **** 	  ptr += 8;
 165:/Users/imashio/Electronics/ARM/_Library/u8x8_d_ssd1306_128x32.c **** 	  c--;
 166:/Users/imashio/Electronics/ARM/_Library/u8x8_d_ssd1306_128x32.c **** 	} while( c > 0 );
 167:/Users/imashio/Electronics/ARM/_Library/u8x8_d_ssd1306_128x32.c **** 	*/
 168:/Users/imashio/Electronics/ARM/_Library/u8x8_d_ssd1306_128x32.c **** 	arg_int--;
 169:/Users/imashio/Electronics/ARM/_Library/u8x8_d_ssd1306_128x32.c ****       } while( arg_int > 0 );
 170:/Users/imashio/Electronics/ARM/_Library/u8x8_d_ssd1306_128x32.c ****       
 171:/Users/imashio/Electronics/ARM/_Library/u8x8_d_ssd1306_128x32.c ****       u8x8_cad_EndTransfer(u8x8);
 172:/Users/imashio/Electronics/ARM/_Library/u8x8_d_ssd1306_128x32.c ****       break;
 173:/Users/imashio/Electronics/ARM/_Library/u8x8_d_ssd1306_128x32.c ****     default:
 174:/Users/imashio/Electronics/ARM/_Library/u8x8_d_ssd1306_128x32.c ****       return 0;
 175:/Users/imashio/Electronics/ARM/_Library/u8x8_d_ssd1306_128x32.c ****   }
 176:/Users/imashio/Electronics/ARM/_Library/u8x8_d_ssd1306_128x32.c ****   return 1;
 177:/Users/imashio/Electronics/ARM/_Library/u8x8_d_ssd1306_128x32.c **** }
 178:/Users/imashio/Electronics/ARM/_Library/u8x8_d_ssd1306_128x32.c **** 
 179:/Users/imashio/Electronics/ARM/_Library/u8x8_d_ssd1306_128x32.c **** 
 180:/Users/imashio/Electronics/ARM/_Library/u8x8_d_ssd1306_128x32.c **** static const u8x8_display_info_t u8x8_ssd1306_128x32_univision_display_info =
 181:/Users/imashio/Electronics/ARM/_Library/u8x8_d_ssd1306_128x32.c **** {
 182:/Users/imashio/Electronics/ARM/_Library/u8x8_d_ssd1306_128x32.c ****   /* chip_enable_level = */ 0,
 183:/Users/imashio/Electronics/ARM/_Library/u8x8_d_ssd1306_128x32.c ****   /* chip_disable_level = */ 1,
 184:/Users/imashio/Electronics/ARM/_Library/u8x8_d_ssd1306_128x32.c ****   
 185:/Users/imashio/Electronics/ARM/_Library/u8x8_d_ssd1306_128x32.c ****   /* post_chip_enable_wait_ns = */ 20,
 186:/Users/imashio/Electronics/ARM/_Library/u8x8_d_ssd1306_128x32.c ****   /* pre_chip_disable_wait_ns = */ 10,
 187:/Users/imashio/Electronics/ARM/_Library/u8x8_d_ssd1306_128x32.c ****   /* reset_pulse_width_ms = */ 100, 	/* SSD1306: 3 us */
 188:/Users/imashio/Electronics/ARM/_Library/u8x8_d_ssd1306_128x32.c ****   /* post_reset_wait_ms = */ 100, /* far east OLEDs need much longer setup time */
 189:/Users/imashio/Electronics/ARM/_Library/u8x8_d_ssd1306_128x32.c ****   /* sda_setup_time_ns = */ 50,		/* SSD1306: 15ns, but cycle time is 100ns, so use 100/2 */
 190:/Users/imashio/Electronics/ARM/_Library/u8x8_d_ssd1306_128x32.c ****   /* sck_pulse_width_ns = */ 50,	/* SSD1306: 20ns, but cycle time is 100ns, so use 100/2, AVR: belo
 191:/Users/imashio/Electronics/ARM/_Library/u8x8_d_ssd1306_128x32.c ****   /* sck_clock_hz = */ 8000000UL,	/* since Arduino 1.6.0, the SPI bus speed in Hz. Should be  10000
 192:/Users/imashio/Electronics/ARM/_Library/u8x8_d_ssd1306_128x32.c ****   /* spi_mode = */ 0,		/* active high, rising edge */
 193:/Users/imashio/Electronics/ARM/_Library/u8x8_d_ssd1306_128x32.c ****   /* i2c_bus_clock_100kHz = */ 4,
 194:/Users/imashio/Electronics/ARM/_Library/u8x8_d_ssd1306_128x32.c ****   /* data_setup_time_ns = */ 40,
 195:/Users/imashio/Electronics/ARM/_Library/u8x8_d_ssd1306_128x32.c ****   /* write_pulse_width_ns = */ 150,	/* SSD1306: cycle time is 300ns, so use 300/2 = 150 */
 196:/Users/imashio/Electronics/ARM/_Library/u8x8_d_ssd1306_128x32.c ****   /* tile_width = */ 16,
 197:/Users/imashio/Electronics/ARM/_Library/u8x8_d_ssd1306_128x32.c ****   /* tile_hight = */ 4,
 198:/Users/imashio/Electronics/ARM/_Library/u8x8_d_ssd1306_128x32.c ****   /* default_x_offset = */ 0,
 199:/Users/imashio/Electronics/ARM/_Library/u8x8_d_ssd1306_128x32.c ****   /* flipmode_x_offset = */ 0,
 200:/Users/imashio/Electronics/ARM/_Library/u8x8_d_ssd1306_128x32.c ****   /* pixel_width = */ 128,
 201:/Users/imashio/Electronics/ARM/_Library/u8x8_d_ssd1306_128x32.c ****   /* pixel_height = */ 32
ARM GAS  /var/folders/v3/wysfpd052nz8jkbx04pk0ym80000gn/T//ccTER67s.s 			page 5


 202:/Users/imashio/Electronics/ARM/_Library/u8x8_d_ssd1306_128x32.c **** };
 203:/Users/imashio/Electronics/ARM/_Library/u8x8_d_ssd1306_128x32.c **** 
 204:/Users/imashio/Electronics/ARM/_Library/u8x8_d_ssd1306_128x32.c **** uint8_t u8x8_d_ssd1306_128x32_univision(u8x8_t *u8x8, uint8_t msg, uint8_t arg_int, void *arg_ptr)
 205:/Users/imashio/Electronics/ARM/_Library/u8x8_d_ssd1306_128x32.c **** {
  29              		.loc 1 205 0
  30              		.cfi_startproc
  31              		@ args = 0, pretend = 0, frame = 0
  32              		@ frame_needed = 0, uses_anonymous_args = 0
  33              	.LVL0:
 206:/Users/imashio/Electronics/ARM/_Library/u8x8_d_ssd1306_128x32.c ****     if ( msg == U8X8_MSG_DISPLAY_SETUP_MEMORY )
  34              		.loc 1 206 0
  35 0000 0929     		cmp	r1, #9
 205:/Users/imashio/Electronics/ARM/_Library/u8x8_d_ssd1306_128x32.c ****     if ( msg == U8X8_MSG_DISPLAY_SETUP_MEMORY )
  36              		.loc 1 205 0
  37 0002 F8B5     		push	{r3, r4, r5, r6, r7, lr}
  38              	.LCFI0:
  39              		.cfi_def_cfa_offset 24
  40              		.cfi_offset 3, -24
  41              		.cfi_offset 4, -20
  42              		.cfi_offset 5, -16
  43              		.cfi_offset 6, -12
  44              		.cfi_offset 7, -8
  45              		.cfi_offset 14, -4
  46              		.loc 1 206 0
  47 0004 0AD0     		beq	.L17
  48              	.LBB4:
  49              	.LBB5:
 109:/Users/imashio/Electronics/ARM/_Library/u8x8_d_ssd1306_128x32.c ****   {
  50              		.loc 1 109 0
  51 0006 0A39     		subs	r1, r1, #10
  52              	.LVL1:
  53 0008 1446     		mov	r4, r2
  54 000a 1E46     		mov	r6, r3
  55 000c 0546     		mov	r5, r0
  56              	.LVL2:
  57 000e 0529     		cmp	r1, #5
  58 0010 59D8     		bhi	.L13
  59 0012 DFE801F0 		tbb	[pc, r1]
  60              	.LVL3:
  61              	.L5:
  62 0016 32       		.byte	(.L4-.L5)/2
  63 0017 52       		.byte	(.L6-.L5)/2
  64 0018 58       		.byte	(.L13-.L5)/2
  65 0019 3A       		.byte	(.L7-.L5)/2
  66 001a 43       		.byte	(.L8-.L5)/2
  67 001b 08       		.byte	(.L9-.L5)/2
  68              		.p2align 1
  69              	.L17:
  70              	.LBE5:
  71              	.LBE4:
 207:/Users/imashio/Electronics/ARM/_Library/u8x8_d_ssd1306_128x32.c ****     {
 208:/Users/imashio/Electronics/ARM/_Library/u8x8_d_ssd1306_128x32.c ****       u8x8_d_helper_display_setup_memory(u8x8, &u8x8_ssd1306_128x32_univision_display_info);
  72              		.loc 1 208 0
  73 001c 3149     		ldr	r1, .L18
  74              	.LVL4:
  75 001e FFF7FEFF 		bl	u8x8_d_helper_display_setup_memory
  76              	.LVL5:
ARM GAS  /var/folders/v3/wysfpd052nz8jkbx04pk0ym80000gn/T//ccTER67s.s 			page 6


 209:/Users/imashio/Electronics/ARM/_Library/u8x8_d_ssd1306_128x32.c ****       return 1;
  77              		.loc 1 209 0
  78 0022 0120     		movs	r0, #1
 210:/Users/imashio/Electronics/ARM/_Library/u8x8_d_ssd1306_128x32.c ****     }
 211:/Users/imashio/Electronics/ARM/_Library/u8x8_d_ssd1306_128x32.c ****     return u8x8_d_ssd1306_128x32_generic(u8x8, msg, arg_int, arg_ptr);
 212:/Users/imashio/Electronics/ARM/_Library/u8x8_d_ssd1306_128x32.c **** }
  79              		.loc 1 212 0
  80 0024 F8BD     		pop	{r3, r4, r5, r6, r7, pc}
  81              	.LVL6:
  82              	.L9:
  83              	.LBB14:
  84              	.LBB6:
 147:/Users/imashio/Electronics/ARM/_Library/u8x8_d_ssd1306_128x32.c ****       x = ((u8x8_tile_t *)arg_ptr)->x_pos;    
  85              		.loc 1 147 0
  86 0026 FFF7FEFF 		bl	u8x8_cad_StartTransfer
  87              	.LVL7:
 148:/Users/imashio/Electronics/ARM/_Library/u8x8_d_ssd1306_128x32.c ****       x *= 8;
  88              		.loc 1 148 0
  89 002a 7379     		ldrb	r3, [r6, #5]	@ zero_extendqisi2
  90              	.LVL8:
 150:/Users/imashio/Electronics/ARM/_Library/u8x8_d_ssd1306_128x32.c ****       u8x8_cad_SendCmd(u8x8, 0x010 | (x>>4) );
  91              		.loc 1 150 0
  92 002c AF7F     		ldrb	r7, [r5, #30]	@ zero_extendqisi2
  93 002e 07EBC307 		add	r7, r7, r3, lsl #3
  94 0032 07F0FF07 		and	r7, r7, #255
  95              	.LVL9:
 151:/Users/imashio/Electronics/ARM/_Library/u8x8_d_ssd1306_128x32.c ****       u8x8_cad_SendCmd(u8x8, 0x000 | ((x&15)));
  96              		.loc 1 151 0
  97 0036 3909     		lsrs	r1, r7, #4
  98 0038 41F01001 		orr	r1, r1, #16
  99 003c 2846     		mov	r0, r5
 100 003e FFF7FEFF 		bl	u8x8_cad_SendCmd
 101              	.LVL10:
 152:/Users/imashio/Electronics/ARM/_Library/u8x8_d_ssd1306_128x32.c ****       u8x8_cad_SendCmd(u8x8, 0x0b0 | (((u8x8_tile_t *)arg_ptr)->y_pos));
 102              		.loc 1 152 0
 103 0042 07F00F01 		and	r1, r7, #15
 104 0046 2846     		mov	r0, r5
 105 0048 FFF7FEFF 		bl	u8x8_cad_SendCmd
 106              	.LVL11:
 153:/Users/imashio/Electronics/ARM/_Library/u8x8_d_ssd1306_128x32.c ****       
 107              		.loc 1 153 0
 108 004c B179     		ldrb	r1, [r6, #6]	@ zero_extendqisi2
 109 004e 2846     		mov	r0, r5
 110 0050 41F0B001 		orr	r1, r1, #176
 111 0054 FFF7FEFF 		bl	u8x8_cad_SendCmd
 112              	.LVL12:
 113              	.L12:
 159:/Users/imashio/Electronics/ARM/_Library/u8x8_d_ssd1306_128x32.c **** 	/*
 114              		.loc 1 159 0
 115 0058 3179     		ldrb	r1, [r6, #4]	@ zero_extendqisi2
 116 005a 3268     		ldr	r2, [r6]
 117 005c C900     		lsls	r1, r1, #3
 118 005e 01F0F801 		and	r1, r1, #248
 119 0062 2846     		mov	r0, r5
 168:/Users/imashio/Electronics/ARM/_Library/u8x8_d_ssd1306_128x32.c ****       } while( arg_int > 0 );
 120              		.loc 1 168 0
 121 0064 013C     		subs	r4, r4, #1
ARM GAS  /var/folders/v3/wysfpd052nz8jkbx04pk0ym80000gn/T//ccTER67s.s 			page 7


 122              	.LVL13:
 159:/Users/imashio/Electronics/ARM/_Library/u8x8_d_ssd1306_128x32.c **** 	/*
 123              		.loc 1 159 0
 124 0066 FFF7FEFF 		bl	u8x8_cad_SendData
 125              	.LVL14:
 169:/Users/imashio/Electronics/ARM/_Library/u8x8_d_ssd1306_128x32.c ****       
 126              		.loc 1 169 0
 127 006a 14F0FF04 		ands	r4, r4, #255
 128              	.LVL15:
 129 006e F3D1     		bne	.L12
 171:/Users/imashio/Electronics/ARM/_Library/u8x8_d_ssd1306_128x32.c ****       break;
 130              		.loc 1 171 0
 131 0070 2846     		mov	r0, r5
 132 0072 FFF7FEFF 		bl	u8x8_cad_EndTransfer
 133              	.LVL16:
 176:/Users/imashio/Electronics/ARM/_Library/u8x8_d_ssd1306_128x32.c **** }
 134              		.loc 1 176 0
 135 0076 0120     		movs	r0, #1
 136              	.LBE6:
 137              	.LBE14:
 138              		.loc 1 212 0
 139 0078 F8BD     		pop	{r3, r4, r5, r6, r7, pc}
 140              	.LVL17:
 141              	.L4:
 142              	.LBB15:
 143              	.LBB7:
 117:/Users/imashio/Electronics/ARM/_Library/u8x8_d_ssd1306_128x32.c ****       u8x8_cad_SendSequence(u8x8, u8x8_d_ssd1306_128x32_univision_init_seq);    
 144              		.loc 1 117 0
 145 007a FFF7FEFF 		bl	u8x8_d_helper_display_init
 146              	.LVL18:
 118:/Users/imashio/Electronics/ARM/_Library/u8x8_d_ssd1306_128x32.c ****       break;
 147              		.loc 1 118 0
 148 007e 2846     		mov	r0, r5
 149 0080 1949     		ldr	r1, .L18+4
 150 0082 FFF7FEFF 		bl	u8x8_cad_SendSequence
 151              	.LVL19:
 176:/Users/imashio/Electronics/ARM/_Library/u8x8_d_ssd1306_128x32.c **** }
 152              		.loc 1 176 0
 153 0086 0120     		movs	r0, #1
 154              	.LBE7:
 155              	.LBE15:
 156              		.loc 1 212 0
 157 0088 F8BD     		pop	{r3, r4, r5, r6, r7, pc}
 158              	.LVL20:
 159              	.L7:
 160              	.LBB16:
 161              	.LBB8:
 127:/Users/imashio/Electronics/ARM/_Library/u8x8_d_ssd1306_128x32.c ****       {
 162              		.loc 1 127 0
 163 008a 1ABB     		cbnz	r2, .L11
 129:/Users/imashio/Electronics/ARM/_Library/u8x8_d_ssd1306_128x32.c **** 	u8x8->x_offset = u8x8->display_info->default_x_offset;
 164              		.loc 1 129 0
 165 008c 1749     		ldr	r1, .L18+8
 166 008e FFF7FEFF 		bl	u8x8_cad_SendSequence
 167              	.LVL21:
 130:/Users/imashio/Electronics/ARM/_Library/u8x8_d_ssd1306_128x32.c ****       }
 168              		.loc 1 130 0
ARM GAS  /var/folders/v3/wysfpd052nz8jkbx04pk0ym80000gn/T//ccTER67s.s 			page 8


 169 0092 2B68     		ldr	r3, [r5]
 170 0094 9B7C     		ldrb	r3, [r3, #18]	@ zero_extendqisi2
 171 0096 AB77     		strb	r3, [r5, #30]
 176:/Users/imashio/Electronics/ARM/_Library/u8x8_d_ssd1306_128x32.c **** }
 172              		.loc 1 176 0
 173 0098 0120     		movs	r0, #1
 174              	.LBE8:
 175              	.LBE16:
 176              		.loc 1 212 0
 177 009a F8BD     		pop	{r3, r4, r5, r6, r7, pc}
 178              	.LVL22:
 179              	.L8:
 180              	.LBB17:
 181              	.LBB9:
 140:/Users/imashio/Electronics/ARM/_Library/u8x8_d_ssd1306_128x32.c ****       u8x8_cad_SendCmd(u8x8, 0x081 );
 182              		.loc 1 140 0
 183 009c FFF7FEFF 		bl	u8x8_cad_StartTransfer
 184              	.LVL23:
 141:/Users/imashio/Electronics/ARM/_Library/u8x8_d_ssd1306_128x32.c ****       u8x8_cad_SendArg(u8x8, arg_int );	/* ssd1306 has range from 0 to 255 */
 185              		.loc 1 141 0
 186 00a0 8121     		movs	r1, #129
 187 00a2 2846     		mov	r0, r5
 188 00a4 FFF7FEFF 		bl	u8x8_cad_SendCmd
 189              	.LVL24:
 142:/Users/imashio/Electronics/ARM/_Library/u8x8_d_ssd1306_128x32.c ****       u8x8_cad_EndTransfer(u8x8);
 190              		.loc 1 142 0
 191 00a8 2146     		mov	r1, r4
 192 00aa 2846     		mov	r0, r5
 193 00ac FFF7FEFF 		bl	u8x8_cad_SendArg
 194              	.LVL25:
 143:/Users/imashio/Electronics/ARM/_Library/u8x8_d_ssd1306_128x32.c ****       break;
 195              		.loc 1 143 0
 196 00b0 2846     		mov	r0, r5
 197 00b2 FFF7FEFF 		bl	u8x8_cad_EndTransfer
 198              	.LVL26:
 176:/Users/imashio/Electronics/ARM/_Library/u8x8_d_ssd1306_128x32.c **** }
 199              		.loc 1 176 0
 200 00b6 0120     		movs	r0, #1
 201              	.LBE9:
 202              	.LBE17:
 203              		.loc 1 212 0
 204 00b8 F8BD     		pop	{r3, r4, r5, r6, r7, pc}
 205              	.LVL27:
 206              	.L6:
 207              	.LBB18:
 208              	.LBB10:
 121:/Users/imashio/Electronics/ARM/_Library/u8x8_d_ssd1306_128x32.c **** 	u8x8_cad_SendSequence(u8x8, u8x8_d_ssd1306_128x32_univision_powersave0_seq);
 209              		.loc 1 121 0
 210 00ba 32B9     		cbnz	r2, .L10
 122:/Users/imashio/Electronics/ARM/_Library/u8x8_d_ssd1306_128x32.c ****       else
 211              		.loc 1 122 0
 212 00bc 0C49     		ldr	r1, .L18+12
 213 00be FFF7FEFF 		bl	u8x8_cad_SendSequence
 214              	.LVL28:
 176:/Users/imashio/Electronics/ARM/_Library/u8x8_d_ssd1306_128x32.c **** }
 215              		.loc 1 176 0
 216 00c2 0120     		movs	r0, #1
ARM GAS  /var/folders/v3/wysfpd052nz8jkbx04pk0ym80000gn/T//ccTER67s.s 			page 9


 217              	.LBE10:
 218              	.LBE18:
 219              		.loc 1 212 0
 220 00c4 F8BD     		pop	{r3, r4, r5, r6, r7, pc}
 221              	.LVL29:
 222              	.L13:
 223              	.LBB19:
 224              	.LBB11:
 174:/Users/imashio/Electronics/ARM/_Library/u8x8_d_ssd1306_128x32.c ****   }
 225              		.loc 1 174 0
 226 00c6 0020     		movs	r0, #0
 227              	.LVL30:
 228              	.LBE11:
 229              	.LBE19:
 230              		.loc 1 212 0
 231 00c8 F8BD     		pop	{r3, r4, r5, r6, r7, pc}
 232              	.LVL31:
 233              	.L10:
 234              	.LBB20:
 235              	.LBB12:
 124:/Users/imashio/Electronics/ARM/_Library/u8x8_d_ssd1306_128x32.c ****       break;
 236              		.loc 1 124 0
 237 00ca 0A49     		ldr	r1, .L18+16
 238 00cc FFF7FEFF 		bl	u8x8_cad_SendSequence
 239              	.LVL32:
 176:/Users/imashio/Electronics/ARM/_Library/u8x8_d_ssd1306_128x32.c **** }
 240              		.loc 1 176 0
 241 00d0 0120     		movs	r0, #1
 242              	.LBE12:
 243              	.LBE20:
 244              		.loc 1 212 0
 245 00d2 F8BD     		pop	{r3, r4, r5, r6, r7, pc}
 246              	.LVL33:
 247              	.L11:
 248              	.LBB21:
 249              	.LBB13:
 134:/Users/imashio/Electronics/ARM/_Library/u8x8_d_ssd1306_128x32.c **** 	u8x8->x_offset = u8x8->display_info->flipmode_x_offset;
 250              		.loc 1 134 0
 251 00d4 0849     		ldr	r1, .L18+20
 252 00d6 FFF7FEFF 		bl	u8x8_cad_SendSequence
 253              	.LVL34:
 135:/Users/imashio/Electronics/ARM/_Library/u8x8_d_ssd1306_128x32.c ****       }
 254              		.loc 1 135 0
 255 00da 2B68     		ldr	r3, [r5]
 256 00dc DB7C     		ldrb	r3, [r3, #19]	@ zero_extendqisi2
 257 00de AB77     		strb	r3, [r5, #30]
 176:/Users/imashio/Electronics/ARM/_Library/u8x8_d_ssd1306_128x32.c **** }
 258              		.loc 1 176 0
 259 00e0 0120     		movs	r0, #1
 260              	.LBE13:
 261              	.LBE21:
 262              		.loc 1 212 0
 263 00e2 F8BD     		pop	{r3, r4, r5, r6, r7, pc}
 264              	.LVL35:
 265              	.L19:
 266              		.align	2
 267              	.L18:
ARM GAS  /var/folders/v3/wysfpd052nz8jkbx04pk0ym80000gn/T//ccTER67s.s 			page 10


 268 00e4 00000000 		.word	.LANCHOR0
 269 00e8 00000000 		.word	.LANCHOR1
 270 00ec 00000000 		.word	.LANCHOR4
 271 00f0 00000000 		.word	.LANCHOR2
 272 00f4 00000000 		.word	.LANCHOR3
 273 00f8 00000000 		.word	.LANCHOR5
 274              		.cfi_endproc
 275              	.LFE1:
 277              		.section	.rodata.u8x8_d_ssd1306_128x32_univision_flip0_seq,"a",%progbits
 278              		.align	2
 279              		.set	.LANCHOR4,. + 0
 282              	u8x8_d_ssd1306_128x32_univision_flip0_seq:
 283 0000 18       		.byte	24
 284 0001 15       		.byte	21
 285 0002 A1       		.byte	-95
 286 0003 15       		.byte	21
 287 0004 C8       		.byte	-56
 288 0005 19       		.byte	25
 289 0006 FF       		.byte	-1
 290              		.section	.rodata.u8x8_d_ssd1306_128x32_univision_flip1_seq,"a",%progbits
 291              		.align	2
 292              		.set	.LANCHOR5,. + 0
 295              	u8x8_d_ssd1306_128x32_univision_flip1_seq:
 296 0000 18       		.byte	24
 297 0001 15       		.byte	21
 298 0002 A0       		.byte	-96
 299 0003 15       		.byte	21
 300 0004 C0       		.byte	-64
 301 0005 19       		.byte	25
 302 0006 FF       		.byte	-1
 303              		.section	.rodata.u8x8_d_ssd1306_128x32_univision_init_seq,"a",%progbits
 304              		.align	2
 305              		.set	.LANCHOR1,. + 0
 308              	u8x8_d_ssd1306_128x32_univision_init_seq:
 309 0000 18       		.byte	24
 310 0001 15       		.byte	21
 311 0002 AE       		.byte	-82
 312 0003 15       		.byte	21
 313 0004 D5       		.byte	-43
 314 0005 16       		.byte	22
 315 0006 80       		.byte	-128
 316 0007 15       		.byte	21
 317 0008 A8       		.byte	-88
 318 0009 16       		.byte	22
 319 000a 1F       		.byte	31
 320 000b 15       		.byte	21
 321 000c D3       		.byte	-45
 322 000d 16       		.byte	22
 323 000e 00       		.byte	0
 324 000f 15       		.byte	21
 325 0010 40       		.byte	64
 326 0011 15       		.byte	21
 327 0012 8D       		.byte	-115
 328 0013 16       		.byte	22
 329 0014 14       		.byte	20
 330 0015 15       		.byte	21
 331 0016 20       		.byte	32
ARM GAS  /var/folders/v3/wysfpd052nz8jkbx04pk0ym80000gn/T//ccTER67s.s 			page 11


 332 0017 16       		.byte	22
 333 0018 00       		.byte	0
 334 0019 15       		.byte	21
 335 001a A1       		.byte	-95
 336 001b 15       		.byte	21
 337 001c C8       		.byte	-56
 338 001d 15       		.byte	21
 339 001e DA       		.byte	-38
 340 001f 16       		.byte	22
 341 0020 02       		.byte	2
 342 0021 15       		.byte	21
 343 0022 81       		.byte	-127
 344 0023 16       		.byte	22
 345 0024 8F       		.byte	-113
 346 0025 15       		.byte	21
 347 0026 D9       		.byte	-39
 348 0027 16       		.byte	22
 349 0028 F1       		.byte	-15
 350 0029 15       		.byte	21
 351 002a DB       		.byte	-37
 352 002b 16       		.byte	22
 353 002c 40       		.byte	64
 354 002d 15       		.byte	21
 355 002e 2E       		.byte	46
 356 002f 15       		.byte	21
 357 0030 A4       		.byte	-92
 358 0031 15       		.byte	21
 359 0032 A6       		.byte	-90
 360 0033 19       		.byte	25
 361 0034 FF       		.byte	-1
 362              		.section	.rodata.u8x8_d_ssd1306_128x32_univision_powersave0_seq,"a",%progbits
 363              		.align	2
 364              		.set	.LANCHOR2,. + 0
 367              	u8x8_d_ssd1306_128x32_univision_powersave0_seq:
 368 0000 18       		.byte	24
 369 0001 15       		.byte	21
 370 0002 AF       		.byte	-81
 371 0003 19       		.byte	25
 372 0004 FF       		.byte	-1
 373              		.section	.rodata.u8x8_d_ssd1306_128x32_univision_powersave1_seq,"a",%progbits
 374              		.align	2
 375              		.set	.LANCHOR3,. + 0
 378              	u8x8_d_ssd1306_128x32_univision_powersave1_seq:
 379 0000 18       		.byte	24
 380 0001 15       		.byte	21
 381 0002 AE       		.byte	-82
 382 0003 19       		.byte	25
 383 0004 FF       		.byte	-1
 384              		.section	.rodata.u8x8_ssd1306_128x32_univision_display_info,"a",%progbits
 385              		.align	2
 386              		.set	.LANCHOR0,. + 0
 389              	u8x8_ssd1306_128x32_univision_display_info:
 390 0000 00       		.byte	0
 391 0001 01       		.byte	1
 392 0002 14       		.byte	20
 393 0003 0A       		.byte	10
 394 0004 64       		.byte	100
ARM GAS  /var/folders/v3/wysfpd052nz8jkbx04pk0ym80000gn/T//ccTER67s.s 			page 12


 395 0005 64       		.byte	100
 396 0006 32       		.byte	50
 397 0007 32       		.byte	50
 398 0008 00127A00 		.word	8000000
 399 000c 00       		.byte	0
 400 000d 04       		.byte	4
 401 000e 28       		.byte	40
 402 000f 96       		.byte	-106
 403 0010 10       		.byte	16
 404 0011 04       		.byte	4
 405 0012 00       		.byte	0
 406 0013 00       		.byte	0
 407 0014 8000     		.short	128
 408 0016 2000     		.short	32
 409              		.text
 410              	.Letext0:
 411              		.file 2 "/usr/local/gcc-arm-none-eabi-7-2018-q2-update/arm-none-eabi/include/machine/_default_type
 412              		.file 3 "/usr/local/gcc-arm-none-eabi-7-2018-q2-update/arm-none-eabi/include/sys/_stdint.h"
 413              		.file 4 "/Users/imashio/Electronics/ARM/_Library/u8x8.h"
ARM GAS  /var/folders/v3/wysfpd052nz8jkbx04pk0ym80000gn/T//ccTER67s.s 			page 13

