ARM GAS  /var/folders/v3/wysfpd052nz8jkbx04pk0ym80000gn/T//ccsNjXrp.s 			page 1


   1              		.cpu cortex-m4
   2              		.eabi_attribute 27, 1
   3              		.eabi_attribute 28, 1
   4              		.eabi_attribute 20, 1
   5              		.eabi_attribute 21, 1
   6              		.eabi_attribute 23, 3
   7              		.eabi_attribute 24, 1
   8              		.eabi_attribute 25, 1
   9              		.eabi_attribute 26, 1
  10              		.eabi_attribute 30, 2
  11              		.eabi_attribute 34, 1
  12              		.eabi_attribute 18, 4
  13              		.file	"u8x8_d_ssd1309.c"
  14              		.text
  15              	.Ltext0:
  16              		.cfi_sections	.debug_frame
  17              		.section	.text.u8x8_d_ssd1309_generic,"ax",%progbits
  18              		.align	1
  19              		.p2align 2,,3
  20              		.syntax unified
  21              		.thumb
  22              		.thumb_func
  23              		.fpu fpv4-sp-d16
  25              	u8x8_d_ssd1309_generic:
  26              	.LFB0:
  27              		.file 1 "/Users/imashio/Electronics/ARM/_Library/u8x8_d_ssd1309.c"
   1:/Users/imashio/Electronics/ARM/_Library/u8x8_d_ssd1309.c **** /*
   2:/Users/imashio/Electronics/ARM/_Library/u8x8_d_ssd1309.c **** 
   3:/Users/imashio/Electronics/ARM/_Library/u8x8_d_ssd1309.c ****   u8x8_d_ssd1309.c
   4:/Users/imashio/Electronics/ARM/_Library/u8x8_d_ssd1309.c **** 
   5:/Users/imashio/Electronics/ARM/_Library/u8x8_d_ssd1309.c ****   Universal 8bit Graphics Library (https://github.com/olikraus/u8g2/)
   6:/Users/imashio/Electronics/ARM/_Library/u8x8_d_ssd1309.c **** 
   7:/Users/imashio/Electronics/ARM/_Library/u8x8_d_ssd1309.c ****   Copyright (c) 2017, olikraus@gmail.com
   8:/Users/imashio/Electronics/ARM/_Library/u8x8_d_ssd1309.c ****   All rights reserved.
   9:/Users/imashio/Electronics/ARM/_Library/u8x8_d_ssd1309.c **** 
  10:/Users/imashio/Electronics/ARM/_Library/u8x8_d_ssd1309.c ****   Redistribution and use in source and binary forms, with or without modification, 
  11:/Users/imashio/Electronics/ARM/_Library/u8x8_d_ssd1309.c ****   are permitted provided that the following conditions are met:
  12:/Users/imashio/Electronics/ARM/_Library/u8x8_d_ssd1309.c **** 
  13:/Users/imashio/Electronics/ARM/_Library/u8x8_d_ssd1309.c ****   * Redistributions of source code must retain the above copyright notice, this list 
  14:/Users/imashio/Electronics/ARM/_Library/u8x8_d_ssd1309.c ****     of conditions and the following disclaimer.
  15:/Users/imashio/Electronics/ARM/_Library/u8x8_d_ssd1309.c ****     
  16:/Users/imashio/Electronics/ARM/_Library/u8x8_d_ssd1309.c ****   * Redistributions in binary form must reproduce the above copyright notice, this 
  17:/Users/imashio/Electronics/ARM/_Library/u8x8_d_ssd1309.c ****     list of conditions and the following disclaimer in the documentation and/or other 
  18:/Users/imashio/Electronics/ARM/_Library/u8x8_d_ssd1309.c ****     materials provided with the distribution.
  19:/Users/imashio/Electronics/ARM/_Library/u8x8_d_ssd1309.c **** 
  20:/Users/imashio/Electronics/ARM/_Library/u8x8_d_ssd1309.c ****   THIS SOFTWARE IS PROVIDED BY THE COPYRIGHT HOLDERS AND 
  21:/Users/imashio/Electronics/ARM/_Library/u8x8_d_ssd1309.c ****   CONTRIBUTORS "AS IS" AND ANY EXPRESS OR IMPLIED WARRANTIES, 
  22:/Users/imashio/Electronics/ARM/_Library/u8x8_d_ssd1309.c ****   INCLUDING, BUT NOT LIMITED TO, THE IMPLIED WARRANTIES OF 
  23:/Users/imashio/Electronics/ARM/_Library/u8x8_d_ssd1309.c ****   MERCHANTABILITY AND FITNESS FOR A PARTICULAR PURPOSE ARE 
  24:/Users/imashio/Electronics/ARM/_Library/u8x8_d_ssd1309.c ****   DISCLAIMED. IN NO EVENT SHALL THE COPYRIGHT HOLDER OR 
  25:/Users/imashio/Electronics/ARM/_Library/u8x8_d_ssd1309.c ****   CONTRIBUTORS BE LIABLE FOR ANY DIRECT, INDIRECT, INCIDENTAL, 
  26:/Users/imashio/Electronics/ARM/_Library/u8x8_d_ssd1309.c ****   SPECIAL, EXEMPLARY, OR CONSEQUENTIAL DAMAGES (INCLUDING, BUT 
  27:/Users/imashio/Electronics/ARM/_Library/u8x8_d_ssd1309.c ****   NOT LIMITED TO, PROCUREMENT OF SUBSTITUTE GOODS OR SERVICES; 
  28:/Users/imashio/Electronics/ARM/_Library/u8x8_d_ssd1309.c ****   LOSS OF USE, DATA, OR PROFITS; OR BUSINESS INTERRUPTION) HOWEVER 
  29:/Users/imashio/Electronics/ARM/_Library/u8x8_d_ssd1309.c ****   CAUSED AND ON ANY THEORY OF LIABILITY, WHETHER IN CONTRACT, 
  30:/Users/imashio/Electronics/ARM/_Library/u8x8_d_ssd1309.c ****   STRICT LIABILITY, OR TORT (INCLUDING NEGLIGENCE OR OTHERWISE) 
  31:/Users/imashio/Electronics/ARM/_Library/u8x8_d_ssd1309.c ****   ARISING IN ANY WAY OUT OF THE USE OF THIS SOFTWARE, EVEN IF 
ARM GAS  /var/folders/v3/wysfpd052nz8jkbx04pk0ym80000gn/T//ccsNjXrp.s 			page 2


  32:/Users/imashio/Electronics/ARM/_Library/u8x8_d_ssd1309.c ****   ADVISED OF THE POSSIBILITY OF SUCH DAMAGE.  
  33:/Users/imashio/Electronics/ARM/_Library/u8x8_d_ssd1309.c ****   
  34:/Users/imashio/Electronics/ARM/_Library/u8x8_d_ssd1309.c **** */
  35:/Users/imashio/Electronics/ARM/_Library/u8x8_d_ssd1309.c **** 
  36:/Users/imashio/Electronics/ARM/_Library/u8x8_d_ssd1309.c **** 
  37:/Users/imashio/Electronics/ARM/_Library/u8x8_d_ssd1309.c **** #include "u8x8.h"
  38:/Users/imashio/Electronics/ARM/_Library/u8x8_d_ssd1309.c **** 
  39:/Users/imashio/Electronics/ARM/_Library/u8x8_d_ssd1309.c **** 
  40:/Users/imashio/Electronics/ARM/_Library/u8x8_d_ssd1309.c **** 
  41:/Users/imashio/Electronics/ARM/_Library/u8x8_d_ssd1309.c **** 
  42:/Users/imashio/Electronics/ARM/_Library/u8x8_d_ssd1309.c **** static const uint8_t u8x8_d_ssd1309_powersave0_seq[] = {
  43:/Users/imashio/Electronics/ARM/_Library/u8x8_d_ssd1309.c ****   U8X8_START_TRANSFER(),             	/* enable chip, delay is part of the transfer start */
  44:/Users/imashio/Electronics/ARM/_Library/u8x8_d_ssd1309.c ****   U8X8_C(0x0af),		                /* display on */
  45:/Users/imashio/Electronics/ARM/_Library/u8x8_d_ssd1309.c ****   U8X8_END_TRANSFER(),             	/* disable chip */
  46:/Users/imashio/Electronics/ARM/_Library/u8x8_d_ssd1309.c ****   U8X8_END()             			/* end of sequence */
  47:/Users/imashio/Electronics/ARM/_Library/u8x8_d_ssd1309.c **** };
  48:/Users/imashio/Electronics/ARM/_Library/u8x8_d_ssd1309.c **** 
  49:/Users/imashio/Electronics/ARM/_Library/u8x8_d_ssd1309.c **** static const uint8_t u8x8_d_ssd1309_powersave1_seq[] = {
  50:/Users/imashio/Electronics/ARM/_Library/u8x8_d_ssd1309.c ****   U8X8_START_TRANSFER(),             	/* enable chip, delay is part of the transfer start */
  51:/Users/imashio/Electronics/ARM/_Library/u8x8_d_ssd1309.c ****   U8X8_C(0x0ae),		                /* display off */
  52:/Users/imashio/Electronics/ARM/_Library/u8x8_d_ssd1309.c ****   U8X8_END_TRANSFER(),             	/* disable chip */
  53:/Users/imashio/Electronics/ARM/_Library/u8x8_d_ssd1309.c ****   U8X8_END()             			/* end of sequence */
  54:/Users/imashio/Electronics/ARM/_Library/u8x8_d_ssd1309.c **** };
  55:/Users/imashio/Electronics/ARM/_Library/u8x8_d_ssd1309.c **** 
  56:/Users/imashio/Electronics/ARM/_Library/u8x8_d_ssd1309.c **** static const uint8_t u8x8_d_ssd1309_128x64_flip0_seq[] = {
  57:/Users/imashio/Electronics/ARM/_Library/u8x8_d_ssd1309.c ****   U8X8_START_TRANSFER(),             	/* enable chip, delay is part of the transfer start */
  58:/Users/imashio/Electronics/ARM/_Library/u8x8_d_ssd1309.c ****   U8X8_C(0x0a1),				/* segment remap a0/a1*/
  59:/Users/imashio/Electronics/ARM/_Library/u8x8_d_ssd1309.c ****   U8X8_C(0x0c8),				/* c0: scan dir normal, c8: reverse */
  60:/Users/imashio/Electronics/ARM/_Library/u8x8_d_ssd1309.c ****   U8X8_END_TRANSFER(),             	/* disable chip */
  61:/Users/imashio/Electronics/ARM/_Library/u8x8_d_ssd1309.c ****   U8X8_END()             			/* end of sequence */
  62:/Users/imashio/Electronics/ARM/_Library/u8x8_d_ssd1309.c **** };
  63:/Users/imashio/Electronics/ARM/_Library/u8x8_d_ssd1309.c **** 
  64:/Users/imashio/Electronics/ARM/_Library/u8x8_d_ssd1309.c **** static const uint8_t u8x8_d_ssd1309_128x64_flip1_seq[] = {
  65:/Users/imashio/Electronics/ARM/_Library/u8x8_d_ssd1309.c ****   U8X8_START_TRANSFER(),             	/* enable chip, delay is part of the transfer start */
  66:/Users/imashio/Electronics/ARM/_Library/u8x8_d_ssd1309.c ****   U8X8_C(0x0a0),				/* segment remap a0/a1*/
  67:/Users/imashio/Electronics/ARM/_Library/u8x8_d_ssd1309.c ****   U8X8_C(0x0c0),				/* c0: scan dir normal, c8: reverse */
  68:/Users/imashio/Electronics/ARM/_Library/u8x8_d_ssd1309.c ****   U8X8_END_TRANSFER(),             	/* disable chip */
  69:/Users/imashio/Electronics/ARM/_Library/u8x8_d_ssd1309.c ****   U8X8_END()             			/* end of sequence */
  70:/Users/imashio/Electronics/ARM/_Library/u8x8_d_ssd1309.c **** };
  71:/Users/imashio/Electronics/ARM/_Library/u8x8_d_ssd1309.c **** 
  72:/Users/imashio/Electronics/ARM/_Library/u8x8_d_ssd1309.c **** 
  73:/Users/imashio/Electronics/ARM/_Library/u8x8_d_ssd1309.c **** 
  74:/Users/imashio/Electronics/ARM/_Library/u8x8_d_ssd1309.c **** static uint8_t u8x8_d_ssd1309_generic(u8x8_t *u8x8, uint8_t msg, uint8_t arg_int, void *arg_ptr)
  75:/Users/imashio/Electronics/ARM/_Library/u8x8_d_ssd1309.c **** {
  28              		.loc 1 75 0
  29              		.cfi_startproc
  30              		@ args = 0, pretend = 0, frame = 0
  31              		@ frame_needed = 0, uses_anonymous_args = 0
  32              	.LVL0:
  76:/Users/imashio/Electronics/ARM/_Library/u8x8_d_ssd1309.c ****   uint8_t x, c;
  77:/Users/imashio/Electronics/ARM/_Library/u8x8_d_ssd1309.c ****   uint8_t *ptr;
  78:/Users/imashio/Electronics/ARM/_Library/u8x8_d_ssd1309.c ****   switch(msg)
  33              		.loc 1 78 0
  34 0000 0E29     		cmp	r1, #14
  75:/Users/imashio/Electronics/ARM/_Library/u8x8_d_ssd1309.c ****   uint8_t x, c;
  35              		.loc 1 75 0
  36 0002 F8B5     		push	{r3, r4, r5, r6, r7, lr}
ARM GAS  /var/folders/v3/wysfpd052nz8jkbx04pk0ym80000gn/T//ccsNjXrp.s 			page 3


  37              	.LCFI0:
  38              		.cfi_def_cfa_offset 24
  39              		.cfi_offset 3, -24
  40              		.cfi_offset 4, -20
  41              		.cfi_offset 5, -16
  42              		.cfi_offset 6, -12
  43              		.cfi_offset 7, -8
  44              		.cfi_offset 14, -4
  75:/Users/imashio/Electronics/ARM/_Library/u8x8_d_ssd1309.c ****   uint8_t x, c;
  45              		.loc 1 75 0
  46 0004 1446     		mov	r4, r2
  47 0006 0646     		mov	r6, r0
  48              		.loc 1 78 0
  49 0008 37D0     		beq	.L3
  50 000a 0F29     		cmp	r1, #15
  51 000c 0AD0     		beq	.L4
  52 000e 0B29     		cmp	r1, #11
  53 0010 01D0     		beq	.L14
  79:/Users/imashio/Electronics/ARM/_Library/u8x8_d_ssd1309.c ****   {
  80:/Users/imashio/Electronics/ARM/_Library/u8x8_d_ssd1309.c ****     case U8X8_MSG_DISPLAY_DRAW_TILE:
  81:/Users/imashio/Electronics/ARM/_Library/u8x8_d_ssd1309.c ****       u8x8_cad_StartTransfer(u8x8);
  82:/Users/imashio/Electronics/ARM/_Library/u8x8_d_ssd1309.c ****       x = ((u8x8_tile_t *)arg_ptr)->x_pos;    
  83:/Users/imashio/Electronics/ARM/_Library/u8x8_d_ssd1309.c ****       x *= 8;
  84:/Users/imashio/Electronics/ARM/_Library/u8x8_d_ssd1309.c ****       x += u8x8->x_offset;
  85:/Users/imashio/Electronics/ARM/_Library/u8x8_d_ssd1309.c ****     
  86:/Users/imashio/Electronics/ARM/_Library/u8x8_d_ssd1309.c ****       u8x8_cad_SendCmd(u8x8, 0x010 | (x>>4) );
  87:/Users/imashio/Electronics/ARM/_Library/u8x8_d_ssd1309.c ****       u8x8_cad_SendArg(u8x8, 0x000 | ((x&15)));
  88:/Users/imashio/Electronics/ARM/_Library/u8x8_d_ssd1309.c ****       u8x8_cad_SendArg(u8x8, 0x0b0 | (((u8x8_tile_t *)arg_ptr)->y_pos)   );
  89:/Users/imashio/Electronics/ARM/_Library/u8x8_d_ssd1309.c **** 
  90:/Users/imashio/Electronics/ARM/_Library/u8x8_d_ssd1309.c ****     
  91:/Users/imashio/Electronics/ARM/_Library/u8x8_d_ssd1309.c ****       do
  92:/Users/imashio/Electronics/ARM/_Library/u8x8_d_ssd1309.c ****       {
  93:/Users/imashio/Electronics/ARM/_Library/u8x8_d_ssd1309.c **** 	c = ((u8x8_tile_t *)arg_ptr)->cnt;
  94:/Users/imashio/Electronics/ARM/_Library/u8x8_d_ssd1309.c **** 	ptr = ((u8x8_tile_t *)arg_ptr)->tile_ptr;
  95:/Users/imashio/Electronics/ARM/_Library/u8x8_d_ssd1309.c **** 	u8x8_cad_SendData(u8x8, c*8, ptr); 	/* note: SendData can not handle more than 255 bytes */
  96:/Users/imashio/Electronics/ARM/_Library/u8x8_d_ssd1309.c **** 	/*
  97:/Users/imashio/Electronics/ARM/_Library/u8x8_d_ssd1309.c **** 	do
  98:/Users/imashio/Electronics/ARM/_Library/u8x8_d_ssd1309.c **** 	{
  99:/Users/imashio/Electronics/ARM/_Library/u8x8_d_ssd1309.c **** 	  u8x8_cad_SendData(u8x8, 8, ptr);
 100:/Users/imashio/Electronics/ARM/_Library/u8x8_d_ssd1309.c **** 	  ptr += 8;
 101:/Users/imashio/Electronics/ARM/_Library/u8x8_d_ssd1309.c **** 	  c--;
 102:/Users/imashio/Electronics/ARM/_Library/u8x8_d_ssd1309.c **** 	} while( c > 0 );
 103:/Users/imashio/Electronics/ARM/_Library/u8x8_d_ssd1309.c **** 	*/
 104:/Users/imashio/Electronics/ARM/_Library/u8x8_d_ssd1309.c **** 	arg_int--;
 105:/Users/imashio/Electronics/ARM/_Library/u8x8_d_ssd1309.c ****       } while( arg_int > 0 );
 106:/Users/imashio/Electronics/ARM/_Library/u8x8_d_ssd1309.c ****       
 107:/Users/imashio/Electronics/ARM/_Library/u8x8_d_ssd1309.c ****       u8x8_cad_EndTransfer(u8x8);
 108:/Users/imashio/Electronics/ARM/_Library/u8x8_d_ssd1309.c ****       break;
 109:/Users/imashio/Electronics/ARM/_Library/u8x8_d_ssd1309.c ****     case U8X8_MSG_DISPLAY_SET_POWER_SAVE:
 110:/Users/imashio/Electronics/ARM/_Library/u8x8_d_ssd1309.c ****       if ( arg_int == 0 )
 111:/Users/imashio/Electronics/ARM/_Library/u8x8_d_ssd1309.c **** 	u8x8_cad_SendSequence(u8x8, u8x8_d_ssd1309_powersave0_seq);
 112:/Users/imashio/Electronics/ARM/_Library/u8x8_d_ssd1309.c ****       else
 113:/Users/imashio/Electronics/ARM/_Library/u8x8_d_ssd1309.c **** 	u8x8_cad_SendSequence(u8x8, u8x8_d_ssd1309_powersave1_seq);
 114:/Users/imashio/Electronics/ARM/_Library/u8x8_d_ssd1309.c ****       break;
 115:/Users/imashio/Electronics/ARM/_Library/u8x8_d_ssd1309.c **** #ifdef U8X8_WITH_SET_CONTRAST
 116:/Users/imashio/Electronics/ARM/_Library/u8x8_d_ssd1309.c ****     case U8X8_MSG_DISPLAY_SET_CONTRAST:
 117:/Users/imashio/Electronics/ARM/_Library/u8x8_d_ssd1309.c ****       u8x8_cad_StartTransfer(u8x8);
ARM GAS  /var/folders/v3/wysfpd052nz8jkbx04pk0ym80000gn/T//ccsNjXrp.s 			page 4


 118:/Users/imashio/Electronics/ARM/_Library/u8x8_d_ssd1309.c ****       u8x8_cad_SendCmd(u8x8, 0x081 );
 119:/Users/imashio/Electronics/ARM/_Library/u8x8_d_ssd1309.c ****       u8x8_cad_SendArg(u8x8, arg_int );	/* ssd1309 has range from 0 to 255 */
 120:/Users/imashio/Electronics/ARM/_Library/u8x8_d_ssd1309.c ****       u8x8_cad_EndTransfer(u8x8);
 121:/Users/imashio/Electronics/ARM/_Library/u8x8_d_ssd1309.c ****       break;
 122:/Users/imashio/Electronics/ARM/_Library/u8x8_d_ssd1309.c **** #endif
 123:/Users/imashio/Electronics/ARM/_Library/u8x8_d_ssd1309.c ****     default:
 124:/Users/imashio/Electronics/ARM/_Library/u8x8_d_ssd1309.c ****       return 0;
  54              		.loc 1 124 0
  55 0012 0020     		movs	r0, #0
  56              	.LVL1:
 125:/Users/imashio/Electronics/ARM/_Library/u8x8_d_ssd1309.c ****   }
 126:/Users/imashio/Electronics/ARM/_Library/u8x8_d_ssd1309.c ****   return 1;
 127:/Users/imashio/Electronics/ARM/_Library/u8x8_d_ssd1309.c **** }
  57              		.loc 1 127 0
  58 0014 F8BD     		pop	{r3, r4, r5, r6, r7, pc}
  59              	.LVL2:
  60              	.L14:
 110:/Users/imashio/Electronics/ARM/_Library/u8x8_d_ssd1309.c **** 	u8x8_cad_SendSequence(u8x8, u8x8_d_ssd1309_powersave0_seq);
  61              		.loc 1 110 0
  62 0016 002A     		cmp	r2, #0
  63 0018 3ED1     		bne	.L7
 111:/Users/imashio/Electronics/ARM/_Library/u8x8_d_ssd1309.c ****       else
  64              		.loc 1 111 0
  65 001a 2249     		ldr	r1, .L16
  66              	.LVL3:
  67 001c FFF7FEFF 		bl	u8x8_cad_SendSequence
  68              	.LVL4:
 126:/Users/imashio/Electronics/ARM/_Library/u8x8_d_ssd1309.c **** }
  69              		.loc 1 126 0
  70 0020 0120     		movs	r0, #1
  71              		.loc 1 127 0
  72 0022 F8BD     		pop	{r3, r4, r5, r6, r7, pc}
  73              	.LVL5:
  74              	.L4:
  75 0024 1D46     		mov	r5, r3
  76              	.LVL6:
  77              	.LBB4:
  78              	.LBB5:
  81:/Users/imashio/Electronics/ARM/_Library/u8x8_d_ssd1309.c ****       x = ((u8x8_tile_t *)arg_ptr)->x_pos;    
  79              		.loc 1 81 0
  80 0026 FFF7FEFF 		bl	u8x8_cad_StartTransfer
  81              	.LVL7:
  82:/Users/imashio/Electronics/ARM/_Library/u8x8_d_ssd1309.c ****       x *= 8;
  82              		.loc 1 82 0
  83 002a 6B79     		ldrb	r3, [r5, #5]	@ zero_extendqisi2
  84              	.LVL8:
  84:/Users/imashio/Electronics/ARM/_Library/u8x8_d_ssd1309.c ****     
  85              		.loc 1 84 0
  86 002c B77F     		ldrb	r7, [r6, #30]	@ zero_extendqisi2
  87 002e 07EBC307 		add	r7, r7, r3, lsl #3
  88 0032 07F0FF07 		and	r7, r7, #255
  89              	.LVL9:
  86:/Users/imashio/Electronics/ARM/_Library/u8x8_d_ssd1309.c ****       u8x8_cad_SendArg(u8x8, 0x000 | ((x&15)));
  90              		.loc 1 86 0
  91 0036 3909     		lsrs	r1, r7, #4
  92 0038 41F01001 		orr	r1, r1, #16
  93 003c 3046     		mov	r0, r6
ARM GAS  /var/folders/v3/wysfpd052nz8jkbx04pk0ym80000gn/T//ccsNjXrp.s 			page 5


  94 003e FFF7FEFF 		bl	u8x8_cad_SendCmd
  95              	.LVL10:
  87:/Users/imashio/Electronics/ARM/_Library/u8x8_d_ssd1309.c ****       u8x8_cad_SendArg(u8x8, 0x0b0 | (((u8x8_tile_t *)arg_ptr)->y_pos)   );
  96              		.loc 1 87 0
  97 0042 07F00F01 		and	r1, r7, #15
  98 0046 3046     		mov	r0, r6
  99 0048 FFF7FEFF 		bl	u8x8_cad_SendArg
 100              	.LVL11:
  88:/Users/imashio/Electronics/ARM/_Library/u8x8_d_ssd1309.c **** 
 101              		.loc 1 88 0
 102 004c A979     		ldrb	r1, [r5, #6]	@ zero_extendqisi2
 103 004e 3046     		mov	r0, r6
 104 0050 41F0B001 		orr	r1, r1, #176
 105 0054 FFF7FEFF 		bl	u8x8_cad_SendArg
 106              	.LVL12:
 107              	.L6:
  95:/Users/imashio/Electronics/ARM/_Library/u8x8_d_ssd1309.c **** 	/*
 108              		.loc 1 95 0
 109 0058 2979     		ldrb	r1, [r5, #4]	@ zero_extendqisi2
 110 005a 2A68     		ldr	r2, [r5]
 111 005c C900     		lsls	r1, r1, #3
 112 005e 01F0F801 		and	r1, r1, #248
 113 0062 3046     		mov	r0, r6
 114 0064 FFF7FEFF 		bl	u8x8_cad_SendData
 115              	.LVL13:
 104:/Users/imashio/Electronics/ARM/_Library/u8x8_d_ssd1309.c ****       } while( arg_int > 0 );
 116              		.loc 1 104 0
 117 0068 621E     		subs	r2, r4, #1
 118              	.LVL14:
 105:/Users/imashio/Electronics/ARM/_Library/u8x8_d_ssd1309.c ****       
 119              		.loc 1 105 0
 120 006a 12F0FF04 		ands	r4, r2, #255
 121 006e F3D1     		bne	.L6
 122              	.LBE5:
 123              	.LBE4:
 120:/Users/imashio/Electronics/ARM/_Library/u8x8_d_ssd1309.c ****       break;
 124              		.loc 1 120 0
 125 0070 3046     		mov	r0, r6
 126 0072 FFF7FEFF 		bl	u8x8_cad_EndTransfer
 127              	.LVL15:
 126:/Users/imashio/Electronics/ARM/_Library/u8x8_d_ssd1309.c **** }
 128              		.loc 1 126 0
 129 0076 0120     		movs	r0, #1
 130              	.LVL16:
 131              	.L15:
 132              		.loc 1 127 0
 133 0078 F8BD     		pop	{r3, r4, r5, r6, r7, pc}
 134              	.LVL17:
 135              	.L3:
 117:/Users/imashio/Electronics/ARM/_Library/u8x8_d_ssd1309.c ****       u8x8_cad_SendCmd(u8x8, 0x081 );
 136              		.loc 1 117 0
 137 007a FFF7FEFF 		bl	u8x8_cad_StartTransfer
 138              	.LVL18:
 118:/Users/imashio/Electronics/ARM/_Library/u8x8_d_ssd1309.c ****       u8x8_cad_SendArg(u8x8, arg_int );	/* ssd1309 has range from 0 to 255 */
 139              		.loc 1 118 0
 140 007e 8121     		movs	r1, #129
 141 0080 3046     		mov	r0, r6
ARM GAS  /var/folders/v3/wysfpd052nz8jkbx04pk0ym80000gn/T//ccsNjXrp.s 			page 6


 142 0082 FFF7FEFF 		bl	u8x8_cad_SendCmd
 143              	.LVL19:
 119:/Users/imashio/Electronics/ARM/_Library/u8x8_d_ssd1309.c ****       u8x8_cad_EndTransfer(u8x8);
 144              		.loc 1 119 0
 145 0086 2146     		mov	r1, r4
 146 0088 3046     		mov	r0, r6
 147 008a FFF7FEFF 		bl	u8x8_cad_SendArg
 148              	.LVL20:
 120:/Users/imashio/Electronics/ARM/_Library/u8x8_d_ssd1309.c ****       break;
 149              		.loc 1 120 0
 150 008e 3046     		mov	r0, r6
 151 0090 FFF7FEFF 		bl	u8x8_cad_EndTransfer
 152              	.LVL21:
 126:/Users/imashio/Electronics/ARM/_Library/u8x8_d_ssd1309.c **** }
 153              		.loc 1 126 0
 154 0094 0120     		movs	r0, #1
 155 0096 EFE7     		b	.L15
 156              	.LVL22:
 157              	.L7:
 113:/Users/imashio/Electronics/ARM/_Library/u8x8_d_ssd1309.c ****       break;
 158              		.loc 1 113 0
 159 0098 0349     		ldr	r1, .L16+4
 160              	.LVL23:
 161 009a FFF7FEFF 		bl	u8x8_cad_SendSequence
 162              	.LVL24:
 126:/Users/imashio/Electronics/ARM/_Library/u8x8_d_ssd1309.c **** }
 163              		.loc 1 126 0
 164 009e 0120     		movs	r0, #1
 165              		.loc 1 127 0
 166 00a0 F8BD     		pop	{r3, r4, r5, r6, r7, pc}
 167              	.LVL25:
 168              	.L17:
 169 00a2 00BF     		.align	2
 170              	.L16:
 171 00a4 00000000 		.word	.LANCHOR0
 172 00a8 00000000 		.word	.LANCHOR1
 173              		.cfi_endproc
 174              	.LFE0:
 176              		.section	.text.u8x8_d_ssd1309_128x64_noname2,"ax",%progbits
 177              		.align	1
 178              		.p2align 2,,3
 179              		.global	u8x8_d_ssd1309_128x64_noname2
 180              		.syntax unified
 181              		.thumb
 182              		.thumb_func
 183              		.fpu fpv4-sp-d16
 185              	u8x8_d_ssd1309_128x64_noname2:
 186              	.LFB1:
 128:/Users/imashio/Electronics/ARM/_Library/u8x8_d_ssd1309.c **** 
 129:/Users/imashio/Electronics/ARM/_Library/u8x8_d_ssd1309.c **** /*=================================================*/
 130:/Users/imashio/Electronics/ARM/_Library/u8x8_d_ssd1309.c **** /* offset 2 version */
 131:/Users/imashio/Electronics/ARM/_Library/u8x8_d_ssd1309.c **** 
 132:/Users/imashio/Electronics/ARM/_Library/u8x8_d_ssd1309.c **** /* timing from SSD1306 */
 133:/Users/imashio/Electronics/ARM/_Library/u8x8_d_ssd1309.c **** static const u8x8_display_info_t u8x8_ssd1309_128x64_noname2_display_info =
 134:/Users/imashio/Electronics/ARM/_Library/u8x8_d_ssd1309.c **** {
 135:/Users/imashio/Electronics/ARM/_Library/u8x8_d_ssd1309.c ****   /* chip_enable_level = */ 0,
 136:/Users/imashio/Electronics/ARM/_Library/u8x8_d_ssd1309.c ****   /* chip_disable_level = */ 1,
ARM GAS  /var/folders/v3/wysfpd052nz8jkbx04pk0ym80000gn/T//ccsNjXrp.s 			page 7


 137:/Users/imashio/Electronics/ARM/_Library/u8x8_d_ssd1309.c ****   
 138:/Users/imashio/Electronics/ARM/_Library/u8x8_d_ssd1309.c ****   /* post_chip_enable_wait_ns = */ 20,
 139:/Users/imashio/Electronics/ARM/_Library/u8x8_d_ssd1309.c ****   /* pre_chip_disable_wait_ns = */ 10,
 140:/Users/imashio/Electronics/ARM/_Library/u8x8_d_ssd1309.c ****   /* reset_pulse_width_ms = */ 100, 	/* SSD1306: 3 us */
 141:/Users/imashio/Electronics/ARM/_Library/u8x8_d_ssd1309.c ****   /* post_reset_wait_ms = */ 100, /* far east OLEDs need much longer setup time */
 142:/Users/imashio/Electronics/ARM/_Library/u8x8_d_ssd1309.c ****   /* sda_setup_time_ns = */ 50,		/* SSD1306: 15ns, but cycle time is 100ns, so use 100/2 */
 143:/Users/imashio/Electronics/ARM/_Library/u8x8_d_ssd1309.c ****   /* sck_pulse_width_ns = */ 50,	/* SSD1306: 20ns, but cycle time is 100ns, so use 100/2, AVR: belo
 144:/Users/imashio/Electronics/ARM/_Library/u8x8_d_ssd1309.c ****   /* sck_clock_hz = */ 4000000UL,	/* since Arduino 1.6.0, the SPI bus speed in Hz. Should be  10000
 145:/Users/imashio/Electronics/ARM/_Library/u8x8_d_ssd1309.c ****   /* spi_mode = */ 0,		/* active high, rising edge */
 146:/Users/imashio/Electronics/ARM/_Library/u8x8_d_ssd1309.c ****   /* i2c_bus_clock_100kHz = */ 4,
 147:/Users/imashio/Electronics/ARM/_Library/u8x8_d_ssd1309.c ****   /* data_setup_time_ns = */ 40,
 148:/Users/imashio/Electronics/ARM/_Library/u8x8_d_ssd1309.c ****   /* write_pulse_width_ns = */ 150,	/* SSD1306: cycle time is 300ns, so use 300/2 = 150 */
 149:/Users/imashio/Electronics/ARM/_Library/u8x8_d_ssd1309.c ****   /* tile_width = */ 16,
 150:/Users/imashio/Electronics/ARM/_Library/u8x8_d_ssd1309.c ****   /* tile_hight = */ 8,
 151:/Users/imashio/Electronics/ARM/_Library/u8x8_d_ssd1309.c **** //  /* default_x_offset = */ 2,
 152:/Users/imashio/Electronics/ARM/_Library/u8x8_d_ssd1309.c ****   /* default_x_offset = */ 0,
 153:/Users/imashio/Electronics/ARM/_Library/u8x8_d_ssd1309.c ****   /* flipmode_x_offset = */ 2,
 154:/Users/imashio/Electronics/ARM/_Library/u8x8_d_ssd1309.c ****   /* pixel_width = */ 128,
 155:/Users/imashio/Electronics/ARM/_Library/u8x8_d_ssd1309.c ****   /* pixel_height = */ 64
 156:/Users/imashio/Electronics/ARM/_Library/u8x8_d_ssd1309.c **** };
 157:/Users/imashio/Electronics/ARM/_Library/u8x8_d_ssd1309.c **** 
 158:/Users/imashio/Electronics/ARM/_Library/u8x8_d_ssd1309.c **** 
 159:/Users/imashio/Electronics/ARM/_Library/u8x8_d_ssd1309.c **** static const uint8_t u8x8_d_ssd1309_128x64_noname_init_seq[] = {
 160:/Users/imashio/Electronics/ARM/_Library/u8x8_d_ssd1309.c ****     
 161:/Users/imashio/Electronics/ARM/_Library/u8x8_d_ssd1309.c ****   U8X8_START_TRANSFER(),             	/* enable chip, delay is part of the transfer start */
 162:/Users/imashio/Electronics/ARM/_Library/u8x8_d_ssd1309.c ****   
 163:/Users/imashio/Electronics/ARM/_Library/u8x8_d_ssd1309.c ****   
 164:/Users/imashio/Electronics/ARM/_Library/u8x8_d_ssd1309.c ****   U8X8_C(0x0ae),		                /* display off */
 165:/Users/imashio/Electronics/ARM/_Library/u8x8_d_ssd1309.c ****   U8X8_CA(0x0d5, 0x0a0),		/* clock divide ratio (0x00=1) and oscillator frequency (0x8) */
 166:/Users/imashio/Electronics/ARM/_Library/u8x8_d_ssd1309.c ****   //U8X8_CA(0x0a8, 0x03f),		/* multiplex ratio */
 167:/Users/imashio/Electronics/ARM/_Library/u8x8_d_ssd1309.c ****   U8X8_C(0x040),		        	/* set display start line to 0 */
 168:/Users/imashio/Electronics/ARM/_Library/u8x8_d_ssd1309.c ****   U8X8_CA(0x020, 0x002),		/* page addressing mode */
 169:/Users/imashio/Electronics/ARM/_Library/u8x8_d_ssd1309.c ****   
 170:/Users/imashio/Electronics/ARM/_Library/u8x8_d_ssd1309.c ****   U8X8_C(0x0a1),				/* segment remap a0/a1*/
 171:/Users/imashio/Electronics/ARM/_Library/u8x8_d_ssd1309.c ****   U8X8_C(0x0c8),				/* c0: scan dir normal, c8: reverse */
 172:/Users/imashio/Electronics/ARM/_Library/u8x8_d_ssd1309.c ****   // Flipmode
 173:/Users/imashio/Electronics/ARM/_Library/u8x8_d_ssd1309.c ****   // U8X8_C(0x0a0),				/* segment remap a0/a1*/
 174:/Users/imashio/Electronics/ARM/_Library/u8x8_d_ssd1309.c ****   // U8X8_C(0x0c0),				/* c0: scan dir normal, c8: reverse */
 175:/Users/imashio/Electronics/ARM/_Library/u8x8_d_ssd1309.c ****   
 176:/Users/imashio/Electronics/ARM/_Library/u8x8_d_ssd1309.c ****   U8X8_CA(0x0da, 0x012),		/* com pin HW config, sequential com pin config (bit 4), disable left/rig
 177:/Users/imashio/Electronics/ARM/_Library/u8x8_d_ssd1309.c **** 
 178:/Users/imashio/Electronics/ARM/_Library/u8x8_d_ssd1309.c ****   U8X8_CA(0x081, 0x06f), 		/* [2] set contrast control */
 179:/Users/imashio/Electronics/ARM/_Library/u8x8_d_ssd1309.c ****   U8X8_CA(0x0d9, 0x0d3), 		/* [2] pre-charge period 0x022/f1*/
 180:/Users/imashio/Electronics/ARM/_Library/u8x8_d_ssd1309.c ****   U8X8_CA(0x0db, 0x020), 		/* vcomh deselect level */  
 181:/Users/imashio/Electronics/ARM/_Library/u8x8_d_ssd1309.c ****   // if vcomh is 0, then this will give the biggest range for contrast control issue #98
 182:/Users/imashio/Electronics/ARM/_Library/u8x8_d_ssd1309.c ****   // restored the old values for the noname constructor, because vcomh=0 will not work for all OLED
 183:/Users/imashio/Electronics/ARM/_Library/u8x8_d_ssd1309.c ****   
 184:/Users/imashio/Electronics/ARM/_Library/u8x8_d_ssd1309.c ****   U8X8_C(0x02e),				/* Deactivate scroll */ 
 185:/Users/imashio/Electronics/ARM/_Library/u8x8_d_ssd1309.c ****   U8X8_C(0x0a4),				/* output ram to display */
 186:/Users/imashio/Electronics/ARM/_Library/u8x8_d_ssd1309.c ****   U8X8_C(0x0a6),				/* none inverted normal display mode */
 187:/Users/imashio/Electronics/ARM/_Library/u8x8_d_ssd1309.c ****   
 188:/Users/imashio/Electronics/ARM/_Library/u8x8_d_ssd1309.c ****   //U8X8_C(0x0af),		                /* display on */
 189:/Users/imashio/Electronics/ARM/_Library/u8x8_d_ssd1309.c ****     
 190:/Users/imashio/Electronics/ARM/_Library/u8x8_d_ssd1309.c ****   U8X8_END_TRANSFER(),             	/* disable chip */
 191:/Users/imashio/Electronics/ARM/_Library/u8x8_d_ssd1309.c ****   U8X8_END()             			/* end of sequence */
 192:/Users/imashio/Electronics/ARM/_Library/u8x8_d_ssd1309.c **** };
 193:/Users/imashio/Electronics/ARM/_Library/u8x8_d_ssd1309.c **** 
ARM GAS  /var/folders/v3/wysfpd052nz8jkbx04pk0ym80000gn/T//ccsNjXrp.s 			page 8


 194:/Users/imashio/Electronics/ARM/_Library/u8x8_d_ssd1309.c **** 
 195:/Users/imashio/Electronics/ARM/_Library/u8x8_d_ssd1309.c **** uint8_t u8x8_d_ssd1309_128x64_noname2(u8x8_t *u8x8, uint8_t msg, uint8_t arg_int, void *arg_ptr)
 196:/Users/imashio/Electronics/ARM/_Library/u8x8_d_ssd1309.c **** {
 187              		.loc 1 196 0
 188              		.cfi_startproc
 189              		@ args = 0, pretend = 0, frame = 0
 190              		@ frame_needed = 0, uses_anonymous_args = 0
 191              	.LVL26:
 192 0000 70B5     		push	{r4, r5, r6, lr}
 193              	.LCFI1:
 194              		.cfi_def_cfa_offset 16
 195              		.cfi_offset 4, -16
 196              		.cfi_offset 5, -12
 197              		.cfi_offset 6, -8
 198              		.cfi_offset 14, -4
 199              		.loc 1 196 0
 200 0002 0546     		mov	r5, r0
 201 0004 0C46     		mov	r4, r1
 202 0006 1646     		mov	r6, r2
 197:/Users/imashio/Electronics/ARM/_Library/u8x8_d_ssd1309.c ****     
 198:/Users/imashio/Electronics/ARM/_Library/u8x8_d_ssd1309.c ****   if ( u8x8_d_ssd1309_generic(u8x8, msg, arg_int, arg_ptr) != 0 )
 203              		.loc 1 198 0
 204 0008 FFF7FEFF 		bl	u8x8_d_ssd1309_generic
 205              	.LVL27:
 206 000c 30B9     		cbnz	r0, .L24
 199:/Users/imashio/Electronics/ARM/_Library/u8x8_d_ssd1309.c ****     return 1;
 200:/Users/imashio/Electronics/ARM/_Library/u8x8_d_ssd1309.c ****   
 201:/Users/imashio/Electronics/ARM/_Library/u8x8_d_ssd1309.c ****   switch(msg)
 207              		.loc 1 201 0
 208 000e 0A2C     		cmp	r4, #10
 209 0010 06D0     		beq	.L20
 210 0012 0D2C     		cmp	r4, #13
 211 0014 13D0     		beq	.L21
 212 0016 092C     		cmp	r4, #9
 213 0018 0BD0     		beq	.L26
 202:/Users/imashio/Electronics/ARM/_Library/u8x8_d_ssd1309.c ****   {
 203:/Users/imashio/Electronics/ARM/_Library/u8x8_d_ssd1309.c ****     case U8X8_MSG_DISPLAY_SET_FLIP_MODE:
 204:/Users/imashio/Electronics/ARM/_Library/u8x8_d_ssd1309.c ****       if ( arg_int == 0 )
 205:/Users/imashio/Electronics/ARM/_Library/u8x8_d_ssd1309.c ****       {
 206:/Users/imashio/Electronics/ARM/_Library/u8x8_d_ssd1309.c **** 	u8x8_cad_SendSequence(u8x8, u8x8_d_ssd1309_128x64_flip0_seq);
 207:/Users/imashio/Electronics/ARM/_Library/u8x8_d_ssd1309.c **** 	u8x8->x_offset = u8x8->display_info->default_x_offset;
 208:/Users/imashio/Electronics/ARM/_Library/u8x8_d_ssd1309.c ****       }
 209:/Users/imashio/Electronics/ARM/_Library/u8x8_d_ssd1309.c ****       else
 210:/Users/imashio/Electronics/ARM/_Library/u8x8_d_ssd1309.c ****       {
 211:/Users/imashio/Electronics/ARM/_Library/u8x8_d_ssd1309.c **** 	u8x8_cad_SendSequence(u8x8, u8x8_d_ssd1309_128x64_flip1_seq);
 212:/Users/imashio/Electronics/ARM/_Library/u8x8_d_ssd1309.c **** 	u8x8->x_offset = u8x8->display_info->flipmode_x_offset;
 213:/Users/imashio/Electronics/ARM/_Library/u8x8_d_ssd1309.c ****       }
 214:/Users/imashio/Electronics/ARM/_Library/u8x8_d_ssd1309.c ****       break;
 215:/Users/imashio/Electronics/ARM/_Library/u8x8_d_ssd1309.c ****     case U8X8_MSG_DISPLAY_INIT:
 216:/Users/imashio/Electronics/ARM/_Library/u8x8_d_ssd1309.c ****       u8x8_d_helper_display_init(u8x8);
 217:/Users/imashio/Electronics/ARM/_Library/u8x8_d_ssd1309.c ****       u8x8_cad_SendSequence(u8x8, u8x8_d_ssd1309_128x64_noname_init_seq);    
 218:/Users/imashio/Electronics/ARM/_Library/u8x8_d_ssd1309.c ****       break;
 219:/Users/imashio/Electronics/ARM/_Library/u8x8_d_ssd1309.c ****     case U8X8_MSG_DISPLAY_SETUP_MEMORY:
 220:/Users/imashio/Electronics/ARM/_Library/u8x8_d_ssd1309.c ****       u8x8_d_helper_display_setup_memory(u8x8, &u8x8_ssd1309_128x64_noname2_display_info);
 221:/Users/imashio/Electronics/ARM/_Library/u8x8_d_ssd1309.c ****       break;
 222:/Users/imashio/Electronics/ARM/_Library/u8x8_d_ssd1309.c ****     default:
 223:/Users/imashio/Electronics/ARM/_Library/u8x8_d_ssd1309.c ****       return 0;
ARM GAS  /var/folders/v3/wysfpd052nz8jkbx04pk0ym80000gn/T//ccsNjXrp.s 			page 9


 224:/Users/imashio/Electronics/ARM/_Library/u8x8_d_ssd1309.c ****   }
 225:/Users/imashio/Electronics/ARM/_Library/u8x8_d_ssd1309.c ****   return 1;
 226:/Users/imashio/Electronics/ARM/_Library/u8x8_d_ssd1309.c **** }
 214              		.loc 1 226 0
 215 001a 70BD     		pop	{r4, r5, r6, pc}
 216              	.LVL28:
 217              	.L24:
 199:/Users/imashio/Electronics/ARM/_Library/u8x8_d_ssd1309.c ****     return 1;
 218              		.loc 1 199 0
 219 001c 0120     		movs	r0, #1
 220              		.loc 1 226 0
 221 001e 70BD     		pop	{r4, r5, r6, pc}
 222              	.LVL29:
 223              	.L20:
 216:/Users/imashio/Electronics/ARM/_Library/u8x8_d_ssd1309.c ****       u8x8_cad_SendSequence(u8x8, u8x8_d_ssd1309_128x64_noname_init_seq);    
 224              		.loc 1 216 0
 225 0020 2846     		mov	r0, r5
 226 0022 FFF7FEFF 		bl	u8x8_d_helper_display_init
 227              	.LVL30:
 217:/Users/imashio/Electronics/ARM/_Library/u8x8_d_ssd1309.c ****       break;
 228              		.loc 1 217 0
 229 0026 2846     		mov	r0, r5
 230 0028 0E49     		ldr	r1, .L27
 231 002a FFF7FEFF 		bl	u8x8_cad_SendSequence
 232              	.LVL31:
 225:/Users/imashio/Electronics/ARM/_Library/u8x8_d_ssd1309.c **** }
 233              		.loc 1 225 0
 234 002e 0120     		movs	r0, #1
 235              		.loc 1 226 0
 236 0030 70BD     		pop	{r4, r5, r6, pc}
 237              	.LVL32:
 238              	.L26:
 220:/Users/imashio/Electronics/ARM/_Library/u8x8_d_ssd1309.c ****       break;
 239              		.loc 1 220 0
 240 0032 2846     		mov	r0, r5
 241 0034 0C49     		ldr	r1, .L27+4
 242 0036 FFF7FEFF 		bl	u8x8_d_helper_display_setup_memory
 243              	.LVL33:
 225:/Users/imashio/Electronics/ARM/_Library/u8x8_d_ssd1309.c **** }
 244              		.loc 1 225 0
 245 003a 0120     		movs	r0, #1
 246              		.loc 1 226 0
 247 003c 70BD     		pop	{r4, r5, r6, pc}
 248              	.LVL34:
 249              	.L21:
 204:/Users/imashio/Electronics/ARM/_Library/u8x8_d_ssd1309.c ****       {
 250              		.loc 1 204 0
 251 003e 46B9     		cbnz	r6, .L23
 206:/Users/imashio/Electronics/ARM/_Library/u8x8_d_ssd1309.c **** 	u8x8->x_offset = u8x8->display_info->default_x_offset;
 252              		.loc 1 206 0
 253 0040 2846     		mov	r0, r5
 254 0042 0A49     		ldr	r1, .L27+8
 255 0044 FFF7FEFF 		bl	u8x8_cad_SendSequence
 256              	.LVL35:
 207:/Users/imashio/Electronics/ARM/_Library/u8x8_d_ssd1309.c ****       }
 257              		.loc 1 207 0
 258 0048 2B68     		ldr	r3, [r5]
ARM GAS  /var/folders/v3/wysfpd052nz8jkbx04pk0ym80000gn/T//ccsNjXrp.s 			page 10


 259 004a 9B7C     		ldrb	r3, [r3, #18]	@ zero_extendqisi2
 260 004c AB77     		strb	r3, [r5, #30]
 225:/Users/imashio/Electronics/ARM/_Library/u8x8_d_ssd1309.c **** }
 261              		.loc 1 225 0
 262 004e 0120     		movs	r0, #1
 263              		.loc 1 226 0
 264 0050 70BD     		pop	{r4, r5, r6, pc}
 265              	.LVL36:
 266              	.L23:
 211:/Users/imashio/Electronics/ARM/_Library/u8x8_d_ssd1309.c **** 	u8x8->x_offset = u8x8->display_info->flipmode_x_offset;
 267              		.loc 1 211 0
 268 0052 2846     		mov	r0, r5
 269 0054 0649     		ldr	r1, .L27+12
 270 0056 FFF7FEFF 		bl	u8x8_cad_SendSequence
 271              	.LVL37:
 212:/Users/imashio/Electronics/ARM/_Library/u8x8_d_ssd1309.c ****       }
 272              		.loc 1 212 0
 273 005a 2B68     		ldr	r3, [r5]
 274 005c DB7C     		ldrb	r3, [r3, #19]	@ zero_extendqisi2
 275 005e AB77     		strb	r3, [r5, #30]
 225:/Users/imashio/Electronics/ARM/_Library/u8x8_d_ssd1309.c **** }
 276              		.loc 1 225 0
 277 0060 0120     		movs	r0, #1
 278              		.loc 1 226 0
 279 0062 70BD     		pop	{r4, r5, r6, pc}
 280              	.LVL38:
 281              	.L28:
 282              		.align	2
 283              	.L27:
 284 0064 00000000 		.word	.LANCHOR4
 285 0068 00000000 		.word	.LANCHOR5
 286 006c 00000000 		.word	.LANCHOR2
 287 0070 00000000 		.word	.LANCHOR3
 288              		.cfi_endproc
 289              	.LFE1:
 291              		.section	.text.u8x8_d_ssd1309_128x64_noname0,"ax",%progbits
 292              		.align	1
 293              		.p2align 2,,3
 294              		.global	u8x8_d_ssd1309_128x64_noname0
 295              		.syntax unified
 296              		.thumb
 297              		.thumb_func
 298              		.fpu fpv4-sp-d16
 300              	u8x8_d_ssd1309_128x64_noname0:
 301              	.LFB2:
 227:/Users/imashio/Electronics/ARM/_Library/u8x8_d_ssd1309.c **** 
 228:/Users/imashio/Electronics/ARM/_Library/u8x8_d_ssd1309.c **** 
 229:/Users/imashio/Electronics/ARM/_Library/u8x8_d_ssd1309.c **** /*=================================================*/
 230:/Users/imashio/Electronics/ARM/_Library/u8x8_d_ssd1309.c **** /* offset 0 version */
 231:/Users/imashio/Electronics/ARM/_Library/u8x8_d_ssd1309.c **** 
 232:/Users/imashio/Electronics/ARM/_Library/u8x8_d_ssd1309.c **** /* timing from SSD1306 */
 233:/Users/imashio/Electronics/ARM/_Library/u8x8_d_ssd1309.c **** static const u8x8_display_info_t u8x8_ssd1309_128x64_noname0_display_info =
 234:/Users/imashio/Electronics/ARM/_Library/u8x8_d_ssd1309.c **** {
 235:/Users/imashio/Electronics/ARM/_Library/u8x8_d_ssd1309.c ****   /* chip_enable_level = */ 0,
 236:/Users/imashio/Electronics/ARM/_Library/u8x8_d_ssd1309.c ****   /* chip_disable_level = */ 1,
 237:/Users/imashio/Electronics/ARM/_Library/u8x8_d_ssd1309.c ****   
 238:/Users/imashio/Electronics/ARM/_Library/u8x8_d_ssd1309.c ****   /* post_chip_enable_wait_ns = */ 20,
ARM GAS  /var/folders/v3/wysfpd052nz8jkbx04pk0ym80000gn/T//ccsNjXrp.s 			page 11


 239:/Users/imashio/Electronics/ARM/_Library/u8x8_d_ssd1309.c ****   /* pre_chip_disable_wait_ns = */ 10,
 240:/Users/imashio/Electronics/ARM/_Library/u8x8_d_ssd1309.c ****   /* reset_pulse_width_ms = */ 100, 	/* SSD1306: 3 us */
 241:/Users/imashio/Electronics/ARM/_Library/u8x8_d_ssd1309.c ****   /* post_reset_wait_ms = */ 100, /* far east OLEDs need much longer setup time */
 242:/Users/imashio/Electronics/ARM/_Library/u8x8_d_ssd1309.c ****   /* sda_setup_time_ns = */ 50,		/* SSD1306: 15ns, but cycle time is 100ns, so use 100/2 */
 243:/Users/imashio/Electronics/ARM/_Library/u8x8_d_ssd1309.c ****   /* sck_pulse_width_ns = */ 50,	/* SSD1306: 20ns, but cycle time is 100ns, so use 100/2, AVR: belo
 244:/Users/imashio/Electronics/ARM/_Library/u8x8_d_ssd1309.c ****   /* sck_clock_hz = */ 4000000UL,	/* since Arduino 1.6.0, the SPI bus speed in Hz. Should be  10000
 245:/Users/imashio/Electronics/ARM/_Library/u8x8_d_ssd1309.c ****   /* spi_mode = */ 0,		/* active high, rising edge */
 246:/Users/imashio/Electronics/ARM/_Library/u8x8_d_ssd1309.c ****   /* i2c_bus_clock_100kHz = */ 4,
 247:/Users/imashio/Electronics/ARM/_Library/u8x8_d_ssd1309.c ****   /* data_setup_time_ns = */ 40,
 248:/Users/imashio/Electronics/ARM/_Library/u8x8_d_ssd1309.c ****   /* write_pulse_width_ns = */ 150,	/* SSD1306: cycle time is 300ns, so use 300/2 = 150 */
 249:/Users/imashio/Electronics/ARM/_Library/u8x8_d_ssd1309.c ****   /* tile_width = */ 16,
 250:/Users/imashio/Electronics/ARM/_Library/u8x8_d_ssd1309.c ****   /* tile_hight = */ 8,
 251:/Users/imashio/Electronics/ARM/_Library/u8x8_d_ssd1309.c ****   /* default_x_offset = */ 0,
 252:/Users/imashio/Electronics/ARM/_Library/u8x8_d_ssd1309.c ****   /* flipmode_x_offset = */ 0,
 253:/Users/imashio/Electronics/ARM/_Library/u8x8_d_ssd1309.c ****   /* pixel_width = */ 128,
 254:/Users/imashio/Electronics/ARM/_Library/u8x8_d_ssd1309.c ****   /* pixel_height = */ 64
 255:/Users/imashio/Electronics/ARM/_Library/u8x8_d_ssd1309.c **** };
 256:/Users/imashio/Electronics/ARM/_Library/u8x8_d_ssd1309.c **** 
 257:/Users/imashio/Electronics/ARM/_Library/u8x8_d_ssd1309.c **** uint8_t u8x8_d_ssd1309_128x64_noname0(u8x8_t *u8x8, uint8_t msg, uint8_t arg_int, void *arg_ptr)
 258:/Users/imashio/Electronics/ARM/_Library/u8x8_d_ssd1309.c **** {
 302              		.loc 1 258 0
 303              		.cfi_startproc
 304              		@ args = 0, pretend = 0, frame = 0
 305              		@ frame_needed = 0, uses_anonymous_args = 0
 306              	.LVL39:
 307 0000 70B5     		push	{r4, r5, r6, lr}
 308              	.LCFI2:
 309              		.cfi_def_cfa_offset 16
 310              		.cfi_offset 4, -16
 311              		.cfi_offset 5, -12
 312              		.cfi_offset 6, -8
 313              		.cfi_offset 14, -4
 314              		.loc 1 258 0
 315 0002 0546     		mov	r5, r0
 316 0004 0C46     		mov	r4, r1
 317 0006 1646     		mov	r6, r2
 259:/Users/imashio/Electronics/ARM/_Library/u8x8_d_ssd1309.c ****     
 260:/Users/imashio/Electronics/ARM/_Library/u8x8_d_ssd1309.c ****   if ( u8x8_d_ssd1309_generic(u8x8, msg, arg_int, arg_ptr) != 0 )
 318              		.loc 1 260 0
 319 0008 FFF7FEFF 		bl	u8x8_d_ssd1309_generic
 320              	.LVL40:
 321 000c 30B9     		cbnz	r0, .L35
 261:/Users/imashio/Electronics/ARM/_Library/u8x8_d_ssd1309.c ****     return 1;
 262:/Users/imashio/Electronics/ARM/_Library/u8x8_d_ssd1309.c ****   
 263:/Users/imashio/Electronics/ARM/_Library/u8x8_d_ssd1309.c ****   switch(msg)
 322              		.loc 1 263 0
 323 000e 0A2C     		cmp	r4, #10
 324 0010 06D0     		beq	.L31
 325 0012 0D2C     		cmp	r4, #13
 326 0014 13D0     		beq	.L32
 327 0016 092C     		cmp	r4, #9
 328 0018 0BD0     		beq	.L37
 264:/Users/imashio/Electronics/ARM/_Library/u8x8_d_ssd1309.c ****   {
 265:/Users/imashio/Electronics/ARM/_Library/u8x8_d_ssd1309.c ****     case U8X8_MSG_DISPLAY_SET_FLIP_MODE:
 266:/Users/imashio/Electronics/ARM/_Library/u8x8_d_ssd1309.c ****       if ( arg_int == 0 )
 267:/Users/imashio/Electronics/ARM/_Library/u8x8_d_ssd1309.c ****       {
 268:/Users/imashio/Electronics/ARM/_Library/u8x8_d_ssd1309.c **** 	u8x8_cad_SendSequence(u8x8, u8x8_d_ssd1309_128x64_flip0_seq);
ARM GAS  /var/folders/v3/wysfpd052nz8jkbx04pk0ym80000gn/T//ccsNjXrp.s 			page 12


 269:/Users/imashio/Electronics/ARM/_Library/u8x8_d_ssd1309.c **** 	u8x8->x_offset = u8x8->display_info->default_x_offset;
 270:/Users/imashio/Electronics/ARM/_Library/u8x8_d_ssd1309.c ****       }
 271:/Users/imashio/Electronics/ARM/_Library/u8x8_d_ssd1309.c ****       else
 272:/Users/imashio/Electronics/ARM/_Library/u8x8_d_ssd1309.c ****       {
 273:/Users/imashio/Electronics/ARM/_Library/u8x8_d_ssd1309.c **** 	u8x8_cad_SendSequence(u8x8, u8x8_d_ssd1309_128x64_flip1_seq);
 274:/Users/imashio/Electronics/ARM/_Library/u8x8_d_ssd1309.c **** 	u8x8->x_offset = u8x8->display_info->flipmode_x_offset;
 275:/Users/imashio/Electronics/ARM/_Library/u8x8_d_ssd1309.c ****       }
 276:/Users/imashio/Electronics/ARM/_Library/u8x8_d_ssd1309.c ****       break;
 277:/Users/imashio/Electronics/ARM/_Library/u8x8_d_ssd1309.c ****     case U8X8_MSG_DISPLAY_INIT:
 278:/Users/imashio/Electronics/ARM/_Library/u8x8_d_ssd1309.c ****       u8x8_d_helper_display_init(u8x8);
 279:/Users/imashio/Electronics/ARM/_Library/u8x8_d_ssd1309.c ****       u8x8_cad_SendSequence(u8x8, u8x8_d_ssd1309_128x64_noname_init_seq);    
 280:/Users/imashio/Electronics/ARM/_Library/u8x8_d_ssd1309.c ****       break;
 281:/Users/imashio/Electronics/ARM/_Library/u8x8_d_ssd1309.c ****     case U8X8_MSG_DISPLAY_SETUP_MEMORY:
 282:/Users/imashio/Electronics/ARM/_Library/u8x8_d_ssd1309.c ****       u8x8_d_helper_display_setup_memory(u8x8, &u8x8_ssd1309_128x64_noname0_display_info);
 283:/Users/imashio/Electronics/ARM/_Library/u8x8_d_ssd1309.c ****       break;
 284:/Users/imashio/Electronics/ARM/_Library/u8x8_d_ssd1309.c ****     default:
 285:/Users/imashio/Electronics/ARM/_Library/u8x8_d_ssd1309.c ****       return 0;
 286:/Users/imashio/Electronics/ARM/_Library/u8x8_d_ssd1309.c ****   }
 287:/Users/imashio/Electronics/ARM/_Library/u8x8_d_ssd1309.c ****   return 1;
 288:/Users/imashio/Electronics/ARM/_Library/u8x8_d_ssd1309.c **** }
 329              		.loc 1 288 0
 330 001a 70BD     		pop	{r4, r5, r6, pc}
 331              	.LVL41:
 332              	.L35:
 261:/Users/imashio/Electronics/ARM/_Library/u8x8_d_ssd1309.c ****     return 1;
 333              		.loc 1 261 0
 334 001c 0120     		movs	r0, #1
 335              		.loc 1 288 0
 336 001e 70BD     		pop	{r4, r5, r6, pc}
 337              	.LVL42:
 338              	.L31:
 278:/Users/imashio/Electronics/ARM/_Library/u8x8_d_ssd1309.c ****       u8x8_cad_SendSequence(u8x8, u8x8_d_ssd1309_128x64_noname_init_seq);    
 339              		.loc 1 278 0
 340 0020 2846     		mov	r0, r5
 341 0022 FFF7FEFF 		bl	u8x8_d_helper_display_init
 342              	.LVL43:
 279:/Users/imashio/Electronics/ARM/_Library/u8x8_d_ssd1309.c ****       break;
 343              		.loc 1 279 0
 344 0026 2846     		mov	r0, r5
 345 0028 0E49     		ldr	r1, .L38
 346 002a FFF7FEFF 		bl	u8x8_cad_SendSequence
 347              	.LVL44:
 287:/Users/imashio/Electronics/ARM/_Library/u8x8_d_ssd1309.c **** }
 348              		.loc 1 287 0
 349 002e 0120     		movs	r0, #1
 350              		.loc 1 288 0
 351 0030 70BD     		pop	{r4, r5, r6, pc}
 352              	.LVL45:
 353              	.L37:
 282:/Users/imashio/Electronics/ARM/_Library/u8x8_d_ssd1309.c ****       break;
 354              		.loc 1 282 0
 355 0032 2846     		mov	r0, r5
 356 0034 0C49     		ldr	r1, .L38+4
 357 0036 FFF7FEFF 		bl	u8x8_d_helper_display_setup_memory
 358              	.LVL46:
 287:/Users/imashio/Electronics/ARM/_Library/u8x8_d_ssd1309.c **** }
 359              		.loc 1 287 0
ARM GAS  /var/folders/v3/wysfpd052nz8jkbx04pk0ym80000gn/T//ccsNjXrp.s 			page 13


 360 003a 0120     		movs	r0, #1
 361              		.loc 1 288 0
 362 003c 70BD     		pop	{r4, r5, r6, pc}
 363              	.LVL47:
 364              	.L32:
 266:/Users/imashio/Electronics/ARM/_Library/u8x8_d_ssd1309.c ****       {
 365              		.loc 1 266 0
 366 003e 46B9     		cbnz	r6, .L34
 268:/Users/imashio/Electronics/ARM/_Library/u8x8_d_ssd1309.c **** 	u8x8->x_offset = u8x8->display_info->default_x_offset;
 367              		.loc 1 268 0
 368 0040 2846     		mov	r0, r5
 369 0042 0A49     		ldr	r1, .L38+8
 370 0044 FFF7FEFF 		bl	u8x8_cad_SendSequence
 371              	.LVL48:
 269:/Users/imashio/Electronics/ARM/_Library/u8x8_d_ssd1309.c ****       }
 372              		.loc 1 269 0
 373 0048 2B68     		ldr	r3, [r5]
 374 004a 9B7C     		ldrb	r3, [r3, #18]	@ zero_extendqisi2
 375 004c AB77     		strb	r3, [r5, #30]
 287:/Users/imashio/Electronics/ARM/_Library/u8x8_d_ssd1309.c **** }
 376              		.loc 1 287 0
 377 004e 0120     		movs	r0, #1
 378              		.loc 1 288 0
 379 0050 70BD     		pop	{r4, r5, r6, pc}
 380              	.LVL49:
 381              	.L34:
 273:/Users/imashio/Electronics/ARM/_Library/u8x8_d_ssd1309.c **** 	u8x8->x_offset = u8x8->display_info->flipmode_x_offset;
 382              		.loc 1 273 0
 383 0052 2846     		mov	r0, r5
 384 0054 0649     		ldr	r1, .L38+12
 385 0056 FFF7FEFF 		bl	u8x8_cad_SendSequence
 386              	.LVL50:
 274:/Users/imashio/Electronics/ARM/_Library/u8x8_d_ssd1309.c ****       }
 387              		.loc 1 274 0
 388 005a 2B68     		ldr	r3, [r5]
 389 005c DB7C     		ldrb	r3, [r3, #19]	@ zero_extendqisi2
 390 005e AB77     		strb	r3, [r5, #30]
 287:/Users/imashio/Electronics/ARM/_Library/u8x8_d_ssd1309.c **** }
 391              		.loc 1 287 0
 392 0060 0120     		movs	r0, #1
 393              		.loc 1 288 0
 394 0062 70BD     		pop	{r4, r5, r6, pc}
 395              	.LVL51:
 396              	.L39:
 397              		.align	2
 398              	.L38:
 399 0064 00000000 		.word	.LANCHOR4
 400 0068 00000000 		.word	.LANCHOR6
 401 006c 00000000 		.word	.LANCHOR2
 402 0070 00000000 		.word	.LANCHOR3
 403              		.cfi_endproc
 404              	.LFE2:
 406              		.section	.rodata.u8x8_d_ssd1309_128x64_flip0_seq,"a",%progbits
 407              		.align	2
 408              		.set	.LANCHOR2,. + 0
 411              	u8x8_d_ssd1309_128x64_flip0_seq:
 412 0000 18       		.byte	24
ARM GAS  /var/folders/v3/wysfpd052nz8jkbx04pk0ym80000gn/T//ccsNjXrp.s 			page 14


 413 0001 15       		.byte	21
 414 0002 A1       		.byte	-95
 415 0003 15       		.byte	21
 416 0004 C8       		.byte	-56
 417 0005 19       		.byte	25
 418 0006 FF       		.byte	-1
 419              		.section	.rodata.u8x8_d_ssd1309_128x64_flip1_seq,"a",%progbits
 420              		.align	2
 421              		.set	.LANCHOR3,. + 0
 424              	u8x8_d_ssd1309_128x64_flip1_seq:
 425 0000 18       		.byte	24
 426 0001 15       		.byte	21
 427 0002 A0       		.byte	-96
 428 0003 15       		.byte	21
 429 0004 C0       		.byte	-64
 430 0005 19       		.byte	25
 431 0006 FF       		.byte	-1
 432              		.section	.rodata.u8x8_d_ssd1309_128x64_noname_init_seq,"a",%progbits
 433              		.align	2
 434              		.set	.LANCHOR4,. + 0
 437              	u8x8_d_ssd1309_128x64_noname_init_seq:
 438 0000 18       		.byte	24
 439 0001 15       		.byte	21
 440 0002 AE       		.byte	-82
 441 0003 15       		.byte	21
 442 0004 D5       		.byte	-43
 443 0005 16       		.byte	22
 444 0006 A0       		.byte	-96
 445 0007 15       		.byte	21
 446 0008 40       		.byte	64
 447 0009 15       		.byte	21
 448 000a 20       		.byte	32
 449 000b 16       		.byte	22
 450 000c 02       		.byte	2
 451 000d 15       		.byte	21
 452 000e A1       		.byte	-95
 453 000f 15       		.byte	21
 454 0010 C8       		.byte	-56
 455 0011 15       		.byte	21
 456 0012 DA       		.byte	-38
 457 0013 16       		.byte	22
 458 0014 12       		.byte	18
 459 0015 15       		.byte	21
 460 0016 81       		.byte	-127
 461 0017 16       		.byte	22
 462 0018 6F       		.byte	111
 463 0019 15       		.byte	21
 464 001a D9       		.byte	-39
 465 001b 16       		.byte	22
 466 001c D3       		.byte	-45
 467 001d 15       		.byte	21
 468 001e DB       		.byte	-37
 469 001f 16       		.byte	22
 470 0020 20       		.byte	32
 471 0021 15       		.byte	21
 472 0022 2E       		.byte	46
 473 0023 15       		.byte	21
ARM GAS  /var/folders/v3/wysfpd052nz8jkbx04pk0ym80000gn/T//ccsNjXrp.s 			page 15


 474 0024 A4       		.byte	-92
 475 0025 15       		.byte	21
 476 0026 A6       		.byte	-90
 477 0027 19       		.byte	25
 478 0028 FF       		.byte	-1
 479              		.section	.rodata.u8x8_d_ssd1309_powersave0_seq,"a",%progbits
 480              		.align	2
 481              		.set	.LANCHOR0,. + 0
 484              	u8x8_d_ssd1309_powersave0_seq:
 485 0000 18       		.byte	24
 486 0001 15       		.byte	21
 487 0002 AF       		.byte	-81
 488 0003 19       		.byte	25
 489 0004 FF       		.byte	-1
 490              		.section	.rodata.u8x8_d_ssd1309_powersave1_seq,"a",%progbits
 491              		.align	2
 492              		.set	.LANCHOR1,. + 0
 495              	u8x8_d_ssd1309_powersave1_seq:
 496 0000 18       		.byte	24
 497 0001 15       		.byte	21
 498 0002 AE       		.byte	-82
 499 0003 19       		.byte	25
 500 0004 FF       		.byte	-1
 501              		.section	.rodata.u8x8_ssd1309_128x64_noname0_display_info,"a",%progbits
 502              		.align	2
 503              		.set	.LANCHOR6,. + 0
 506              	u8x8_ssd1309_128x64_noname0_display_info:
 507 0000 00       		.byte	0
 508 0001 01       		.byte	1
 509 0002 14       		.byte	20
 510 0003 0A       		.byte	10
 511 0004 64       		.byte	100
 512 0005 64       		.byte	100
 513 0006 32       		.byte	50
 514 0007 32       		.byte	50
 515 0008 00093D00 		.word	4000000
 516 000c 00       		.byte	0
 517 000d 04       		.byte	4
 518 000e 28       		.byte	40
 519 000f 96       		.byte	-106
 520 0010 10       		.byte	16
 521 0011 08       		.byte	8
 522 0012 00       		.byte	0
 523 0013 00       		.byte	0
 524 0014 8000     		.short	128
 525 0016 4000     		.short	64
 526              		.section	.rodata.u8x8_ssd1309_128x64_noname2_display_info,"a",%progbits
 527              		.align	2
 528              		.set	.LANCHOR5,. + 0
 531              	u8x8_ssd1309_128x64_noname2_display_info:
 532 0000 00       		.byte	0
 533 0001 01       		.byte	1
 534 0002 14       		.byte	20
 535 0003 0A       		.byte	10
 536 0004 64       		.byte	100
 537 0005 64       		.byte	100
 538 0006 32       		.byte	50
ARM GAS  /var/folders/v3/wysfpd052nz8jkbx04pk0ym80000gn/T//ccsNjXrp.s 			page 16


 539 0007 32       		.byte	50
 540 0008 00093D00 		.word	4000000
 541 000c 00       		.byte	0
 542 000d 04       		.byte	4
 543 000e 28       		.byte	40
 544 000f 96       		.byte	-106
 545 0010 10       		.byte	16
 546 0011 08       		.byte	8
 547 0012 00       		.byte	0
 548 0013 02       		.byte	2
 549 0014 8000     		.short	128
 550 0016 4000     		.short	64
 551              		.text
 552              	.Letext0:
 553              		.file 2 "/usr/local/gcc-arm-none-eabi-7-2018-q2-update/arm-none-eabi/include/machine/_default_type
 554              		.file 3 "/usr/local/gcc-arm-none-eabi-7-2018-q2-update/arm-none-eabi/include/sys/_stdint.h"
 555              		.file 4 "/Users/imashio/Electronics/ARM/_Library/u8x8.h"
ARM GAS  /var/folders/v3/wysfpd052nz8jkbx04pk0ym80000gn/T//ccsNjXrp.s 			page 17


DEFINED SYMBOLS
                            *ABS*:0000000000000000 u8x8_d_ssd1309.c
/var/folders/v3/wysfpd052nz8jkbx04pk0ym80000gn/T//ccsNjXrp.s:18     .text.u8x8_d_ssd1309_generic:0000000000000000 $t
/var/folders/v3/wysfpd052nz8jkbx04pk0ym80000gn/T//ccsNjXrp.s:25     .text.u8x8_d_ssd1309_generic:0000000000000000 u8x8_d_ssd1309_generic
/var/folders/v3/wysfpd052nz8jkbx04pk0ym80000gn/T//ccsNjXrp.s:171    .text.u8x8_d_ssd1309_generic:00000000000000a4 $d
/var/folders/v3/wysfpd052nz8jkbx04pk0ym80000gn/T//ccsNjXrp.s:177    .text.u8x8_d_ssd1309_128x64_noname2:0000000000000000 $t
/var/folders/v3/wysfpd052nz8jkbx04pk0ym80000gn/T//ccsNjXrp.s:185    .text.u8x8_d_ssd1309_128x64_noname2:0000000000000000 u8x8_d_ssd1309_128x64_noname2
/var/folders/v3/wysfpd052nz8jkbx04pk0ym80000gn/T//ccsNjXrp.s:284    .text.u8x8_d_ssd1309_128x64_noname2:0000000000000064 $d
/var/folders/v3/wysfpd052nz8jkbx04pk0ym80000gn/T//ccsNjXrp.s:292    .text.u8x8_d_ssd1309_128x64_noname0:0000000000000000 $t
/var/folders/v3/wysfpd052nz8jkbx04pk0ym80000gn/T//ccsNjXrp.s:300    .text.u8x8_d_ssd1309_128x64_noname0:0000000000000000 u8x8_d_ssd1309_128x64_noname0
/var/folders/v3/wysfpd052nz8jkbx04pk0ym80000gn/T//ccsNjXrp.s:399    .text.u8x8_d_ssd1309_128x64_noname0:0000000000000064 $d
/var/folders/v3/wysfpd052nz8jkbx04pk0ym80000gn/T//ccsNjXrp.s:407    .rodata.u8x8_d_ssd1309_128x64_flip0_seq:0000000000000000 $d
/var/folders/v3/wysfpd052nz8jkbx04pk0ym80000gn/T//ccsNjXrp.s:411    .rodata.u8x8_d_ssd1309_128x64_flip0_seq:0000000000000000 u8x8_d_ssd1309_128x64_flip0_seq
/var/folders/v3/wysfpd052nz8jkbx04pk0ym80000gn/T//ccsNjXrp.s:420    .rodata.u8x8_d_ssd1309_128x64_flip1_seq:0000000000000000 $d
/var/folders/v3/wysfpd052nz8jkbx04pk0ym80000gn/T//ccsNjXrp.s:424    .rodata.u8x8_d_ssd1309_128x64_flip1_seq:0000000000000000 u8x8_d_ssd1309_128x64_flip1_seq
/var/folders/v3/wysfpd052nz8jkbx04pk0ym80000gn/T//ccsNjXrp.s:433    .rodata.u8x8_d_ssd1309_128x64_noname_init_seq:0000000000000000 $d
/var/folders/v3/wysfpd052nz8jkbx04pk0ym80000gn/T//ccsNjXrp.s:437    .rodata.u8x8_d_ssd1309_128x64_noname_init_seq:0000000000000000 u8x8_d_ssd1309_128x64_noname_init_seq
/var/folders/v3/wysfpd052nz8jkbx04pk0ym80000gn/T//ccsNjXrp.s:480    .rodata.u8x8_d_ssd1309_powersave0_seq:0000000000000000 $d
/var/folders/v3/wysfpd052nz8jkbx04pk0ym80000gn/T//ccsNjXrp.s:484    .rodata.u8x8_d_ssd1309_powersave0_seq:0000000000000000 u8x8_d_ssd1309_powersave0_seq
/var/folders/v3/wysfpd052nz8jkbx04pk0ym80000gn/T//ccsNjXrp.s:491    .rodata.u8x8_d_ssd1309_powersave1_seq:0000000000000000 $d
/var/folders/v3/wysfpd052nz8jkbx04pk0ym80000gn/T//ccsNjXrp.s:495    .rodata.u8x8_d_ssd1309_powersave1_seq:0000000000000000 u8x8_d_ssd1309_powersave1_seq
/var/folders/v3/wysfpd052nz8jkbx04pk0ym80000gn/T//ccsNjXrp.s:502    .rodata.u8x8_ssd1309_128x64_noname0_display_info:0000000000000000 $d
/var/folders/v3/wysfpd052nz8jkbx04pk0ym80000gn/T//ccsNjXrp.s:506    .rodata.u8x8_ssd1309_128x64_noname0_display_info:0000000000000000 u8x8_ssd1309_128x64_noname0_display_info
/var/folders/v3/wysfpd052nz8jkbx04pk0ym80000gn/T//ccsNjXrp.s:527    .rodata.u8x8_ssd1309_128x64_noname2_display_info:0000000000000000 $d
/var/folders/v3/wysfpd052nz8jkbx04pk0ym80000gn/T//ccsNjXrp.s:531    .rodata.u8x8_ssd1309_128x64_noname2_display_info:0000000000000000 u8x8_ssd1309_128x64_noname2_display_info

UNDEFINED SYMBOLS
u8x8_cad_SendSequence
u8x8_cad_StartTransfer
u8x8_cad_SendCmd
u8x8_cad_SendArg
u8x8_cad_SendData
u8x8_cad_EndTransfer
u8x8_d_helper_display_init
u8x8_d_helper_display_setup_memory
