ARM GAS  /var/folders/v3/wysfpd052nz8jkbx04pk0ym80000gn/T//cc7iMqWr.s 			page 1


   1              		.cpu cortex-m4
   2              		.eabi_attribute 27, 1
   3              		.eabi_attribute 28, 1
   4              		.eabi_attribute 20, 1
   5              		.eabi_attribute 21, 1
   6              		.eabi_attribute 23, 3
   7              		.eabi_attribute 24, 1
   8              		.eabi_attribute 25, 1
   9              		.eabi_attribute 26, 1
  10              		.eabi_attribute 30, 2
  11              		.eabi_attribute 34, 1
  12              		.eabi_attribute 18, 4
  13              		.file	"u8x8_d_ssd1306_128x64_noname.c"
  14              		.text
  15              	.Ltext0:
  16              		.cfi_sections	.debug_frame
  17              		.section	.text.u8x8_d_ssd1306_sh1106_generic,"ax",%progbits
  18              		.align	1
  19              		.p2align 2,,3
  20              		.syntax unified
  21              		.thumb
  22              		.thumb_func
  23              		.fpu fpv4-sp-d16
  25              	u8x8_d_ssd1306_sh1106_generic:
  26              	.LFB0:
  27              		.file 1 "/Users/imashio/Electronics/ARM/_Library/u8x8_d_ssd1306_128x64_noname.c"
   1:/Users/imashio/Electronics/ARM/_Library/u8x8_d_ssd1306_128x64_noname.c **** /*
   2:/Users/imashio/Electronics/ARM/_Library/u8x8_d_ssd1306_128x64_noname.c **** 
   3:/Users/imashio/Electronics/ARM/_Library/u8x8_d_ssd1306_128x64_noname.c ****   u8x8_d_ssd1306_128x64_noname.c
   4:/Users/imashio/Electronics/ARM/_Library/u8x8_d_ssd1306_128x64_noname.c **** 
   5:/Users/imashio/Electronics/ARM/_Library/u8x8_d_ssd1306_128x64_noname.c ****   Universal 8bit Graphics Library (https://github.com/olikraus/u8g2/)
   6:/Users/imashio/Electronics/ARM/_Library/u8x8_d_ssd1306_128x64_noname.c **** 
   7:/Users/imashio/Electronics/ARM/_Library/u8x8_d_ssd1306_128x64_noname.c ****   Copyright (c) 2016, olikraus@gmail.com
   8:/Users/imashio/Electronics/ARM/_Library/u8x8_d_ssd1306_128x64_noname.c ****   All rights reserved.
   9:/Users/imashio/Electronics/ARM/_Library/u8x8_d_ssd1306_128x64_noname.c **** 
  10:/Users/imashio/Electronics/ARM/_Library/u8x8_d_ssd1306_128x64_noname.c ****   Redistribution and use in source and binary forms, with or without modification, 
  11:/Users/imashio/Electronics/ARM/_Library/u8x8_d_ssd1306_128x64_noname.c ****   are permitted provided that the following conditions are met:
  12:/Users/imashio/Electronics/ARM/_Library/u8x8_d_ssd1306_128x64_noname.c **** 
  13:/Users/imashio/Electronics/ARM/_Library/u8x8_d_ssd1306_128x64_noname.c ****   * Redistributions of source code must retain the above copyright notice, this list 
  14:/Users/imashio/Electronics/ARM/_Library/u8x8_d_ssd1306_128x64_noname.c ****     of conditions and the following disclaimer.
  15:/Users/imashio/Electronics/ARM/_Library/u8x8_d_ssd1306_128x64_noname.c ****     
  16:/Users/imashio/Electronics/ARM/_Library/u8x8_d_ssd1306_128x64_noname.c ****   * Redistributions in binary form must reproduce the above copyright notice, this 
  17:/Users/imashio/Electronics/ARM/_Library/u8x8_d_ssd1306_128x64_noname.c ****     list of conditions and the following disclaimer in the documentation and/or other 
  18:/Users/imashio/Electronics/ARM/_Library/u8x8_d_ssd1306_128x64_noname.c ****     materials provided with the distribution.
  19:/Users/imashio/Electronics/ARM/_Library/u8x8_d_ssd1306_128x64_noname.c **** 
  20:/Users/imashio/Electronics/ARM/_Library/u8x8_d_ssd1306_128x64_noname.c ****   THIS SOFTWARE IS PROVIDED BY THE COPYRIGHT HOLDERS AND 
  21:/Users/imashio/Electronics/ARM/_Library/u8x8_d_ssd1306_128x64_noname.c ****   CONTRIBUTORS "AS IS" AND ANY EXPRESS OR IMPLIED WARRANTIES, 
  22:/Users/imashio/Electronics/ARM/_Library/u8x8_d_ssd1306_128x64_noname.c ****   INCLUDING, BUT NOT LIMITED TO, THE IMPLIED WARRANTIES OF 
  23:/Users/imashio/Electronics/ARM/_Library/u8x8_d_ssd1306_128x64_noname.c ****   MERCHANTABILITY AND FITNESS FOR A PARTICULAR PURPOSE ARE 
  24:/Users/imashio/Electronics/ARM/_Library/u8x8_d_ssd1306_128x64_noname.c ****   DISCLAIMED. IN NO EVENT SHALL THE COPYRIGHT HOLDER OR 
  25:/Users/imashio/Electronics/ARM/_Library/u8x8_d_ssd1306_128x64_noname.c ****   CONTRIBUTORS BE LIABLE FOR ANY DIRECT, INDIRECT, INCIDENTAL, 
  26:/Users/imashio/Electronics/ARM/_Library/u8x8_d_ssd1306_128x64_noname.c ****   SPECIAL, EXEMPLARY, OR CONSEQUENTIAL DAMAGES (INCLUDING, BUT 
  27:/Users/imashio/Electronics/ARM/_Library/u8x8_d_ssd1306_128x64_noname.c ****   NOT LIMITED TO, PROCUREMENT OF SUBSTITUTE GOODS OR SERVICES; 
  28:/Users/imashio/Electronics/ARM/_Library/u8x8_d_ssd1306_128x64_noname.c ****   LOSS OF USE, DATA, OR PROFITS; OR BUSINESS INTERRUPTION) HOWEVER 
  29:/Users/imashio/Electronics/ARM/_Library/u8x8_d_ssd1306_128x64_noname.c ****   CAUSED AND ON ANY THEORY OF LIABILITY, WHETHER IN CONTRACT, 
  30:/Users/imashio/Electronics/ARM/_Library/u8x8_d_ssd1306_128x64_noname.c ****   STRICT LIABILITY, OR TORT (INCLUDING NEGLIGENCE OR OTHERWISE) 
  31:/Users/imashio/Electronics/ARM/_Library/u8x8_d_ssd1306_128x64_noname.c ****   ARISING IN ANY WAY OUT OF THE USE OF THIS SOFTWARE, EVEN IF 
ARM GAS  /var/folders/v3/wysfpd052nz8jkbx04pk0ym80000gn/T//cc7iMqWr.s 			page 2


  32:/Users/imashio/Electronics/ARM/_Library/u8x8_d_ssd1306_128x64_noname.c ****   ADVISED OF THE POSSIBILITY OF SUCH DAMAGE.  
  33:/Users/imashio/Electronics/ARM/_Library/u8x8_d_ssd1306_128x64_noname.c ****   
  34:/Users/imashio/Electronics/ARM/_Library/u8x8_d_ssd1306_128x64_noname.c **** */
  35:/Users/imashio/Electronics/ARM/_Library/u8x8_d_ssd1306_128x64_noname.c **** 
  36:/Users/imashio/Electronics/ARM/_Library/u8x8_d_ssd1306_128x64_noname.c **** 
  37:/Users/imashio/Electronics/ARM/_Library/u8x8_d_ssd1306_128x64_noname.c **** #include "u8x8.h"
  38:/Users/imashio/Electronics/ARM/_Library/u8x8_d_ssd1306_128x64_noname.c **** 
  39:/Users/imashio/Electronics/ARM/_Library/u8x8_d_ssd1306_128x64_noname.c **** 
  40:/Users/imashio/Electronics/ARM/_Library/u8x8_d_ssd1306_128x64_noname.c **** 
  41:/Users/imashio/Electronics/ARM/_Library/u8x8_d_ssd1306_128x64_noname.c **** /* more or less generic setup of all these small OLEDs */
  42:/Users/imashio/Electronics/ARM/_Library/u8x8_d_ssd1306_128x64_noname.c **** static const uint8_t u8x8_d_ssd1306_128x64_noname_init_seq[] = {
  43:/Users/imashio/Electronics/ARM/_Library/u8x8_d_ssd1306_128x64_noname.c ****     
  44:/Users/imashio/Electronics/ARM/_Library/u8x8_d_ssd1306_128x64_noname.c ****   U8X8_START_TRANSFER(),             	/* enable chip, delay is part of the transfer start */
  45:/Users/imashio/Electronics/ARM/_Library/u8x8_d_ssd1306_128x64_noname.c ****   
  46:/Users/imashio/Electronics/ARM/_Library/u8x8_d_ssd1306_128x64_noname.c ****   
  47:/Users/imashio/Electronics/ARM/_Library/u8x8_d_ssd1306_128x64_noname.c ****   U8X8_C(0x0ae),		                /* display off */
  48:/Users/imashio/Electronics/ARM/_Library/u8x8_d_ssd1306_128x64_noname.c ****   U8X8_CA(0x0d5, 0x080),		/* clock divide ratio (0x00=1) and oscillator frequency (0x8) */
  49:/Users/imashio/Electronics/ARM/_Library/u8x8_d_ssd1306_128x64_noname.c ****   U8X8_CA(0x0a8, 0x03f),		/* multiplex ratio */
  50:/Users/imashio/Electronics/ARM/_Library/u8x8_d_ssd1306_128x64_noname.c ****   U8X8_CA(0x0d3, 0x000),		/* display offset */
  51:/Users/imashio/Electronics/ARM/_Library/u8x8_d_ssd1306_128x64_noname.c ****   U8X8_C(0x040),		                /* set display start line to 0 */
  52:/Users/imashio/Electronics/ARM/_Library/u8x8_d_ssd1306_128x64_noname.c ****   U8X8_CA(0x08d, 0x014),		/* [2] charge pump setting (p62): 0x014 enable, 0x010 disable, SSD1306 on
  53:/Users/imashio/Electronics/ARM/_Library/u8x8_d_ssd1306_128x64_noname.c ****   U8X8_CA(0x020, 0x000),		/* page addressing mode */
  54:/Users/imashio/Electronics/ARM/_Library/u8x8_d_ssd1306_128x64_noname.c ****   
  55:/Users/imashio/Electronics/ARM/_Library/u8x8_d_ssd1306_128x64_noname.c ****   U8X8_C(0x0a1),				/* segment remap a0/a1*/
  56:/Users/imashio/Electronics/ARM/_Library/u8x8_d_ssd1306_128x64_noname.c ****   U8X8_C(0x0c8),				/* c0: scan dir normal, c8: reverse */
  57:/Users/imashio/Electronics/ARM/_Library/u8x8_d_ssd1306_128x64_noname.c ****   // Flipmode
  58:/Users/imashio/Electronics/ARM/_Library/u8x8_d_ssd1306_128x64_noname.c ****   // U8X8_C(0x0a0),				/* segment remap a0/a1*/
  59:/Users/imashio/Electronics/ARM/_Library/u8x8_d_ssd1306_128x64_noname.c ****   // U8X8_C(0x0c0),				/* c0: scan dir normal, c8: reverse */
  60:/Users/imashio/Electronics/ARM/_Library/u8x8_d_ssd1306_128x64_noname.c ****   
  61:/Users/imashio/Electronics/ARM/_Library/u8x8_d_ssd1306_128x64_noname.c ****   U8X8_CA(0x0da, 0x012),		/* com pin HW config, sequential com pin config (bit 4), disable left/rig
  62:/Users/imashio/Electronics/ARM/_Library/u8x8_d_ssd1306_128x64_noname.c **** 
  63:/Users/imashio/Electronics/ARM/_Library/u8x8_d_ssd1306_128x64_noname.c ****   U8X8_CA(0x081, 0x0cf), 		/* [2] set contrast control */
  64:/Users/imashio/Electronics/ARM/_Library/u8x8_d_ssd1306_128x64_noname.c ****   U8X8_CA(0x0d9, 0x0f1), 		/* [2] pre-charge period 0x022/f1*/
  65:/Users/imashio/Electronics/ARM/_Library/u8x8_d_ssd1306_128x64_noname.c ****   U8X8_CA(0x0db, 0x040), 		/* vcomh deselect level */  
  66:/Users/imashio/Electronics/ARM/_Library/u8x8_d_ssd1306_128x64_noname.c ****   // if vcomh is 0, then this will give the biggest range for contrast control issue #98
  67:/Users/imashio/Electronics/ARM/_Library/u8x8_d_ssd1306_128x64_noname.c ****   // restored the old values for the noname constructor, because vcomh=0 will not work for all OLED
  68:/Users/imashio/Electronics/ARM/_Library/u8x8_d_ssd1306_128x64_noname.c ****   
  69:/Users/imashio/Electronics/ARM/_Library/u8x8_d_ssd1306_128x64_noname.c ****   U8X8_C(0x02e),				/* Deactivate scroll */ 
  70:/Users/imashio/Electronics/ARM/_Library/u8x8_d_ssd1306_128x64_noname.c ****   U8X8_C(0x0a4),				/* output ram to display */
  71:/Users/imashio/Electronics/ARM/_Library/u8x8_d_ssd1306_128x64_noname.c ****   U8X8_C(0x0a6),				/* none inverted normal display mode */
  72:/Users/imashio/Electronics/ARM/_Library/u8x8_d_ssd1306_128x64_noname.c ****     
  73:/Users/imashio/Electronics/ARM/_Library/u8x8_d_ssd1306_128x64_noname.c ****   U8X8_END_TRANSFER(),             	/* disable chip */
  74:/Users/imashio/Electronics/ARM/_Library/u8x8_d_ssd1306_128x64_noname.c ****   U8X8_END()             			/* end of sequence */
  75:/Users/imashio/Electronics/ARM/_Library/u8x8_d_ssd1306_128x64_noname.c **** };
  76:/Users/imashio/Electronics/ARM/_Library/u8x8_d_ssd1306_128x64_noname.c **** 
  77:/Users/imashio/Electronics/ARM/_Library/u8x8_d_ssd1306_128x64_noname.c **** /* this setup maximizes the brightness range, that can be set with setContrast() */
  78:/Users/imashio/Electronics/ARM/_Library/u8x8_d_ssd1306_128x64_noname.c **** /* Drawback: VCOMH deselect level is set to 0, which das not work so good with all OLEDs, issue #11
  79:/Users/imashio/Electronics/ARM/_Library/u8x8_d_ssd1306_128x64_noname.c **** static const uint8_t u8x8_d_ssd1306_128x64_vcomh0_init_seq[] = {
  80:/Users/imashio/Electronics/ARM/_Library/u8x8_d_ssd1306_128x64_noname.c ****     
  81:/Users/imashio/Electronics/ARM/_Library/u8x8_d_ssd1306_128x64_noname.c ****   U8X8_START_TRANSFER(),             	/* enable chip, delay is part of the transfer start */
  82:/Users/imashio/Electronics/ARM/_Library/u8x8_d_ssd1306_128x64_noname.c ****   
  83:/Users/imashio/Electronics/ARM/_Library/u8x8_d_ssd1306_128x64_noname.c ****   
  84:/Users/imashio/Electronics/ARM/_Library/u8x8_d_ssd1306_128x64_noname.c ****   U8X8_C(0x0ae),		                /* display off */
  85:/Users/imashio/Electronics/ARM/_Library/u8x8_d_ssd1306_128x64_noname.c ****   U8X8_CA(0x0d5, 0x080),		/* clock divide ratio (0x00=1) and oscillator frequency (0x8) */
  86:/Users/imashio/Electronics/ARM/_Library/u8x8_d_ssd1306_128x64_noname.c ****   U8X8_CA(0x0a8, 0x03f),		/* multiplex ratio */
  87:/Users/imashio/Electronics/ARM/_Library/u8x8_d_ssd1306_128x64_noname.c ****   U8X8_CA(0x0d3, 0x000),		/* display offset */
  88:/Users/imashio/Electronics/ARM/_Library/u8x8_d_ssd1306_128x64_noname.c ****   U8X8_C(0x040),		                /* set display start line to 0 */
ARM GAS  /var/folders/v3/wysfpd052nz8jkbx04pk0ym80000gn/T//cc7iMqWr.s 			page 3


  89:/Users/imashio/Electronics/ARM/_Library/u8x8_d_ssd1306_128x64_noname.c ****   U8X8_CA(0x08d, 0x014),		/* [2] charge pump setting (p62): 0x014 enable, 0x010 disable */
  90:/Users/imashio/Electronics/ARM/_Library/u8x8_d_ssd1306_128x64_noname.c ****   U8X8_CA(0x020, 0x000),		/* page addressing mode */
  91:/Users/imashio/Electronics/ARM/_Library/u8x8_d_ssd1306_128x64_noname.c ****   
  92:/Users/imashio/Electronics/ARM/_Library/u8x8_d_ssd1306_128x64_noname.c ****   U8X8_C(0x0a1),				/* segment remap a0/a1*/
  93:/Users/imashio/Electronics/ARM/_Library/u8x8_d_ssd1306_128x64_noname.c ****   U8X8_C(0x0c8),				/* c0: scan dir normal, c8: reverse */
  94:/Users/imashio/Electronics/ARM/_Library/u8x8_d_ssd1306_128x64_noname.c ****   // Flipmode
  95:/Users/imashio/Electronics/ARM/_Library/u8x8_d_ssd1306_128x64_noname.c ****   // U8X8_C(0x0a0),				/* segment remap a0/a1*/
  96:/Users/imashio/Electronics/ARM/_Library/u8x8_d_ssd1306_128x64_noname.c ****   // U8X8_C(0x0c0),				/* c0: scan dir normal, c8: reverse */
  97:/Users/imashio/Electronics/ARM/_Library/u8x8_d_ssd1306_128x64_noname.c ****   
  98:/Users/imashio/Electronics/ARM/_Library/u8x8_d_ssd1306_128x64_noname.c ****   U8X8_CA(0x0da, 0x012),		/* com pin HW config, sequential com pin config (bit 4), disable left/rig
  99:/Users/imashio/Electronics/ARM/_Library/u8x8_d_ssd1306_128x64_noname.c ****   U8X8_CA(0x081, 0x0ef),		/* [2] set contrast control,  */
 100:/Users/imashio/Electronics/ARM/_Library/u8x8_d_ssd1306_128x64_noname.c ****   U8X8_CA(0x0d9, 0x0a1),		/* [2] pre-charge period 0x022/f1*/
 101:/Users/imashio/Electronics/ARM/_Library/u8x8_d_ssd1306_128x64_noname.c ****   U8X8_CA(0x0db, 0x000),		/* vcomh deselect level 0x000 .. 0x070, low nibble always 0 */
 102:/Users/imashio/Electronics/ARM/_Library/u8x8_d_ssd1306_128x64_noname.c ****   // if vcomh is 0, then this will give the biggest range for contrast control issue #98
 103:/Users/imashio/Electronics/ARM/_Library/u8x8_d_ssd1306_128x64_noname.c ****   
 104:/Users/imashio/Electronics/ARM/_Library/u8x8_d_ssd1306_128x64_noname.c ****   U8X8_C(0x02e),				/* Deactivate scroll */ 
 105:/Users/imashio/Electronics/ARM/_Library/u8x8_d_ssd1306_128x64_noname.c ****   U8X8_C(0x0a4),				/* output ram to display */
 106:/Users/imashio/Electronics/ARM/_Library/u8x8_d_ssd1306_128x64_noname.c ****   U8X8_C(0x0a6),				/* none inverted normal display mode */
 107:/Users/imashio/Electronics/ARM/_Library/u8x8_d_ssd1306_128x64_noname.c ****     
 108:/Users/imashio/Electronics/ARM/_Library/u8x8_d_ssd1306_128x64_noname.c ****   U8X8_END_TRANSFER(),             	/* disable chip */
 109:/Users/imashio/Electronics/ARM/_Library/u8x8_d_ssd1306_128x64_noname.c ****   U8X8_END()             			/* end of sequence */
 110:/Users/imashio/Electronics/ARM/_Library/u8x8_d_ssd1306_128x64_noname.c **** };
 111:/Users/imashio/Electronics/ARM/_Library/u8x8_d_ssd1306_128x64_noname.c **** 
 112:/Users/imashio/Electronics/ARM/_Library/u8x8_d_ssd1306_128x64_noname.c **** 
 113:/Users/imashio/Electronics/ARM/_Library/u8x8_d_ssd1306_128x64_noname.c **** /* same as u8x8_d_ssd1306_128x64_noname_init_seq, but 0x0da bit 4 is set to 0 */
 114:/Users/imashio/Electronics/ARM/_Library/u8x8_d_ssd1306_128x64_noname.c **** /* this will disable the alternative COM configuration */
 115:/Users/imashio/Electronics/ARM/_Library/u8x8_d_ssd1306_128x64_noname.c **** static const uint8_t u8x8_d_ssd1306_128x64_alt0_init_seq[] = {
 116:/Users/imashio/Electronics/ARM/_Library/u8x8_d_ssd1306_128x64_noname.c ****     
 117:/Users/imashio/Electronics/ARM/_Library/u8x8_d_ssd1306_128x64_noname.c ****   U8X8_START_TRANSFER(),             	/* enable chip, delay is part of the transfer start */
 118:/Users/imashio/Electronics/ARM/_Library/u8x8_d_ssd1306_128x64_noname.c ****   
 119:/Users/imashio/Electronics/ARM/_Library/u8x8_d_ssd1306_128x64_noname.c ****   
 120:/Users/imashio/Electronics/ARM/_Library/u8x8_d_ssd1306_128x64_noname.c ****   U8X8_C(0x0ae),		                /* display off */
 121:/Users/imashio/Electronics/ARM/_Library/u8x8_d_ssd1306_128x64_noname.c ****   U8X8_CA(0x0d5, 0x080),		/* clock divide ratio (0x00=1) and oscillator frequency (0x8) */
 122:/Users/imashio/Electronics/ARM/_Library/u8x8_d_ssd1306_128x64_noname.c ****   U8X8_CA(0x0a8, 0x03f),		/* multiplex ratio */
 123:/Users/imashio/Electronics/ARM/_Library/u8x8_d_ssd1306_128x64_noname.c ****   U8X8_CA(0x0d3, 0x000),		/* display offset */
 124:/Users/imashio/Electronics/ARM/_Library/u8x8_d_ssd1306_128x64_noname.c ****   U8X8_C(0x040),		                /* set display start line to 0 */
 125:/Users/imashio/Electronics/ARM/_Library/u8x8_d_ssd1306_128x64_noname.c ****   U8X8_CA(0x08d, 0x014),		/* [2] charge pump setting (p62): 0x014 enable, 0x010 disable, SSD1306 on
 126:/Users/imashio/Electronics/ARM/_Library/u8x8_d_ssd1306_128x64_noname.c ****   U8X8_CA(0x020, 0x000),		/* page addressing mode */
 127:/Users/imashio/Electronics/ARM/_Library/u8x8_d_ssd1306_128x64_noname.c ****   
 128:/Users/imashio/Electronics/ARM/_Library/u8x8_d_ssd1306_128x64_noname.c ****   U8X8_C(0x0a1),				/* segment remap a0/a1*/
 129:/Users/imashio/Electronics/ARM/_Library/u8x8_d_ssd1306_128x64_noname.c ****   U8X8_C(0x0c8),				/* c0: scan dir normal, c8: reverse */
 130:/Users/imashio/Electronics/ARM/_Library/u8x8_d_ssd1306_128x64_noname.c ****   // Flipmode
 131:/Users/imashio/Electronics/ARM/_Library/u8x8_d_ssd1306_128x64_noname.c ****   // U8X8_C(0x0a0),				/* segment remap a0/a1*/
 132:/Users/imashio/Electronics/ARM/_Library/u8x8_d_ssd1306_128x64_noname.c ****   // U8X8_C(0x0c0),				/* c0: scan dir normal, c8: reverse */
 133:/Users/imashio/Electronics/ARM/_Library/u8x8_d_ssd1306_128x64_noname.c ****   
 134:/Users/imashio/Electronics/ARM/_Library/u8x8_d_ssd1306_128x64_noname.c ****   U8X8_CA(0x0da, 0x002),		/* com pin HW config, sequential com pin config (bit 4), disable left/rig
 135:/Users/imashio/Electronics/ARM/_Library/u8x8_d_ssd1306_128x64_noname.c **** 
 136:/Users/imashio/Electronics/ARM/_Library/u8x8_d_ssd1306_128x64_noname.c ****   U8X8_CA(0x081, 0x0cf), 		/* [2] set contrast control */
 137:/Users/imashio/Electronics/ARM/_Library/u8x8_d_ssd1306_128x64_noname.c ****   U8X8_CA(0x0d9, 0x0f1), 		/* [2] pre-charge period 0x022/f1*/
 138:/Users/imashio/Electronics/ARM/_Library/u8x8_d_ssd1306_128x64_noname.c ****   U8X8_CA(0x0db, 0x040), 		/* vcomh deselect level */  
 139:/Users/imashio/Electronics/ARM/_Library/u8x8_d_ssd1306_128x64_noname.c ****   // if vcomh is 0, then this will give the biggest range for contrast control issue #98
 140:/Users/imashio/Electronics/ARM/_Library/u8x8_d_ssd1306_128x64_noname.c ****   // restored the old values for the noname constructor, because vcomh=0 will not work for all OLED
 141:/Users/imashio/Electronics/ARM/_Library/u8x8_d_ssd1306_128x64_noname.c ****   
 142:/Users/imashio/Electronics/ARM/_Library/u8x8_d_ssd1306_128x64_noname.c ****   U8X8_C(0x02e),				/* Deactivate scroll */ 
 143:/Users/imashio/Electronics/ARM/_Library/u8x8_d_ssd1306_128x64_noname.c ****   U8X8_C(0x0a4),				/* output ram to display */
 144:/Users/imashio/Electronics/ARM/_Library/u8x8_d_ssd1306_128x64_noname.c ****   U8X8_C(0x0a6),				/* none inverted normal display mode */
 145:/Users/imashio/Electronics/ARM/_Library/u8x8_d_ssd1306_128x64_noname.c ****     
ARM GAS  /var/folders/v3/wysfpd052nz8jkbx04pk0ym80000gn/T//cc7iMqWr.s 			page 4


 146:/Users/imashio/Electronics/ARM/_Library/u8x8_d_ssd1306_128x64_noname.c ****   U8X8_END_TRANSFER(),             	/* disable chip */
 147:/Users/imashio/Electronics/ARM/_Library/u8x8_d_ssd1306_128x64_noname.c ****   U8X8_END()             			/* end of sequence */
 148:/Users/imashio/Electronics/ARM/_Library/u8x8_d_ssd1306_128x64_noname.c **** };
 149:/Users/imashio/Electronics/ARM/_Library/u8x8_d_ssd1306_128x64_noname.c **** 
 150:/Users/imashio/Electronics/ARM/_Library/u8x8_d_ssd1306_128x64_noname.c **** 
 151:/Users/imashio/Electronics/ARM/_Library/u8x8_d_ssd1306_128x64_noname.c **** 
 152:/Users/imashio/Electronics/ARM/_Library/u8x8_d_ssd1306_128x64_noname.c **** /* issue 316: a special sh1106 setup, https://www.mikrocontroller.net/topic/431371?goto=5087807#508
 153:/Users/imashio/Electronics/ARM/_Library/u8x8_d_ssd1306_128x64_noname.c **** static const uint8_t u8x8_d_sh1106_128x64_winstar_init_seq[] = {
 154:/Users/imashio/Electronics/ARM/_Library/u8x8_d_ssd1306_128x64_noname.c ****     
 155:/Users/imashio/Electronics/ARM/_Library/u8x8_d_ssd1306_128x64_noname.c ****   U8X8_START_TRANSFER(),             	/* enable chip, delay is part of the transfer start */
 156:/Users/imashio/Electronics/ARM/_Library/u8x8_d_ssd1306_128x64_noname.c ****   
 157:/Users/imashio/Electronics/ARM/_Library/u8x8_d_ssd1306_128x64_noname.c ****   U8X8_C(0xae),                 // Display OFF/ON: off (POR = 0xae)
 158:/Users/imashio/Electronics/ARM/_Library/u8x8_d_ssd1306_128x64_noname.c ****   U8X8_C(0xa4),                 // Set Entire Display OFF/ON: off (POR = 0xa4)
 159:/Users/imashio/Electronics/ARM/_Library/u8x8_d_ssd1306_128x64_noname.c ****   U8X8_CA(0xd5, 0x50),       // Divide Ratio/Oscillator FrequencyData Set: divide ratio = 1 (POR = 
 160:/Users/imashio/Electronics/ARM/_Library/u8x8_d_ssd1306_128x64_noname.c ****   U8X8_CA(0xa8, 0x3f),       // Multiplex Ratio Data Set: 64 (POR = 0x3f, 64)
 161:/Users/imashio/Electronics/ARM/_Library/u8x8_d_ssd1306_128x64_noname.c ****   U8X8_CA(0xd3, 0x00),       // Display OffsetData Set: 0 (POR = 0x00)
 162:/Users/imashio/Electronics/ARM/_Library/u8x8_d_ssd1306_128x64_noname.c ****   U8X8_C(0x40),                 // Set Display Start Line: 0  
 163:/Users/imashio/Electronics/ARM/_Library/u8x8_d_ssd1306_128x64_noname.c ****   U8X8_CA(0xad, 0x8b),       // DC-DC ON/OFF Mode Set: Built-in DC-DC is used, Normal Display (POR 
 164:/Users/imashio/Electronics/ARM/_Library/u8x8_d_ssd1306_128x64_noname.c ****   U8X8_CA(0xd9, 0x22),       // Dis-charge/Pre-charge PeriodData Set: pre-charge 2 DCLKs, dis-charg
 165:/Users/imashio/Electronics/ARM/_Library/u8x8_d_ssd1306_128x64_noname.c ****   U8X8_CA(0xdb, 0x35),       // VCOM Deselect LevelData Set: 0,770V (POR = 0x35, 0,770 V)
 166:/Users/imashio/Electronics/ARM/_Library/u8x8_d_ssd1306_128x64_noname.c ****   U8X8_C(0x32), // Set Pump voltage value: 8,0 V (POR = 0x32, 8,0 V)
 167:/Users/imashio/Electronics/ARM/_Library/u8x8_d_ssd1306_128x64_noname.c ****   U8X8_CA(0x81, 0xff),       // Contrast Data Register Set: 255 (large) (POR = 0x80)
 168:/Users/imashio/Electronics/ARM/_Library/u8x8_d_ssd1306_128x64_noname.c ****   U8X8_C(0x0a6),			// Set Normal/Reverse Display: normal (POR = 0xa6)
 169:/Users/imashio/Electronics/ARM/_Library/u8x8_d_ssd1306_128x64_noname.c ****   U8X8_CA(0x0da, 0x012),		// com pin HW config, sequential com pin config (bit 4), disable left/rig
 170:/Users/imashio/Electronics/ARM/_Library/u8x8_d_ssd1306_128x64_noname.c ****       
 171:/Users/imashio/Electronics/ARM/_Library/u8x8_d_ssd1306_128x64_noname.c ****   U8X8_END_TRANSFER(),             	/* disable chip */
 172:/Users/imashio/Electronics/ARM/_Library/u8x8_d_ssd1306_128x64_noname.c ****   U8X8_END()             			/* end of sequence */
 173:/Users/imashio/Electronics/ARM/_Library/u8x8_d_ssd1306_128x64_noname.c **** };
 174:/Users/imashio/Electronics/ARM/_Library/u8x8_d_ssd1306_128x64_noname.c **** 
 175:/Users/imashio/Electronics/ARM/_Library/u8x8_d_ssd1306_128x64_noname.c **** 
 176:/Users/imashio/Electronics/ARM/_Library/u8x8_d_ssd1306_128x64_noname.c **** static const uint8_t u8x8_d_ssd1306_128x64_noname_powersave0_seq[] = {
 177:/Users/imashio/Electronics/ARM/_Library/u8x8_d_ssd1306_128x64_noname.c ****   U8X8_START_TRANSFER(),             	/* enable chip, delay is part of the transfer start */
 178:/Users/imashio/Electronics/ARM/_Library/u8x8_d_ssd1306_128x64_noname.c ****   U8X8_C(0x0af),		                /* display on */
 179:/Users/imashio/Electronics/ARM/_Library/u8x8_d_ssd1306_128x64_noname.c ****   U8X8_END_TRANSFER(),             	/* disable chip */
 180:/Users/imashio/Electronics/ARM/_Library/u8x8_d_ssd1306_128x64_noname.c ****   U8X8_END()             			/* end of sequence */
 181:/Users/imashio/Electronics/ARM/_Library/u8x8_d_ssd1306_128x64_noname.c **** };
 182:/Users/imashio/Electronics/ARM/_Library/u8x8_d_ssd1306_128x64_noname.c **** 
 183:/Users/imashio/Electronics/ARM/_Library/u8x8_d_ssd1306_128x64_noname.c **** static const uint8_t u8x8_d_ssd1306_128x64_noname_powersave1_seq[] = {
 184:/Users/imashio/Electronics/ARM/_Library/u8x8_d_ssd1306_128x64_noname.c ****   U8X8_START_TRANSFER(),             	/* enable chip, delay is part of the transfer start */
 185:/Users/imashio/Electronics/ARM/_Library/u8x8_d_ssd1306_128x64_noname.c ****   U8X8_C(0x0ae),		                /* display off */
 186:/Users/imashio/Electronics/ARM/_Library/u8x8_d_ssd1306_128x64_noname.c ****   U8X8_END_TRANSFER(),             	/* disable chip */
 187:/Users/imashio/Electronics/ARM/_Library/u8x8_d_ssd1306_128x64_noname.c ****   U8X8_END()             			/* end of sequence */
 188:/Users/imashio/Electronics/ARM/_Library/u8x8_d_ssd1306_128x64_noname.c **** };
 189:/Users/imashio/Electronics/ARM/_Library/u8x8_d_ssd1306_128x64_noname.c **** 
 190:/Users/imashio/Electronics/ARM/_Library/u8x8_d_ssd1306_128x64_noname.c **** static const uint8_t u8x8_d_ssd1306_128x64_noname_flip0_seq[] = {
 191:/Users/imashio/Electronics/ARM/_Library/u8x8_d_ssd1306_128x64_noname.c ****   U8X8_START_TRANSFER(),             	/* enable chip, delay is part of the transfer start */
 192:/Users/imashio/Electronics/ARM/_Library/u8x8_d_ssd1306_128x64_noname.c ****   U8X8_C(0x0a1),				/* segment remap a0/a1*/
 193:/Users/imashio/Electronics/ARM/_Library/u8x8_d_ssd1306_128x64_noname.c ****   U8X8_C(0x0c8),				/* c0: scan dir normal, c8: reverse */
 194:/Users/imashio/Electronics/ARM/_Library/u8x8_d_ssd1306_128x64_noname.c ****   U8X8_END_TRANSFER(),             	/* disable chip */
 195:/Users/imashio/Electronics/ARM/_Library/u8x8_d_ssd1306_128x64_noname.c ****   U8X8_END()             			/* end of sequence */
 196:/Users/imashio/Electronics/ARM/_Library/u8x8_d_ssd1306_128x64_noname.c **** };
 197:/Users/imashio/Electronics/ARM/_Library/u8x8_d_ssd1306_128x64_noname.c **** 
 198:/Users/imashio/Electronics/ARM/_Library/u8x8_d_ssd1306_128x64_noname.c **** static const uint8_t u8x8_d_ssd1306_128x64_noname_flip1_seq[] = {
 199:/Users/imashio/Electronics/ARM/_Library/u8x8_d_ssd1306_128x64_noname.c ****   U8X8_START_TRANSFER(),             	/* enable chip, delay is part of the transfer start */
 200:/Users/imashio/Electronics/ARM/_Library/u8x8_d_ssd1306_128x64_noname.c ****   U8X8_C(0x0a0),				/* segment remap a0/a1*/
 201:/Users/imashio/Electronics/ARM/_Library/u8x8_d_ssd1306_128x64_noname.c ****   U8X8_C(0x0c0),				/* c0: scan dir normal, c8: reverse */
 202:/Users/imashio/Electronics/ARM/_Library/u8x8_d_ssd1306_128x64_noname.c ****   U8X8_END_TRANSFER(),             	/* disable chip */
ARM GAS  /var/folders/v3/wysfpd052nz8jkbx04pk0ym80000gn/T//cc7iMqWr.s 			page 5


 203:/Users/imashio/Electronics/ARM/_Library/u8x8_d_ssd1306_128x64_noname.c ****   U8X8_END()             			/* end of sequence */
 204:/Users/imashio/Electronics/ARM/_Library/u8x8_d_ssd1306_128x64_noname.c **** };
 205:/Users/imashio/Electronics/ARM/_Library/u8x8_d_ssd1306_128x64_noname.c **** 
 206:/Users/imashio/Electronics/ARM/_Library/u8x8_d_ssd1306_128x64_noname.c **** 
 207:/Users/imashio/Electronics/ARM/_Library/u8x8_d_ssd1306_128x64_noname.c **** static uint8_t u8x8_d_ssd1306_sh1106_generic(u8x8_t *u8x8, uint8_t msg, uint8_t arg_int, void *arg_
 208:/Users/imashio/Electronics/ARM/_Library/u8x8_d_ssd1306_128x64_noname.c **** {
  28              		.loc 1 208 0
  29              		.cfi_startproc
  30              		@ args = 0, pretend = 0, frame = 0
  31              		@ frame_needed = 0, uses_anonymous_args = 0
  32              	.LVL0:
 209:/Users/imashio/Electronics/ARM/_Library/u8x8_d_ssd1306_128x64_noname.c ****   uint8_t x, c;
 210:/Users/imashio/Electronics/ARM/_Library/u8x8_d_ssd1306_128x64_noname.c ****   uint8_t *ptr;
 211:/Users/imashio/Electronics/ARM/_Library/u8x8_d_ssd1306_128x64_noname.c ****   switch(msg)
  33              		.loc 1 211 0
  34 0000 0B39     		subs	r1, r1, #11
  35              	.LVL1:
 208:/Users/imashio/Electronics/ARM/_Library/u8x8_d_ssd1306_128x64_noname.c ****   uint8_t x, c;
  36              		.loc 1 208 0
  37 0002 F8B5     		push	{r3, r4, r5, r6, r7, lr}
  38              	.LCFI0:
  39              		.cfi_def_cfa_offset 24
  40              		.cfi_offset 3, -24
  41              		.cfi_offset 4, -20
  42              		.cfi_offset 5, -16
  43              		.cfi_offset 6, -12
  44              		.cfi_offset 7, -8
  45              		.cfi_offset 14, -4
 208:/Users/imashio/Electronics/ARM/_Library/u8x8_d_ssd1306_128x64_noname.c ****   uint8_t x, c;
  46              		.loc 1 208 0
  47 0004 0646     		mov	r6, r0
  48 0006 1446     		mov	r4, r2
  49 0008 1D46     		mov	r5, r3
  50              		.loc 1 211 0
  51 000a 0429     		cmp	r1, #4
  52 000c 50D8     		bhi	.L11
  53 000e DFE801F0 		tbb	[pc, r1]
  54              	.LVL2:
  55              	.L4:
  56 0012 40       		.byte	(.L3-.L4)/2
  57 0013 4F       		.byte	(.L11-.L4)/2
  58 0014 46       		.byte	(.L5-.L4)/2
  59 0015 31       		.byte	(.L6-.L4)/2
  60 0016 03       		.byte	(.L7-.L4)/2
  61 0017 00       		.p2align 1
  62              	.L7:
 212:/Users/imashio/Electronics/ARM/_Library/u8x8_d_ssd1306_128x64_noname.c ****   {
 213:/Users/imashio/Electronics/ARM/_Library/u8x8_d_ssd1306_128x64_noname.c ****     /* handled by the calling function
 214:/Users/imashio/Electronics/ARM/_Library/u8x8_d_ssd1306_128x64_noname.c ****     case U8X8_MSG_DISPLAY_SETUP_MEMORY:
 215:/Users/imashio/Electronics/ARM/_Library/u8x8_d_ssd1306_128x64_noname.c ****       u8x8_d_helper_display_setup_memory(u8x8, &u8x8_ssd1306_128x64_noname_display_info);
 216:/Users/imashio/Electronics/ARM/_Library/u8x8_d_ssd1306_128x64_noname.c ****       break;
 217:/Users/imashio/Electronics/ARM/_Library/u8x8_d_ssd1306_128x64_noname.c ****     */
 218:/Users/imashio/Electronics/ARM/_Library/u8x8_d_ssd1306_128x64_noname.c ****     /* handled by the calling function
 219:/Users/imashio/Electronics/ARM/_Library/u8x8_d_ssd1306_128x64_noname.c ****     case U8X8_MSG_DISPLAY_INIT:
 220:/Users/imashio/Electronics/ARM/_Library/u8x8_d_ssd1306_128x64_noname.c ****       u8x8_d_helper_display_init(u8x8);
 221:/Users/imashio/Electronics/ARM/_Library/u8x8_d_ssd1306_128x64_noname.c ****       u8x8_cad_SendSequence(u8x8, u8x8_d_ssd1306_128x64_noname_init_seq);    
 222:/Users/imashio/Electronics/ARM/_Library/u8x8_d_ssd1306_128x64_noname.c ****       break;
ARM GAS  /var/folders/v3/wysfpd052nz8jkbx04pk0ym80000gn/T//cc7iMqWr.s 			page 6


 223:/Users/imashio/Electronics/ARM/_Library/u8x8_d_ssd1306_128x64_noname.c ****     */
 224:/Users/imashio/Electronics/ARM/_Library/u8x8_d_ssd1306_128x64_noname.c ****     case U8X8_MSG_DISPLAY_SET_POWER_SAVE:
 225:/Users/imashio/Electronics/ARM/_Library/u8x8_d_ssd1306_128x64_noname.c ****       if ( arg_int == 0 )
 226:/Users/imashio/Electronics/ARM/_Library/u8x8_d_ssd1306_128x64_noname.c **** 	u8x8_cad_SendSequence(u8x8, u8x8_d_ssd1306_128x64_noname_powersave0_seq);
 227:/Users/imashio/Electronics/ARM/_Library/u8x8_d_ssd1306_128x64_noname.c ****       else
 228:/Users/imashio/Electronics/ARM/_Library/u8x8_d_ssd1306_128x64_noname.c **** 	u8x8_cad_SendSequence(u8x8, u8x8_d_ssd1306_128x64_noname_powersave1_seq);
 229:/Users/imashio/Electronics/ARM/_Library/u8x8_d_ssd1306_128x64_noname.c ****       break;
 230:/Users/imashio/Electronics/ARM/_Library/u8x8_d_ssd1306_128x64_noname.c ****     case U8X8_MSG_DISPLAY_SET_FLIP_MODE:
 231:/Users/imashio/Electronics/ARM/_Library/u8x8_d_ssd1306_128x64_noname.c ****       if ( arg_int == 0 )
 232:/Users/imashio/Electronics/ARM/_Library/u8x8_d_ssd1306_128x64_noname.c ****       {
 233:/Users/imashio/Electronics/ARM/_Library/u8x8_d_ssd1306_128x64_noname.c **** 	u8x8_cad_SendSequence(u8x8, u8x8_d_ssd1306_128x64_noname_flip0_seq);
 234:/Users/imashio/Electronics/ARM/_Library/u8x8_d_ssd1306_128x64_noname.c **** 	u8x8->x_offset = u8x8->display_info->default_x_offset;
 235:/Users/imashio/Electronics/ARM/_Library/u8x8_d_ssd1306_128x64_noname.c ****       }
 236:/Users/imashio/Electronics/ARM/_Library/u8x8_d_ssd1306_128x64_noname.c ****       else
 237:/Users/imashio/Electronics/ARM/_Library/u8x8_d_ssd1306_128x64_noname.c ****       {
 238:/Users/imashio/Electronics/ARM/_Library/u8x8_d_ssd1306_128x64_noname.c **** 	u8x8_cad_SendSequence(u8x8, u8x8_d_ssd1306_128x64_noname_flip1_seq);
 239:/Users/imashio/Electronics/ARM/_Library/u8x8_d_ssd1306_128x64_noname.c **** 	u8x8->x_offset = u8x8->display_info->flipmode_x_offset;
 240:/Users/imashio/Electronics/ARM/_Library/u8x8_d_ssd1306_128x64_noname.c ****       }
 241:/Users/imashio/Electronics/ARM/_Library/u8x8_d_ssd1306_128x64_noname.c ****       break;
 242:/Users/imashio/Electronics/ARM/_Library/u8x8_d_ssd1306_128x64_noname.c **** #ifdef U8X8_WITH_SET_CONTRAST
 243:/Users/imashio/Electronics/ARM/_Library/u8x8_d_ssd1306_128x64_noname.c ****     case U8X8_MSG_DISPLAY_SET_CONTRAST:
 244:/Users/imashio/Electronics/ARM/_Library/u8x8_d_ssd1306_128x64_noname.c ****       u8x8_cad_StartTransfer(u8x8);
 245:/Users/imashio/Electronics/ARM/_Library/u8x8_d_ssd1306_128x64_noname.c ****       u8x8_cad_SendCmd(u8x8, 0x081 );
 246:/Users/imashio/Electronics/ARM/_Library/u8x8_d_ssd1306_128x64_noname.c ****       u8x8_cad_SendArg(u8x8, arg_int );	/* ssd1306 has range from 0 to 255 */
 247:/Users/imashio/Electronics/ARM/_Library/u8x8_d_ssd1306_128x64_noname.c ****       u8x8_cad_EndTransfer(u8x8);
 248:/Users/imashio/Electronics/ARM/_Library/u8x8_d_ssd1306_128x64_noname.c ****       break;
 249:/Users/imashio/Electronics/ARM/_Library/u8x8_d_ssd1306_128x64_noname.c **** #endif
 250:/Users/imashio/Electronics/ARM/_Library/u8x8_d_ssd1306_128x64_noname.c ****     case U8X8_MSG_DISPLAY_DRAW_TILE:
 251:/Users/imashio/Electronics/ARM/_Library/u8x8_d_ssd1306_128x64_noname.c ****       u8x8_cad_StartTransfer(u8x8);
  63              		.loc 1 251 0
  64 0018 FFF7FEFF 		bl	u8x8_cad_StartTransfer
  65              	.LVL3:
 252:/Users/imashio/Electronics/ARM/_Library/u8x8_d_ssd1306_128x64_noname.c ****       x = ((u8x8_tile_t *)arg_ptr)->x_pos;    
  66              		.loc 1 252 0
  67 001c 6B79     		ldrb	r3, [r5, #5]	@ zero_extendqisi2
  68              	.LVL4:
 253:/Users/imashio/Electronics/ARM/_Library/u8x8_d_ssd1306_128x64_noname.c ****       x *= 8;
 254:/Users/imashio/Electronics/ARM/_Library/u8x8_d_ssd1306_128x64_noname.c ****       x += u8x8->x_offset;
  69              		.loc 1 254 0
  70 001e B77F     		ldrb	r7, [r6, #30]	@ zero_extendqisi2
  71 0020 07EBC307 		add	r7, r7, r3, lsl #3
  72 0024 07F0FF07 		and	r7, r7, #255
  73              	.LVL5:
 255:/Users/imashio/Electronics/ARM/_Library/u8x8_d_ssd1306_128x64_noname.c ****     
 256:/Users/imashio/Electronics/ARM/_Library/u8x8_d_ssd1306_128x64_noname.c ****       u8x8_cad_SendCmd(u8x8, 0x040 );	/* set line offset to 0 */
  74              		.loc 1 256 0
  75 0028 4021     		movs	r1, #64
  76 002a 3046     		mov	r0, r6
  77 002c FFF7FEFF 		bl	u8x8_cad_SendCmd
  78              	.LVL6:
 257:/Users/imashio/Electronics/ARM/_Library/u8x8_d_ssd1306_128x64_noname.c ****     
 258:/Users/imashio/Electronics/ARM/_Library/u8x8_d_ssd1306_128x64_noname.c ****       u8x8_cad_SendCmd(u8x8, 0x010 | (x>>4) );
  79              		.loc 1 258 0
  80 0030 3909     		lsrs	r1, r7, #4
  81 0032 41F01001 		orr	r1, r1, #16
  82 0036 3046     		mov	r0, r6
  83 0038 FFF7FEFF 		bl	u8x8_cad_SendCmd
ARM GAS  /var/folders/v3/wysfpd052nz8jkbx04pk0ym80000gn/T//cc7iMqWr.s 			page 7


  84              	.LVL7:
 259:/Users/imashio/Electronics/ARM/_Library/u8x8_d_ssd1306_128x64_noname.c ****       u8x8_cad_SendArg(u8x8, 0x000 | ((x&15)));					/* probably wrong, should be SendCmd */
  85              		.loc 1 259 0
  86 003c 07F00F01 		and	r1, r7, #15
  87 0040 3046     		mov	r0, r6
  88 0042 FFF7FEFF 		bl	u8x8_cad_SendArg
  89              	.LVL8:
 260:/Users/imashio/Electronics/ARM/_Library/u8x8_d_ssd1306_128x64_noname.c ****       u8x8_cad_SendArg(u8x8, 0x0b0 | (((u8x8_tile_t *)arg_ptr)->y_pos));	/* probably wrong, should 
  90              		.loc 1 260 0
  91 0046 A979     		ldrb	r1, [r5, #6]	@ zero_extendqisi2
  92 0048 3046     		mov	r0, r6
  93 004a 41F0B001 		orr	r1, r1, #176
  94 004e FFF7FEFF 		bl	u8x8_cad_SendArg
  95              	.LVL9:
  96              	.L10:
 261:/Users/imashio/Electronics/ARM/_Library/u8x8_d_ssd1306_128x64_noname.c **** 
 262:/Users/imashio/Electronics/ARM/_Library/u8x8_d_ssd1306_128x64_noname.c ****     
 263:/Users/imashio/Electronics/ARM/_Library/u8x8_d_ssd1306_128x64_noname.c ****       do
 264:/Users/imashio/Electronics/ARM/_Library/u8x8_d_ssd1306_128x64_noname.c ****       {
 265:/Users/imashio/Electronics/ARM/_Library/u8x8_d_ssd1306_128x64_noname.c **** 	c = ((u8x8_tile_t *)arg_ptr)->cnt;
 266:/Users/imashio/Electronics/ARM/_Library/u8x8_d_ssd1306_128x64_noname.c **** 	ptr = ((u8x8_tile_t *)arg_ptr)->tile_ptr;
 267:/Users/imashio/Electronics/ARM/_Library/u8x8_d_ssd1306_128x64_noname.c **** 	u8x8_cad_SendData(u8x8, c*8, ptr); 	/* note: SendData can not handle more than 255 bytes */
  97              		.loc 1 267 0 discriminator 1
  98 0052 2979     		ldrb	r1, [r5, #4]	@ zero_extendqisi2
  99 0054 2A68     		ldr	r2, [r5]
 100 0056 C900     		lsls	r1, r1, #3
 101 0058 01F0F801 		and	r1, r1, #248
 102 005c 3046     		mov	r0, r6
 268:/Users/imashio/Electronics/ARM/_Library/u8x8_d_ssd1306_128x64_noname.c **** 	/*
 269:/Users/imashio/Electronics/ARM/_Library/u8x8_d_ssd1306_128x64_noname.c **** 	do
 270:/Users/imashio/Electronics/ARM/_Library/u8x8_d_ssd1306_128x64_noname.c **** 	{
 271:/Users/imashio/Electronics/ARM/_Library/u8x8_d_ssd1306_128x64_noname.c **** 	  u8x8_cad_SendData(u8x8, 8, ptr);
 272:/Users/imashio/Electronics/ARM/_Library/u8x8_d_ssd1306_128x64_noname.c **** 	  ptr += 8;
 273:/Users/imashio/Electronics/ARM/_Library/u8x8_d_ssd1306_128x64_noname.c **** 	  c--;
 274:/Users/imashio/Electronics/ARM/_Library/u8x8_d_ssd1306_128x64_noname.c **** 	} while( c > 0 );
 275:/Users/imashio/Electronics/ARM/_Library/u8x8_d_ssd1306_128x64_noname.c **** 	*/
 276:/Users/imashio/Electronics/ARM/_Library/u8x8_d_ssd1306_128x64_noname.c **** 	arg_int--;
 103              		.loc 1 276 0 discriminator 1
 104 005e 013C     		subs	r4, r4, #1
 105              	.LVL10:
 267:/Users/imashio/Electronics/ARM/_Library/u8x8_d_ssd1306_128x64_noname.c **** 	/*
 106              		.loc 1 267 0 discriminator 1
 107 0060 FFF7FEFF 		bl	u8x8_cad_SendData
 108              	.LVL11:
 277:/Users/imashio/Electronics/ARM/_Library/u8x8_d_ssd1306_128x64_noname.c ****       } while( arg_int > 0 );
 109              		.loc 1 277 0 discriminator 1
 110 0064 14F0FF04 		ands	r4, r4, #255
 111              	.LVL12:
 112 0068 F3D1     		bne	.L10
 278:/Users/imashio/Electronics/ARM/_Library/u8x8_d_ssd1306_128x64_noname.c ****       
 279:/Users/imashio/Electronics/ARM/_Library/u8x8_d_ssd1306_128x64_noname.c ****       u8x8_cad_EndTransfer(u8x8);
 113              		.loc 1 279 0
 114 006a 3046     		mov	r0, r6
 115 006c FFF7FEFF 		bl	u8x8_cad_EndTransfer
 116              	.LVL13:
 280:/Users/imashio/Electronics/ARM/_Library/u8x8_d_ssd1306_128x64_noname.c ****       break;
 281:/Users/imashio/Electronics/ARM/_Library/u8x8_d_ssd1306_128x64_noname.c ****     default:
ARM GAS  /var/folders/v3/wysfpd052nz8jkbx04pk0ym80000gn/T//cc7iMqWr.s 			page 8


 282:/Users/imashio/Electronics/ARM/_Library/u8x8_d_ssd1306_128x64_noname.c ****       return 0;
 283:/Users/imashio/Electronics/ARM/_Library/u8x8_d_ssd1306_128x64_noname.c ****   }
 284:/Users/imashio/Electronics/ARM/_Library/u8x8_d_ssd1306_128x64_noname.c ****   return 1;
 117              		.loc 1 284 0
 118 0070 0120     		movs	r0, #1
 285:/Users/imashio/Electronics/ARM/_Library/u8x8_d_ssd1306_128x64_noname.c **** }
 119              		.loc 1 285 0
 120 0072 F8BD     		pop	{r3, r4, r5, r6, r7, pc}
 121              	.LVL14:
 122              	.L6:
 244:/Users/imashio/Electronics/ARM/_Library/u8x8_d_ssd1306_128x64_noname.c ****       u8x8_cad_SendCmd(u8x8, 0x081 );
 123              		.loc 1 244 0
 124 0074 FFF7FEFF 		bl	u8x8_cad_StartTransfer
 125              	.LVL15:
 245:/Users/imashio/Electronics/ARM/_Library/u8x8_d_ssd1306_128x64_noname.c ****       u8x8_cad_SendArg(u8x8, arg_int );	/* ssd1306 has range from 0 to 255 */
 126              		.loc 1 245 0
 127 0078 8121     		movs	r1, #129
 128 007a 3046     		mov	r0, r6
 129 007c FFF7FEFF 		bl	u8x8_cad_SendCmd
 130              	.LVL16:
 246:/Users/imashio/Electronics/ARM/_Library/u8x8_d_ssd1306_128x64_noname.c ****       u8x8_cad_EndTransfer(u8x8);
 131              		.loc 1 246 0
 132 0080 2146     		mov	r1, r4
 133 0082 3046     		mov	r0, r6
 134 0084 FFF7FEFF 		bl	u8x8_cad_SendArg
 135              	.LVL17:
 247:/Users/imashio/Electronics/ARM/_Library/u8x8_d_ssd1306_128x64_noname.c ****       break;
 136              		.loc 1 247 0
 137 0088 3046     		mov	r0, r6
 138 008a FFF7FEFF 		bl	u8x8_cad_EndTransfer
 139              	.LVL18:
 284:/Users/imashio/Electronics/ARM/_Library/u8x8_d_ssd1306_128x64_noname.c **** }
 140              		.loc 1 284 0
 141 008e 0120     		movs	r0, #1
 142              		.loc 1 285 0
 143 0090 F8BD     		pop	{r3, r4, r5, r6, r7, pc}
 144              	.LVL19:
 145              	.L3:
 225:/Users/imashio/Electronics/ARM/_Library/u8x8_d_ssd1306_128x64_noname.c **** 	u8x8_cad_SendSequence(u8x8, u8x8_d_ssd1306_128x64_noname_powersave0_seq);
 146              		.loc 1 225 0
 147 0092 BAB9     		cbnz	r2, .L8
 226:/Users/imashio/Electronics/ARM/_Library/u8x8_d_ssd1306_128x64_noname.c ****       else
 148              		.loc 1 226 0
 149 0094 0E49     		ldr	r1, .L15
 150 0096 FFF7FEFF 		bl	u8x8_cad_SendSequence
 151              	.LVL20:
 284:/Users/imashio/Electronics/ARM/_Library/u8x8_d_ssd1306_128x64_noname.c **** }
 152              		.loc 1 284 0
 153 009a 0120     		movs	r0, #1
 154              		.loc 1 285 0
 155 009c F8BD     		pop	{r3, r4, r5, r6, r7, pc}
 156              	.LVL21:
 157              	.L5:
 231:/Users/imashio/Electronics/ARM/_Library/u8x8_d_ssd1306_128x64_noname.c ****       {
 158              		.loc 1 231 0
 159 009e 4AB9     		cbnz	r2, .L9
 233:/Users/imashio/Electronics/ARM/_Library/u8x8_d_ssd1306_128x64_noname.c **** 	u8x8->x_offset = u8x8->display_info->default_x_offset;
ARM GAS  /var/folders/v3/wysfpd052nz8jkbx04pk0ym80000gn/T//cc7iMqWr.s 			page 9


 160              		.loc 1 233 0
 161 00a0 0C49     		ldr	r1, .L15+4
 162 00a2 FFF7FEFF 		bl	u8x8_cad_SendSequence
 163              	.LVL22:
 234:/Users/imashio/Electronics/ARM/_Library/u8x8_d_ssd1306_128x64_noname.c ****       }
 164              		.loc 1 234 0
 165 00a6 3368     		ldr	r3, [r6]
 166 00a8 9B7C     		ldrb	r3, [r3, #18]	@ zero_extendqisi2
 167 00aa B377     		strb	r3, [r6, #30]
 284:/Users/imashio/Electronics/ARM/_Library/u8x8_d_ssd1306_128x64_noname.c **** }
 168              		.loc 1 284 0
 169 00ac 0120     		movs	r0, #1
 170              		.loc 1 285 0
 171 00ae F8BD     		pop	{r3, r4, r5, r6, r7, pc}
 172              	.LVL23:
 173              	.L11:
 282:/Users/imashio/Electronics/ARM/_Library/u8x8_d_ssd1306_128x64_noname.c ****   }
 174              		.loc 1 282 0
 175 00b0 0020     		movs	r0, #0
 176              	.LVL24:
 177              		.loc 1 285 0
 178 00b2 F8BD     		pop	{r3, r4, r5, r6, r7, pc}
 179              	.LVL25:
 180              	.L9:
 238:/Users/imashio/Electronics/ARM/_Library/u8x8_d_ssd1306_128x64_noname.c **** 	u8x8->x_offset = u8x8->display_info->flipmode_x_offset;
 181              		.loc 1 238 0
 182 00b4 0849     		ldr	r1, .L15+8
 183 00b6 FFF7FEFF 		bl	u8x8_cad_SendSequence
 184              	.LVL26:
 239:/Users/imashio/Electronics/ARM/_Library/u8x8_d_ssd1306_128x64_noname.c ****       }
 185              		.loc 1 239 0
 186 00ba 3368     		ldr	r3, [r6]
 187 00bc DB7C     		ldrb	r3, [r3, #19]	@ zero_extendqisi2
 188 00be B377     		strb	r3, [r6, #30]
 284:/Users/imashio/Electronics/ARM/_Library/u8x8_d_ssd1306_128x64_noname.c **** }
 189              		.loc 1 284 0
 190 00c0 0120     		movs	r0, #1
 191              		.loc 1 285 0
 192 00c2 F8BD     		pop	{r3, r4, r5, r6, r7, pc}
 193              	.LVL27:
 194              	.L8:
 228:/Users/imashio/Electronics/ARM/_Library/u8x8_d_ssd1306_128x64_noname.c ****       break;
 195              		.loc 1 228 0
 196 00c4 0549     		ldr	r1, .L15+12
 197 00c6 FFF7FEFF 		bl	u8x8_cad_SendSequence
 198              	.LVL28:
 284:/Users/imashio/Electronics/ARM/_Library/u8x8_d_ssd1306_128x64_noname.c **** }
 199              		.loc 1 284 0
 200 00ca 0120     		movs	r0, #1
 201              		.loc 1 285 0
 202 00cc F8BD     		pop	{r3, r4, r5, r6, r7, pc}
 203              	.LVL29:
 204              	.L16:
 205 00ce 00BF     		.align	2
 206              	.L15:
 207 00d0 00000000 		.word	.LANCHOR0
 208 00d4 00000000 		.word	.LANCHOR2
ARM GAS  /var/folders/v3/wysfpd052nz8jkbx04pk0ym80000gn/T//cc7iMqWr.s 			page 10


 209 00d8 00000000 		.word	.LANCHOR3
 210 00dc 00000000 		.word	.LANCHOR1
 211              		.cfi_endproc
 212              	.LFE0:
 214              		.section	.text.u8x8_d_ssd1306_128x64_noname,"ax",%progbits
 215              		.align	1
 216              		.p2align 2,,3
 217              		.global	u8x8_d_ssd1306_128x64_noname
 218              		.syntax unified
 219              		.thumb
 220              		.thumb_func
 221              		.fpu fpv4-sp-d16
 223              	u8x8_d_ssd1306_128x64_noname:
 224              	.LFB1:
 286:/Users/imashio/Electronics/ARM/_Library/u8x8_d_ssd1306_128x64_noname.c **** 
 287:/Users/imashio/Electronics/ARM/_Library/u8x8_d_ssd1306_128x64_noname.c **** 
 288:/Users/imashio/Electronics/ARM/_Library/u8x8_d_ssd1306_128x64_noname.c **** static const u8x8_display_info_t u8x8_ssd1306_128x64_noname_display_info =
 289:/Users/imashio/Electronics/ARM/_Library/u8x8_d_ssd1306_128x64_noname.c **** {
 290:/Users/imashio/Electronics/ARM/_Library/u8x8_d_ssd1306_128x64_noname.c ****   /* chip_enable_level = */ 0,
 291:/Users/imashio/Electronics/ARM/_Library/u8x8_d_ssd1306_128x64_noname.c ****   /* chip_disable_level = */ 1,
 292:/Users/imashio/Electronics/ARM/_Library/u8x8_d_ssd1306_128x64_noname.c ****   
 293:/Users/imashio/Electronics/ARM/_Library/u8x8_d_ssd1306_128x64_noname.c ****   /* post_chip_enable_wait_ns = */ 20,
 294:/Users/imashio/Electronics/ARM/_Library/u8x8_d_ssd1306_128x64_noname.c ****   /* pre_chip_disable_wait_ns = */ 10,
 295:/Users/imashio/Electronics/ARM/_Library/u8x8_d_ssd1306_128x64_noname.c ****   /* reset_pulse_width_ms = */ 100, 	/* SSD1306: 3 us */
 296:/Users/imashio/Electronics/ARM/_Library/u8x8_d_ssd1306_128x64_noname.c ****   /* post_reset_wait_ms = */ 100, /* far east OLEDs need much longer setup time */
 297:/Users/imashio/Electronics/ARM/_Library/u8x8_d_ssd1306_128x64_noname.c ****   /* sda_setup_time_ns = */ 50,		/* SSD1306: 15ns, but cycle time is 100ns, so use 100/2 */
 298:/Users/imashio/Electronics/ARM/_Library/u8x8_d_ssd1306_128x64_noname.c ****   /* sck_pulse_width_ns = */ 50,	/* SSD1306: 20ns, but cycle time is 100ns, so use 100/2, AVR: belo
 299:/Users/imashio/Electronics/ARM/_Library/u8x8_d_ssd1306_128x64_noname.c ****   /* sck_clock_hz = */ 8000000UL,	/* since Arduino 1.6.0, the SPI bus speed in Hz. Should be  10000
 300:/Users/imashio/Electronics/ARM/_Library/u8x8_d_ssd1306_128x64_noname.c ****   /* spi_mode = */ 0,		/* active high, rising edge */
 301:/Users/imashio/Electronics/ARM/_Library/u8x8_d_ssd1306_128x64_noname.c ****   /* i2c_bus_clock_100kHz = */ 4,
 302:/Users/imashio/Electronics/ARM/_Library/u8x8_d_ssd1306_128x64_noname.c ****   /* data_setup_time_ns = */ 40,
 303:/Users/imashio/Electronics/ARM/_Library/u8x8_d_ssd1306_128x64_noname.c ****   /* write_pulse_width_ns = */ 150,	/* SSD1306: cycle time is 300ns, so use 300/2 = 150 */
 304:/Users/imashio/Electronics/ARM/_Library/u8x8_d_ssd1306_128x64_noname.c ****   /* tile_width = */ 16,
 305:/Users/imashio/Electronics/ARM/_Library/u8x8_d_ssd1306_128x64_noname.c ****   /* tile_hight = */ 8,
 306:/Users/imashio/Electronics/ARM/_Library/u8x8_d_ssd1306_128x64_noname.c ****   /* default_x_offset = */ 0,
 307:/Users/imashio/Electronics/ARM/_Library/u8x8_d_ssd1306_128x64_noname.c ****   /* flipmode_x_offset = */ 0,
 308:/Users/imashio/Electronics/ARM/_Library/u8x8_d_ssd1306_128x64_noname.c ****   /* pixel_width = */ 128,
 309:/Users/imashio/Electronics/ARM/_Library/u8x8_d_ssd1306_128x64_noname.c ****   /* pixel_height = */ 64
 310:/Users/imashio/Electronics/ARM/_Library/u8x8_d_ssd1306_128x64_noname.c **** };
 311:/Users/imashio/Electronics/ARM/_Library/u8x8_d_ssd1306_128x64_noname.c **** 
 312:/Users/imashio/Electronics/ARM/_Library/u8x8_d_ssd1306_128x64_noname.c **** uint8_t u8x8_d_ssd1306_128x64_noname(u8x8_t *u8x8, uint8_t msg, uint8_t arg_int, void *arg_ptr)
 313:/Users/imashio/Electronics/ARM/_Library/u8x8_d_ssd1306_128x64_noname.c **** {
 225              		.loc 1 313 0
 226              		.cfi_startproc
 227              		@ args = 0, pretend = 0, frame = 0
 228              		@ frame_needed = 0, uses_anonymous_args = 0
 229              	.LVL30:
 230 0000 38B5     		push	{r3, r4, r5, lr}
 231              	.LCFI1:
 232              		.cfi_def_cfa_offset 16
 233              		.cfi_offset 3, -16
 234              		.cfi_offset 4, -12
 235              		.cfi_offset 5, -8
 236              		.cfi_offset 14, -4
 237              		.loc 1 313 0
 238 0002 0546     		mov	r5, r0
 239 0004 0C46     		mov	r4, r1
ARM GAS  /var/folders/v3/wysfpd052nz8jkbx04pk0ym80000gn/T//cc7iMqWr.s 			page 11


 314:/Users/imashio/Electronics/ARM/_Library/u8x8_d_ssd1306_128x64_noname.c ****     
 315:/Users/imashio/Electronics/ARM/_Library/u8x8_d_ssd1306_128x64_noname.c ****   if ( u8x8_d_ssd1306_sh1106_generic(u8x8, msg, arg_int, arg_ptr) != 0 )
 240              		.loc 1 315 0
 241 0006 FFF7FEFF 		bl	u8x8_d_ssd1306_sh1106_generic
 242              	.LVL31:
 243 000a 60B9     		cbnz	r0, .L21
 316:/Users/imashio/Electronics/ARM/_Library/u8x8_d_ssd1306_128x64_noname.c ****     return 1;
 317:/Users/imashio/Electronics/ARM/_Library/u8x8_d_ssd1306_128x64_noname.c ****   
 318:/Users/imashio/Electronics/ARM/_Library/u8x8_d_ssd1306_128x64_noname.c ****   switch(msg)
 244              		.loc 1 318 0
 245 000c 092C     		cmp	r4, #9
 246 000e 0CD0     		beq	.L19
 247 0010 0A2C     		cmp	r4, #10
 248 0012 07D1     		bne	.L18
 319:/Users/imashio/Electronics/ARM/_Library/u8x8_d_ssd1306_128x64_noname.c ****   {
 320:/Users/imashio/Electronics/ARM/_Library/u8x8_d_ssd1306_128x64_noname.c ****     case U8X8_MSG_DISPLAY_INIT:
 321:/Users/imashio/Electronics/ARM/_Library/u8x8_d_ssd1306_128x64_noname.c ****       u8x8_d_helper_display_init(u8x8);
 249              		.loc 1 321 0
 250 0014 2846     		mov	r0, r5
 251 0016 FFF7FEFF 		bl	u8x8_d_helper_display_init
 252              	.LVL32:
 322:/Users/imashio/Electronics/ARM/_Library/u8x8_d_ssd1306_128x64_noname.c ****       u8x8_cad_SendSequence(u8x8, u8x8_d_ssd1306_128x64_noname_init_seq);    
 253              		.loc 1 322 0
 254 001a 2846     		mov	r0, r5
 255 001c 0649     		ldr	r1, .L23
 256 001e FFF7FEFF 		bl	u8x8_cad_SendSequence
 257              	.LVL33:
 323:/Users/imashio/Electronics/ARM/_Library/u8x8_d_ssd1306_128x64_noname.c ****       break;
 324:/Users/imashio/Electronics/ARM/_Library/u8x8_d_ssd1306_128x64_noname.c ****     case U8X8_MSG_DISPLAY_SETUP_MEMORY:
 325:/Users/imashio/Electronics/ARM/_Library/u8x8_d_ssd1306_128x64_noname.c ****       u8x8_d_helper_display_setup_memory(u8x8, &u8x8_ssd1306_128x64_noname_display_info);
 326:/Users/imashio/Electronics/ARM/_Library/u8x8_d_ssd1306_128x64_noname.c ****       break;
 327:/Users/imashio/Electronics/ARM/_Library/u8x8_d_ssd1306_128x64_noname.c ****     default:
 328:/Users/imashio/Electronics/ARM/_Library/u8x8_d_ssd1306_128x64_noname.c ****       return 0;
 329:/Users/imashio/Electronics/ARM/_Library/u8x8_d_ssd1306_128x64_noname.c ****   }
 330:/Users/imashio/Electronics/ARM/_Library/u8x8_d_ssd1306_128x64_noname.c ****   return 1;
 258              		.loc 1 330 0
 259 0022 0120     		movs	r0, #1
 260              	.L18:
 331:/Users/imashio/Electronics/ARM/_Library/u8x8_d_ssd1306_128x64_noname.c **** }
 261              		.loc 1 331 0
 262 0024 38BD     		pop	{r3, r4, r5, pc}
 263              	.LVL34:
 264              	.L21:
 316:/Users/imashio/Electronics/ARM/_Library/u8x8_d_ssd1306_128x64_noname.c ****   
 265              		.loc 1 316 0
 266 0026 0120     		movs	r0, #1
 267              		.loc 1 331 0
 268 0028 38BD     		pop	{r3, r4, r5, pc}
 269              	.LVL35:
 270              	.L19:
 325:/Users/imashio/Electronics/ARM/_Library/u8x8_d_ssd1306_128x64_noname.c ****       break;
 271              		.loc 1 325 0
 272 002a 2846     		mov	r0, r5
 273 002c 0349     		ldr	r1, .L23+4
 274 002e FFF7FEFF 		bl	u8x8_d_helper_display_setup_memory
 275              	.LVL36:
 330:/Users/imashio/Electronics/ARM/_Library/u8x8_d_ssd1306_128x64_noname.c **** }
ARM GAS  /var/folders/v3/wysfpd052nz8jkbx04pk0ym80000gn/T//cc7iMqWr.s 			page 12


 276              		.loc 1 330 0
 277 0032 0120     		movs	r0, #1
 278              		.loc 1 331 0
 279 0034 38BD     		pop	{r3, r4, r5, pc}
 280              	.LVL37:
 281              	.L24:
 282 0036 00BF     		.align	2
 283              	.L23:
 284 0038 00000000 		.word	.LANCHOR4
 285 003c 00000000 		.word	.LANCHOR5
 286              		.cfi_endproc
 287              	.LFE1:
 289              		.section	.text.u8x8_d_ssd1306_128x64_vcomh0,"ax",%progbits
 290              		.align	1
 291              		.p2align 2,,3
 292              		.global	u8x8_d_ssd1306_128x64_vcomh0
 293              		.syntax unified
 294              		.thumb
 295              		.thumb_func
 296              		.fpu fpv4-sp-d16
 298              	u8x8_d_ssd1306_128x64_vcomh0:
 299              	.LFB2:
 332:/Users/imashio/Electronics/ARM/_Library/u8x8_d_ssd1306_128x64_noname.c **** 
 333:/Users/imashio/Electronics/ARM/_Library/u8x8_d_ssd1306_128x64_noname.c **** uint8_t u8x8_d_ssd1306_128x64_vcomh0(u8x8_t *u8x8, uint8_t msg, uint8_t arg_int, void *arg_ptr)
 334:/Users/imashio/Electronics/ARM/_Library/u8x8_d_ssd1306_128x64_noname.c **** {
 300              		.loc 1 334 0
 301              		.cfi_startproc
 302              		@ args = 0, pretend = 0, frame = 0
 303              		@ frame_needed = 0, uses_anonymous_args = 0
 304              	.LVL38:
 305 0000 38B5     		push	{r3, r4, r5, lr}
 306              	.LCFI2:
 307              		.cfi_def_cfa_offset 16
 308              		.cfi_offset 3, -16
 309              		.cfi_offset 4, -12
 310              		.cfi_offset 5, -8
 311              		.cfi_offset 14, -4
 312              		.loc 1 334 0
 313 0002 0546     		mov	r5, r0
 314 0004 0C46     		mov	r4, r1
 335:/Users/imashio/Electronics/ARM/_Library/u8x8_d_ssd1306_128x64_noname.c ****     
 336:/Users/imashio/Electronics/ARM/_Library/u8x8_d_ssd1306_128x64_noname.c ****   if ( u8x8_d_ssd1306_sh1106_generic(u8x8, msg, arg_int, arg_ptr) != 0 )
 315              		.loc 1 336 0
 316 0006 FFF7FEFF 		bl	u8x8_d_ssd1306_sh1106_generic
 317              	.LVL39:
 318 000a 60B9     		cbnz	r0, .L29
 337:/Users/imashio/Electronics/ARM/_Library/u8x8_d_ssd1306_128x64_noname.c ****     return 1;
 338:/Users/imashio/Electronics/ARM/_Library/u8x8_d_ssd1306_128x64_noname.c ****   
 339:/Users/imashio/Electronics/ARM/_Library/u8x8_d_ssd1306_128x64_noname.c ****   switch(msg)
 319              		.loc 1 339 0
 320 000c 092C     		cmp	r4, #9
 321 000e 0CD0     		beq	.L27
 322 0010 0A2C     		cmp	r4, #10
 323 0012 07D1     		bne	.L26
 340:/Users/imashio/Electronics/ARM/_Library/u8x8_d_ssd1306_128x64_noname.c ****   {
 341:/Users/imashio/Electronics/ARM/_Library/u8x8_d_ssd1306_128x64_noname.c ****     case U8X8_MSG_DISPLAY_INIT:
 342:/Users/imashio/Electronics/ARM/_Library/u8x8_d_ssd1306_128x64_noname.c ****       u8x8_d_helper_display_init(u8x8);
ARM GAS  /var/folders/v3/wysfpd052nz8jkbx04pk0ym80000gn/T//cc7iMqWr.s 			page 13


 324              		.loc 1 342 0
 325 0014 2846     		mov	r0, r5
 326 0016 FFF7FEFF 		bl	u8x8_d_helper_display_init
 327              	.LVL40:
 343:/Users/imashio/Electronics/ARM/_Library/u8x8_d_ssd1306_128x64_noname.c ****       u8x8_cad_SendSequence(u8x8, u8x8_d_ssd1306_128x64_vcomh0_init_seq);    
 328              		.loc 1 343 0
 329 001a 2846     		mov	r0, r5
 330 001c 0649     		ldr	r1, .L31
 331 001e FFF7FEFF 		bl	u8x8_cad_SendSequence
 332              	.LVL41:
 344:/Users/imashio/Electronics/ARM/_Library/u8x8_d_ssd1306_128x64_noname.c ****       break;
 345:/Users/imashio/Electronics/ARM/_Library/u8x8_d_ssd1306_128x64_noname.c ****     case U8X8_MSG_DISPLAY_SETUP_MEMORY:
 346:/Users/imashio/Electronics/ARM/_Library/u8x8_d_ssd1306_128x64_noname.c ****       u8x8_d_helper_display_setup_memory(u8x8, &u8x8_ssd1306_128x64_noname_display_info);
 347:/Users/imashio/Electronics/ARM/_Library/u8x8_d_ssd1306_128x64_noname.c ****       break;
 348:/Users/imashio/Electronics/ARM/_Library/u8x8_d_ssd1306_128x64_noname.c ****     default:
 349:/Users/imashio/Electronics/ARM/_Library/u8x8_d_ssd1306_128x64_noname.c ****       return 0;
 350:/Users/imashio/Electronics/ARM/_Library/u8x8_d_ssd1306_128x64_noname.c ****   }
 351:/Users/imashio/Electronics/ARM/_Library/u8x8_d_ssd1306_128x64_noname.c ****   return 1;
 333              		.loc 1 351 0
 334 0022 0120     		movs	r0, #1
 335              	.L26:
 352:/Users/imashio/Electronics/ARM/_Library/u8x8_d_ssd1306_128x64_noname.c **** }
 336              		.loc 1 352 0
 337 0024 38BD     		pop	{r3, r4, r5, pc}
 338              	.LVL42:
 339              	.L29:
 337:/Users/imashio/Electronics/ARM/_Library/u8x8_d_ssd1306_128x64_noname.c ****   
 340              		.loc 1 337 0
 341 0026 0120     		movs	r0, #1
 342              		.loc 1 352 0
 343 0028 38BD     		pop	{r3, r4, r5, pc}
 344              	.LVL43:
 345              	.L27:
 346:/Users/imashio/Electronics/ARM/_Library/u8x8_d_ssd1306_128x64_noname.c ****       break;
 346              		.loc 1 346 0
 347 002a 2846     		mov	r0, r5
 348 002c 0349     		ldr	r1, .L31+4
 349 002e FFF7FEFF 		bl	u8x8_d_helper_display_setup_memory
 350              	.LVL44:
 351:/Users/imashio/Electronics/ARM/_Library/u8x8_d_ssd1306_128x64_noname.c **** }
 351              		.loc 1 351 0
 352 0032 0120     		movs	r0, #1
 353              		.loc 1 352 0
 354 0034 38BD     		pop	{r3, r4, r5, pc}
 355              	.LVL45:
 356              	.L32:
 357 0036 00BF     		.align	2
 358              	.L31:
 359 0038 00000000 		.word	.LANCHOR6
 360 003c 00000000 		.word	.LANCHOR5
 361              		.cfi_endproc
 362              	.LFE2:
 364              		.section	.text.u8x8_d_ssd1306_128x64_alt0,"ax",%progbits
 365              		.align	1
 366              		.p2align 2,,3
 367              		.global	u8x8_d_ssd1306_128x64_alt0
 368              		.syntax unified
ARM GAS  /var/folders/v3/wysfpd052nz8jkbx04pk0ym80000gn/T//cc7iMqWr.s 			page 14


 369              		.thumb
 370              		.thumb_func
 371              		.fpu fpv4-sp-d16
 373              	u8x8_d_ssd1306_128x64_alt0:
 374              	.LFB3:
 353:/Users/imashio/Electronics/ARM/_Library/u8x8_d_ssd1306_128x64_noname.c **** 
 354:/Users/imashio/Electronics/ARM/_Library/u8x8_d_ssd1306_128x64_noname.c **** uint8_t u8x8_d_ssd1306_128x64_alt0(u8x8_t *u8x8, uint8_t msg, uint8_t arg_int, void *arg_ptr)
 355:/Users/imashio/Electronics/ARM/_Library/u8x8_d_ssd1306_128x64_noname.c **** {
 375              		.loc 1 355 0
 376              		.cfi_startproc
 377              		@ args = 0, pretend = 0, frame = 0
 378              		@ frame_needed = 0, uses_anonymous_args = 0
 379              	.LVL46:
 380 0000 38B5     		push	{r3, r4, r5, lr}
 381              	.LCFI3:
 382              		.cfi_def_cfa_offset 16
 383              		.cfi_offset 3, -16
 384              		.cfi_offset 4, -12
 385              		.cfi_offset 5, -8
 386              		.cfi_offset 14, -4
 387              		.loc 1 355 0
 388 0002 0546     		mov	r5, r0
 389 0004 0C46     		mov	r4, r1
 356:/Users/imashio/Electronics/ARM/_Library/u8x8_d_ssd1306_128x64_noname.c ****   
 357:/Users/imashio/Electronics/ARM/_Library/u8x8_d_ssd1306_128x64_noname.c ****   if ( u8x8_d_ssd1306_sh1106_generic(u8x8, msg, arg_int, arg_ptr) != 0 )
 390              		.loc 1 357 0
 391 0006 FFF7FEFF 		bl	u8x8_d_ssd1306_sh1106_generic
 392              	.LVL47:
 393 000a 60B9     		cbnz	r0, .L37
 358:/Users/imashio/Electronics/ARM/_Library/u8x8_d_ssd1306_128x64_noname.c ****     return 1;
 359:/Users/imashio/Electronics/ARM/_Library/u8x8_d_ssd1306_128x64_noname.c ****   
 360:/Users/imashio/Electronics/ARM/_Library/u8x8_d_ssd1306_128x64_noname.c ****   switch(msg)
 394              		.loc 1 360 0
 395 000c 092C     		cmp	r4, #9
 396 000e 0CD0     		beq	.L35
 397 0010 0A2C     		cmp	r4, #10
 398 0012 07D1     		bne	.L34
 361:/Users/imashio/Electronics/ARM/_Library/u8x8_d_ssd1306_128x64_noname.c ****   {
 362:/Users/imashio/Electronics/ARM/_Library/u8x8_d_ssd1306_128x64_noname.c ****     case U8X8_MSG_DISPLAY_INIT:
 363:/Users/imashio/Electronics/ARM/_Library/u8x8_d_ssd1306_128x64_noname.c ****       u8x8_d_helper_display_init(u8x8);
 399              		.loc 1 363 0
 400 0014 2846     		mov	r0, r5
 401 0016 FFF7FEFF 		bl	u8x8_d_helper_display_init
 402              	.LVL48:
 364:/Users/imashio/Electronics/ARM/_Library/u8x8_d_ssd1306_128x64_noname.c ****       u8x8_cad_SendSequence(u8x8, u8x8_d_ssd1306_128x64_alt0_init_seq);    
 403              		.loc 1 364 0
 404 001a 2846     		mov	r0, r5
 405 001c 0649     		ldr	r1, .L39
 406 001e FFF7FEFF 		bl	u8x8_cad_SendSequence
 407              	.LVL49:
 365:/Users/imashio/Electronics/ARM/_Library/u8x8_d_ssd1306_128x64_noname.c ****       break;
 366:/Users/imashio/Electronics/ARM/_Library/u8x8_d_ssd1306_128x64_noname.c ****     case U8X8_MSG_DISPLAY_SETUP_MEMORY:
 367:/Users/imashio/Electronics/ARM/_Library/u8x8_d_ssd1306_128x64_noname.c ****       u8x8_d_helper_display_setup_memory(u8x8, &u8x8_ssd1306_128x64_noname_display_info);
 368:/Users/imashio/Electronics/ARM/_Library/u8x8_d_ssd1306_128x64_noname.c ****       break;
 369:/Users/imashio/Electronics/ARM/_Library/u8x8_d_ssd1306_128x64_noname.c ****     default:
 370:/Users/imashio/Electronics/ARM/_Library/u8x8_d_ssd1306_128x64_noname.c ****       return 0;
 371:/Users/imashio/Electronics/ARM/_Library/u8x8_d_ssd1306_128x64_noname.c ****   }
ARM GAS  /var/folders/v3/wysfpd052nz8jkbx04pk0ym80000gn/T//cc7iMqWr.s 			page 15


 372:/Users/imashio/Electronics/ARM/_Library/u8x8_d_ssd1306_128x64_noname.c ****   return 1;
 408              		.loc 1 372 0
 409 0022 0120     		movs	r0, #1
 410              	.L34:
 373:/Users/imashio/Electronics/ARM/_Library/u8x8_d_ssd1306_128x64_noname.c **** }
 411              		.loc 1 373 0
 412 0024 38BD     		pop	{r3, r4, r5, pc}
 413              	.LVL50:
 414              	.L37:
 358:/Users/imashio/Electronics/ARM/_Library/u8x8_d_ssd1306_128x64_noname.c ****   
 415              		.loc 1 358 0
 416 0026 0120     		movs	r0, #1
 417              		.loc 1 373 0
 418 0028 38BD     		pop	{r3, r4, r5, pc}
 419              	.LVL51:
 420              	.L35:
 367:/Users/imashio/Electronics/ARM/_Library/u8x8_d_ssd1306_128x64_noname.c ****       break;
 421              		.loc 1 367 0
 422 002a 2846     		mov	r0, r5
 423 002c 0349     		ldr	r1, .L39+4
 424 002e FFF7FEFF 		bl	u8x8_d_helper_display_setup_memory
 425              	.LVL52:
 372:/Users/imashio/Electronics/ARM/_Library/u8x8_d_ssd1306_128x64_noname.c **** }
 426              		.loc 1 372 0
 427 0032 0120     		movs	r0, #1
 428              		.loc 1 373 0
 429 0034 38BD     		pop	{r3, r4, r5, pc}
 430              	.LVL53:
 431              	.L40:
 432 0036 00BF     		.align	2
 433              	.L39:
 434 0038 00000000 		.word	.LANCHOR7
 435 003c 00000000 		.word	.LANCHOR5
 436              		.cfi_endproc
 437              	.LFE3:
 439              		.section	.text.u8x8_d_sh1106_128x64_noname,"ax",%progbits
 440              		.align	1
 441              		.p2align 2,,3
 442              		.global	u8x8_d_sh1106_128x64_noname
 443              		.syntax unified
 444              		.thumb
 445              		.thumb_func
 446              		.fpu fpv4-sp-d16
 448              	u8x8_d_sh1106_128x64_noname:
 449              	.LFB4:
 374:/Users/imashio/Electronics/ARM/_Library/u8x8_d_ssd1306_128x64_noname.c **** 
 375:/Users/imashio/Electronics/ARM/_Library/u8x8_d_ssd1306_128x64_noname.c **** 
 376:/Users/imashio/Electronics/ARM/_Library/u8x8_d_ssd1306_128x64_noname.c **** static const u8x8_display_info_t u8x8_sh1106_128x64_noname_display_info =
 377:/Users/imashio/Electronics/ARM/_Library/u8x8_d_ssd1306_128x64_noname.c **** {
 378:/Users/imashio/Electronics/ARM/_Library/u8x8_d_ssd1306_128x64_noname.c ****   /* chip_enable_level = */ 0,
 379:/Users/imashio/Electronics/ARM/_Library/u8x8_d_ssd1306_128x64_noname.c ****   /* chip_disable_level = */ 1,
 380:/Users/imashio/Electronics/ARM/_Library/u8x8_d_ssd1306_128x64_noname.c ****   
 381:/Users/imashio/Electronics/ARM/_Library/u8x8_d_ssd1306_128x64_noname.c ****   /* post_chip_enable_wait_ns = */ 20,
 382:/Users/imashio/Electronics/ARM/_Library/u8x8_d_ssd1306_128x64_noname.c ****   /* pre_chip_disable_wait_ns = */ 10,
 383:/Users/imashio/Electronics/ARM/_Library/u8x8_d_ssd1306_128x64_noname.c ****   /* reset_pulse_width_ms = */ 100, 	/* SSD1306: 3 us */
 384:/Users/imashio/Electronics/ARM/_Library/u8x8_d_ssd1306_128x64_noname.c ****   /* post_reset_wait_ms = */ 100, /* far east OLEDs need much longer setup time */
 385:/Users/imashio/Electronics/ARM/_Library/u8x8_d_ssd1306_128x64_noname.c ****   /* sda_setup_time_ns = */ 50,		/* SSD1306: 15ns, but cycle time is 100ns, so use 100/2 */
ARM GAS  /var/folders/v3/wysfpd052nz8jkbx04pk0ym80000gn/T//cc7iMqWr.s 			page 16


 386:/Users/imashio/Electronics/ARM/_Library/u8x8_d_ssd1306_128x64_noname.c ****   /* sck_pulse_width_ns = */ 50,	/* SSD1306: 20ns, but cycle time is 100ns, so use 100/2, AVR: belo
 387:/Users/imashio/Electronics/ARM/_Library/u8x8_d_ssd1306_128x64_noname.c ****   /* sck_clock_hz = */ 8000000UL,	/* since Arduino 1.6.0, the SPI bus speed in Hz. Should be  10000
 388:/Users/imashio/Electronics/ARM/_Library/u8x8_d_ssd1306_128x64_noname.c ****   /* spi_mode = */ 3,		/* active low (clock is high by default), rising edge, this seems to be a di
 389:/Users/imashio/Electronics/ARM/_Library/u8x8_d_ssd1306_128x64_noname.c ****   /* i2c_bus_clock_100kHz = */ 4,
 390:/Users/imashio/Electronics/ARM/_Library/u8x8_d_ssd1306_128x64_noname.c ****   /* data_setup_time_ns = */ 40,
 391:/Users/imashio/Electronics/ARM/_Library/u8x8_d_ssd1306_128x64_noname.c ****   /* write_pulse_width_ns = */ 150,	/* SSD1306: cycle time is 300ns, so use 300/2 = 150 */
 392:/Users/imashio/Electronics/ARM/_Library/u8x8_d_ssd1306_128x64_noname.c ****   /* tile_width = */ 16,
 393:/Users/imashio/Electronics/ARM/_Library/u8x8_d_ssd1306_128x64_noname.c ****   /* tile_hight = */ 8,
 394:/Users/imashio/Electronics/ARM/_Library/u8x8_d_ssd1306_128x64_noname.c ****   /* default_x_offset = */ 2,
 395:/Users/imashio/Electronics/ARM/_Library/u8x8_d_ssd1306_128x64_noname.c ****   /* flipmode_x_offset = */ 2,
 396:/Users/imashio/Electronics/ARM/_Library/u8x8_d_ssd1306_128x64_noname.c ****   /* pixel_width = */ 128,
 397:/Users/imashio/Electronics/ARM/_Library/u8x8_d_ssd1306_128x64_noname.c ****   /* pixel_height = */ 64
 398:/Users/imashio/Electronics/ARM/_Library/u8x8_d_ssd1306_128x64_noname.c **** };
 399:/Users/imashio/Electronics/ARM/_Library/u8x8_d_ssd1306_128x64_noname.c **** 
 400:/Users/imashio/Electronics/ARM/_Library/u8x8_d_ssd1306_128x64_noname.c **** uint8_t u8x8_d_sh1106_128x64_noname(u8x8_t *u8x8, uint8_t msg, uint8_t arg_int, void *arg_ptr)
 401:/Users/imashio/Electronics/ARM/_Library/u8x8_d_ssd1306_128x64_noname.c **** {
 450              		.loc 1 401 0
 451              		.cfi_startproc
 452              		@ args = 0, pretend = 0, frame = 0
 453              		@ frame_needed = 0, uses_anonymous_args = 0
 454              	.LVL54:
 455 0000 38B5     		push	{r3, r4, r5, lr}
 456              	.LCFI4:
 457              		.cfi_def_cfa_offset 16
 458              		.cfi_offset 3, -16
 459              		.cfi_offset 4, -12
 460              		.cfi_offset 5, -8
 461              		.cfi_offset 14, -4
 462              		.loc 1 401 0
 463 0002 0546     		mov	r5, r0
 464 0004 0C46     		mov	r4, r1
 402:/Users/imashio/Electronics/ARM/_Library/u8x8_d_ssd1306_128x64_noname.c ****   if ( u8x8_d_ssd1306_sh1106_generic(u8x8, msg, arg_int, arg_ptr) != 0 )
 465              		.loc 1 402 0
 466 0006 FFF7FEFF 		bl	u8x8_d_ssd1306_sh1106_generic
 467              	.LVL55:
 468 000a 60B9     		cbnz	r0, .L45
 403:/Users/imashio/Electronics/ARM/_Library/u8x8_d_ssd1306_128x64_noname.c ****     return 1;
 404:/Users/imashio/Electronics/ARM/_Library/u8x8_d_ssd1306_128x64_noname.c ****   
 405:/Users/imashio/Electronics/ARM/_Library/u8x8_d_ssd1306_128x64_noname.c ****   switch(msg)
 469              		.loc 1 405 0
 470 000c 092C     		cmp	r4, #9
 471 000e 0CD0     		beq	.L43
 472 0010 0A2C     		cmp	r4, #10
 473 0012 07D1     		bne	.L42
 406:/Users/imashio/Electronics/ARM/_Library/u8x8_d_ssd1306_128x64_noname.c ****   {
 407:/Users/imashio/Electronics/ARM/_Library/u8x8_d_ssd1306_128x64_noname.c ****     case U8X8_MSG_DISPLAY_INIT:
 408:/Users/imashio/Electronics/ARM/_Library/u8x8_d_ssd1306_128x64_noname.c ****       u8x8_d_helper_display_init(u8x8);
 474              		.loc 1 408 0
 475 0014 2846     		mov	r0, r5
 476 0016 FFF7FEFF 		bl	u8x8_d_helper_display_init
 477              	.LVL56:
 409:/Users/imashio/Electronics/ARM/_Library/u8x8_d_ssd1306_128x64_noname.c ****       /* maybe use a better init sequence */
 410:/Users/imashio/Electronics/ARM/_Library/u8x8_d_ssd1306_128x64_noname.c ****       /* https://www.mikrocontroller.net/topic/431371 */
 411:/Users/imashio/Electronics/ARM/_Library/u8x8_d_ssd1306_128x64_noname.c ****       /* the new sequence is added in the winstar constructor (see below), this is kept untouched *
 412:/Users/imashio/Electronics/ARM/_Library/u8x8_d_ssd1306_128x64_noname.c ****       u8x8_cad_SendSequence(u8x8, u8x8_d_ssd1306_128x64_noname_init_seq);    
 478              		.loc 1 412 0
 479 001a 2846     		mov	r0, r5
ARM GAS  /var/folders/v3/wysfpd052nz8jkbx04pk0ym80000gn/T//cc7iMqWr.s 			page 17


 480 001c 0649     		ldr	r1, .L47
 481 001e FFF7FEFF 		bl	u8x8_cad_SendSequence
 482              	.LVL57:
 413:/Users/imashio/Electronics/ARM/_Library/u8x8_d_ssd1306_128x64_noname.c ****       break;
 414:/Users/imashio/Electronics/ARM/_Library/u8x8_d_ssd1306_128x64_noname.c ****     case U8X8_MSG_DISPLAY_SETUP_MEMORY:
 415:/Users/imashio/Electronics/ARM/_Library/u8x8_d_ssd1306_128x64_noname.c ****       u8x8_d_helper_display_setup_memory(u8x8, &u8x8_sh1106_128x64_noname_display_info);
 416:/Users/imashio/Electronics/ARM/_Library/u8x8_d_ssd1306_128x64_noname.c ****       break;
 417:/Users/imashio/Electronics/ARM/_Library/u8x8_d_ssd1306_128x64_noname.c ****     default:
 418:/Users/imashio/Electronics/ARM/_Library/u8x8_d_ssd1306_128x64_noname.c ****       return 0;
 419:/Users/imashio/Electronics/ARM/_Library/u8x8_d_ssd1306_128x64_noname.c ****   }
 420:/Users/imashio/Electronics/ARM/_Library/u8x8_d_ssd1306_128x64_noname.c ****   return 1;
 483              		.loc 1 420 0
 484 0022 0120     		movs	r0, #1
 485              	.L42:
 421:/Users/imashio/Electronics/ARM/_Library/u8x8_d_ssd1306_128x64_noname.c ****     
 422:/Users/imashio/Electronics/ARM/_Library/u8x8_d_ssd1306_128x64_noname.c **** }
 486              		.loc 1 422 0
 487 0024 38BD     		pop	{r3, r4, r5, pc}
 488              	.LVL58:
 489              	.L45:
 403:/Users/imashio/Electronics/ARM/_Library/u8x8_d_ssd1306_128x64_noname.c ****   
 490              		.loc 1 403 0
 491 0026 0120     		movs	r0, #1
 492              		.loc 1 422 0
 493 0028 38BD     		pop	{r3, r4, r5, pc}
 494              	.LVL59:
 495              	.L43:
 415:/Users/imashio/Electronics/ARM/_Library/u8x8_d_ssd1306_128x64_noname.c ****       break;
 496              		.loc 1 415 0
 497 002a 2846     		mov	r0, r5
 498 002c 0349     		ldr	r1, .L47+4
 499 002e FFF7FEFF 		bl	u8x8_d_helper_display_setup_memory
 500              	.LVL60:
 420:/Users/imashio/Electronics/ARM/_Library/u8x8_d_ssd1306_128x64_noname.c ****     
 501              		.loc 1 420 0
 502 0032 0120     		movs	r0, #1
 503              		.loc 1 422 0
 504 0034 38BD     		pop	{r3, r4, r5, pc}
 505              	.LVL61:
 506              	.L48:
 507 0036 00BF     		.align	2
 508              	.L47:
 509 0038 00000000 		.word	.LANCHOR4
 510 003c 00000000 		.word	.LANCHOR8
 511              		.cfi_endproc
 512              	.LFE4:
 514              		.section	.text.u8x8_d_sh1106_128x64_vcomh0,"ax",%progbits
 515              		.align	1
 516              		.p2align 2,,3
 517              		.global	u8x8_d_sh1106_128x64_vcomh0
 518              		.syntax unified
 519              		.thumb
 520              		.thumb_func
 521              		.fpu fpv4-sp-d16
 523              	u8x8_d_sh1106_128x64_vcomh0:
 524              	.LFB5:
 423:/Users/imashio/Electronics/ARM/_Library/u8x8_d_ssd1306_128x64_noname.c **** 
ARM GAS  /var/folders/v3/wysfpd052nz8jkbx04pk0ym80000gn/T//cc7iMqWr.s 			page 18


 424:/Users/imashio/Electronics/ARM/_Library/u8x8_d_ssd1306_128x64_noname.c **** uint8_t u8x8_d_sh1106_128x64_vcomh0(u8x8_t *u8x8, uint8_t msg, uint8_t arg_int, void *arg_ptr)
 425:/Users/imashio/Electronics/ARM/_Library/u8x8_d_ssd1306_128x64_noname.c **** {
 525              		.loc 1 425 0
 526              		.cfi_startproc
 527              		@ args = 0, pretend = 0, frame = 0
 528              		@ frame_needed = 0, uses_anonymous_args = 0
 529              	.LVL62:
 530 0000 38B5     		push	{r3, r4, r5, lr}
 531              	.LCFI5:
 532              		.cfi_def_cfa_offset 16
 533              		.cfi_offset 3, -16
 534              		.cfi_offset 4, -12
 535              		.cfi_offset 5, -8
 536              		.cfi_offset 14, -4
 537              		.loc 1 425 0
 538 0002 0546     		mov	r5, r0
 539 0004 0C46     		mov	r4, r1
 426:/Users/imashio/Electronics/ARM/_Library/u8x8_d_ssd1306_128x64_noname.c ****   if ( u8x8_d_ssd1306_sh1106_generic(u8x8, msg, arg_int, arg_ptr) != 0 )
 540              		.loc 1 426 0
 541 0006 FFF7FEFF 		bl	u8x8_d_ssd1306_sh1106_generic
 542              	.LVL63:
 543 000a 60B9     		cbnz	r0, .L53
 427:/Users/imashio/Electronics/ARM/_Library/u8x8_d_ssd1306_128x64_noname.c ****     return 1;
 428:/Users/imashio/Electronics/ARM/_Library/u8x8_d_ssd1306_128x64_noname.c ****   
 429:/Users/imashio/Electronics/ARM/_Library/u8x8_d_ssd1306_128x64_noname.c ****   switch(msg)
 544              		.loc 1 429 0
 545 000c 092C     		cmp	r4, #9
 546 000e 0CD0     		beq	.L51
 547 0010 0A2C     		cmp	r4, #10
 548 0012 07D1     		bne	.L50
 430:/Users/imashio/Electronics/ARM/_Library/u8x8_d_ssd1306_128x64_noname.c ****   {
 431:/Users/imashio/Electronics/ARM/_Library/u8x8_d_ssd1306_128x64_noname.c ****     case U8X8_MSG_DISPLAY_INIT:
 432:/Users/imashio/Electronics/ARM/_Library/u8x8_d_ssd1306_128x64_noname.c ****       u8x8_d_helper_display_init(u8x8);
 549              		.loc 1 432 0
 550 0014 2846     		mov	r0, r5
 551 0016 FFF7FEFF 		bl	u8x8_d_helper_display_init
 552              	.LVL64:
 433:/Users/imashio/Electronics/ARM/_Library/u8x8_d_ssd1306_128x64_noname.c ****       u8x8_cad_SendSequence(u8x8, u8x8_d_ssd1306_128x64_vcomh0_init_seq);    
 553              		.loc 1 433 0
 554 001a 2846     		mov	r0, r5
 555 001c 0649     		ldr	r1, .L55
 556 001e FFF7FEFF 		bl	u8x8_cad_SendSequence
 557              	.LVL65:
 434:/Users/imashio/Electronics/ARM/_Library/u8x8_d_ssd1306_128x64_noname.c ****       break;
 435:/Users/imashio/Electronics/ARM/_Library/u8x8_d_ssd1306_128x64_noname.c ****     case U8X8_MSG_DISPLAY_SETUP_MEMORY:
 436:/Users/imashio/Electronics/ARM/_Library/u8x8_d_ssd1306_128x64_noname.c ****       u8x8_d_helper_display_setup_memory(u8x8, &u8x8_sh1106_128x64_noname_display_info);
 437:/Users/imashio/Electronics/ARM/_Library/u8x8_d_ssd1306_128x64_noname.c ****       break;
 438:/Users/imashio/Electronics/ARM/_Library/u8x8_d_ssd1306_128x64_noname.c ****     default:
 439:/Users/imashio/Electronics/ARM/_Library/u8x8_d_ssd1306_128x64_noname.c ****       return 0;
 440:/Users/imashio/Electronics/ARM/_Library/u8x8_d_ssd1306_128x64_noname.c ****   }
 441:/Users/imashio/Electronics/ARM/_Library/u8x8_d_ssd1306_128x64_noname.c ****   return 1;
 558              		.loc 1 441 0
 559 0022 0120     		movs	r0, #1
 560              	.L50:
 442:/Users/imashio/Electronics/ARM/_Library/u8x8_d_ssd1306_128x64_noname.c ****     
 443:/Users/imashio/Electronics/ARM/_Library/u8x8_d_ssd1306_128x64_noname.c **** }
 561              		.loc 1 443 0
ARM GAS  /var/folders/v3/wysfpd052nz8jkbx04pk0ym80000gn/T//cc7iMqWr.s 			page 19


 562 0024 38BD     		pop	{r3, r4, r5, pc}
 563              	.LVL66:
 564              	.L53:
 427:/Users/imashio/Electronics/ARM/_Library/u8x8_d_ssd1306_128x64_noname.c ****   
 565              		.loc 1 427 0
 566 0026 0120     		movs	r0, #1
 567              		.loc 1 443 0
 568 0028 38BD     		pop	{r3, r4, r5, pc}
 569              	.LVL67:
 570              	.L51:
 436:/Users/imashio/Electronics/ARM/_Library/u8x8_d_ssd1306_128x64_noname.c ****       break;
 571              		.loc 1 436 0
 572 002a 2846     		mov	r0, r5
 573 002c 0349     		ldr	r1, .L55+4
 574 002e FFF7FEFF 		bl	u8x8_d_helper_display_setup_memory
 575              	.LVL68:
 441:/Users/imashio/Electronics/ARM/_Library/u8x8_d_ssd1306_128x64_noname.c ****     
 576              		.loc 1 441 0
 577 0032 0120     		movs	r0, #1
 578              		.loc 1 443 0
 579 0034 38BD     		pop	{r3, r4, r5, pc}
 580              	.LVL69:
 581              	.L56:
 582 0036 00BF     		.align	2
 583              	.L55:
 584 0038 00000000 		.word	.LANCHOR6
 585 003c 00000000 		.word	.LANCHOR8
 586              		.cfi_endproc
 587              	.LFE5:
 589              		.section	.text.u8x8_d_sh1106_128x64_winstar,"ax",%progbits
 590              		.align	1
 591              		.p2align 2,,3
 592              		.global	u8x8_d_sh1106_128x64_winstar
 593              		.syntax unified
 594              		.thumb
 595              		.thumb_func
 596              		.fpu fpv4-sp-d16
 598              	u8x8_d_sh1106_128x64_winstar:
 599              	.LFB6:
 444:/Users/imashio/Electronics/ARM/_Library/u8x8_d_ssd1306_128x64_noname.c **** 
 445:/Users/imashio/Electronics/ARM/_Library/u8x8_d_ssd1306_128x64_noname.c **** uint8_t u8x8_d_sh1106_128x64_winstar(u8x8_t *u8x8, uint8_t msg, uint8_t arg_int, void *arg_ptr)
 446:/Users/imashio/Electronics/ARM/_Library/u8x8_d_ssd1306_128x64_noname.c **** {
 600              		.loc 1 446 0
 601              		.cfi_startproc
 602              		@ args = 0, pretend = 0, frame = 0
 603              		@ frame_needed = 0, uses_anonymous_args = 0
 604              	.LVL70:
 605 0000 38B5     		push	{r3, r4, r5, lr}
 606              	.LCFI6:
 607              		.cfi_def_cfa_offset 16
 608              		.cfi_offset 3, -16
 609              		.cfi_offset 4, -12
 610              		.cfi_offset 5, -8
 611              		.cfi_offset 14, -4
 612              		.loc 1 446 0
 613 0002 0546     		mov	r5, r0
 614 0004 0C46     		mov	r4, r1
ARM GAS  /var/folders/v3/wysfpd052nz8jkbx04pk0ym80000gn/T//cc7iMqWr.s 			page 20


 447:/Users/imashio/Electronics/ARM/_Library/u8x8_d_ssd1306_128x64_noname.c ****   if ( u8x8_d_ssd1306_sh1106_generic(u8x8, msg, arg_int, arg_ptr) != 0 )
 615              		.loc 1 447 0
 616 0006 FFF7FEFF 		bl	u8x8_d_ssd1306_sh1106_generic
 617              	.LVL71:
 618 000a 60B9     		cbnz	r0, .L61
 448:/Users/imashio/Electronics/ARM/_Library/u8x8_d_ssd1306_128x64_noname.c ****     return 1;
 449:/Users/imashio/Electronics/ARM/_Library/u8x8_d_ssd1306_128x64_noname.c ****   
 450:/Users/imashio/Electronics/ARM/_Library/u8x8_d_ssd1306_128x64_noname.c ****   switch(msg)
 619              		.loc 1 450 0
 620 000c 092C     		cmp	r4, #9
 621 000e 0CD0     		beq	.L59
 622 0010 0A2C     		cmp	r4, #10
 623 0012 07D1     		bne	.L58
 451:/Users/imashio/Electronics/ARM/_Library/u8x8_d_ssd1306_128x64_noname.c ****   {
 452:/Users/imashio/Electronics/ARM/_Library/u8x8_d_ssd1306_128x64_noname.c ****     case U8X8_MSG_DISPLAY_INIT:
 453:/Users/imashio/Electronics/ARM/_Library/u8x8_d_ssd1306_128x64_noname.c ****       u8x8_d_helper_display_init(u8x8);
 624              		.loc 1 453 0
 625 0014 2846     		mov	r0, r5
 626 0016 FFF7FEFF 		bl	u8x8_d_helper_display_init
 627              	.LVL72:
 454:/Users/imashio/Electronics/ARM/_Library/u8x8_d_ssd1306_128x64_noname.c ****       u8x8_cad_SendSequence(u8x8, u8x8_d_sh1106_128x64_winstar_init_seq);    
 628              		.loc 1 454 0
 629 001a 2846     		mov	r0, r5
 630 001c 0649     		ldr	r1, .L63
 631 001e FFF7FEFF 		bl	u8x8_cad_SendSequence
 632              	.LVL73:
 455:/Users/imashio/Electronics/ARM/_Library/u8x8_d_ssd1306_128x64_noname.c ****       break;
 456:/Users/imashio/Electronics/ARM/_Library/u8x8_d_ssd1306_128x64_noname.c ****     case U8X8_MSG_DISPLAY_SETUP_MEMORY:
 457:/Users/imashio/Electronics/ARM/_Library/u8x8_d_ssd1306_128x64_noname.c ****       u8x8_d_helper_display_setup_memory(u8x8, &u8x8_sh1106_128x64_noname_display_info);
 458:/Users/imashio/Electronics/ARM/_Library/u8x8_d_ssd1306_128x64_noname.c ****       break;
 459:/Users/imashio/Electronics/ARM/_Library/u8x8_d_ssd1306_128x64_noname.c ****     default:
 460:/Users/imashio/Electronics/ARM/_Library/u8x8_d_ssd1306_128x64_noname.c ****       return 0;
 461:/Users/imashio/Electronics/ARM/_Library/u8x8_d_ssd1306_128x64_noname.c ****   }
 462:/Users/imashio/Electronics/ARM/_Library/u8x8_d_ssd1306_128x64_noname.c ****   return 1;
 633              		.loc 1 462 0
 634 0022 0120     		movs	r0, #1
 635              	.L58:
 463:/Users/imashio/Electronics/ARM/_Library/u8x8_d_ssd1306_128x64_noname.c ****     
 464:/Users/imashio/Electronics/ARM/_Library/u8x8_d_ssd1306_128x64_noname.c **** }
 636              		.loc 1 464 0
 637 0024 38BD     		pop	{r3, r4, r5, pc}
 638              	.LVL74:
 639              	.L61:
 448:/Users/imashio/Electronics/ARM/_Library/u8x8_d_ssd1306_128x64_noname.c ****   
 640              		.loc 1 448 0
 641 0026 0120     		movs	r0, #1
 642              		.loc 1 464 0
 643 0028 38BD     		pop	{r3, r4, r5, pc}
 644              	.LVL75:
 645              	.L59:
 457:/Users/imashio/Electronics/ARM/_Library/u8x8_d_ssd1306_128x64_noname.c ****       break;
 646              		.loc 1 457 0
 647 002a 2846     		mov	r0, r5
 648 002c 0349     		ldr	r1, .L63+4
 649 002e FFF7FEFF 		bl	u8x8_d_helper_display_setup_memory
 650              	.LVL76:
 462:/Users/imashio/Electronics/ARM/_Library/u8x8_d_ssd1306_128x64_noname.c ****     
ARM GAS  /var/folders/v3/wysfpd052nz8jkbx04pk0ym80000gn/T//cc7iMqWr.s 			page 21


 651              		.loc 1 462 0
 652 0032 0120     		movs	r0, #1
 653              		.loc 1 464 0
 654 0034 38BD     		pop	{r3, r4, r5, pc}
 655              	.LVL77:
 656              	.L64:
 657 0036 00BF     		.align	2
 658              	.L63:
 659 0038 00000000 		.word	.LANCHOR9
 660 003c 00000000 		.word	.LANCHOR8
 661              		.cfi_endproc
 662              	.LFE6:
 664              		.section	.rodata.u8x8_d_sh1106_128x64_winstar_init_seq,"a",%progbits
 665              		.align	2
 666              		.set	.LANCHOR9,. + 0
 669              	u8x8_d_sh1106_128x64_winstar_init_seq:
 670 0000 18       		.byte	24
 671 0001 15       		.byte	21
 672 0002 AE       		.byte	-82
 673 0003 15       		.byte	21
 674 0004 A4       		.byte	-92
 675 0005 15       		.byte	21
 676 0006 D5       		.byte	-43
 677 0007 16       		.byte	22
 678 0008 50       		.byte	80
 679 0009 15       		.byte	21
 680 000a A8       		.byte	-88
 681 000b 16       		.byte	22
 682 000c 3F       		.byte	63
 683 000d 15       		.byte	21
 684 000e D3       		.byte	-45
 685 000f 16       		.byte	22
 686 0010 00       		.byte	0
 687 0011 15       		.byte	21
 688 0012 40       		.byte	64
 689 0013 15       		.byte	21
 690 0014 AD       		.byte	-83
 691 0015 16       		.byte	22
 692 0016 8B       		.byte	-117
 693 0017 15       		.byte	21
 694 0018 D9       		.byte	-39
 695 0019 16       		.byte	22
 696 001a 22       		.byte	34
 697 001b 15       		.byte	21
 698 001c DB       		.byte	-37
 699 001d 16       		.byte	22
 700 001e 35       		.byte	53
 701 001f 15       		.byte	21
 702 0020 32       		.byte	50
 703 0021 15       		.byte	21
 704 0022 81       		.byte	-127
 705 0023 16       		.byte	22
 706 0024 FF       		.byte	-1
 707 0025 15       		.byte	21
 708 0026 A6       		.byte	-90
 709 0027 15       		.byte	21
 710 0028 DA       		.byte	-38
ARM GAS  /var/folders/v3/wysfpd052nz8jkbx04pk0ym80000gn/T//cc7iMqWr.s 			page 22


 711 0029 16       		.byte	22
 712 002a 12       		.byte	18
 713 002b 19       		.byte	25
 714 002c FF       		.byte	-1
 715              		.section	.rodata.u8x8_d_ssd1306_128x64_alt0_init_seq,"a",%progbits
 716              		.align	2
 717              		.set	.LANCHOR7,. + 0
 720              	u8x8_d_ssd1306_128x64_alt0_init_seq:
 721 0000 18       		.byte	24
 722 0001 15       		.byte	21
 723 0002 AE       		.byte	-82
 724 0003 15       		.byte	21
 725 0004 D5       		.byte	-43
 726 0005 16       		.byte	22
 727 0006 80       		.byte	-128
 728 0007 15       		.byte	21
 729 0008 A8       		.byte	-88
 730 0009 16       		.byte	22
 731 000a 3F       		.byte	63
 732 000b 15       		.byte	21
 733 000c D3       		.byte	-45
 734 000d 16       		.byte	22
 735 000e 00       		.byte	0
 736 000f 15       		.byte	21
 737 0010 40       		.byte	64
 738 0011 15       		.byte	21
 739 0012 8D       		.byte	-115
 740 0013 16       		.byte	22
 741 0014 14       		.byte	20
 742 0015 15       		.byte	21
 743 0016 20       		.byte	32
 744 0017 16       		.byte	22
 745 0018 00       		.byte	0
 746 0019 15       		.byte	21
 747 001a A1       		.byte	-95
 748 001b 15       		.byte	21
 749 001c C8       		.byte	-56
 750 001d 15       		.byte	21
 751 001e DA       		.byte	-38
 752 001f 16       		.byte	22
 753 0020 02       		.byte	2
 754 0021 15       		.byte	21
 755 0022 81       		.byte	-127
 756 0023 16       		.byte	22
 757 0024 CF       		.byte	-49
 758 0025 15       		.byte	21
 759 0026 D9       		.byte	-39
 760 0027 16       		.byte	22
 761 0028 F1       		.byte	-15
 762 0029 15       		.byte	21
 763 002a DB       		.byte	-37
 764 002b 16       		.byte	22
 765 002c 40       		.byte	64
 766 002d 15       		.byte	21
 767 002e 2E       		.byte	46
 768 002f 15       		.byte	21
 769 0030 A4       		.byte	-92
ARM GAS  /var/folders/v3/wysfpd052nz8jkbx04pk0ym80000gn/T//cc7iMqWr.s 			page 23


 770 0031 15       		.byte	21
 771 0032 A6       		.byte	-90
 772 0033 19       		.byte	25
 773 0034 FF       		.byte	-1
 774              		.section	.rodata.u8x8_d_ssd1306_128x64_noname_flip0_seq,"a",%progbits
 775              		.align	2
 776              		.set	.LANCHOR2,. + 0
 779              	u8x8_d_ssd1306_128x64_noname_flip0_seq:
 780 0000 18       		.byte	24
 781 0001 15       		.byte	21
 782 0002 A1       		.byte	-95
 783 0003 15       		.byte	21
 784 0004 C8       		.byte	-56
 785 0005 19       		.byte	25
 786 0006 FF       		.byte	-1
 787              		.section	.rodata.u8x8_d_ssd1306_128x64_noname_flip1_seq,"a",%progbits
 788              		.align	2
 789              		.set	.LANCHOR3,. + 0
 792              	u8x8_d_ssd1306_128x64_noname_flip1_seq:
 793 0000 18       		.byte	24
 794 0001 15       		.byte	21
 795 0002 A0       		.byte	-96
 796 0003 15       		.byte	21
 797 0004 C0       		.byte	-64
 798 0005 19       		.byte	25
 799 0006 FF       		.byte	-1
 800              		.section	.rodata.u8x8_d_ssd1306_128x64_noname_init_seq,"a",%progbits
 801              		.align	2
 802              		.set	.LANCHOR4,. + 0
 805              	u8x8_d_ssd1306_128x64_noname_init_seq:
 806 0000 18       		.byte	24
 807 0001 15       		.byte	21
 808 0002 AE       		.byte	-82
 809 0003 15       		.byte	21
 810 0004 D5       		.byte	-43
 811 0005 16       		.byte	22
 812 0006 80       		.byte	-128
 813 0007 15       		.byte	21
 814 0008 A8       		.byte	-88
 815 0009 16       		.byte	22
 816 000a 3F       		.byte	63
 817 000b 15       		.byte	21
 818 000c D3       		.byte	-45
 819 000d 16       		.byte	22
 820 000e 00       		.byte	0
 821 000f 15       		.byte	21
 822 0010 40       		.byte	64
 823 0011 15       		.byte	21
 824 0012 8D       		.byte	-115
 825 0013 16       		.byte	22
 826 0014 14       		.byte	20
 827 0015 15       		.byte	21
 828 0016 20       		.byte	32
 829 0017 16       		.byte	22
 830 0018 00       		.byte	0
 831 0019 15       		.byte	21
 832 001a A1       		.byte	-95
ARM GAS  /var/folders/v3/wysfpd052nz8jkbx04pk0ym80000gn/T//cc7iMqWr.s 			page 24


 833 001b 15       		.byte	21
 834 001c C8       		.byte	-56
 835 001d 15       		.byte	21
 836 001e DA       		.byte	-38
 837 001f 16       		.byte	22
 838 0020 12       		.byte	18
 839 0021 15       		.byte	21
 840 0022 81       		.byte	-127
 841 0023 16       		.byte	22
 842 0024 CF       		.byte	-49
 843 0025 15       		.byte	21
 844 0026 D9       		.byte	-39
 845 0027 16       		.byte	22
 846 0028 F1       		.byte	-15
 847 0029 15       		.byte	21
 848 002a DB       		.byte	-37
 849 002b 16       		.byte	22
 850 002c 40       		.byte	64
 851 002d 15       		.byte	21
 852 002e 2E       		.byte	46
 853 002f 15       		.byte	21
 854 0030 A4       		.byte	-92
 855 0031 15       		.byte	21
 856 0032 A6       		.byte	-90
 857 0033 19       		.byte	25
 858 0034 FF       		.byte	-1
 859              		.section	.rodata.u8x8_d_ssd1306_128x64_noname_powersave0_seq,"a",%progbits
 860              		.align	2
 861              		.set	.LANCHOR0,. + 0
 864              	u8x8_d_ssd1306_128x64_noname_powersave0_seq:
 865 0000 18       		.byte	24
 866 0001 15       		.byte	21
 867 0002 AF       		.byte	-81
 868 0003 19       		.byte	25
 869 0004 FF       		.byte	-1
 870              		.section	.rodata.u8x8_d_ssd1306_128x64_noname_powersave1_seq,"a",%progbits
 871              		.align	2
 872              		.set	.LANCHOR1,. + 0
 875              	u8x8_d_ssd1306_128x64_noname_powersave1_seq:
 876 0000 18       		.byte	24
 877 0001 15       		.byte	21
 878 0002 AE       		.byte	-82
 879 0003 19       		.byte	25
 880 0004 FF       		.byte	-1
 881              		.section	.rodata.u8x8_d_ssd1306_128x64_vcomh0_init_seq,"a",%progbits
 882              		.align	2
 883              		.set	.LANCHOR6,. + 0
 886              	u8x8_d_ssd1306_128x64_vcomh0_init_seq:
 887 0000 18       		.byte	24
 888 0001 15       		.byte	21
 889 0002 AE       		.byte	-82
 890 0003 15       		.byte	21
 891 0004 D5       		.byte	-43
 892 0005 16       		.byte	22
 893 0006 80       		.byte	-128
 894 0007 15       		.byte	21
 895 0008 A8       		.byte	-88
ARM GAS  /var/folders/v3/wysfpd052nz8jkbx04pk0ym80000gn/T//cc7iMqWr.s 			page 25


 896 0009 16       		.byte	22
 897 000a 3F       		.byte	63
 898 000b 15       		.byte	21
 899 000c D3       		.byte	-45
 900 000d 16       		.byte	22
 901 000e 00       		.byte	0
 902 000f 15       		.byte	21
 903 0010 40       		.byte	64
 904 0011 15       		.byte	21
 905 0012 8D       		.byte	-115
 906 0013 16       		.byte	22
 907 0014 14       		.byte	20
 908 0015 15       		.byte	21
 909 0016 20       		.byte	32
 910 0017 16       		.byte	22
 911 0018 00       		.byte	0
 912 0019 15       		.byte	21
 913 001a A1       		.byte	-95
 914 001b 15       		.byte	21
 915 001c C8       		.byte	-56
 916 001d 15       		.byte	21
 917 001e DA       		.byte	-38
 918 001f 16       		.byte	22
 919 0020 12       		.byte	18
 920 0021 15       		.byte	21
 921 0022 81       		.byte	-127
 922 0023 16       		.byte	22
 923 0024 EF       		.byte	-17
 924 0025 15       		.byte	21
 925 0026 D9       		.byte	-39
 926 0027 16       		.byte	22
 927 0028 A1       		.byte	-95
 928 0029 15       		.byte	21
 929 002a DB       		.byte	-37
 930 002b 16       		.byte	22
 931 002c 00       		.byte	0
 932 002d 15       		.byte	21
 933 002e 2E       		.byte	46
 934 002f 15       		.byte	21
 935 0030 A4       		.byte	-92
 936 0031 15       		.byte	21
 937 0032 A6       		.byte	-90
 938 0033 19       		.byte	25
 939 0034 FF       		.byte	-1
 940              		.section	.rodata.u8x8_sh1106_128x64_noname_display_info,"a",%progbits
 941              		.align	2
 942              		.set	.LANCHOR8,. + 0
 945              	u8x8_sh1106_128x64_noname_display_info:
 946 0000 00       		.byte	0
 947 0001 01       		.byte	1
 948 0002 14       		.byte	20
 949 0003 0A       		.byte	10
 950 0004 64       		.byte	100
 951 0005 64       		.byte	100
 952 0006 32       		.byte	50
 953 0007 32       		.byte	50
 954 0008 00127A00 		.word	8000000
ARM GAS  /var/folders/v3/wysfpd052nz8jkbx04pk0ym80000gn/T//cc7iMqWr.s 			page 26


 955 000c 03       		.byte	3
 956 000d 04       		.byte	4
 957 000e 28       		.byte	40
 958 000f 96       		.byte	-106
 959 0010 10       		.byte	16
 960 0011 08       		.byte	8
 961 0012 02       		.byte	2
 962 0013 02       		.byte	2
 963 0014 8000     		.short	128
 964 0016 4000     		.short	64
 965              		.section	.rodata.u8x8_ssd1306_128x64_noname_display_info,"a",%progbits
 966              		.align	2
 967              		.set	.LANCHOR5,. + 0
 970              	u8x8_ssd1306_128x64_noname_display_info:
 971 0000 00       		.byte	0
 972 0001 01       		.byte	1
 973 0002 14       		.byte	20
 974 0003 0A       		.byte	10
 975 0004 64       		.byte	100
 976 0005 64       		.byte	100
 977 0006 32       		.byte	50
 978 0007 32       		.byte	50
 979 0008 00127A00 		.word	8000000
 980 000c 00       		.byte	0
 981 000d 04       		.byte	4
 982 000e 28       		.byte	40
 983 000f 96       		.byte	-106
 984 0010 10       		.byte	16
 985 0011 08       		.byte	8
 986 0012 00       		.byte	0
 987 0013 00       		.byte	0
 988 0014 8000     		.short	128
 989 0016 4000     		.short	64
 990              		.text
 991              	.Letext0:
 992              		.file 2 "/usr/local/gcc-arm-none-eabi-7-2018-q2-update/arm-none-eabi/include/machine/_default_type
 993              		.file 3 "/usr/local/gcc-arm-none-eabi-7-2018-q2-update/arm-none-eabi/include/sys/_stdint.h"
 994              		.file 4 "/Users/imashio/Electronics/ARM/_Library/u8x8.h"
ARM GAS  /var/folders/v3/wysfpd052nz8jkbx04pk0ym80000gn/T//cc7iMqWr.s 			page 27


DEFINED SYMBOLS
                            *ABS*:0000000000000000 u8x8_d_ssd1306_128x64_noname.c
/var/folders/v3/wysfpd052nz8jkbx04pk0ym80000gn/T//cc7iMqWr.s:18     .text.u8x8_d_ssd1306_sh1106_generic:0000000000000000 $t
/var/folders/v3/wysfpd052nz8jkbx04pk0ym80000gn/T//cc7iMqWr.s:25     .text.u8x8_d_ssd1306_sh1106_generic:0000000000000000 u8x8_d_ssd1306_sh1106_generic
/var/folders/v3/wysfpd052nz8jkbx04pk0ym80000gn/T//cc7iMqWr.s:56     .text.u8x8_d_ssd1306_sh1106_generic:0000000000000012 $d
/var/folders/v3/wysfpd052nz8jkbx04pk0ym80000gn/T//cc7iMqWr.s:207    .text.u8x8_d_ssd1306_sh1106_generic:00000000000000d0 $d
/var/folders/v3/wysfpd052nz8jkbx04pk0ym80000gn/T//cc7iMqWr.s:215    .text.u8x8_d_ssd1306_128x64_noname:0000000000000000 $t
/var/folders/v3/wysfpd052nz8jkbx04pk0ym80000gn/T//cc7iMqWr.s:223    .text.u8x8_d_ssd1306_128x64_noname:0000000000000000 u8x8_d_ssd1306_128x64_noname
/var/folders/v3/wysfpd052nz8jkbx04pk0ym80000gn/T//cc7iMqWr.s:284    .text.u8x8_d_ssd1306_128x64_noname:0000000000000038 $d
/var/folders/v3/wysfpd052nz8jkbx04pk0ym80000gn/T//cc7iMqWr.s:290    .text.u8x8_d_ssd1306_128x64_vcomh0:0000000000000000 $t
/var/folders/v3/wysfpd052nz8jkbx04pk0ym80000gn/T//cc7iMqWr.s:298    .text.u8x8_d_ssd1306_128x64_vcomh0:0000000000000000 u8x8_d_ssd1306_128x64_vcomh0
/var/folders/v3/wysfpd052nz8jkbx04pk0ym80000gn/T//cc7iMqWr.s:359    .text.u8x8_d_ssd1306_128x64_vcomh0:0000000000000038 $d
/var/folders/v3/wysfpd052nz8jkbx04pk0ym80000gn/T//cc7iMqWr.s:365    .text.u8x8_d_ssd1306_128x64_alt0:0000000000000000 $t
/var/folders/v3/wysfpd052nz8jkbx04pk0ym80000gn/T//cc7iMqWr.s:373    .text.u8x8_d_ssd1306_128x64_alt0:0000000000000000 u8x8_d_ssd1306_128x64_alt0
/var/folders/v3/wysfpd052nz8jkbx04pk0ym80000gn/T//cc7iMqWr.s:434    .text.u8x8_d_ssd1306_128x64_alt0:0000000000000038 $d
/var/folders/v3/wysfpd052nz8jkbx04pk0ym80000gn/T//cc7iMqWr.s:440    .text.u8x8_d_sh1106_128x64_noname:0000000000000000 $t
/var/folders/v3/wysfpd052nz8jkbx04pk0ym80000gn/T//cc7iMqWr.s:448    .text.u8x8_d_sh1106_128x64_noname:0000000000000000 u8x8_d_sh1106_128x64_noname
/var/folders/v3/wysfpd052nz8jkbx04pk0ym80000gn/T//cc7iMqWr.s:509    .text.u8x8_d_sh1106_128x64_noname:0000000000000038 $d
/var/folders/v3/wysfpd052nz8jkbx04pk0ym80000gn/T//cc7iMqWr.s:515    .text.u8x8_d_sh1106_128x64_vcomh0:0000000000000000 $t
/var/folders/v3/wysfpd052nz8jkbx04pk0ym80000gn/T//cc7iMqWr.s:523    .text.u8x8_d_sh1106_128x64_vcomh0:0000000000000000 u8x8_d_sh1106_128x64_vcomh0
/var/folders/v3/wysfpd052nz8jkbx04pk0ym80000gn/T//cc7iMqWr.s:584    .text.u8x8_d_sh1106_128x64_vcomh0:0000000000000038 $d
/var/folders/v3/wysfpd052nz8jkbx04pk0ym80000gn/T//cc7iMqWr.s:590    .text.u8x8_d_sh1106_128x64_winstar:0000000000000000 $t
/var/folders/v3/wysfpd052nz8jkbx04pk0ym80000gn/T//cc7iMqWr.s:598    .text.u8x8_d_sh1106_128x64_winstar:0000000000000000 u8x8_d_sh1106_128x64_winstar
/var/folders/v3/wysfpd052nz8jkbx04pk0ym80000gn/T//cc7iMqWr.s:659    .text.u8x8_d_sh1106_128x64_winstar:0000000000000038 $d
/var/folders/v3/wysfpd052nz8jkbx04pk0ym80000gn/T//cc7iMqWr.s:665    .rodata.u8x8_d_sh1106_128x64_winstar_init_seq:0000000000000000 $d
/var/folders/v3/wysfpd052nz8jkbx04pk0ym80000gn/T//cc7iMqWr.s:669    .rodata.u8x8_d_sh1106_128x64_winstar_init_seq:0000000000000000 u8x8_d_sh1106_128x64_winstar_init_seq
/var/folders/v3/wysfpd052nz8jkbx04pk0ym80000gn/T//cc7iMqWr.s:716    .rodata.u8x8_d_ssd1306_128x64_alt0_init_seq:0000000000000000 $d
/var/folders/v3/wysfpd052nz8jkbx04pk0ym80000gn/T//cc7iMqWr.s:720    .rodata.u8x8_d_ssd1306_128x64_alt0_init_seq:0000000000000000 u8x8_d_ssd1306_128x64_alt0_init_seq
/var/folders/v3/wysfpd052nz8jkbx04pk0ym80000gn/T//cc7iMqWr.s:775    .rodata.u8x8_d_ssd1306_128x64_noname_flip0_seq:0000000000000000 $d
/var/folders/v3/wysfpd052nz8jkbx04pk0ym80000gn/T//cc7iMqWr.s:779    .rodata.u8x8_d_ssd1306_128x64_noname_flip0_seq:0000000000000000 u8x8_d_ssd1306_128x64_noname_flip0_seq
/var/folders/v3/wysfpd052nz8jkbx04pk0ym80000gn/T//cc7iMqWr.s:788    .rodata.u8x8_d_ssd1306_128x64_noname_flip1_seq:0000000000000000 $d
/var/folders/v3/wysfpd052nz8jkbx04pk0ym80000gn/T//cc7iMqWr.s:792    .rodata.u8x8_d_ssd1306_128x64_noname_flip1_seq:0000000000000000 u8x8_d_ssd1306_128x64_noname_flip1_seq
/var/folders/v3/wysfpd052nz8jkbx04pk0ym80000gn/T//cc7iMqWr.s:801    .rodata.u8x8_d_ssd1306_128x64_noname_init_seq:0000000000000000 $d
/var/folders/v3/wysfpd052nz8jkbx04pk0ym80000gn/T//cc7iMqWr.s:805    .rodata.u8x8_d_ssd1306_128x64_noname_init_seq:0000000000000000 u8x8_d_ssd1306_128x64_noname_init_seq
/var/folders/v3/wysfpd052nz8jkbx04pk0ym80000gn/T//cc7iMqWr.s:860    .rodata.u8x8_d_ssd1306_128x64_noname_powersave0_seq:0000000000000000 $d
/var/folders/v3/wysfpd052nz8jkbx04pk0ym80000gn/T//cc7iMqWr.s:864    .rodata.u8x8_d_ssd1306_128x64_noname_powersave0_seq:0000000000000000 u8x8_d_ssd1306_128x64_noname_powersave0_seq
/var/folders/v3/wysfpd052nz8jkbx04pk0ym80000gn/T//cc7iMqWr.s:871    .rodata.u8x8_d_ssd1306_128x64_noname_powersave1_seq:0000000000000000 $d
/var/folders/v3/wysfpd052nz8jkbx04pk0ym80000gn/T//cc7iMqWr.s:875    .rodata.u8x8_d_ssd1306_128x64_noname_powersave1_seq:0000000000000000 u8x8_d_ssd1306_128x64_noname_powersave1_seq
/var/folders/v3/wysfpd052nz8jkbx04pk0ym80000gn/T//cc7iMqWr.s:882    .rodata.u8x8_d_ssd1306_128x64_vcomh0_init_seq:0000000000000000 $d
/var/folders/v3/wysfpd052nz8jkbx04pk0ym80000gn/T//cc7iMqWr.s:886    .rodata.u8x8_d_ssd1306_128x64_vcomh0_init_seq:0000000000000000 u8x8_d_ssd1306_128x64_vcomh0_init_seq
/var/folders/v3/wysfpd052nz8jkbx04pk0ym80000gn/T//cc7iMqWr.s:941    .rodata.u8x8_sh1106_128x64_noname_display_info:0000000000000000 $d
/var/folders/v3/wysfpd052nz8jkbx04pk0ym80000gn/T//cc7iMqWr.s:945    .rodata.u8x8_sh1106_128x64_noname_display_info:0000000000000000 u8x8_sh1106_128x64_noname_display_info
/var/folders/v3/wysfpd052nz8jkbx04pk0ym80000gn/T//cc7iMqWr.s:966    .rodata.u8x8_ssd1306_128x64_noname_display_info:0000000000000000 $d
/var/folders/v3/wysfpd052nz8jkbx04pk0ym80000gn/T//cc7iMqWr.s:970    .rodata.u8x8_ssd1306_128x64_noname_display_info:0000000000000000 u8x8_ssd1306_128x64_noname_display_info
/var/folders/v3/wysfpd052nz8jkbx04pk0ym80000gn/T//cc7iMqWr.s:61     .text.u8x8_d_ssd1306_sh1106_generic:0000000000000017 $d
/var/folders/v3/wysfpd052nz8jkbx04pk0ym80000gn/T//cc7iMqWr.s:61     .text.u8x8_d_ssd1306_sh1106_generic:0000000000000018 $t

UNDEFINED SYMBOLS
u8x8_cad_StartTransfer
u8x8_cad_SendCmd
u8x8_cad_SendArg
u8x8_cad_SendData
u8x8_cad_EndTransfer
u8x8_cad_SendSequence
u8x8_d_helper_display_init
u8x8_d_helper_display_setup_memory
