ARM GAS  /var/folders/v3/wysfpd052nz8jkbx04pk0ym80000gn/T//ccjdzUFz.s 			page 1


   1              		.cpu cortex-m4
   2              		.eabi_attribute 27, 1
   3              		.eabi_attribute 28, 1
   4              		.eabi_attribute 20, 1
   5              		.eabi_attribute 21, 1
   6              		.eabi_attribute 23, 3
   7              		.eabi_attribute 24, 1
   8              		.eabi_attribute 25, 1
   9              		.eabi_attribute 26, 1
  10              		.eabi_attribute 30, 2
  11              		.eabi_attribute 34, 1
  12              		.eabi_attribute 18, 4
  13              		.file	"u8x8_d_st7920.c"
  14              		.text
  15              	.Ltext0:
  16              		.cfi_sections	.debug_frame
  17              		.section	.text.u8x8_d_st7920_common,"ax",%progbits
  18              		.align	1
  19              		.p2align 2,,3
  20              		.global	u8x8_d_st7920_common
  21              		.syntax unified
  22              		.thumb
  23              		.thumb_func
  24              		.fpu fpv4-sp-d16
  26              	u8x8_d_st7920_common:
  27              	.LFB0:
  28              		.file 1 "/Users/imashio/Electronics/ARM/_Library/u8x8_d_st7920.c"
   1:/Users/imashio/Electronics/ARM/_Library/u8x8_d_st7920.c **** /*
   2:/Users/imashio/Electronics/ARM/_Library/u8x8_d_st7920.c **** 
   3:/Users/imashio/Electronics/ARM/_Library/u8x8_d_st7920.c ****   u8x8_d_st7920.c
   4:/Users/imashio/Electronics/ARM/_Library/u8x8_d_st7920.c ****   
   5:/Users/imashio/Electronics/ARM/_Library/u8x8_d_st7920.c ****   Universal 8bit Graphics Library (https://github.com/olikraus/u8g2/)
   6:/Users/imashio/Electronics/ARM/_Library/u8x8_d_st7920.c **** 
   7:/Users/imashio/Electronics/ARM/_Library/u8x8_d_st7920.c ****   Copyright (c) 2016, olikraus@gmail.com
   8:/Users/imashio/Electronics/ARM/_Library/u8x8_d_st7920.c ****   All rights reserved.
   9:/Users/imashio/Electronics/ARM/_Library/u8x8_d_st7920.c **** 
  10:/Users/imashio/Electronics/ARM/_Library/u8x8_d_st7920.c ****   Redistribution and use in source and binary forms, with or without modification, 
  11:/Users/imashio/Electronics/ARM/_Library/u8x8_d_st7920.c ****   are permitted provided that the following conditions are met:
  12:/Users/imashio/Electronics/ARM/_Library/u8x8_d_st7920.c **** 
  13:/Users/imashio/Electronics/ARM/_Library/u8x8_d_st7920.c ****   * Redistributions of source code must retain the above copyright notice, this list 
  14:/Users/imashio/Electronics/ARM/_Library/u8x8_d_st7920.c ****     of conditions and the following disclaimer.
  15:/Users/imashio/Electronics/ARM/_Library/u8x8_d_st7920.c ****     
  16:/Users/imashio/Electronics/ARM/_Library/u8x8_d_st7920.c ****   * Redistributions in binary form must reproduce the above copyright notice, this 
  17:/Users/imashio/Electronics/ARM/_Library/u8x8_d_st7920.c ****     list of conditions and the following disclaimer in the documentation and/or other 
  18:/Users/imashio/Electronics/ARM/_Library/u8x8_d_st7920.c ****     materials provided with the distribution.
  19:/Users/imashio/Electronics/ARM/_Library/u8x8_d_st7920.c **** 
  20:/Users/imashio/Electronics/ARM/_Library/u8x8_d_st7920.c ****   THIS SOFTWARE IS PROVIDED BY THE COPYRIGHT HOLDERS AND 
  21:/Users/imashio/Electronics/ARM/_Library/u8x8_d_st7920.c ****   CONTRIBUTORS "AS IS" AND ANY EXPRESS OR IMPLIED WARRANTIES, 
  22:/Users/imashio/Electronics/ARM/_Library/u8x8_d_st7920.c ****   INCLUDING, BUT NOT LIMITED TO, THE IMPLIED WARRANTIES OF 
  23:/Users/imashio/Electronics/ARM/_Library/u8x8_d_st7920.c ****   MERCHANTABILITY AND FITNESS FOR A PARTICULAR PURPOSE ARE 
  24:/Users/imashio/Electronics/ARM/_Library/u8x8_d_st7920.c ****   DISCLAIMED. IN NO EVENT SHALL THE COPYRIGHT HOLDER OR 
  25:/Users/imashio/Electronics/ARM/_Library/u8x8_d_st7920.c ****   CONTRIBUTORS BE LIABLE FOR ANY DIRECT, INDIRECT, INCIDENTAL, 
  26:/Users/imashio/Electronics/ARM/_Library/u8x8_d_st7920.c ****   SPECIAL, EXEMPLARY, OR CONSEQUENTIAL DAMAGES (INCLUDING, BUT 
  27:/Users/imashio/Electronics/ARM/_Library/u8x8_d_st7920.c ****   NOT LIMITED TO, PROCUREMENT OF SUBSTITUTE GOODS OR SERVICES; 
  28:/Users/imashio/Electronics/ARM/_Library/u8x8_d_st7920.c ****   LOSS OF USE, DATA, OR PROFITS; OR BUSINESS INTERRUPTION) HOWEVER 
  29:/Users/imashio/Electronics/ARM/_Library/u8x8_d_st7920.c ****   CAUSED AND ON ANY THEORY OF LIABILITY, WHETHER IN CONTRACT, 
  30:/Users/imashio/Electronics/ARM/_Library/u8x8_d_st7920.c ****   STRICT LIABILITY, OR TORT (INCLUDING NEGLIGENCE OR OTHERWISE) 
ARM GAS  /var/folders/v3/wysfpd052nz8jkbx04pk0ym80000gn/T//ccjdzUFz.s 			page 2


  31:/Users/imashio/Electronics/ARM/_Library/u8x8_d_st7920.c ****   ARISING IN ANY WAY OUT OF THE USE OF THIS SOFTWARE, EVEN IF 
  32:/Users/imashio/Electronics/ARM/_Library/u8x8_d_st7920.c ****   ADVISED OF THE POSSIBILITY OF SUCH DAMAGE.  
  33:/Users/imashio/Electronics/ARM/_Library/u8x8_d_st7920.c **** 
  34:/Users/imashio/Electronics/ARM/_Library/u8x8_d_st7920.c **** 
  35:/Users/imashio/Electronics/ARM/_Library/u8x8_d_st7920.c ****   The ST7920 controller does not support hardware graphics flip.
  36:/Users/imashio/Electronics/ARM/_Library/u8x8_d_st7920.c ****   Contrast adjustment is done by an external resistor --> no support for contrast adjustment
  37:/Users/imashio/Electronics/ARM/_Library/u8x8_d_st7920.c ****   
  38:/Users/imashio/Electronics/ARM/_Library/u8x8_d_st7920.c ****   
  39:/Users/imashio/Electronics/ARM/_Library/u8x8_d_st7920.c **** */
  40:/Users/imashio/Electronics/ARM/_Library/u8x8_d_st7920.c **** #include "u8x8.h"
  41:/Users/imashio/Electronics/ARM/_Library/u8x8_d_st7920.c **** 
  42:/Users/imashio/Electronics/ARM/_Library/u8x8_d_st7920.c **** 
  43:/Users/imashio/Electronics/ARM/_Library/u8x8_d_st7920.c **** 
  44:/Users/imashio/Electronics/ARM/_Library/u8x8_d_st7920.c **** static const uint8_t u8x8_d_st7920_init_seq[] = {
  45:/Users/imashio/Electronics/ARM/_Library/u8x8_d_st7920.c ****     
  46:/Users/imashio/Electronics/ARM/_Library/u8x8_d_st7920.c ****   U8X8_DLY(100),
  47:/Users/imashio/Electronics/ARM/_Library/u8x8_d_st7920.c ****   U8X8_START_TRANSFER(),             	/* enable chip, delay is part of the transfer start */
  48:/Users/imashio/Electronics/ARM/_Library/u8x8_d_st7920.c ****   U8X8_DLY(10),
  49:/Users/imashio/Electronics/ARM/_Library/u8x8_d_st7920.c ****   
  50:/Users/imashio/Electronics/ARM/_Library/u8x8_d_st7920.c ****   U8X8_C(0x038),            			/* 8 Bit interface (DL=1), basic instruction set (RE=0) */
  51:/Users/imashio/Electronics/ARM/_Library/u8x8_d_st7920.c ****   U8X8_C(0x008),		                /* display on, cursor & blink off; 0x08: all off */
  52:/Users/imashio/Electronics/ARM/_Library/u8x8_d_st7920.c ****   U8X8_C(0x006),		                /* Entry mode: Cursor move to right ,DDRAM address counter (AC) p
  53:/Users/imashio/Electronics/ARM/_Library/u8x8_d_st7920.c ****   U8X8_C(0x002),		                /* disable scroll, enable CGRAM adress  */
  54:/Users/imashio/Electronics/ARM/_Library/u8x8_d_st7920.c ****   U8X8_C(0x001),		                /* clear RAM, needs 1.6 ms */
  55:/Users/imashio/Electronics/ARM/_Library/u8x8_d_st7920.c ****   U8X8_DLY(4),					/* delay 2ms */
  56:/Users/imashio/Electronics/ARM/_Library/u8x8_d_st7920.c **** 
  57:/Users/imashio/Electronics/ARM/_Library/u8x8_d_st7920.c ****   
  58:/Users/imashio/Electronics/ARM/_Library/u8x8_d_st7920.c ****   U8X8_END_TRANSFER(),             	/* disable chip */
  59:/Users/imashio/Electronics/ARM/_Library/u8x8_d_st7920.c ****   U8X8_END()             			/* end of sequence */
  60:/Users/imashio/Electronics/ARM/_Library/u8x8_d_st7920.c **** };
  61:/Users/imashio/Electronics/ARM/_Library/u8x8_d_st7920.c **** 
  62:/Users/imashio/Electronics/ARM/_Library/u8x8_d_st7920.c **** static const uint8_t u8x8_d_st7920_powersave0_seq[] = {
  63:/Users/imashio/Electronics/ARM/_Library/u8x8_d_st7920.c ****   U8X8_START_TRANSFER(),             	/* enable chip, delay is part of the transfer start */
  64:/Users/imashio/Electronics/ARM/_Library/u8x8_d_st7920.c ****   U8X8_C(0x038),            			/* 8 Bit interface (DL=1), basic instruction set (RE=0) */
  65:/Users/imashio/Electronics/ARM/_Library/u8x8_d_st7920.c ****   U8X8_C(0x00c),		                /* display on, cursor & blink off */
  66:/Users/imashio/Electronics/ARM/_Library/u8x8_d_st7920.c ****   U8X8_END_TRANSFER(),             	/* disable chip */
  67:/Users/imashio/Electronics/ARM/_Library/u8x8_d_st7920.c ****   U8X8_END()             			/* end of sequence */
  68:/Users/imashio/Electronics/ARM/_Library/u8x8_d_st7920.c **** };
  69:/Users/imashio/Electronics/ARM/_Library/u8x8_d_st7920.c **** 
  70:/Users/imashio/Electronics/ARM/_Library/u8x8_d_st7920.c **** static const uint8_t u8x8_d_st7920_powersave1_seq[] = {
  71:/Users/imashio/Electronics/ARM/_Library/u8x8_d_st7920.c ****   U8X8_START_TRANSFER(),             	/* enable chip, delay is part of the transfer start */
  72:/Users/imashio/Electronics/ARM/_Library/u8x8_d_st7920.c ****   U8X8_C(0x038),            			/* 8 Bit interface (DL=1), basic instruction set (RE=0) */
  73:/Users/imashio/Electronics/ARM/_Library/u8x8_d_st7920.c ****   U8X8_C(0x008),		                /* display off */
  74:/Users/imashio/Electronics/ARM/_Library/u8x8_d_st7920.c ****   U8X8_END_TRANSFER(),             	/* disable chip */
  75:/Users/imashio/Electronics/ARM/_Library/u8x8_d_st7920.c ****   U8X8_END()             			/* end of sequence */
  76:/Users/imashio/Electronics/ARM/_Library/u8x8_d_st7920.c **** };
  77:/Users/imashio/Electronics/ARM/_Library/u8x8_d_st7920.c **** 
  78:/Users/imashio/Electronics/ARM/_Library/u8x8_d_st7920.c **** 
  79:/Users/imashio/Electronics/ARM/_Library/u8x8_d_st7920.c **** uint8_t u8x8_d_st7920_common(u8x8_t *u8x8, uint8_t msg, uint8_t arg_int, void *arg_ptr)
  80:/Users/imashio/Electronics/ARM/_Library/u8x8_d_st7920.c **** {
  29              		.loc 1 80 0
  30              		.cfi_startproc
  31              		@ args = 0, pretend = 0, frame = 0
  32              		@ frame_needed = 0, uses_anonymous_args = 0
  33              	.LVL0:
  81:/Users/imashio/Electronics/ARM/_Library/u8x8_d_st7920.c ****   uint8_t x, y, c, i;
  82:/Users/imashio/Electronics/ARM/_Library/u8x8_d_st7920.c ****   uint8_t *ptr;
ARM GAS  /var/folders/v3/wysfpd052nz8jkbx04pk0ym80000gn/T//ccjdzUFz.s 			page 3


  83:/Users/imashio/Electronics/ARM/_Library/u8x8_d_st7920.c ****   switch(msg)
  34              		.loc 1 83 0
  35 0000 0B29     		cmp	r1, #11
  80:/Users/imashio/Electronics/ARM/_Library/u8x8_d_st7920.c ****   uint8_t x, y, c, i;
  36              		.loc 1 80 0
  37 0002 2DE9F843 		push	{r3, r4, r5, r6, r7, r8, r9, lr}
  38              	.LCFI0:
  39              		.cfi_def_cfa_offset 32
  40              		.cfi_offset 3, -32
  41              		.cfi_offset 4, -28
  42              		.cfi_offset 5, -24
  43              		.cfi_offset 6, -20
  44              		.cfi_offset 7, -16
  45              		.cfi_offset 8, -12
  46              		.cfi_offset 9, -8
  47              		.cfi_offset 14, -4
  48              		.loc 1 83 0
  49 0006 41D0     		beq	.L3
  50 0008 0F29     		cmp	r1, #15
  51 000a 0546     		mov	r5, r0
  52 000c 0DD0     		beq	.L4
  53 000e 0A29     		cmp	r1, #10
  54 0010 02D0     		beq	.L14
  84:/Users/imashio/Electronics/ARM/_Library/u8x8_d_st7920.c ****   {
  85:/Users/imashio/Electronics/ARM/_Library/u8x8_d_st7920.c ****     /* U8X8_MSG_DISPLAY_SETUP_MEMORY is handled by the calling function */
  86:/Users/imashio/Electronics/ARM/_Library/u8x8_d_st7920.c ****     /*
  87:/Users/imashio/Electronics/ARM/_Library/u8x8_d_st7920.c ****     case U8X8_MSG_DISPLAY_SETUP_MEMORY:
  88:/Users/imashio/Electronics/ARM/_Library/u8x8_d_st7920.c ****       break;
  89:/Users/imashio/Electronics/ARM/_Library/u8x8_d_st7920.c ****     */
  90:/Users/imashio/Electronics/ARM/_Library/u8x8_d_st7920.c ****     case U8X8_MSG_DISPLAY_INIT:
  91:/Users/imashio/Electronics/ARM/_Library/u8x8_d_st7920.c ****       u8x8_d_helper_display_init(u8x8);
  92:/Users/imashio/Electronics/ARM/_Library/u8x8_d_st7920.c ****       u8x8_cad_SendSequence(u8x8, u8x8_d_st7920_init_seq);
  93:/Users/imashio/Electronics/ARM/_Library/u8x8_d_st7920.c ****       break;
  94:/Users/imashio/Electronics/ARM/_Library/u8x8_d_st7920.c ****     case U8X8_MSG_DISPLAY_SET_POWER_SAVE:
  95:/Users/imashio/Electronics/ARM/_Library/u8x8_d_st7920.c ****       if ( arg_int == 0 )
  96:/Users/imashio/Electronics/ARM/_Library/u8x8_d_st7920.c **** 	u8x8_cad_SendSequence(u8x8, u8x8_d_st7920_powersave0_seq);
  97:/Users/imashio/Electronics/ARM/_Library/u8x8_d_st7920.c ****       else
  98:/Users/imashio/Electronics/ARM/_Library/u8x8_d_st7920.c **** 	u8x8_cad_SendSequence(u8x8, u8x8_d_st7920_powersave1_seq);
  99:/Users/imashio/Electronics/ARM/_Library/u8x8_d_st7920.c ****       break;
 100:/Users/imashio/Electronics/ARM/_Library/u8x8_d_st7920.c ****     case U8X8_MSG_DISPLAY_DRAW_TILE:
 101:/Users/imashio/Electronics/ARM/_Library/u8x8_d_st7920.c ****       y = (((u8x8_tile_t *)arg_ptr)->y_pos);
 102:/Users/imashio/Electronics/ARM/_Library/u8x8_d_st7920.c ****       y*=8;
 103:/Users/imashio/Electronics/ARM/_Library/u8x8_d_st7920.c ****       x = ((u8x8_tile_t *)arg_ptr)->x_pos;
 104:/Users/imashio/Electronics/ARM/_Library/u8x8_d_st7920.c ****       x /= 2;		/* not sure whether this is a clever idea, problem is, the ST7920 can address only e
 105:/Users/imashio/Electronics/ARM/_Library/u8x8_d_st7920.c ****     
 106:/Users/imashio/Electronics/ARM/_Library/u8x8_d_st7920.c ****       if ( y >= 32 )	/* this is the adjustment for 128x64 displays */
 107:/Users/imashio/Electronics/ARM/_Library/u8x8_d_st7920.c ****       {
 108:/Users/imashio/Electronics/ARM/_Library/u8x8_d_st7920.c **** 	y-=32;
 109:/Users/imashio/Electronics/ARM/_Library/u8x8_d_st7920.c **** 	x+=8;
 110:/Users/imashio/Electronics/ARM/_Library/u8x8_d_st7920.c ****       }
 111:/Users/imashio/Electronics/ARM/_Library/u8x8_d_st7920.c ****     
 112:/Users/imashio/Electronics/ARM/_Library/u8x8_d_st7920.c ****       u8x8_cad_StartTransfer(u8x8);
 113:/Users/imashio/Electronics/ARM/_Library/u8x8_d_st7920.c ****         
 114:/Users/imashio/Electronics/ARM/_Library/u8x8_d_st7920.c **** 
 115:/Users/imashio/Electronics/ARM/_Library/u8x8_d_st7920.c ****       /* 
 116:/Users/imashio/Electronics/ARM/_Library/u8x8_d_st7920.c **** 	Tile structure is reused here for the ST7920, however u8x8 is not supported 
 117:/Users/imashio/Electronics/ARM/_Library/u8x8_d_st7920.c **** 	tile_ptr points to data which has cnt*8 bytes (same as SSD1306 tiles)
ARM GAS  /var/folders/v3/wysfpd052nz8jkbx04pk0ym80000gn/T//ccjdzUFz.s 			page 4


 118:/Users/imashio/Electronics/ARM/_Library/u8x8_d_st7920.c **** 	Buffer is expected to have 8 lines of code fitting to the ST7920 internal memory
 119:/Users/imashio/Electronics/ARM/_Library/u8x8_d_st7920.c **** 	"cnt" includes the number of horizontal bytes. width is equal to cnt*8
 120:/Users/imashio/Electronics/ARM/_Library/u8x8_d_st7920.c **** 	Also important: Width must be a multiple of 16 (ST7920 requirement), so cnt must be even.
 121:/Users/imashio/Electronics/ARM/_Library/u8x8_d_st7920.c **** 	
 122:/Users/imashio/Electronics/ARM/_Library/u8x8_d_st7920.c **** 	TODO: Consider arg_int, however arg_int is not used by u8g2
 123:/Users/imashio/Electronics/ARM/_Library/u8x8_d_st7920.c ****       */
 124:/Users/imashio/Electronics/ARM/_Library/u8x8_d_st7920.c ****       c = ((u8x8_tile_t *)arg_ptr)->cnt;	/* number of tiles */
 125:/Users/imashio/Electronics/ARM/_Library/u8x8_d_st7920.c ****       ptr = ((u8x8_tile_t *)arg_ptr)->tile_ptr;	/* data ptr to the tiles */
 126:/Users/imashio/Electronics/ARM/_Library/u8x8_d_st7920.c ****       /* The following byte is sent to allow the ST7920 to sync up with the data */
 127:/Users/imashio/Electronics/ARM/_Library/u8x8_d_st7920.c ****       /* it solves some issues with garbage data */
 128:/Users/imashio/Electronics/ARM/_Library/u8x8_d_st7920.c ****       u8x8_cad_SendCmd(u8x8, 0x03e );	/* enable extended mode */
 129:/Users/imashio/Electronics/ARM/_Library/u8x8_d_st7920.c ****       for( i = 0; i < 8; i++ )
 130:/Users/imashio/Electronics/ARM/_Library/u8x8_d_st7920.c ****       {
 131:/Users/imashio/Electronics/ARM/_Library/u8x8_d_st7920.c **** 	//u8x8_cad_SendCmd(u8x8, 0x03e );	/* enable extended mode */
 132:/Users/imashio/Electronics/ARM/_Library/u8x8_d_st7920.c **** 	u8x8_cad_SendCmd(u8x8, 0x080 | (y+i) );      /* y pos  */
 133:/Users/imashio/Electronics/ARM/_Library/u8x8_d_st7920.c **** 	u8x8_cad_SendCmd(u8x8, 0x080 | x );      /* set x pos */
 134:/Users/imashio/Electronics/ARM/_Library/u8x8_d_st7920.c **** 	c = ((u8x8_tile_t *)arg_ptr)->cnt;	/* number of tiles */
 135:/Users/imashio/Electronics/ARM/_Library/u8x8_d_st7920.c **** 
 136:/Users/imashio/Electronics/ARM/_Library/u8x8_d_st7920.c **** 	//u8x8->gpio_and_delay_cb(u8x8, U8X8_MSG_DELAY_NANO, 200, NULL);	/* extra dely required */
 137:/Users/imashio/Electronics/ARM/_Library/u8x8_d_st7920.c **** 	u8x8_cad_SendData(u8x8, c, ptr);	/* note: SendData can not handle more than 255 bytes, send one li
 138:/Users/imashio/Electronics/ARM/_Library/u8x8_d_st7920.c **** 	ptr += c;
 139:/Users/imashio/Electronics/ARM/_Library/u8x8_d_st7920.c **** 	//u8x8->gpio_and_delay_cb(u8x8, U8X8_MSG_DELAY_NANO, 200, NULL);	/* extra dely required */
 140:/Users/imashio/Electronics/ARM/_Library/u8x8_d_st7920.c ****       }
 141:/Users/imashio/Electronics/ARM/_Library/u8x8_d_st7920.c **** 
 142:/Users/imashio/Electronics/ARM/_Library/u8x8_d_st7920.c ****       u8x8_cad_EndTransfer(u8x8);
 143:/Users/imashio/Electronics/ARM/_Library/u8x8_d_st7920.c **** 
 144:/Users/imashio/Electronics/ARM/_Library/u8x8_d_st7920.c ****       break;
 145:/Users/imashio/Electronics/ARM/_Library/u8x8_d_st7920.c ****     default:
 146:/Users/imashio/Electronics/ARM/_Library/u8x8_d_st7920.c ****       return 0;
  55              		.loc 1 146 0
  56 0012 0020     		movs	r0, #0
  57              	.LVL1:
 147:/Users/imashio/Electronics/ARM/_Library/u8x8_d_st7920.c ****   }
 148:/Users/imashio/Electronics/ARM/_Library/u8x8_d_st7920.c ****   return 1;
 149:/Users/imashio/Electronics/ARM/_Library/u8x8_d_st7920.c **** }
  58              		.loc 1 149 0
  59 0014 BDE8F883 		pop	{r3, r4, r5, r6, r7, r8, r9, pc}
  60              	.LVL2:
  61              	.L14:
  91:/Users/imashio/Electronics/ARM/_Library/u8x8_d_st7920.c ****       u8x8_cad_SendSequence(u8x8, u8x8_d_st7920_init_seq);
  62              		.loc 1 91 0
  63 0018 FFF7FEFF 		bl	u8x8_d_helper_display_init
  64              	.LVL3:
  92:/Users/imashio/Electronics/ARM/_Library/u8x8_d_st7920.c ****       break;
  65              		.loc 1 92 0
  66 001c 2846     		mov	r0, r5
  67 001e 2449     		ldr	r1, .L16
  68 0020 FFF7FEFF 		bl	u8x8_cad_SendSequence
  69              	.LVL4:
 148:/Users/imashio/Electronics/ARM/_Library/u8x8_d_st7920.c **** }
  70              		.loc 1 148 0
  71 0024 0120     		movs	r0, #1
  72              		.loc 1 149 0
  73 0026 BDE8F883 		pop	{r3, r4, r5, r6, r7, r8, r9, pc}
  74              	.LVL5:
  75              	.L4:
  76              	.LBB4:
ARM GAS  /var/folders/v3/wysfpd052nz8jkbx04pk0ym80000gn/T//ccjdzUFz.s 			page 5


  77              	.LBB5:
 101:/Users/imashio/Electronics/ARM/_Library/u8x8_d_st7920.c ****       y*=8;
  78              		.loc 1 101 0
  79 002a 9F79     		ldrb	r7, [r3, #6]	@ zero_extendqisi2
  80              	.LVL6:
 103:/Users/imashio/Electronics/ARM/_Library/u8x8_d_st7920.c ****       x /= 2;		/* not sure whether this is a clever idea, problem is, the ST7920 can address only e
  81              		.loc 1 103 0
  82 002c 93F80590 		ldrb	r9, [r3, #5]	@ zero_extendqisi2
 102:/Users/imashio/Electronics/ARM/_Library/u8x8_d_st7920.c ****       x = ((u8x8_tile_t *)arg_ptr)->x_pos;
  83              		.loc 1 102 0
  84 0030 FF00     		lsls	r7, r7, #3
  85              	.LVL7:
  86 0032 FFB2     		uxtb	r7, r7
  87              	.LVL8:
 106:/Users/imashio/Electronics/ARM/_Library/u8x8_d_st7920.c ****       {
  88              		.loc 1 106 0
  89 0034 1F2F     		cmp	r7, #31
  90 0036 9846     		mov	r8, r3
 104:/Users/imashio/Electronics/ARM/_Library/u8x8_d_st7920.c ****     
  91              		.loc 1 104 0
  92 0038 4FEA5909 		lsr	r9, r9, #1
  93              	.LVL9:
 106:/Users/imashio/Electronics/ARM/_Library/u8x8_d_st7920.c ****       {
  94              		.loc 1 106 0
  95 003c 33D8     		bhi	.L15
  96              	.L7:
 112:/Users/imashio/Electronics/ARM/_Library/u8x8_d_st7920.c ****         
  97              		.loc 1 112 0
  98 003e 2846     		mov	r0, r5
  99              	.LVL10:
 100 0040 FFF7FEFF 		bl	u8x8_cad_StartTransfer
 101              	.LVL11:
 128:/Users/imashio/Electronics/ARM/_Library/u8x8_d_st7920.c ****       for( i = 0; i < 8; i++ )
 102              		.loc 1 128 0
 103 0044 3E21     		movs	r1, #62
 104 0046 2846     		mov	r0, r5
 125:/Users/imashio/Electronics/ARM/_Library/u8x8_d_st7920.c ****       /* The following byte is sent to allow the ST7920 to sync up with the data */
 105              		.loc 1 125 0
 106 0048 D8F80060 		ldr	r6, [r8]
 107              	.LVL12:
 128:/Users/imashio/Electronics/ARM/_Library/u8x8_d_st7920.c ****       for( i = 0; i < 8; i++ )
 108              		.loc 1 128 0
 109 004c FFF7FEFF 		bl	u8x8_cad_SendCmd
 110              	.LVL13:
 111 0050 49F08009 		orr	r9, r9, #128
 112              	.LVL14:
 113 0054 0024     		movs	r4, #0
 114              	.LVL15:
 115              	.L8:
 132:/Users/imashio/Electronics/ARM/_Library/u8x8_d_st7920.c **** 	u8x8_cad_SendCmd(u8x8, 0x080 | x );      /* set x pos */
 116              		.loc 1 132 0
 117 0056 3919     		adds	r1, r7, r4
 118 0058 61F07F01 		orn	r1, r1, #127
 119 005c C9B2     		uxtb	r1, r1
 120 005e 2846     		mov	r0, r5
 121 0060 FFF7FEFF 		bl	u8x8_cad_SendCmd
 122              	.LVL16:
ARM GAS  /var/folders/v3/wysfpd052nz8jkbx04pk0ym80000gn/T//ccjdzUFz.s 			page 6


 133:/Users/imashio/Electronics/ARM/_Library/u8x8_d_st7920.c **** 	c = ((u8x8_tile_t *)arg_ptr)->cnt;	/* number of tiles */
 123              		.loc 1 133 0
 124 0064 4946     		mov	r1, r9
 125 0066 2846     		mov	r0, r5
 126 0068 FFF7FEFF 		bl	u8x8_cad_SendCmd
 127              	.LVL17:
 134:/Users/imashio/Electronics/ARM/_Library/u8x8_d_st7920.c **** 
 128              		.loc 1 134 0
 129 006c 98F80410 		ldrb	r1, [r8, #4]	@ zero_extendqisi2
 130              	.LVL18:
 137:/Users/imashio/Electronics/ARM/_Library/u8x8_d_st7920.c **** 	ptr += c;
 131              		.loc 1 137 0
 132 0070 3246     		mov	r2, r6
 133 0072 0134     		adds	r4, r4, #1
 134              	.LVL19:
 135 0074 2846     		mov	r0, r5
 138:/Users/imashio/Electronics/ARM/_Library/u8x8_d_st7920.c **** 	//u8x8->gpio_and_delay_cb(u8x8, U8X8_MSG_DELAY_NANO, 200, NULL);	/* extra dely required */
 136              		.loc 1 138 0
 137 0076 0E44     		add	r6, r6, r1
 138              	.LVL20:
 137:/Users/imashio/Electronics/ARM/_Library/u8x8_d_st7920.c **** 	ptr += c;
 139              		.loc 1 137 0
 140 0078 FFF7FEFF 		bl	u8x8_cad_SendData
 141              	.LVL21:
 129:/Users/imashio/Electronics/ARM/_Library/u8x8_d_st7920.c ****       {
 142              		.loc 1 129 0
 143 007c 082C     		cmp	r4, #8
 144 007e EAD1     		bne	.L8
 142:/Users/imashio/Electronics/ARM/_Library/u8x8_d_st7920.c **** 
 145              		.loc 1 142 0
 146 0080 2846     		mov	r0, r5
 147 0082 FFF7FEFF 		bl	u8x8_cad_EndTransfer
 148              	.LVL22:
 149 0086 0120     		movs	r0, #1
 150              	.LBE5:
 151              	.LBE4:
 152              		.loc 1 149 0
 153 0088 BDE8F883 		pop	{r3, r4, r5, r6, r7, r8, r9, pc}
 154              	.LVL23:
 155              	.L3:
  95:/Users/imashio/Electronics/ARM/_Library/u8x8_d_st7920.c **** 	u8x8_cad_SendSequence(u8x8, u8x8_d_st7920_powersave0_seq);
 156              		.loc 1 95 0
 157 008c 2AB9     		cbnz	r2, .L6
  96:/Users/imashio/Electronics/ARM/_Library/u8x8_d_st7920.c ****       else
 158              		.loc 1 96 0
 159 008e 0949     		ldr	r1, .L16+4
 160              	.LVL24:
 161 0090 FFF7FEFF 		bl	u8x8_cad_SendSequence
 162              	.LVL25:
 148:/Users/imashio/Electronics/ARM/_Library/u8x8_d_st7920.c **** }
 163              		.loc 1 148 0
 164 0094 0120     		movs	r0, #1
 165              		.loc 1 149 0
 166 0096 BDE8F883 		pop	{r3, r4, r5, r6, r7, r8, r9, pc}
 167              	.LVL26:
 168              	.L6:
  98:/Users/imashio/Electronics/ARM/_Library/u8x8_d_st7920.c ****       break;
ARM GAS  /var/folders/v3/wysfpd052nz8jkbx04pk0ym80000gn/T//ccjdzUFz.s 			page 7


 169              		.loc 1 98 0
 170 009a 0749     		ldr	r1, .L16+8
 171              	.LVL27:
 172 009c FFF7FEFF 		bl	u8x8_cad_SendSequence
 173              	.LVL28:
 148:/Users/imashio/Electronics/ARM/_Library/u8x8_d_st7920.c **** }
 174              		.loc 1 148 0
 175 00a0 0120     		movs	r0, #1
 176              		.loc 1 149 0
 177 00a2 BDE8F883 		pop	{r3, r4, r5, r6, r7, r8, r9, pc}
 178              	.LVL29:
 179              	.L15:
 180              	.LBB7:
 181              	.LBB6:
 108:/Users/imashio/Electronics/ARM/_Library/u8x8_d_st7920.c **** 	x+=8;
 182              		.loc 1 108 0
 183 00a6 203F     		subs	r7, r7, #32
 184              	.LVL30:
 185 00a8 FFB2     		uxtb	r7, r7
 186              	.LVL31:
 109:/Users/imashio/Electronics/ARM/_Library/u8x8_d_st7920.c ****       }
 187              		.loc 1 109 0
 188 00aa 09F10809 		add	r9, r9, #8
 189              	.LVL32:
 190 00ae C6E7     		b	.L7
 191              	.L17:
 192              		.align	2
 193              	.L16:
 194 00b0 00000000 		.word	.LANCHOR0
 195 00b4 00000000 		.word	.LANCHOR1
 196 00b8 00000000 		.word	.LANCHOR2
 197              	.LBE6:
 198              	.LBE7:
 199              		.cfi_endproc
 200              	.LFE0:
 202              		.section	.text.u8x8_d_st7920_192x32,"ax",%progbits
 203              		.align	1
 204              		.p2align 2,,3
 205              		.global	u8x8_d_st7920_192x32
 206              		.syntax unified
 207              		.thumb
 208              		.thumb_func
 209              		.fpu fpv4-sp-d16
 211              	u8x8_d_st7920_192x32:
 212              	.LFB1:
 150:/Users/imashio/Electronics/ARM/_Library/u8x8_d_st7920.c **** 
 151:/Users/imashio/Electronics/ARM/_Library/u8x8_d_st7920.c **** static const u8x8_display_info_t u8x8_st7920_192x32_display_info =
 152:/Users/imashio/Electronics/ARM/_Library/u8x8_d_st7920.c **** {
 153:/Users/imashio/Electronics/ARM/_Library/u8x8_d_st7920.c ****   /* chip_enable_level = */ 1,
 154:/Users/imashio/Electronics/ARM/_Library/u8x8_d_st7920.c ****   /* chip_disable_level = */ 0,
 155:/Users/imashio/Electronics/ARM/_Library/u8x8_d_st7920.c ****   
 156:/Users/imashio/Electronics/ARM/_Library/u8x8_d_st7920.c ****   /* post_chip_enable_wait_ns = */ 5,
 157:/Users/imashio/Electronics/ARM/_Library/u8x8_d_st7920.c ****   /* pre_chip_disable_wait_ns = */ 5,
 158:/Users/imashio/Electronics/ARM/_Library/u8x8_d_st7920.c ****   /* reset_pulse_width_ms = */ 1, 
 159:/Users/imashio/Electronics/ARM/_Library/u8x8_d_st7920.c ****   /* post_reset_wait_ms = */ 6, 
 160:/Users/imashio/Electronics/ARM/_Library/u8x8_d_st7920.c ****   /* sda_setup_time_ns = */ 20,		
 161:/Users/imashio/Electronics/ARM/_Library/u8x8_d_st7920.c ****   /* sck_pulse_width_ns = */  140,	/* datasheet ST7920 */
ARM GAS  /var/folders/v3/wysfpd052nz8jkbx04pk0ym80000gn/T//ccjdzUFz.s 			page 8


 162:/Users/imashio/Electronics/ARM/_Library/u8x8_d_st7920.c ****   /* sck_clock_hz = */ 1000000UL,	/* since Arduino 1.6.0, the SPI bus speed in Hz. Should be  10000
 163:/Users/imashio/Electronics/ARM/_Library/u8x8_d_st7920.c ****   /* spi_mode = */ 3,		/* old: sck_takeover_edge, new: active high (bit 1), rising edge (bit 0), 18
 164:/Users/imashio/Electronics/ARM/_Library/u8x8_d_st7920.c **** 	/* Arduino mode 3: aktive low clock, but use rising edge */
 165:/Users/imashio/Electronics/ARM/_Library/u8x8_d_st7920.c ****   /* i2c_bus_clock_100kHz = */ 4,
 166:/Users/imashio/Electronics/ARM/_Library/u8x8_d_st7920.c ****   /* data_setup_time_ns = */ 30,
 167:/Users/imashio/Electronics/ARM/_Library/u8x8_d_st7920.c ****   /* write_pulse_width_ns = */ 40,
 168:/Users/imashio/Electronics/ARM/_Library/u8x8_d_st7920.c ****   /* tile_width = */ 24,
 169:/Users/imashio/Electronics/ARM/_Library/u8x8_d_st7920.c ****   /* tile_hight = */ 4,
 170:/Users/imashio/Electronics/ARM/_Library/u8x8_d_st7920.c ****   /* default_x_offset = */ 0,
 171:/Users/imashio/Electronics/ARM/_Library/u8x8_d_st7920.c ****   /* flipmode_x_offset = */ 0,
 172:/Users/imashio/Electronics/ARM/_Library/u8x8_d_st7920.c ****   /* pixel_width = */ 192,
 173:/Users/imashio/Electronics/ARM/_Library/u8x8_d_st7920.c ****   /* pixel_height = */ 32
 174:/Users/imashio/Electronics/ARM/_Library/u8x8_d_st7920.c **** };
 175:/Users/imashio/Electronics/ARM/_Library/u8x8_d_st7920.c **** 
 176:/Users/imashio/Electronics/ARM/_Library/u8x8_d_st7920.c **** static const u8x8_display_info_t u8x8_st7920_128x64_display_info =
 177:/Users/imashio/Electronics/ARM/_Library/u8x8_d_st7920.c **** {
 178:/Users/imashio/Electronics/ARM/_Library/u8x8_d_st7920.c ****   /* chip_enable_level = */ 1,
 179:/Users/imashio/Electronics/ARM/_Library/u8x8_d_st7920.c ****   /* chip_disable_level = */ 0,
 180:/Users/imashio/Electronics/ARM/_Library/u8x8_d_st7920.c ****   
 181:/Users/imashio/Electronics/ARM/_Library/u8x8_d_st7920.c ****   /* post_chip_enable_wait_ns = */ 5,
 182:/Users/imashio/Electronics/ARM/_Library/u8x8_d_st7920.c ****   /* pre_chip_disable_wait_ns = */ 5,
 183:/Users/imashio/Electronics/ARM/_Library/u8x8_d_st7920.c ****   /* reset_pulse_width_ms = */ 1, 
 184:/Users/imashio/Electronics/ARM/_Library/u8x8_d_st7920.c ****   /* post_reset_wait_ms = */ 6, 
 185:/Users/imashio/Electronics/ARM/_Library/u8x8_d_st7920.c ****   /* sda_setup_time_ns = */ 20,		
 186:/Users/imashio/Electronics/ARM/_Library/u8x8_d_st7920.c ****   /* sck_pulse_width_ns = */  140,	/* datasheet ST7920 */
 187:/Users/imashio/Electronics/ARM/_Library/u8x8_d_st7920.c ****   /* sck_clock_hz = */ 1000000UL,	/* since Arduino 1.6.0, the SPI bus speed in Hz. Should be  10000
 188:/Users/imashio/Electronics/ARM/_Library/u8x8_d_st7920.c ****   /* ST7920+Due work with 1MHz but not with 2MHz, ST7920+Uno works with 2MHz */
 189:/Users/imashio/Electronics/ARM/_Library/u8x8_d_st7920.c ****   /* spi_mode = */ 3,		/* active high, rising edge, 18 Aug 16: changed from 1 to 3 which works for 
 190:/Users/imashio/Electronics/ARM/_Library/u8x8_d_st7920.c ****   /* in theory mode 3 should be correct  */
 191:/Users/imashio/Electronics/ARM/_Library/u8x8_d_st7920.c ****   /* i2c_bus_clock_100kHz = */ 4,
 192:/Users/imashio/Electronics/ARM/_Library/u8x8_d_st7920.c ****   /* data_setup_time_ns = */ 30,
 193:/Users/imashio/Electronics/ARM/_Library/u8x8_d_st7920.c ****   /* write_pulse_width_ns = */ 40,
 194:/Users/imashio/Electronics/ARM/_Library/u8x8_d_st7920.c ****   /* tile_width = */ 16,
 195:/Users/imashio/Electronics/ARM/_Library/u8x8_d_st7920.c ****   /* tile_hight = */ 8,
 196:/Users/imashio/Electronics/ARM/_Library/u8x8_d_st7920.c ****   /* default_x_offset = */ 0,
 197:/Users/imashio/Electronics/ARM/_Library/u8x8_d_st7920.c ****   /* flipmode_x_offset = */ 0,
 198:/Users/imashio/Electronics/ARM/_Library/u8x8_d_st7920.c ****   /* pixel_width = */ 128,
 199:/Users/imashio/Electronics/ARM/_Library/u8x8_d_st7920.c ****   /* pixel_height = */ 64
 200:/Users/imashio/Electronics/ARM/_Library/u8x8_d_st7920.c **** };
 201:/Users/imashio/Electronics/ARM/_Library/u8x8_d_st7920.c **** 
 202:/Users/imashio/Electronics/ARM/_Library/u8x8_d_st7920.c **** uint8_t u8x8_d_st7920_192x32(u8x8_t *u8x8, uint8_t msg, uint8_t arg_int, void *arg_ptr)
 203:/Users/imashio/Electronics/ARM/_Library/u8x8_d_st7920.c **** {
 213              		.loc 1 203 0
 214              		.cfi_startproc
 215              		@ args = 0, pretend = 0, frame = 0
 216              		@ frame_needed = 0, uses_anonymous_args = 0
 217              	.LVL33:
 204:/Users/imashio/Electronics/ARM/_Library/u8x8_d_st7920.c ****   switch(msg)
 218              		.loc 1 204 0
 219 0000 0929     		cmp	r1, #9
 220 0002 01D0     		beq	.L24
 205:/Users/imashio/Electronics/ARM/_Library/u8x8_d_st7920.c ****   {
 206:/Users/imashio/Electronics/ARM/_Library/u8x8_d_st7920.c ****     case U8X8_MSG_DISPLAY_SETUP_MEMORY:
 207:/Users/imashio/Electronics/ARM/_Library/u8x8_d_st7920.c ****       u8x8_d_helper_display_setup_memory(u8x8, &u8x8_st7920_192x32_display_info);
 208:/Users/imashio/Electronics/ARM/_Library/u8x8_d_st7920.c ****       break;
 209:/Users/imashio/Electronics/ARM/_Library/u8x8_d_st7920.c ****     default:
 210:/Users/imashio/Electronics/ARM/_Library/u8x8_d_st7920.c ****       return u8x8_d_st7920_common(u8x8, msg, arg_int, arg_ptr);
ARM GAS  /var/folders/v3/wysfpd052nz8jkbx04pk0ym80000gn/T//ccjdzUFz.s 			page 9


 221              		.loc 1 210 0
 222 0004 FFF7FEBF 		b	u8x8_d_st7920_common
 223              	.LVL34:
 224              	.L24:
 203:/Users/imashio/Electronics/ARM/_Library/u8x8_d_st7920.c ****   switch(msg)
 225              		.loc 1 203 0
 226 0008 10B5     		push	{r4, lr}
 227              	.LCFI1:
 228              		.cfi_def_cfa_offset 8
 229              		.cfi_offset 4, -8
 230              		.cfi_offset 14, -4
 207:/Users/imashio/Electronics/ARM/_Library/u8x8_d_st7920.c ****       break;
 231              		.loc 1 207 0
 232 000a 0249     		ldr	r1, .L27
 233              	.LVL35:
 234 000c FFF7FEFF 		bl	u8x8_d_helper_display_setup_memory
 235              	.LVL36:
 211:/Users/imashio/Electronics/ARM/_Library/u8x8_d_st7920.c ****   }
 212:/Users/imashio/Electronics/ARM/_Library/u8x8_d_st7920.c ****   return 1;
 213:/Users/imashio/Electronics/ARM/_Library/u8x8_d_st7920.c **** }
 236              		.loc 1 213 0
 237 0010 0120     		movs	r0, #1
 238 0012 10BD     		pop	{r4, pc}
 239              	.L28:
 240              		.align	2
 241              	.L27:
 242 0014 00000000 		.word	.LANCHOR3
 243              		.cfi_endproc
 244              	.LFE1:
 246              		.section	.text.u8x8_d_st7920_128x64,"ax",%progbits
 247              		.align	1
 248              		.p2align 2,,3
 249              		.global	u8x8_d_st7920_128x64
 250              		.syntax unified
 251              		.thumb
 252              		.thumb_func
 253              		.fpu fpv4-sp-d16
 255              	u8x8_d_st7920_128x64:
 256              	.LFB2:
 214:/Users/imashio/Electronics/ARM/_Library/u8x8_d_st7920.c **** 
 215:/Users/imashio/Electronics/ARM/_Library/u8x8_d_st7920.c **** uint8_t u8x8_d_st7920_128x64(u8x8_t *u8x8, uint8_t msg, uint8_t arg_int, void *arg_ptr)
 216:/Users/imashio/Electronics/ARM/_Library/u8x8_d_st7920.c **** {
 257              		.loc 1 216 0
 258              		.cfi_startproc
 259              		@ args = 0, pretend = 0, frame = 0
 260              		@ frame_needed = 0, uses_anonymous_args = 0
 261              	.LVL37:
 217:/Users/imashio/Electronics/ARM/_Library/u8x8_d_st7920.c ****   switch(msg)
 262              		.loc 1 217 0
 263 0000 0929     		cmp	r1, #9
 264 0002 01D0     		beq	.L35
 218:/Users/imashio/Electronics/ARM/_Library/u8x8_d_st7920.c ****   {
 219:/Users/imashio/Electronics/ARM/_Library/u8x8_d_st7920.c ****     case U8X8_MSG_DISPLAY_SETUP_MEMORY:
 220:/Users/imashio/Electronics/ARM/_Library/u8x8_d_st7920.c ****       u8x8_d_helper_display_setup_memory(u8x8, &u8x8_st7920_128x64_display_info);
 221:/Users/imashio/Electronics/ARM/_Library/u8x8_d_st7920.c ****       break;
 222:/Users/imashio/Electronics/ARM/_Library/u8x8_d_st7920.c ****     default:
 223:/Users/imashio/Electronics/ARM/_Library/u8x8_d_st7920.c ****       return u8x8_d_st7920_common(u8x8, msg, arg_int, arg_ptr);
ARM GAS  /var/folders/v3/wysfpd052nz8jkbx04pk0ym80000gn/T//ccjdzUFz.s 			page 10


 265              		.loc 1 223 0
 266 0004 FFF7FEBF 		b	u8x8_d_st7920_common
 267              	.LVL38:
 268              	.L35:
 216:/Users/imashio/Electronics/ARM/_Library/u8x8_d_st7920.c ****   switch(msg)
 269              		.loc 1 216 0
 270 0008 10B5     		push	{r4, lr}
 271              	.LCFI2:
 272              		.cfi_def_cfa_offset 8
 273              		.cfi_offset 4, -8
 274              		.cfi_offset 14, -4
 220:/Users/imashio/Electronics/ARM/_Library/u8x8_d_st7920.c ****       break;
 275              		.loc 1 220 0
 276 000a 0249     		ldr	r1, .L38
 277              	.LVL39:
 278 000c FFF7FEFF 		bl	u8x8_d_helper_display_setup_memory
 279              	.LVL40:
 224:/Users/imashio/Electronics/ARM/_Library/u8x8_d_st7920.c ****   }
 225:/Users/imashio/Electronics/ARM/_Library/u8x8_d_st7920.c ****   return 1;
 226:/Users/imashio/Electronics/ARM/_Library/u8x8_d_st7920.c **** }
 280              		.loc 1 226 0
 281 0010 0120     		movs	r0, #1
 282 0012 10BD     		pop	{r4, pc}
 283              	.L39:
 284              		.align	2
 285              	.L38:
 286 0014 00000000 		.word	.LANCHOR4
 287              		.cfi_endproc
 288              	.LFE2:
 290              		.section	.rodata.u8x8_d_st7920_init_seq,"a",%progbits
 291              		.align	2
 292              		.set	.LANCHOR0,. + 0
 295              	u8x8_d_st7920_init_seq:
 296 0000 FE       		.byte	-2
 297 0001 64       		.byte	100
 298 0002 18       		.byte	24
 299 0003 FE       		.byte	-2
 300 0004 0A       		.byte	10
 301 0005 15       		.byte	21
 302 0006 38       		.byte	56
 303 0007 15       		.byte	21
 304 0008 08       		.byte	8
 305 0009 15       		.byte	21
 306 000a 06       		.byte	6
 307 000b 15       		.byte	21
 308 000c 02       		.byte	2
 309 000d 15       		.byte	21
 310 000e 01       		.byte	1
 311 000f FE       		.byte	-2
 312 0010 04       		.byte	4
 313 0011 19       		.byte	25
 314 0012 FF       		.byte	-1
 315              		.section	.rodata.u8x8_d_st7920_powersave0_seq,"a",%progbits
 316              		.align	2
 317              		.set	.LANCHOR1,. + 0
 320              	u8x8_d_st7920_powersave0_seq:
 321 0000 18       		.byte	24
ARM GAS  /var/folders/v3/wysfpd052nz8jkbx04pk0ym80000gn/T//ccjdzUFz.s 			page 11


 322 0001 15       		.byte	21
 323 0002 38       		.byte	56
 324 0003 15       		.byte	21
 325 0004 0C       		.byte	12
 326 0005 19       		.byte	25
 327 0006 FF       		.byte	-1
 328              		.section	.rodata.u8x8_d_st7920_powersave1_seq,"a",%progbits
 329              		.align	2
 330              		.set	.LANCHOR2,. + 0
 333              	u8x8_d_st7920_powersave1_seq:
 334 0000 18       		.byte	24
 335 0001 15       		.byte	21
 336 0002 38       		.byte	56
 337 0003 15       		.byte	21
 338 0004 08       		.byte	8
 339 0005 19       		.byte	25
 340 0006 FF       		.byte	-1
 341              		.section	.rodata.u8x8_st7920_128x64_display_info,"a",%progbits
 342              		.align	2
 343              		.set	.LANCHOR4,. + 0
 346              	u8x8_st7920_128x64_display_info:
 347 0000 01       		.byte	1
 348 0001 00       		.byte	0
 349 0002 05       		.byte	5
 350 0003 05       		.byte	5
 351 0004 01       		.byte	1
 352 0005 06       		.byte	6
 353 0006 14       		.byte	20
 354 0007 8C       		.byte	-116
 355 0008 40420F00 		.word	1000000
 356 000c 03       		.byte	3
 357 000d 04       		.byte	4
 358 000e 1E       		.byte	30
 359 000f 28       		.byte	40
 360 0010 10       		.byte	16
 361 0011 08       		.byte	8
 362 0012 00       		.byte	0
 363 0013 00       		.byte	0
 364 0014 8000     		.short	128
 365 0016 4000     		.short	64
 366              		.section	.rodata.u8x8_st7920_192x32_display_info,"a",%progbits
 367              		.align	2
 368              		.set	.LANCHOR3,. + 0
 371              	u8x8_st7920_192x32_display_info:
 372 0000 01       		.byte	1
 373 0001 00       		.byte	0
 374 0002 05       		.byte	5
 375 0003 05       		.byte	5
 376 0004 01       		.byte	1
 377 0005 06       		.byte	6
 378 0006 14       		.byte	20
 379 0007 8C       		.byte	-116
 380 0008 40420F00 		.word	1000000
 381 000c 03       		.byte	3
 382 000d 04       		.byte	4
 383 000e 1E       		.byte	30
 384 000f 28       		.byte	40
ARM GAS  /var/folders/v3/wysfpd052nz8jkbx04pk0ym80000gn/T//ccjdzUFz.s 			page 12


 385 0010 18       		.byte	24
 386 0011 04       		.byte	4
 387 0012 00       		.byte	0
 388 0013 00       		.byte	0
 389 0014 C000     		.short	192
 390 0016 2000     		.short	32
 391              		.text
 392              	.Letext0:
 393              		.file 2 "/usr/local/gcc-arm-none-eabi-7-2018-q2-update/arm-none-eabi/include/machine/_default_type
 394              		.file 3 "/usr/local/gcc-arm-none-eabi-7-2018-q2-update/arm-none-eabi/include/sys/_stdint.h"
 395              		.file 4 "/Users/imashio/Electronics/ARM/_Library/u8x8.h"
ARM GAS  /var/folders/v3/wysfpd052nz8jkbx04pk0ym80000gn/T//ccjdzUFz.s 			page 13

