ARM GAS  /var/folders/v3/wysfpd052nz8jkbx04pk0ym80000gn/T//cc1Lm8mo.s 			page 1


   1              		.cpu cortex-m4
   2              		.eabi_attribute 27, 1
   3              		.eabi_attribute 28, 1
   4              		.eabi_attribute 20, 1
   5              		.eabi_attribute 21, 1
   6              		.eabi_attribute 23, 3
   7              		.eabi_attribute 24, 1
   8              		.eabi_attribute 25, 1
   9              		.eabi_attribute 26, 1
  10              		.eabi_attribute 30, 2
  11              		.eabi_attribute 34, 1
  12              		.eabi_attribute 18, 4
  13              		.file	"u8x8_d_uc1701_mini12864.c"
  14              		.text
  15              	.Ltext0:
  16              		.cfi_sections	.debug_frame
  17              		.section	.text.u8x8_d_uc1701_mini12864,"ax",%progbits
  18              		.align	1
  19              		.p2align 2,,3
  20              		.global	u8x8_d_uc1701_mini12864
  21              		.syntax unified
  22              		.thumb
  23              		.thumb_func
  24              		.fpu fpv4-sp-d16
  26              	u8x8_d_uc1701_mini12864:
  27              	.LFB0:
  28              		.file 1 "/Users/imashio/Electronics/ARM/_Library/u8x8_d_uc1701_mini12864.c"
   1:/Users/imashio/Electronics/ARM/_Library/u8x8_d_uc1701_mini12864.c **** /*
   2:/Users/imashio/Electronics/ARM/_Library/u8x8_d_uc1701_mini12864.c **** 
   3:/Users/imashio/Electronics/ARM/_Library/u8x8_d_uc1701_mini12864.c ****   u8x8_d_uc1701_mini12864.c (dealextreme, displays from ebay MP3 players)
   4:/Users/imashio/Electronics/ARM/_Library/u8x8_d_uc1701_mini12864.c ****   
   5:/Users/imashio/Electronics/ARM/_Library/u8x8_d_uc1701_mini12864.c ****   Universal 8bit Graphics Library (https://github.com/olikraus/u8g2/)
   6:/Users/imashio/Electronics/ARM/_Library/u8x8_d_uc1701_mini12864.c **** 
   7:/Users/imashio/Electronics/ARM/_Library/u8x8_d_uc1701_mini12864.c ****   Copyright (c) 2016, olikraus@gmail.com
   8:/Users/imashio/Electronics/ARM/_Library/u8x8_d_uc1701_mini12864.c ****   All rights reserved.
   9:/Users/imashio/Electronics/ARM/_Library/u8x8_d_uc1701_mini12864.c **** 
  10:/Users/imashio/Electronics/ARM/_Library/u8x8_d_uc1701_mini12864.c ****   Redistribution and use in source and binary forms, with or without modification, 
  11:/Users/imashio/Electronics/ARM/_Library/u8x8_d_uc1701_mini12864.c ****   are permitted provided that the following conditions are met:
  12:/Users/imashio/Electronics/ARM/_Library/u8x8_d_uc1701_mini12864.c **** 
  13:/Users/imashio/Electronics/ARM/_Library/u8x8_d_uc1701_mini12864.c ****   * Redistributions of source code must retain the above copyright notice, this list 
  14:/Users/imashio/Electronics/ARM/_Library/u8x8_d_uc1701_mini12864.c ****     of conditions and the following disclaimer.
  15:/Users/imashio/Electronics/ARM/_Library/u8x8_d_uc1701_mini12864.c ****     
  16:/Users/imashio/Electronics/ARM/_Library/u8x8_d_uc1701_mini12864.c ****   * Redistributions in binary form must reproduce the above copyright notice, this 
  17:/Users/imashio/Electronics/ARM/_Library/u8x8_d_uc1701_mini12864.c ****     list of conditions and the following disclaimer in the documentation and/or other 
  18:/Users/imashio/Electronics/ARM/_Library/u8x8_d_uc1701_mini12864.c ****     materials provided with the distribution.
  19:/Users/imashio/Electronics/ARM/_Library/u8x8_d_uc1701_mini12864.c **** 
  20:/Users/imashio/Electronics/ARM/_Library/u8x8_d_uc1701_mini12864.c ****   THIS SOFTWARE IS PROVIDED BY THE COPYRIGHT HOLDERS AND 
  21:/Users/imashio/Electronics/ARM/_Library/u8x8_d_uc1701_mini12864.c ****   CONTRIBUTORS "AS IS" AND ANY EXPRESS OR IMPLIED WARRANTIES, 
  22:/Users/imashio/Electronics/ARM/_Library/u8x8_d_uc1701_mini12864.c ****   INCLUDING, BUT NOT LIMITED TO, THE IMPLIED WARRANTIES OF 
  23:/Users/imashio/Electronics/ARM/_Library/u8x8_d_uc1701_mini12864.c ****   MERCHANTABILITY AND FITNESS FOR A PARTICULAR PURPOSE ARE 
  24:/Users/imashio/Electronics/ARM/_Library/u8x8_d_uc1701_mini12864.c ****   DISCLAIMED. IN NO EVENT SHALL THE COPYRIGHT HOLDER OR 
  25:/Users/imashio/Electronics/ARM/_Library/u8x8_d_uc1701_mini12864.c ****   CONTRIBUTORS BE LIABLE FOR ANY DIRECT, INDIRECT, INCIDENTAL, 
  26:/Users/imashio/Electronics/ARM/_Library/u8x8_d_uc1701_mini12864.c ****   SPECIAL, EXEMPLARY, OR CONSEQUENTIAL DAMAGES (INCLUDING, BUT 
  27:/Users/imashio/Electronics/ARM/_Library/u8x8_d_uc1701_mini12864.c ****   NOT LIMITED TO, PROCUREMENT OF SUBSTITUTE GOODS OR SERVICES; 
  28:/Users/imashio/Electronics/ARM/_Library/u8x8_d_uc1701_mini12864.c ****   LOSS OF USE, DATA, OR PROFITS; OR BUSINESS INTERRUPTION) HOWEVER 
  29:/Users/imashio/Electronics/ARM/_Library/u8x8_d_uc1701_mini12864.c ****   CAUSED AND ON ANY THEORY OF LIABILITY, WHETHER IN CONTRACT, 
  30:/Users/imashio/Electronics/ARM/_Library/u8x8_d_uc1701_mini12864.c ****   STRICT LIABILITY, OR TORT (INCLUDING NEGLIGENCE OR OTHERWISE) 
ARM GAS  /var/folders/v3/wysfpd052nz8jkbx04pk0ym80000gn/T//cc1Lm8mo.s 			page 2


  31:/Users/imashio/Electronics/ARM/_Library/u8x8_d_uc1701_mini12864.c ****   ARISING IN ANY WAY OUT OF THE USE OF THIS SOFTWARE, EVEN IF 
  32:/Users/imashio/Electronics/ARM/_Library/u8x8_d_uc1701_mini12864.c ****   ADVISED OF THE POSSIBILITY OF SUCH DAMAGE.  
  33:/Users/imashio/Electronics/ARM/_Library/u8x8_d_uc1701_mini12864.c **** 
  34:/Users/imashio/Electronics/ARM/_Library/u8x8_d_uc1701_mini12864.c ****   
  35:/Users/imashio/Electronics/ARM/_Library/u8x8_d_uc1701_mini12864.c **** */
  36:/Users/imashio/Electronics/ARM/_Library/u8x8_d_uc1701_mini12864.c **** #include "u8x8.h"
  37:/Users/imashio/Electronics/ARM/_Library/u8x8_d_uc1701_mini12864.c **** 
  38:/Users/imashio/Electronics/ARM/_Library/u8x8_d_uc1701_mini12864.c **** 
  39:/Users/imashio/Electronics/ARM/_Library/u8x8_d_uc1701_mini12864.c **** 
  40:/Users/imashio/Electronics/ARM/_Library/u8x8_d_uc1701_mini12864.c **** 
  41:/Users/imashio/Electronics/ARM/_Library/u8x8_d_uc1701_mini12864.c **** static const uint8_t u8x8_d_uc1701_mini12864_init_seq[] = {
  42:/Users/imashio/Electronics/ARM/_Library/u8x8_d_uc1701_mini12864.c ****     
  43:/Users/imashio/Electronics/ARM/_Library/u8x8_d_uc1701_mini12864.c ****   U8X8_START_TRANSFER(),             	/* enable chip, delay is part of the transfer start */
  44:/Users/imashio/Electronics/ARM/_Library/u8x8_d_uc1701_mini12864.c ****   
  45:/Users/imashio/Electronics/ARM/_Library/u8x8_d_uc1701_mini12864.c ****   U8X8_C(0x0e2),            			/* soft reset */
  46:/Users/imashio/Electronics/ARM/_Library/u8x8_d_uc1701_mini12864.c ****   U8X8_C(0x0ae),		                /* display off */
  47:/Users/imashio/Electronics/ARM/_Library/u8x8_d_uc1701_mini12864.c ****   U8X8_C(0x040),		                /* set display start line to 0 */
  48:/Users/imashio/Electronics/ARM/_Library/u8x8_d_uc1701_mini12864.c ****   
  49:/Users/imashio/Electronics/ARM/_Library/u8x8_d_uc1701_mini12864.c ****   U8X8_C(0x0a0),		                /* ADC set to reverse */
  50:/Users/imashio/Electronics/ARM/_Library/u8x8_d_uc1701_mini12864.c ****   U8X8_C(0x0c8),		                /* common output mode */
  51:/Users/imashio/Electronics/ARM/_Library/u8x8_d_uc1701_mini12864.c ****   
  52:/Users/imashio/Electronics/ARM/_Library/u8x8_d_uc1701_mini12864.c ****   U8X8_C(0x0a6),		                /* display normal, bit val 0: LCD pixel off. */
  53:/Users/imashio/Electronics/ARM/_Library/u8x8_d_uc1701_mini12864.c ****   U8X8_C(0x0a2),		                /* LCD bias 1/9 */
  54:/Users/imashio/Electronics/ARM/_Library/u8x8_d_uc1701_mini12864.c ****   U8X8_C(0x02f),		                /* all power  control circuits on */
  55:/Users/imashio/Electronics/ARM/_Library/u8x8_d_uc1701_mini12864.c ****   U8X8_C(0x0f8),		/* set booster ratio to */
  56:/Users/imashio/Electronics/ARM/_Library/u8x8_d_uc1701_mini12864.c ****   U8X8_C(0x000),		/* 4x */
  57:/Users/imashio/Electronics/ARM/_Library/u8x8_d_uc1701_mini12864.c ****   U8X8_C(0x023),		/* set V0 voltage resistor ratio to large */
  58:/Users/imashio/Electronics/ARM/_Library/u8x8_d_uc1701_mini12864.c ****   U8X8_C(0x081),		/* set contrast */
  59:/Users/imashio/Electronics/ARM/_Library/u8x8_d_uc1701_mini12864.c ****   U8X8_C(0x027),		/* contrast value */
  60:/Users/imashio/Electronics/ARM/_Library/u8x8_d_uc1701_mini12864.c ****   U8X8_C(0x0ac),		/* indicator */
  61:/Users/imashio/Electronics/ARM/_Library/u8x8_d_uc1701_mini12864.c ****   //  0x000,		/* disable */
  62:/Users/imashio/Electronics/ARM/_Library/u8x8_d_uc1701_mini12864.c ****   
  63:/Users/imashio/Electronics/ARM/_Library/u8x8_d_uc1701_mini12864.c ****   U8X8_C(0x0ae),		                /* display off */
  64:/Users/imashio/Electronics/ARM/_Library/u8x8_d_uc1701_mini12864.c ****   U8X8_C(0x0a5),		                /* enter powersafe: all pixel on, issue 142 */
  65:/Users/imashio/Electronics/ARM/_Library/u8x8_d_uc1701_mini12864.c ****   
  66:/Users/imashio/Electronics/ARM/_Library/u8x8_d_uc1701_mini12864.c ****   U8X8_END_TRANSFER(),             	/* disable chip */
  67:/Users/imashio/Electronics/ARM/_Library/u8x8_d_uc1701_mini12864.c ****   U8X8_END()             			/* end of sequence */
  68:/Users/imashio/Electronics/ARM/_Library/u8x8_d_uc1701_mini12864.c **** };
  69:/Users/imashio/Electronics/ARM/_Library/u8x8_d_uc1701_mini12864.c **** 
  70:/Users/imashio/Electronics/ARM/_Library/u8x8_d_uc1701_mini12864.c **** static const uint8_t u8x8_d_uc1701_mini12864_powersave0_seq[] = {
  71:/Users/imashio/Electronics/ARM/_Library/u8x8_d_uc1701_mini12864.c ****   U8X8_START_TRANSFER(),             	/* enable chip, delay is part of the transfer start */
  72:/Users/imashio/Electronics/ARM/_Library/u8x8_d_uc1701_mini12864.c ****   U8X8_C(0x0a4),		                /* all pixel off, issue 142 */
  73:/Users/imashio/Electronics/ARM/_Library/u8x8_d_uc1701_mini12864.c ****   U8X8_C(0x0af),		                /* display on */
  74:/Users/imashio/Electronics/ARM/_Library/u8x8_d_uc1701_mini12864.c ****   U8X8_END_TRANSFER(),             	/* disable chip */
  75:/Users/imashio/Electronics/ARM/_Library/u8x8_d_uc1701_mini12864.c ****   U8X8_END()             			/* end of sequence */
  76:/Users/imashio/Electronics/ARM/_Library/u8x8_d_uc1701_mini12864.c **** };
  77:/Users/imashio/Electronics/ARM/_Library/u8x8_d_uc1701_mini12864.c **** 
  78:/Users/imashio/Electronics/ARM/_Library/u8x8_d_uc1701_mini12864.c **** static const uint8_t u8x8_d_uc1701_mini12864_powersave1_seq[] = {
  79:/Users/imashio/Electronics/ARM/_Library/u8x8_d_uc1701_mini12864.c ****   U8X8_START_TRANSFER(),             	/* enable chip, delay is part of the transfer start */
  80:/Users/imashio/Electronics/ARM/_Library/u8x8_d_uc1701_mini12864.c ****   U8X8_C(0x0ae),		                /* display off */
  81:/Users/imashio/Electronics/ARM/_Library/u8x8_d_uc1701_mini12864.c ****   U8X8_C(0x0a5),		                /* enter powersafe: all pixel on, issue 142 */
  82:/Users/imashio/Electronics/ARM/_Library/u8x8_d_uc1701_mini12864.c ****   U8X8_END_TRANSFER(),             	/* disable chip */
  83:/Users/imashio/Electronics/ARM/_Library/u8x8_d_uc1701_mini12864.c ****   U8X8_END()             			/* end of sequence */
  84:/Users/imashio/Electronics/ARM/_Library/u8x8_d_uc1701_mini12864.c **** };
  85:/Users/imashio/Electronics/ARM/_Library/u8x8_d_uc1701_mini12864.c **** 
  86:/Users/imashio/Electronics/ARM/_Library/u8x8_d_uc1701_mini12864.c **** static const uint8_t u8x8_d_uc1701_mini12864_flip0_seq[] = {
  87:/Users/imashio/Electronics/ARM/_Library/u8x8_d_uc1701_mini12864.c ****   U8X8_START_TRANSFER(),             	/* enable chip, delay is part of the transfer start */
ARM GAS  /var/folders/v3/wysfpd052nz8jkbx04pk0ym80000gn/T//cc1Lm8mo.s 			page 3


  88:/Users/imashio/Electronics/ARM/_Library/u8x8_d_uc1701_mini12864.c ****   U8X8_C(0x0a0),				/* segment remap a0/a1*/
  89:/Users/imashio/Electronics/ARM/_Library/u8x8_d_uc1701_mini12864.c ****   U8X8_C(0x0c8),				/* c0: scan dir normal, c8: reverse */
  90:/Users/imashio/Electronics/ARM/_Library/u8x8_d_uc1701_mini12864.c ****   U8X8_END_TRANSFER(),             	/* disable chip */
  91:/Users/imashio/Electronics/ARM/_Library/u8x8_d_uc1701_mini12864.c ****   U8X8_END()             			/* end of sequence */
  92:/Users/imashio/Electronics/ARM/_Library/u8x8_d_uc1701_mini12864.c **** };
  93:/Users/imashio/Electronics/ARM/_Library/u8x8_d_uc1701_mini12864.c **** 
  94:/Users/imashio/Electronics/ARM/_Library/u8x8_d_uc1701_mini12864.c **** static const uint8_t u8x8_d_uc1701_mini12864_flip1_seq[] = {
  95:/Users/imashio/Electronics/ARM/_Library/u8x8_d_uc1701_mini12864.c ****   U8X8_START_TRANSFER(),             	/* enable chip, delay is part of the transfer start */
  96:/Users/imashio/Electronics/ARM/_Library/u8x8_d_uc1701_mini12864.c ****   U8X8_C(0x0a1),				/* segment remap a0/a1*/
  97:/Users/imashio/Electronics/ARM/_Library/u8x8_d_uc1701_mini12864.c ****   U8X8_C(0x0c0),				/* c0: scan dir normal, c8: reverse */
  98:/Users/imashio/Electronics/ARM/_Library/u8x8_d_uc1701_mini12864.c ****   U8X8_END_TRANSFER(),             	/* disable chip */
  99:/Users/imashio/Electronics/ARM/_Library/u8x8_d_uc1701_mini12864.c ****   U8X8_END()             			/* end of sequence */
 100:/Users/imashio/Electronics/ARM/_Library/u8x8_d_uc1701_mini12864.c **** };
 101:/Users/imashio/Electronics/ARM/_Library/u8x8_d_uc1701_mini12864.c **** 
 102:/Users/imashio/Electronics/ARM/_Library/u8x8_d_uc1701_mini12864.c **** 
 103:/Users/imashio/Electronics/ARM/_Library/u8x8_d_uc1701_mini12864.c **** static const u8x8_display_info_t u8x8_uc1701_display_info =
 104:/Users/imashio/Electronics/ARM/_Library/u8x8_d_uc1701_mini12864.c **** {
 105:/Users/imashio/Electronics/ARM/_Library/u8x8_d_uc1701_mini12864.c ****   /* chip_enable_level = */ 0,
 106:/Users/imashio/Electronics/ARM/_Library/u8x8_d_uc1701_mini12864.c ****   /* chip_disable_level = */ 1,
 107:/Users/imashio/Electronics/ARM/_Library/u8x8_d_uc1701_mini12864.c ****   
 108:/Users/imashio/Electronics/ARM/_Library/u8x8_d_uc1701_mini12864.c ****   /* post_chip_enable_wait_ns = */ 5,
 109:/Users/imashio/Electronics/ARM/_Library/u8x8_d_uc1701_mini12864.c ****   /* pre_chip_disable_wait_ns = */ 5,
 110:/Users/imashio/Electronics/ARM/_Library/u8x8_d_uc1701_mini12864.c ****   /* reset_pulse_width_ms = */ 1, 
 111:/Users/imashio/Electronics/ARM/_Library/u8x8_d_uc1701_mini12864.c ****   /* post_reset_wait_ms = */ 6, 
 112:/Users/imashio/Electronics/ARM/_Library/u8x8_d_uc1701_mini12864.c ****   /* sda_setup_time_ns = */ 12,		
 113:/Users/imashio/Electronics/ARM/_Library/u8x8_d_uc1701_mini12864.c ****   /* sck_pulse_width_ns = */ 75,	/* half of cycle time (100ns according to datasheet), AVR: below 7
 114:/Users/imashio/Electronics/ARM/_Library/u8x8_d_uc1701_mini12864.c ****   /* sck_clock_hz = */ 4000000UL,	/* since Arduino 1.6.0, the SPI bus speed in Hz. Should be  10000
 115:/Users/imashio/Electronics/ARM/_Library/u8x8_d_uc1701_mini12864.c ****   /* spi_mode = */ 0,		/* active high, rising edge */
 116:/Users/imashio/Electronics/ARM/_Library/u8x8_d_uc1701_mini12864.c ****   /* i2c_bus_clock_100kHz = */ 4,
 117:/Users/imashio/Electronics/ARM/_Library/u8x8_d_uc1701_mini12864.c ****   /* data_setup_time_ns = */ 30,
 118:/Users/imashio/Electronics/ARM/_Library/u8x8_d_uc1701_mini12864.c ****   /* write_pulse_width_ns = */ 40,
 119:/Users/imashio/Electronics/ARM/_Library/u8x8_d_uc1701_mini12864.c ****   /* tile_width = */ 16,		/* width of 16*8=128 pixel */
 120:/Users/imashio/Electronics/ARM/_Library/u8x8_d_uc1701_mini12864.c ****   /* tile_hight = */ 8,
 121:/Users/imashio/Electronics/ARM/_Library/u8x8_d_uc1701_mini12864.c ****   /* default_x_offset = */ 0,
 122:/Users/imashio/Electronics/ARM/_Library/u8x8_d_uc1701_mini12864.c ****   /* flipmode_x_offset = */ 4,
 123:/Users/imashio/Electronics/ARM/_Library/u8x8_d_uc1701_mini12864.c ****   /* pixel_width = */ 128,
 124:/Users/imashio/Electronics/ARM/_Library/u8x8_d_uc1701_mini12864.c ****   /* pixel_height = */ 64
 125:/Users/imashio/Electronics/ARM/_Library/u8x8_d_uc1701_mini12864.c **** };
 126:/Users/imashio/Electronics/ARM/_Library/u8x8_d_uc1701_mini12864.c **** 
 127:/Users/imashio/Electronics/ARM/_Library/u8x8_d_uc1701_mini12864.c **** uint8_t u8x8_d_uc1701_mini12864(u8x8_t *u8x8, uint8_t msg, uint8_t arg_int, void *arg_ptr)
 128:/Users/imashio/Electronics/ARM/_Library/u8x8_d_uc1701_mini12864.c **** {
  29              		.loc 1 128 0
  30              		.cfi_startproc
  31              		@ args = 0, pretend = 0, frame = 0
  32              		@ frame_needed = 0, uses_anonymous_args = 0
  33              	.LVL0:
 129:/Users/imashio/Electronics/ARM/_Library/u8x8_d_uc1701_mini12864.c ****   uint8_t x, c;
 130:/Users/imashio/Electronics/ARM/_Library/u8x8_d_uc1701_mini12864.c ****   uint8_t *ptr;
 131:/Users/imashio/Electronics/ARM/_Library/u8x8_d_uc1701_mini12864.c ****   switch(msg)
  34              		.loc 1 131 0
  35 0000 0939     		subs	r1, r1, #9
  36              	.LVL1:
 128:/Users/imashio/Electronics/ARM/_Library/u8x8_d_uc1701_mini12864.c ****   uint8_t x, c;
  37              		.loc 1 128 0
  38 0002 2DE9F041 		push	{r4, r5, r6, r7, r8, lr}
  39              	.LCFI0:
  40              		.cfi_def_cfa_offset 24
ARM GAS  /var/folders/v3/wysfpd052nz8jkbx04pk0ym80000gn/T//cc1Lm8mo.s 			page 4


  41              		.cfi_offset 4, -24
  42              		.cfi_offset 5, -20
  43              		.cfi_offset 6, -16
  44              		.cfi_offset 7, -12
  45              		.cfi_offset 8, -8
  46              		.cfi_offset 14, -4
 128:/Users/imashio/Electronics/ARM/_Library/u8x8_d_uc1701_mini12864.c ****   uint8_t x, c;
  47              		.loc 1 128 0
  48 0006 0546     		mov	r5, r0
  49 0008 1446     		mov	r4, r2
  50 000a 1F46     		mov	r7, r3
  51              		.loc 1 131 0
  52 000c 0629     		cmp	r1, #6
  53 000e 68D8     		bhi	.L14
  54 0010 DFE801F0 		tbb	[pc, r1]
  55              	.LVL2:
  56              	.L4:
  57 0014 39       		.byte	(.L3-.L4)/2
  58 0015 3F       		.byte	(.L5-.L4)/2
  59 0016 48       		.byte	(.L6-.L4)/2
  60 0017 67       		.byte	(.L14-.L4)/2
  61 0018 4E       		.byte	(.L7-.L4)/2
  62 0019 57       		.byte	(.L8-.L4)/2
  63 001a 04       		.byte	(.L9-.L4)/2
  64 001b 00       		.p2align 1
  65              	.L9:
 132:/Users/imashio/Electronics/ARM/_Library/u8x8_d_uc1701_mini12864.c ****   {
 133:/Users/imashio/Electronics/ARM/_Library/u8x8_d_uc1701_mini12864.c ****     case U8X8_MSG_DISPLAY_SETUP_MEMORY:
 134:/Users/imashio/Electronics/ARM/_Library/u8x8_d_uc1701_mini12864.c ****       u8x8_d_helper_display_setup_memory(u8x8, &u8x8_uc1701_display_info);
 135:/Users/imashio/Electronics/ARM/_Library/u8x8_d_uc1701_mini12864.c ****       break;
 136:/Users/imashio/Electronics/ARM/_Library/u8x8_d_uc1701_mini12864.c ****     case U8X8_MSG_DISPLAY_INIT:
 137:/Users/imashio/Electronics/ARM/_Library/u8x8_d_uc1701_mini12864.c ****       u8x8_d_helper_display_init(u8x8);
 138:/Users/imashio/Electronics/ARM/_Library/u8x8_d_uc1701_mini12864.c ****       u8x8_cad_SendSequence(u8x8, u8x8_d_uc1701_mini12864_init_seq);
 139:/Users/imashio/Electronics/ARM/_Library/u8x8_d_uc1701_mini12864.c ****       break;
 140:/Users/imashio/Electronics/ARM/_Library/u8x8_d_uc1701_mini12864.c ****     case U8X8_MSG_DISPLAY_SET_POWER_SAVE:
 141:/Users/imashio/Electronics/ARM/_Library/u8x8_d_uc1701_mini12864.c ****       if ( arg_int == 0 )
 142:/Users/imashio/Electronics/ARM/_Library/u8x8_d_uc1701_mini12864.c **** 	u8x8_cad_SendSequence(u8x8, u8x8_d_uc1701_mini12864_powersave0_seq);
 143:/Users/imashio/Electronics/ARM/_Library/u8x8_d_uc1701_mini12864.c ****       else
 144:/Users/imashio/Electronics/ARM/_Library/u8x8_d_uc1701_mini12864.c **** 	u8x8_cad_SendSequence(u8x8, u8x8_d_uc1701_mini12864_powersave1_seq);
 145:/Users/imashio/Electronics/ARM/_Library/u8x8_d_uc1701_mini12864.c ****       break;
 146:/Users/imashio/Electronics/ARM/_Library/u8x8_d_uc1701_mini12864.c ****     case U8X8_MSG_DISPLAY_SET_FLIP_MODE:
 147:/Users/imashio/Electronics/ARM/_Library/u8x8_d_uc1701_mini12864.c ****       if ( arg_int == 0 )
 148:/Users/imashio/Electronics/ARM/_Library/u8x8_d_uc1701_mini12864.c ****       {
 149:/Users/imashio/Electronics/ARM/_Library/u8x8_d_uc1701_mini12864.c **** 	u8x8_cad_SendSequence(u8x8, u8x8_d_uc1701_mini12864_flip0_seq);
 150:/Users/imashio/Electronics/ARM/_Library/u8x8_d_uc1701_mini12864.c **** 	u8x8->x_offset = u8x8->display_info->default_x_offset;
 151:/Users/imashio/Electronics/ARM/_Library/u8x8_d_uc1701_mini12864.c ****       }
 152:/Users/imashio/Electronics/ARM/_Library/u8x8_d_uc1701_mini12864.c ****       else
 153:/Users/imashio/Electronics/ARM/_Library/u8x8_d_uc1701_mini12864.c ****       {
 154:/Users/imashio/Electronics/ARM/_Library/u8x8_d_uc1701_mini12864.c **** 	u8x8_cad_SendSequence(u8x8, u8x8_d_uc1701_mini12864_flip1_seq);
 155:/Users/imashio/Electronics/ARM/_Library/u8x8_d_uc1701_mini12864.c **** 	u8x8->x_offset = u8x8->display_info->flipmode_x_offset;
 156:/Users/imashio/Electronics/ARM/_Library/u8x8_d_uc1701_mini12864.c ****       }	
 157:/Users/imashio/Electronics/ARM/_Library/u8x8_d_uc1701_mini12864.c ****       break;
 158:/Users/imashio/Electronics/ARM/_Library/u8x8_d_uc1701_mini12864.c **** #ifdef U8X8_WITH_SET_CONTRAST
 159:/Users/imashio/Electronics/ARM/_Library/u8x8_d_uc1701_mini12864.c ****     case U8X8_MSG_DISPLAY_SET_CONTRAST:
 160:/Users/imashio/Electronics/ARM/_Library/u8x8_d_uc1701_mini12864.c ****       u8x8_cad_StartTransfer(u8x8);
 161:/Users/imashio/Electronics/ARM/_Library/u8x8_d_uc1701_mini12864.c ****       u8x8_cad_SendCmd(u8x8, 0x081 );
 162:/Users/imashio/Electronics/ARM/_Library/u8x8_d_uc1701_mini12864.c ****       u8x8_cad_SendArg(u8x8, arg_int >> 2 );	/* uc1701 has range from 0 to 63 */
ARM GAS  /var/folders/v3/wysfpd052nz8jkbx04pk0ym80000gn/T//cc1Lm8mo.s 			page 5


 163:/Users/imashio/Electronics/ARM/_Library/u8x8_d_uc1701_mini12864.c ****       u8x8_cad_EndTransfer(u8x8);
 164:/Users/imashio/Electronics/ARM/_Library/u8x8_d_uc1701_mini12864.c ****       break;
 165:/Users/imashio/Electronics/ARM/_Library/u8x8_d_uc1701_mini12864.c **** #endif
 166:/Users/imashio/Electronics/ARM/_Library/u8x8_d_uc1701_mini12864.c ****     case U8X8_MSG_DISPLAY_DRAW_TILE:
 167:/Users/imashio/Electronics/ARM/_Library/u8x8_d_uc1701_mini12864.c ****       u8x8_cad_StartTransfer(u8x8);
  66              		.loc 1 167 0
  67 001c FFF7FEFF 		bl	u8x8_cad_StartTransfer
  68              	.LVL3:
 168:/Users/imashio/Electronics/ARM/_Library/u8x8_d_uc1701_mini12864.c ****     
 169:/Users/imashio/Electronics/ARM/_Library/u8x8_d_uc1701_mini12864.c ****       x = ((u8x8_tile_t *)arg_ptr)->x_pos;
  69              		.loc 1 169 0
  70 0020 7E79     		ldrb	r6, [r7, #5]	@ zero_extendqisi2
  71              	.LVL4:
 170:/Users/imashio/Electronics/ARM/_Library/u8x8_d_uc1701_mini12864.c ****       x *= 8;
 171:/Users/imashio/Electronics/ARM/_Library/u8x8_d_uc1701_mini12864.c ****       x += u8x8->x_offset;
  72              		.loc 1 171 0
  73 0022 95F81E80 		ldrb	r8, [r5, #30]	@ zero_extendqisi2
  74 0026 08EBC608 		add	r8, r8, r6, lsl #3
  75 002a 08F0FF08 		and	r8, r8, #255
  76              	.LVL5:
 172:/Users/imashio/Electronics/ARM/_Library/u8x8_d_uc1701_mini12864.c ****       u8x8_cad_SendCmd(u8x8, 0x010 | (x>>4) );
  77              		.loc 1 172 0
  78 002e 4FEA1811 		lsr	r1, r8, #4
  79 0032 41F01001 		orr	r1, r1, #16
  80 0036 2846     		mov	r0, r5
  81 0038 FFF7FEFF 		bl	u8x8_cad_SendCmd
  82              	.LVL6:
 173:/Users/imashio/Electronics/ARM/_Library/u8x8_d_uc1701_mini12864.c ****       u8x8_cad_SendCmd(u8x8, 0x000 | ((x&15)));
  83              		.loc 1 173 0
  84 003c 08F00F01 		and	r1, r8, #15
  85 0040 2846     		mov	r0, r5
  86 0042 FFF7FEFF 		bl	u8x8_cad_SendCmd
  87              	.LVL7:
 174:/Users/imashio/Electronics/ARM/_Library/u8x8_d_uc1701_mini12864.c ****       u8x8_cad_SendCmd(u8x8, 0x0b0 | (((u8x8_tile_t *)arg_ptr)->y_pos));
  88              		.loc 1 174 0
  89 0046 B979     		ldrb	r1, [r7, #6]	@ zero_extendqisi2
  90 0048 2846     		mov	r0, r5
  91 004a 41F0B001 		orr	r1, r1, #176
  92 004e FFF7FEFF 		bl	u8x8_cad_SendCmd
  93              	.LVL8:
 175:/Users/imashio/Electronics/ARM/_Library/u8x8_d_uc1701_mini12864.c ****     
 176:/Users/imashio/Electronics/ARM/_Library/u8x8_d_uc1701_mini12864.c ****       c = ((u8x8_tile_t *)arg_ptr)->cnt;
  94              		.loc 1 176 0
  95 0052 3E79     		ldrb	r6, [r7, #4]	@ zero_extendqisi2
  96              	.LVL9:
 177:/Users/imashio/Electronics/ARM/_Library/u8x8_d_uc1701_mini12864.c ****       c *= 8;
 178:/Users/imashio/Electronics/ARM/_Library/u8x8_d_uc1701_mini12864.c ****       ptr = ((u8x8_tile_t *)arg_ptr)->tile_ptr;
  97              		.loc 1 178 0
  98 0054 3F68     		ldr	r7, [r7]
  99              	.LVL10:
 177:/Users/imashio/Electronics/ARM/_Library/u8x8_d_uc1701_mini12864.c ****       c *= 8;
 100              		.loc 1 177 0
 101 0056 F600     		lsls	r6, r6, #3
 102              	.LVL11:
 103 0058 F6B2     		uxtb	r6, r6
 104              	.LVL12:
 179:/Users/imashio/Electronics/ARM/_Library/u8x8_d_uc1701_mini12864.c ****       /* 
ARM GAS  /var/folders/v3/wysfpd052nz8jkbx04pk0ym80000gn/T//cc1Lm8mo.s 			page 6


 180:/Users/imashio/Electronics/ARM/_Library/u8x8_d_uc1701_mini12864.c **** 	The following if condition checks the hardware limits of the uc1701 
 181:/Users/imashio/Electronics/ARM/_Library/u8x8_d_uc1701_mini12864.c **** 	controller: It is not allowed to write beyond the display limits.
 182:/Users/imashio/Electronics/ARM/_Library/u8x8_d_uc1701_mini12864.c **** 	This is in fact an issue within flip mode.
 183:/Users/imashio/Electronics/ARM/_Library/u8x8_d_uc1701_mini12864.c ****     
 184:/Users/imashio/Electronics/ARM/_Library/u8x8_d_uc1701_mini12864.c **** 	bug: this check should be inside the while loop, see u8x8_d_pcd8544_84x48.c 
 185:/Users/imashio/Electronics/ARM/_Library/u8x8_d_uc1701_mini12864.c ****       */
 186:/Users/imashio/Electronics/ARM/_Library/u8x8_d_uc1701_mini12864.c ****       if ( c + x > 132u )
 105              		.loc 1 186 0
 106 005a 06EB0803 		add	r3, r6, r8
 107 005e 842B     		cmp	r3, #132
 108              	.LVL13:
 187:/Users/imashio/Electronics/ARM/_Library/u8x8_d_uc1701_mini12864.c ****       {
 188:/Users/imashio/Electronics/ARM/_Library/u8x8_d_uc1701_mini12864.c **** 	c = 132u;
 189:/Users/imashio/Electronics/ARM/_Library/u8x8_d_uc1701_mini12864.c **** 	c -= x;
 109              		.loc 1 189 0
 110 0060 C4BF     		itt	gt
 111 0062 C8F18406 		rsbgt	r6, r8, #132
 112 0066 F6B2     		uxtbgt	r6, r6
 113              	.LVL14:
 114              	.L13:
 190:/Users/imashio/Electronics/ARM/_Library/u8x8_d_uc1701_mini12864.c ****       }
 191:/Users/imashio/Electronics/ARM/_Library/u8x8_d_uc1701_mini12864.c ****       do
 192:/Users/imashio/Electronics/ARM/_Library/u8x8_d_uc1701_mini12864.c ****       {
 193:/Users/imashio/Electronics/ARM/_Library/u8x8_d_uc1701_mini12864.c **** 	u8x8_cad_SendData(u8x8, c, ptr);	/* note: SendData can not handle more than 255 bytes */
 115              		.loc 1 193 0 discriminator 1
 116 0068 3A46     		mov	r2, r7
 117 006a 3146     		mov	r1, r6
 118 006c 2846     		mov	r0, r5
 194:/Users/imashio/Electronics/ARM/_Library/u8x8_d_uc1701_mini12864.c **** 	arg_int--;
 119              		.loc 1 194 0 discriminator 1
 120 006e 013C     		subs	r4, r4, #1
 121              	.LVL15:
 193:/Users/imashio/Electronics/ARM/_Library/u8x8_d_uc1701_mini12864.c **** 	arg_int--;
 122              		.loc 1 193 0 discriminator 1
 123 0070 FFF7FEFF 		bl	u8x8_cad_SendData
 124              	.LVL16:
 195:/Users/imashio/Electronics/ARM/_Library/u8x8_d_uc1701_mini12864.c ****       } while( arg_int > 0 );
 125              		.loc 1 195 0 discriminator 1
 126 0074 14F0FF04 		ands	r4, r4, #255
 127              	.LVL17:
 128 0078 F6D1     		bne	.L13
 196:/Users/imashio/Electronics/ARM/_Library/u8x8_d_uc1701_mini12864.c ****       
 197:/Users/imashio/Electronics/ARM/_Library/u8x8_d_uc1701_mini12864.c ****       u8x8_cad_EndTransfer(u8x8);
 129              		.loc 1 197 0
 130 007a 2846     		mov	r0, r5
 131 007c FFF7FEFF 		bl	u8x8_cad_EndTransfer
 132              	.LVL18:
 198:/Users/imashio/Electronics/ARM/_Library/u8x8_d_uc1701_mini12864.c ****       break;
 199:/Users/imashio/Electronics/ARM/_Library/u8x8_d_uc1701_mini12864.c ****     default:
 200:/Users/imashio/Electronics/ARM/_Library/u8x8_d_uc1701_mini12864.c ****       return 0;
 201:/Users/imashio/Electronics/ARM/_Library/u8x8_d_uc1701_mini12864.c ****   }
 202:/Users/imashio/Electronics/ARM/_Library/u8x8_d_uc1701_mini12864.c ****   return 1;
 133              		.loc 1 202 0
 134 0080 0120     		movs	r0, #1
 203:/Users/imashio/Electronics/ARM/_Library/u8x8_d_uc1701_mini12864.c **** }
 135              		.loc 1 203 0
 136 0082 BDE8F081 		pop	{r4, r5, r6, r7, r8, pc}
ARM GAS  /var/folders/v3/wysfpd052nz8jkbx04pk0ym80000gn/T//cc1Lm8mo.s 			page 7


 137              	.LVL19:
 138              	.L3:
 134:/Users/imashio/Electronics/ARM/_Library/u8x8_d_uc1701_mini12864.c ****       break;
 139              		.loc 1 134 0
 140 0086 1E49     		ldr	r1, .L18
 141 0088 FFF7FEFF 		bl	u8x8_d_helper_display_setup_memory
 142              	.LVL20:
 202:/Users/imashio/Electronics/ARM/_Library/u8x8_d_uc1701_mini12864.c **** }
 143              		.loc 1 202 0
 144 008c 0120     		movs	r0, #1
 145              	.L2:
 146              		.loc 1 203 0
 147 008e BDE8F081 		pop	{r4, r5, r6, r7, r8, pc}
 148              	.LVL21:
 149              	.L5:
 137:/Users/imashio/Electronics/ARM/_Library/u8x8_d_uc1701_mini12864.c ****       u8x8_cad_SendSequence(u8x8, u8x8_d_uc1701_mini12864_init_seq);
 150              		.loc 1 137 0
 151 0092 FFF7FEFF 		bl	u8x8_d_helper_display_init
 152              	.LVL22:
 138:/Users/imashio/Electronics/ARM/_Library/u8x8_d_uc1701_mini12864.c ****       break;
 153              		.loc 1 138 0
 154 0096 2846     		mov	r0, r5
 155 0098 1A49     		ldr	r1, .L18+4
 156 009a FFF7FEFF 		bl	u8x8_cad_SendSequence
 157              	.LVL23:
 202:/Users/imashio/Electronics/ARM/_Library/u8x8_d_uc1701_mini12864.c **** }
 158              		.loc 1 202 0
 159 009e 0120     		movs	r0, #1
 160              		.loc 1 203 0
 161 00a0 BDE8F081 		pop	{r4, r5, r6, r7, r8, pc}
 162              	.LVL24:
 163              	.L6:
 141:/Users/imashio/Electronics/ARM/_Library/u8x8_d_uc1701_mini12864.c **** 	u8x8_cad_SendSequence(u8x8, u8x8_d_uc1701_mini12864_powersave0_seq);
 164              		.loc 1 141 0
 165 00a4 FAB9     		cbnz	r2, .L10
 142:/Users/imashio/Electronics/ARM/_Library/u8x8_d_uc1701_mini12864.c ****       else
 166              		.loc 1 142 0
 167 00a6 1849     		ldr	r1, .L18+8
 168 00a8 FFF7FEFF 		bl	u8x8_cad_SendSequence
 169              	.LVL25:
 202:/Users/imashio/Electronics/ARM/_Library/u8x8_d_uc1701_mini12864.c **** }
 170              		.loc 1 202 0
 171 00ac 0120     		movs	r0, #1
 172 00ae EEE7     		b	.L2
 173              	.LVL26:
 174              	.L7:
 147:/Users/imashio/Electronics/ARM/_Library/u8x8_d_uc1701_mini12864.c ****       {
 175              		.loc 1 147 0
 176 00b0 F2B9     		cbnz	r2, .L11
 149:/Users/imashio/Electronics/ARM/_Library/u8x8_d_uc1701_mini12864.c **** 	u8x8->x_offset = u8x8->display_info->default_x_offset;
 177              		.loc 1 149 0
 178 00b2 1649     		ldr	r1, .L18+12
 179 00b4 FFF7FEFF 		bl	u8x8_cad_SendSequence
 180              	.LVL27:
 150:/Users/imashio/Electronics/ARM/_Library/u8x8_d_uc1701_mini12864.c ****       }
 181              		.loc 1 150 0
 182 00b8 2B68     		ldr	r3, [r5]
ARM GAS  /var/folders/v3/wysfpd052nz8jkbx04pk0ym80000gn/T//cc1Lm8mo.s 			page 8


 183 00ba 9B7C     		ldrb	r3, [r3, #18]	@ zero_extendqisi2
 184 00bc AB77     		strb	r3, [r5, #30]
 202:/Users/imashio/Electronics/ARM/_Library/u8x8_d_uc1701_mini12864.c **** }
 185              		.loc 1 202 0
 186 00be 0120     		movs	r0, #1
 187 00c0 E5E7     		b	.L2
 188              	.LVL28:
 189              	.L8:
 160:/Users/imashio/Electronics/ARM/_Library/u8x8_d_uc1701_mini12864.c ****       u8x8_cad_SendCmd(u8x8, 0x081 );
 190              		.loc 1 160 0
 191 00c2 FFF7FEFF 		bl	u8x8_cad_StartTransfer
 192              	.LVL29:
 161:/Users/imashio/Electronics/ARM/_Library/u8x8_d_uc1701_mini12864.c ****       u8x8_cad_SendArg(u8x8, arg_int >> 2 );	/* uc1701 has range from 0 to 63 */
 193              		.loc 1 161 0
 194 00c6 8121     		movs	r1, #129
 195 00c8 2846     		mov	r0, r5
 196 00ca FFF7FEFF 		bl	u8x8_cad_SendCmd
 197              	.LVL30:
 162:/Users/imashio/Electronics/ARM/_Library/u8x8_d_uc1701_mini12864.c ****       u8x8_cad_EndTransfer(u8x8);
 198              		.loc 1 162 0
 199 00ce A108     		lsrs	r1, r4, #2
 200 00d0 2846     		mov	r0, r5
 201 00d2 FFF7FEFF 		bl	u8x8_cad_SendArg
 202              	.LVL31:
 163:/Users/imashio/Electronics/ARM/_Library/u8x8_d_uc1701_mini12864.c ****       break;
 203              		.loc 1 163 0
 204 00d6 2846     		mov	r0, r5
 205 00d8 FFF7FEFF 		bl	u8x8_cad_EndTransfer
 206              	.LVL32:
 202:/Users/imashio/Electronics/ARM/_Library/u8x8_d_uc1701_mini12864.c **** }
 207              		.loc 1 202 0
 208 00dc 0120     		movs	r0, #1
 209              		.loc 1 203 0
 210 00de BDE8F081 		pop	{r4, r5, r6, r7, r8, pc}
 211              	.LVL33:
 212              	.L14:
 200:/Users/imashio/Electronics/ARM/_Library/u8x8_d_uc1701_mini12864.c ****   }
 213              		.loc 1 200 0
 214 00e2 0020     		movs	r0, #0
 215              	.LVL34:
 216 00e4 D3E7     		b	.L2
 217              	.LVL35:
 218              	.L10:
 144:/Users/imashio/Electronics/ARM/_Library/u8x8_d_uc1701_mini12864.c ****       break;
 219              		.loc 1 144 0
 220 00e6 0A49     		ldr	r1, .L18+16
 221 00e8 FFF7FEFF 		bl	u8x8_cad_SendSequence
 222              	.LVL36:
 202:/Users/imashio/Electronics/ARM/_Library/u8x8_d_uc1701_mini12864.c **** }
 223              		.loc 1 202 0
 224 00ec 0120     		movs	r0, #1
 225 00ee CEE7     		b	.L2
 226              	.LVL37:
 227              	.L11:
 154:/Users/imashio/Electronics/ARM/_Library/u8x8_d_uc1701_mini12864.c **** 	u8x8->x_offset = u8x8->display_info->flipmode_x_offset;
 228              		.loc 1 154 0
 229 00f0 0849     		ldr	r1, .L18+20
ARM GAS  /var/folders/v3/wysfpd052nz8jkbx04pk0ym80000gn/T//cc1Lm8mo.s 			page 9


 230 00f2 FFF7FEFF 		bl	u8x8_cad_SendSequence
 231              	.LVL38:
 155:/Users/imashio/Electronics/ARM/_Library/u8x8_d_uc1701_mini12864.c ****       }	
 232              		.loc 1 155 0
 233 00f6 2B68     		ldr	r3, [r5]
 234 00f8 DB7C     		ldrb	r3, [r3, #19]	@ zero_extendqisi2
 235 00fa AB77     		strb	r3, [r5, #30]
 202:/Users/imashio/Electronics/ARM/_Library/u8x8_d_uc1701_mini12864.c **** }
 236              		.loc 1 202 0
 237 00fc 0120     		movs	r0, #1
 238 00fe C6E7     		b	.L2
 239              	.L19:
 240              		.align	2
 241              	.L18:
 242 0100 00000000 		.word	.LANCHOR0
 243 0104 00000000 		.word	.LANCHOR1
 244 0108 00000000 		.word	.LANCHOR2
 245 010c 00000000 		.word	.LANCHOR4
 246 0110 00000000 		.word	.LANCHOR3
 247 0114 00000000 		.word	.LANCHOR5
 248              		.cfi_endproc
 249              	.LFE0:
 251              		.section	.rodata.u8x8_d_uc1701_mini12864_flip0_seq,"a",%progbits
 252              		.align	2
 253              		.set	.LANCHOR4,. + 0
 256              	u8x8_d_uc1701_mini12864_flip0_seq:
 257 0000 18       		.byte	24
 258 0001 15       		.byte	21
 259 0002 A0       		.byte	-96
 260 0003 15       		.byte	21
 261 0004 C8       		.byte	-56
 262 0005 19       		.byte	25
 263 0006 FF       		.byte	-1
 264              		.section	.rodata.u8x8_d_uc1701_mini12864_flip1_seq,"a",%progbits
 265              		.align	2
 266              		.set	.LANCHOR5,. + 0
 269              	u8x8_d_uc1701_mini12864_flip1_seq:
 270 0000 18       		.byte	24
 271 0001 15       		.byte	21
 272 0002 A1       		.byte	-95
 273 0003 15       		.byte	21
 274 0004 C0       		.byte	-64
 275 0005 19       		.byte	25
 276 0006 FF       		.byte	-1
 277              		.section	.rodata.u8x8_d_uc1701_mini12864_init_seq,"a",%progbits
 278              		.align	2
 279              		.set	.LANCHOR1,. + 0
 282              	u8x8_d_uc1701_mini12864_init_seq:
 283 0000 18       		.byte	24
 284 0001 15       		.byte	21
 285 0002 E2       		.byte	-30
 286 0003 15       		.byte	21
 287 0004 AE       		.byte	-82
 288 0005 15       		.byte	21
 289 0006 40       		.byte	64
 290 0007 15       		.byte	21
 291 0008 A0       		.byte	-96
ARM GAS  /var/folders/v3/wysfpd052nz8jkbx04pk0ym80000gn/T//cc1Lm8mo.s 			page 10


 292 0009 15       		.byte	21
 293 000a C8       		.byte	-56
 294 000b 15       		.byte	21
 295 000c A6       		.byte	-90
 296 000d 15       		.byte	21
 297 000e A2       		.byte	-94
 298 000f 15       		.byte	21
 299 0010 2F       		.byte	47
 300 0011 15       		.byte	21
 301 0012 F8       		.byte	-8
 302 0013 15       		.byte	21
 303 0014 00       		.byte	0
 304 0015 15       		.byte	21
 305 0016 23       		.byte	35
 306 0017 15       		.byte	21
 307 0018 81       		.byte	-127
 308 0019 15       		.byte	21
 309 001a 27       		.byte	39
 310 001b 15       		.byte	21
 311 001c AC       		.byte	-84
 312 001d 15       		.byte	21
 313 001e AE       		.byte	-82
 314 001f 15       		.byte	21
 315 0020 A5       		.byte	-91
 316 0021 19       		.byte	25
 317 0022 FF       		.byte	-1
 318              		.section	.rodata.u8x8_d_uc1701_mini12864_powersave0_seq,"a",%progbits
 319              		.align	2
 320              		.set	.LANCHOR2,. + 0
 323              	u8x8_d_uc1701_mini12864_powersave0_seq:
 324 0000 18       		.byte	24
 325 0001 15       		.byte	21
 326 0002 A4       		.byte	-92
 327 0003 15       		.byte	21
 328 0004 AF       		.byte	-81
 329 0005 19       		.byte	25
 330 0006 FF       		.byte	-1
 331              		.section	.rodata.u8x8_d_uc1701_mini12864_powersave1_seq,"a",%progbits
 332              		.align	2
 333              		.set	.LANCHOR3,. + 0
 336              	u8x8_d_uc1701_mini12864_powersave1_seq:
 337 0000 18       		.byte	24
 338 0001 15       		.byte	21
 339 0002 AE       		.byte	-82
 340 0003 15       		.byte	21
 341 0004 A5       		.byte	-91
 342 0005 19       		.byte	25
 343 0006 FF       		.byte	-1
 344              		.section	.rodata.u8x8_uc1701_display_info,"a",%progbits
 345              		.align	2
 346              		.set	.LANCHOR0,. + 0
 349              	u8x8_uc1701_display_info:
 350 0000 00       		.byte	0
 351 0001 01       		.byte	1
 352 0002 05       		.byte	5
 353 0003 05       		.byte	5
 354 0004 01       		.byte	1
ARM GAS  /var/folders/v3/wysfpd052nz8jkbx04pk0ym80000gn/T//cc1Lm8mo.s 			page 11


 355 0005 06       		.byte	6
 356 0006 0C       		.byte	12
 357 0007 4B       		.byte	75
 358 0008 00093D00 		.word	4000000
 359 000c 00       		.byte	0
 360 000d 04       		.byte	4
 361 000e 1E       		.byte	30
 362 000f 28       		.byte	40
 363 0010 10       		.byte	16
 364 0011 08       		.byte	8
 365 0012 00       		.byte	0
 366 0013 04       		.byte	4
 367 0014 8000     		.short	128
 368 0016 4000     		.short	64
 369              		.text
 370              	.Letext0:
 371              		.file 2 "/usr/local/gcc-arm-none-eabi-7-2018-q2-update/arm-none-eabi/include/machine/_default_type
 372              		.file 3 "/usr/local/gcc-arm-none-eabi-7-2018-q2-update/arm-none-eabi/include/sys/_stdint.h"
 373              		.file 4 "/Users/imashio/Electronics/ARM/_Library/u8x8.h"
ARM GAS  /var/folders/v3/wysfpd052nz8jkbx04pk0ym80000gn/T//cc1Lm8mo.s 			page 12

