ARM GAS  /var/folders/v3/wysfpd052nz8jkbx04pk0ym80000gn/T//cccIl83X.s 			page 1


   1              		.cpu cortex-m4
   2              		.eabi_attribute 27, 1
   3              		.eabi_attribute 28, 1
   4              		.eabi_attribute 20, 1
   5              		.eabi_attribute 21, 1
   6              		.eabi_attribute 23, 3
   7              		.eabi_attribute 24, 1
   8              		.eabi_attribute 25, 1
   9              		.eabi_attribute 26, 1
  10              		.eabi_attribute 30, 2
  11              		.eabi_attribute 34, 1
  12              		.eabi_attribute 18, 4
  13              		.file	"u8x8_d_ks0108.c"
  14              		.text
  15              	.Ltext0:
  16              		.cfi_sections	.debug_frame
  17              		.section	.text.u8x8_ks0108_out,"ax",%progbits
  18              		.align	1
  19              		.p2align 2,,3
  20              		.syntax unified
  21              		.thumb
  22              		.thumb_func
  23              		.fpu fpv4-sp-d16
  25              	u8x8_ks0108_out:
  26              	.LFB0:
  27              		.file 1 "/Users/imashio/Electronics/ARM/_Library/u8x8_d_ks0108.c"
   1:/Users/imashio/Electronics/ARM/_Library/u8x8_d_ks0108.c **** /*
   2:/Users/imashio/Electronics/ARM/_Library/u8x8_d_ks0108.c **** 
   3:/Users/imashio/Electronics/ARM/_Library/u8x8_d_ks0108.c ****   u8x8_d_ks0108.c 
   4:/Users/imashio/Electronics/ARM/_Library/u8x8_d_ks0108.c ****   
   5:/Users/imashio/Electronics/ARM/_Library/u8x8_d_ks0108.c ****   The classic 5V LCD
   6:/Users/imashio/Electronics/ARM/_Library/u8x8_d_ks0108.c ****   
   7:/Users/imashio/Electronics/ARM/_Library/u8x8_d_ks0108.c ****   Universal 8bit Graphics Library (https://github.com/olikraus/u8g2/)
   8:/Users/imashio/Electronics/ARM/_Library/u8x8_d_ks0108.c **** 
   9:/Users/imashio/Electronics/ARM/_Library/u8x8_d_ks0108.c ****   Copyright (c) 2016, olikraus@gmail.com
  10:/Users/imashio/Electronics/ARM/_Library/u8x8_d_ks0108.c ****   All rights reserved.
  11:/Users/imashio/Electronics/ARM/_Library/u8x8_d_ks0108.c **** 
  12:/Users/imashio/Electronics/ARM/_Library/u8x8_d_ks0108.c ****   Redistribution and use in source and binary forms, with or without modification, 
  13:/Users/imashio/Electronics/ARM/_Library/u8x8_d_ks0108.c ****   are permitted provided that the following conditions are met:
  14:/Users/imashio/Electronics/ARM/_Library/u8x8_d_ks0108.c **** 
  15:/Users/imashio/Electronics/ARM/_Library/u8x8_d_ks0108.c ****   * Redistributions of source code must retain the above copyright notice, this list 
  16:/Users/imashio/Electronics/ARM/_Library/u8x8_d_ks0108.c ****     of conditions and the following disclaimer.
  17:/Users/imashio/Electronics/ARM/_Library/u8x8_d_ks0108.c ****     
  18:/Users/imashio/Electronics/ARM/_Library/u8x8_d_ks0108.c ****   * Redistributions in binary form must reproduce the above copyright notice, this 
  19:/Users/imashio/Electronics/ARM/_Library/u8x8_d_ks0108.c ****     list of conditions and the following disclaimer in the documentation and/or other 
  20:/Users/imashio/Electronics/ARM/_Library/u8x8_d_ks0108.c ****     materials provided with the distribution.
  21:/Users/imashio/Electronics/ARM/_Library/u8x8_d_ks0108.c **** 
  22:/Users/imashio/Electronics/ARM/_Library/u8x8_d_ks0108.c ****   THIS SOFTWARE IS PROVIDED BY THE COPYRIGHT HOLDERS AND 
  23:/Users/imashio/Electronics/ARM/_Library/u8x8_d_ks0108.c ****   CONTRIBUTORS "AS IS" AND ANY EXPRESS OR IMPLIED WARRANTIES, 
  24:/Users/imashio/Electronics/ARM/_Library/u8x8_d_ks0108.c ****   INCLUDING, BUT NOT LIMITED TO, THE IMPLIED WARRANTIES OF 
  25:/Users/imashio/Electronics/ARM/_Library/u8x8_d_ks0108.c ****   MERCHANTABILITY AND FITNESS FOR A PARTICULAR PURPOSE ARE 
  26:/Users/imashio/Electronics/ARM/_Library/u8x8_d_ks0108.c ****   DISCLAIMED. IN NO EVENT SHALL THE COPYRIGHT HOLDER OR 
  27:/Users/imashio/Electronics/ARM/_Library/u8x8_d_ks0108.c ****   CONTRIBUTORS BE LIABLE FOR ANY DIRECT, INDIRECT, INCIDENTAL, 
  28:/Users/imashio/Electronics/ARM/_Library/u8x8_d_ks0108.c ****   SPECIAL, EXEMPLARY, OR CONSEQUENTIAL DAMAGES (INCLUDING, BUT 
  29:/Users/imashio/Electronics/ARM/_Library/u8x8_d_ks0108.c ****   NOT LIMITED TO, PROCUREMENT OF SUBSTITUTE GOODS OR SERVICES; 
  30:/Users/imashio/Electronics/ARM/_Library/u8x8_d_ks0108.c ****   LOSS OF USE, DATA, OR PROFITS; OR BUSINESS INTERRUPTION) HOWEVER 
  31:/Users/imashio/Electronics/ARM/_Library/u8x8_d_ks0108.c ****   CAUSED AND ON ANY THEORY OF LIABILITY, WHETHER IN CONTRACT, 
ARM GAS  /var/folders/v3/wysfpd052nz8jkbx04pk0ym80000gn/T//cccIl83X.s 			page 2


  32:/Users/imashio/Electronics/ARM/_Library/u8x8_d_ks0108.c ****   STRICT LIABILITY, OR TORT (INCLUDING NEGLIGENCE OR OTHERWISE) 
  33:/Users/imashio/Electronics/ARM/_Library/u8x8_d_ks0108.c ****   ARISING IN ANY WAY OUT OF THE USE OF THIS SOFTWARE, EVEN IF 
  34:/Users/imashio/Electronics/ARM/_Library/u8x8_d_ks0108.c ****   ADVISED OF THE POSSIBILITY OF SUCH DAMAGE.  
  35:/Users/imashio/Electronics/ARM/_Library/u8x8_d_ks0108.c **** 
  36:/Users/imashio/Electronics/ARM/_Library/u8x8_d_ks0108.c ****   
  37:/Users/imashio/Electronics/ARM/_Library/u8x8_d_ks0108.c **** */
  38:/Users/imashio/Electronics/ARM/_Library/u8x8_d_ks0108.c **** #include "u8x8.h"
  39:/Users/imashio/Electronics/ARM/_Library/u8x8_d_ks0108.c **** 
  40:/Users/imashio/Electronics/ARM/_Library/u8x8_d_ks0108.c **** 
  41:/Users/imashio/Electronics/ARM/_Library/u8x8_d_ks0108.c **** 
  42:/Users/imashio/Electronics/ARM/_Library/u8x8_d_ks0108.c **** 
  43:/Users/imashio/Electronics/ARM/_Library/u8x8_d_ks0108.c **** static const uint8_t u8x8_d_ks0108_init_seq[] = {
  44:/Users/imashio/Electronics/ARM/_Library/u8x8_d_ks0108.c ****   U8X8_C(0x0c0),		                /* satart at the top  */  
  45:/Users/imashio/Electronics/ARM/_Library/u8x8_d_ks0108.c ****   U8X8_END()             			/* end of sequence */
  46:/Users/imashio/Electronics/ARM/_Library/u8x8_d_ks0108.c **** };
  47:/Users/imashio/Electronics/ARM/_Library/u8x8_d_ks0108.c **** 
  48:/Users/imashio/Electronics/ARM/_Library/u8x8_d_ks0108.c **** static const uint8_t u8x8_d_ks0108_powersave0_seq[] = {
  49:/Users/imashio/Electronics/ARM/_Library/u8x8_d_ks0108.c ****   U8X8_C(0x03f),		                /* display on */
  50:/Users/imashio/Electronics/ARM/_Library/u8x8_d_ks0108.c ****   U8X8_END()             			/* end of sequence */
  51:/Users/imashio/Electronics/ARM/_Library/u8x8_d_ks0108.c **** };
  52:/Users/imashio/Electronics/ARM/_Library/u8x8_d_ks0108.c **** 
  53:/Users/imashio/Electronics/ARM/_Library/u8x8_d_ks0108.c **** static const uint8_t u8x8_d_ks0108_powersave1_seq[] = {
  54:/Users/imashio/Electronics/ARM/_Library/u8x8_d_ks0108.c ****   U8X8_C(0x03e),		                /* display off */
  55:/Users/imashio/Electronics/ARM/_Library/u8x8_d_ks0108.c ****   U8X8_END()             			/* end of sequence */
  56:/Users/imashio/Electronics/ARM/_Library/u8x8_d_ks0108.c **** };
  57:/Users/imashio/Electronics/ARM/_Library/u8x8_d_ks0108.c **** 
  58:/Users/imashio/Electronics/ARM/_Library/u8x8_d_ks0108.c **** 
  59:/Users/imashio/Electronics/ARM/_Library/u8x8_d_ks0108.c **** struct u8x8_ks0108_vars
  60:/Users/imashio/Electronics/ARM/_Library/u8x8_d_ks0108.c **** {
  61:/Users/imashio/Electronics/ARM/_Library/u8x8_d_ks0108.c ****   uint8_t *ptr;
  62:/Users/imashio/Electronics/ARM/_Library/u8x8_d_ks0108.c ****   uint8_t x;
  63:/Users/imashio/Electronics/ARM/_Library/u8x8_d_ks0108.c ****   uint8_t c;
  64:/Users/imashio/Electronics/ARM/_Library/u8x8_d_ks0108.c ****   uint8_t arg_int;
  65:/Users/imashio/Electronics/ARM/_Library/u8x8_d_ks0108.c **** };
  66:/Users/imashio/Electronics/ARM/_Library/u8x8_d_ks0108.c **** 
  67:/Users/imashio/Electronics/ARM/_Library/u8x8_d_ks0108.c **** static void u8x8_ks0108_out(u8x8_t *u8x8, struct u8x8_ks0108_vars *v, void *arg_ptr)
  68:/Users/imashio/Electronics/ARM/_Library/u8x8_d_ks0108.c **** {
  28              		.loc 1 68 0
  29              		.cfi_startproc
  30              		@ args = 0, pretend = 0, frame = 0
  31              		@ frame_needed = 0, uses_anonymous_args = 0
  32              	.LVL0:
  33 0000 2DE9F041 		push	{r4, r5, r6, r7, r8, lr}
  34              	.LCFI0:
  35              		.cfi_def_cfa_offset 24
  36              		.cfi_offset 4, -24
  37              		.cfi_offset 5, -20
  38              		.cfi_offset 6, -16
  39              		.cfi_offset 7, -12
  40              		.cfi_offset 8, -8
  41              		.cfi_offset 14, -4
  42              		.loc 1 68 0
  43 0004 0C46     		mov	r4, r1
  69:/Users/imashio/Electronics/ARM/_Library/u8x8_d_ks0108.c ****   uint8_t cnt;
  70:/Users/imashio/Electronics/ARM/_Library/u8x8_d_ks0108.c ****   u8x8_cad_SendCmd(u8x8, 0x040 | ((v->x << 3) & 63) );
  44              		.loc 1 70 0
  45 0006 0979     		ldrb	r1, [r1, #4]	@ zero_extendqisi2
ARM GAS  /var/folders/v3/wysfpd052nz8jkbx04pk0ym80000gn/T//cccIl83X.s 			page 3


  46              	.LVL1:
  47 0008 C900     		lsls	r1, r1, #3
  68:/Users/imashio/Electronics/ARM/_Library/u8x8_d_ks0108.c ****   uint8_t cnt;
  48              		.loc 1 68 0
  49 000a 1646     		mov	r6, r2
  50              		.loc 1 70 0
  51 000c 01F03F01 		and	r1, r1, #63
  52 0010 41F04001 		orr	r1, r1, #64
  68:/Users/imashio/Electronics/ARM/_Library/u8x8_d_ks0108.c ****   uint8_t cnt;
  53              		.loc 1 68 0
  54 0014 0546     		mov	r5, r0
  55              		.loc 1 70 0
  56 0016 FFF7FEFF 		bl	u8x8_cad_SendCmd
  57              	.LVL2:
  71:/Users/imashio/Electronics/ARM/_Library/u8x8_d_ks0108.c ****   u8x8_cad_SendCmd(u8x8, 0x0b8 | (((u8x8_tile_t *)arg_ptr)->y_pos));
  58              		.loc 1 71 0
  59 001a B179     		ldrb	r1, [r6, #6]	@ zero_extendqisi2
  60 001c 2846     		mov	r0, r5
  61 001e 41F0B801 		orr	r1, r1, #184
  62 0022 FFF7FEFF 		bl	u8x8_cad_SendCmd
  63              	.LVL3:
  72:/Users/imashio/Electronics/ARM/_Library/u8x8_d_ks0108.c ****   
  73:/Users/imashio/Electronics/ARM/_Library/u8x8_d_ks0108.c ****   while( v->arg_int > 0 )
  64              		.loc 1 73 0
  65 0026 25E0     		b	.L2
  66              	.LVL4:
  67              	.L4:
  74:/Users/imashio/Electronics/ARM/_Library/u8x8_d_ks0108.c ****   {
  75:/Users/imashio/Electronics/ARM/_Library/u8x8_d_ks0108.c ****       /* calculate tiles to next boundary (end or chip limit) */
  76:/Users/imashio/Electronics/ARM/_Library/u8x8_d_ks0108.c ****       cnt = v->x;
  68              		.loc 1 76 0
  69 0028 2779     		ldrb	r7, [r4, #4]	@ zero_extendqisi2
  70              	.LVL5:
  77:/Users/imashio/Electronics/ARM/_Library/u8x8_d_ks0108.c ****       cnt += 8;
  78:/Users/imashio/Electronics/ARM/_Library/u8x8_d_ks0108.c ****       cnt &= 0x0f8;
  79:/Users/imashio/Electronics/ARM/_Library/u8x8_d_ks0108.c ****       cnt -= v->x;
  80:/Users/imashio/Electronics/ARM/_Library/u8x8_d_ks0108.c ****             
  81:/Users/imashio/Electronics/ARM/_Library/u8x8_d_ks0108.c ****       if ( cnt > v->c )
  71              		.loc 1 81 0
  72 002a 6179     		ldrb	r1, [r4, #5]	@ zero_extendqisi2
  82:/Users/imashio/Electronics/ARM/_Library/u8x8_d_ks0108.c **** 	cnt = v->c;
  83:/Users/imashio/Electronics/ARM/_Library/u8x8_d_ks0108.c ****     
  84:/Users/imashio/Electronics/ARM/_Library/u8x8_d_ks0108.c ****       /* of cours we still could use cnt=1 here... */
  85:/Users/imashio/Electronics/ARM/_Library/u8x8_d_ks0108.c ****       /* but setting cnt to 1 is not very efficient */
  86:/Users/imashio/Electronics/ARM/_Library/u8x8_d_ks0108.c ****       //cnt = 1;
  87:/Users/imashio/Electronics/ARM/_Library/u8x8_d_ks0108.c ****     
  88:/Users/imashio/Electronics/ARM/_Library/u8x8_d_ks0108.c ****       v->x +=cnt;
  89:/Users/imashio/Electronics/ARM/_Library/u8x8_d_ks0108.c ****       v->c-=cnt;
  90:/Users/imashio/Electronics/ARM/_Library/u8x8_d_ks0108.c ****       cnt<<=3;
  91:/Users/imashio/Electronics/ARM/_Library/u8x8_d_ks0108.c ****       u8x8_cad_SendData(u8x8, cnt, v->ptr);	/* note: SendData can not handle more than 255 bytes */
  73              		.loc 1 91 0
  74 002c 2268     		ldr	r2, [r4]
  77:/Users/imashio/Electronics/ARM/_Library/u8x8_d_ks0108.c ****       cnt += 8;
  75              		.loc 1 77 0
  76 002e 07F10803 		add	r3, r7, #8
  77              	.LVL6:
  78:/Users/imashio/Electronics/ARM/_Library/u8x8_d_ks0108.c ****       cnt -= v->x;
ARM GAS  /var/folders/v3/wysfpd052nz8jkbx04pk0ym80000gn/T//cccIl83X.s 			page 4


  78              		.loc 1 78 0
  79 0032 03F0F803 		and	r3, r3, #248
  80              	.LVL7:
  79:/Users/imashio/Electronics/ARM/_Library/u8x8_d_ks0108.c ****             
  81              		.loc 1 79 0
  82 0036 DB1B     		subs	r3, r3, r7
  83              	.LVL8:
  84 0038 DBB2     		uxtb	r3, r3
  85              	.LVL9:
  86 003a 8B42     		cmp	r3, r1
  87 003c 28BF     		it	cs
  88 003e 0B46     		movcs	r3, r1
  89              	.LVL10:
  90:/Users/imashio/Electronics/ARM/_Library/u8x8_d_ks0108.c ****       u8x8_cad_SendData(u8x8, cnt, v->ptr);	/* note: SendData can not handle more than 255 bytes */
  90              		.loc 1 90 0
  91 0040 4FEAC308 		lsl	r8, r3, #3
  88:/Users/imashio/Electronics/ARM/_Library/u8x8_d_ks0108.c ****       v->c-=cnt;
  92              		.loc 1 88 0
  93 0044 1F44     		add	r7, r7, r3
  90:/Users/imashio/Electronics/ARM/_Library/u8x8_d_ks0108.c ****       u8x8_cad_SendData(u8x8, cnt, v->ptr);	/* note: SendData can not handle more than 255 bytes */
  94              		.loc 1 90 0
  95 0046 5FFA88F8 		uxtb	r8, r8
  96              	.LVL11:
  89:/Users/imashio/Electronics/ARM/_Library/u8x8_d_ks0108.c ****       cnt<<=3;
  97              		.loc 1 89 0
  98 004a CB1A     		subs	r3, r1, r3
  99 004c 6371     		strb	r3, [r4, #5]
  88:/Users/imashio/Electronics/ARM/_Library/u8x8_d_ks0108.c ****       v->c-=cnt;
 100              		.loc 1 88 0
 101 004e 2771     		strb	r7, [r4, #4]
 102              		.loc 1 91 0
 103 0050 4146     		mov	r1, r8
 104 0052 FFF7FEFF 		bl	u8x8_cad_SendData
 105              	.LVL12:
  92:/Users/imashio/Electronics/ARM/_Library/u8x8_d_ks0108.c ****       v->ptr += cnt;
 106              		.loc 1 92 0
 107 0056 2368     		ldr	r3, [r4]
  93:/Users/imashio/Electronics/ARM/_Library/u8x8_d_ks0108.c ****     
  94:/Users/imashio/Electronics/ARM/_Library/u8x8_d_ks0108.c ****       if ( v->c == 0 )
 108              		.loc 1 94 0
 109 0058 6279     		ldrb	r2, [r4, #5]	@ zero_extendqisi2
  92:/Users/imashio/Electronics/ARM/_Library/u8x8_d_ks0108.c ****       v->ptr += cnt;
 110              		.loc 1 92 0
 111 005a 4344     		add	r3, r3, r8
 112 005c 2360     		str	r3, [r4]
 113              		.loc 1 94 0
 114 005e 32B9     		cbnz	r2, .L3
  95:/Users/imashio/Electronics/ARM/_Library/u8x8_d_ks0108.c ****       {
  96:/Users/imashio/Electronics/ARM/_Library/u8x8_d_ks0108.c **** 	v->ptr = ((u8x8_tile_t *)arg_ptr)->tile_ptr;
 115              		.loc 1 96 0
 116 0060 3268     		ldr	r2, [r6]
  97:/Users/imashio/Electronics/ARM/_Library/u8x8_d_ks0108.c **** 	v->c = ((u8x8_tile_t *)arg_ptr)->cnt;
  98:/Users/imashio/Electronics/ARM/_Library/u8x8_d_ks0108.c **** 	v->arg_int--;
 117              		.loc 1 98 0
 118 0062 A379     		ldrb	r3, [r4, #6]	@ zero_extendqisi2
  96:/Users/imashio/Electronics/ARM/_Library/u8x8_d_ks0108.c **** 	v->c = ((u8x8_tile_t *)arg_ptr)->cnt;
 119              		.loc 1 96 0
ARM GAS  /var/folders/v3/wysfpd052nz8jkbx04pk0ym80000gn/T//cccIl83X.s 			page 5


 120 0064 2260     		str	r2, [r4]
  97:/Users/imashio/Electronics/ARM/_Library/u8x8_d_ks0108.c **** 	v->c = ((u8x8_tile_t *)arg_ptr)->cnt;
 121              		.loc 1 97 0
 122 0066 3279     		ldrb	r2, [r6, #4]	@ zero_extendqisi2
 123 0068 6271     		strb	r2, [r4, #5]
 124              		.loc 1 98 0
 125 006a 013B     		subs	r3, r3, #1
 126 006c A371     		strb	r3, [r4, #6]
 127              	.L3:
  99:/Users/imashio/Electronics/ARM/_Library/u8x8_d_ks0108.c ****       }
 100:/Users/imashio/Electronics/ARM/_Library/u8x8_d_ks0108.c ****       if ( ((v->x) & 7) == 0 )
 128              		.loc 1 100 0
 129 006e 2379     		ldrb	r3, [r4, #4]	@ zero_extendqisi2
 130 0070 5B07     		lsls	r3, r3, #29
 131 0072 03D0     		beq	.L1
 132              	.LVL13:
 133              	.L2:
  73:/Users/imashio/Electronics/ARM/_Library/u8x8_d_ks0108.c ****   {
 134              		.loc 1 73 0
 135 0074 A379     		ldrb	r3, [r4, #6]	@ zero_extendqisi2
  91:/Users/imashio/Electronics/ARM/_Library/u8x8_d_ks0108.c ****       v->ptr += cnt;
 136              		.loc 1 91 0
 137 0076 2846     		mov	r0, r5
  73:/Users/imashio/Electronics/ARM/_Library/u8x8_d_ks0108.c ****   {
 138              		.loc 1 73 0
 139 0078 002B     		cmp	r3, #0
 140 007a D5D1     		bne	.L4
 141              	.L1:
 101:/Users/imashio/Electronics/ARM/_Library/u8x8_d_ks0108.c **** 	break;       
 102:/Users/imashio/Electronics/ARM/_Library/u8x8_d_ks0108.c ****   } 
 103:/Users/imashio/Electronics/ARM/_Library/u8x8_d_ks0108.c **** }
 142              		.loc 1 103 0
 143 007c BDE8F081 		pop	{r4, r5, r6, r7, r8, pc}
 144              		.cfi_endproc
 145              	.LFE0:
 147              		.section	.text.u8x8_d_ks0108_128x64,"ax",%progbits
 148              		.align	1
 149              		.p2align 2,,3
 150              		.global	u8x8_d_ks0108_128x64
 151              		.syntax unified
 152              		.thumb
 153              		.thumb_func
 154              		.fpu fpv4-sp-d16
 156              	u8x8_d_ks0108_128x64:
 157              	.LFB1:
 104:/Users/imashio/Electronics/ARM/_Library/u8x8_d_ks0108.c **** 
 105:/Users/imashio/Electronics/ARM/_Library/u8x8_d_ks0108.c **** 
 106:/Users/imashio/Electronics/ARM/_Library/u8x8_d_ks0108.c **** static const u8x8_display_info_t u8x8_ks0108_128x64_display_info =
 107:/Users/imashio/Electronics/ARM/_Library/u8x8_d_ks0108.c **** {
 108:/Users/imashio/Electronics/ARM/_Library/u8x8_d_ks0108.c ****   /* chip_enable_level = */ 0,		/* KS0108: Not used */
 109:/Users/imashio/Electronics/ARM/_Library/u8x8_d_ks0108.c ****   /* chip_disable_level = */ 1,		/* KS0108: Not used */
 110:/Users/imashio/Electronics/ARM/_Library/u8x8_d_ks0108.c ****   
 111:/Users/imashio/Electronics/ARM/_Library/u8x8_d_ks0108.c ****   /* post_chip_enable_wait_ns = */ 100,
 112:/Users/imashio/Electronics/ARM/_Library/u8x8_d_ks0108.c ****   /* pre_chip_disable_wait_ns = */ 20,
 113:/Users/imashio/Electronics/ARM/_Library/u8x8_d_ks0108.c ****   /* reset_pulse_width_ms = */ 1, 
 114:/Users/imashio/Electronics/ARM/_Library/u8x8_d_ks0108.c ****   /* post_reset_wait_ms = */ 6, 		/* could be faster for the KS0108 */
 115:/Users/imashio/Electronics/ARM/_Library/u8x8_d_ks0108.c ****   /* sda_setup_time_ns = */ 12,		
ARM GAS  /var/folders/v3/wysfpd052nz8jkbx04pk0ym80000gn/T//cccIl83X.s 			page 6


 116:/Users/imashio/Electronics/ARM/_Library/u8x8_d_ks0108.c ****   /* sck_pulse_width_ns = */ 75,	/* KS0108: Not used */
 117:/Users/imashio/Electronics/ARM/_Library/u8x8_d_ks0108.c ****   /* sck_clock_hz = */ 4000000UL,	/* KS0108: Not used */
 118:/Users/imashio/Electronics/ARM/_Library/u8x8_d_ks0108.c ****   /* spi_mode = */ 0,				/* active high, rising edge */
 119:/Users/imashio/Electronics/ARM/_Library/u8x8_d_ks0108.c ****   /* i2c_bus_clock_100kHz = */ 4,	/* KS0108: Not used */
 120:/Users/imashio/Electronics/ARM/_Library/u8x8_d_ks0108.c ****   /* data_setup_time_ns = */ 200,
 121:/Users/imashio/Electronics/ARM/_Library/u8x8_d_ks0108.c ****   /* write_pulse_width_ns = */ 200,	/* KS0108: actially 450 ns */
 122:/Users/imashio/Electronics/ARM/_Library/u8x8_d_ks0108.c ****   /* tile_width = */ 16,		/* width of 16*8=128 pixel */
 123:/Users/imashio/Electronics/ARM/_Library/u8x8_d_ks0108.c ****   /* tile_hight = */ 8,
 124:/Users/imashio/Electronics/ARM/_Library/u8x8_d_ks0108.c ****   /* default_x_offset = */ 0,
 125:/Users/imashio/Electronics/ARM/_Library/u8x8_d_ks0108.c ****   /* flipmode_x_offset = */ 0,
 126:/Users/imashio/Electronics/ARM/_Library/u8x8_d_ks0108.c ****   /* pixel_width = */ 128,
 127:/Users/imashio/Electronics/ARM/_Library/u8x8_d_ks0108.c ****   /* pixel_height = */ 64
 128:/Users/imashio/Electronics/ARM/_Library/u8x8_d_ks0108.c **** };
 129:/Users/imashio/Electronics/ARM/_Library/u8x8_d_ks0108.c **** 
 130:/Users/imashio/Electronics/ARM/_Library/u8x8_d_ks0108.c **** uint8_t u8x8_d_ks0108_128x64(u8x8_t *u8x8, uint8_t msg, uint8_t arg_int, void *arg_ptr)
 131:/Users/imashio/Electronics/ARM/_Library/u8x8_d_ks0108.c **** {
 158              		.loc 1 131 0
 159              		.cfi_startproc
 160              		@ args = 0, pretend = 0, frame = 8
 161              		@ frame_needed = 0, uses_anonymous_args = 0
 162              	.LVL14:
 163 0000 70B5     		push	{r4, r5, r6, lr}
 164              	.LCFI1:
 165              		.cfi_def_cfa_offset 16
 166              		.cfi_offset 4, -16
 167              		.cfi_offset 5, -12
 168              		.cfi_offset 6, -8
 169              		.cfi_offset 14, -4
 132:/Users/imashio/Electronics/ARM/_Library/u8x8_d_ks0108.c ****   struct u8x8_ks0108_vars v;
 133:/Users/imashio/Electronics/ARM/_Library/u8x8_d_ks0108.c ****   switch(msg)
 170              		.loc 1 133 0
 171 0002 0939     		subs	r1, r1, #9
 172              	.LVL15:
 131:/Users/imashio/Electronics/ARM/_Library/u8x8_d_ks0108.c ****   struct u8x8_ks0108_vars v;
 173              		.loc 1 131 0
 174 0004 82B0     		sub	sp, sp, #8
 175              	.LCFI2:
 176              		.cfi_def_cfa_offset 24
 131:/Users/imashio/Electronics/ARM/_Library/u8x8_d_ks0108.c ****   struct u8x8_ks0108_vars v;
 177              		.loc 1 131 0
 178 0006 0446     		mov	r4, r0
 179 0008 1646     		mov	r6, r2
 180 000a 1D46     		mov	r5, r3
 181              		.loc 1 133 0
 182 000c 0629     		cmp	r1, #6
 183 000e 00F28180 		bhi	.L18
 184 0012 DFE801F0 		tbb	[pc, r1]
 185              	.LVL16:
 186              	.L12:
 187 0016 54       		.byte	(.L11-.L12)/2
 188 0017 5A       		.byte	(.L13-.L12)/2
 189 0018 30       		.byte	(.L14-.L12)/2
 190 0019 7F       		.byte	(.L18-.L12)/2
 191 001a 7F       		.byte	(.L18-.L12)/2
 192 001b 7F       		.byte	(.L18-.L12)/2
 193 001c 04       		.byte	(.L15-.L12)/2
 194 001d 00       		.p2align 1
ARM GAS  /var/folders/v3/wysfpd052nz8jkbx04pk0ym80000gn/T//cccIl83X.s 			page 7


 195              	.L15:
 134:/Users/imashio/Electronics/ARM/_Library/u8x8_d_ks0108.c ****   {
 135:/Users/imashio/Electronics/ARM/_Library/u8x8_d_ks0108.c ****     case U8X8_MSG_DISPLAY_SETUP_MEMORY:
 136:/Users/imashio/Electronics/ARM/_Library/u8x8_d_ks0108.c ****       u8x8_d_helper_display_setup_memory(u8x8, &u8x8_ks0108_128x64_display_info);
 137:/Users/imashio/Electronics/ARM/_Library/u8x8_d_ks0108.c ****       break;
 138:/Users/imashio/Electronics/ARM/_Library/u8x8_d_ks0108.c ****     case U8X8_MSG_DISPLAY_INIT:
 139:/Users/imashio/Electronics/ARM/_Library/u8x8_d_ks0108.c ****       u8x8_d_helper_display_init(u8x8);
 140:/Users/imashio/Electronics/ARM/_Library/u8x8_d_ks0108.c ****     
 141:/Users/imashio/Electronics/ARM/_Library/u8x8_d_ks0108.c ****       u8x8->cad_cb(u8x8, U8X8_MSG_CAD_START_TRANSFER, 1, NULL);
 142:/Users/imashio/Electronics/ARM/_Library/u8x8_d_ks0108.c ****       u8x8_cad_SendSequence(u8x8, u8x8_d_ks0108_init_seq);
 143:/Users/imashio/Electronics/ARM/_Library/u8x8_d_ks0108.c ****       u8x8->cad_cb(u8x8, U8X8_MSG_CAD_END_TRANSFER, 0, NULL);
 144:/Users/imashio/Electronics/ARM/_Library/u8x8_d_ks0108.c ****     
 145:/Users/imashio/Electronics/ARM/_Library/u8x8_d_ks0108.c ****       u8x8->cad_cb(u8x8, U8X8_MSG_CAD_START_TRANSFER, 2, NULL);
 146:/Users/imashio/Electronics/ARM/_Library/u8x8_d_ks0108.c ****       u8x8_cad_SendSequence(u8x8, u8x8_d_ks0108_init_seq);
 147:/Users/imashio/Electronics/ARM/_Library/u8x8_d_ks0108.c ****       u8x8->cad_cb(u8x8, U8X8_MSG_CAD_END_TRANSFER, 0, NULL);
 148:/Users/imashio/Electronics/ARM/_Library/u8x8_d_ks0108.c ****       break;
 149:/Users/imashio/Electronics/ARM/_Library/u8x8_d_ks0108.c ****     case U8X8_MSG_DISPLAY_SET_POWER_SAVE:
 150:/Users/imashio/Electronics/ARM/_Library/u8x8_d_ks0108.c ****       
 151:/Users/imashio/Electronics/ARM/_Library/u8x8_d_ks0108.c ****       if ( arg_int == 0 )
 152:/Users/imashio/Electronics/ARM/_Library/u8x8_d_ks0108.c ****       {
 153:/Users/imashio/Electronics/ARM/_Library/u8x8_d_ks0108.c **** 	u8x8->cad_cb(u8x8, U8X8_MSG_CAD_START_TRANSFER, 1, NULL);
 154:/Users/imashio/Electronics/ARM/_Library/u8x8_d_ks0108.c **** 	u8x8_cad_SendSequence(u8x8, u8x8_d_ks0108_powersave0_seq);
 155:/Users/imashio/Electronics/ARM/_Library/u8x8_d_ks0108.c **** 	u8x8->cad_cb(u8x8, U8X8_MSG_CAD_END_TRANSFER, 0, NULL);
 156:/Users/imashio/Electronics/ARM/_Library/u8x8_d_ks0108.c **** 
 157:/Users/imashio/Electronics/ARM/_Library/u8x8_d_ks0108.c **** 	u8x8->cad_cb(u8x8, U8X8_MSG_CAD_START_TRANSFER, 2, NULL);
 158:/Users/imashio/Electronics/ARM/_Library/u8x8_d_ks0108.c **** 	u8x8_cad_SendSequence(u8x8, u8x8_d_ks0108_powersave0_seq);
 159:/Users/imashio/Electronics/ARM/_Library/u8x8_d_ks0108.c **** 	u8x8->cad_cb(u8x8, U8X8_MSG_CAD_END_TRANSFER, 0, NULL);
 160:/Users/imashio/Electronics/ARM/_Library/u8x8_d_ks0108.c **** 	
 161:/Users/imashio/Electronics/ARM/_Library/u8x8_d_ks0108.c ****       }
 162:/Users/imashio/Electronics/ARM/_Library/u8x8_d_ks0108.c ****       else
 163:/Users/imashio/Electronics/ARM/_Library/u8x8_d_ks0108.c ****       {
 164:/Users/imashio/Electronics/ARM/_Library/u8x8_d_ks0108.c **** 	u8x8->cad_cb(u8x8, U8X8_MSG_CAD_START_TRANSFER, 1, NULL);
 165:/Users/imashio/Electronics/ARM/_Library/u8x8_d_ks0108.c **** 	u8x8_cad_SendSequence(u8x8, u8x8_d_ks0108_powersave1_seq);
 166:/Users/imashio/Electronics/ARM/_Library/u8x8_d_ks0108.c **** 	u8x8->cad_cb(u8x8, U8X8_MSG_CAD_END_TRANSFER, 0, NULL);
 167:/Users/imashio/Electronics/ARM/_Library/u8x8_d_ks0108.c **** 	
 168:/Users/imashio/Electronics/ARM/_Library/u8x8_d_ks0108.c **** 	u8x8->cad_cb(u8x8, U8X8_MSG_CAD_START_TRANSFER, 2, NULL);
 169:/Users/imashio/Electronics/ARM/_Library/u8x8_d_ks0108.c **** 	u8x8_cad_SendSequence(u8x8, u8x8_d_ks0108_powersave1_seq);
 170:/Users/imashio/Electronics/ARM/_Library/u8x8_d_ks0108.c **** 	u8x8->cad_cb(u8x8, U8X8_MSG_CAD_END_TRANSFER, 0, NULL);
 171:/Users/imashio/Electronics/ARM/_Library/u8x8_d_ks0108.c **** 	
 172:/Users/imashio/Electronics/ARM/_Library/u8x8_d_ks0108.c ****       }
 173:/Users/imashio/Electronics/ARM/_Library/u8x8_d_ks0108.c ****       break;
 174:/Users/imashio/Electronics/ARM/_Library/u8x8_d_ks0108.c **** // The KS0108 can not mirror the cols and rows, use U8g2 for rotation
 175:/Users/imashio/Electronics/ARM/_Library/u8x8_d_ks0108.c **** //    case U8X8_MSG_DISPLAY_SET_FLIP_MODE:
 176:/Users/imashio/Electronics/ARM/_Library/u8x8_d_ks0108.c **** //      break;
 177:/Users/imashio/Electronics/ARM/_Library/u8x8_d_ks0108.c **** // The KS0108 has no internal contrast command
 178:/Users/imashio/Electronics/ARM/_Library/u8x8_d_ks0108.c **** //    case U8X8_MSG_DISPLAY_SET_CONTRAST:
 179:/Users/imashio/Electronics/ARM/_Library/u8x8_d_ks0108.c **** //      break;
 180:/Users/imashio/Electronics/ARM/_Library/u8x8_d_ks0108.c ****     case U8X8_MSG_DISPLAY_DRAW_TILE:
 181:/Users/imashio/Electronics/ARM/_Library/u8x8_d_ks0108.c **** 
 182:/Users/imashio/Electronics/ARM/_Library/u8x8_d_ks0108.c ****       v.ptr = ((u8x8_tile_t *)arg_ptr)->tile_ptr;
 183:/Users/imashio/Electronics/ARM/_Library/u8x8_d_ks0108.c ****       v.x = ((u8x8_tile_t *)arg_ptr)->x_pos;
 196              		.loc 1 183 0
 197 001e 6B79     		ldrb	r3, [r5, #5]	@ zero_extendqisi2
 182:/Users/imashio/Electronics/ARM/_Library/u8x8_d_ks0108.c ****       v.x = ((u8x8_tile_t *)arg_ptr)->x_pos;
 198              		.loc 1 182 0
 199 0020 2968     		ldr	r1, [r5]
 184:/Users/imashio/Electronics/ARM/_Library/u8x8_d_ks0108.c ****       v.c = ((u8x8_tile_t *)arg_ptr)->cnt;
ARM GAS  /var/folders/v3/wysfpd052nz8jkbx04pk0ym80000gn/T//cccIl83X.s 			page 8


 200              		.loc 1 184 0
 201 0022 2A79     		ldrb	r2, [r5, #4]	@ zero_extendqisi2
 202              	.LVL17:
 185:/Users/imashio/Electronics/ARM/_Library/u8x8_d_ks0108.c ****       v.arg_int = arg_int;    
 203              		.loc 1 185 0
 204 0024 8DF80660 		strb	r6, [sp, #6]
 186:/Users/imashio/Electronics/ARM/_Library/u8x8_d_ks0108.c ****       
 187:/Users/imashio/Electronics/ARM/_Library/u8x8_d_ks0108.c ****       
 188:/Users/imashio/Electronics/ARM/_Library/u8x8_d_ks0108.c ****       if ( v.x < 8 )
 205              		.loc 1 188 0
 206 0028 072B     		cmp	r3, #7
 183:/Users/imashio/Electronics/ARM/_Library/u8x8_d_ks0108.c ****       v.c = ((u8x8_tile_t *)arg_ptr)->cnt;
 207              		.loc 1 183 0
 208 002a 8DF80430 		strb	r3, [sp, #4]
 182:/Users/imashio/Electronics/ARM/_Library/u8x8_d_ks0108.c ****       v.x = ((u8x8_tile_t *)arg_ptr)->x_pos;
 209              		.loc 1 182 0
 210 002e 0091     		str	r1, [sp]
 184:/Users/imashio/Electronics/ARM/_Library/u8x8_d_ks0108.c ****       v.arg_int = arg_int;    
 211              		.loc 1 184 0
 212 0030 8DF80520 		strb	r2, [sp, #5]
 213              		.loc 1 188 0
 214 0034 11D8     		bhi	.L17
 189:/Users/imashio/Electronics/ARM/_Library/u8x8_d_ks0108.c ****       {
 190:/Users/imashio/Electronics/ARM/_Library/u8x8_d_ks0108.c **** 	u8x8->cad_cb(u8x8, U8X8_MSG_CAD_START_TRANSFER, 1, NULL);
 215              		.loc 1 190 0
 216 0036 0023     		movs	r3, #0
 217 0038 C668     		ldr	r6, [r0, #12]
 218 003a 0122     		movs	r2, #1
 219 003c 1821     		movs	r1, #24
 220 003e B047     		blx	r6
 221              	.LVL18:
 191:/Users/imashio/Electronics/ARM/_Library/u8x8_d_ks0108.c **** 	u8x8_ks0108_out(u8x8, &v, arg_ptr);
 222              		.loc 1 191 0
 223 0040 2A46     		mov	r2, r5
 224 0042 6946     		mov	r1, sp
 225 0044 2046     		mov	r0, r4
 226 0046 FFF7FEFF 		bl	u8x8_ks0108_out
 227              	.LVL19:
 192:/Users/imashio/Electronics/ARM/_Library/u8x8_d_ks0108.c **** 	u8x8->cad_cb(u8x8, U8X8_MSG_CAD_END_TRANSFER, 0, NULL);
 228              		.loc 1 192 0
 229 004a 0023     		movs	r3, #0
 230 004c 1A46     		mov	r2, r3
 231 004e E668     		ldr	r6, [r4, #12]
 232 0050 1921     		movs	r1, #25
 233 0052 2046     		mov	r0, r4
 234 0054 B047     		blx	r6
 235              	.LVL20:
 236 0056 9DF80430 		ldrb	r3, [sp, #4]	@ zero_extendqisi2
 237              	.L17:
 193:/Users/imashio/Electronics/ARM/_Library/u8x8_d_ks0108.c ****       }
 194:/Users/imashio/Electronics/ARM/_Library/u8x8_d_ks0108.c ****       if ( v.x < 16 )
 238              		.loc 1 194 0
 239 005a 0F2B     		cmp	r3, #15
 240 005c 76D8     		bhi	.L19
 195:/Users/imashio/Electronics/ARM/_Library/u8x8_d_ks0108.c ****       {
 196:/Users/imashio/Electronics/ARM/_Library/u8x8_d_ks0108.c **** 	u8x8->cad_cb(u8x8, U8X8_MSG_CAD_START_TRANSFER, 2, NULL);
 241              		.loc 1 196 0
ARM GAS  /var/folders/v3/wysfpd052nz8jkbx04pk0ym80000gn/T//cccIl83X.s 			page 9


 242 005e E668     		ldr	r6, [r4, #12]
 243 0060 0023     		movs	r3, #0
 244 0062 0222     		movs	r2, #2
 245 0064 1821     		movs	r1, #24
 246 0066 2046     		mov	r0, r4
 247 0068 B047     		blx	r6
 248              	.LVL21:
 197:/Users/imashio/Electronics/ARM/_Library/u8x8_d_ks0108.c **** 	u8x8_ks0108_out(u8x8, &v, arg_ptr);
 249              		.loc 1 197 0
 250 006a 2A46     		mov	r2, r5
 251 006c 6946     		mov	r1, sp
 252 006e 2046     		mov	r0, r4
 253 0070 FFF7FEFF 		bl	u8x8_ks0108_out
 254              	.LVL22:
 255 0074 45E0     		b	.L21
 256              	.LVL23:
 257              	.L14:
 258 0076 C568     		ldr	r5, [r0, #12]
 259              	.LVL24:
 151:/Users/imashio/Electronics/ARM/_Library/u8x8_d_ks0108.c ****       {
 260              		.loc 1 151 0
 261 0078 002A     		cmp	r2, #0
 262 007a 4ED1     		bne	.L16
 153:/Users/imashio/Electronics/ARM/_Library/u8x8_d_ks0108.c **** 	u8x8_cad_SendSequence(u8x8, u8x8_d_ks0108_powersave0_seq);
 263              		.loc 1 153 0
 264 007c 1346     		mov	r3, r2
 265 007e 1821     		movs	r1, #24
 266 0080 0122     		movs	r2, #1
 267              	.LVL25:
 268 0082 A847     		blx	r5
 269              	.LVL26:
 154:/Users/imashio/Electronics/ARM/_Library/u8x8_d_ks0108.c **** 	u8x8->cad_cb(u8x8, U8X8_MSG_CAD_END_TRANSFER, 0, NULL);
 270              		.loc 1 154 0
 271 0084 2046     		mov	r0, r4
 272 0086 3249     		ldr	r1, .L22
 273 0088 FFF7FEFF 		bl	u8x8_cad_SendSequence
 274              	.LVL27:
 155:/Users/imashio/Electronics/ARM/_Library/u8x8_d_ks0108.c **** 
 275              		.loc 1 155 0
 276 008c E568     		ldr	r5, [r4, #12]
 277 008e 3346     		mov	r3, r6
 278 0090 3246     		mov	r2, r6
 279 0092 1921     		movs	r1, #25
 280 0094 2046     		mov	r0, r4
 281 0096 A847     		blx	r5
 282              	.LVL28:
 157:/Users/imashio/Electronics/ARM/_Library/u8x8_d_ks0108.c **** 	u8x8_cad_SendSequence(u8x8, u8x8_d_ks0108_powersave0_seq);
 283              		.loc 1 157 0
 284 0098 3346     		mov	r3, r6
 285 009a E568     		ldr	r5, [r4, #12]
 286 009c 0222     		movs	r2, #2
 287 009e 1821     		movs	r1, #24
 288 00a0 2046     		mov	r0, r4
 289 00a2 A847     		blx	r5
 290              	.LVL29:
 158:/Users/imashio/Electronics/ARM/_Library/u8x8_d_ks0108.c **** 	u8x8->cad_cb(u8x8, U8X8_MSG_CAD_END_TRANSFER, 0, NULL);
 291              		.loc 1 158 0
ARM GAS  /var/folders/v3/wysfpd052nz8jkbx04pk0ym80000gn/T//cccIl83X.s 			page 10


 292 00a4 2046     		mov	r0, r4
 293 00a6 2A49     		ldr	r1, .L22
 294 00a8 FFF7FEFF 		bl	u8x8_cad_SendSequence
 295              	.LVL30:
 159:/Users/imashio/Electronics/ARM/_Library/u8x8_d_ks0108.c **** 	
 296              		.loc 1 159 0
 297 00ac E568     		ldr	r5, [r4, #12]
 298 00ae 2046     		mov	r0, r4
 299 00b0 3346     		mov	r3, r6
 300 00b2 3246     		mov	r2, r6
 301 00b4 1921     		movs	r1, #25
 302 00b6 A847     		blx	r5
 303              	.LVL31:
 198:/Users/imashio/Electronics/ARM/_Library/u8x8_d_ks0108.c **** 	u8x8->cad_cb(u8x8, U8X8_MSG_CAD_END_TRANSFER, 0, NULL);
 199:/Users/imashio/Electronics/ARM/_Library/u8x8_d_ks0108.c ****       }
 200:/Users/imashio/Electronics/ARM/_Library/u8x8_d_ks0108.c ****       //if ( v.x < 24 )
 201:/Users/imashio/Electronics/ARM/_Library/u8x8_d_ks0108.c ****       //{
 202:/Users/imashio/Electronics/ARM/_Library/u8x8_d_ks0108.c **** 	//u8x8->cad_cb(u8x8, U8X8_MSG_CAD_START_TRANSFER, 4, NULL);
 203:/Users/imashio/Electronics/ARM/_Library/u8x8_d_ks0108.c **** 	//u8x8_ks0108_out(u8x8, &v, arg_ptr);
 204:/Users/imashio/Electronics/ARM/_Library/u8x8_d_ks0108.c **** 	//u8x8->cad_cb(u8x8, U8X8_MSG_CAD_END_TRANSFER, 0, NULL);
 205:/Users/imashio/Electronics/ARM/_Library/u8x8_d_ks0108.c ****       //}    
 206:/Users/imashio/Electronics/ARM/_Library/u8x8_d_ks0108.c ****       break;
 207:/Users/imashio/Electronics/ARM/_Library/u8x8_d_ks0108.c ****     default:
 208:/Users/imashio/Electronics/ARM/_Library/u8x8_d_ks0108.c ****       return 0;
 209:/Users/imashio/Electronics/ARM/_Library/u8x8_d_ks0108.c ****   }
 210:/Users/imashio/Electronics/ARM/_Library/u8x8_d_ks0108.c ****   return 1;
 304              		.loc 1 210 0
 305 00b8 0120     		movs	r0, #1
 211:/Users/imashio/Electronics/ARM/_Library/u8x8_d_ks0108.c **** }
 306              		.loc 1 211 0
 307 00ba 02B0     		add	sp, sp, #8
 308              	.LCFI3:
 309              		.cfi_remember_state
 310              		.cfi_def_cfa_offset 16
 311              		@ sp needed
 312 00bc 70BD     		pop	{r4, r5, r6, pc}
 313              	.LVL32:
 314              	.L11:
 315              	.LCFI4:
 316              		.cfi_restore_state
 136:/Users/imashio/Electronics/ARM/_Library/u8x8_d_ks0108.c ****       break;
 317              		.loc 1 136 0
 318 00be 2549     		ldr	r1, .L22+4
 319 00c0 FFF7FEFF 		bl	u8x8_d_helper_display_setup_memory
 320              	.LVL33:
 210:/Users/imashio/Electronics/ARM/_Library/u8x8_d_ks0108.c **** }
 321              		.loc 1 210 0
 322 00c4 0120     		movs	r0, #1
 323              	.L10:
 324              		.loc 1 211 0
 325 00c6 02B0     		add	sp, sp, #8
 326              	.LCFI5:
 327              		.cfi_remember_state
 328              		.cfi_def_cfa_offset 16
 329              		@ sp needed
 330 00c8 70BD     		pop	{r4, r5, r6, pc}
 331              	.LVL34:
ARM GAS  /var/folders/v3/wysfpd052nz8jkbx04pk0ym80000gn/T//cccIl83X.s 			page 11


 332              	.L13:
 333              	.LCFI6:
 334              		.cfi_restore_state
 139:/Users/imashio/Electronics/ARM/_Library/u8x8_d_ks0108.c ****     
 335              		.loc 1 139 0
 336 00ca FFF7FEFF 		bl	u8x8_d_helper_display_init
 337              	.LVL35:
 141:/Users/imashio/Electronics/ARM/_Library/u8x8_d_ks0108.c ****       u8x8_cad_SendSequence(u8x8, u8x8_d_ks0108_init_seq);
 338              		.loc 1 141 0
 339 00ce 0023     		movs	r3, #0
 340 00d0 0122     		movs	r2, #1
 341 00d2 E568     		ldr	r5, [r4, #12]
 342              	.LVL36:
 343 00d4 1821     		movs	r1, #24
 344 00d6 2046     		mov	r0, r4
 345 00d8 A847     		blx	r5
 346              	.LVL37:
 142:/Users/imashio/Electronics/ARM/_Library/u8x8_d_ks0108.c ****       u8x8->cad_cb(u8x8, U8X8_MSG_CAD_END_TRANSFER, 0, NULL);
 347              		.loc 1 142 0
 348 00da 1F49     		ldr	r1, .L22+8
 349 00dc 2046     		mov	r0, r4
 350 00de FFF7FEFF 		bl	u8x8_cad_SendSequence
 351              	.LVL38:
 143:/Users/imashio/Electronics/ARM/_Library/u8x8_d_ks0108.c ****     
 352              		.loc 1 143 0
 353 00e2 0023     		movs	r3, #0
 354 00e4 1A46     		mov	r2, r3
 355 00e6 E568     		ldr	r5, [r4, #12]
 356 00e8 1921     		movs	r1, #25
 357 00ea 2046     		mov	r0, r4
 358 00ec A847     		blx	r5
 359              	.LVL39:
 145:/Users/imashio/Electronics/ARM/_Library/u8x8_d_ks0108.c ****       u8x8_cad_SendSequence(u8x8, u8x8_d_ks0108_init_seq);
 360              		.loc 1 145 0
 361 00ee 1821     		movs	r1, #24
 362 00f0 E568     		ldr	r5, [r4, #12]
 363 00f2 0023     		movs	r3, #0
 364 00f4 0222     		movs	r2, #2
 365 00f6 2046     		mov	r0, r4
 366 00f8 A847     		blx	r5
 367              	.LVL40:
 146:/Users/imashio/Electronics/ARM/_Library/u8x8_d_ks0108.c ****       u8x8->cad_cb(u8x8, U8X8_MSG_CAD_END_TRANSFER, 0, NULL);
 368              		.loc 1 146 0
 369 00fa 1749     		ldr	r1, .L22+8
 370 00fc 2046     		mov	r0, r4
 371 00fe FFF7FEFF 		bl	u8x8_cad_SendSequence
 372              	.LVL41:
 373              	.L21:
 198:/Users/imashio/Electronics/ARM/_Library/u8x8_d_ks0108.c ****       }
 374              		.loc 1 198 0
 375 0102 0023     		movs	r3, #0
 376 0104 1A46     		mov	r2, r3
 377 0106 E568     		ldr	r5, [r4, #12]
 378 0108 2046     		mov	r0, r4
 379 010a 1921     		movs	r1, #25
 380 010c A847     		blx	r5
 381              	.LVL42:
ARM GAS  /var/folders/v3/wysfpd052nz8jkbx04pk0ym80000gn/T//cccIl83X.s 			page 12


 210:/Users/imashio/Electronics/ARM/_Library/u8x8_d_ks0108.c **** }
 382              		.loc 1 210 0
 383 010e 0120     		movs	r0, #1
 384              		.loc 1 211 0
 385 0110 02B0     		add	sp, sp, #8
 386              	.LCFI7:
 387              		.cfi_remember_state
 388              		.cfi_def_cfa_offset 16
 389              		@ sp needed
 390 0112 70BD     		pop	{r4, r5, r6, pc}
 391              	.LVL43:
 392              	.L18:
 393              	.LCFI8:
 394              		.cfi_restore_state
 208:/Users/imashio/Electronics/ARM/_Library/u8x8_d_ks0108.c ****   }
 395              		.loc 1 208 0
 396 0114 0020     		movs	r0, #0
 397              	.LVL44:
 398              		.loc 1 211 0
 399 0116 02B0     		add	sp, sp, #8
 400              	.LCFI9:
 401              		.cfi_remember_state
 402              		.cfi_def_cfa_offset 16
 403              		@ sp needed
 404 0118 70BD     		pop	{r4, r5, r6, pc}
 405              	.LVL45:
 406              	.L16:
 407              	.LCFI10:
 408              		.cfi_restore_state
 164:/Users/imashio/Electronics/ARM/_Library/u8x8_d_ks0108.c **** 	u8x8_cad_SendSequence(u8x8, u8x8_d_ks0108_powersave1_seq);
 409              		.loc 1 164 0
 410 011a 0023     		movs	r3, #0
 411 011c 0122     		movs	r2, #1
 412              	.LVL46:
 413 011e 1821     		movs	r1, #24
 414 0120 A847     		blx	r5
 415              	.LVL47:
 165:/Users/imashio/Electronics/ARM/_Library/u8x8_d_ks0108.c **** 	u8x8->cad_cb(u8x8, U8X8_MSG_CAD_END_TRANSFER, 0, NULL);
 416              		.loc 1 165 0
 417 0122 2046     		mov	r0, r4
 418 0124 0D49     		ldr	r1, .L22+12
 419 0126 FFF7FEFF 		bl	u8x8_cad_SendSequence
 420              	.LVL48:
 166:/Users/imashio/Electronics/ARM/_Library/u8x8_d_ks0108.c **** 	
 421              		.loc 1 166 0
 422 012a 0023     		movs	r3, #0
 423 012c 1A46     		mov	r2, r3
 424 012e E568     		ldr	r5, [r4, #12]
 425 0130 1921     		movs	r1, #25
 426 0132 2046     		mov	r0, r4
 427 0134 A847     		blx	r5
 428              	.LVL49:
 168:/Users/imashio/Electronics/ARM/_Library/u8x8_d_ks0108.c **** 	u8x8_cad_SendSequence(u8x8, u8x8_d_ks0108_powersave1_seq);
 429              		.loc 1 168 0
 430 0136 E568     		ldr	r5, [r4, #12]
 431 0138 0023     		movs	r3, #0
 432 013a 0222     		movs	r2, #2
ARM GAS  /var/folders/v3/wysfpd052nz8jkbx04pk0ym80000gn/T//cccIl83X.s 			page 13


 433 013c 1821     		movs	r1, #24
 434 013e 2046     		mov	r0, r4
 435 0140 A847     		blx	r5
 436              	.LVL50:
 169:/Users/imashio/Electronics/ARM/_Library/u8x8_d_ks0108.c **** 	u8x8->cad_cb(u8x8, U8X8_MSG_CAD_END_TRANSFER, 0, NULL);
 437              		.loc 1 169 0
 438 0142 0649     		ldr	r1, .L22+12
 439 0144 2046     		mov	r0, r4
 440 0146 FFF7FEFF 		bl	u8x8_cad_SendSequence
 441              	.LVL51:
 442 014a DAE7     		b	.L21
 443              	.LVL52:
 444              	.L19:
 210:/Users/imashio/Electronics/ARM/_Library/u8x8_d_ks0108.c **** }
 445              		.loc 1 210 0
 446 014c 0120     		movs	r0, #1
 447 014e BAE7     		b	.L10
 448              	.L23:
 449              		.align	2
 450              	.L22:
 451 0150 00000000 		.word	.LANCHOR2
 452 0154 00000000 		.word	.LANCHOR0
 453 0158 00000000 		.word	.LANCHOR1
 454 015c 00000000 		.word	.LANCHOR3
 455              		.cfi_endproc
 456              	.LFE1:
 458              		.section	.text.u8x8_d_ks0108_erm19264,"ax",%progbits
 459              		.align	1
 460              		.p2align 2,,3
 461              		.global	u8x8_d_ks0108_erm19264
 462              		.syntax unified
 463              		.thumb
 464              		.thumb_func
 465              		.fpu fpv4-sp-d16
 467              	u8x8_d_ks0108_erm19264:
 468              	.LFB2:
 212:/Users/imashio/Electronics/ARM/_Library/u8x8_d_ks0108.c **** 
 213:/Users/imashio/Electronics/ARM/_Library/u8x8_d_ks0108.c **** /* east rising (buydisplay.com) ERM19264 */
 214:/Users/imashio/Electronics/ARM/_Library/u8x8_d_ks0108.c **** /* left: 011, middle: 101, right: 110, no chip select: 111 */
 215:/Users/imashio/Electronics/ARM/_Library/u8x8_d_ks0108.c **** uint8_t u8x8_d_ks0108_erm19264(u8x8_t *u8x8, uint8_t msg, uint8_t arg_int, void *arg_ptr)
 216:/Users/imashio/Electronics/ARM/_Library/u8x8_d_ks0108.c **** {
 469              		.loc 1 216 0
 470              		.cfi_startproc
 471              		@ args = 0, pretend = 0, frame = 8
 472              		@ frame_needed = 0, uses_anonymous_args = 0
 473              	.LVL53:
 474 0000 70B5     		push	{r4, r5, r6, lr}
 475              	.LCFI11:
 476              		.cfi_def_cfa_offset 16
 477              		.cfi_offset 4, -16
 478              		.cfi_offset 5, -12
 479              		.cfi_offset 6, -8
 480              		.cfi_offset 14, -4
 217:/Users/imashio/Electronics/ARM/_Library/u8x8_d_ks0108.c ****   struct u8x8_ks0108_vars v;
 218:/Users/imashio/Electronics/ARM/_Library/u8x8_d_ks0108.c ****   switch(msg)
 481              		.loc 1 218 0
 482 0002 0939     		subs	r1, r1, #9
ARM GAS  /var/folders/v3/wysfpd052nz8jkbx04pk0ym80000gn/T//cccIl83X.s 			page 14


 483              	.LVL54:
 216:/Users/imashio/Electronics/ARM/_Library/u8x8_d_ks0108.c ****   struct u8x8_ks0108_vars v;
 484              		.loc 1 216 0
 485 0004 82B0     		sub	sp, sp, #8
 486              	.LCFI12:
 487              		.cfi_def_cfa_offset 24
 216:/Users/imashio/Electronics/ARM/_Library/u8x8_d_ks0108.c ****   struct u8x8_ks0108_vars v;
 488              		.loc 1 216 0
 489 0006 0446     		mov	r4, r0
 490 0008 1646     		mov	r6, r2
 491 000a 1D46     		mov	r5, r3
 492              		.loc 1 218 0
 493 000c 0629     		cmp	r1, #6
 494 000e 00F2B780 		bhi	.L34
 495 0012 DFE801F0 		tbb	[pc, r1]
 496              	.LVL55:
 497              	.L27:
 498 0016 7A       		.byte	(.L26-.L27)/2
 499 0017 80       		.byte	(.L28-.L27)/2
 500 0018 46       		.byte	(.L29-.L27)/2
 501 0019 B5       		.byte	(.L34-.L27)/2
 502 001a B5       		.byte	(.L34-.L27)/2
 503 001b B5       		.byte	(.L34-.L27)/2
 504 001c 04       		.byte	(.L30-.L27)/2
 505 001d 00       		.p2align 1
 506              	.L30:
 219:/Users/imashio/Electronics/ARM/_Library/u8x8_d_ks0108.c ****   {
 220:/Users/imashio/Electronics/ARM/_Library/u8x8_d_ks0108.c ****     case U8X8_MSG_DISPLAY_SETUP_MEMORY:
 221:/Users/imashio/Electronics/ARM/_Library/u8x8_d_ks0108.c ****       u8x8_d_helper_display_setup_memory(u8x8, &u8x8_ks0108_128x64_display_info);
 222:/Users/imashio/Electronics/ARM/_Library/u8x8_d_ks0108.c ****       break;
 223:/Users/imashio/Electronics/ARM/_Library/u8x8_d_ks0108.c ****     case U8X8_MSG_DISPLAY_INIT:
 224:/Users/imashio/Electronics/ARM/_Library/u8x8_d_ks0108.c ****       u8x8_d_helper_display_init(u8x8);
 225:/Users/imashio/Electronics/ARM/_Library/u8x8_d_ks0108.c ****     
 226:/Users/imashio/Electronics/ARM/_Library/u8x8_d_ks0108.c ****       u8x8->cad_cb(u8x8, U8X8_MSG_CAD_START_TRANSFER, 3, NULL);
 227:/Users/imashio/Electronics/ARM/_Library/u8x8_d_ks0108.c ****       u8x8_cad_SendSequence(u8x8, u8x8_d_ks0108_init_seq);
 228:/Users/imashio/Electronics/ARM/_Library/u8x8_d_ks0108.c ****       u8x8->cad_cb(u8x8, U8X8_MSG_CAD_END_TRANSFER, 7, NULL);
 229:/Users/imashio/Electronics/ARM/_Library/u8x8_d_ks0108.c ****     
 230:/Users/imashio/Electronics/ARM/_Library/u8x8_d_ks0108.c ****       u8x8->cad_cb(u8x8, U8X8_MSG_CAD_START_TRANSFER, 5, NULL);
 231:/Users/imashio/Electronics/ARM/_Library/u8x8_d_ks0108.c ****       u8x8_cad_SendSequence(u8x8, u8x8_d_ks0108_init_seq);
 232:/Users/imashio/Electronics/ARM/_Library/u8x8_d_ks0108.c ****       u8x8->cad_cb(u8x8, U8X8_MSG_CAD_END_TRANSFER, 7, NULL);
 233:/Users/imashio/Electronics/ARM/_Library/u8x8_d_ks0108.c ****     
 234:/Users/imashio/Electronics/ARM/_Library/u8x8_d_ks0108.c ****       u8x8->cad_cb(u8x8, U8X8_MSG_CAD_START_TRANSFER, 6, NULL);
 235:/Users/imashio/Electronics/ARM/_Library/u8x8_d_ks0108.c ****       u8x8_cad_SendSequence(u8x8, u8x8_d_ks0108_init_seq);
 236:/Users/imashio/Electronics/ARM/_Library/u8x8_d_ks0108.c ****       u8x8->cad_cb(u8x8, U8X8_MSG_CAD_END_TRANSFER, 7, NULL);
 237:/Users/imashio/Electronics/ARM/_Library/u8x8_d_ks0108.c ****       break;
 238:/Users/imashio/Electronics/ARM/_Library/u8x8_d_ks0108.c ****     case U8X8_MSG_DISPLAY_SET_POWER_SAVE:
 239:/Users/imashio/Electronics/ARM/_Library/u8x8_d_ks0108.c ****       
 240:/Users/imashio/Electronics/ARM/_Library/u8x8_d_ks0108.c ****       if ( arg_int == 0 )
 241:/Users/imashio/Electronics/ARM/_Library/u8x8_d_ks0108.c ****       {
 242:/Users/imashio/Electronics/ARM/_Library/u8x8_d_ks0108.c **** 	u8x8->cad_cb(u8x8, U8X8_MSG_CAD_START_TRANSFER, 3, NULL);
 243:/Users/imashio/Electronics/ARM/_Library/u8x8_d_ks0108.c **** 	u8x8_cad_SendSequence(u8x8, u8x8_d_ks0108_powersave0_seq);
 244:/Users/imashio/Electronics/ARM/_Library/u8x8_d_ks0108.c **** 	u8x8->cad_cb(u8x8, U8X8_MSG_CAD_END_TRANSFER, 7, NULL);
 245:/Users/imashio/Electronics/ARM/_Library/u8x8_d_ks0108.c **** 
 246:/Users/imashio/Electronics/ARM/_Library/u8x8_d_ks0108.c **** 	u8x8->cad_cb(u8x8, U8X8_MSG_CAD_START_TRANSFER, 5, NULL);
 247:/Users/imashio/Electronics/ARM/_Library/u8x8_d_ks0108.c **** 	u8x8_cad_SendSequence(u8x8, u8x8_d_ks0108_powersave0_seq);
 248:/Users/imashio/Electronics/ARM/_Library/u8x8_d_ks0108.c **** 	u8x8->cad_cb(u8x8, U8X8_MSG_CAD_END_TRANSFER, 7, NULL);
 249:/Users/imashio/Electronics/ARM/_Library/u8x8_d_ks0108.c **** 
ARM GAS  /var/folders/v3/wysfpd052nz8jkbx04pk0ym80000gn/T//cccIl83X.s 			page 15


 250:/Users/imashio/Electronics/ARM/_Library/u8x8_d_ks0108.c **** 	u8x8->cad_cb(u8x8, U8X8_MSG_CAD_START_TRANSFER, 6, NULL);
 251:/Users/imashio/Electronics/ARM/_Library/u8x8_d_ks0108.c **** 	u8x8_cad_SendSequence(u8x8, u8x8_d_ks0108_powersave0_seq);
 252:/Users/imashio/Electronics/ARM/_Library/u8x8_d_ks0108.c **** 	u8x8->cad_cb(u8x8, U8X8_MSG_CAD_END_TRANSFER, 7, NULL);
 253:/Users/imashio/Electronics/ARM/_Library/u8x8_d_ks0108.c **** 	
 254:/Users/imashio/Electronics/ARM/_Library/u8x8_d_ks0108.c ****       }
 255:/Users/imashio/Electronics/ARM/_Library/u8x8_d_ks0108.c ****       else
 256:/Users/imashio/Electronics/ARM/_Library/u8x8_d_ks0108.c ****       {
 257:/Users/imashio/Electronics/ARM/_Library/u8x8_d_ks0108.c **** 	u8x8->cad_cb(u8x8, U8X8_MSG_CAD_START_TRANSFER, 3, NULL);
 258:/Users/imashio/Electronics/ARM/_Library/u8x8_d_ks0108.c **** 	u8x8_cad_SendSequence(u8x8, u8x8_d_ks0108_powersave1_seq);
 259:/Users/imashio/Electronics/ARM/_Library/u8x8_d_ks0108.c **** 	u8x8->cad_cb(u8x8, U8X8_MSG_CAD_END_TRANSFER, 7, NULL);
 260:/Users/imashio/Electronics/ARM/_Library/u8x8_d_ks0108.c **** 
 261:/Users/imashio/Electronics/ARM/_Library/u8x8_d_ks0108.c **** 	u8x8->cad_cb(u8x8, U8X8_MSG_CAD_START_TRANSFER, 5, NULL);
 262:/Users/imashio/Electronics/ARM/_Library/u8x8_d_ks0108.c **** 	u8x8_cad_SendSequence(u8x8, u8x8_d_ks0108_powersave1_seq);
 263:/Users/imashio/Electronics/ARM/_Library/u8x8_d_ks0108.c **** 	u8x8->cad_cb(u8x8, U8X8_MSG_CAD_END_TRANSFER, 7, NULL);
 264:/Users/imashio/Electronics/ARM/_Library/u8x8_d_ks0108.c **** 
 265:/Users/imashio/Electronics/ARM/_Library/u8x8_d_ks0108.c **** 	u8x8->cad_cb(u8x8, U8X8_MSG_CAD_START_TRANSFER, 6, NULL);
 266:/Users/imashio/Electronics/ARM/_Library/u8x8_d_ks0108.c **** 	u8x8_cad_SendSequence(u8x8, u8x8_d_ks0108_powersave1_seq);
 267:/Users/imashio/Electronics/ARM/_Library/u8x8_d_ks0108.c **** 	u8x8->cad_cb(u8x8, U8X8_MSG_CAD_END_TRANSFER, 7, NULL);
 268:/Users/imashio/Electronics/ARM/_Library/u8x8_d_ks0108.c **** 	
 269:/Users/imashio/Electronics/ARM/_Library/u8x8_d_ks0108.c ****       }
 270:/Users/imashio/Electronics/ARM/_Library/u8x8_d_ks0108.c ****       break;
 271:/Users/imashio/Electronics/ARM/_Library/u8x8_d_ks0108.c **** // The KS0108 can not mirror the cols and rows, use U8g2 for rotation
 272:/Users/imashio/Electronics/ARM/_Library/u8x8_d_ks0108.c **** //    case U8X8_MSG_DISPLAY_SET_FLIP_MODE:
 273:/Users/imashio/Electronics/ARM/_Library/u8x8_d_ks0108.c **** //      break;
 274:/Users/imashio/Electronics/ARM/_Library/u8x8_d_ks0108.c **** // The KS0108 has no internal contrast command
 275:/Users/imashio/Electronics/ARM/_Library/u8x8_d_ks0108.c **** //    case U8X8_MSG_DISPLAY_SET_CONTRAST:
 276:/Users/imashio/Electronics/ARM/_Library/u8x8_d_ks0108.c **** //      break;
 277:/Users/imashio/Electronics/ARM/_Library/u8x8_d_ks0108.c ****     case U8X8_MSG_DISPLAY_DRAW_TILE:
 278:/Users/imashio/Electronics/ARM/_Library/u8x8_d_ks0108.c **** 
 279:/Users/imashio/Electronics/ARM/_Library/u8x8_d_ks0108.c ****       v.ptr = ((u8x8_tile_t *)arg_ptr)->tile_ptr;
 280:/Users/imashio/Electronics/ARM/_Library/u8x8_d_ks0108.c ****       v.x = ((u8x8_tile_t *)arg_ptr)->x_pos;
 507              		.loc 1 280 0
 508 001e 6B79     		ldrb	r3, [r5, #5]	@ zero_extendqisi2
 279:/Users/imashio/Electronics/ARM/_Library/u8x8_d_ks0108.c ****       v.x = ((u8x8_tile_t *)arg_ptr)->x_pos;
 509              		.loc 1 279 0
 510 0020 2968     		ldr	r1, [r5]
 281:/Users/imashio/Electronics/ARM/_Library/u8x8_d_ks0108.c ****       v.c = ((u8x8_tile_t *)arg_ptr)->cnt;
 511              		.loc 1 281 0
 512 0022 2A79     		ldrb	r2, [r5, #4]	@ zero_extendqisi2
 513              	.LVL56:
 282:/Users/imashio/Electronics/ARM/_Library/u8x8_d_ks0108.c ****       v.arg_int = arg_int;    
 514              		.loc 1 282 0
 515 0024 8DF80660 		strb	r6, [sp, #6]
 283:/Users/imashio/Electronics/ARM/_Library/u8x8_d_ks0108.c ****       
 284:/Users/imashio/Electronics/ARM/_Library/u8x8_d_ks0108.c ****       
 285:/Users/imashio/Electronics/ARM/_Library/u8x8_d_ks0108.c ****       if ( v.x < 8 )
 516              		.loc 1 285 0
 517 0028 072B     		cmp	r3, #7
 280:/Users/imashio/Electronics/ARM/_Library/u8x8_d_ks0108.c ****       v.c = ((u8x8_tile_t *)arg_ptr)->cnt;
 518              		.loc 1 280 0
 519 002a 8DF80430 		strb	r3, [sp, #4]
 279:/Users/imashio/Electronics/ARM/_Library/u8x8_d_ks0108.c ****       v.x = ((u8x8_tile_t *)arg_ptr)->x_pos;
 520              		.loc 1 279 0
 521 002e 0091     		str	r1, [sp]
 281:/Users/imashio/Electronics/ARM/_Library/u8x8_d_ks0108.c ****       v.arg_int = arg_int;    
 522              		.loc 1 281 0
 523 0030 8DF80520 		strb	r2, [sp, #5]
ARM GAS  /var/folders/v3/wysfpd052nz8jkbx04pk0ym80000gn/T//cccIl83X.s 			page 16


 524              		.loc 1 285 0
 525 0034 11D8     		bhi	.L32
 286:/Users/imashio/Electronics/ARM/_Library/u8x8_d_ks0108.c ****       {
 287:/Users/imashio/Electronics/ARM/_Library/u8x8_d_ks0108.c **** 	u8x8->cad_cb(u8x8, U8X8_MSG_CAD_START_TRANSFER, 3, NULL);
 526              		.loc 1 287 0
 527 0036 0023     		movs	r3, #0
 528 0038 C668     		ldr	r6, [r0, #12]
 529 003a 0322     		movs	r2, #3
 530 003c 1821     		movs	r1, #24
 531 003e B047     		blx	r6
 532              	.LVL57:
 288:/Users/imashio/Electronics/ARM/_Library/u8x8_d_ks0108.c **** 	u8x8_ks0108_out(u8x8, &v, arg_ptr);
 533              		.loc 1 288 0
 534 0040 2A46     		mov	r2, r5
 535 0042 6946     		mov	r1, sp
 536 0044 2046     		mov	r0, r4
 537 0046 FFF7FEFF 		bl	u8x8_ks0108_out
 538              	.LVL58:
 289:/Users/imashio/Electronics/ARM/_Library/u8x8_d_ks0108.c **** 	u8x8->cad_cb(u8x8, U8X8_MSG_CAD_END_TRANSFER, 7, NULL);
 539              		.loc 1 289 0
 540 004a 0023     		movs	r3, #0
 541 004c E668     		ldr	r6, [r4, #12]
 542 004e 0722     		movs	r2, #7
 543 0050 1921     		movs	r1, #25
 544 0052 2046     		mov	r0, r4
 545 0054 B047     		blx	r6
 546              	.LVL59:
 547 0056 9DF80430 		ldrb	r3, [sp, #4]	@ zero_extendqisi2
 548              	.L32:
 290:/Users/imashio/Electronics/ARM/_Library/u8x8_d_ks0108.c ****       }
 291:/Users/imashio/Electronics/ARM/_Library/u8x8_d_ks0108.c ****       if ( v.x < 16 )
 549              		.loc 1 291 0
 550 005a 0F2B     		cmp	r3, #15
 551 005c 12D8     		bhi	.L33
 292:/Users/imashio/Electronics/ARM/_Library/u8x8_d_ks0108.c ****       {
 293:/Users/imashio/Electronics/ARM/_Library/u8x8_d_ks0108.c **** 	u8x8->cad_cb(u8x8, U8X8_MSG_CAD_START_TRANSFER, 5, NULL);
 552              		.loc 1 293 0
 553 005e 0023     		movs	r3, #0
 554 0060 E668     		ldr	r6, [r4, #12]
 555 0062 0522     		movs	r2, #5
 556 0064 1821     		movs	r1, #24
 557 0066 2046     		mov	r0, r4
 558 0068 B047     		blx	r6
 559              	.LVL60:
 294:/Users/imashio/Electronics/ARM/_Library/u8x8_d_ks0108.c **** 	u8x8_ks0108_out(u8x8, &v, arg_ptr);
 560              		.loc 1 294 0
 561 006a 2A46     		mov	r2, r5
 562 006c 6946     		mov	r1, sp
 563 006e 2046     		mov	r0, r4
 564 0070 FFF7FEFF 		bl	u8x8_ks0108_out
 565              	.LVL61:
 295:/Users/imashio/Electronics/ARM/_Library/u8x8_d_ks0108.c **** 	u8x8->cad_cb(u8x8, U8X8_MSG_CAD_END_TRANSFER, 7, NULL);
 566              		.loc 1 295 0
 567 0074 0023     		movs	r3, #0
 568 0076 E668     		ldr	r6, [r4, #12]
 569 0078 0722     		movs	r2, #7
 570 007a 1921     		movs	r1, #25
ARM GAS  /var/folders/v3/wysfpd052nz8jkbx04pk0ym80000gn/T//cccIl83X.s 			page 17


 571 007c 2046     		mov	r0, r4
 572 007e B047     		blx	r6
 573              	.LVL62:
 574 0080 9DF80430 		ldrb	r3, [sp, #4]	@ zero_extendqisi2
 575              	.L33:
 296:/Users/imashio/Electronics/ARM/_Library/u8x8_d_ks0108.c ****       }
 297:/Users/imashio/Electronics/ARM/_Library/u8x8_d_ks0108.c ****       if ( v.x < 24 )
 576              		.loc 1 297 0
 577 0084 172B     		cmp	r3, #23
 578 0086 00F2A780 		bhi	.L35
 298:/Users/imashio/Electronics/ARM/_Library/u8x8_d_ks0108.c ****       {
 299:/Users/imashio/Electronics/ARM/_Library/u8x8_d_ks0108.c **** 	u8x8->cad_cb(u8x8, U8X8_MSG_CAD_START_TRANSFER, 6, NULL);
 579              		.loc 1 299 0
 580 008a E668     		ldr	r6, [r4, #12]
 581 008c 0023     		movs	r3, #0
 582 008e 0622     		movs	r2, #6
 583 0090 1821     		movs	r1, #24
 584 0092 2046     		mov	r0, r4
 585 0094 B047     		blx	r6
 586              	.LVL63:
 300:/Users/imashio/Electronics/ARM/_Library/u8x8_d_ks0108.c **** 	u8x8_ks0108_out(u8x8, &v, arg_ptr);
 587              		.loc 1 300 0
 588 0096 2A46     		mov	r2, r5
 589 0098 6946     		mov	r1, sp
 590 009a 2046     		mov	r0, r4
 591 009c FFF7FEFF 		bl	u8x8_ks0108_out
 592              	.LVL64:
 593 00a0 65E0     		b	.L37
 594              	.LVL65:
 595              	.L29:
 596 00a2 C568     		ldr	r5, [r0, #12]
 597              	.LVL66:
 240:/Users/imashio/Electronics/ARM/_Library/u8x8_d_ks0108.c ****       {
 598              		.loc 1 240 0
 599 00a4 002A     		cmp	r2, #0
 600 00a6 6ED1     		bne	.L31
 242:/Users/imashio/Electronics/ARM/_Library/u8x8_d_ks0108.c **** 	u8x8_cad_SendSequence(u8x8, u8x8_d_ks0108_powersave0_seq);
 601              		.loc 1 242 0
 602 00a8 1346     		mov	r3, r2
 603 00aa 1821     		movs	r1, #24
 604 00ac 0322     		movs	r2, #3
 605              	.LVL67:
 606 00ae A847     		blx	r5
 607              	.LVL68:
 243:/Users/imashio/Electronics/ARM/_Library/u8x8_d_ks0108.c **** 	u8x8->cad_cb(u8x8, U8X8_MSG_CAD_END_TRANSFER, 7, NULL);
 608              		.loc 1 243 0
 609 00b0 2046     		mov	r0, r4
 610 00b2 4A49     		ldr	r1, .L38
 611 00b4 FFF7FEFF 		bl	u8x8_cad_SendSequence
 612              	.LVL69:
 244:/Users/imashio/Electronics/ARM/_Library/u8x8_d_ks0108.c **** 
 613              		.loc 1 244 0
 614 00b8 E568     		ldr	r5, [r4, #12]
 615 00ba 3346     		mov	r3, r6
 616 00bc 0722     		movs	r2, #7
 617 00be 1921     		movs	r1, #25
 618 00c0 2046     		mov	r0, r4
ARM GAS  /var/folders/v3/wysfpd052nz8jkbx04pk0ym80000gn/T//cccIl83X.s 			page 18


 619 00c2 A847     		blx	r5
 620              	.LVL70:
 246:/Users/imashio/Electronics/ARM/_Library/u8x8_d_ks0108.c **** 	u8x8_cad_SendSequence(u8x8, u8x8_d_ks0108_powersave0_seq);
 621              		.loc 1 246 0
 622 00c4 3346     		mov	r3, r6
 623 00c6 E568     		ldr	r5, [r4, #12]
 624 00c8 0522     		movs	r2, #5
 625 00ca 1821     		movs	r1, #24
 626 00cc 2046     		mov	r0, r4
 627 00ce A847     		blx	r5
 628              	.LVL71:
 247:/Users/imashio/Electronics/ARM/_Library/u8x8_d_ks0108.c **** 	u8x8->cad_cb(u8x8, U8X8_MSG_CAD_END_TRANSFER, 7, NULL);
 629              		.loc 1 247 0
 630 00d0 2046     		mov	r0, r4
 631 00d2 4249     		ldr	r1, .L38
 632 00d4 FFF7FEFF 		bl	u8x8_cad_SendSequence
 633              	.LVL72:
 248:/Users/imashio/Electronics/ARM/_Library/u8x8_d_ks0108.c **** 
 634              		.loc 1 248 0
 635 00d8 E568     		ldr	r5, [r4, #12]
 636 00da 3346     		mov	r3, r6
 637 00dc 0722     		movs	r2, #7
 638 00de 1921     		movs	r1, #25
 639 00e0 2046     		mov	r0, r4
 640 00e2 A847     		blx	r5
 641              	.LVL73:
 250:/Users/imashio/Electronics/ARM/_Library/u8x8_d_ks0108.c **** 	u8x8_cad_SendSequence(u8x8, u8x8_d_ks0108_powersave0_seq);
 642              		.loc 1 250 0
 643 00e4 3346     		mov	r3, r6
 644 00e6 E568     		ldr	r5, [r4, #12]
 645 00e8 0622     		movs	r2, #6
 646 00ea 1821     		movs	r1, #24
 647 00ec 2046     		mov	r0, r4
 648 00ee A847     		blx	r5
 649              	.LVL74:
 251:/Users/imashio/Electronics/ARM/_Library/u8x8_d_ks0108.c **** 	u8x8->cad_cb(u8x8, U8X8_MSG_CAD_END_TRANSFER, 7, NULL);
 650              		.loc 1 251 0
 651 00f0 2046     		mov	r0, r4
 652 00f2 3A49     		ldr	r1, .L38
 653 00f4 FFF7FEFF 		bl	u8x8_cad_SendSequence
 654              	.LVL75:
 252:/Users/imashio/Electronics/ARM/_Library/u8x8_d_ks0108.c **** 	
 655              		.loc 1 252 0
 656 00f8 3346     		mov	r3, r6
 657 00fa E568     		ldr	r5, [r4, #12]
 658 00fc 2046     		mov	r0, r4
 659 00fe 0722     		movs	r2, #7
 660 0100 1921     		movs	r1, #25
 661 0102 A847     		blx	r5
 662              	.LVL76:
 301:/Users/imashio/Electronics/ARM/_Library/u8x8_d_ks0108.c **** 	u8x8->cad_cb(u8x8, U8X8_MSG_CAD_END_TRANSFER, 7, NULL);
 302:/Users/imashio/Electronics/ARM/_Library/u8x8_d_ks0108.c ****       }    
 303:/Users/imashio/Electronics/ARM/_Library/u8x8_d_ks0108.c ****       break;
 304:/Users/imashio/Electronics/ARM/_Library/u8x8_d_ks0108.c ****     default:
 305:/Users/imashio/Electronics/ARM/_Library/u8x8_d_ks0108.c ****       return 0;
 306:/Users/imashio/Electronics/ARM/_Library/u8x8_d_ks0108.c ****   }
 307:/Users/imashio/Electronics/ARM/_Library/u8x8_d_ks0108.c ****   return 1;
ARM GAS  /var/folders/v3/wysfpd052nz8jkbx04pk0ym80000gn/T//cccIl83X.s 			page 19


 663              		.loc 1 307 0
 664 0104 0120     		movs	r0, #1
 308:/Users/imashio/Electronics/ARM/_Library/u8x8_d_ks0108.c **** }
 665              		.loc 1 308 0
 666 0106 02B0     		add	sp, sp, #8
 667              	.LCFI13:
 668              		.cfi_remember_state
 669              		.cfi_def_cfa_offset 16
 670              		@ sp needed
 671 0108 70BD     		pop	{r4, r5, r6, pc}
 672              	.LVL77:
 673              	.L26:
 674              	.LCFI14:
 675              		.cfi_restore_state
 221:/Users/imashio/Electronics/ARM/_Library/u8x8_d_ks0108.c ****       break;
 676              		.loc 1 221 0
 677 010a 3549     		ldr	r1, .L38+4
 678 010c FFF7FEFF 		bl	u8x8_d_helper_display_setup_memory
 679              	.LVL78:
 307:/Users/imashio/Electronics/ARM/_Library/u8x8_d_ks0108.c **** }
 680              		.loc 1 307 0
 681 0110 0120     		movs	r0, #1
 682              	.L25:
 683              		.loc 1 308 0
 684 0112 02B0     		add	sp, sp, #8
 685              	.LCFI15:
 686              		.cfi_remember_state
 687              		.cfi_def_cfa_offset 16
 688              		@ sp needed
 689 0114 70BD     		pop	{r4, r5, r6, pc}
 690              	.LVL79:
 691              	.L28:
 692              	.LCFI16:
 693              		.cfi_restore_state
 224:/Users/imashio/Electronics/ARM/_Library/u8x8_d_ks0108.c ****     
 694              		.loc 1 224 0
 695 0116 FFF7FEFF 		bl	u8x8_d_helper_display_init
 696              	.LVL80:
 226:/Users/imashio/Electronics/ARM/_Library/u8x8_d_ks0108.c ****       u8x8_cad_SendSequence(u8x8, u8x8_d_ks0108_init_seq);
 697              		.loc 1 226 0
 698 011a 0023     		movs	r3, #0
 699 011c 0322     		movs	r2, #3
 700 011e E568     		ldr	r5, [r4, #12]
 701              	.LVL81:
 702 0120 1821     		movs	r1, #24
 703 0122 2046     		mov	r0, r4
 704 0124 A847     		blx	r5
 705              	.LVL82:
 227:/Users/imashio/Electronics/ARM/_Library/u8x8_d_ks0108.c ****       u8x8->cad_cb(u8x8, U8X8_MSG_CAD_END_TRANSFER, 7, NULL);
 706              		.loc 1 227 0
 707 0126 2F49     		ldr	r1, .L38+8
 708 0128 2046     		mov	r0, r4
 709 012a FFF7FEFF 		bl	u8x8_cad_SendSequence
 710              	.LVL83:
 228:/Users/imashio/Electronics/ARM/_Library/u8x8_d_ks0108.c ****     
 711              		.loc 1 228 0
 712 012e E568     		ldr	r5, [r4, #12]
ARM GAS  /var/folders/v3/wysfpd052nz8jkbx04pk0ym80000gn/T//cccIl83X.s 			page 20


 713 0130 0023     		movs	r3, #0
 714 0132 0722     		movs	r2, #7
 715 0134 1921     		movs	r1, #25
 716 0136 2046     		mov	r0, r4
 717 0138 A847     		blx	r5
 718              	.LVL84:
 230:/Users/imashio/Electronics/ARM/_Library/u8x8_d_ks0108.c ****       u8x8_cad_SendSequence(u8x8, u8x8_d_ks0108_init_seq);
 719              		.loc 1 230 0
 720 013a 0023     		movs	r3, #0
 721 013c 0522     		movs	r2, #5
 722 013e E568     		ldr	r5, [r4, #12]
 723 0140 1821     		movs	r1, #24
 724 0142 2046     		mov	r0, r4
 725 0144 A847     		blx	r5
 726              	.LVL85:
 231:/Users/imashio/Electronics/ARM/_Library/u8x8_d_ks0108.c ****       u8x8->cad_cb(u8x8, U8X8_MSG_CAD_END_TRANSFER, 7, NULL);
 727              		.loc 1 231 0
 728 0146 2749     		ldr	r1, .L38+8
 729 0148 2046     		mov	r0, r4
 730 014a FFF7FEFF 		bl	u8x8_cad_SendSequence
 731              	.LVL86:
 232:/Users/imashio/Electronics/ARM/_Library/u8x8_d_ks0108.c ****     
 732              		.loc 1 232 0
 733 014e E568     		ldr	r5, [r4, #12]
 734 0150 0023     		movs	r3, #0
 735 0152 0722     		movs	r2, #7
 736 0154 1921     		movs	r1, #25
 737 0156 2046     		mov	r0, r4
 738 0158 A847     		blx	r5
 739              	.LVL87:
 234:/Users/imashio/Electronics/ARM/_Library/u8x8_d_ks0108.c ****       u8x8_cad_SendSequence(u8x8, u8x8_d_ks0108_init_seq);
 740              		.loc 1 234 0
 741 015a 1821     		movs	r1, #24
 742 015c E568     		ldr	r5, [r4, #12]
 743 015e 0023     		movs	r3, #0
 744 0160 0622     		movs	r2, #6
 745 0162 2046     		mov	r0, r4
 746 0164 A847     		blx	r5
 747              	.LVL88:
 235:/Users/imashio/Electronics/ARM/_Library/u8x8_d_ks0108.c ****       u8x8->cad_cb(u8x8, U8X8_MSG_CAD_END_TRANSFER, 7, NULL);
 748              		.loc 1 235 0
 749 0166 1F49     		ldr	r1, .L38+8
 750 0168 2046     		mov	r0, r4
 751 016a FFF7FEFF 		bl	u8x8_cad_SendSequence
 752              	.LVL89:
 753              	.L37:
 301:/Users/imashio/Electronics/ARM/_Library/u8x8_d_ks0108.c ****       }    
 754              		.loc 1 301 0
 755 016e E568     		ldr	r5, [r4, #12]
 756 0170 2046     		mov	r0, r4
 757 0172 0023     		movs	r3, #0
 758 0174 0722     		movs	r2, #7
 759 0176 1921     		movs	r1, #25
 760 0178 A847     		blx	r5
 761              	.LVL90:
 307:/Users/imashio/Electronics/ARM/_Library/u8x8_d_ks0108.c **** }
 762              		.loc 1 307 0
ARM GAS  /var/folders/v3/wysfpd052nz8jkbx04pk0ym80000gn/T//cccIl83X.s 			page 21


 763 017a 0120     		movs	r0, #1
 764              		.loc 1 308 0
 765 017c 02B0     		add	sp, sp, #8
 766              	.LCFI17:
 767              		.cfi_remember_state
 768              		.cfi_def_cfa_offset 16
 769              		@ sp needed
 770 017e 70BD     		pop	{r4, r5, r6, pc}
 771              	.LVL91:
 772              	.L34:
 773              	.LCFI18:
 774              		.cfi_restore_state
 305:/Users/imashio/Electronics/ARM/_Library/u8x8_d_ks0108.c ****   }
 775              		.loc 1 305 0
 776 0180 0020     		movs	r0, #0
 777              	.LVL92:
 778              		.loc 1 308 0
 779 0182 02B0     		add	sp, sp, #8
 780              	.LCFI19:
 781              		.cfi_remember_state
 782              		.cfi_def_cfa_offset 16
 783              		@ sp needed
 784 0184 70BD     		pop	{r4, r5, r6, pc}
 785              	.LVL93:
 786              	.L31:
 787              	.LCFI20:
 788              		.cfi_restore_state
 257:/Users/imashio/Electronics/ARM/_Library/u8x8_d_ks0108.c **** 	u8x8_cad_SendSequence(u8x8, u8x8_d_ks0108_powersave1_seq);
 789              		.loc 1 257 0
 790 0186 0023     		movs	r3, #0
 791 0188 0322     		movs	r2, #3
 792              	.LVL94:
 793 018a 1821     		movs	r1, #24
 794 018c A847     		blx	r5
 795              	.LVL95:
 258:/Users/imashio/Electronics/ARM/_Library/u8x8_d_ks0108.c **** 	u8x8->cad_cb(u8x8, U8X8_MSG_CAD_END_TRANSFER, 7, NULL);
 796              		.loc 1 258 0
 797 018e 2046     		mov	r0, r4
 798 0190 1549     		ldr	r1, .L38+12
 799 0192 FFF7FEFF 		bl	u8x8_cad_SendSequence
 800              	.LVL96:
 259:/Users/imashio/Electronics/ARM/_Library/u8x8_d_ks0108.c **** 
 801              		.loc 1 259 0
 802 0196 E568     		ldr	r5, [r4, #12]
 803 0198 0023     		movs	r3, #0
 804 019a 0722     		movs	r2, #7
 805 019c 1921     		movs	r1, #25
 806 019e 2046     		mov	r0, r4
 807 01a0 A847     		blx	r5
 808              	.LVL97:
 261:/Users/imashio/Electronics/ARM/_Library/u8x8_d_ks0108.c **** 	u8x8_cad_SendSequence(u8x8, u8x8_d_ks0108_powersave1_seq);
 809              		.loc 1 261 0
 810 01a2 E568     		ldr	r5, [r4, #12]
 811 01a4 0023     		movs	r3, #0
 812 01a6 0522     		movs	r2, #5
 813 01a8 1821     		movs	r1, #24
 814 01aa 2046     		mov	r0, r4
ARM GAS  /var/folders/v3/wysfpd052nz8jkbx04pk0ym80000gn/T//cccIl83X.s 			page 22


 815 01ac A847     		blx	r5
 816              	.LVL98:
 262:/Users/imashio/Electronics/ARM/_Library/u8x8_d_ks0108.c **** 	u8x8->cad_cb(u8x8, U8X8_MSG_CAD_END_TRANSFER, 7, NULL);
 817              		.loc 1 262 0
 818 01ae 2046     		mov	r0, r4
 819 01b0 0D49     		ldr	r1, .L38+12
 820 01b2 FFF7FEFF 		bl	u8x8_cad_SendSequence
 821              	.LVL99:
 263:/Users/imashio/Electronics/ARM/_Library/u8x8_d_ks0108.c **** 
 822              		.loc 1 263 0
 823 01b6 E568     		ldr	r5, [r4, #12]
 824 01b8 0023     		movs	r3, #0
 825 01ba 0722     		movs	r2, #7
 826 01bc 1921     		movs	r1, #25
 827 01be 2046     		mov	r0, r4
 828 01c0 A847     		blx	r5
 829              	.LVL100:
 265:/Users/imashio/Electronics/ARM/_Library/u8x8_d_ks0108.c **** 	u8x8_cad_SendSequence(u8x8, u8x8_d_ks0108_powersave1_seq);
 830              		.loc 1 265 0
 831 01c2 E568     		ldr	r5, [r4, #12]
 832 01c4 0023     		movs	r3, #0
 833 01c6 0622     		movs	r2, #6
 834 01c8 1821     		movs	r1, #24
 835 01ca 2046     		mov	r0, r4
 836 01cc A847     		blx	r5
 837              	.LVL101:
 266:/Users/imashio/Electronics/ARM/_Library/u8x8_d_ks0108.c **** 	u8x8->cad_cb(u8x8, U8X8_MSG_CAD_END_TRANSFER, 7, NULL);
 838              		.loc 1 266 0
 839 01ce 0649     		ldr	r1, .L38+12
 840 01d0 2046     		mov	r0, r4
 841 01d2 FFF7FEFF 		bl	u8x8_cad_SendSequence
 842              	.LVL102:
 843 01d6 CAE7     		b	.L37
 844              	.LVL103:
 845              	.L35:
 307:/Users/imashio/Electronics/ARM/_Library/u8x8_d_ks0108.c **** }
 846              		.loc 1 307 0
 847 01d8 0120     		movs	r0, #1
 848 01da 9AE7     		b	.L25
 849              	.L39:
 850              		.align	2
 851              	.L38:
 852 01dc 00000000 		.word	.LANCHOR2
 853 01e0 00000000 		.word	.LANCHOR0
 854 01e4 00000000 		.word	.LANCHOR1
 855 01e8 00000000 		.word	.LANCHOR3
 856              		.cfi_endproc
 857              	.LFE2:
 859              		.section	.rodata.u8x8_d_ks0108_init_seq,"a",%progbits
 860              		.align	2
 861              		.set	.LANCHOR1,. + 0
 864              	u8x8_d_ks0108_init_seq:
 865 0000 15       		.byte	21
 866 0001 C0       		.byte	-64
 867 0002 FF       		.byte	-1
 868              		.section	.rodata.u8x8_d_ks0108_powersave0_seq,"a",%progbits
 869              		.align	2
ARM GAS  /var/folders/v3/wysfpd052nz8jkbx04pk0ym80000gn/T//cccIl83X.s 			page 23


 870              		.set	.LANCHOR2,. + 0
 873              	u8x8_d_ks0108_powersave0_seq:
 874 0000 15       		.byte	21
 875 0001 3F       		.byte	63
 876 0002 FF       		.byte	-1
 877              		.section	.rodata.u8x8_d_ks0108_powersave1_seq,"a",%progbits
 878              		.align	2
 879              		.set	.LANCHOR3,. + 0
 882              	u8x8_d_ks0108_powersave1_seq:
 883 0000 15       		.byte	21
 884 0001 3E       		.byte	62
 885 0002 FF       		.byte	-1
 886              		.section	.rodata.u8x8_ks0108_128x64_display_info,"a",%progbits
 887              		.align	2
 888              		.set	.LANCHOR0,. + 0
 891              	u8x8_ks0108_128x64_display_info:
 892 0000 00       		.byte	0
 893 0001 01       		.byte	1
 894 0002 64       		.byte	100
 895 0003 14       		.byte	20
 896 0004 01       		.byte	1
 897 0005 06       		.byte	6
 898 0006 0C       		.byte	12
 899 0007 4B       		.byte	75
 900 0008 00093D00 		.word	4000000
 901 000c 00       		.byte	0
 902 000d 04       		.byte	4
 903 000e C8       		.byte	-56
 904 000f C8       		.byte	-56
 905 0010 10       		.byte	16
 906 0011 08       		.byte	8
 907 0012 00       		.byte	0
 908 0013 00       		.byte	0
 909 0014 8000     		.short	128
 910 0016 4000     		.short	64
 911              		.text
 912              	.Letext0:
 913              		.file 2 "/usr/local/gcc-arm-none-eabi-7-2018-q2-update/arm-none-eabi/include/machine/_default_type
 914              		.file 3 "/usr/local/gcc-arm-none-eabi-7-2018-q2-update/arm-none-eabi/include/sys/_stdint.h"
 915              		.file 4 "/Users/imashio/Electronics/ARM/_Library/u8x8.h"
ARM GAS  /var/folders/v3/wysfpd052nz8jkbx04pk0ym80000gn/T//cccIl83X.s 			page 24


DEFINED SYMBOLS
                            *ABS*:0000000000000000 u8x8_d_ks0108.c
/var/folders/v3/wysfpd052nz8jkbx04pk0ym80000gn/T//cccIl83X.s:18     .text.u8x8_ks0108_out:0000000000000000 $t
/var/folders/v3/wysfpd052nz8jkbx04pk0ym80000gn/T//cccIl83X.s:25     .text.u8x8_ks0108_out:0000000000000000 u8x8_ks0108_out
/var/folders/v3/wysfpd052nz8jkbx04pk0ym80000gn/T//cccIl83X.s:148    .text.u8x8_d_ks0108_128x64:0000000000000000 $t
/var/folders/v3/wysfpd052nz8jkbx04pk0ym80000gn/T//cccIl83X.s:156    .text.u8x8_d_ks0108_128x64:0000000000000000 u8x8_d_ks0108_128x64
/var/folders/v3/wysfpd052nz8jkbx04pk0ym80000gn/T//cccIl83X.s:187    .text.u8x8_d_ks0108_128x64:0000000000000016 $d
/var/folders/v3/wysfpd052nz8jkbx04pk0ym80000gn/T//cccIl83X.s:451    .text.u8x8_d_ks0108_128x64:0000000000000150 $d
/var/folders/v3/wysfpd052nz8jkbx04pk0ym80000gn/T//cccIl83X.s:459    .text.u8x8_d_ks0108_erm19264:0000000000000000 $t
/var/folders/v3/wysfpd052nz8jkbx04pk0ym80000gn/T//cccIl83X.s:467    .text.u8x8_d_ks0108_erm19264:0000000000000000 u8x8_d_ks0108_erm19264
/var/folders/v3/wysfpd052nz8jkbx04pk0ym80000gn/T//cccIl83X.s:498    .text.u8x8_d_ks0108_erm19264:0000000000000016 $d
/var/folders/v3/wysfpd052nz8jkbx04pk0ym80000gn/T//cccIl83X.s:852    .text.u8x8_d_ks0108_erm19264:00000000000001dc $d
/var/folders/v3/wysfpd052nz8jkbx04pk0ym80000gn/T//cccIl83X.s:860    .rodata.u8x8_d_ks0108_init_seq:0000000000000000 $d
/var/folders/v3/wysfpd052nz8jkbx04pk0ym80000gn/T//cccIl83X.s:864    .rodata.u8x8_d_ks0108_init_seq:0000000000000000 u8x8_d_ks0108_init_seq
/var/folders/v3/wysfpd052nz8jkbx04pk0ym80000gn/T//cccIl83X.s:869    .rodata.u8x8_d_ks0108_powersave0_seq:0000000000000000 $d
/var/folders/v3/wysfpd052nz8jkbx04pk0ym80000gn/T//cccIl83X.s:873    .rodata.u8x8_d_ks0108_powersave0_seq:0000000000000000 u8x8_d_ks0108_powersave0_seq
/var/folders/v3/wysfpd052nz8jkbx04pk0ym80000gn/T//cccIl83X.s:878    .rodata.u8x8_d_ks0108_powersave1_seq:0000000000000000 $d
/var/folders/v3/wysfpd052nz8jkbx04pk0ym80000gn/T//cccIl83X.s:882    .rodata.u8x8_d_ks0108_powersave1_seq:0000000000000000 u8x8_d_ks0108_powersave1_seq
/var/folders/v3/wysfpd052nz8jkbx04pk0ym80000gn/T//cccIl83X.s:887    .rodata.u8x8_ks0108_128x64_display_info:0000000000000000 $d
/var/folders/v3/wysfpd052nz8jkbx04pk0ym80000gn/T//cccIl83X.s:891    .rodata.u8x8_ks0108_128x64_display_info:0000000000000000 u8x8_ks0108_128x64_display_info
/var/folders/v3/wysfpd052nz8jkbx04pk0ym80000gn/T//cccIl83X.s:194    .text.u8x8_d_ks0108_128x64:000000000000001d $d
/var/folders/v3/wysfpd052nz8jkbx04pk0ym80000gn/T//cccIl83X.s:194    .text.u8x8_d_ks0108_128x64:000000000000001e $t
/var/folders/v3/wysfpd052nz8jkbx04pk0ym80000gn/T//cccIl83X.s:505    .text.u8x8_d_ks0108_erm19264:000000000000001d $d
/var/folders/v3/wysfpd052nz8jkbx04pk0ym80000gn/T//cccIl83X.s:505    .text.u8x8_d_ks0108_erm19264:000000000000001e $t

UNDEFINED SYMBOLS
u8x8_cad_SendCmd
u8x8_cad_SendData
u8x8_cad_SendSequence
u8x8_d_helper_display_setup_memory
u8x8_d_helper_display_init
