ARM GAS  /var/folders/v3/wysfpd052nz8jkbx04pk0ym80000gn/T//cc4t3AIR.s 			page 1


   1              		.cpu cortex-m4
   2              		.eabi_attribute 27, 1
   3              		.eabi_attribute 28, 1
   4              		.eabi_attribute 20, 1
   5              		.eabi_attribute 21, 1
   6              		.eabi_attribute 23, 3
   7              		.eabi_attribute 24, 1
   8              		.eabi_attribute 25, 1
   9              		.eabi_attribute 26, 1
  10              		.eabi_attribute 30, 1
  11              		.eabi_attribute 34, 1
  12              		.eabi_attribute 18, 4
  13              		.file	"u8x8_d_ls013b7dh03.c"
  14              		.text
  15              	.Ltext0:
  16              		.cfi_sections	.debug_frame
  17              		.section	.text.u8x8_d_ls013b7dh03_128x128,"ax",%progbits
  18              		.align	1
  19              		.global	u8x8_d_ls013b7dh03_128x128
  20              		.syntax unified
  21              		.thumb
  22              		.thumb_func
  23              		.fpu fpv4-sp-d16
  25              	u8x8_d_ls013b7dh03_128x128:
  26              	.LFB0:
  27              		.file 1 "/Users/imashio/Electronics/ARM/_Library/u8x8_d_ls013b7dh03.c"
   1:/Users/imashio/Electronics/ARM/_Library/u8x8_d_ls013b7dh03.c **** /*
   2:/Users/imashio/Electronics/ARM/_Library/u8x8_d_ls013b7dh03.c **** 
   3:/Users/imashio/Electronics/ARM/_Library/u8x8_d_ls013b7dh03.c ****   u8x8_d_ls013b7dh03.c
   4:/Users/imashio/Electronics/ARM/_Library/u8x8_d_ls013b7dh03.c ****   
   5:/Users/imashio/Electronics/ARM/_Library/u8x8_d_ls013b7dh03.c ****   Universal 8bit Graphics Library (https://github.com/olikraus/u8g2/)
   6:/Users/imashio/Electronics/ARM/_Library/u8x8_d_ls013b7dh03.c **** 
   7:/Users/imashio/Electronics/ARM/_Library/u8x8_d_ls013b7dh03.c ****   Copyright (c) 2016, olikraus@gmail.com
   8:/Users/imashio/Electronics/ARM/_Library/u8x8_d_ls013b7dh03.c ****   All rights reserved.
   9:/Users/imashio/Electronics/ARM/_Library/u8x8_d_ls013b7dh03.c **** 
  10:/Users/imashio/Electronics/ARM/_Library/u8x8_d_ls013b7dh03.c ****   Redistribution and use in source and binary forms, with or without modification, 
  11:/Users/imashio/Electronics/ARM/_Library/u8x8_d_ls013b7dh03.c ****   are permitted provided that the following conditions are met:
  12:/Users/imashio/Electronics/ARM/_Library/u8x8_d_ls013b7dh03.c **** 
  13:/Users/imashio/Electronics/ARM/_Library/u8x8_d_ls013b7dh03.c ****   * Redistributions of source code must retain the above copyright notice, this list 
  14:/Users/imashio/Electronics/ARM/_Library/u8x8_d_ls013b7dh03.c ****     of conditions and the following disclaimer.
  15:/Users/imashio/Electronics/ARM/_Library/u8x8_d_ls013b7dh03.c ****     
  16:/Users/imashio/Electronics/ARM/_Library/u8x8_d_ls013b7dh03.c ****   * Redistributions in binary form must reproduce the above copyright notice, this 
  17:/Users/imashio/Electronics/ARM/_Library/u8x8_d_ls013b7dh03.c ****     list of conditions and the following disclaimer in the documentation and/or other 
  18:/Users/imashio/Electronics/ARM/_Library/u8x8_d_ls013b7dh03.c ****     materials provided with the distribution.
  19:/Users/imashio/Electronics/ARM/_Library/u8x8_d_ls013b7dh03.c **** 
  20:/Users/imashio/Electronics/ARM/_Library/u8x8_d_ls013b7dh03.c ****   THIS SOFTWARE IS PROVIDED BY THE COPYRIGHT HOLDERS AND 
  21:/Users/imashio/Electronics/ARM/_Library/u8x8_d_ls013b7dh03.c ****   CONTRIBUTORS "AS IS" AND ANY EXPRESS OR IMPLIED WARRANTIES, 
  22:/Users/imashio/Electronics/ARM/_Library/u8x8_d_ls013b7dh03.c ****   INCLUDING, BUT NOT LIMITED TO, THE IMPLIED WARRANTIES OF 
  23:/Users/imashio/Electronics/ARM/_Library/u8x8_d_ls013b7dh03.c ****   MERCHANTABILITY AND FITNESS FOR A PARTICULAR PURPOSE ARE 
  24:/Users/imashio/Electronics/ARM/_Library/u8x8_d_ls013b7dh03.c ****   DISCLAIMED. IN NO EVENT SHALL THE COPYRIGHT HOLDER OR 
  25:/Users/imashio/Electronics/ARM/_Library/u8x8_d_ls013b7dh03.c ****   CONTRIBUTORS BE LIABLE FOR ANY DIRECT, INDIRECT, INCIDENTAL, 
  26:/Users/imashio/Electronics/ARM/_Library/u8x8_d_ls013b7dh03.c ****   SPECIAL, EXEMPLARY, OR CONSEQUENTIAL DAMAGES (INCLUDING, BUT 
  27:/Users/imashio/Electronics/ARM/_Library/u8x8_d_ls013b7dh03.c ****   NOT LIMITED TO, PROCUREMENT OF SUBSTITUTE GOODS OR SERVICES; 
  28:/Users/imashio/Electronics/ARM/_Library/u8x8_d_ls013b7dh03.c ****   LOSS OF USE, DATA, OR PROFITS; OR BUSINESS INTERRUPTION) HOWEVER 
  29:/Users/imashio/Electronics/ARM/_Library/u8x8_d_ls013b7dh03.c ****   CAUSED AND ON ANY THEORY OF LIABILITY, WHETHER IN CONTRACT, 
  30:/Users/imashio/Electronics/ARM/_Library/u8x8_d_ls013b7dh03.c ****   STRICT LIABILITY, OR TORT (INCLUDING NEGLIGENCE OR OTHERWISE) 
  31:/Users/imashio/Electronics/ARM/_Library/u8x8_d_ls013b7dh03.c ****   ARISING IN ANY WAY OUT OF THE USE OF THIS SOFTWARE, EVEN IF 
ARM GAS  /var/folders/v3/wysfpd052nz8jkbx04pk0ym80000gn/T//cc4t3AIR.s 			page 2


  32:/Users/imashio/Electronics/ARM/_Library/u8x8_d_ls013b7dh03.c ****   ADVISED OF THE POSSIBILITY OF SUCH DAMAGE.  
  33:/Users/imashio/Electronics/ARM/_Library/u8x8_d_ls013b7dh03.c **** 
  34:/Users/imashio/Electronics/ARM/_Library/u8x8_d_ls013b7dh03.c **** 
  35:/Users/imashio/Electronics/ARM/_Library/u8x8_d_ls013b7dh03.c ****   The LS013B7DH02 is a simple display and controller
  36:/Users/imashio/Electronics/ARM/_Library/u8x8_d_ls013b7dh03.c ****   --> no support for contrast adjustment, flip and power down.
  37:/Users/imashio/Electronics/ARM/_Library/u8x8_d_ls013b7dh03.c **** */
  38:/Users/imashio/Electronics/ARM/_Library/u8x8_d_ls013b7dh03.c **** 
  39:/Users/imashio/Electronics/ARM/_Library/u8x8_d_ls013b7dh03.c **** #include "u8x8.h"
  40:/Users/imashio/Electronics/ARM/_Library/u8x8_d_ls013b7dh03.c **** 
  41:/Users/imashio/Electronics/ARM/_Library/u8x8_d_ls013b7dh03.c **** #define SWAP8(a) ((((a) & 0x80) >> 7) | (((a) & 0x40) >> 5) | (((a) & 0x20) >> 3) | (((a) & 0x10) >
  42:/Users/imashio/Electronics/ARM/_Library/u8x8_d_ls013b7dh03.c **** 
  43:/Users/imashio/Electronics/ARM/_Library/u8x8_d_ls013b7dh03.c **** #define LS013B7DH03_CMD_UPDATE     (0x01)
  44:/Users/imashio/Electronics/ARM/_Library/u8x8_d_ls013b7dh03.c **** #define LS013B7DH03_CMD_ALL_CLEAR  (0x04)
  45:/Users/imashio/Electronics/ARM/_Library/u8x8_d_ls013b7dh03.c **** #define LS013B7DH03_VAL_TRAILER    (0x00)
  46:/Users/imashio/Electronics/ARM/_Library/u8x8_d_ls013b7dh03.c **** 
  47:/Users/imashio/Electronics/ARM/_Library/u8x8_d_ls013b7dh03.c **** static const u8x8_display_info_t u8x8_ls013b7dh03_128x128_display_info =
  48:/Users/imashio/Electronics/ARM/_Library/u8x8_d_ls013b7dh03.c **** {
  49:/Users/imashio/Electronics/ARM/_Library/u8x8_d_ls013b7dh03.c ****   /* chip_enable_level = */ 1,
  50:/Users/imashio/Electronics/ARM/_Library/u8x8_d_ls013b7dh03.c ****   /* chip_disable_level = */ 0,
  51:/Users/imashio/Electronics/ARM/_Library/u8x8_d_ls013b7dh03.c ****   /* post_chip_enable_wait_ns = */ 50,
  52:/Users/imashio/Electronics/ARM/_Library/u8x8_d_ls013b7dh03.c ****   /* pre_chip_disable_wait_ns = */ 50,
  53:/Users/imashio/Electronics/ARM/_Library/u8x8_d_ls013b7dh03.c ****   /* reset_pulse_width_ms = */ 1,
  54:/Users/imashio/Electronics/ARM/_Library/u8x8_d_ls013b7dh03.c ****   /* post_reset_wait_ms = */ 6,
  55:/Users/imashio/Electronics/ARM/_Library/u8x8_d_ls013b7dh03.c ****   /* sda_setup_time_ns = */ 227,	/* 227 nsec according to the datasheet */		
  56:/Users/imashio/Electronics/ARM/_Library/u8x8_d_ls013b7dh03.c ****   /* sck_pulse_width_ns = */  255,	/* 450 nsec according to the datasheet */
  57:/Users/imashio/Electronics/ARM/_Library/u8x8_d_ls013b7dh03.c ****   /* sck_clock_hz = */ 1000000UL,	/* since Arduino 1.6.0, the SPI bus speed in Hz. Should be  10000
  58:/Users/imashio/Electronics/ARM/_Library/u8x8_d_ls013b7dh03.c ****   /* spi_mode = */ 2,		/* active low, rising edge */
  59:/Users/imashio/Electronics/ARM/_Library/u8x8_d_ls013b7dh03.c ****   /* i2c_bus_clock_100kHz = */ 4,
  60:/Users/imashio/Electronics/ARM/_Library/u8x8_d_ls013b7dh03.c ****   /* data_setup_time_ns = */ 100,
  61:/Users/imashio/Electronics/ARM/_Library/u8x8_d_ls013b7dh03.c ****   /* write_pulse_width_ns = */ 100,
  62:/Users/imashio/Electronics/ARM/_Library/u8x8_d_ls013b7dh03.c ****   /* tile_width = */ 16,
  63:/Users/imashio/Electronics/ARM/_Library/u8x8_d_ls013b7dh03.c ****   /* tile_hight = */ 16,
  64:/Users/imashio/Electronics/ARM/_Library/u8x8_d_ls013b7dh03.c ****   /* default_x_offset = */ 0,
  65:/Users/imashio/Electronics/ARM/_Library/u8x8_d_ls013b7dh03.c ****   /* flipmode_x_offset = */ 0,
  66:/Users/imashio/Electronics/ARM/_Library/u8x8_d_ls013b7dh03.c ****   /* pixel_width = */ 128,
  67:/Users/imashio/Electronics/ARM/_Library/u8x8_d_ls013b7dh03.c ****   /* pixel_height = */ 128
  68:/Users/imashio/Electronics/ARM/_Library/u8x8_d_ls013b7dh03.c **** };
  69:/Users/imashio/Electronics/ARM/_Library/u8x8_d_ls013b7dh03.c **** 
  70:/Users/imashio/Electronics/ARM/_Library/u8x8_d_ls013b7dh03.c **** uint8_t u8x8_d_ls013b7dh03_128x128(u8x8_t *u8x8, uint8_t msg, U8X8_UNUSED uint8_t arg_int, void *ar
  71:/Users/imashio/Electronics/ARM/_Library/u8x8_d_ls013b7dh03.c **** {
  28              		.loc 1 71 0
  29              		.cfi_startproc
  30              		@ args = 0, pretend = 0, frame = 0
  31              		@ frame_needed = 0, uses_anonymous_args = 0
  32              	.LVL0:
  33 0000 2DE9F041 		push	{r4, r5, r6, r7, r8, lr}
  34              	.LCFI0:
  35              		.cfi_def_cfa_offset 24
  36              		.cfi_offset 4, -24
  37              		.cfi_offset 5, -20
  38              		.cfi_offset 6, -16
  39              		.cfi_offset 7, -12
  40              		.cfi_offset 8, -8
  41              		.cfi_offset 14, -4
  42 0004 0546     		mov	r5, r0
  72:/Users/imashio/Electronics/ARM/_Library/u8x8_d_ls013b7dh03.c ****   uint8_t y, c, i;
  73:/Users/imashio/Electronics/ARM/_Library/u8x8_d_ls013b7dh03.c ****   uint8_t *ptr;
ARM GAS  /var/folders/v3/wysfpd052nz8jkbx04pk0ym80000gn/T//cc4t3AIR.s 			page 3


  74:/Users/imashio/Electronics/ARM/_Library/u8x8_d_ls013b7dh03.c ****   switch(msg)
  43              		.loc 1 74 0
  44 0006 0939     		subs	r1, r1, #9
  45              	.LVL1:
  46 0008 0629     		cmp	r1, #6
  47 000a 05D8     		bhi	.L2
  48 000c DFE801F0 		tbb	[pc, r1]
  49              	.LVL2:
  50              	.L4:
  51 0010 06       		.byte	(.L3-.L4)/2
  52 0011 0B       		.byte	(.L5-.L4)/2
  53 0012 6D       		.byte	(.L10-.L4)/2
  54 0013 04       		.byte	(.L2-.L4)/2
  55 0014 04       		.byte	(.L2-.L4)/2
  56 0015 04       		.byte	(.L2-.L4)/2
  57 0016 1D       		.byte	(.L7-.L4)/2
  58 0017 00       		.p2align 1
  59              	.L2:
  75:/Users/imashio/Electronics/ARM/_Library/u8x8_d_ls013b7dh03.c ****   {
  76:/Users/imashio/Electronics/ARM/_Library/u8x8_d_ls013b7dh03.c ****     case U8X8_MSG_DISPLAY_SETUP_MEMORY:
  77:/Users/imashio/Electronics/ARM/_Library/u8x8_d_ls013b7dh03.c ****       u8x8_d_helper_display_setup_memory(u8x8, &u8x8_ls013b7dh03_128x128_display_info);
  78:/Users/imashio/Electronics/ARM/_Library/u8x8_d_ls013b7dh03.c ****       break;
  79:/Users/imashio/Electronics/ARM/_Library/u8x8_d_ls013b7dh03.c ****     case U8X8_MSG_DISPLAY_INIT:
  80:/Users/imashio/Electronics/ARM/_Library/u8x8_d_ls013b7dh03.c ****       u8x8_d_helper_display_init(u8x8);
  81:/Users/imashio/Electronics/ARM/_Library/u8x8_d_ls013b7dh03.c **** 
  82:/Users/imashio/Electronics/ARM/_Library/u8x8_d_ls013b7dh03.c ****       /* clear screen */
  83:/Users/imashio/Electronics/ARM/_Library/u8x8_d_ls013b7dh03.c ****       u8x8_cad_StartTransfer(u8x8);
  84:/Users/imashio/Electronics/ARM/_Library/u8x8_d_ls013b7dh03.c ****       u8x8_cad_SendCmd(u8x8, SWAP8(LS013B7DH03_CMD_ALL_CLEAR) );
  85:/Users/imashio/Electronics/ARM/_Library/u8x8_d_ls013b7dh03.c ****       u8x8_cad_SendCmd(u8x8, LS013B7DH03_VAL_TRAILER);
  86:/Users/imashio/Electronics/ARM/_Library/u8x8_d_ls013b7dh03.c ****       u8x8_cad_EndTransfer(u8x8);
  87:/Users/imashio/Electronics/ARM/_Library/u8x8_d_ls013b7dh03.c **** 
  88:/Users/imashio/Electronics/ARM/_Library/u8x8_d_ls013b7dh03.c ****       break;
  89:/Users/imashio/Electronics/ARM/_Library/u8x8_d_ls013b7dh03.c ****     case U8X8_MSG_DISPLAY_SET_POWER_SAVE:
  90:/Users/imashio/Electronics/ARM/_Library/u8x8_d_ls013b7dh03.c ****       /* not available for the ls013b7dh03 */
  91:/Users/imashio/Electronics/ARM/_Library/u8x8_d_ls013b7dh03.c ****       break;
  92:/Users/imashio/Electronics/ARM/_Library/u8x8_d_ls013b7dh03.c ****     case U8X8_MSG_DISPLAY_DRAW_TILE:
  93:/Users/imashio/Electronics/ARM/_Library/u8x8_d_ls013b7dh03.c ****       /* each tile is 8 lines, with the data starting at the left edge */
  94:/Users/imashio/Electronics/ARM/_Library/u8x8_d_ls013b7dh03.c ****       y = ((((u8x8_tile_t *)arg_ptr)->y_pos) * 8) + 1;
  95:/Users/imashio/Electronics/ARM/_Library/u8x8_d_ls013b7dh03.c **** 
  96:/Users/imashio/Electronics/ARM/_Library/u8x8_d_ls013b7dh03.c ****       c = ((u8x8_tile_t *)arg_ptr)->cnt;
  97:/Users/imashio/Electronics/ARM/_Library/u8x8_d_ls013b7dh03.c ****       ptr = ((u8x8_tile_t *)arg_ptr)->tile_ptr;
  98:/Users/imashio/Electronics/ARM/_Library/u8x8_d_ls013b7dh03.c **** 
  99:/Users/imashio/Electronics/ARM/_Library/u8x8_d_ls013b7dh03.c ****       /* send data mode byte */
 100:/Users/imashio/Electronics/ARM/_Library/u8x8_d_ls013b7dh03.c ****       u8x8_cad_StartTransfer(u8x8);
 101:/Users/imashio/Electronics/ARM/_Library/u8x8_d_ls013b7dh03.c ****       u8x8_cad_SendCmd(u8x8, SWAP8(LS013B7DH03_CMD_UPDATE) );
 102:/Users/imashio/Electronics/ARM/_Library/u8x8_d_ls013b7dh03.c **** 
 103:/Users/imashio/Electronics/ARM/_Library/u8x8_d_ls013b7dh03.c ****       /* send 8 lines of 16 bytes (=128 pixels) */
 104:/Users/imashio/Electronics/ARM/_Library/u8x8_d_ls013b7dh03.c ****       for( i = 0; i < 8; i++ )
 105:/Users/imashio/Electronics/ARM/_Library/u8x8_d_ls013b7dh03.c ****       {
 106:/Users/imashio/Electronics/ARM/_Library/u8x8_d_ls013b7dh03.c ****         u8x8_cad_SendCmd(u8x8, SWAP8(y + i) );
 107:/Users/imashio/Electronics/ARM/_Library/u8x8_d_ls013b7dh03.c ****         u8x8_cad_SendData(u8x8, c, ptr);
 108:/Users/imashio/Electronics/ARM/_Library/u8x8_d_ls013b7dh03.c ****         u8x8_cad_SendCmd(u8x8, LS013B7DH03_VAL_TRAILER);
 109:/Users/imashio/Electronics/ARM/_Library/u8x8_d_ls013b7dh03.c **** 
 110:/Users/imashio/Electronics/ARM/_Library/u8x8_d_ls013b7dh03.c ****         ptr += c;
 111:/Users/imashio/Electronics/ARM/_Library/u8x8_d_ls013b7dh03.c ****       }
 112:/Users/imashio/Electronics/ARM/_Library/u8x8_d_ls013b7dh03.c **** 
 113:/Users/imashio/Electronics/ARM/_Library/u8x8_d_ls013b7dh03.c ****       /* finish with a trailing byte */
ARM GAS  /var/folders/v3/wysfpd052nz8jkbx04pk0ym80000gn/T//cc4t3AIR.s 			page 4


 114:/Users/imashio/Electronics/ARM/_Library/u8x8_d_ls013b7dh03.c ****       u8x8_cad_SendCmd(u8x8, LS013B7DH03_VAL_TRAILER);
 115:/Users/imashio/Electronics/ARM/_Library/u8x8_d_ls013b7dh03.c ****       u8x8_cad_EndTransfer(u8x8);
 116:/Users/imashio/Electronics/ARM/_Library/u8x8_d_ls013b7dh03.c **** 
 117:/Users/imashio/Electronics/ARM/_Library/u8x8_d_ls013b7dh03.c ****       break;
 118:/Users/imashio/Electronics/ARM/_Library/u8x8_d_ls013b7dh03.c ****     default:
 119:/Users/imashio/Electronics/ARM/_Library/u8x8_d_ls013b7dh03.c ****       return 0;
  60              		.loc 1 119 0
  61 0018 0020     		movs	r0, #0
  62              	.LVL3:
  63 001a 67E0     		b	.L6
  64              	.LVL4:
  65              	.L3:
  77:/Users/imashio/Electronics/ARM/_Library/u8x8_d_ls013b7dh03.c ****       break;
  66              		.loc 1 77 0
  67 001c 3449     		ldr	r1, .L12
  68 001e FFF7FEFF 		bl	u8x8_d_helper_display_setup_memory
  69              	.LVL5:
 120:/Users/imashio/Electronics/ARM/_Library/u8x8_d_ls013b7dh03.c ****   }
 121:/Users/imashio/Electronics/ARM/_Library/u8x8_d_ls013b7dh03.c ****   return 1;
  70              		.loc 1 121 0
  71 0022 0120     		movs	r0, #1
  78:/Users/imashio/Electronics/ARM/_Library/u8x8_d_ls013b7dh03.c ****     case U8X8_MSG_DISPLAY_INIT:
  72              		.loc 1 78 0
  73 0024 62E0     		b	.L6
  74              	.LVL6:
  75              	.L5:
  80:/Users/imashio/Electronics/ARM/_Library/u8x8_d_ls013b7dh03.c **** 
  76              		.loc 1 80 0
  77 0026 FFF7FEFF 		bl	u8x8_d_helper_display_init
  78              	.LVL7:
  83:/Users/imashio/Electronics/ARM/_Library/u8x8_d_ls013b7dh03.c ****       u8x8_cad_SendCmd(u8x8, SWAP8(LS013B7DH03_CMD_ALL_CLEAR) );
  79              		.loc 1 83 0
  80 002a 2846     		mov	r0, r5
  81 002c FFF7FEFF 		bl	u8x8_cad_StartTransfer
  82              	.LVL8:
  84:/Users/imashio/Electronics/ARM/_Library/u8x8_d_ls013b7dh03.c ****       u8x8_cad_SendCmd(u8x8, LS013B7DH03_VAL_TRAILER);
  83              		.loc 1 84 0
  84 0030 2021     		movs	r1, #32
  85 0032 2846     		mov	r0, r5
  86 0034 FFF7FEFF 		bl	u8x8_cad_SendCmd
  87              	.LVL9:
  85:/Users/imashio/Electronics/ARM/_Library/u8x8_d_ls013b7dh03.c ****       u8x8_cad_EndTransfer(u8x8);
  88              		.loc 1 85 0
  89 0038 0021     		movs	r1, #0
  90 003a 2846     		mov	r0, r5
  91 003c FFF7FEFF 		bl	u8x8_cad_SendCmd
  92              	.LVL10:
  86:/Users/imashio/Electronics/ARM/_Library/u8x8_d_ls013b7dh03.c **** 
  93              		.loc 1 86 0
  94 0040 2846     		mov	r0, r5
  95 0042 FFF7FEFF 		bl	u8x8_cad_EndTransfer
  96              	.LVL11:
  97              		.loc 1 121 0
  98 0046 0120     		movs	r0, #1
  88:/Users/imashio/Electronics/ARM/_Library/u8x8_d_ls013b7dh03.c ****     case U8X8_MSG_DISPLAY_SET_POWER_SAVE:
  99              		.loc 1 88 0
 100 0048 50E0     		b	.L6
ARM GAS  /var/folders/v3/wysfpd052nz8jkbx04pk0ym80000gn/T//cc4t3AIR.s 			page 5


 101              	.LVL12:
 102              	.L7:
  94:/Users/imashio/Electronics/ARM/_Library/u8x8_d_ls013b7dh03.c **** 
 103              		.loc 1 94 0
 104 004a 93F80680 		ldrb	r8, [r3, #6]	@ zero_extendqisi2
 105 004e 4FEAC808 		lsl	r8, r8, #3
 106 0052 5FFA88F8 		uxtb	r8, r8
 107 0056 08F10108 		add	r8, r8, #1
 108 005a 5FFA88F8 		uxtb	r8, r8
 109              	.LVL13:
  96:/Users/imashio/Electronics/ARM/_Library/u8x8_d_ls013b7dh03.c ****       ptr = ((u8x8_tile_t *)arg_ptr)->tile_ptr;
 110              		.loc 1 96 0
 111 005e 1F79     		ldrb	r7, [r3, #4]	@ zero_extendqisi2
 112              	.LVL14:
  97:/Users/imashio/Electronics/ARM/_Library/u8x8_d_ls013b7dh03.c **** 
 113              		.loc 1 97 0
 114 0060 1E68     		ldr	r6, [r3]
 115              	.LVL15:
 100:/Users/imashio/Electronics/ARM/_Library/u8x8_d_ls013b7dh03.c ****       u8x8_cad_SendCmd(u8x8, SWAP8(LS013B7DH03_CMD_UPDATE) );
 116              		.loc 1 100 0
 117 0062 FFF7FEFF 		bl	u8x8_cad_StartTransfer
 118              	.LVL16:
 101:/Users/imashio/Electronics/ARM/_Library/u8x8_d_ls013b7dh03.c **** 
 119              		.loc 1 101 0
 120 0066 8021     		movs	r1, #128
 121 0068 2846     		mov	r0, r5
 122 006a FFF7FEFF 		bl	u8x8_cad_SendCmd
 123              	.LVL17:
 104:/Users/imashio/Electronics/ARM/_Library/u8x8_d_ls013b7dh03.c ****       {
 124              		.loc 1 104 0
 125 006e 0024     		movs	r4, #0
 126 0070 30E0     		b	.L8
 127              	.LVL18:
 128              	.L9:
 106:/Users/imashio/Electronics/ARM/_Library/u8x8_d_ls013b7dh03.c ****         u8x8_cad_SendData(u8x8, c, ptr);
 129              		.loc 1 106 0 discriminator 3
 130 0072 04EB0801 		add	r1, r4, r8
 131 0076 C9B2     		uxtb	r1, r1
 132 0078 4B11     		asrs	r3, r1, #5
 133 007a 03F00203 		and	r3, r3, #2
 134 007e 43EAD112 		orr	r2, r3, r1, lsr #7
 135 0082 CB10     		asrs	r3, r1, #3
 136 0084 03F00403 		and	r3, r3, #4
 137 0088 1343     		orrs	r3, r3, r2
 138 008a 5BB2     		sxtb	r3, r3
 139 008c 4810     		asrs	r0, r1, #1
 140 008e 00F00800 		and	r0, r0, #8
 141 0092 0343     		orrs	r3, r3, r0
 142 0094 4A00     		lsls	r2, r1, #1
 143 0096 02F01002 		and	r2, r2, #16
 144 009a 42EA0300 		orr	r0, r2, r3
 145 009e CA00     		lsls	r2, r1, #3
 146 00a0 02F02003 		and	r3, r2, #32
 147 00a4 43EA0002 		orr	r2, r3, r0
 148 00a8 4B01     		lsls	r3, r1, #5
 149 00aa 03F04003 		and	r3, r3, #64
 150 00ae 1343     		orrs	r3, r3, r2
ARM GAS  /var/folders/v3/wysfpd052nz8jkbx04pk0ym80000gn/T//cc4t3AIR.s 			page 6


 151 00b0 43EAC111 		orr	r1, r3, r1, lsl #7
 152 00b4 C9B2     		uxtb	r1, r1
 153 00b6 2846     		mov	r0, r5
 154 00b8 FFF7FEFF 		bl	u8x8_cad_SendCmd
 155              	.LVL19:
 107:/Users/imashio/Electronics/ARM/_Library/u8x8_d_ls013b7dh03.c ****         u8x8_cad_SendCmd(u8x8, LS013B7DH03_VAL_TRAILER);
 156              		.loc 1 107 0 discriminator 3
 157 00bc 3246     		mov	r2, r6
 158 00be 3946     		mov	r1, r7
 159 00c0 2846     		mov	r0, r5
 160 00c2 FFF7FEFF 		bl	u8x8_cad_SendData
 161              	.LVL20:
 108:/Users/imashio/Electronics/ARM/_Library/u8x8_d_ls013b7dh03.c **** 
 162              		.loc 1 108 0 discriminator 3
 163 00c6 0021     		movs	r1, #0
 164 00c8 2846     		mov	r0, r5
 165 00ca FFF7FEFF 		bl	u8x8_cad_SendCmd
 166              	.LVL21:
 110:/Users/imashio/Electronics/ARM/_Library/u8x8_d_ls013b7dh03.c ****       }
 167              		.loc 1 110 0 discriminator 3
 168 00ce 3E44     		add	r6, r6, r7
 169              	.LVL22:
 104:/Users/imashio/Electronics/ARM/_Library/u8x8_d_ls013b7dh03.c ****       {
 170              		.loc 1 104 0 discriminator 3
 171 00d0 0134     		adds	r4, r4, #1
 172              	.LVL23:
 173 00d2 E4B2     		uxtb	r4, r4
 174              	.LVL24:
 175              	.L8:
 104:/Users/imashio/Electronics/ARM/_Library/u8x8_d_ls013b7dh03.c ****       {
 176              		.loc 1 104 0 is_stmt 0 discriminator 1
 177 00d4 072C     		cmp	r4, #7
 178 00d6 CCD9     		bls	.L9
 114:/Users/imashio/Electronics/ARM/_Library/u8x8_d_ls013b7dh03.c ****       u8x8_cad_EndTransfer(u8x8);
 179              		.loc 1 114 0 is_stmt 1
 180 00d8 0021     		movs	r1, #0
 181 00da 2846     		mov	r0, r5
 182 00dc FFF7FEFF 		bl	u8x8_cad_SendCmd
 183              	.LVL25:
 115:/Users/imashio/Electronics/ARM/_Library/u8x8_d_ls013b7dh03.c **** 
 184              		.loc 1 115 0
 185 00e0 2846     		mov	r0, r5
 186 00e2 FFF7FEFF 		bl	u8x8_cad_EndTransfer
 187              	.LVL26:
 188              		.loc 1 121 0
 189 00e6 0120     		movs	r0, #1
 117:/Users/imashio/Electronics/ARM/_Library/u8x8_d_ls013b7dh03.c ****     default:
 190              		.loc 1 117 0
 191 00e8 00E0     		b	.L6
 192              	.LVL27:
 193              	.L10:
 194              		.loc 1 121 0
 195 00ea 0120     		movs	r0, #1
 196              	.LVL28:
 197              	.L6:
 122:/Users/imashio/Electronics/ARM/_Library/u8x8_d_ls013b7dh03.c **** }
 198              		.loc 1 122 0
ARM GAS  /var/folders/v3/wysfpd052nz8jkbx04pk0ym80000gn/T//cc4t3AIR.s 			page 7


 199 00ec BDE8F081 		pop	{r4, r5, r6, r7, r8, pc}
 200              	.LVL29:
 201              	.L13:
 202              		.align	2
 203              	.L12:
 204 00f0 00000000 		.word	.LANCHOR0
 205              		.cfi_endproc
 206              	.LFE0:
 208              		.section	.rodata.u8x8_ls013b7dh03_128x128_display_info,"a",%progbits
 209              		.align	2
 210              		.set	.LANCHOR0,. + 0
 213              	u8x8_ls013b7dh03_128x128_display_info:
 214 0000 01       		.byte	1
 215 0001 00       		.byte	0
 216 0002 32       		.byte	50
 217 0003 32       		.byte	50
 218 0004 01       		.byte	1
 219 0005 06       		.byte	6
 220 0006 E3       		.byte	-29
 221 0007 FF       		.byte	-1
 222 0008 40420F00 		.word	1000000
 223 000c 02       		.byte	2
 224 000d 04       		.byte	4
 225 000e 64       		.byte	100
 226 000f 64       		.byte	100
 227 0010 10       		.byte	16
 228 0011 10       		.byte	16
 229 0012 00       		.byte	0
 230 0013 00       		.byte	0
 231 0014 8000     		.short	128
 232 0016 8000     		.short	128
 233              		.text
 234              	.Letext0:
 235              		.file 2 "/usr/local/gcc-arm-none-eabi-7-2018-q2-update/arm-none-eabi/include/machine/_default_type
 236              		.file 3 "/usr/local/gcc-arm-none-eabi-7-2018-q2-update/arm-none-eabi/include/sys/_stdint.h"
 237              		.file 4 "/Users/imashio/Electronics/ARM/_Library/u8x8.h"
ARM GAS  /var/folders/v3/wysfpd052nz8jkbx04pk0ym80000gn/T//cc4t3AIR.s 			page 8

