ARM GAS  /var/folders/v3/wysfpd052nz8jkbx04pk0ym80000gn/T//ccVdb3MZ.s 			page 1


   1              		.cpu cortex-m4
   2              		.eabi_attribute 27, 1
   3              		.eabi_attribute 28, 1
   4              		.eabi_attribute 20, 1
   5              		.eabi_attribute 21, 1
   6              		.eabi_attribute 23, 3
   7              		.eabi_attribute 24, 1
   8              		.eabi_attribute 25, 1
   9              		.eabi_attribute 26, 1
  10              		.eabi_attribute 30, 2
  11              		.eabi_attribute 34, 1
  12              		.eabi_attribute 18, 4
  13              		.file	"u8x8_d_uc1617.c"
  14              		.text
  15              	.Ltext0:
  16              		.cfi_sections	.debug_frame
  17              		.section	.text.u8x8_d_uc1617_common,"ax",%progbits
  18              		.align	1
  19              		.p2align 2,,3
  20              		.global	u8x8_d_uc1617_common
  21              		.syntax unified
  22              		.thumb
  23              		.thumb_func
  24              		.fpu fpv4-sp-d16
  26              	u8x8_d_uc1617_common:
  27              	.LFB0:
  28              		.file 1 "/Users/imashio/Electronics/ARM/_Library/u8x8_d_uc1617.c"
   1:/Users/imashio/Electronics/ARM/_Library/u8x8_d_uc1617.c **** /*
   2:/Users/imashio/Electronics/ARM/_Library/u8x8_d_uc1617.c **** 
   3:/Users/imashio/Electronics/ARM/_Library/u8x8_d_uc1617.c ****   u8x8_d_uc1617.c
   4:/Users/imashio/Electronics/ARM/_Library/u8x8_d_uc1617.c ****   
   5:/Users/imashio/Electronics/ARM/_Library/u8x8_d_uc1617.c ****   Universal 8bit Graphics Library (https://github.com/olikraus/u8g2/)
   6:/Users/imashio/Electronics/ARM/_Library/u8x8_d_uc1617.c **** 
   7:/Users/imashio/Electronics/ARM/_Library/u8x8_d_uc1617.c ****   Copyright (c) 2017, olikraus@gmail.com
   8:/Users/imashio/Electronics/ARM/_Library/u8x8_d_uc1617.c ****   All rights reserved.
   9:/Users/imashio/Electronics/ARM/_Library/u8x8_d_uc1617.c **** 
  10:/Users/imashio/Electronics/ARM/_Library/u8x8_d_uc1617.c ****   Redistribution and use in source and binary forms, with or without modification, 
  11:/Users/imashio/Electronics/ARM/_Library/u8x8_d_uc1617.c ****   are permitted provided that the following conditions are met:
  12:/Users/imashio/Electronics/ARM/_Library/u8x8_d_uc1617.c **** 
  13:/Users/imashio/Electronics/ARM/_Library/u8x8_d_uc1617.c ****   * Redistributions of source code must retain the above copyright notice, this list 
  14:/Users/imashio/Electronics/ARM/_Library/u8x8_d_uc1617.c ****     of conditions and the following disclaimer.
  15:/Users/imashio/Electronics/ARM/_Library/u8x8_d_uc1617.c ****     
  16:/Users/imashio/Electronics/ARM/_Library/u8x8_d_uc1617.c ****   * Redistributions in binary form must reproduce the above copyright notice, this 
  17:/Users/imashio/Electronics/ARM/_Library/u8x8_d_uc1617.c ****     list of conditions and the following disclaimer in the documentation and/or other 
  18:/Users/imashio/Electronics/ARM/_Library/u8x8_d_uc1617.c ****     materials provided with the distribution.
  19:/Users/imashio/Electronics/ARM/_Library/u8x8_d_uc1617.c **** 
  20:/Users/imashio/Electronics/ARM/_Library/u8x8_d_uc1617.c ****   THIS SOFTWARE IS PROVIDED BY THE COPYRIGHT HOLDERS AND 
  21:/Users/imashio/Electronics/ARM/_Library/u8x8_d_uc1617.c ****   CONTRIBUTORS "AS IS" AND ANY EXPRESS OR IMPLIED WARRANTIES, 
  22:/Users/imashio/Electronics/ARM/_Library/u8x8_d_uc1617.c ****   INCLUDING, BUT NOT LIMITED TO, THE IMPLIED WARRANTIES OF 
  23:/Users/imashio/Electronics/ARM/_Library/u8x8_d_uc1617.c ****   MERCHANTABILITY AND FITNESS FOR A PARTICULAR PURPOSE ARE 
  24:/Users/imashio/Electronics/ARM/_Library/u8x8_d_uc1617.c ****   DISCLAIMED. IN NO EVENT SHALL THE COPYRIGHT HOLDER OR 
  25:/Users/imashio/Electronics/ARM/_Library/u8x8_d_uc1617.c ****   CONTRIBUTORS BE LIABLE FOR ANY DIRECT, INDIRECT, INCIDENTAL, 
  26:/Users/imashio/Electronics/ARM/_Library/u8x8_d_uc1617.c ****   SPECIAL, EXEMPLARY, OR CONSEQUENTIAL DAMAGES (INCLUDING, BUT 
  27:/Users/imashio/Electronics/ARM/_Library/u8x8_d_uc1617.c ****   NOT LIMITED TO, PROCUREMENT OF SUBSTITUTE GOODS OR SERVICES; 
  28:/Users/imashio/Electronics/ARM/_Library/u8x8_d_uc1617.c ****   LOSS OF USE, DATA, OR PROFITS; OR BUSINESS INTERRUPTION) HOWEVER 
  29:/Users/imashio/Electronics/ARM/_Library/u8x8_d_uc1617.c ****   CAUSED AND ON ANY THEORY OF LIABILITY, WHETHER IN CONTRACT, 
  30:/Users/imashio/Electronics/ARM/_Library/u8x8_d_uc1617.c ****   STRICT LIABILITY, OR TORT (INCLUDING NEGLIGENCE OR OTHERWISE) 
ARM GAS  /var/folders/v3/wysfpd052nz8jkbx04pk0ym80000gn/T//ccVdb3MZ.s 			page 2


  31:/Users/imashio/Electronics/ARM/_Library/u8x8_d_uc1617.c ****   ARISING IN ANY WAY OUT OF THE USE OF THIS SOFTWARE, EVEN IF 
  32:/Users/imashio/Electronics/ARM/_Library/u8x8_d_uc1617.c ****   ADVISED OF THE POSSIBILITY OF SUCH DAMAGE.  
  33:/Users/imashio/Electronics/ARM/_Library/u8x8_d_uc1617.c **** 
  34:/Users/imashio/Electronics/ARM/_Library/u8x8_d_uc1617.c **** 
  35:/Users/imashio/Electronics/ARM/_Library/u8x8_d_uc1617.c **** */
  36:/Users/imashio/Electronics/ARM/_Library/u8x8_d_uc1617.c **** #include "u8x8.h"
  37:/Users/imashio/Electronics/ARM/_Library/u8x8_d_uc1617.c **** 
  38:/Users/imashio/Electronics/ARM/_Library/u8x8_d_uc1617.c **** 
  39:/Users/imashio/Electronics/ARM/_Library/u8x8_d_uc1617.c **** 
  40:/Users/imashio/Electronics/ARM/_Library/u8x8_d_uc1617.c **** 
  41:/Users/imashio/Electronics/ARM/_Library/u8x8_d_uc1617.c **** 
  42:/Users/imashio/Electronics/ARM/_Library/u8x8_d_uc1617.c **** static const uint8_t u8x8_d_uc1617_powersave0_seq[] = {
  43:/Users/imashio/Electronics/ARM/_Library/u8x8_d_uc1617.c ****   U8X8_START_TRANSFER(),             	/* enable chip, delay is part of the transfer start */
  44:/Users/imashio/Electronics/ARM/_Library/u8x8_d_uc1617.c ****   U8X8_C(0x0ad),		                /* display on */
  45:/Users/imashio/Electronics/ARM/_Library/u8x8_d_uc1617.c ****   U8X8_END_TRANSFER(),             	/* disable chip */
  46:/Users/imashio/Electronics/ARM/_Library/u8x8_d_uc1617.c ****   U8X8_END()             			/* end of sequence */
  47:/Users/imashio/Electronics/ARM/_Library/u8x8_d_uc1617.c **** };
  48:/Users/imashio/Electronics/ARM/_Library/u8x8_d_uc1617.c **** 
  49:/Users/imashio/Electronics/ARM/_Library/u8x8_d_uc1617.c **** static const uint8_t u8x8_d_uc1617_powersave1_seq[] = {
  50:/Users/imashio/Electronics/ARM/_Library/u8x8_d_uc1617.c ****   U8X8_START_TRANSFER(),             	/* enable chip, delay is part of the transfer start */
  51:/Users/imashio/Electronics/ARM/_Library/u8x8_d_uc1617.c ****   U8X8_C(0x0ac),		                /* display off, enter sleep mode */
  52:/Users/imashio/Electronics/ARM/_Library/u8x8_d_uc1617.c ****   U8X8_END_TRANSFER(),             	/* disable chip */
  53:/Users/imashio/Electronics/ARM/_Library/u8x8_d_uc1617.c ****   U8X8_END()             			/* end of sequence */
  54:/Users/imashio/Electronics/ARM/_Library/u8x8_d_uc1617.c **** };
  55:/Users/imashio/Electronics/ARM/_Library/u8x8_d_uc1617.c **** 
  56:/Users/imashio/Electronics/ARM/_Library/u8x8_d_uc1617.c **** static const uint8_t u8x8_d_uc1617_flip0_seq[] = {
  57:/Users/imashio/Electronics/ARM/_Library/u8x8_d_uc1617.c ****   U8X8_START_TRANSFER(),             	/* enable chip, delay is part of the transfer start */
  58:/Users/imashio/Electronics/ARM/_Library/u8x8_d_uc1617.c ****   U8X8_C(0x0c4),            	/* LCD Mapping */
  59:/Users/imashio/Electronics/ARM/_Library/u8x8_d_uc1617.c ****   U8X8_END_TRANSFER(),             	/* disable chip */
  60:/Users/imashio/Electronics/ARM/_Library/u8x8_d_uc1617.c ****   U8X8_END()             			/* end of sequence */
  61:/Users/imashio/Electronics/ARM/_Library/u8x8_d_uc1617.c **** };
  62:/Users/imashio/Electronics/ARM/_Library/u8x8_d_uc1617.c **** 
  63:/Users/imashio/Electronics/ARM/_Library/u8x8_d_uc1617.c **** static const uint8_t u8x8_d_uc1617_flip1_seq[] = {
  64:/Users/imashio/Electronics/ARM/_Library/u8x8_d_uc1617.c ****   U8X8_START_TRANSFER(),             	/* enable chip, delay is part of the transfer start */
  65:/Users/imashio/Electronics/ARM/_Library/u8x8_d_uc1617.c ****   U8X8_C(0x0c2),            	/* LCD Mapping */
  66:/Users/imashio/Electronics/ARM/_Library/u8x8_d_uc1617.c ****   U8X8_END_TRANSFER(),             	/* disable chip */
  67:/Users/imashio/Electronics/ARM/_Library/u8x8_d_uc1617.c ****   U8X8_END()             			/* end of sequence */
  68:/Users/imashio/Electronics/ARM/_Library/u8x8_d_uc1617.c **** };
  69:/Users/imashio/Electronics/ARM/_Library/u8x8_d_uc1617.c **** 
  70:/Users/imashio/Electronics/ARM/_Library/u8x8_d_uc1617.c **** 
  71:/Users/imashio/Electronics/ARM/_Library/u8x8_d_uc1617.c **** uint8_t u8x8_d_uc1617_common(u8x8_t *u8x8, uint8_t msg, uint8_t arg_int, void *arg_ptr)
  72:/Users/imashio/Electronics/ARM/_Library/u8x8_d_uc1617.c **** {
  29              		.loc 1 72 0
  30              		.cfi_startproc
  31              		@ args = 0, pretend = 0, frame = 0
  32              		@ frame_needed = 0, uses_anonymous_args = 0
  33              	.LVL0:
  73:/Users/imashio/Electronics/ARM/_Library/u8x8_d_uc1617.c ****   uint8_t x, y, c;
  74:/Users/imashio/Electronics/ARM/_Library/u8x8_d_uc1617.c ****   uint8_t *ptr;
  75:/Users/imashio/Electronics/ARM/_Library/u8x8_d_uc1617.c ****   switch(msg)
  34              		.loc 1 75 0
  35 0000 0B39     		subs	r1, r1, #11
  36              	.LVL1:
  72:/Users/imashio/Electronics/ARM/_Library/u8x8_d_uc1617.c ****   uint8_t x, y, c;
  37              		.loc 1 72 0
  38 0002 F8B5     		push	{r3, r4, r5, r6, r7, lr}
  39              	.LCFI0:
ARM GAS  /var/folders/v3/wysfpd052nz8jkbx04pk0ym80000gn/T//ccVdb3MZ.s 			page 3


  40              		.cfi_def_cfa_offset 24
  41              		.cfi_offset 3, -24
  42              		.cfi_offset 4, -20
  43              		.cfi_offset 5, -16
  44              		.cfi_offset 6, -12
  45              		.cfi_offset 7, -8
  46              		.cfi_offset 14, -4
  72:/Users/imashio/Electronics/ARM/_Library/u8x8_d_uc1617.c ****   uint8_t x, y, c;
  47              		.loc 1 72 0
  48 0004 0546     		mov	r5, r0
  49 0006 1446     		mov	r4, r2
  50 0008 1F46     		mov	r7, r3
  51              		.loc 1 75 0
  52 000a 0429     		cmp	r1, #4
  53 000c 55D8     		bhi	.L11
  54 000e DFE801F0 		tbb	[pc, r1]
  55              	.LVL2:
  56              	.L4:
  57 0012 45       		.byte	(.L3-.L4)/2
  58 0013 54       		.byte	(.L11-.L4)/2
  59 0014 4B       		.byte	(.L5-.L4)/2
  60 0015 36       		.byte	(.L6-.L4)/2
  61 0016 03       		.byte	(.L7-.L4)/2
  62 0017 00       		.p2align 1
  63              	.L7:
  76:/Users/imashio/Electronics/ARM/_Library/u8x8_d_uc1617.c ****   {
  77:/Users/imashio/Electronics/ARM/_Library/u8x8_d_uc1617.c ****     case U8X8_MSG_DISPLAY_DRAW_TILE:
  78:/Users/imashio/Electronics/ARM/_Library/u8x8_d_uc1617.c ****       u8x8_cad_StartTransfer(u8x8);
  64              		.loc 1 78 0
  65 0018 FFF7FEFF 		bl	u8x8_cad_StartTransfer
  66              	.LVL3:
  79:/Users/imashio/Electronics/ARM/_Library/u8x8_d_uc1617.c ****     
  80:/Users/imashio/Electronics/ARM/_Library/u8x8_d_uc1617.c ****       x = ((u8x8_tile_t *)arg_ptr)->x_pos;
  67              		.loc 1 80 0
  68 001c 7979     		ldrb	r1, [r7, #5]	@ zero_extendqisi2
  69              	.LVL4:
  81:/Users/imashio/Electronics/ARM/_Library/u8x8_d_uc1617.c ****       x *= 8;
  82:/Users/imashio/Electronics/ARM/_Library/u8x8_d_uc1617.c ****       x += u8x8->x_offset;
  70              		.loc 1 82 0
  71 001e AE7F     		ldrb	r6, [r5, #30]	@ zero_extendqisi2
  72 0020 06EBC106 		add	r6, r6, r1, lsl #3
  73 0024 06F0FF06 		and	r6, r6, #255
  74              	.LVL5:
  83:/Users/imashio/Electronics/ARM/_Library/u8x8_d_uc1617.c ****    
  84:/Users/imashio/Electronics/ARM/_Library/u8x8_d_uc1617.c ****       u8x8_cad_SendCmd(u8x8, 0x000 | ((x&15)));
  75              		.loc 1 84 0
  76 0028 06F00F01 		and	r1, r6, #15
  77 002c 2846     		mov	r0, r5
  78 002e FFF7FEFF 		bl	u8x8_cad_SendCmd
  79              	.LVL6:
  85:/Users/imashio/Electronics/ARM/_Library/u8x8_d_uc1617.c ****       u8x8_cad_SendCmd(u8x8, 0x010 | (x>>4) );
  80              		.loc 1 85 0
  81 0032 3109     		lsrs	r1, r6, #4
  82 0034 41F01001 		orr	r1, r1, #16
  83 0038 2846     		mov	r0, r5
  84 003a FFF7FEFF 		bl	u8x8_cad_SendCmd
  85              	.LVL7:
ARM GAS  /var/folders/v3/wysfpd052nz8jkbx04pk0ym80000gn/T//ccVdb3MZ.s 			page 4


  86:/Users/imashio/Electronics/ARM/_Library/u8x8_d_uc1617.c ****     
  87:/Users/imashio/Electronics/ARM/_Library/u8x8_d_uc1617.c ****       y = ((u8x8_tile_t *)arg_ptr)->y_pos;
  86              		.loc 1 87 0
  87 003e BE79     		ldrb	r6, [r7, #6]	@ zero_extendqisi2
  88              	.LVL8:
  88:/Users/imashio/Electronics/ARM/_Library/u8x8_d_uc1617.c ****       u8x8_cad_SendCmd(u8x8, 0x060 | (y&15));
  89              		.loc 1 88 0
  90 0040 06F00F01 		and	r1, r6, #15
  91 0044 41F06001 		orr	r1, r1, #96
  92 0048 2846     		mov	r0, r5
  93 004a FFF7FEFF 		bl	u8x8_cad_SendCmd
  94              	.LVL9:
  89:/Users/imashio/Electronics/ARM/_Library/u8x8_d_uc1617.c ****       u8x8_cad_SendCmd(u8x8, 0x070 | (y>>4));
  95              		.loc 1 89 0
  96 004e 3109     		lsrs	r1, r6, #4
  97 0050 41F07001 		orr	r1, r1, #112
  98 0054 2846     		mov	r0, r5
  99 0056 FFF7FEFF 		bl	u8x8_cad_SendCmd
 100              	.LVL10:
  90:/Users/imashio/Electronics/ARM/_Library/u8x8_d_uc1617.c ****     
  91:/Users/imashio/Electronics/ARM/_Library/u8x8_d_uc1617.c ****       c = ((u8x8_tile_t *)arg_ptr)->cnt;
 101              		.loc 1 91 0
 102 005a 3E79     		ldrb	r6, [r7, #4]	@ zero_extendqisi2
 103              	.LVL11:
  92:/Users/imashio/Electronics/ARM/_Library/u8x8_d_uc1617.c ****       c *= 8;
  93:/Users/imashio/Electronics/ARM/_Library/u8x8_d_uc1617.c ****       ptr = ((u8x8_tile_t *)arg_ptr)->tile_ptr;
 104              		.loc 1 93 0
 105 005c 3F68     		ldr	r7, [r7]
 106              	.LVL12:
  92:/Users/imashio/Electronics/ARM/_Library/u8x8_d_uc1617.c ****       c *= 8;
 107              		.loc 1 92 0
 108 005e F600     		lsls	r6, r6, #3
 109              	.LVL13:
 110 0060 F6B2     		uxtb	r6, r6
 111              	.LVL14:
 112              	.L8:
  94:/Users/imashio/Electronics/ARM/_Library/u8x8_d_uc1617.c ****       do
  95:/Users/imashio/Electronics/ARM/_Library/u8x8_d_uc1617.c ****       {
  96:/Users/imashio/Electronics/ARM/_Library/u8x8_d_uc1617.c **** 	u8x8_cad_SendData(u8x8, c, ptr);	/* note: SendData can not handle more than 255 bytes */
 113              		.loc 1 96 0 discriminator 1
 114 0062 3A46     		mov	r2, r7
 115 0064 3146     		mov	r1, r6
 116 0066 2846     		mov	r0, r5
  97:/Users/imashio/Electronics/ARM/_Library/u8x8_d_uc1617.c **** 	arg_int--;
 117              		.loc 1 97 0 discriminator 1
 118 0068 013C     		subs	r4, r4, #1
 119              	.LVL15:
  96:/Users/imashio/Electronics/ARM/_Library/u8x8_d_uc1617.c **** 	arg_int--;
 120              		.loc 1 96 0 discriminator 1
 121 006a FFF7FEFF 		bl	u8x8_cad_SendData
 122              	.LVL16:
  98:/Users/imashio/Electronics/ARM/_Library/u8x8_d_uc1617.c ****       } while( arg_int > 0 );
 123              		.loc 1 98 0 discriminator 1
 124 006e 14F0FF04 		ands	r4, r4, #255
 125              	.LVL17:
 126 0072 F6D1     		bne	.L8
  99:/Users/imashio/Electronics/ARM/_Library/u8x8_d_uc1617.c ****       
ARM GAS  /var/folders/v3/wysfpd052nz8jkbx04pk0ym80000gn/T//ccVdb3MZ.s 			page 5


 100:/Users/imashio/Electronics/ARM/_Library/u8x8_d_uc1617.c ****       u8x8_cad_EndTransfer(u8x8);
 101:/Users/imashio/Electronics/ARM/_Library/u8x8_d_uc1617.c ****       break;
 102:/Users/imashio/Electronics/ARM/_Library/u8x8_d_uc1617.c ****     case U8X8_MSG_DISPLAY_SET_POWER_SAVE:
 103:/Users/imashio/Electronics/ARM/_Library/u8x8_d_uc1617.c ****       if ( arg_int == 0 )
 104:/Users/imashio/Electronics/ARM/_Library/u8x8_d_uc1617.c **** 	u8x8_cad_SendSequence(u8x8, u8x8_d_uc1617_powersave0_seq);
 105:/Users/imashio/Electronics/ARM/_Library/u8x8_d_uc1617.c ****       else
 106:/Users/imashio/Electronics/ARM/_Library/u8x8_d_uc1617.c **** 	u8x8_cad_SendSequence(u8x8, u8x8_d_uc1617_powersave1_seq);
 107:/Users/imashio/Electronics/ARM/_Library/u8x8_d_uc1617.c ****       break;
 108:/Users/imashio/Electronics/ARM/_Library/u8x8_d_uc1617.c ****     case U8X8_MSG_DISPLAY_SET_FLIP_MODE:
 109:/Users/imashio/Electronics/ARM/_Library/u8x8_d_uc1617.c ****       if ( arg_int == 0 )
 110:/Users/imashio/Electronics/ARM/_Library/u8x8_d_uc1617.c ****       {
 111:/Users/imashio/Electronics/ARM/_Library/u8x8_d_uc1617.c **** 	u8x8_cad_SendSequence(u8x8, u8x8_d_uc1617_flip0_seq);
 112:/Users/imashio/Electronics/ARM/_Library/u8x8_d_uc1617.c **** 	u8x8->x_offset = u8x8->display_info->default_x_offset;
 113:/Users/imashio/Electronics/ARM/_Library/u8x8_d_uc1617.c ****       }
 114:/Users/imashio/Electronics/ARM/_Library/u8x8_d_uc1617.c ****       else
 115:/Users/imashio/Electronics/ARM/_Library/u8x8_d_uc1617.c ****       {
 116:/Users/imashio/Electronics/ARM/_Library/u8x8_d_uc1617.c **** 	u8x8_cad_SendSequence(u8x8, u8x8_d_uc1617_flip1_seq);
 117:/Users/imashio/Electronics/ARM/_Library/u8x8_d_uc1617.c **** 	u8x8->x_offset = u8x8->display_info->flipmode_x_offset;
 118:/Users/imashio/Electronics/ARM/_Library/u8x8_d_uc1617.c ****       }	
 119:/Users/imashio/Electronics/ARM/_Library/u8x8_d_uc1617.c ****       break;
 120:/Users/imashio/Electronics/ARM/_Library/u8x8_d_uc1617.c **** #ifdef U8X8_WITH_SET_CONTRAST
 121:/Users/imashio/Electronics/ARM/_Library/u8x8_d_uc1617.c ****     case U8X8_MSG_DISPLAY_SET_CONTRAST:
 122:/Users/imashio/Electronics/ARM/_Library/u8x8_d_uc1617.c ****       u8x8_cad_StartTransfer(u8x8);
 123:/Users/imashio/Electronics/ARM/_Library/u8x8_d_uc1617.c ****       u8x8_cad_SendCmd(u8x8, 0x081 );
 124:/Users/imashio/Electronics/ARM/_Library/u8x8_d_uc1617.c ****       u8x8_cad_SendArg(u8x8, arg_int  );	/* uc1617 has range from 0 to 255 */
 125:/Users/imashio/Electronics/ARM/_Library/u8x8_d_uc1617.c ****       u8x8_cad_EndTransfer(u8x8);
 127              		.loc 1 125 0
 128 0074 2846     		mov	r0, r5
 129 0076 FFF7FEFF 		bl	u8x8_cad_EndTransfer
 130              	.LVL18:
 126:/Users/imashio/Electronics/ARM/_Library/u8x8_d_uc1617.c ****       break;
 127:/Users/imashio/Electronics/ARM/_Library/u8x8_d_uc1617.c **** #endif
 128:/Users/imashio/Electronics/ARM/_Library/u8x8_d_uc1617.c ****     default:
 129:/Users/imashio/Electronics/ARM/_Library/u8x8_d_uc1617.c ****       return 0;
 130:/Users/imashio/Electronics/ARM/_Library/u8x8_d_uc1617.c ****   }
 131:/Users/imashio/Electronics/ARM/_Library/u8x8_d_uc1617.c ****   return 1;
 131              		.loc 1 131 0
 132 007a 0120     		movs	r0, #1
 132:/Users/imashio/Electronics/ARM/_Library/u8x8_d_uc1617.c **** }
 133              		.loc 1 132 0
 134 007c F8BD     		pop	{r3, r4, r5, r6, r7, pc}
 135              	.LVL19:
 136              	.L6:
 122:/Users/imashio/Electronics/ARM/_Library/u8x8_d_uc1617.c ****       u8x8_cad_SendCmd(u8x8, 0x081 );
 137              		.loc 1 122 0
 138 007e FFF7FEFF 		bl	u8x8_cad_StartTransfer
 139              	.LVL20:
 123:/Users/imashio/Electronics/ARM/_Library/u8x8_d_uc1617.c ****       u8x8_cad_SendArg(u8x8, arg_int  );	/* uc1617 has range from 0 to 255 */
 140              		.loc 1 123 0
 141 0082 8121     		movs	r1, #129
 142 0084 2846     		mov	r0, r5
 143 0086 FFF7FEFF 		bl	u8x8_cad_SendCmd
 144              	.LVL21:
 124:/Users/imashio/Electronics/ARM/_Library/u8x8_d_uc1617.c ****       u8x8_cad_EndTransfer(u8x8);
 145              		.loc 1 124 0
 146 008a 2146     		mov	r1, r4
 147 008c 2846     		mov	r0, r5
ARM GAS  /var/folders/v3/wysfpd052nz8jkbx04pk0ym80000gn/T//ccVdb3MZ.s 			page 6


 148 008e FFF7FEFF 		bl	u8x8_cad_SendArg
 149              	.LVL22:
 125:/Users/imashio/Electronics/ARM/_Library/u8x8_d_uc1617.c ****       break;
 150              		.loc 1 125 0
 151 0092 2846     		mov	r0, r5
 152 0094 FFF7FEFF 		bl	u8x8_cad_EndTransfer
 153              	.LVL23:
 131:/Users/imashio/Electronics/ARM/_Library/u8x8_d_uc1617.c **** }
 154              		.loc 1 131 0
 155 0098 0120     		movs	r0, #1
 156              		.loc 1 132 0
 157 009a F8BD     		pop	{r3, r4, r5, r6, r7, pc}
 158              	.LVL24:
 159              	.L3:
 103:/Users/imashio/Electronics/ARM/_Library/u8x8_d_uc1617.c **** 	u8x8_cad_SendSequence(u8x8, u8x8_d_uc1617_powersave0_seq);
 160              		.loc 1 103 0
 161 009c BAB9     		cbnz	r2, .L9
 104:/Users/imashio/Electronics/ARM/_Library/u8x8_d_uc1617.c ****       else
 162              		.loc 1 104 0
 163 009e 0E49     		ldr	r1, .L16
 164 00a0 FFF7FEFF 		bl	u8x8_cad_SendSequence
 165              	.LVL25:
 131:/Users/imashio/Electronics/ARM/_Library/u8x8_d_uc1617.c **** }
 166              		.loc 1 131 0
 167 00a4 0120     		movs	r0, #1
 168              		.loc 1 132 0
 169 00a6 F8BD     		pop	{r3, r4, r5, r6, r7, pc}
 170              	.LVL26:
 171              	.L5:
 109:/Users/imashio/Electronics/ARM/_Library/u8x8_d_uc1617.c ****       {
 172              		.loc 1 109 0
 173 00a8 4AB9     		cbnz	r2, .L10
 111:/Users/imashio/Electronics/ARM/_Library/u8x8_d_uc1617.c **** 	u8x8->x_offset = u8x8->display_info->default_x_offset;
 174              		.loc 1 111 0
 175 00aa 0C49     		ldr	r1, .L16+4
 176 00ac FFF7FEFF 		bl	u8x8_cad_SendSequence
 177              	.LVL27:
 112:/Users/imashio/Electronics/ARM/_Library/u8x8_d_uc1617.c ****       }
 178              		.loc 1 112 0
 179 00b0 2B68     		ldr	r3, [r5]
 180 00b2 9B7C     		ldrb	r3, [r3, #18]	@ zero_extendqisi2
 181 00b4 AB77     		strb	r3, [r5, #30]
 131:/Users/imashio/Electronics/ARM/_Library/u8x8_d_uc1617.c **** }
 182              		.loc 1 131 0
 183 00b6 0120     		movs	r0, #1
 184              		.loc 1 132 0
 185 00b8 F8BD     		pop	{r3, r4, r5, r6, r7, pc}
 186              	.LVL28:
 187              	.L11:
 129:/Users/imashio/Electronics/ARM/_Library/u8x8_d_uc1617.c ****   }
 188              		.loc 1 129 0
 189 00ba 0020     		movs	r0, #0
 190              	.LVL29:
 191              		.loc 1 132 0
 192 00bc F8BD     		pop	{r3, r4, r5, r6, r7, pc}
 193              	.LVL30:
 194              	.L10:
ARM GAS  /var/folders/v3/wysfpd052nz8jkbx04pk0ym80000gn/T//ccVdb3MZ.s 			page 7


 116:/Users/imashio/Electronics/ARM/_Library/u8x8_d_uc1617.c **** 	u8x8->x_offset = u8x8->display_info->flipmode_x_offset;
 195              		.loc 1 116 0
 196 00be 0849     		ldr	r1, .L16+8
 197 00c0 FFF7FEFF 		bl	u8x8_cad_SendSequence
 198              	.LVL31:
 117:/Users/imashio/Electronics/ARM/_Library/u8x8_d_uc1617.c ****       }	
 199              		.loc 1 117 0
 200 00c4 2B68     		ldr	r3, [r5]
 201 00c6 DB7C     		ldrb	r3, [r3, #19]	@ zero_extendqisi2
 202 00c8 AB77     		strb	r3, [r5, #30]
 131:/Users/imashio/Electronics/ARM/_Library/u8x8_d_uc1617.c **** }
 203              		.loc 1 131 0
 204 00ca 0120     		movs	r0, #1
 205              		.loc 1 132 0
 206 00cc F8BD     		pop	{r3, r4, r5, r6, r7, pc}
 207              	.LVL32:
 208              	.L9:
 106:/Users/imashio/Electronics/ARM/_Library/u8x8_d_uc1617.c ****       break;
 209              		.loc 1 106 0
 210 00ce 0549     		ldr	r1, .L16+12
 211 00d0 FFF7FEFF 		bl	u8x8_cad_SendSequence
 212              	.LVL33:
 131:/Users/imashio/Electronics/ARM/_Library/u8x8_d_uc1617.c **** }
 213              		.loc 1 131 0
 214 00d4 0120     		movs	r0, #1
 215              		.loc 1 132 0
 216 00d6 F8BD     		pop	{r3, r4, r5, r6, r7, pc}
 217              	.LVL34:
 218              	.L17:
 219              		.align	2
 220              	.L16:
 221 00d8 00000000 		.word	.LANCHOR0
 222 00dc 00000000 		.word	.LANCHOR2
 223 00e0 00000000 		.word	.LANCHOR3
 224 00e4 00000000 		.word	.LANCHOR1
 225              		.cfi_endproc
 226              	.LFE0:
 228              		.section	.text.u8x8_d_uc1617_jlx128128,"ax",%progbits
 229              		.align	1
 230              		.p2align 2,,3
 231              		.global	u8x8_d_uc1617_jlx128128
 232              		.syntax unified
 233              		.thumb
 234              		.thumb_func
 235              		.fpu fpv4-sp-d16
 237              	u8x8_d_uc1617_jlx128128:
 238              	.LFB1:
 133:/Users/imashio/Electronics/ARM/_Library/u8x8_d_uc1617.c **** 
 134:/Users/imashio/Electronics/ARM/_Library/u8x8_d_uc1617.c **** /*================================================*/
 135:/Users/imashio/Electronics/ARM/_Library/u8x8_d_uc1617.c **** /* JLX128128 */
 136:/Users/imashio/Electronics/ARM/_Library/u8x8_d_uc1617.c **** 
 137:/Users/imashio/Electronics/ARM/_Library/u8x8_d_uc1617.c **** static const uint8_t u8x8_d_uc1617_jlx128128_init_seq[] = {
 138:/Users/imashio/Electronics/ARM/_Library/u8x8_d_uc1617.c ****     
 139:/Users/imashio/Electronics/ARM/_Library/u8x8_d_uc1617.c ****   U8X8_START_TRANSFER(),             	/* enable chip, delay is part of the transfer start */
 140:/Users/imashio/Electronics/ARM/_Library/u8x8_d_uc1617.c ****   
 141:/Users/imashio/Electronics/ARM/_Library/u8x8_d_uc1617.c ****   U8X8_C(0x0e2),            			/* reset */
 142:/Users/imashio/Electronics/ARM/_Library/u8x8_d_uc1617.c ****   U8X8_DLY(10),
ARM GAS  /var/folders/v3/wysfpd052nz8jkbx04pk0ym80000gn/T//ccVdb3MZ.s 			page 8


 143:/Users/imashio/Electronics/ARM/_Library/u8x8_d_uc1617.c ****   
 144:/Users/imashio/Electronics/ARM/_Library/u8x8_d_uc1617.c ****   //U8X8_D1(0x0ff),
 145:/Users/imashio/Electronics/ARM/_Library/u8x8_d_uc1617.c ****   U8X8_C(0x027),            			/* temperature compensation */
 146:/Users/imashio/Electronics/ARM/_Library/u8x8_d_uc1617.c ****   U8X8_C(0x02b),            			/* panel loading: 13-18nF */
 147:/Users/imashio/Electronics/ARM/_Library/u8x8_d_uc1617.c ****   
 148:/Users/imashio/Electronics/ARM/_Library/u8x8_d_uc1617.c ****   U8X8_C(0x02f),            			/* internal pump control */
 149:/Users/imashio/Electronics/ARM/_Library/u8x8_d_uc1617.c ****   U8X8_C(0x0eb),            			/* bias=1/11 */
 150:/Users/imashio/Electronics/ARM/_Library/u8x8_d_uc1617.c ****   U8X8_CA(0x081, 0x066),		/* set contrast */
 151:/Users/imashio/Electronics/ARM/_Library/u8x8_d_uc1617.c ****   //U8X8_C(0x0a9),            			/* used in display datasheet, but cmd not described in controller 
 152:/Users/imashio/Electronics/ARM/_Library/u8x8_d_uc1617.c ****   
 153:/Users/imashio/Electronics/ARM/_Library/u8x8_d_uc1617.c ****   U8X8_CA(0x0f1, 0x07f),			/* set COM end */
 154:/Users/imashio/Electronics/ARM/_Library/u8x8_d_uc1617.c ****   U8X8_CA(0x0f2, 0x000),		/* display line start */
 155:/Users/imashio/Electronics/ARM/_Library/u8x8_d_uc1617.c ****   U8X8_CA(0x0f3, 127),			/* display line end */
 156:/Users/imashio/Electronics/ARM/_Library/u8x8_d_uc1617.c ****   U8X8_C(0x0a3),            			/* line rate */
 157:/Users/imashio/Electronics/ARM/_Library/u8x8_d_uc1617.c ****   
 158:/Users/imashio/Electronics/ARM/_Library/u8x8_d_uc1617.c ****   U8X8_C(0x0d3),            			/* */
 159:/Users/imashio/Electronics/ARM/_Library/u8x8_d_uc1617.c ****   U8X8_C(0x0d7),            			/* */
 160:/Users/imashio/Electronics/ARM/_Library/u8x8_d_uc1617.c ****   
 161:/Users/imashio/Electronics/ARM/_Library/u8x8_d_uc1617.c ****   U8X8_C(0x0ad),            			/* display enable BW Mode*/
 162:/Users/imashio/Electronics/ARM/_Library/u8x8_d_uc1617.c ****   //U8X8_C(0x0af),            			/* display enable GS Mode*/
 163:/Users/imashio/Electronics/ARM/_Library/u8x8_d_uc1617.c **** 
 164:/Users/imashio/Electronics/ARM/_Library/u8x8_d_uc1617.c ****   //U8X8_C(0x0a5),            			/* all pixel on */
 165:/Users/imashio/Electronics/ARM/_Library/u8x8_d_uc1617.c **** 
 166:/Users/imashio/Electronics/ARM/_Library/u8x8_d_uc1617.c ****   //U8X8_C(0x0d1),            			/* display pattern */  
 167:/Users/imashio/Electronics/ARM/_Library/u8x8_d_uc1617.c ****   U8X8_C(0x089),            			/* auto increment */
 168:/Users/imashio/Electronics/ARM/_Library/u8x8_d_uc1617.c ****   U8X8_C(0x0c4),            	/* LCD Mapping */
 169:/Users/imashio/Electronics/ARM/_Library/u8x8_d_uc1617.c ****   U8X8_C(0x000),		                /* column  */
 170:/Users/imashio/Electronics/ARM/_Library/u8x8_d_uc1617.c ****   U8X8_C(0x060),		                /* page adr low */
 171:/Users/imashio/Electronics/ARM/_Library/u8x8_d_uc1617.c ****   U8X8_C(0x070),		                /* page adr high */
 172:/Users/imashio/Electronics/ARM/_Library/u8x8_d_uc1617.c **** 
 173:/Users/imashio/Electronics/ARM/_Library/u8x8_d_uc1617.c ****   U8X8_D1(0x0ff),
 174:/Users/imashio/Electronics/ARM/_Library/u8x8_d_uc1617.c ****   U8X8_D1(0x0ff),
 175:/Users/imashio/Electronics/ARM/_Library/u8x8_d_uc1617.c ****   U8X8_D1(0x0ff),
 176:/Users/imashio/Electronics/ARM/_Library/u8x8_d_uc1617.c ****   U8X8_D1(0x0ff),
 177:/Users/imashio/Electronics/ARM/_Library/u8x8_d_uc1617.c ****   U8X8_D1(0x0ff),
 178:/Users/imashio/Electronics/ARM/_Library/u8x8_d_uc1617.c ****   U8X8_D1(0x0ff),
 179:/Users/imashio/Electronics/ARM/_Library/u8x8_d_uc1617.c ****   U8X8_D1(0x0ff),
 180:/Users/imashio/Electronics/ARM/_Library/u8x8_d_uc1617.c ****   U8X8_D1(0x0ff),
 181:/Users/imashio/Electronics/ARM/_Library/u8x8_d_uc1617.c **** 
 182:/Users/imashio/Electronics/ARM/_Library/u8x8_d_uc1617.c ****   U8X8_D1(0x0ff),
 183:/Users/imashio/Electronics/ARM/_Library/u8x8_d_uc1617.c ****   U8X8_D1(0x0ff),
 184:/Users/imashio/Electronics/ARM/_Library/u8x8_d_uc1617.c ****   U8X8_D1(0x0ff),
 185:/Users/imashio/Electronics/ARM/_Library/u8x8_d_uc1617.c ****   U8X8_D1(0x0ff),
 186:/Users/imashio/Electronics/ARM/_Library/u8x8_d_uc1617.c ****   U8X8_D1(0x0ff),
 187:/Users/imashio/Electronics/ARM/_Library/u8x8_d_uc1617.c ****   U8X8_D1(0x0ff),
 188:/Users/imashio/Electronics/ARM/_Library/u8x8_d_uc1617.c ****   U8X8_D1(0x0ff),
 189:/Users/imashio/Electronics/ARM/_Library/u8x8_d_uc1617.c ****   U8X8_D1(0x0ff),
 190:/Users/imashio/Electronics/ARM/_Library/u8x8_d_uc1617.c ****   
 191:/Users/imashio/Electronics/ARM/_Library/u8x8_d_uc1617.c ****   U8X8_END_TRANSFER(),             	/* disable chip */
 192:/Users/imashio/Electronics/ARM/_Library/u8x8_d_uc1617.c ****   U8X8_END()             			/* end of sequence */
 193:/Users/imashio/Electronics/ARM/_Library/u8x8_d_uc1617.c **** };
 194:/Users/imashio/Electronics/ARM/_Library/u8x8_d_uc1617.c **** 
 195:/Users/imashio/Electronics/ARM/_Library/u8x8_d_uc1617.c **** static const u8x8_display_info_t u8x8_uc1617_128x128_display_info =
 196:/Users/imashio/Electronics/ARM/_Library/u8x8_d_uc1617.c **** {
 197:/Users/imashio/Electronics/ARM/_Library/u8x8_d_uc1617.c ****   /* chip_enable_level = */ 0,
 198:/Users/imashio/Electronics/ARM/_Library/u8x8_d_uc1617.c ****   /* chip_disable_level = */ 1,
 199:/Users/imashio/Electronics/ARM/_Library/u8x8_d_uc1617.c ****   
ARM GAS  /var/folders/v3/wysfpd052nz8jkbx04pk0ym80000gn/T//ccVdb3MZ.s 			page 9


 200:/Users/imashio/Electronics/ARM/_Library/u8x8_d_uc1617.c ****   /* post_chip_enable_wait_ns = */ 10,	/* uc1617 datasheet, page 54, actually 5 */
 201:/Users/imashio/Electronics/ARM/_Library/u8x8_d_uc1617.c ****   /* pre_chip_disable_wait_ns = */ 10,	/* uc1617 datasheet, page 54, actually 5 */
 202:/Users/imashio/Electronics/ARM/_Library/u8x8_d_uc1617.c ****   /* reset_pulse_width_ms = */ 10, 
 203:/Users/imashio/Electronics/ARM/_Library/u8x8_d_uc1617.c ****   /* post_reset_wait_ms = */ 20, 	/* uc1617 datasheet, page 56 */
 204:/Users/imashio/Electronics/ARM/_Library/u8x8_d_uc1617.c ****   /* sda_setup_time_ns = */ 24,		/* uc1617 datasheet, page 54 */
 205:/Users/imashio/Electronics/ARM/_Library/u8x8_d_uc1617.c ****   /* sck_pulse_width_ns = */ 45,	/* half of cycle time  uc1617 datasheet, page 54*/
 206:/Users/imashio/Electronics/ARM/_Library/u8x8_d_uc1617.c ****   /* sck_clock_hz = */ 8000000UL,	/* since Arduino 1.6.0, the SPI bus speed in Hz. Should be  10000
 207:/Users/imashio/Electronics/ARM/_Library/u8x8_d_uc1617.c ****   /* spi_mode = */ 0,		/* active high, rising edge */
 208:/Users/imashio/Electronics/ARM/_Library/u8x8_d_uc1617.c ****   /* i2c_bus_clock_100kHz = */ 4,
 209:/Users/imashio/Electronics/ARM/_Library/u8x8_d_uc1617.c ****   /* data_setup_time_ns = */ 30,	/* uc1617 datasheet, page 52 */
 210:/Users/imashio/Electronics/ARM/_Library/u8x8_d_uc1617.c ****   /* write_pulse_width_ns = */ 65,	/* uc1617 datasheet, page 52 */
 211:/Users/imashio/Electronics/ARM/_Library/u8x8_d_uc1617.c ****   /* tile_width = */ 16,		/* width of 16*8=128 pixel */
 212:/Users/imashio/Electronics/ARM/_Library/u8x8_d_uc1617.c ****   /* tile_hight = */ 16,
 213:/Users/imashio/Electronics/ARM/_Library/u8x8_d_uc1617.c ****   /* default_x_offset = */ 0,
 214:/Users/imashio/Electronics/ARM/_Library/u8x8_d_uc1617.c ****   /* flipmode_x_offset = */ 0,
 215:/Users/imashio/Electronics/ARM/_Library/u8x8_d_uc1617.c ****   /* pixel_width = */ 128,
 216:/Users/imashio/Electronics/ARM/_Library/u8x8_d_uc1617.c ****   /* pixel_height = */ 128
 217:/Users/imashio/Electronics/ARM/_Library/u8x8_d_uc1617.c **** };
 218:/Users/imashio/Electronics/ARM/_Library/u8x8_d_uc1617.c **** 
 219:/Users/imashio/Electronics/ARM/_Library/u8x8_d_uc1617.c **** uint8_t u8x8_d_uc1617_jlx128128(u8x8_t *u8x8, uint8_t msg, uint8_t arg_int, void *arg_ptr)
 220:/Users/imashio/Electronics/ARM/_Library/u8x8_d_uc1617.c **** {
 239              		.loc 1 220 0
 240              		.cfi_startproc
 241              		@ args = 0, pretend = 0, frame = 0
 242              		@ frame_needed = 0, uses_anonymous_args = 0
 243              	.LVL35:
 244 0000 38B5     		push	{r3, r4, r5, lr}
 245              	.LCFI1:
 246              		.cfi_def_cfa_offset 16
 247              		.cfi_offset 3, -16
 248              		.cfi_offset 4, -12
 249              		.cfi_offset 5, -8
 250              		.cfi_offset 14, -4
 251              		.loc 1 220 0
 252 0002 0446     		mov	r4, r0
 253 0004 0D46     		mov	r5, r1
 221:/Users/imashio/Electronics/ARM/_Library/u8x8_d_uc1617.c ****   /* call common procedure first and handle messages there */
 222:/Users/imashio/Electronics/ARM/_Library/u8x8_d_uc1617.c ****   if ( u8x8_d_uc1617_common(u8x8, msg, arg_int, arg_ptr) == 0 )
 254              		.loc 1 222 0
 255 0006 FFF7FEFF 		bl	u8x8_d_uc1617_common
 256              	.LVL36:
 257 000a 58B9     		cbnz	r0, .L23
 223:/Users/imashio/Electronics/ARM/_Library/u8x8_d_uc1617.c ****   {
 224:/Users/imashio/Electronics/ARM/_Library/u8x8_d_uc1617.c ****     /* msg not handled, then try here */
 225:/Users/imashio/Electronics/ARM/_Library/u8x8_d_uc1617.c ****     switch(msg)
 258              		.loc 1 225 0
 259 000c 092D     		cmp	r5, #9
 260 000e 0BD0     		beq	.L20
 261 0010 0A2D     		cmp	r5, #10
 262 0012 08D1     		bne	.L19
 226:/Users/imashio/Electronics/ARM/_Library/u8x8_d_uc1617.c ****     {
 227:/Users/imashio/Electronics/ARM/_Library/u8x8_d_uc1617.c ****       case U8X8_MSG_DISPLAY_SETUP_MEMORY:
 228:/Users/imashio/Electronics/ARM/_Library/u8x8_d_uc1617.c **** 	u8x8_d_helper_display_setup_memory(u8x8, &u8x8_uc1617_128x128_display_info);
 229:/Users/imashio/Electronics/ARM/_Library/u8x8_d_uc1617.c **** 	break;
 230:/Users/imashio/Electronics/ARM/_Library/u8x8_d_uc1617.c ****       case U8X8_MSG_DISPLAY_INIT:
 231:/Users/imashio/Electronics/ARM/_Library/u8x8_d_uc1617.c **** 	u8x8_d_helper_display_init(u8x8);
 263              		.loc 1 231 0
ARM GAS  /var/folders/v3/wysfpd052nz8jkbx04pk0ym80000gn/T//ccVdb3MZ.s 			page 10


 264 0014 2046     		mov	r0, r4
 265 0016 FFF7FEFF 		bl	u8x8_d_helper_display_init
 266              	.LVL37:
 232:/Users/imashio/Electronics/ARM/_Library/u8x8_d_uc1617.c **** 	u8x8_cad_SendSequence(u8x8, u8x8_d_uc1617_jlx128128_init_seq);
 267              		.loc 1 232 0
 268 001a 2046     		mov	r0, r4
 269 001c 0549     		ldr	r1, .L25
 270 001e FFF7FEFF 		bl	u8x8_cad_SendSequence
 271              	.LVL38:
 272              	.L22:
 273 0022 FEE7     		b	.L22
 274              	.L23:
 233:/Users/imashio/Electronics/ARM/_Library/u8x8_d_uc1617.c **** 	for(;;)
 234:/Users/imashio/Electronics/ARM/_Library/u8x8_d_uc1617.c **** 	  ;
 235:/Users/imashio/Electronics/ARM/_Library/u8x8_d_uc1617.c **** 	break;
 236:/Users/imashio/Electronics/ARM/_Library/u8x8_d_uc1617.c ****       default:
 237:/Users/imashio/Electronics/ARM/_Library/u8x8_d_uc1617.c **** 	return 0;		/* msg unknown */
 238:/Users/imashio/Electronics/ARM/_Library/u8x8_d_uc1617.c ****     }
 239:/Users/imashio/Electronics/ARM/_Library/u8x8_d_uc1617.c ****   }
 240:/Users/imashio/Electronics/ARM/_Library/u8x8_d_uc1617.c ****   return 1;
 275              		.loc 1 240 0
 276 0024 0120     		movs	r0, #1
 277              	.L19:
 241:/Users/imashio/Electronics/ARM/_Library/u8x8_d_uc1617.c **** }
 278              		.loc 1 241 0
 279 0026 38BD     		pop	{r3, r4, r5, pc}
 280              	.LVL39:
 281              	.L20:
 228:/Users/imashio/Electronics/ARM/_Library/u8x8_d_uc1617.c **** 	break;
 282              		.loc 1 228 0
 283 0028 2046     		mov	r0, r4
 284 002a 0349     		ldr	r1, .L25+4
 285 002c FFF7FEFF 		bl	u8x8_d_helper_display_setup_memory
 286              	.LVL40:
 240:/Users/imashio/Electronics/ARM/_Library/u8x8_d_uc1617.c **** }
 287              		.loc 1 240 0
 288 0030 0120     		movs	r0, #1
 289              		.loc 1 241 0
 290 0032 38BD     		pop	{r3, r4, r5, pc}
 291              	.LVL41:
 292              	.L26:
 293              		.align	2
 294              	.L25:
 295 0034 00000000 		.word	.LANCHOR5
 296 0038 00000000 		.word	.LANCHOR4
 297              		.cfi_endproc
 298              	.LFE1:
 300              		.section	.rodata.u8x8_d_uc1617_flip0_seq,"a",%progbits
 301              		.align	2
 302              		.set	.LANCHOR2,. + 0
 305              	u8x8_d_uc1617_flip0_seq:
 306 0000 18       		.byte	24
 307 0001 15       		.byte	21
 308 0002 C4       		.byte	-60
 309 0003 19       		.byte	25
 310 0004 FF       		.byte	-1
 311              		.section	.rodata.u8x8_d_uc1617_flip1_seq,"a",%progbits
ARM GAS  /var/folders/v3/wysfpd052nz8jkbx04pk0ym80000gn/T//ccVdb3MZ.s 			page 11


 312              		.align	2
 313              		.set	.LANCHOR3,. + 0
 316              	u8x8_d_uc1617_flip1_seq:
 317 0000 18       		.byte	24
 318 0001 15       		.byte	21
 319 0002 C2       		.byte	-62
 320 0003 19       		.byte	25
 321 0004 FF       		.byte	-1
 322              		.section	.rodata.u8x8_d_uc1617_jlx128128_init_seq,"a",%progbits
 323              		.align	2
 324              		.set	.LANCHOR5,. + 0
 327              	u8x8_d_uc1617_jlx128128_init_seq:
 328 0000 18       		.byte	24
 329 0001 15       		.byte	21
 330 0002 E2       		.byte	-30
 331 0003 FE       		.byte	-2
 332 0004 0A       		.byte	10
 333 0005 15       		.byte	21
 334 0006 27       		.byte	39
 335 0007 15       		.byte	21
 336 0008 2B       		.byte	43
 337 0009 15       		.byte	21
 338 000a 2F       		.byte	47
 339 000b 15       		.byte	21
 340 000c EB       		.byte	-21
 341 000d 15       		.byte	21
 342 000e 81       		.byte	-127
 343 000f 16       		.byte	22
 344 0010 66       		.byte	102
 345 0011 15       		.byte	21
 346 0012 F1       		.byte	-15
 347 0013 16       		.byte	22
 348 0014 7F       		.byte	127
 349 0015 15       		.byte	21
 350 0016 F2       		.byte	-14
 351 0017 16       		.byte	22
 352 0018 00       		.byte	0
 353 0019 15       		.byte	21
 354 001a F3       		.byte	-13
 355 001b 16       		.byte	22
 356 001c 7F       		.byte	127
 357 001d 15       		.byte	21
 358 001e A3       		.byte	-93
 359 001f 15       		.byte	21
 360 0020 D3       		.byte	-45
 361 0021 15       		.byte	21
 362 0022 D7       		.byte	-41
 363 0023 15       		.byte	21
 364 0024 AD       		.byte	-83
 365 0025 15       		.byte	21
 366 0026 89       		.byte	-119
 367 0027 15       		.byte	21
 368 0028 C4       		.byte	-60
 369 0029 15       		.byte	21
 370 002a 00       		.byte	0
 371 002b 15       		.byte	21
 372 002c 60       		.byte	96
ARM GAS  /var/folders/v3/wysfpd052nz8jkbx04pk0ym80000gn/T//ccVdb3MZ.s 			page 12


 373 002d 15       		.byte	21
 374 002e 70       		.byte	112
 375 002f 17       		.byte	23
 376 0030 FF       		.byte	-1
 377 0031 17       		.byte	23
 378 0032 FF       		.byte	-1
 379 0033 17       		.byte	23
 380 0034 FF       		.byte	-1
 381 0035 17       		.byte	23
 382 0036 FF       		.byte	-1
 383 0037 17       		.byte	23
 384 0038 FF       		.byte	-1
 385 0039 17       		.byte	23
 386 003a FF       		.byte	-1
 387 003b 17       		.byte	23
 388 003c FF       		.byte	-1
 389 003d 17       		.byte	23
 390 003e FF       		.byte	-1
 391 003f 17       		.byte	23
 392 0040 FF       		.byte	-1
 393 0041 17       		.byte	23
 394 0042 FF       		.byte	-1
 395 0043 17       		.byte	23
 396 0044 FF       		.byte	-1
 397 0045 17       		.byte	23
 398 0046 FF       		.byte	-1
 399 0047 17       		.byte	23
 400 0048 FF       		.byte	-1
 401 0049 17       		.byte	23
 402 004a FF       		.byte	-1
 403 004b 17       		.byte	23
 404 004c FF       		.byte	-1
 405 004d 17       		.byte	23
 406 004e FF       		.byte	-1
 407 004f 19       		.byte	25
 408 0050 FF       		.byte	-1
 409              		.section	.rodata.u8x8_d_uc1617_powersave0_seq,"a",%progbits
 410              		.align	2
 411              		.set	.LANCHOR0,. + 0
 414              	u8x8_d_uc1617_powersave0_seq:
 415 0000 18       		.byte	24
 416 0001 15       		.byte	21
 417 0002 AD       		.byte	-83
 418 0003 19       		.byte	25
 419 0004 FF       		.byte	-1
 420              		.section	.rodata.u8x8_d_uc1617_powersave1_seq,"a",%progbits
 421              		.align	2
 422              		.set	.LANCHOR1,. + 0
 425              	u8x8_d_uc1617_powersave1_seq:
 426 0000 18       		.byte	24
 427 0001 15       		.byte	21
 428 0002 AC       		.byte	-84
 429 0003 19       		.byte	25
 430 0004 FF       		.byte	-1
 431              		.section	.rodata.u8x8_uc1617_128x128_display_info,"a",%progbits
 432              		.align	2
 433              		.set	.LANCHOR4,. + 0
ARM GAS  /var/folders/v3/wysfpd052nz8jkbx04pk0ym80000gn/T//ccVdb3MZ.s 			page 13


 436              	u8x8_uc1617_128x128_display_info:
 437 0000 00       		.byte	0
 438 0001 01       		.byte	1
 439 0002 0A       		.byte	10
 440 0003 0A       		.byte	10
 441 0004 0A       		.byte	10
 442 0005 14       		.byte	20
 443 0006 18       		.byte	24
 444 0007 2D       		.byte	45
 445 0008 00127A00 		.word	8000000
 446 000c 00       		.byte	0
 447 000d 04       		.byte	4
 448 000e 1E       		.byte	30
 449 000f 41       		.byte	65
 450 0010 10       		.byte	16
 451 0011 10       		.byte	16
 452 0012 00       		.byte	0
 453 0013 00       		.byte	0
 454 0014 8000     		.short	128
 455 0016 8000     		.short	128
 456              		.text
 457              	.Letext0:
 458              		.file 2 "/usr/local/gcc-arm-none-eabi-7-2018-q2-update/arm-none-eabi/include/machine/_default_type
 459              		.file 3 "/usr/local/gcc-arm-none-eabi-7-2018-q2-update/arm-none-eabi/include/sys/_stdint.h"
 460              		.file 4 "/Users/imashio/Electronics/ARM/_Library/u8x8.h"
ARM GAS  /var/folders/v3/wysfpd052nz8jkbx04pk0ym80000gn/T//ccVdb3MZ.s 			page 14


DEFINED SYMBOLS
                            *ABS*:0000000000000000 u8x8_d_uc1617.c
/var/folders/v3/wysfpd052nz8jkbx04pk0ym80000gn/T//ccVdb3MZ.s:18     .text.u8x8_d_uc1617_common:0000000000000000 $t
/var/folders/v3/wysfpd052nz8jkbx04pk0ym80000gn/T//ccVdb3MZ.s:26     .text.u8x8_d_uc1617_common:0000000000000000 u8x8_d_uc1617_common
/var/folders/v3/wysfpd052nz8jkbx04pk0ym80000gn/T//ccVdb3MZ.s:57     .text.u8x8_d_uc1617_common:0000000000000012 $d
/var/folders/v3/wysfpd052nz8jkbx04pk0ym80000gn/T//ccVdb3MZ.s:221    .text.u8x8_d_uc1617_common:00000000000000d8 $d
/var/folders/v3/wysfpd052nz8jkbx04pk0ym80000gn/T//ccVdb3MZ.s:229    .text.u8x8_d_uc1617_jlx128128:0000000000000000 $t
/var/folders/v3/wysfpd052nz8jkbx04pk0ym80000gn/T//ccVdb3MZ.s:237    .text.u8x8_d_uc1617_jlx128128:0000000000000000 u8x8_d_uc1617_jlx128128
/var/folders/v3/wysfpd052nz8jkbx04pk0ym80000gn/T//ccVdb3MZ.s:295    .text.u8x8_d_uc1617_jlx128128:0000000000000034 $d
/var/folders/v3/wysfpd052nz8jkbx04pk0ym80000gn/T//ccVdb3MZ.s:301    .rodata.u8x8_d_uc1617_flip0_seq:0000000000000000 $d
/var/folders/v3/wysfpd052nz8jkbx04pk0ym80000gn/T//ccVdb3MZ.s:305    .rodata.u8x8_d_uc1617_flip0_seq:0000000000000000 u8x8_d_uc1617_flip0_seq
/var/folders/v3/wysfpd052nz8jkbx04pk0ym80000gn/T//ccVdb3MZ.s:312    .rodata.u8x8_d_uc1617_flip1_seq:0000000000000000 $d
/var/folders/v3/wysfpd052nz8jkbx04pk0ym80000gn/T//ccVdb3MZ.s:316    .rodata.u8x8_d_uc1617_flip1_seq:0000000000000000 u8x8_d_uc1617_flip1_seq
/var/folders/v3/wysfpd052nz8jkbx04pk0ym80000gn/T//ccVdb3MZ.s:323    .rodata.u8x8_d_uc1617_jlx128128_init_seq:0000000000000000 $d
/var/folders/v3/wysfpd052nz8jkbx04pk0ym80000gn/T//ccVdb3MZ.s:327    .rodata.u8x8_d_uc1617_jlx128128_init_seq:0000000000000000 u8x8_d_uc1617_jlx128128_init_seq
/var/folders/v3/wysfpd052nz8jkbx04pk0ym80000gn/T//ccVdb3MZ.s:410    .rodata.u8x8_d_uc1617_powersave0_seq:0000000000000000 $d
/var/folders/v3/wysfpd052nz8jkbx04pk0ym80000gn/T//ccVdb3MZ.s:414    .rodata.u8x8_d_uc1617_powersave0_seq:0000000000000000 u8x8_d_uc1617_powersave0_seq
/var/folders/v3/wysfpd052nz8jkbx04pk0ym80000gn/T//ccVdb3MZ.s:421    .rodata.u8x8_d_uc1617_powersave1_seq:0000000000000000 $d
/var/folders/v3/wysfpd052nz8jkbx04pk0ym80000gn/T//ccVdb3MZ.s:425    .rodata.u8x8_d_uc1617_powersave1_seq:0000000000000000 u8x8_d_uc1617_powersave1_seq
/var/folders/v3/wysfpd052nz8jkbx04pk0ym80000gn/T//ccVdb3MZ.s:432    .rodata.u8x8_uc1617_128x128_display_info:0000000000000000 $d
/var/folders/v3/wysfpd052nz8jkbx04pk0ym80000gn/T//ccVdb3MZ.s:436    .rodata.u8x8_uc1617_128x128_display_info:0000000000000000 u8x8_uc1617_128x128_display_info
/var/folders/v3/wysfpd052nz8jkbx04pk0ym80000gn/T//ccVdb3MZ.s:62     .text.u8x8_d_uc1617_common:0000000000000017 $d
/var/folders/v3/wysfpd052nz8jkbx04pk0ym80000gn/T//ccVdb3MZ.s:62     .text.u8x8_d_uc1617_common:0000000000000018 $t

UNDEFINED SYMBOLS
u8x8_cad_StartTransfer
u8x8_cad_SendCmd
u8x8_cad_SendData
u8x8_cad_EndTransfer
u8x8_cad_SendArg
u8x8_cad_SendSequence
u8x8_d_helper_display_init
u8x8_d_helper_display_setup_memory
