ARM GAS  /var/folders/v3/wysfpd052nz8jkbx04pk0ym80000gn/T//ccjuyJfd.s 			page 1


   1              		.cpu cortex-m4
   2              		.eabi_attribute 27, 1
   3              		.eabi_attribute 28, 1
   4              		.eabi_attribute 20, 1
   5              		.eabi_attribute 21, 1
   6              		.eabi_attribute 23, 3
   7              		.eabi_attribute 24, 1
   8              		.eabi_attribute 25, 1
   9              		.eabi_attribute 26, 1
  10              		.eabi_attribute 30, 2
  11              		.eabi_attribute 34, 1
  12              		.eabi_attribute 18, 4
  13              		.file	"u8x8_d_st7567.c"
  14              		.text
  15              	.Ltext0:
  16              		.cfi_sections	.debug_frame
  17              		.section	.text.u8x8_d_st7567_pi_132x64,"ax",%progbits
  18              		.align	1
  19              		.p2align 2,,3
  20              		.global	u8x8_d_st7567_pi_132x64
  21              		.syntax unified
  22              		.thumb
  23              		.thumb_func
  24              		.fpu fpv4-sp-d16
  26              	u8x8_d_st7567_pi_132x64:
  27              	.LFB0:
  28              		.file 1 "/Users/imashio/Electronics/ARM/_Library/u8x8_d_st7567.c"
   1:/Users/imashio/Electronics/ARM/_Library/u8x8_d_st7567.c **** /*
   2:/Users/imashio/Electronics/ARM/_Library/u8x8_d_st7567.c **** 
   3:/Users/imashio/Electronics/ARM/_Library/u8x8_d_st7567.c ****   u8x8_d_st7567.c
   4:/Users/imashio/Electronics/ARM/_Library/u8x8_d_st7567.c ****   
   5:/Users/imashio/Electronics/ARM/_Library/u8x8_d_st7567.c ****   Universal 8bit Graphics Library (https://github.com/olikraus/u8g2/)
   6:/Users/imashio/Electronics/ARM/_Library/u8x8_d_st7567.c **** 
   7:/Users/imashio/Electronics/ARM/_Library/u8x8_d_st7567.c ****   Copyright (c) 2016, olikraus@gmail.com
   8:/Users/imashio/Electronics/ARM/_Library/u8x8_d_st7567.c ****   All rights reserved.
   9:/Users/imashio/Electronics/ARM/_Library/u8x8_d_st7567.c **** 
  10:/Users/imashio/Electronics/ARM/_Library/u8x8_d_st7567.c ****   Redistribution and use in source and binary forms, with or without modification, 
  11:/Users/imashio/Electronics/ARM/_Library/u8x8_d_st7567.c ****   are permitted provided that the following conditions are met:
  12:/Users/imashio/Electronics/ARM/_Library/u8x8_d_st7567.c **** 
  13:/Users/imashio/Electronics/ARM/_Library/u8x8_d_st7567.c ****   * Redistributions of source code must retain the above copyright notice, this list 
  14:/Users/imashio/Electronics/ARM/_Library/u8x8_d_st7567.c ****     of conditions and the following disclaimer.
  15:/Users/imashio/Electronics/ARM/_Library/u8x8_d_st7567.c ****     
  16:/Users/imashio/Electronics/ARM/_Library/u8x8_d_st7567.c ****   * Redistributions in binary form must reproduce the above copyright notice, this 
  17:/Users/imashio/Electronics/ARM/_Library/u8x8_d_st7567.c ****     list of conditions and the following disclaimer in the documentation and/or other 
  18:/Users/imashio/Electronics/ARM/_Library/u8x8_d_st7567.c ****     materials provided with the distribution.
  19:/Users/imashio/Electronics/ARM/_Library/u8x8_d_st7567.c **** 
  20:/Users/imashio/Electronics/ARM/_Library/u8x8_d_st7567.c ****   THIS SOFTWARE IS PROVIDED BY THE COPYRIGHT HOLDERS AND 
  21:/Users/imashio/Electronics/ARM/_Library/u8x8_d_st7567.c ****   CONTRIBUTORS "AS IS" AND ANY EXPRESS OR IMPLIED WARRANTIES, 
  22:/Users/imashio/Electronics/ARM/_Library/u8x8_d_st7567.c ****   INCLUDING, BUT NOT LIMITED TO, THE IMPLIED WARRANTIES OF 
  23:/Users/imashio/Electronics/ARM/_Library/u8x8_d_st7567.c ****   MERCHANTABILITY AND FITNESS FOR A PARTICULAR PURPOSE ARE 
  24:/Users/imashio/Electronics/ARM/_Library/u8x8_d_st7567.c ****   DISCLAIMED. IN NO EVENT SHALL THE COPYRIGHT HOLDER OR 
  25:/Users/imashio/Electronics/ARM/_Library/u8x8_d_st7567.c ****   CONTRIBUTORS BE LIABLE FOR ANY DIRECT, INDIRECT, INCIDENTAL, 
  26:/Users/imashio/Electronics/ARM/_Library/u8x8_d_st7567.c ****   SPECIAL, EXEMPLARY, OR CONSEQUENTIAL DAMAGES (INCLUDING, BUT 
  27:/Users/imashio/Electronics/ARM/_Library/u8x8_d_st7567.c ****   NOT LIMITED TO, PROCUREMENT OF SUBSTITUTE GOODS OR SERVICES; 
  28:/Users/imashio/Electronics/ARM/_Library/u8x8_d_st7567.c ****   LOSS OF USE, DATA, OR PROFITS; OR BUSINESS INTERRUPTION) HOWEVER 
  29:/Users/imashio/Electronics/ARM/_Library/u8x8_d_st7567.c ****   CAUSED AND ON ANY THEORY OF LIABILITY, WHETHER IN CONTRACT, 
  30:/Users/imashio/Electronics/ARM/_Library/u8x8_d_st7567.c ****   STRICT LIABILITY, OR TORT (INCLUDING NEGLIGENCE OR OTHERWISE) 
ARM GAS  /var/folders/v3/wysfpd052nz8jkbx04pk0ym80000gn/T//ccjuyJfd.s 			page 2


  31:/Users/imashio/Electronics/ARM/_Library/u8x8_d_st7567.c ****   ARISING IN ANY WAY OUT OF THE USE OF THIS SOFTWARE, EVEN IF 
  32:/Users/imashio/Electronics/ARM/_Library/u8x8_d_st7567.c ****   ADVISED OF THE POSSIBILITY OF SUCH DAMAGE.  
  33:/Users/imashio/Electronics/ARM/_Library/u8x8_d_st7567.c **** 
  34:/Users/imashio/Electronics/ARM/_Library/u8x8_d_st7567.c ****   
  35:/Users/imashio/Electronics/ARM/_Library/u8x8_d_st7567.c **** */
  36:/Users/imashio/Electronics/ARM/_Library/u8x8_d_st7567.c **** #include "u8x8.h"
  37:/Users/imashio/Electronics/ARM/_Library/u8x8_d_st7567.c **** 
  38:/Users/imashio/Electronics/ARM/_Library/u8x8_d_st7567.c **** 
  39:/Users/imashio/Electronics/ARM/_Library/u8x8_d_st7567.c **** 
  40:/Users/imashio/Electronics/ARM/_Library/u8x8_d_st7567.c **** 
  41:/Users/imashio/Electronics/ARM/_Library/u8x8_d_st7567.c **** static const uint8_t u8x8_d_st7567_132x64_powersave0_seq[] = {
  42:/Users/imashio/Electronics/ARM/_Library/u8x8_d_st7567.c ****   U8X8_START_TRANSFER(),             	/* enable chip, delay is part of the transfer start */
  43:/Users/imashio/Electronics/ARM/_Library/u8x8_d_st7567.c ****   U8X8_C(0x0a4),		                /* all pixel off, issue 142 */
  44:/Users/imashio/Electronics/ARM/_Library/u8x8_d_st7567.c ****   U8X8_C(0x0af),		                /* display on */
  45:/Users/imashio/Electronics/ARM/_Library/u8x8_d_st7567.c ****   U8X8_END_TRANSFER(),             	/* disable chip */
  46:/Users/imashio/Electronics/ARM/_Library/u8x8_d_st7567.c ****   U8X8_END()             			/* end of sequence */
  47:/Users/imashio/Electronics/ARM/_Library/u8x8_d_st7567.c **** };
  48:/Users/imashio/Electronics/ARM/_Library/u8x8_d_st7567.c **** 
  49:/Users/imashio/Electronics/ARM/_Library/u8x8_d_st7567.c **** static const uint8_t u8x8_d_st7567_132x64_powersave1_seq[] = {
  50:/Users/imashio/Electronics/ARM/_Library/u8x8_d_st7567.c ****   U8X8_START_TRANSFER(),             	/* enable chip, delay is part of the transfer start */
  51:/Users/imashio/Electronics/ARM/_Library/u8x8_d_st7567.c ****   U8X8_C(0x0ae),		                /* display off */
  52:/Users/imashio/Electronics/ARM/_Library/u8x8_d_st7567.c ****   U8X8_C(0x0a5),		                /* enter powersafe: all pixel on, issue 142 */
  53:/Users/imashio/Electronics/ARM/_Library/u8x8_d_st7567.c ****   U8X8_END_TRANSFER(),             	/* disable chip */
  54:/Users/imashio/Electronics/ARM/_Library/u8x8_d_st7567.c ****   U8X8_END()             			/* end of sequence */
  55:/Users/imashio/Electronics/ARM/_Library/u8x8_d_st7567.c **** };
  56:/Users/imashio/Electronics/ARM/_Library/u8x8_d_st7567.c **** 
  57:/Users/imashio/Electronics/ARM/_Library/u8x8_d_st7567.c **** static const uint8_t u8x8_d_st7567_132x64_flip0_seq[] = {
  58:/Users/imashio/Electronics/ARM/_Library/u8x8_d_st7567.c ****   U8X8_START_TRANSFER(),             	/* enable chip, delay is part of the transfer start */
  59:/Users/imashio/Electronics/ARM/_Library/u8x8_d_st7567.c ****   U8X8_C(0x0a1),				/* segment remap a0/a1*/
  60:/Users/imashio/Electronics/ARM/_Library/u8x8_d_st7567.c ****   U8X8_C(0x0c0),				/* c0: scan dir normal, c8: reverse */
  61:/Users/imashio/Electronics/ARM/_Library/u8x8_d_st7567.c ****   U8X8_END_TRANSFER(),             	/* disable chip */
  62:/Users/imashio/Electronics/ARM/_Library/u8x8_d_st7567.c ****   U8X8_END()             			/* end of sequence */
  63:/Users/imashio/Electronics/ARM/_Library/u8x8_d_st7567.c **** };
  64:/Users/imashio/Electronics/ARM/_Library/u8x8_d_st7567.c **** 
  65:/Users/imashio/Electronics/ARM/_Library/u8x8_d_st7567.c **** static const uint8_t u8x8_d_st7567_132x64_flip1_seq[] = {
  66:/Users/imashio/Electronics/ARM/_Library/u8x8_d_st7567.c ****   U8X8_START_TRANSFER(),             	/* enable chip, delay is part of the transfer start */
  67:/Users/imashio/Electronics/ARM/_Library/u8x8_d_st7567.c ****   U8X8_C(0x0a0),				/* segment remap a0/a1*/
  68:/Users/imashio/Electronics/ARM/_Library/u8x8_d_st7567.c ****   U8X8_C(0x0c8),				/* c0: scan dir normal, c8: reverse */
  69:/Users/imashio/Electronics/ARM/_Library/u8x8_d_st7567.c ****   U8X8_END_TRANSFER(),             	/* disable chip */
  70:/Users/imashio/Electronics/ARM/_Library/u8x8_d_st7567.c ****   U8X8_END()             			/* end of sequence */
  71:/Users/imashio/Electronics/ARM/_Library/u8x8_d_st7567.c **** };
  72:/Users/imashio/Electronics/ARM/_Library/u8x8_d_st7567.c **** 
  73:/Users/imashio/Electronics/ARM/_Library/u8x8_d_st7567.c **** 
  74:/Users/imashio/Electronics/ARM/_Library/u8x8_d_st7567.c **** /*=====================================================*/
  75:/Users/imashio/Electronics/ARM/_Library/u8x8_d_st7567.c **** 
  76:/Users/imashio/Electronics/ARM/_Library/u8x8_d_st7567.c **** 
  77:/Users/imashio/Electronics/ARM/_Library/u8x8_d_st7567.c **** static const u8x8_display_info_t u8x8_st7567_132x64_display_info =
  78:/Users/imashio/Electronics/ARM/_Library/u8x8_d_st7567.c **** {
  79:/Users/imashio/Electronics/ARM/_Library/u8x8_d_st7567.c ****   /* chip_enable_level = */ 0,
  80:/Users/imashio/Electronics/ARM/_Library/u8x8_d_st7567.c ****   /* chip_disable_level = */ 1,
  81:/Users/imashio/Electronics/ARM/_Library/u8x8_d_st7567.c ****   
  82:/Users/imashio/Electronics/ARM/_Library/u8x8_d_st7567.c ****   /* post_chip_enable_wait_ns = */ 150,	/* */
  83:/Users/imashio/Electronics/ARM/_Library/u8x8_d_st7567.c ****   /* pre_chip_disable_wait_ns = */ 50,	/* */
  84:/Users/imashio/Electronics/ARM/_Library/u8x8_d_st7567.c ****   /* reset_pulse_width_ms = */ 1, 
  85:/Users/imashio/Electronics/ARM/_Library/u8x8_d_st7567.c ****   /* post_reset_wait_ms = */ 1, 
  86:/Users/imashio/Electronics/ARM/_Library/u8x8_d_st7567.c ****   /* sda_setup_time_ns = */ 50,		/* */
  87:/Users/imashio/Electronics/ARM/_Library/u8x8_d_st7567.c ****   /* sck_pulse_width_ns = */ 120,	/* */
ARM GAS  /var/folders/v3/wysfpd052nz8jkbx04pk0ym80000gn/T//ccjuyJfd.s 			page 3


  88:/Users/imashio/Electronics/ARM/_Library/u8x8_d_st7567.c ****   /* sck_clock_hz = */ 4000000UL,	/* */
  89:/Users/imashio/Electronics/ARM/_Library/u8x8_d_st7567.c ****   /* spi_mode = */ 0,		/* active high, rising edge */
  90:/Users/imashio/Electronics/ARM/_Library/u8x8_d_st7567.c ****   /* i2c_bus_clock_100kHz = */ 4,
  91:/Users/imashio/Electronics/ARM/_Library/u8x8_d_st7567.c ****   /* data_setup_time_ns = */ 40,	/* */
  92:/Users/imashio/Electronics/ARM/_Library/u8x8_d_st7567.c ****   /* write_pulse_width_ns = */ 80,	/* */
  93:/Users/imashio/Electronics/ARM/_Library/u8x8_d_st7567.c ****   /* tile_width = */ 17,		/* width of 17*8=136 pixel */
  94:/Users/imashio/Electronics/ARM/_Library/u8x8_d_st7567.c ****   /* tile_hight = */ 8,
  95:/Users/imashio/Electronics/ARM/_Library/u8x8_d_st7567.c ****   /* default_x_offset = */ 0,
  96:/Users/imashio/Electronics/ARM/_Library/u8x8_d_st7567.c ****   /* flipmode_x_offset = */ 0,
  97:/Users/imashio/Electronics/ARM/_Library/u8x8_d_st7567.c ****   /* pixel_width = */ 132,
  98:/Users/imashio/Electronics/ARM/_Library/u8x8_d_st7567.c ****   /* pixel_height = */ 64
  99:/Users/imashio/Electronics/ARM/_Library/u8x8_d_st7567.c **** };
 100:/Users/imashio/Electronics/ARM/_Library/u8x8_d_st7567.c **** 
 101:/Users/imashio/Electronics/ARM/_Library/u8x8_d_st7567.c **** static const uint8_t u8x8_d_st7567_132x64_init_seq[] = {
 102:/Users/imashio/Electronics/ARM/_Library/u8x8_d_st7567.c ****     
 103:/Users/imashio/Electronics/ARM/_Library/u8x8_d_st7567.c ****   U8X8_START_TRANSFER(),             	/* enable chip, delay is part of the transfer start */
 104:/Users/imashio/Electronics/ARM/_Library/u8x8_d_st7567.c ****   
 105:/Users/imashio/Electronics/ARM/_Library/u8x8_d_st7567.c ****   U8X8_C(0x0e2),            			/* soft reset */
 106:/Users/imashio/Electronics/ARM/_Library/u8x8_d_st7567.c ****   U8X8_C(0x0ae),		                /* display off */
 107:/Users/imashio/Electronics/ARM/_Library/u8x8_d_st7567.c ****   U8X8_C(0x040),		                /* set display start line to 0 */
 108:/Users/imashio/Electronics/ARM/_Library/u8x8_d_st7567.c ****   
 109:/Users/imashio/Electronics/ARM/_Library/u8x8_d_st7567.c ****   U8X8_C(0x0a1),		                /* ADC set to reverse */
 110:/Users/imashio/Electronics/ARM/_Library/u8x8_d_st7567.c ****   U8X8_C(0x0c0),		                /* common output mode */
 111:/Users/imashio/Electronics/ARM/_Library/u8x8_d_st7567.c ****   // Flipmode
 112:/Users/imashio/Electronics/ARM/_Library/u8x8_d_st7567.c ****   //U8X8_C(0x0a0),		                /* ADC set to reverse */
 113:/Users/imashio/Electronics/ARM/_Library/u8x8_d_st7567.c ****   //U8X8_C(0x0c8),		                /* common output mode */
 114:/Users/imashio/Electronics/ARM/_Library/u8x8_d_st7567.c ****   
 115:/Users/imashio/Electronics/ARM/_Library/u8x8_d_st7567.c ****   U8X8_C(0x0a6),		                /* display normal, bit val 0: LCD pixel off. */
 116:/Users/imashio/Electronics/ARM/_Library/u8x8_d_st7567.c ****   U8X8_C(0x0a3),		                /* LCD bias 1/7 */
 117:/Users/imashio/Electronics/ARM/_Library/u8x8_d_st7567.c ****   /* power on sequence from paxinstruments */
 118:/Users/imashio/Electronics/ARM/_Library/u8x8_d_st7567.c ****   U8X8_C(0x028|4),		                /* all power  control circuits on */
 119:/Users/imashio/Electronics/ARM/_Library/u8x8_d_st7567.c ****   U8X8_DLY(50),
 120:/Users/imashio/Electronics/ARM/_Library/u8x8_d_st7567.c ****   U8X8_C(0x028|6),		                /* all power  control circuits on */
 121:/Users/imashio/Electronics/ARM/_Library/u8x8_d_st7567.c ****   U8X8_DLY(50),
 122:/Users/imashio/Electronics/ARM/_Library/u8x8_d_st7567.c ****   U8X8_C(0x028|7),		                /* all power  control circuits on */
 123:/Users/imashio/Electronics/ARM/_Library/u8x8_d_st7567.c ****   U8X8_DLY(50),
 124:/Users/imashio/Electronics/ARM/_Library/u8x8_d_st7567.c ****   
 125:/Users/imashio/Electronics/ARM/_Library/u8x8_d_st7567.c ****   U8X8_C(0x026),		                /* v0 voltage resistor ratio */
 126:/Users/imashio/Electronics/ARM/_Library/u8x8_d_st7567.c ****   U8X8_CA(0x081, 0x027),		/* set contrast, contrast value*/
 127:/Users/imashio/Electronics/ARM/_Library/u8x8_d_st7567.c ****   
 128:/Users/imashio/Electronics/ARM/_Library/u8x8_d_st7567.c ****   U8X8_C(0x0ae),		                /* display off */
 129:/Users/imashio/Electronics/ARM/_Library/u8x8_d_st7567.c ****   U8X8_C(0x0a5),		                /* enter powersafe: all pixel on, issue 142 */
 130:/Users/imashio/Electronics/ARM/_Library/u8x8_d_st7567.c ****    
 131:/Users/imashio/Electronics/ARM/_Library/u8x8_d_st7567.c ****   U8X8_END_TRANSFER(),             	/* disable chip */
 132:/Users/imashio/Electronics/ARM/_Library/u8x8_d_st7567.c ****   U8X8_END()             			/* end of sequence */
 133:/Users/imashio/Electronics/ARM/_Library/u8x8_d_st7567.c **** };
 134:/Users/imashio/Electronics/ARM/_Library/u8x8_d_st7567.c **** 
 135:/Users/imashio/Electronics/ARM/_Library/u8x8_d_st7567.c **** /* pax instruments 132x64 display */
 136:/Users/imashio/Electronics/ARM/_Library/u8x8_d_st7567.c **** uint8_t u8x8_d_st7567_pi_132x64(u8x8_t *u8x8, uint8_t msg, uint8_t arg_int, void *arg_ptr)
 137:/Users/imashio/Electronics/ARM/_Library/u8x8_d_st7567.c **** {
  29              		.loc 1 137 0
  30              		.cfi_startproc
  31              		@ args = 0, pretend = 0, frame = 0
  32              		@ frame_needed = 0, uses_anonymous_args = 0
  33              	.LVL0:
 138:/Users/imashio/Electronics/ARM/_Library/u8x8_d_st7567.c ****   uint8_t x, c;
 139:/Users/imashio/Electronics/ARM/_Library/u8x8_d_st7567.c ****   uint8_t *ptr;
ARM GAS  /var/folders/v3/wysfpd052nz8jkbx04pk0ym80000gn/T//ccjuyJfd.s 			page 4


 140:/Users/imashio/Electronics/ARM/_Library/u8x8_d_st7567.c ****   switch(msg)
  34              		.loc 1 140 0
  35 0000 0939     		subs	r1, r1, #9
  36              	.LVL1:
 137:/Users/imashio/Electronics/ARM/_Library/u8x8_d_st7567.c ****   uint8_t x, c;
  37              		.loc 1 137 0
  38 0002 2DE9F041 		push	{r4, r5, r6, r7, r8, lr}
  39              	.LCFI0:
  40              		.cfi_def_cfa_offset 24
  41              		.cfi_offset 4, -24
  42              		.cfi_offset 5, -20
  43              		.cfi_offset 6, -16
  44              		.cfi_offset 7, -12
  45              		.cfi_offset 8, -8
  46              		.cfi_offset 14, -4
 137:/Users/imashio/Electronics/ARM/_Library/u8x8_d_st7567.c ****   uint8_t x, c;
  47              		.loc 1 137 0
  48 0006 0546     		mov	r5, r0
  49 0008 1446     		mov	r4, r2
  50 000a 1F46     		mov	r7, r3
  51              		.loc 1 140 0
  52 000c 0629     		cmp	r1, #6
  53 000e 68D8     		bhi	.L14
  54 0010 DFE801F0 		tbb	[pc, r1]
  55              	.LVL2:
  56              	.L4:
  57 0014 39       		.byte	(.L3-.L4)/2
  58 0015 3F       		.byte	(.L5-.L4)/2
  59 0016 48       		.byte	(.L6-.L4)/2
  60 0017 67       		.byte	(.L14-.L4)/2
  61 0018 4E       		.byte	(.L7-.L4)/2
  62 0019 57       		.byte	(.L8-.L4)/2
  63 001a 04       		.byte	(.L9-.L4)/2
  64 001b 00       		.p2align 1
  65              	.L9:
 141:/Users/imashio/Electronics/ARM/_Library/u8x8_d_st7567.c ****   {
 142:/Users/imashio/Electronics/ARM/_Library/u8x8_d_st7567.c ****     case U8X8_MSG_DISPLAY_SETUP_MEMORY:
 143:/Users/imashio/Electronics/ARM/_Library/u8x8_d_st7567.c ****       u8x8_d_helper_display_setup_memory(u8x8, &u8x8_st7567_132x64_display_info);
 144:/Users/imashio/Electronics/ARM/_Library/u8x8_d_st7567.c ****       break;
 145:/Users/imashio/Electronics/ARM/_Library/u8x8_d_st7567.c ****     case U8X8_MSG_DISPLAY_INIT:
 146:/Users/imashio/Electronics/ARM/_Library/u8x8_d_st7567.c ****       u8x8_d_helper_display_init(u8x8);
 147:/Users/imashio/Electronics/ARM/_Library/u8x8_d_st7567.c ****       u8x8_cad_SendSequence(u8x8, u8x8_d_st7567_132x64_init_seq);
 148:/Users/imashio/Electronics/ARM/_Library/u8x8_d_st7567.c ****       break;
 149:/Users/imashio/Electronics/ARM/_Library/u8x8_d_st7567.c ****     case U8X8_MSG_DISPLAY_SET_POWER_SAVE:
 150:/Users/imashio/Electronics/ARM/_Library/u8x8_d_st7567.c ****       if ( arg_int == 0 )
 151:/Users/imashio/Electronics/ARM/_Library/u8x8_d_st7567.c **** 	u8x8_cad_SendSequence(u8x8, u8x8_d_st7567_132x64_powersave0_seq);
 152:/Users/imashio/Electronics/ARM/_Library/u8x8_d_st7567.c ****       else
 153:/Users/imashio/Electronics/ARM/_Library/u8x8_d_st7567.c **** 	u8x8_cad_SendSequence(u8x8, u8x8_d_st7567_132x64_powersave1_seq);
 154:/Users/imashio/Electronics/ARM/_Library/u8x8_d_st7567.c ****       break;
 155:/Users/imashio/Electronics/ARM/_Library/u8x8_d_st7567.c ****     case U8X8_MSG_DISPLAY_SET_FLIP_MODE:
 156:/Users/imashio/Electronics/ARM/_Library/u8x8_d_st7567.c ****       if ( arg_int == 0 )
 157:/Users/imashio/Electronics/ARM/_Library/u8x8_d_st7567.c ****       {
 158:/Users/imashio/Electronics/ARM/_Library/u8x8_d_st7567.c **** 	u8x8_cad_SendSequence(u8x8, u8x8_d_st7567_132x64_flip0_seq);
 159:/Users/imashio/Electronics/ARM/_Library/u8x8_d_st7567.c **** 	u8x8->x_offset = u8x8->display_info->default_x_offset;
 160:/Users/imashio/Electronics/ARM/_Library/u8x8_d_st7567.c ****       }
 161:/Users/imashio/Electronics/ARM/_Library/u8x8_d_st7567.c ****       else
 162:/Users/imashio/Electronics/ARM/_Library/u8x8_d_st7567.c ****       {
ARM GAS  /var/folders/v3/wysfpd052nz8jkbx04pk0ym80000gn/T//ccjuyJfd.s 			page 5


 163:/Users/imashio/Electronics/ARM/_Library/u8x8_d_st7567.c **** 	u8x8_cad_SendSequence(u8x8, u8x8_d_st7567_132x64_flip1_seq);
 164:/Users/imashio/Electronics/ARM/_Library/u8x8_d_st7567.c **** 	u8x8->x_offset = u8x8->display_info->flipmode_x_offset;
 165:/Users/imashio/Electronics/ARM/_Library/u8x8_d_st7567.c ****       }	
 166:/Users/imashio/Electronics/ARM/_Library/u8x8_d_st7567.c ****       break;
 167:/Users/imashio/Electronics/ARM/_Library/u8x8_d_st7567.c **** #ifdef U8X8_WITH_SET_CONTRAST
 168:/Users/imashio/Electronics/ARM/_Library/u8x8_d_st7567.c ****     case U8X8_MSG_DISPLAY_SET_CONTRAST:
 169:/Users/imashio/Electronics/ARM/_Library/u8x8_d_st7567.c ****       u8x8_cad_StartTransfer(u8x8);
 170:/Users/imashio/Electronics/ARM/_Library/u8x8_d_st7567.c ****       u8x8_cad_SendCmd(u8x8, 0x081 );
 171:/Users/imashio/Electronics/ARM/_Library/u8x8_d_st7567.c ****       u8x8_cad_SendArg(u8x8, arg_int >> 2 );	/* st7567 has range from 0 to 63 */
 172:/Users/imashio/Electronics/ARM/_Library/u8x8_d_st7567.c ****       u8x8_cad_EndTransfer(u8x8);
 173:/Users/imashio/Electronics/ARM/_Library/u8x8_d_st7567.c ****       break;
 174:/Users/imashio/Electronics/ARM/_Library/u8x8_d_st7567.c **** #endif
 175:/Users/imashio/Electronics/ARM/_Library/u8x8_d_st7567.c ****     case U8X8_MSG_DISPLAY_DRAW_TILE:
 176:/Users/imashio/Electronics/ARM/_Library/u8x8_d_st7567.c ****       u8x8_cad_StartTransfer(u8x8);
  66              		.loc 1 176 0
  67 001c FFF7FEFF 		bl	u8x8_cad_StartTransfer
  68              	.LVL3:
 177:/Users/imashio/Electronics/ARM/_Library/u8x8_d_st7567.c ****     
 178:/Users/imashio/Electronics/ARM/_Library/u8x8_d_st7567.c ****       x = ((u8x8_tile_t *)arg_ptr)->x_pos;
  69              		.loc 1 178 0
  70 0020 7E79     		ldrb	r6, [r7, #5]	@ zero_extendqisi2
  71              	.LVL4:
 179:/Users/imashio/Electronics/ARM/_Library/u8x8_d_st7567.c ****       x *= 8;
 180:/Users/imashio/Electronics/ARM/_Library/u8x8_d_st7567.c ****       x += u8x8->x_offset;
  72              		.loc 1 180 0
  73 0022 95F81E80 		ldrb	r8, [r5, #30]	@ zero_extendqisi2
  74 0026 08EBC608 		add	r8, r8, r6, lsl #3
  75 002a 08F0FF08 		and	r8, r8, #255
  76              	.LVL5:
 181:/Users/imashio/Electronics/ARM/_Library/u8x8_d_st7567.c ****       u8x8_cad_SendCmd(u8x8, 0x010 | (x>>4) );
  77              		.loc 1 181 0
  78 002e 4FEA1811 		lsr	r1, r8, #4
  79 0032 41F01001 		orr	r1, r1, #16
  80 0036 2846     		mov	r0, r5
  81 0038 FFF7FEFF 		bl	u8x8_cad_SendCmd
  82              	.LVL6:
 182:/Users/imashio/Electronics/ARM/_Library/u8x8_d_st7567.c ****       u8x8_cad_SendCmd(u8x8, 0x000 | ((x&15)));
  83              		.loc 1 182 0
  84 003c 08F00F01 		and	r1, r8, #15
  85 0040 2846     		mov	r0, r5
  86 0042 FFF7FEFF 		bl	u8x8_cad_SendCmd
  87              	.LVL7:
 183:/Users/imashio/Electronics/ARM/_Library/u8x8_d_st7567.c ****       u8x8_cad_SendCmd(u8x8, 0x0b0 | (((u8x8_tile_t *)arg_ptr)->y_pos));
  88              		.loc 1 183 0
  89 0046 B979     		ldrb	r1, [r7, #6]	@ zero_extendqisi2
  90 0048 2846     		mov	r0, r5
  91 004a 41F0B001 		orr	r1, r1, #176
  92 004e FFF7FEFF 		bl	u8x8_cad_SendCmd
  93              	.LVL8:
 184:/Users/imashio/Electronics/ARM/_Library/u8x8_d_st7567.c ****     
 185:/Users/imashio/Electronics/ARM/_Library/u8x8_d_st7567.c ****       c = ((u8x8_tile_t *)arg_ptr)->cnt;
  94              		.loc 1 185 0
  95 0052 3E79     		ldrb	r6, [r7, #4]	@ zero_extendqisi2
  96              	.LVL9:
 186:/Users/imashio/Electronics/ARM/_Library/u8x8_d_st7567.c ****       c *= 8;
 187:/Users/imashio/Electronics/ARM/_Library/u8x8_d_st7567.c ****       ptr = ((u8x8_tile_t *)arg_ptr)->tile_ptr;
  97              		.loc 1 187 0
ARM GAS  /var/folders/v3/wysfpd052nz8jkbx04pk0ym80000gn/T//ccjuyJfd.s 			page 6


  98 0054 3F68     		ldr	r7, [r7]
  99              	.LVL10:
 186:/Users/imashio/Electronics/ARM/_Library/u8x8_d_st7567.c ****       c *= 8;
 100              		.loc 1 186 0
 101 0056 F600     		lsls	r6, r6, #3
 102              	.LVL11:
 103 0058 F6B2     		uxtb	r6, r6
 104              	.LVL12:
 188:/Users/imashio/Electronics/ARM/_Library/u8x8_d_st7567.c ****       /* 
 189:/Users/imashio/Electronics/ARM/_Library/u8x8_d_st7567.c **** 	The following if condition checks the hardware limits of the st7567 
 190:/Users/imashio/Electronics/ARM/_Library/u8x8_d_st7567.c **** 	controller: It is not allowed to write beyond the display limits.
 191:/Users/imashio/Electronics/ARM/_Library/u8x8_d_st7567.c **** 	This is in fact an issue within flip mode.
 192:/Users/imashio/Electronics/ARM/_Library/u8x8_d_st7567.c ****       */
 193:/Users/imashio/Electronics/ARM/_Library/u8x8_d_st7567.c ****       if ( c + x > 132u )
 105              		.loc 1 193 0
 106 005a 06EB0803 		add	r3, r6, r8
 107 005e 842B     		cmp	r3, #132
 108              	.LVL13:
 194:/Users/imashio/Electronics/ARM/_Library/u8x8_d_st7567.c ****       {
 195:/Users/imashio/Electronics/ARM/_Library/u8x8_d_st7567.c **** 	c = 132u;
 196:/Users/imashio/Electronics/ARM/_Library/u8x8_d_st7567.c **** 	c -= x;
 109              		.loc 1 196 0
 110 0060 C4BF     		itt	gt
 111 0062 C8F18406 		rsbgt	r6, r8, #132
 112 0066 F6B2     		uxtbgt	r6, r6
 113              	.LVL14:
 114              	.L13:
 197:/Users/imashio/Electronics/ARM/_Library/u8x8_d_st7567.c ****       }
 198:/Users/imashio/Electronics/ARM/_Library/u8x8_d_st7567.c ****       do
 199:/Users/imashio/Electronics/ARM/_Library/u8x8_d_st7567.c ****       {
 200:/Users/imashio/Electronics/ARM/_Library/u8x8_d_st7567.c **** 	u8x8_cad_SendData(u8x8, c, ptr);	/* note: SendData can not handle more than 255 bytes */
 115              		.loc 1 200 0 discriminator 1
 116 0068 3A46     		mov	r2, r7
 117 006a 3146     		mov	r1, r6
 118 006c 2846     		mov	r0, r5
 201:/Users/imashio/Electronics/ARM/_Library/u8x8_d_st7567.c **** 	arg_int--;
 119              		.loc 1 201 0 discriminator 1
 120 006e 013C     		subs	r4, r4, #1
 121              	.LVL15:
 200:/Users/imashio/Electronics/ARM/_Library/u8x8_d_st7567.c **** 	arg_int--;
 122              		.loc 1 200 0 discriminator 1
 123 0070 FFF7FEFF 		bl	u8x8_cad_SendData
 124              	.LVL16:
 202:/Users/imashio/Electronics/ARM/_Library/u8x8_d_st7567.c ****       } while( arg_int > 0 );
 125              		.loc 1 202 0 discriminator 1
 126 0074 14F0FF04 		ands	r4, r4, #255
 127              	.LVL17:
 128 0078 F6D1     		bne	.L13
 203:/Users/imashio/Electronics/ARM/_Library/u8x8_d_st7567.c ****       
 204:/Users/imashio/Electronics/ARM/_Library/u8x8_d_st7567.c ****       u8x8_cad_EndTransfer(u8x8);
 129              		.loc 1 204 0
 130 007a 2846     		mov	r0, r5
 131 007c FFF7FEFF 		bl	u8x8_cad_EndTransfer
 132              	.LVL18:
 205:/Users/imashio/Electronics/ARM/_Library/u8x8_d_st7567.c ****       break;
 206:/Users/imashio/Electronics/ARM/_Library/u8x8_d_st7567.c ****     default:
 207:/Users/imashio/Electronics/ARM/_Library/u8x8_d_st7567.c ****       return 0;
ARM GAS  /var/folders/v3/wysfpd052nz8jkbx04pk0ym80000gn/T//ccjuyJfd.s 			page 7


 208:/Users/imashio/Electronics/ARM/_Library/u8x8_d_st7567.c ****   }
 209:/Users/imashio/Electronics/ARM/_Library/u8x8_d_st7567.c ****   return 1;
 133              		.loc 1 209 0
 134 0080 0120     		movs	r0, #1
 210:/Users/imashio/Electronics/ARM/_Library/u8x8_d_st7567.c **** }
 135              		.loc 1 210 0
 136 0082 BDE8F081 		pop	{r4, r5, r6, r7, r8, pc}
 137              	.LVL19:
 138              	.L3:
 143:/Users/imashio/Electronics/ARM/_Library/u8x8_d_st7567.c ****       break;
 139              		.loc 1 143 0
 140 0086 1E49     		ldr	r1, .L18
 141 0088 FFF7FEFF 		bl	u8x8_d_helper_display_setup_memory
 142              	.LVL20:
 209:/Users/imashio/Electronics/ARM/_Library/u8x8_d_st7567.c **** }
 143              		.loc 1 209 0
 144 008c 0120     		movs	r0, #1
 145              	.L2:
 146              		.loc 1 210 0
 147 008e BDE8F081 		pop	{r4, r5, r6, r7, r8, pc}
 148              	.LVL21:
 149              	.L5:
 146:/Users/imashio/Electronics/ARM/_Library/u8x8_d_st7567.c ****       u8x8_cad_SendSequence(u8x8, u8x8_d_st7567_132x64_init_seq);
 150              		.loc 1 146 0
 151 0092 FFF7FEFF 		bl	u8x8_d_helper_display_init
 152              	.LVL22:
 147:/Users/imashio/Electronics/ARM/_Library/u8x8_d_st7567.c ****       break;
 153              		.loc 1 147 0
 154 0096 2846     		mov	r0, r5
 155 0098 1A49     		ldr	r1, .L18+4
 156 009a FFF7FEFF 		bl	u8x8_cad_SendSequence
 157              	.LVL23:
 209:/Users/imashio/Electronics/ARM/_Library/u8x8_d_st7567.c **** }
 158              		.loc 1 209 0
 159 009e 0120     		movs	r0, #1
 160              		.loc 1 210 0
 161 00a0 BDE8F081 		pop	{r4, r5, r6, r7, r8, pc}
 162              	.LVL24:
 163              	.L6:
 150:/Users/imashio/Electronics/ARM/_Library/u8x8_d_st7567.c **** 	u8x8_cad_SendSequence(u8x8, u8x8_d_st7567_132x64_powersave0_seq);
 164              		.loc 1 150 0
 165 00a4 FAB9     		cbnz	r2, .L10
 151:/Users/imashio/Electronics/ARM/_Library/u8x8_d_st7567.c ****       else
 166              		.loc 1 151 0
 167 00a6 1849     		ldr	r1, .L18+8
 168 00a8 FFF7FEFF 		bl	u8x8_cad_SendSequence
 169              	.LVL25:
 209:/Users/imashio/Electronics/ARM/_Library/u8x8_d_st7567.c **** }
 170              		.loc 1 209 0
 171 00ac 0120     		movs	r0, #1
 172 00ae EEE7     		b	.L2
 173              	.LVL26:
 174              	.L7:
 156:/Users/imashio/Electronics/ARM/_Library/u8x8_d_st7567.c ****       {
 175              		.loc 1 156 0
 176 00b0 F2B9     		cbnz	r2, .L11
 158:/Users/imashio/Electronics/ARM/_Library/u8x8_d_st7567.c **** 	u8x8->x_offset = u8x8->display_info->default_x_offset;
ARM GAS  /var/folders/v3/wysfpd052nz8jkbx04pk0ym80000gn/T//ccjuyJfd.s 			page 8


 177              		.loc 1 158 0
 178 00b2 1649     		ldr	r1, .L18+12
 179 00b4 FFF7FEFF 		bl	u8x8_cad_SendSequence
 180              	.LVL27:
 159:/Users/imashio/Electronics/ARM/_Library/u8x8_d_st7567.c ****       }
 181              		.loc 1 159 0
 182 00b8 2B68     		ldr	r3, [r5]
 183 00ba 9B7C     		ldrb	r3, [r3, #18]	@ zero_extendqisi2
 184 00bc AB77     		strb	r3, [r5, #30]
 209:/Users/imashio/Electronics/ARM/_Library/u8x8_d_st7567.c **** }
 185              		.loc 1 209 0
 186 00be 0120     		movs	r0, #1
 187 00c0 E5E7     		b	.L2
 188              	.LVL28:
 189              	.L8:
 169:/Users/imashio/Electronics/ARM/_Library/u8x8_d_st7567.c ****       u8x8_cad_SendCmd(u8x8, 0x081 );
 190              		.loc 1 169 0
 191 00c2 FFF7FEFF 		bl	u8x8_cad_StartTransfer
 192              	.LVL29:
 170:/Users/imashio/Electronics/ARM/_Library/u8x8_d_st7567.c ****       u8x8_cad_SendArg(u8x8, arg_int >> 2 );	/* st7567 has range from 0 to 63 */
 193              		.loc 1 170 0
 194 00c6 8121     		movs	r1, #129
 195 00c8 2846     		mov	r0, r5
 196 00ca FFF7FEFF 		bl	u8x8_cad_SendCmd
 197              	.LVL30:
 171:/Users/imashio/Electronics/ARM/_Library/u8x8_d_st7567.c ****       u8x8_cad_EndTransfer(u8x8);
 198              		.loc 1 171 0
 199 00ce A108     		lsrs	r1, r4, #2
 200 00d0 2846     		mov	r0, r5
 201 00d2 FFF7FEFF 		bl	u8x8_cad_SendArg
 202              	.LVL31:
 172:/Users/imashio/Electronics/ARM/_Library/u8x8_d_st7567.c ****       break;
 203              		.loc 1 172 0
 204 00d6 2846     		mov	r0, r5
 205 00d8 FFF7FEFF 		bl	u8x8_cad_EndTransfer
 206              	.LVL32:
 209:/Users/imashio/Electronics/ARM/_Library/u8x8_d_st7567.c **** }
 207              		.loc 1 209 0
 208 00dc 0120     		movs	r0, #1
 209              		.loc 1 210 0
 210 00de BDE8F081 		pop	{r4, r5, r6, r7, r8, pc}
 211              	.LVL33:
 212              	.L14:
 207:/Users/imashio/Electronics/ARM/_Library/u8x8_d_st7567.c ****   }
 213              		.loc 1 207 0
 214 00e2 0020     		movs	r0, #0
 215              	.LVL34:
 216 00e4 D3E7     		b	.L2
 217              	.LVL35:
 218              	.L10:
 153:/Users/imashio/Electronics/ARM/_Library/u8x8_d_st7567.c ****       break;
 219              		.loc 1 153 0
 220 00e6 0A49     		ldr	r1, .L18+16
 221 00e8 FFF7FEFF 		bl	u8x8_cad_SendSequence
 222              	.LVL36:
 209:/Users/imashio/Electronics/ARM/_Library/u8x8_d_st7567.c **** }
 223              		.loc 1 209 0
ARM GAS  /var/folders/v3/wysfpd052nz8jkbx04pk0ym80000gn/T//ccjuyJfd.s 			page 9


 224 00ec 0120     		movs	r0, #1
 225 00ee CEE7     		b	.L2
 226              	.LVL37:
 227              	.L11:
 163:/Users/imashio/Electronics/ARM/_Library/u8x8_d_st7567.c **** 	u8x8->x_offset = u8x8->display_info->flipmode_x_offset;
 228              		.loc 1 163 0
 229 00f0 0849     		ldr	r1, .L18+20
 230 00f2 FFF7FEFF 		bl	u8x8_cad_SendSequence
 231              	.LVL38:
 164:/Users/imashio/Electronics/ARM/_Library/u8x8_d_st7567.c ****       }	
 232              		.loc 1 164 0
 233 00f6 2B68     		ldr	r3, [r5]
 234 00f8 DB7C     		ldrb	r3, [r3, #19]	@ zero_extendqisi2
 235 00fa AB77     		strb	r3, [r5, #30]
 209:/Users/imashio/Electronics/ARM/_Library/u8x8_d_st7567.c **** }
 236              		.loc 1 209 0
 237 00fc 0120     		movs	r0, #1
 238 00fe C6E7     		b	.L2
 239              	.L19:
 240              		.align	2
 241              	.L18:
 242 0100 00000000 		.word	.LANCHOR0
 243 0104 00000000 		.word	.LANCHOR1
 244 0108 00000000 		.word	.LANCHOR2
 245 010c 00000000 		.word	.LANCHOR4
 246 0110 00000000 		.word	.LANCHOR3
 247 0114 00000000 		.word	.LANCHOR5
 248              		.cfi_endproc
 249              	.LFE0:
 251              		.section	.text.u8x8_d_st7567_jlx12864,"ax",%progbits
 252              		.align	1
 253              		.p2align 2,,3
 254              		.global	u8x8_d_st7567_jlx12864
 255              		.syntax unified
 256              		.thumb
 257              		.thumb_func
 258              		.fpu fpv4-sp-d16
 260              	u8x8_d_st7567_jlx12864:
 261              	.LFB1:
 211:/Users/imashio/Electronics/ARM/_Library/u8x8_d_st7567.c **** 
 212:/Users/imashio/Electronics/ARM/_Library/u8x8_d_st7567.c **** 
 213:/Users/imashio/Electronics/ARM/_Library/u8x8_d_st7567.c **** 
 214:/Users/imashio/Electronics/ARM/_Library/u8x8_d_st7567.c **** 
 215:/Users/imashio/Electronics/ARM/_Library/u8x8_d_st7567.c **** /*=====================================================*/
 216:/Users/imashio/Electronics/ARM/_Library/u8x8_d_st7567.c **** 
 217:/Users/imashio/Electronics/ARM/_Library/u8x8_d_st7567.c **** 
 218:/Users/imashio/Electronics/ARM/_Library/u8x8_d_st7567.c **** 
 219:/Users/imashio/Electronics/ARM/_Library/u8x8_d_st7567.c **** 
 220:/Users/imashio/Electronics/ARM/_Library/u8x8_d_st7567.c **** 
 221:/Users/imashio/Electronics/ARM/_Library/u8x8_d_st7567.c **** static const u8x8_display_info_t u8x8_st7567_jlx12864_display_info =
 222:/Users/imashio/Electronics/ARM/_Library/u8x8_d_st7567.c **** {
 223:/Users/imashio/Electronics/ARM/_Library/u8x8_d_st7567.c ****   /* chip_enable_level = */ 0,
 224:/Users/imashio/Electronics/ARM/_Library/u8x8_d_st7567.c ****   /* chip_disable_level = */ 1,
 225:/Users/imashio/Electronics/ARM/_Library/u8x8_d_st7567.c ****   
 226:/Users/imashio/Electronics/ARM/_Library/u8x8_d_st7567.c ****   /* post_chip_enable_wait_ns = */ 150,	/* */
 227:/Users/imashio/Electronics/ARM/_Library/u8x8_d_st7567.c ****   /* pre_chip_disable_wait_ns = */ 50,	/* */
 228:/Users/imashio/Electronics/ARM/_Library/u8x8_d_st7567.c ****   /* reset_pulse_width_ms = */ 1, 
ARM GAS  /var/folders/v3/wysfpd052nz8jkbx04pk0ym80000gn/T//ccjuyJfd.s 			page 10


 229:/Users/imashio/Electronics/ARM/_Library/u8x8_d_st7567.c ****   /* post_reset_wait_ms = */ 1, 
 230:/Users/imashio/Electronics/ARM/_Library/u8x8_d_st7567.c ****   /* sda_setup_time_ns = */ 50,		/* */
 231:/Users/imashio/Electronics/ARM/_Library/u8x8_d_st7567.c ****   /* sck_pulse_width_ns = */ 120,	/* */
 232:/Users/imashio/Electronics/ARM/_Library/u8x8_d_st7567.c ****   /* sck_clock_hz = */ 4000000UL,	/* */
 233:/Users/imashio/Electronics/ARM/_Library/u8x8_d_st7567.c ****   /* spi_mode = */ 0,		/* active high, rising edge */
 234:/Users/imashio/Electronics/ARM/_Library/u8x8_d_st7567.c ****   /* i2c_bus_clock_100kHz = */ 4,
 235:/Users/imashio/Electronics/ARM/_Library/u8x8_d_st7567.c ****   /* data_setup_time_ns = */ 40,	/* */
 236:/Users/imashio/Electronics/ARM/_Library/u8x8_d_st7567.c ****   /* write_pulse_width_ns = */ 80,	/* */
 237:/Users/imashio/Electronics/ARM/_Library/u8x8_d_st7567.c ****   /* tile_width = */ 16,		/* width of 16*8=128 pixel */
 238:/Users/imashio/Electronics/ARM/_Library/u8x8_d_st7567.c ****   /* tile_hight = */ 8,
 239:/Users/imashio/Electronics/ARM/_Library/u8x8_d_st7567.c ****   /* default_x_offset = */ 4,
 240:/Users/imashio/Electronics/ARM/_Library/u8x8_d_st7567.c ****   /* flipmode_x_offset = */ 0,
 241:/Users/imashio/Electronics/ARM/_Library/u8x8_d_st7567.c ****   /* pixel_width = */ 128,
 242:/Users/imashio/Electronics/ARM/_Library/u8x8_d_st7567.c ****   /* pixel_height = */ 64
 243:/Users/imashio/Electronics/ARM/_Library/u8x8_d_st7567.c **** };
 244:/Users/imashio/Electronics/ARM/_Library/u8x8_d_st7567.c **** 
 245:/Users/imashio/Electronics/ARM/_Library/u8x8_d_st7567.c **** static const uint8_t u8x8_st7567_jlx12864_init_seq[] = {
 246:/Users/imashio/Electronics/ARM/_Library/u8x8_d_st7567.c ****     
 247:/Users/imashio/Electronics/ARM/_Library/u8x8_d_st7567.c ****   U8X8_START_TRANSFER(),             	/* enable chip, delay is part of the transfer start */
 248:/Users/imashio/Electronics/ARM/_Library/u8x8_d_st7567.c ****   
 249:/Users/imashio/Electronics/ARM/_Library/u8x8_d_st7567.c ****   U8X8_C(0x0e2),            			/* soft reset */
 250:/Users/imashio/Electronics/ARM/_Library/u8x8_d_st7567.c ****   U8X8_C(0x0ae),		                /* display off */
 251:/Users/imashio/Electronics/ARM/_Library/u8x8_d_st7567.c ****   U8X8_C(0x040),		                /* set display start line to 0 */
 252:/Users/imashio/Electronics/ARM/_Library/u8x8_d_st7567.c ****   
 253:/Users/imashio/Electronics/ARM/_Library/u8x8_d_st7567.c ****   U8X8_C(0x0a1),		                /* ADC set to reverse */
 254:/Users/imashio/Electronics/ARM/_Library/u8x8_d_st7567.c ****   U8X8_C(0x0c0),		                /* common output mode */
 255:/Users/imashio/Electronics/ARM/_Library/u8x8_d_st7567.c ****   // Flipmode
 256:/Users/imashio/Electronics/ARM/_Library/u8x8_d_st7567.c ****   //U8X8_C(0x0a0),		                /* ADC set to reverse */
 257:/Users/imashio/Electronics/ARM/_Library/u8x8_d_st7567.c ****   //U8X8_C(0x0c8),		                /* common output mode */
 258:/Users/imashio/Electronics/ARM/_Library/u8x8_d_st7567.c ****   
 259:/Users/imashio/Electronics/ARM/_Library/u8x8_d_st7567.c ****   U8X8_C(0x0a6),		                /* display normal, bit val 0: LCD pixel off. */
 260:/Users/imashio/Electronics/ARM/_Library/u8x8_d_st7567.c ****   U8X8_C(0x0a3),		                /* LCD bias 1/7 */
 261:/Users/imashio/Electronics/ARM/_Library/u8x8_d_st7567.c ****   /* power on sequence from paxinstruments */
 262:/Users/imashio/Electronics/ARM/_Library/u8x8_d_st7567.c ****   U8X8_C(0x028|4),		                /* all power  control circuits on */
 263:/Users/imashio/Electronics/ARM/_Library/u8x8_d_st7567.c ****   U8X8_DLY(50),
 264:/Users/imashio/Electronics/ARM/_Library/u8x8_d_st7567.c ****   U8X8_C(0x028|6),		                /* all power  control circuits on */
 265:/Users/imashio/Electronics/ARM/_Library/u8x8_d_st7567.c ****   U8X8_DLY(50),
 266:/Users/imashio/Electronics/ARM/_Library/u8x8_d_st7567.c ****   U8X8_C(0x028|7),		                /* all power  control circuits on */
 267:/Users/imashio/Electronics/ARM/_Library/u8x8_d_st7567.c ****   U8X8_DLY(50),
 268:/Users/imashio/Electronics/ARM/_Library/u8x8_d_st7567.c ****   
 269:/Users/imashio/Electronics/ARM/_Library/u8x8_d_st7567.c ****   U8X8_C(0x023),		                /* v0 voltage resistor ratio */
 270:/Users/imashio/Electronics/ARM/_Library/u8x8_d_st7567.c ****   U8X8_CA(0x081, 42>>2),		/* set contrast, contrast value*/
 271:/Users/imashio/Electronics/ARM/_Library/u8x8_d_st7567.c ****   
 272:/Users/imashio/Electronics/ARM/_Library/u8x8_d_st7567.c ****   U8X8_C(0x0ae),		                /* display off */
 273:/Users/imashio/Electronics/ARM/_Library/u8x8_d_st7567.c ****   U8X8_C(0x0a5),		                /* enter powersafe: all pixel on, issue 142 */
 274:/Users/imashio/Electronics/ARM/_Library/u8x8_d_st7567.c ****    
 275:/Users/imashio/Electronics/ARM/_Library/u8x8_d_st7567.c ****   U8X8_END_TRANSFER(),             	/* disable chip */
 276:/Users/imashio/Electronics/ARM/_Library/u8x8_d_st7567.c ****   U8X8_END()             			/* end of sequence */
 277:/Users/imashio/Electronics/ARM/_Library/u8x8_d_st7567.c **** };
 278:/Users/imashio/Electronics/ARM/_Library/u8x8_d_st7567.c **** 
 279:/Users/imashio/Electronics/ARM/_Library/u8x8_d_st7567.c **** /* JLX12864 display */
 280:/Users/imashio/Electronics/ARM/_Library/u8x8_d_st7567.c **** uint8_t u8x8_d_st7567_jlx12864(u8x8_t *u8x8, uint8_t msg, uint8_t arg_int, void *arg_ptr)
 281:/Users/imashio/Electronics/ARM/_Library/u8x8_d_st7567.c **** {
 262              		.loc 1 281 0
 263              		.cfi_startproc
 264              		@ args = 0, pretend = 0, frame = 0
 265              		@ frame_needed = 0, uses_anonymous_args = 0
ARM GAS  /var/folders/v3/wysfpd052nz8jkbx04pk0ym80000gn/T//ccjuyJfd.s 			page 11


 266              	.LVL39:
 282:/Users/imashio/Electronics/ARM/_Library/u8x8_d_st7567.c ****   uint8_t x, c;
 283:/Users/imashio/Electronics/ARM/_Library/u8x8_d_st7567.c ****   uint8_t *ptr;
 284:/Users/imashio/Electronics/ARM/_Library/u8x8_d_st7567.c ****   switch(msg)
 267              		.loc 1 284 0
 268 0000 0939     		subs	r1, r1, #9
 269              	.LVL40:
 281:/Users/imashio/Electronics/ARM/_Library/u8x8_d_st7567.c ****   uint8_t x, c;
 270              		.loc 1 281 0
 271 0002 2DE9F041 		push	{r4, r5, r6, r7, r8, lr}
 272              	.LCFI1:
 273              		.cfi_def_cfa_offset 24
 274              		.cfi_offset 4, -24
 275              		.cfi_offset 5, -20
 276              		.cfi_offset 6, -16
 277              		.cfi_offset 7, -12
 278              		.cfi_offset 8, -8
 279              		.cfi_offset 14, -4
 281:/Users/imashio/Electronics/ARM/_Library/u8x8_d_st7567.c ****   uint8_t x, c;
 280              		.loc 1 281 0
 281 0006 0546     		mov	r5, r0
 282 0008 1446     		mov	r4, r2
 283 000a 1F46     		mov	r7, r3
 284              		.loc 1 284 0
 285 000c 0629     		cmp	r1, #6
 286 000e 68D8     		bhi	.L33
 287 0010 DFE801F0 		tbb	[pc, r1]
 288              	.LVL41:
 289              	.L23:
 290 0014 39       		.byte	(.L22-.L23)/2
 291 0015 3F       		.byte	(.L24-.L23)/2
 292 0016 48       		.byte	(.L25-.L23)/2
 293 0017 67       		.byte	(.L33-.L23)/2
 294 0018 4E       		.byte	(.L26-.L23)/2
 295 0019 57       		.byte	(.L27-.L23)/2
 296 001a 04       		.byte	(.L28-.L23)/2
 297 001b 00       		.p2align 1
 298              	.L28:
 285:/Users/imashio/Electronics/ARM/_Library/u8x8_d_st7567.c ****   {
 286:/Users/imashio/Electronics/ARM/_Library/u8x8_d_st7567.c ****     case U8X8_MSG_DISPLAY_SETUP_MEMORY:
 287:/Users/imashio/Electronics/ARM/_Library/u8x8_d_st7567.c ****       u8x8_d_helper_display_setup_memory(u8x8, &u8x8_st7567_jlx12864_display_info);
 288:/Users/imashio/Electronics/ARM/_Library/u8x8_d_st7567.c ****       break;
 289:/Users/imashio/Electronics/ARM/_Library/u8x8_d_st7567.c ****     case U8X8_MSG_DISPLAY_INIT:
 290:/Users/imashio/Electronics/ARM/_Library/u8x8_d_st7567.c ****       u8x8_d_helper_display_init(u8x8);
 291:/Users/imashio/Electronics/ARM/_Library/u8x8_d_st7567.c ****       u8x8_cad_SendSequence(u8x8, u8x8_st7567_jlx12864_init_seq);
 292:/Users/imashio/Electronics/ARM/_Library/u8x8_d_st7567.c ****       break;
 293:/Users/imashio/Electronics/ARM/_Library/u8x8_d_st7567.c ****     case U8X8_MSG_DISPLAY_SET_POWER_SAVE:
 294:/Users/imashio/Electronics/ARM/_Library/u8x8_d_st7567.c ****       if ( arg_int == 0 )
 295:/Users/imashio/Electronics/ARM/_Library/u8x8_d_st7567.c **** 	u8x8_cad_SendSequence(u8x8, u8x8_d_st7567_132x64_powersave0_seq);
 296:/Users/imashio/Electronics/ARM/_Library/u8x8_d_st7567.c ****       else
 297:/Users/imashio/Electronics/ARM/_Library/u8x8_d_st7567.c **** 	u8x8_cad_SendSequence(u8x8, u8x8_d_st7567_132x64_powersave1_seq);
 298:/Users/imashio/Electronics/ARM/_Library/u8x8_d_st7567.c ****       break;
 299:/Users/imashio/Electronics/ARM/_Library/u8x8_d_st7567.c ****     case U8X8_MSG_DISPLAY_SET_FLIP_MODE:
 300:/Users/imashio/Electronics/ARM/_Library/u8x8_d_st7567.c ****       if ( arg_int == 0 )
 301:/Users/imashio/Electronics/ARM/_Library/u8x8_d_st7567.c ****       {
 302:/Users/imashio/Electronics/ARM/_Library/u8x8_d_st7567.c **** 	u8x8_cad_SendSequence(u8x8, u8x8_d_st7567_132x64_flip0_seq);
 303:/Users/imashio/Electronics/ARM/_Library/u8x8_d_st7567.c **** 	u8x8->x_offset = u8x8->display_info->default_x_offset;
ARM GAS  /var/folders/v3/wysfpd052nz8jkbx04pk0ym80000gn/T//ccjuyJfd.s 			page 12


 304:/Users/imashio/Electronics/ARM/_Library/u8x8_d_st7567.c ****       }
 305:/Users/imashio/Electronics/ARM/_Library/u8x8_d_st7567.c ****       else
 306:/Users/imashio/Electronics/ARM/_Library/u8x8_d_st7567.c ****       {
 307:/Users/imashio/Electronics/ARM/_Library/u8x8_d_st7567.c **** 	u8x8_cad_SendSequence(u8x8, u8x8_d_st7567_132x64_flip1_seq);
 308:/Users/imashio/Electronics/ARM/_Library/u8x8_d_st7567.c **** 	u8x8->x_offset = u8x8->display_info->flipmode_x_offset;
 309:/Users/imashio/Electronics/ARM/_Library/u8x8_d_st7567.c ****       }	
 310:/Users/imashio/Electronics/ARM/_Library/u8x8_d_st7567.c ****       break;
 311:/Users/imashio/Electronics/ARM/_Library/u8x8_d_st7567.c **** #ifdef U8X8_WITH_SET_CONTRAST
 312:/Users/imashio/Electronics/ARM/_Library/u8x8_d_st7567.c ****     case U8X8_MSG_DISPLAY_SET_CONTRAST:
 313:/Users/imashio/Electronics/ARM/_Library/u8x8_d_st7567.c ****       u8x8_cad_StartTransfer(u8x8);
 314:/Users/imashio/Electronics/ARM/_Library/u8x8_d_st7567.c ****       u8x8_cad_SendCmd(u8x8, 0x081 );
 315:/Users/imashio/Electronics/ARM/_Library/u8x8_d_st7567.c ****       u8x8_cad_SendArg(u8x8, arg_int >> 2 );	/* st7567 has range from 0 to 63 */
 316:/Users/imashio/Electronics/ARM/_Library/u8x8_d_st7567.c ****       u8x8_cad_EndTransfer(u8x8);
 317:/Users/imashio/Electronics/ARM/_Library/u8x8_d_st7567.c ****       break;
 318:/Users/imashio/Electronics/ARM/_Library/u8x8_d_st7567.c **** #endif
 319:/Users/imashio/Electronics/ARM/_Library/u8x8_d_st7567.c ****     case U8X8_MSG_DISPLAY_DRAW_TILE:
 320:/Users/imashio/Electronics/ARM/_Library/u8x8_d_st7567.c ****       u8x8_cad_StartTransfer(u8x8);
 299              		.loc 1 320 0
 300 001c FFF7FEFF 		bl	u8x8_cad_StartTransfer
 301              	.LVL42:
 321:/Users/imashio/Electronics/ARM/_Library/u8x8_d_st7567.c ****     
 322:/Users/imashio/Electronics/ARM/_Library/u8x8_d_st7567.c ****       x = ((u8x8_tile_t *)arg_ptr)->x_pos;
 302              		.loc 1 322 0
 303 0020 7E79     		ldrb	r6, [r7, #5]	@ zero_extendqisi2
 304              	.LVL43:
 323:/Users/imashio/Electronics/ARM/_Library/u8x8_d_st7567.c ****       x *= 8;
 324:/Users/imashio/Electronics/ARM/_Library/u8x8_d_st7567.c ****       x += u8x8->x_offset;
 305              		.loc 1 324 0
 306 0022 95F81E80 		ldrb	r8, [r5, #30]	@ zero_extendqisi2
 307 0026 08EBC608 		add	r8, r8, r6, lsl #3
 308 002a 08F0FF08 		and	r8, r8, #255
 309              	.LVL44:
 325:/Users/imashio/Electronics/ARM/_Library/u8x8_d_st7567.c ****       u8x8_cad_SendCmd(u8x8, 0x010 | (x>>4) );
 310              		.loc 1 325 0
 311 002e 4FEA1811 		lsr	r1, r8, #4
 312 0032 41F01001 		orr	r1, r1, #16
 313 0036 2846     		mov	r0, r5
 314 0038 FFF7FEFF 		bl	u8x8_cad_SendCmd
 315              	.LVL45:
 326:/Users/imashio/Electronics/ARM/_Library/u8x8_d_st7567.c ****       u8x8_cad_SendCmd(u8x8, 0x000 | ((x&15)));
 316              		.loc 1 326 0
 317 003c 08F00F01 		and	r1, r8, #15
 318 0040 2846     		mov	r0, r5
 319 0042 FFF7FEFF 		bl	u8x8_cad_SendCmd
 320              	.LVL46:
 327:/Users/imashio/Electronics/ARM/_Library/u8x8_d_st7567.c ****       u8x8_cad_SendCmd(u8x8, 0x0b0 | (((u8x8_tile_t *)arg_ptr)->y_pos));
 321              		.loc 1 327 0
 322 0046 B979     		ldrb	r1, [r7, #6]	@ zero_extendqisi2
 323 0048 2846     		mov	r0, r5
 324 004a 41F0B001 		orr	r1, r1, #176
 325 004e FFF7FEFF 		bl	u8x8_cad_SendCmd
 326              	.LVL47:
 328:/Users/imashio/Electronics/ARM/_Library/u8x8_d_st7567.c ****     
 329:/Users/imashio/Electronics/ARM/_Library/u8x8_d_st7567.c ****       c = ((u8x8_tile_t *)arg_ptr)->cnt;
 327              		.loc 1 329 0
 328 0052 3E79     		ldrb	r6, [r7, #4]	@ zero_extendqisi2
 329              	.LVL48:
ARM GAS  /var/folders/v3/wysfpd052nz8jkbx04pk0ym80000gn/T//ccjuyJfd.s 			page 13


 330:/Users/imashio/Electronics/ARM/_Library/u8x8_d_st7567.c ****       c *= 8;
 331:/Users/imashio/Electronics/ARM/_Library/u8x8_d_st7567.c ****       ptr = ((u8x8_tile_t *)arg_ptr)->tile_ptr;
 330              		.loc 1 331 0
 331 0054 3F68     		ldr	r7, [r7]
 332              	.LVL49:
 330:/Users/imashio/Electronics/ARM/_Library/u8x8_d_st7567.c ****       c *= 8;
 333              		.loc 1 330 0
 334 0056 F600     		lsls	r6, r6, #3
 335              	.LVL50:
 336 0058 F6B2     		uxtb	r6, r6
 337              	.LVL51:
 332:/Users/imashio/Electronics/ARM/_Library/u8x8_d_st7567.c ****       /* 
 333:/Users/imashio/Electronics/ARM/_Library/u8x8_d_st7567.c **** 	The following if condition checks the hardware limits of the st7567 
 334:/Users/imashio/Electronics/ARM/_Library/u8x8_d_st7567.c **** 	controller: It is not allowed to write beyond the display limits.
 335:/Users/imashio/Electronics/ARM/_Library/u8x8_d_st7567.c **** 	This is in fact an issue within flip mode.
 336:/Users/imashio/Electronics/ARM/_Library/u8x8_d_st7567.c ****       */
 337:/Users/imashio/Electronics/ARM/_Library/u8x8_d_st7567.c ****       if ( c + x > 132u )
 338              		.loc 1 337 0
 339 005a 06EB0803 		add	r3, r6, r8
 340 005e 842B     		cmp	r3, #132
 341              	.LVL52:
 338:/Users/imashio/Electronics/ARM/_Library/u8x8_d_st7567.c ****       {
 339:/Users/imashio/Electronics/ARM/_Library/u8x8_d_st7567.c **** 	c = 132u;
 340:/Users/imashio/Electronics/ARM/_Library/u8x8_d_st7567.c **** 	c -= x;
 342              		.loc 1 340 0
 343 0060 C4BF     		itt	gt
 344 0062 C8F18406 		rsbgt	r6, r8, #132
 345 0066 F6B2     		uxtbgt	r6, r6
 346              	.LVL53:
 347              	.L32:
 341:/Users/imashio/Electronics/ARM/_Library/u8x8_d_st7567.c ****       }
 342:/Users/imashio/Electronics/ARM/_Library/u8x8_d_st7567.c ****       do
 343:/Users/imashio/Electronics/ARM/_Library/u8x8_d_st7567.c ****       {
 344:/Users/imashio/Electronics/ARM/_Library/u8x8_d_st7567.c **** 	u8x8_cad_SendData(u8x8, c, ptr);	/* note: SendData can not handle more than 255 bytes */
 348              		.loc 1 344 0 discriminator 1
 349 0068 3A46     		mov	r2, r7
 350 006a 3146     		mov	r1, r6
 351 006c 2846     		mov	r0, r5
 345:/Users/imashio/Electronics/ARM/_Library/u8x8_d_st7567.c **** 	arg_int--;
 352              		.loc 1 345 0 discriminator 1
 353 006e 013C     		subs	r4, r4, #1
 354              	.LVL54:
 344:/Users/imashio/Electronics/ARM/_Library/u8x8_d_st7567.c **** 	arg_int--;
 355              		.loc 1 344 0 discriminator 1
 356 0070 FFF7FEFF 		bl	u8x8_cad_SendData
 357              	.LVL55:
 346:/Users/imashio/Electronics/ARM/_Library/u8x8_d_st7567.c ****       } while( arg_int > 0 );
 358              		.loc 1 346 0 discriminator 1
 359 0074 14F0FF04 		ands	r4, r4, #255
 360              	.LVL56:
 361 0078 F6D1     		bne	.L32
 347:/Users/imashio/Electronics/ARM/_Library/u8x8_d_st7567.c ****       
 348:/Users/imashio/Electronics/ARM/_Library/u8x8_d_st7567.c ****       u8x8_cad_EndTransfer(u8x8);
 362              		.loc 1 348 0
 363 007a 2846     		mov	r0, r5
 364 007c FFF7FEFF 		bl	u8x8_cad_EndTransfer
 365              	.LVL57:
ARM GAS  /var/folders/v3/wysfpd052nz8jkbx04pk0ym80000gn/T//ccjuyJfd.s 			page 14


 349:/Users/imashio/Electronics/ARM/_Library/u8x8_d_st7567.c ****       break;
 350:/Users/imashio/Electronics/ARM/_Library/u8x8_d_st7567.c ****     default:
 351:/Users/imashio/Electronics/ARM/_Library/u8x8_d_st7567.c ****       return 0;
 352:/Users/imashio/Electronics/ARM/_Library/u8x8_d_st7567.c ****   }
 353:/Users/imashio/Electronics/ARM/_Library/u8x8_d_st7567.c ****   return 1;
 366              		.loc 1 353 0
 367 0080 0120     		movs	r0, #1
 354:/Users/imashio/Electronics/ARM/_Library/u8x8_d_st7567.c **** }
 368              		.loc 1 354 0
 369 0082 BDE8F081 		pop	{r4, r5, r6, r7, r8, pc}
 370              	.LVL58:
 371              	.L22:
 287:/Users/imashio/Electronics/ARM/_Library/u8x8_d_st7567.c ****       break;
 372              		.loc 1 287 0
 373 0086 1E49     		ldr	r1, .L36
 374 0088 FFF7FEFF 		bl	u8x8_d_helper_display_setup_memory
 375              	.LVL59:
 353:/Users/imashio/Electronics/ARM/_Library/u8x8_d_st7567.c **** }
 376              		.loc 1 353 0
 377 008c 0120     		movs	r0, #1
 378              	.L21:
 379              		.loc 1 354 0
 380 008e BDE8F081 		pop	{r4, r5, r6, r7, r8, pc}
 381              	.LVL60:
 382              	.L24:
 290:/Users/imashio/Electronics/ARM/_Library/u8x8_d_st7567.c ****       u8x8_cad_SendSequence(u8x8, u8x8_st7567_jlx12864_init_seq);
 383              		.loc 1 290 0
 384 0092 FFF7FEFF 		bl	u8x8_d_helper_display_init
 385              	.LVL61:
 291:/Users/imashio/Electronics/ARM/_Library/u8x8_d_st7567.c ****       break;
 386              		.loc 1 291 0
 387 0096 2846     		mov	r0, r5
 388 0098 1A49     		ldr	r1, .L36+4
 389 009a FFF7FEFF 		bl	u8x8_cad_SendSequence
 390              	.LVL62:
 353:/Users/imashio/Electronics/ARM/_Library/u8x8_d_st7567.c **** }
 391              		.loc 1 353 0
 392 009e 0120     		movs	r0, #1
 393              		.loc 1 354 0
 394 00a0 BDE8F081 		pop	{r4, r5, r6, r7, r8, pc}
 395              	.LVL63:
 396              	.L25:
 294:/Users/imashio/Electronics/ARM/_Library/u8x8_d_st7567.c **** 	u8x8_cad_SendSequence(u8x8, u8x8_d_st7567_132x64_powersave0_seq);
 397              		.loc 1 294 0
 398 00a4 FAB9     		cbnz	r2, .L29
 295:/Users/imashio/Electronics/ARM/_Library/u8x8_d_st7567.c ****       else
 399              		.loc 1 295 0
 400 00a6 1849     		ldr	r1, .L36+8
 401 00a8 FFF7FEFF 		bl	u8x8_cad_SendSequence
 402              	.LVL64:
 353:/Users/imashio/Electronics/ARM/_Library/u8x8_d_st7567.c **** }
 403              		.loc 1 353 0
 404 00ac 0120     		movs	r0, #1
 405 00ae EEE7     		b	.L21
 406              	.LVL65:
 407              	.L26:
 300:/Users/imashio/Electronics/ARM/_Library/u8x8_d_st7567.c ****       {
ARM GAS  /var/folders/v3/wysfpd052nz8jkbx04pk0ym80000gn/T//ccjuyJfd.s 			page 15


 408              		.loc 1 300 0
 409 00b0 F2B9     		cbnz	r2, .L30
 302:/Users/imashio/Electronics/ARM/_Library/u8x8_d_st7567.c **** 	u8x8->x_offset = u8x8->display_info->default_x_offset;
 410              		.loc 1 302 0
 411 00b2 1649     		ldr	r1, .L36+12
 412 00b4 FFF7FEFF 		bl	u8x8_cad_SendSequence
 413              	.LVL66:
 303:/Users/imashio/Electronics/ARM/_Library/u8x8_d_st7567.c ****       }
 414              		.loc 1 303 0
 415 00b8 2B68     		ldr	r3, [r5]
 416 00ba 9B7C     		ldrb	r3, [r3, #18]	@ zero_extendqisi2
 417 00bc AB77     		strb	r3, [r5, #30]
 353:/Users/imashio/Electronics/ARM/_Library/u8x8_d_st7567.c **** }
 418              		.loc 1 353 0
 419 00be 0120     		movs	r0, #1
 420 00c0 E5E7     		b	.L21
 421              	.LVL67:
 422              	.L27:
 313:/Users/imashio/Electronics/ARM/_Library/u8x8_d_st7567.c ****       u8x8_cad_SendCmd(u8x8, 0x081 );
 423              		.loc 1 313 0
 424 00c2 FFF7FEFF 		bl	u8x8_cad_StartTransfer
 425              	.LVL68:
 314:/Users/imashio/Electronics/ARM/_Library/u8x8_d_st7567.c ****       u8x8_cad_SendArg(u8x8, arg_int >> 2 );	/* st7567 has range from 0 to 63 */
 426              		.loc 1 314 0
 427 00c6 8121     		movs	r1, #129
 428 00c8 2846     		mov	r0, r5
 429 00ca FFF7FEFF 		bl	u8x8_cad_SendCmd
 430              	.LVL69:
 315:/Users/imashio/Electronics/ARM/_Library/u8x8_d_st7567.c ****       u8x8_cad_EndTransfer(u8x8);
 431              		.loc 1 315 0
 432 00ce A108     		lsrs	r1, r4, #2
 433 00d0 2846     		mov	r0, r5
 434 00d2 FFF7FEFF 		bl	u8x8_cad_SendArg
 435              	.LVL70:
 316:/Users/imashio/Electronics/ARM/_Library/u8x8_d_st7567.c ****       break;
 436              		.loc 1 316 0
 437 00d6 2846     		mov	r0, r5
 438 00d8 FFF7FEFF 		bl	u8x8_cad_EndTransfer
 439              	.LVL71:
 353:/Users/imashio/Electronics/ARM/_Library/u8x8_d_st7567.c **** }
 440              		.loc 1 353 0
 441 00dc 0120     		movs	r0, #1
 442              		.loc 1 354 0
 443 00de BDE8F081 		pop	{r4, r5, r6, r7, r8, pc}
 444              	.LVL72:
 445              	.L33:
 351:/Users/imashio/Electronics/ARM/_Library/u8x8_d_st7567.c ****   }
 446              		.loc 1 351 0
 447 00e2 0020     		movs	r0, #0
 448              	.LVL73:
 449 00e4 D3E7     		b	.L21
 450              	.LVL74:
 451              	.L29:
 297:/Users/imashio/Electronics/ARM/_Library/u8x8_d_st7567.c ****       break;
 452              		.loc 1 297 0
 453 00e6 0A49     		ldr	r1, .L36+16
 454 00e8 FFF7FEFF 		bl	u8x8_cad_SendSequence
ARM GAS  /var/folders/v3/wysfpd052nz8jkbx04pk0ym80000gn/T//ccjuyJfd.s 			page 16


 455              	.LVL75:
 353:/Users/imashio/Electronics/ARM/_Library/u8x8_d_st7567.c **** }
 456              		.loc 1 353 0
 457 00ec 0120     		movs	r0, #1
 458 00ee CEE7     		b	.L21
 459              	.LVL76:
 460              	.L30:
 307:/Users/imashio/Electronics/ARM/_Library/u8x8_d_st7567.c **** 	u8x8->x_offset = u8x8->display_info->flipmode_x_offset;
 461              		.loc 1 307 0
 462 00f0 0849     		ldr	r1, .L36+20
 463 00f2 FFF7FEFF 		bl	u8x8_cad_SendSequence
 464              	.LVL77:
 308:/Users/imashio/Electronics/ARM/_Library/u8x8_d_st7567.c ****       }	
 465              		.loc 1 308 0
 466 00f6 2B68     		ldr	r3, [r5]
 467 00f8 DB7C     		ldrb	r3, [r3, #19]	@ zero_extendqisi2
 468 00fa AB77     		strb	r3, [r5, #30]
 353:/Users/imashio/Electronics/ARM/_Library/u8x8_d_st7567.c **** }
 469              		.loc 1 353 0
 470 00fc 0120     		movs	r0, #1
 471 00fe C6E7     		b	.L21
 472              	.L37:
 473              		.align	2
 474              	.L36:
 475 0100 00000000 		.word	.LANCHOR6
 476 0104 00000000 		.word	.LANCHOR7
 477 0108 00000000 		.word	.LANCHOR2
 478 010c 00000000 		.word	.LANCHOR4
 479 0110 00000000 		.word	.LANCHOR3
 480 0114 00000000 		.word	.LANCHOR5
 481              		.cfi_endproc
 482              	.LFE1:
 484              		.section	.rodata.u8x8_d_st7567_132x64_flip0_seq,"a",%progbits
 485              		.align	2
 486              		.set	.LANCHOR4,. + 0
 489              	u8x8_d_st7567_132x64_flip0_seq:
 490 0000 18       		.byte	24
 491 0001 15       		.byte	21
 492 0002 A1       		.byte	-95
 493 0003 15       		.byte	21
 494 0004 C0       		.byte	-64
 495 0005 19       		.byte	25
 496 0006 FF       		.byte	-1
 497              		.section	.rodata.u8x8_d_st7567_132x64_flip1_seq,"a",%progbits
 498              		.align	2
 499              		.set	.LANCHOR5,. + 0
 502              	u8x8_d_st7567_132x64_flip1_seq:
 503 0000 18       		.byte	24
 504 0001 15       		.byte	21
 505 0002 A0       		.byte	-96
 506 0003 15       		.byte	21
 507 0004 C8       		.byte	-56
 508 0005 19       		.byte	25
 509 0006 FF       		.byte	-1
 510              		.section	.rodata.u8x8_d_st7567_132x64_init_seq,"a",%progbits
 511              		.align	2
 512              		.set	.LANCHOR1,. + 0
ARM GAS  /var/folders/v3/wysfpd052nz8jkbx04pk0ym80000gn/T//ccjuyJfd.s 			page 17


 515              	u8x8_d_st7567_132x64_init_seq:
 516 0000 18       		.byte	24
 517 0001 15       		.byte	21
 518 0002 E2       		.byte	-30
 519 0003 15       		.byte	21
 520 0004 AE       		.byte	-82
 521 0005 15       		.byte	21
 522 0006 40       		.byte	64
 523 0007 15       		.byte	21
 524 0008 A1       		.byte	-95
 525 0009 15       		.byte	21
 526 000a C0       		.byte	-64
 527 000b 15       		.byte	21
 528 000c A6       		.byte	-90
 529 000d 15       		.byte	21
 530 000e A3       		.byte	-93
 531 000f 15       		.byte	21
 532 0010 2C       		.byte	44
 533 0011 FE       		.byte	-2
 534 0012 32       		.byte	50
 535 0013 15       		.byte	21
 536 0014 2E       		.byte	46
 537 0015 FE       		.byte	-2
 538 0016 32       		.byte	50
 539 0017 15       		.byte	21
 540 0018 2F       		.byte	47
 541 0019 FE       		.byte	-2
 542 001a 32       		.byte	50
 543 001b 15       		.byte	21
 544 001c 26       		.byte	38
 545 001d 15       		.byte	21
 546 001e 81       		.byte	-127
 547 001f 16       		.byte	22
 548 0020 27       		.byte	39
 549 0021 15       		.byte	21
 550 0022 AE       		.byte	-82
 551 0023 15       		.byte	21
 552 0024 A5       		.byte	-91
 553 0025 19       		.byte	25
 554 0026 FF       		.byte	-1
 555              		.section	.rodata.u8x8_d_st7567_132x64_powersave0_seq,"a",%progbits
 556              		.align	2
 557              		.set	.LANCHOR2,. + 0
 560              	u8x8_d_st7567_132x64_powersave0_seq:
 561 0000 18       		.byte	24
 562 0001 15       		.byte	21
 563 0002 A4       		.byte	-92
 564 0003 15       		.byte	21
 565 0004 AF       		.byte	-81
 566 0005 19       		.byte	25
 567 0006 FF       		.byte	-1
 568              		.section	.rodata.u8x8_d_st7567_132x64_powersave1_seq,"a",%progbits
 569              		.align	2
 570              		.set	.LANCHOR3,. + 0
 573              	u8x8_d_st7567_132x64_powersave1_seq:
 574 0000 18       		.byte	24
 575 0001 15       		.byte	21
ARM GAS  /var/folders/v3/wysfpd052nz8jkbx04pk0ym80000gn/T//ccjuyJfd.s 			page 18


 576 0002 AE       		.byte	-82
 577 0003 15       		.byte	21
 578 0004 A5       		.byte	-91
 579 0005 19       		.byte	25
 580 0006 FF       		.byte	-1
 581              		.section	.rodata.u8x8_st7567_132x64_display_info,"a",%progbits
 582              		.align	2
 583              		.set	.LANCHOR0,. + 0
 586              	u8x8_st7567_132x64_display_info:
 587 0000 00       		.byte	0
 588 0001 01       		.byte	1
 589 0002 96       		.byte	-106
 590 0003 32       		.byte	50
 591 0004 01       		.byte	1
 592 0005 01       		.byte	1
 593 0006 32       		.byte	50
 594 0007 78       		.byte	120
 595 0008 00093D00 		.word	4000000
 596 000c 00       		.byte	0
 597 000d 04       		.byte	4
 598 000e 28       		.byte	40
 599 000f 50       		.byte	80
 600 0010 11       		.byte	17
 601 0011 08       		.byte	8
 602 0012 00       		.byte	0
 603 0013 00       		.byte	0
 604 0014 8400     		.short	132
 605 0016 4000     		.short	64
 606              		.section	.rodata.u8x8_st7567_jlx12864_display_info,"a",%progbits
 607              		.align	2
 608              		.set	.LANCHOR6,. + 0
 611              	u8x8_st7567_jlx12864_display_info:
 612 0000 00       		.byte	0
 613 0001 01       		.byte	1
 614 0002 96       		.byte	-106
 615 0003 32       		.byte	50
 616 0004 01       		.byte	1
 617 0005 01       		.byte	1
 618 0006 32       		.byte	50
 619 0007 78       		.byte	120
 620 0008 00093D00 		.word	4000000
 621 000c 00       		.byte	0
 622 000d 04       		.byte	4
 623 000e 28       		.byte	40
 624 000f 50       		.byte	80
 625 0010 10       		.byte	16
 626 0011 08       		.byte	8
 627 0012 04       		.byte	4
 628 0013 00       		.byte	0
 629 0014 8000     		.short	128
 630 0016 4000     		.short	64
 631              		.section	.rodata.u8x8_st7567_jlx12864_init_seq,"a",%progbits
 632              		.align	2
 633              		.set	.LANCHOR7,. + 0
 636              	u8x8_st7567_jlx12864_init_seq:
 637 0000 18       		.byte	24
 638 0001 15       		.byte	21
ARM GAS  /var/folders/v3/wysfpd052nz8jkbx04pk0ym80000gn/T//ccjuyJfd.s 			page 19


 639 0002 E2       		.byte	-30
 640 0003 15       		.byte	21
 641 0004 AE       		.byte	-82
 642 0005 15       		.byte	21
 643 0006 40       		.byte	64
 644 0007 15       		.byte	21
 645 0008 A1       		.byte	-95
 646 0009 15       		.byte	21
 647 000a C0       		.byte	-64
 648 000b 15       		.byte	21
 649 000c A6       		.byte	-90
 650 000d 15       		.byte	21
 651 000e A3       		.byte	-93
 652 000f 15       		.byte	21
 653 0010 2C       		.byte	44
 654 0011 FE       		.byte	-2
 655 0012 32       		.byte	50
 656 0013 15       		.byte	21
 657 0014 2E       		.byte	46
 658 0015 FE       		.byte	-2
 659 0016 32       		.byte	50
 660 0017 15       		.byte	21
 661 0018 2F       		.byte	47
 662 0019 FE       		.byte	-2
 663 001a 32       		.byte	50
 664 001b 15       		.byte	21
 665 001c 23       		.byte	35
 666 001d 15       		.byte	21
 667 001e 81       		.byte	-127
 668 001f 16       		.byte	22
 669 0020 0A       		.byte	10
 670 0021 15       		.byte	21
 671 0022 AE       		.byte	-82
 672 0023 15       		.byte	21
 673 0024 A5       		.byte	-91
 674 0025 19       		.byte	25
 675 0026 FF       		.byte	-1
 676              		.text
 677              	.Letext0:
 678              		.file 2 "/usr/local/gcc-arm-none-eabi-7-2018-q2-update/arm-none-eabi/include/machine/_default_type
 679              		.file 3 "/usr/local/gcc-arm-none-eabi-7-2018-q2-update/arm-none-eabi/include/sys/_stdint.h"
 680              		.file 4 "/Users/imashio/Electronics/ARM/_Library/u8x8.h"
ARM GAS  /var/folders/v3/wysfpd052nz8jkbx04pk0ym80000gn/T//ccjuyJfd.s 			page 20

