ARM GAS  /var/folders/v3/wysfpd052nz8jkbx04pk0ym80000gn/T//ccWcnbGm.s 			page 1


   1              		.cpu cortex-m4
   2              		.eabi_attribute 27, 1
   3              		.eabi_attribute 28, 1
   4              		.eabi_attribute 20, 1
   5              		.eabi_attribute 21, 1
   6              		.eabi_attribute 23, 3
   7              		.eabi_attribute 24, 1
   8              		.eabi_attribute 25, 1
   9              		.eabi_attribute 26, 1
  10              		.eabi_attribute 30, 2
  11              		.eabi_attribute 34, 1
  12              		.eabi_attribute 18, 4
  13              		.file	"u8x8_d_uc1610.c"
  14              		.text
  15              	.Ltext0:
  16              		.cfi_sections	.debug_frame
  17              		.section	.text.u8x8_d_uc1610_ea_dogxl160,"ax",%progbits
  18              		.align	1
  19              		.p2align 2,,3
  20              		.global	u8x8_d_uc1610_ea_dogxl160
  21              		.syntax unified
  22              		.thumb
  23              		.thumb_func
  24              		.fpu fpv4-sp-d16
  26              	u8x8_d_uc1610_ea_dogxl160:
  27              	.LFB1:
  28              		.file 1 "/Users/imashio/Electronics/ARM/_Library/u8x8_d_uc1610.c"
   1:/Users/imashio/Electronics/ARM/_Library/u8x8_d_uc1610.c **** /*
   2:/Users/imashio/Electronics/ARM/_Library/u8x8_d_uc1610.c **** 
   3:/Users/imashio/Electronics/ARM/_Library/u8x8_d_uc1610.c ****   u8x8_d_uc1610.c
   4:/Users/imashio/Electronics/ARM/_Library/u8x8_d_uc1610.c ****   
   5:/Users/imashio/Electronics/ARM/_Library/u8x8_d_uc1610.c ****   Universal 8bit Graphics Library (https://github.com/olikraus/u8g2/)
   6:/Users/imashio/Electronics/ARM/_Library/u8x8_d_uc1610.c **** 
   7:/Users/imashio/Electronics/ARM/_Library/u8x8_d_uc1610.c ****   Copyright (c) 2016, olikraus@gmail.com
   8:/Users/imashio/Electronics/ARM/_Library/u8x8_d_uc1610.c ****   All rights reserved.
   9:/Users/imashio/Electronics/ARM/_Library/u8x8_d_uc1610.c **** 
  10:/Users/imashio/Electronics/ARM/_Library/u8x8_d_uc1610.c ****   Redistribution and use in source and binary forms, with or without modification, 
  11:/Users/imashio/Electronics/ARM/_Library/u8x8_d_uc1610.c ****   are permitted provided that the following conditions are met:
  12:/Users/imashio/Electronics/ARM/_Library/u8x8_d_uc1610.c **** 
  13:/Users/imashio/Electronics/ARM/_Library/u8x8_d_uc1610.c ****   * Redistributions of source code must retain the above copyright notice, this list 
  14:/Users/imashio/Electronics/ARM/_Library/u8x8_d_uc1610.c ****     of conditions and the following disclaimer.
  15:/Users/imashio/Electronics/ARM/_Library/u8x8_d_uc1610.c ****     
  16:/Users/imashio/Electronics/ARM/_Library/u8x8_d_uc1610.c ****   * Redistributions in binary form must reproduce the above copyright notice, this 
  17:/Users/imashio/Electronics/ARM/_Library/u8x8_d_uc1610.c ****     list of conditions and the following disclaimer in the documentation and/or other 
  18:/Users/imashio/Electronics/ARM/_Library/u8x8_d_uc1610.c ****     materials provided with the distribution.
  19:/Users/imashio/Electronics/ARM/_Library/u8x8_d_uc1610.c **** 
  20:/Users/imashio/Electronics/ARM/_Library/u8x8_d_uc1610.c ****   THIS SOFTWARE IS PROVIDED BY THE COPYRIGHT HOLDERS AND 
  21:/Users/imashio/Electronics/ARM/_Library/u8x8_d_uc1610.c ****   CONTRIBUTORS "AS IS" AND ANY EXPRESS OR IMPLIED WARRANTIES, 
  22:/Users/imashio/Electronics/ARM/_Library/u8x8_d_uc1610.c ****   INCLUDING, BUT NOT LIMITED TO, THE IMPLIED WARRANTIES OF 
  23:/Users/imashio/Electronics/ARM/_Library/u8x8_d_uc1610.c ****   MERCHANTABILITY AND FITNESS FOR A PARTICULAR PURPOSE ARE 
  24:/Users/imashio/Electronics/ARM/_Library/u8x8_d_uc1610.c ****   DISCLAIMED. IN NO EVENT SHALL THE COPYRIGHT HOLDER OR 
  25:/Users/imashio/Electronics/ARM/_Library/u8x8_d_uc1610.c ****   CONTRIBUTORS BE LIABLE FOR ANY DIRECT, INDIRECT, INCIDENTAL, 
  26:/Users/imashio/Electronics/ARM/_Library/u8x8_d_uc1610.c ****   SPECIAL, EXEMPLARY, OR CONSEQUENTIAL DAMAGES (INCLUDING, BUT 
  27:/Users/imashio/Electronics/ARM/_Library/u8x8_d_uc1610.c ****   NOT LIMITED TO, PROCUREMENT OF SUBSTITUTE GOODS OR SERVICES; 
  28:/Users/imashio/Electronics/ARM/_Library/u8x8_d_uc1610.c ****   LOSS OF USE, DATA, OR PROFITS; OR BUSINESS INTERRUPTION) HOWEVER 
  29:/Users/imashio/Electronics/ARM/_Library/u8x8_d_uc1610.c ****   CAUSED AND ON ANY THEORY OF LIABILITY, WHETHER IN CONTRACT, 
  30:/Users/imashio/Electronics/ARM/_Library/u8x8_d_uc1610.c ****   STRICT LIABILITY, OR TORT (INCLUDING NEGLIGENCE OR OTHERWISE) 
ARM GAS  /var/folders/v3/wysfpd052nz8jkbx04pk0ym80000gn/T//ccWcnbGm.s 			page 2


  31:/Users/imashio/Electronics/ARM/_Library/u8x8_d_uc1610.c ****   ARISING IN ANY WAY OUT OF THE USE OF THIS SOFTWARE, EVEN IF 
  32:/Users/imashio/Electronics/ARM/_Library/u8x8_d_uc1610.c ****   ADVISED OF THE POSSIBILITY OF SUCH DAMAGE.  
  33:/Users/imashio/Electronics/ARM/_Library/u8x8_d_uc1610.c **** 
  34:/Users/imashio/Electronics/ARM/_Library/u8x8_d_uc1610.c ****   
  35:/Users/imashio/Electronics/ARM/_Library/u8x8_d_uc1610.c ****   cad001
  36:/Users/imashio/Electronics/ARM/_Library/u8x8_d_uc1610.c ****   
  37:/Users/imashio/Electronics/ARM/_Library/u8x8_d_uc1610.c **** */
  38:/Users/imashio/Electronics/ARM/_Library/u8x8_d_uc1610.c **** #include "u8x8.h"
  39:/Users/imashio/Electronics/ARM/_Library/u8x8_d_uc1610.c **** 
  40:/Users/imashio/Electronics/ARM/_Library/u8x8_d_uc1610.c **** 
  41:/Users/imashio/Electronics/ARM/_Library/u8x8_d_uc1610.c **** 
  42:/Users/imashio/Electronics/ARM/_Library/u8x8_d_uc1610.c **** 
  43:/Users/imashio/Electronics/ARM/_Library/u8x8_d_uc1610.c **** static const uint8_t u8x8_d_uc1610_dogxl160_init_seq[] = {
  44:/Users/imashio/Electronics/ARM/_Library/u8x8_d_uc1610.c ****     
  45:/Users/imashio/Electronics/ARM/_Library/u8x8_d_uc1610.c ****   U8X8_START_TRANSFER(),             	/* enable chip, delay is part of the transfer start */
  46:/Users/imashio/Electronics/ARM/_Library/u8x8_d_uc1610.c **** 
  47:/Users/imashio/Electronics/ARM/_Library/u8x8_d_uc1610.c ****   U8X8_CA(0x0f1, 0x067),		/* set COM end (display height-1) */
  48:/Users/imashio/Electronics/ARM/_Library/u8x8_d_uc1610.c ****   U8X8_C(0x0c0),            			/* SEG & COM normal */
  49:/Users/imashio/Electronics/ARM/_Library/u8x8_d_uc1610.c ****   U8X8_C(0x040),            			/* set scroll line lsb to zero */
  50:/Users/imashio/Electronics/ARM/_Library/u8x8_d_uc1610.c ****   U8X8_C(0x050),            			/* set scroll line msb to zero */
  51:/Users/imashio/Electronics/ARM/_Library/u8x8_d_uc1610.c ****   U8X8_C(0x02b),            			/* set panelloading */
  52:/Users/imashio/Electronics/ARM/_Library/u8x8_d_uc1610.c ****   U8X8_C(0x0eb),            			/* set bias 1/2 */  
  53:/Users/imashio/Electronics/ARM/_Library/u8x8_d_uc1610.c ****   U8X8_CA(0x081, 0x05f),            	/* set contrast */
  54:/Users/imashio/Electronics/ARM/_Library/u8x8_d_uc1610.c ****   
  55:/Users/imashio/Electronics/ARM/_Library/u8x8_d_uc1610.c ****   /*
  56:/Users/imashio/Electronics/ARM/_Library/u8x8_d_uc1610.c ****     AC0:	0: stop at boundary, 1: increment by one
  57:/Users/imashio/Electronics/ARM/_Library/u8x8_d_uc1610.c ****     AC1: 	0: first column then page, 1: first page, then column increment
  58:/Users/imashio/Electronics/ARM/_Library/u8x8_d_uc1610.c ****     AC2:	0: increment page adr, 1: decrement page adr.
  59:/Users/imashio/Electronics/ARM/_Library/u8x8_d_uc1610.c ****   */
  60:/Users/imashio/Electronics/ARM/_Library/u8x8_d_uc1610.c ****   U8X8_C(0x08b),            			/* set auto increment, low bits are AC2 AC1 AC0 */
  61:/Users/imashio/Electronics/ARM/_Library/u8x8_d_uc1610.c ****   
  62:/Users/imashio/Electronics/ARM/_Library/u8x8_d_uc1610.c ****   /*
  63:/Users/imashio/Electronics/ARM/_Library/u8x8_d_uc1610.c ****     LC0:	0
  64:/Users/imashio/Electronics/ARM/_Library/u8x8_d_uc1610.c ****     MX:	Mirror X
  65:/Users/imashio/Electronics/ARM/_Library/u8x8_d_uc1610.c ****     MY:	Mirror Y
  66:/Users/imashio/Electronics/ARM/_Library/u8x8_d_uc1610.c ****   */  
  67:/Users/imashio/Electronics/ARM/_Library/u8x8_d_uc1610.c ****   U8X8_C(0x0c0),            			/* low bits are MY, MX, LC0 */
  68:/Users/imashio/Electronics/ARM/_Library/u8x8_d_uc1610.c ****   
  69:/Users/imashio/Electronics/ARM/_Library/u8x8_d_uc1610.c ****   U8X8_C(0x0f8),            			// window mode off
  70:/Users/imashio/Electronics/ARM/_Library/u8x8_d_uc1610.c ****   U8X8_C(0x010),		                // col high
  71:/Users/imashio/Electronics/ARM/_Library/u8x8_d_uc1610.c ****   U8X8_C(0x000),		                // col low
  72:/Users/imashio/Electronics/ARM/_Library/u8x8_d_uc1610.c ****   U8X8_C(0x0b0),		                // page
  73:/Users/imashio/Electronics/ARM/_Library/u8x8_d_uc1610.c ****   
  74:/Users/imashio/Electronics/ARM/_Library/u8x8_d_uc1610.c ****   U8X8_C(0x0a6),            			/* set normal pixel mode (not inverse) */
  75:/Users/imashio/Electronics/ARM/_Library/u8x8_d_uc1610.c ****   U8X8_C(0x0a4),            			/* set normal pixel mode (not all on) */
  76:/Users/imashio/Electronics/ARM/_Library/u8x8_d_uc1610.c **** 
  77:/Users/imashio/Electronics/ARM/_Library/u8x8_d_uc1610.c ****   /* test code 
  78:/Users/imashio/Electronics/ARM/_Library/u8x8_d_uc1610.c ****   U8X8_C(0x0af),		                // display on 
  79:/Users/imashio/Electronics/ARM/_Library/u8x8_d_uc1610.c ****   U8X8_C(0x0f8),            			// window mode off
  80:/Users/imashio/Electronics/ARM/_Library/u8x8_d_uc1610.c ****   U8X8_CA(0x0f4, 0),			// set window
  81:/Users/imashio/Electronics/ARM/_Library/u8x8_d_uc1610.c ****   U8X8_CA(0x0f5, 0),
  82:/Users/imashio/Electronics/ARM/_Library/u8x8_d_uc1610.c ****   U8X8_CA(0x0f6, 4),
  83:/Users/imashio/Electronics/ARM/_Library/u8x8_d_uc1610.c ****   U8X8_CA(0x0f7, 1),
  84:/Users/imashio/Electronics/ARM/_Library/u8x8_d_uc1610.c ****   U8X8_C(0x0f9),            			// window mode on
  85:/Users/imashio/Electronics/ARM/_Library/u8x8_d_uc1610.c ****   U8X8_D1(0x03),
  86:/Users/imashio/Electronics/ARM/_Library/u8x8_d_uc1610.c ****   U8X8_D1(0x0c0),
  87:/Users/imashio/Electronics/ARM/_Library/u8x8_d_uc1610.c ****   U8X8_D1(0x0ff),
ARM GAS  /var/folders/v3/wysfpd052nz8jkbx04pk0ym80000gn/T//ccWcnbGm.s 			page 3


  88:/Users/imashio/Electronics/ARM/_Library/u8x8_d_uc1610.c ****   U8X8_D1(0x0ff),
  89:/Users/imashio/Electronics/ARM/_Library/u8x8_d_uc1610.c ****   U8X8_D1(0x0ff),
  90:/Users/imashio/Electronics/ARM/_Library/u8x8_d_uc1610.c ****   U8X8_D1(0x0ff),
  91:/Users/imashio/Electronics/ARM/_Library/u8x8_d_uc1610.c ****   U8X8_D1(0x0ff),
  92:/Users/imashio/Electronics/ARM/_Library/u8x8_d_uc1610.c ****   U8X8_D1(0x0ff),
  93:/Users/imashio/Electronics/ARM/_Library/u8x8_d_uc1610.c ****   */
  94:/Users/imashio/Electronics/ARM/_Library/u8x8_d_uc1610.c ****   
  95:/Users/imashio/Electronics/ARM/_Library/u8x8_d_uc1610.c ****   U8X8_END_TRANSFER(),             	/* disable chip */
  96:/Users/imashio/Electronics/ARM/_Library/u8x8_d_uc1610.c ****   U8X8_END()             			/* end of sequence */
  97:/Users/imashio/Electronics/ARM/_Library/u8x8_d_uc1610.c **** };
  98:/Users/imashio/Electronics/ARM/_Library/u8x8_d_uc1610.c **** 
  99:/Users/imashio/Electronics/ARM/_Library/u8x8_d_uc1610.c **** static const uint8_t u8x8_d_uc1610_dogxl160_powersave0_seq[] = {
 100:/Users/imashio/Electronics/ARM/_Library/u8x8_d_uc1610.c ****   U8X8_START_TRANSFER(),             	/* enable chip, delay is part of the transfer start */
 101:/Users/imashio/Electronics/ARM/_Library/u8x8_d_uc1610.c ****   U8X8_C(0x0af),		                /* display on, UC1610 */
 102:/Users/imashio/Electronics/ARM/_Library/u8x8_d_uc1610.c ****   U8X8_END_TRANSFER(),             	/* disable chip */
 103:/Users/imashio/Electronics/ARM/_Library/u8x8_d_uc1610.c ****   U8X8_END()             			/* end of sequence */
 104:/Users/imashio/Electronics/ARM/_Library/u8x8_d_uc1610.c **** };
 105:/Users/imashio/Electronics/ARM/_Library/u8x8_d_uc1610.c **** 
 106:/Users/imashio/Electronics/ARM/_Library/u8x8_d_uc1610.c **** static const uint8_t u8x8_d_uc1610_dogxl160_powersave1_seq[] = {
 107:/Users/imashio/Electronics/ARM/_Library/u8x8_d_uc1610.c ****   U8X8_START_TRANSFER(),             	/* enable chip, delay is part of the transfer start */
 108:/Users/imashio/Electronics/ARM/_Library/u8x8_d_uc1610.c ****   U8X8_C(0x0ae),		                /* display off,  UC1610 */
 109:/Users/imashio/Electronics/ARM/_Library/u8x8_d_uc1610.c ****   U8X8_END_TRANSFER(),             	/* disable chip */
 110:/Users/imashio/Electronics/ARM/_Library/u8x8_d_uc1610.c ****   U8X8_END()             			/* end of sequence */
 111:/Users/imashio/Electronics/ARM/_Library/u8x8_d_uc1610.c **** };
 112:/Users/imashio/Electronics/ARM/_Library/u8x8_d_uc1610.c **** 
 113:/Users/imashio/Electronics/ARM/_Library/u8x8_d_uc1610.c **** static const uint8_t u8x8_d_uc1610_dogxl160_flip0_seq[] = {
 114:/Users/imashio/Electronics/ARM/_Library/u8x8_d_uc1610.c ****   U8X8_START_TRANSFER(),             	/* enable chip, delay is part of the transfer start */
 115:/Users/imashio/Electronics/ARM/_Library/u8x8_d_uc1610.c ****   /*
 116:/Users/imashio/Electronics/ARM/_Library/u8x8_d_uc1610.c ****     LC0:	0
 117:/Users/imashio/Electronics/ARM/_Library/u8x8_d_uc1610.c ****     MX:	Mirror X
 118:/Users/imashio/Electronics/ARM/_Library/u8x8_d_uc1610.c ****     MY:	Mirror Y
 119:/Users/imashio/Electronics/ARM/_Library/u8x8_d_uc1610.c ****   */  
 120:/Users/imashio/Electronics/ARM/_Library/u8x8_d_uc1610.c ****   U8X8_C(0x0c0),            			/* low bits are MY, MX, LC0 */
 121:/Users/imashio/Electronics/ARM/_Library/u8x8_d_uc1610.c ****   U8X8_END_TRANSFER(),             	/* disable chip */
 122:/Users/imashio/Electronics/ARM/_Library/u8x8_d_uc1610.c ****   U8X8_END()             			/* end of sequence */
 123:/Users/imashio/Electronics/ARM/_Library/u8x8_d_uc1610.c **** };
 124:/Users/imashio/Electronics/ARM/_Library/u8x8_d_uc1610.c **** 
 125:/Users/imashio/Electronics/ARM/_Library/u8x8_d_uc1610.c **** static const uint8_t u8x8_d_uc1610_dogxl160_flip1_seq[] = {
 126:/Users/imashio/Electronics/ARM/_Library/u8x8_d_uc1610.c ****   U8X8_START_TRANSFER(),             	/* enable chip, delay is part of the transfer start */
 127:/Users/imashio/Electronics/ARM/_Library/u8x8_d_uc1610.c ****   /*
 128:/Users/imashio/Electronics/ARM/_Library/u8x8_d_uc1610.c ****     LC0:	0
 129:/Users/imashio/Electronics/ARM/_Library/u8x8_d_uc1610.c ****     MX:	Mirror X
 130:/Users/imashio/Electronics/ARM/_Library/u8x8_d_uc1610.c ****     MY:	Mirror Y
 131:/Users/imashio/Electronics/ARM/_Library/u8x8_d_uc1610.c ****   */  
 132:/Users/imashio/Electronics/ARM/_Library/u8x8_d_uc1610.c ****   U8X8_C(0x0c6),            			/* low bits are MY, MX, LC0 */
 133:/Users/imashio/Electronics/ARM/_Library/u8x8_d_uc1610.c ****   U8X8_END_TRANSFER(),             	/* disable chip */
 134:/Users/imashio/Electronics/ARM/_Library/u8x8_d_uc1610.c ****   U8X8_END()             			/* end of sequence */
 135:/Users/imashio/Electronics/ARM/_Library/u8x8_d_uc1610.c **** };
 136:/Users/imashio/Electronics/ARM/_Library/u8x8_d_uc1610.c **** 
 137:/Users/imashio/Electronics/ARM/_Library/u8x8_d_uc1610.c **** 
 138:/Users/imashio/Electronics/ARM/_Library/u8x8_d_uc1610.c **** /* 
 139:/Users/imashio/Electronics/ARM/_Library/u8x8_d_uc1610.c ****   UC1610 has two chip select inputs (CS0 and CS1).
 140:/Users/imashio/Electronics/ARM/_Library/u8x8_d_uc1610.c ****   CS0 is low active, CS1 is high active. It will depend on the display
 141:/Users/imashio/Electronics/ARM/_Library/u8x8_d_uc1610.c ****   module whether the display has a is low or high active chip select.
 142:/Users/imashio/Electronics/ARM/_Library/u8x8_d_uc1610.c **** */
 143:/Users/imashio/Electronics/ARM/_Library/u8x8_d_uc1610.c **** 
 144:/Users/imashio/Electronics/ARM/_Library/u8x8_d_uc1610.c **** static const u8x8_display_info_t u8x8_uc1610_display_info =
ARM GAS  /var/folders/v3/wysfpd052nz8jkbx04pk0ym80000gn/T//ccWcnbGm.s 			page 4


 145:/Users/imashio/Electronics/ARM/_Library/u8x8_d_uc1610.c **** {
 146:/Users/imashio/Electronics/ARM/_Library/u8x8_d_uc1610.c ****   /* chip_enable_level = */ 0,
 147:/Users/imashio/Electronics/ARM/_Library/u8x8_d_uc1610.c ****   /* chip_disable_level = */ 1,
 148:/Users/imashio/Electronics/ARM/_Library/u8x8_d_uc1610.c ****   
 149:/Users/imashio/Electronics/ARM/_Library/u8x8_d_uc1610.c ****   /* post_chip_enable_wait_ns = */ 15,
 150:/Users/imashio/Electronics/ARM/_Library/u8x8_d_uc1610.c ****   /* pre_chip_disable_wait_ns = */ 15,
 151:/Users/imashio/Electronics/ARM/_Library/u8x8_d_uc1610.c ****   /* reset_pulse_width_ms = */ 1, 
 152:/Users/imashio/Electronics/ARM/_Library/u8x8_d_uc1610.c ****   /* post_reset_wait_ms = */ 6, 
 153:/Users/imashio/Electronics/ARM/_Library/u8x8_d_uc1610.c ****   /* sda_setup_time_ns = */ 30,	
 154:/Users/imashio/Electronics/ARM/_Library/u8x8_d_uc1610.c ****   /* sck_pulse_width_ns = */ 63,	/* half of cycle time (125ns cycle time according to datasheet) --
 155:/Users/imashio/Electronics/ARM/_Library/u8x8_d_uc1610.c ****   /* sck_clock_hz = */ 8000000UL,	/* since Arduino 1.6.0, the SPI bus speed in Hz. Should be  10000
 156:/Users/imashio/Electronics/ARM/_Library/u8x8_d_uc1610.c ****   /* spi_mode = */ 0,		/* active high, rising edge */
 157:/Users/imashio/Electronics/ARM/_Library/u8x8_d_uc1610.c ****   /* i2c_bus_clock_100kHz = */ 4,
 158:/Users/imashio/Electronics/ARM/_Library/u8x8_d_uc1610.c ****   /* data_setup_time_ns = */ 30,
 159:/Users/imashio/Electronics/ARM/_Library/u8x8_d_uc1610.c ****   /* write_pulse_width_ns = */ 40,
 160:/Users/imashio/Electronics/ARM/_Library/u8x8_d_uc1610.c ****   /* tile_width = */ 20,		
 161:/Users/imashio/Electronics/ARM/_Library/u8x8_d_uc1610.c ****   /* tile_hight = */ 13,		/* height of 13*8=104 pixel */
 162:/Users/imashio/Electronics/ARM/_Library/u8x8_d_uc1610.c ****   /* default_x_offset = */ 0,
 163:/Users/imashio/Electronics/ARM/_Library/u8x8_d_uc1610.c ****   /* flipmode_x_offset = */ 0,
 164:/Users/imashio/Electronics/ARM/_Library/u8x8_d_uc1610.c ****   /* pixel_width = */ 160,
 165:/Users/imashio/Electronics/ARM/_Library/u8x8_d_uc1610.c ****   /* pixel_height = */ 104
 166:/Users/imashio/Electronics/ARM/_Library/u8x8_d_uc1610.c **** };
 167:/Users/imashio/Electronics/ARM/_Library/u8x8_d_uc1610.c **** 
 168:/Users/imashio/Electronics/ARM/_Library/u8x8_d_uc1610.c **** 
 169:/Users/imashio/Electronics/ARM/_Library/u8x8_d_uc1610.c **** /*
 170:/Users/imashio/Electronics/ARM/_Library/u8x8_d_uc1610.c ****   RAM Organization:
 171:/Users/imashio/Electronics/ARM/_Library/u8x8_d_uc1610.c ****   D0  Pix0
 172:/Users/imashio/Electronics/ARM/_Library/u8x8_d_uc1610.c ****   D1
 173:/Users/imashio/Electronics/ARM/_Library/u8x8_d_uc1610.c ****   D2  Pix1
 174:/Users/imashio/Electronics/ARM/_Library/u8x8_d_uc1610.c ****   D3
 175:/Users/imashio/Electronics/ARM/_Library/u8x8_d_uc1610.c ****   D4  Pix2
 176:/Users/imashio/Electronics/ARM/_Library/u8x8_d_uc1610.c ****   D5
 177:/Users/imashio/Electronics/ARM/_Library/u8x8_d_uc1610.c ****   D6  Pix3
 178:/Users/imashio/Electronics/ARM/_Library/u8x8_d_uc1610.c ****   D7    
 179:/Users/imashio/Electronics/ARM/_Library/u8x8_d_uc1610.c ****   D0  Pix4
 180:/Users/imashio/Electronics/ARM/_Library/u8x8_d_uc1610.c ****   D1
 181:/Users/imashio/Electronics/ARM/_Library/u8x8_d_uc1610.c ****   D2  Pix5
 182:/Users/imashio/Electronics/ARM/_Library/u8x8_d_uc1610.c ****   D3
 183:/Users/imashio/Electronics/ARM/_Library/u8x8_d_uc1610.c ****   D4  Pix6
 184:/Users/imashio/Electronics/ARM/_Library/u8x8_d_uc1610.c ****   D5
 185:/Users/imashio/Electronics/ARM/_Library/u8x8_d_uc1610.c ****   D6  Pix7
 186:/Users/imashio/Electronics/ARM/_Library/u8x8_d_uc1610.c ****   D7    
 187:/Users/imashio/Electronics/ARM/_Library/u8x8_d_uc1610.c **** 
 188:/Users/imashio/Electronics/ARM/_Library/u8x8_d_uc1610.c **** 
 189:/Users/imashio/Electronics/ARM/_Library/u8x8_d_uc1610.c **** */
 190:/Users/imashio/Electronics/ARM/_Library/u8x8_d_uc1610.c **** static uint8_t *u8x8_convert_tile_for_uc1610(uint8_t *t)
 191:/Users/imashio/Electronics/ARM/_Library/u8x8_d_uc1610.c **** {
 192:/Users/imashio/Electronics/ARM/_Library/u8x8_d_uc1610.c ****   uint8_t i;
 193:/Users/imashio/Electronics/ARM/_Library/u8x8_d_uc1610.c ****   uint16_t r;
 194:/Users/imashio/Electronics/ARM/_Library/u8x8_d_uc1610.c ****   static uint8_t buf[16];
 195:/Users/imashio/Electronics/ARM/_Library/u8x8_d_uc1610.c ****   uint8_t *pbuf = buf;
 196:/Users/imashio/Electronics/ARM/_Library/u8x8_d_uc1610.c **** 
 197:/Users/imashio/Electronics/ARM/_Library/u8x8_d_uc1610.c ****   for( i = 0; i < 8; i++ )
 198:/Users/imashio/Electronics/ARM/_Library/u8x8_d_uc1610.c ****   {
 199:/Users/imashio/Electronics/ARM/_Library/u8x8_d_uc1610.c ****     r = u8x8_upscale_byte(*t++);
 200:/Users/imashio/Electronics/ARM/_Library/u8x8_d_uc1610.c ****     *pbuf++ = r & 255;
 201:/Users/imashio/Electronics/ARM/_Library/u8x8_d_uc1610.c ****     r >>= 8;
ARM GAS  /var/folders/v3/wysfpd052nz8jkbx04pk0ym80000gn/T//ccWcnbGm.s 			page 5


 202:/Users/imashio/Electronics/ARM/_Library/u8x8_d_uc1610.c ****     *pbuf++ = r;
 203:/Users/imashio/Electronics/ARM/_Library/u8x8_d_uc1610.c ****   }
 204:/Users/imashio/Electronics/ARM/_Library/u8x8_d_uc1610.c ****   return buf;
 205:/Users/imashio/Electronics/ARM/_Library/u8x8_d_uc1610.c **** }
 206:/Users/imashio/Electronics/ARM/_Library/u8x8_d_uc1610.c **** 
 207:/Users/imashio/Electronics/ARM/_Library/u8x8_d_uc1610.c **** uint8_t u8x8_d_uc1610_ea_dogxl160(u8x8_t *u8x8, uint8_t msg, uint8_t arg_int, void *arg_ptr)
 208:/Users/imashio/Electronics/ARM/_Library/u8x8_d_uc1610.c **** {
  29              		.loc 1 208 0
  30              		.cfi_startproc
  31              		@ args = 0, pretend = 0, frame = 0
  32              		@ frame_needed = 0, uses_anonymous_args = 0
  33              	.LVL0:
 209:/Users/imashio/Electronics/ARM/_Library/u8x8_d_uc1610.c ****   uint8_t x, c, page;
 210:/Users/imashio/Electronics/ARM/_Library/u8x8_d_uc1610.c ****   uint8_t *ptr;
 211:/Users/imashio/Electronics/ARM/_Library/u8x8_d_uc1610.c ****   switch(msg)
  34              		.loc 1 211 0
  35 0000 0939     		subs	r1, r1, #9
  36              	.LVL1:
 208:/Users/imashio/Electronics/ARM/_Library/u8x8_d_uc1610.c ****   uint8_t x, c, page;
  37              		.loc 1 208 0
  38 0002 2DE9F84F 		push	{r3, r4, r5, r6, r7, r8, r9, r10, fp, lr}
  39              	.LCFI0:
  40              		.cfi_def_cfa_offset 40
  41              		.cfi_offset 3, -40
  42              		.cfi_offset 4, -36
  43              		.cfi_offset 5, -32
  44              		.cfi_offset 6, -28
  45              		.cfi_offset 7, -24
  46              		.cfi_offset 8, -20
  47              		.cfi_offset 9, -16
  48              		.cfi_offset 10, -12
  49              		.cfi_offset 11, -8
  50              		.cfi_offset 14, -4
 208:/Users/imashio/Electronics/ARM/_Library/u8x8_d_uc1610.c ****   uint8_t x, c, page;
  51              		.loc 1 208 0
  52 0006 8046     		mov	r8, r0
  53 0008 9246     		mov	r10, r2
  54 000a 9B46     		mov	fp, r3
  55              		.loc 1 211 0
  56 000c 0629     		cmp	r1, #6
  57 000e 00F29C80 		bhi	.L15
  58 0012 DFE801F0 		tbb	[pc, r1]
  59              	.LVL2:
  60              	.L4:
  61 0016 69       		.byte	(.L3-.L4)/2
  62 0017 6F       		.byte	(.L5-.L4)/2
  63 0018 78       		.byte	(.L6-.L4)/2
  64 0019 9A       		.byte	(.L15-.L4)/2
  65 001a 7E       		.byte	(.L7-.L4)/2
  66 001b 89       		.byte	(.L8-.L4)/2
  67 001c 04       		.byte	(.L9-.L4)/2
  68 001d 00       		.p2align 1
  69              	.L9:
 212:/Users/imashio/Electronics/ARM/_Library/u8x8_d_uc1610.c ****   {
 213:/Users/imashio/Electronics/ARM/_Library/u8x8_d_uc1610.c ****     case U8X8_MSG_DISPLAY_SETUP_MEMORY:
 214:/Users/imashio/Electronics/ARM/_Library/u8x8_d_uc1610.c ****       u8x8_d_helper_display_setup_memory(u8x8, &u8x8_uc1610_display_info);
 215:/Users/imashio/Electronics/ARM/_Library/u8x8_d_uc1610.c ****       break;
ARM GAS  /var/folders/v3/wysfpd052nz8jkbx04pk0ym80000gn/T//ccWcnbGm.s 			page 6


 216:/Users/imashio/Electronics/ARM/_Library/u8x8_d_uc1610.c ****     case U8X8_MSG_DISPLAY_INIT:
 217:/Users/imashio/Electronics/ARM/_Library/u8x8_d_uc1610.c ****       u8x8_d_helper_display_init(u8x8);
 218:/Users/imashio/Electronics/ARM/_Library/u8x8_d_uc1610.c ****       u8x8_cad_SendSequence(u8x8, u8x8_d_uc1610_dogxl160_init_seq);
 219:/Users/imashio/Electronics/ARM/_Library/u8x8_d_uc1610.c ****       break;
 220:/Users/imashio/Electronics/ARM/_Library/u8x8_d_uc1610.c ****     case U8X8_MSG_DISPLAY_SET_POWER_SAVE:
 221:/Users/imashio/Electronics/ARM/_Library/u8x8_d_uc1610.c ****       if ( arg_int == 0 )
 222:/Users/imashio/Electronics/ARM/_Library/u8x8_d_uc1610.c **** 	u8x8_cad_SendSequence(u8x8, u8x8_d_uc1610_dogxl160_powersave0_seq);
 223:/Users/imashio/Electronics/ARM/_Library/u8x8_d_uc1610.c ****       else
 224:/Users/imashio/Electronics/ARM/_Library/u8x8_d_uc1610.c **** 	u8x8_cad_SendSequence(u8x8, u8x8_d_uc1610_dogxl160_powersave1_seq);
 225:/Users/imashio/Electronics/ARM/_Library/u8x8_d_uc1610.c ****       break;
 226:/Users/imashio/Electronics/ARM/_Library/u8x8_d_uc1610.c ****     case U8X8_MSG_DISPLAY_SET_FLIP_MODE:
 227:/Users/imashio/Electronics/ARM/_Library/u8x8_d_uc1610.c ****       if ( arg_int == 0 )
 228:/Users/imashio/Electronics/ARM/_Library/u8x8_d_uc1610.c ****       {
 229:/Users/imashio/Electronics/ARM/_Library/u8x8_d_uc1610.c **** 	u8x8_cad_SendSequence(u8x8, u8x8_d_uc1610_dogxl160_flip0_seq);
 230:/Users/imashio/Electronics/ARM/_Library/u8x8_d_uc1610.c **** 	u8x8->x_offset = u8x8->display_info->default_x_offset;
 231:/Users/imashio/Electronics/ARM/_Library/u8x8_d_uc1610.c ****       }
 232:/Users/imashio/Electronics/ARM/_Library/u8x8_d_uc1610.c ****       else
 233:/Users/imashio/Electronics/ARM/_Library/u8x8_d_uc1610.c ****       {
 234:/Users/imashio/Electronics/ARM/_Library/u8x8_d_uc1610.c **** 	u8x8_cad_SendSequence(u8x8, u8x8_d_uc1610_dogxl160_flip1_seq);
 235:/Users/imashio/Electronics/ARM/_Library/u8x8_d_uc1610.c **** 	u8x8->x_offset = u8x8->display_info->flipmode_x_offset;
 236:/Users/imashio/Electronics/ARM/_Library/u8x8_d_uc1610.c ****       }	
 237:/Users/imashio/Electronics/ARM/_Library/u8x8_d_uc1610.c ****       break;
 238:/Users/imashio/Electronics/ARM/_Library/u8x8_d_uc1610.c **** #ifdef U8X8_WITH_SET_CONTRAST
 239:/Users/imashio/Electronics/ARM/_Library/u8x8_d_uc1610.c ****     case U8X8_MSG_DISPLAY_SET_CONTRAST:
 240:/Users/imashio/Electronics/ARM/_Library/u8x8_d_uc1610.c ****       u8x8_cad_StartTransfer(u8x8);
 241:/Users/imashio/Electronics/ARM/_Library/u8x8_d_uc1610.c ****       u8x8_cad_SendCmd(u8x8, 0x081 );
 242:/Users/imashio/Electronics/ARM/_Library/u8x8_d_uc1610.c ****       u8x8_cad_SendArg(u8x8, arg_int >> 2 );	/* uc1610 has range from 0 to 63 */
 243:/Users/imashio/Electronics/ARM/_Library/u8x8_d_uc1610.c ****       u8x8_cad_EndTransfer(u8x8);
 244:/Users/imashio/Electronics/ARM/_Library/u8x8_d_uc1610.c ****       break;
 245:/Users/imashio/Electronics/ARM/_Library/u8x8_d_uc1610.c **** #endif
 246:/Users/imashio/Electronics/ARM/_Library/u8x8_d_uc1610.c ****     case U8X8_MSG_DISPLAY_DRAW_TILE:
 247:/Users/imashio/Electronics/ARM/_Library/u8x8_d_uc1610.c ****       u8x8_cad_StartTransfer(u8x8);
  70              		.loc 1 247 0
  71 001e FFF7FEFF 		bl	u8x8_cad_StartTransfer
  72              	.LVL3:
 248:/Users/imashio/Electronics/ARM/_Library/u8x8_d_uc1610.c **** 
 249:/Users/imashio/Electronics/ARM/_Library/u8x8_d_uc1610.c ****       x = ((u8x8_tile_t *)arg_ptr)->x_pos;
  73              		.loc 1 249 0
  74 0022 9BF80530 		ldrb	r3, [fp, #5]	@ zero_extendqisi2
  75              	.LVL4:
 250:/Users/imashio/Electronics/ARM/_Library/u8x8_d_uc1610.c ****       x *= 8;
 251:/Users/imashio/Electronics/ARM/_Library/u8x8_d_uc1610.c ****       x += u8x8->x_offset;
  76              		.loc 1 251 0
  77 0026 98F81E50 		ldrb	r5, [r8, #30]	@ zero_extendqisi2
 252:/Users/imashio/Electronics/ARM/_Library/u8x8_d_uc1610.c ****     
 253:/Users/imashio/Electronics/ARM/_Library/u8x8_d_uc1610.c ****       page = (((u8x8_tile_t *)arg_ptr)->y_pos);
  78              		.loc 1 253 0
  79 002a 9BF80640 		ldrb	r4, [fp, #6]	@ zero_extendqisi2
 254:/Users/imashio/Electronics/ARM/_Library/u8x8_d_uc1610.c ****       page *= 2;
 255:/Users/imashio/Electronics/ARM/_Library/u8x8_d_uc1610.c **** 
 256:/Users/imashio/Electronics/ARM/_Library/u8x8_d_uc1610.c ****       u8x8_cad_SendCmd(u8x8, 0x0f8 );	/* window disable */
 257:/Users/imashio/Electronics/ARM/_Library/u8x8_d_uc1610.c ****       
 258:/Users/imashio/Electronics/ARM/_Library/u8x8_d_uc1610.c ****       //u8x8_cad_SendCmd(u8x8, 0x010 | (x>>4) );
 259:/Users/imashio/Electronics/ARM/_Library/u8x8_d_uc1610.c ****       //u8x8_cad_SendCmd(u8x8, 0x000 | ((x&15)));
 260:/Users/imashio/Electronics/ARM/_Library/u8x8_d_uc1610.c ****       //u8x8_cad_SendCmd(u8x8, 0x0b0 | page);
 261:/Users/imashio/Electronics/ARM/_Library/u8x8_d_uc1610.c **** 
 262:/Users/imashio/Electronics/ARM/_Library/u8x8_d_uc1610.c ****       u8x8_cad_SendCmd(u8x8, 0x0f4 );	/* window start column */
ARM GAS  /var/folders/v3/wysfpd052nz8jkbx04pk0ym80000gn/T//ccWcnbGm.s 			page 7


 263:/Users/imashio/Electronics/ARM/_Library/u8x8_d_uc1610.c ****       u8x8_cad_SendArg(u8x8, x);
 264:/Users/imashio/Electronics/ARM/_Library/u8x8_d_uc1610.c ****       u8x8_cad_SendCmd(u8x8, 0x0f5 );	/* window start page */
 265:/Users/imashio/Electronics/ARM/_Library/u8x8_d_uc1610.c ****       u8x8_cad_SendArg(u8x8, page);
 266:/Users/imashio/Electronics/ARM/_Library/u8x8_d_uc1610.c ****       u8x8_cad_SendCmd(u8x8, 0x0f6 );	/* window end column */
 267:/Users/imashio/Electronics/ARM/_Library/u8x8_d_uc1610.c ****       u8x8_cad_SendArg(u8x8, 159);		/* end of display */
 268:/Users/imashio/Electronics/ARM/_Library/u8x8_d_uc1610.c ****       u8x8_cad_SendCmd(u8x8, 0x0f7 );	/* window end page */
 269:/Users/imashio/Electronics/ARM/_Library/u8x8_d_uc1610.c ****       u8x8_cad_SendArg(u8x8, page+1);
 270:/Users/imashio/Electronics/ARM/_Library/u8x8_d_uc1610.c ****       u8x8_cad_SendCmd(u8x8, 0x0f9 );	/* window enable */
 271:/Users/imashio/Electronics/ARM/_Library/u8x8_d_uc1610.c ****     
 272:/Users/imashio/Electronics/ARM/_Library/u8x8_d_uc1610.c ****       do
 273:/Users/imashio/Electronics/ARM/_Library/u8x8_d_uc1610.c ****       {
 274:/Users/imashio/Electronics/ARM/_Library/u8x8_d_uc1610.c **** 	c = ((u8x8_tile_t *)arg_ptr)->cnt;
 275:/Users/imashio/Electronics/ARM/_Library/u8x8_d_uc1610.c **** 	ptr = ((u8x8_tile_t *)arg_ptr)->tile_ptr;
 276:/Users/imashio/Electronics/ARM/_Library/u8x8_d_uc1610.c **** 	
 277:/Users/imashio/Electronics/ARM/_Library/u8x8_d_uc1610.c **** 	
 278:/Users/imashio/Electronics/ARM/_Library/u8x8_d_uc1610.c **** 	do
 279:/Users/imashio/Electronics/ARM/_Library/u8x8_d_uc1610.c **** 	{
 280:/Users/imashio/Electronics/ARM/_Library/u8x8_d_uc1610.c **** 	  
 281:/Users/imashio/Electronics/ARM/_Library/u8x8_d_uc1610.c **** 	  
 282:/Users/imashio/Electronics/ARM/_Library/u8x8_d_uc1610.c **** 	  
 283:/Users/imashio/Electronics/ARM/_Library/u8x8_d_uc1610.c **** 	  u8x8_cad_SendData(u8x8, 16, u8x8_convert_tile_for_uc1610(ptr));
  80              		.loc 1 283 0
  81 002e DFF85891 		ldr	r9, .L21+28
 251:/Users/imashio/Electronics/ARM/_Library/u8x8_d_uc1610.c ****     
  82              		.loc 1 251 0
  83 0032 05EBC305 		add	r5, r5, r3, lsl #3
 256:/Users/imashio/Electronics/ARM/_Library/u8x8_d_uc1610.c ****       
  84              		.loc 1 256 0
  85 0036 F821     		movs	r1, #248
  86 0038 4046     		mov	r0, r8
  87 003a FFF7FEFF 		bl	u8x8_cad_SendCmd
  88              	.LVL5:
 251:/Users/imashio/Electronics/ARM/_Library/u8x8_d_uc1610.c ****     
  89              		.loc 1 251 0
  90 003e 05F0FF05 		and	r5, r5, #255
  91              	.LVL6:
 262:/Users/imashio/Electronics/ARM/_Library/u8x8_d_uc1610.c ****       u8x8_cad_SendArg(u8x8, x);
  92              		.loc 1 262 0
  93 0042 F421     		movs	r1, #244
  94 0044 4046     		mov	r0, r8
  95 0046 FFF7FEFF 		bl	u8x8_cad_SendCmd
  96              	.LVL7:
 254:/Users/imashio/Electronics/ARM/_Library/u8x8_d_uc1610.c **** 
  97              		.loc 1 254 0
  98 004a 6400     		lsls	r4, r4, #1
  99              	.LVL8:
 263:/Users/imashio/Electronics/ARM/_Library/u8x8_d_uc1610.c ****       u8x8_cad_SendCmd(u8x8, 0x0f5 );	/* window start page */
 100              		.loc 1 263 0
 101 004c 2946     		mov	r1, r5
 102 004e 4046     		mov	r0, r8
 103 0050 FFF7FEFF 		bl	u8x8_cad_SendArg
 104              	.LVL9:
 254:/Users/imashio/Electronics/ARM/_Library/u8x8_d_uc1610.c **** 
 105              		.loc 1 254 0
 106 0054 E4B2     		uxtb	r4, r4
 107              	.LVL10:
 264:/Users/imashio/Electronics/ARM/_Library/u8x8_d_uc1610.c ****       u8x8_cad_SendArg(u8x8, page);
ARM GAS  /var/folders/v3/wysfpd052nz8jkbx04pk0ym80000gn/T//ccWcnbGm.s 			page 8


 108              		.loc 1 264 0
 109 0056 F521     		movs	r1, #245
 110 0058 4046     		mov	r0, r8
 111 005a FFF7FEFF 		bl	u8x8_cad_SendCmd
 112              	.LVL11:
 265:/Users/imashio/Electronics/ARM/_Library/u8x8_d_uc1610.c ****       u8x8_cad_SendCmd(u8x8, 0x0f6 );	/* window end column */
 113              		.loc 1 265 0
 114 005e 2146     		mov	r1, r4
 115 0060 4046     		mov	r0, r8
 116 0062 FFF7FEFF 		bl	u8x8_cad_SendArg
 117              	.LVL12:
 266:/Users/imashio/Electronics/ARM/_Library/u8x8_d_uc1610.c ****       u8x8_cad_SendArg(u8x8, 159);		/* end of display */
 118              		.loc 1 266 0
 119 0066 F621     		movs	r1, #246
 120 0068 4046     		mov	r0, r8
 121 006a FFF7FEFF 		bl	u8x8_cad_SendCmd
 122              	.LVL13:
 267:/Users/imashio/Electronics/ARM/_Library/u8x8_d_uc1610.c ****       u8x8_cad_SendCmd(u8x8, 0x0f7 );	/* window end page */
 123              		.loc 1 267 0
 124 006e 9F21     		movs	r1, #159
 125 0070 4046     		mov	r0, r8
 126 0072 FFF7FEFF 		bl	u8x8_cad_SendArg
 127              	.LVL14:
 268:/Users/imashio/Electronics/ARM/_Library/u8x8_d_uc1610.c ****       u8x8_cad_SendArg(u8x8, page+1);
 128              		.loc 1 268 0
 129 0076 F721     		movs	r1, #247
 130 0078 4046     		mov	r0, r8
 131 007a FFF7FEFF 		bl	u8x8_cad_SendCmd
 132              	.LVL15:
 269:/Users/imashio/Electronics/ARM/_Library/u8x8_d_uc1610.c ****       u8x8_cad_SendCmd(u8x8, 0x0f9 );	/* window enable */
 133              		.loc 1 269 0
 134 007e 611C     		adds	r1, r4, #1
 135 0080 C9B2     		uxtb	r1, r1
 136 0082 4046     		mov	r0, r8
 137 0084 FFF7FEFF 		bl	u8x8_cad_SendArg
 138              	.LVL16:
 270:/Users/imashio/Electronics/ARM/_Library/u8x8_d_uc1610.c ****     
 139              		.loc 1 270 0
 140 0088 F921     		movs	r1, #249
 141 008a 4046     		mov	r0, r8
 142 008c FFF7FEFF 		bl	u8x8_cad_SendCmd
 143              	.LVL17:
 144              	.L14:
 145 0090 9BF80470 		ldrb	r7, [fp, #4]	@ zero_extendqisi2
 275:/Users/imashio/Electronics/ARM/_Library/u8x8_d_uc1610.c **** 	
 146              		.loc 1 275 0
 147 0094 DBF80050 		ldr	r5, [fp]
 148              	.LVL18:
 149 0098 013F     		subs	r7, r7, #1
 150 009a FFB2     		uxtb	r7, r7
 151 009c 0137     		adds	r7, r7, #1
 152 009e 05EBC707 		add	r7, r5, r7, lsl #3
 153              	.LVL19:
 154              	.L13:
 155 00a2 324C     		ldr	r4, .L21
 156 00a4 05F10806 		add	r6, r5, #8
 157              	.LVL20:
ARM GAS  /var/folders/v3/wysfpd052nz8jkbx04pk0ym80000gn/T//ccWcnbGm.s 			page 9


 158              	.L12:
 159              	.LBB4:
 160              	.LBB5:
 199:/Users/imashio/Electronics/ARM/_Library/u8x8_d_uc1610.c ****     *pbuf++ = r & 255;
 161              		.loc 1 199 0
 162 00a8 15F8010B 		ldrb	r0, [r5], #1	@ zero_extendqisi2
 163              	.LVL21:
 164 00ac FFF7FEFF 		bl	u8x8_upscale_byte
 165              	.LVL22:
 197:/Users/imashio/Electronics/ARM/_Library/u8x8_d_uc1610.c ****   {
 166              		.loc 1 197 0
 167 00b0 B542     		cmp	r5, r6
 201:/Users/imashio/Electronics/ARM/_Library/u8x8_d_uc1610.c ****     *pbuf++ = r;
 168              		.loc 1 201 0
 169 00b2 4FEA1023 		lsr	r3, r0, #8
 200:/Users/imashio/Electronics/ARM/_Library/u8x8_d_uc1610.c ****     r >>= 8;
 170              		.loc 1 200 0
 171 00b6 04F8020C 		strb	r0, [r4, #-2]
 172              	.LVL23:
 202:/Users/imashio/Electronics/ARM/_Library/u8x8_d_uc1610.c ****   }
 173              		.loc 1 202 0
 174 00ba 04F8013C 		strb	r3, [r4, #-1]
 175              	.LVL24:
 176 00be 04F10204 		add	r4, r4, #2
 177              	.LVL25:
 197:/Users/imashio/Electronics/ARM/_Library/u8x8_d_uc1610.c ****   {
 178              		.loc 1 197 0
 179 00c2 F1D1     		bne	.L12
 180              	.LVL26:
 181              	.LBE5:
 182              	.LBE4:
 183              		.loc 1 283 0
 184 00c4 4A46     		mov	r2, r9
 185 00c6 1021     		movs	r1, #16
 186 00c8 4046     		mov	r0, r8
 187 00ca FFF7FEFF 		bl	u8x8_cad_SendData
 188              	.LVL27:
 284:/Users/imashio/Electronics/ARM/_Library/u8x8_d_uc1610.c **** 
 285:/Users/imashio/Electronics/ARM/_Library/u8x8_d_uc1610.c **** 	  
 286:/Users/imashio/Electronics/ARM/_Library/u8x8_d_uc1610.c **** 	  ptr += 8;
 287:/Users/imashio/Electronics/ARM/_Library/u8x8_d_uc1610.c **** 	  x += 8;
 288:/Users/imashio/Electronics/ARM/_Library/u8x8_d_uc1610.c **** 	  c--;
 289:/Users/imashio/Electronics/ARM/_Library/u8x8_d_uc1610.c **** 	} while( c > 0 );
 189              		.loc 1 289 0
 190 00ce BD42     		cmp	r5, r7
 191 00d0 E7D1     		bne	.L13
 290:/Users/imashio/Electronics/ARM/_Library/u8x8_d_uc1610.c **** 	
 291:/Users/imashio/Electronics/ARM/_Library/u8x8_d_uc1610.c **** 	arg_int--;
 192              		.loc 1 291 0
 193 00d2 0AF1FF3A 		add	r10, r10, #-1
 194              	.LVL28:
 292:/Users/imashio/Electronics/ARM/_Library/u8x8_d_uc1610.c ****       } while( arg_int > 0 );
 195              		.loc 1 292 0
 196 00d6 1AF0FF0A 		ands	r10, r10, #255
 197              	.LVL29:
 198 00da D9D1     		bne	.L14
 293:/Users/imashio/Electronics/ARM/_Library/u8x8_d_uc1610.c ****       
ARM GAS  /var/folders/v3/wysfpd052nz8jkbx04pk0ym80000gn/T//ccWcnbGm.s 			page 10


 294:/Users/imashio/Electronics/ARM/_Library/u8x8_d_uc1610.c ****       u8x8_cad_EndTransfer(u8x8);
 199              		.loc 1 294 0
 200 00dc 4046     		mov	r0, r8
 201 00de FFF7FEFF 		bl	u8x8_cad_EndTransfer
 202              	.LVL30:
 295:/Users/imashio/Electronics/ARM/_Library/u8x8_d_uc1610.c **** 
 296:/Users/imashio/Electronics/ARM/_Library/u8x8_d_uc1610.c ****     
 297:/Users/imashio/Electronics/ARM/_Library/u8x8_d_uc1610.c ****       break;
 298:/Users/imashio/Electronics/ARM/_Library/u8x8_d_uc1610.c ****     default:
 299:/Users/imashio/Electronics/ARM/_Library/u8x8_d_uc1610.c ****       return 0;
 300:/Users/imashio/Electronics/ARM/_Library/u8x8_d_uc1610.c ****   }
 301:/Users/imashio/Electronics/ARM/_Library/u8x8_d_uc1610.c ****   return 1;
 203              		.loc 1 301 0
 204 00e2 0120     		movs	r0, #1
 205              	.LVL31:
 206              	.L2:
 302:/Users/imashio/Electronics/ARM/_Library/u8x8_d_uc1610.c **** }
 207              		.loc 1 302 0
 208 00e4 BDE8F88F 		pop	{r3, r4, r5, r6, r7, r8, r9, r10, fp, pc}
 209              	.LVL32:
 210              	.L3:
 214:/Users/imashio/Electronics/ARM/_Library/u8x8_d_uc1610.c ****       break;
 211              		.loc 1 214 0
 212 00e8 2149     		ldr	r1, .L21+4
 213 00ea FFF7FEFF 		bl	u8x8_d_helper_display_setup_memory
 214              	.LVL33:
 301:/Users/imashio/Electronics/ARM/_Library/u8x8_d_uc1610.c **** }
 215              		.loc 1 301 0
 216 00ee 0120     		movs	r0, #1
 217              		.loc 1 302 0
 218 00f0 BDE8F88F 		pop	{r3, r4, r5, r6, r7, r8, r9, r10, fp, pc}
 219              	.LVL34:
 220              	.L5:
 217:/Users/imashio/Electronics/ARM/_Library/u8x8_d_uc1610.c ****       u8x8_cad_SendSequence(u8x8, u8x8_d_uc1610_dogxl160_init_seq);
 221              		.loc 1 217 0
 222 00f4 FFF7FEFF 		bl	u8x8_d_helper_display_init
 223              	.LVL35:
 218:/Users/imashio/Electronics/ARM/_Library/u8x8_d_uc1610.c ****       break;
 224              		.loc 1 218 0
 225 00f8 4046     		mov	r0, r8
 226 00fa 1E49     		ldr	r1, .L21+8
 227 00fc FFF7FEFF 		bl	u8x8_cad_SendSequence
 228              	.LVL36:
 301:/Users/imashio/Electronics/ARM/_Library/u8x8_d_uc1610.c **** }
 229              		.loc 1 301 0
 230 0100 0120     		movs	r0, #1
 231              		.loc 1 302 0
 232 0102 BDE8F88F 		pop	{r3, r4, r5, r6, r7, r8, r9, r10, fp, pc}
 233              	.LVL37:
 234              	.L6:
 221:/Users/imashio/Electronics/ARM/_Library/u8x8_d_uc1610.c **** 	u8x8_cad_SendSequence(u8x8, u8x8_d_uc1610_dogxl160_powersave0_seq);
 235              		.loc 1 221 0
 236 0106 12BB     		cbnz	r2, .L10
 222:/Users/imashio/Electronics/ARM/_Library/u8x8_d_uc1610.c ****       else
 237              		.loc 1 222 0
 238 0108 1B49     		ldr	r1, .L21+12
 239 010a FFF7FEFF 		bl	u8x8_cad_SendSequence
ARM GAS  /var/folders/v3/wysfpd052nz8jkbx04pk0ym80000gn/T//ccWcnbGm.s 			page 11


 240              	.LVL38:
 301:/Users/imashio/Electronics/ARM/_Library/u8x8_d_uc1610.c **** }
 241              		.loc 1 301 0
 242 010e 0120     		movs	r0, #1
 243 0110 E8E7     		b	.L2
 244              	.LVL39:
 245              	.L7:
 227:/Users/imashio/Electronics/ARM/_Library/u8x8_d_uc1610.c ****       {
 246              		.loc 1 227 0
 247 0112 0ABB     		cbnz	r2, .L11
 229:/Users/imashio/Electronics/ARM/_Library/u8x8_d_uc1610.c **** 	u8x8->x_offset = u8x8->display_info->default_x_offset;
 248              		.loc 1 229 0
 249 0114 1949     		ldr	r1, .L21+16
 250 0116 FFF7FEFF 		bl	u8x8_cad_SendSequence
 251              	.LVL40:
 230:/Users/imashio/Electronics/ARM/_Library/u8x8_d_uc1610.c ****       }
 252              		.loc 1 230 0
 253 011a D8F80030 		ldr	r3, [r8]
 254 011e 9B7C     		ldrb	r3, [r3, #18]	@ zero_extendqisi2
 255 0120 88F81E30 		strb	r3, [r8, #30]
 301:/Users/imashio/Electronics/ARM/_Library/u8x8_d_uc1610.c **** }
 256              		.loc 1 301 0
 257 0124 0120     		movs	r0, #1
 258 0126 DDE7     		b	.L2
 259              	.LVL41:
 260              	.L8:
 240:/Users/imashio/Electronics/ARM/_Library/u8x8_d_uc1610.c ****       u8x8_cad_SendCmd(u8x8, 0x081 );
 261              		.loc 1 240 0
 262 0128 FFF7FEFF 		bl	u8x8_cad_StartTransfer
 263              	.LVL42:
 241:/Users/imashio/Electronics/ARM/_Library/u8x8_d_uc1610.c ****       u8x8_cad_SendArg(u8x8, arg_int >> 2 );	/* uc1610 has range from 0 to 63 */
 264              		.loc 1 241 0
 265 012c 8121     		movs	r1, #129
 266 012e 4046     		mov	r0, r8
 267 0130 FFF7FEFF 		bl	u8x8_cad_SendCmd
 268              	.LVL43:
 242:/Users/imashio/Electronics/ARM/_Library/u8x8_d_uc1610.c ****       u8x8_cad_EndTransfer(u8x8);
 269              		.loc 1 242 0
 270 0134 4FEA9A01 		lsr	r1, r10, #2
 271 0138 4046     		mov	r0, r8
 272 013a FFF7FEFF 		bl	u8x8_cad_SendArg
 273              	.LVL44:
 243:/Users/imashio/Electronics/ARM/_Library/u8x8_d_uc1610.c ****       break;
 274              		.loc 1 243 0
 275 013e 4046     		mov	r0, r8
 276 0140 FFF7FEFF 		bl	u8x8_cad_EndTransfer
 277              	.LVL45:
 301:/Users/imashio/Electronics/ARM/_Library/u8x8_d_uc1610.c **** }
 278              		.loc 1 301 0
 279 0144 0120     		movs	r0, #1
 280              		.loc 1 302 0
 281 0146 BDE8F88F 		pop	{r3, r4, r5, r6, r7, r8, r9, r10, fp, pc}
 282              	.LVL46:
 283              	.L15:
 299:/Users/imashio/Electronics/ARM/_Library/u8x8_d_uc1610.c ****   }
 284              		.loc 1 299 0
 285 014a 0020     		movs	r0, #0
ARM GAS  /var/folders/v3/wysfpd052nz8jkbx04pk0ym80000gn/T//ccWcnbGm.s 			page 12


 286              	.LVL47:
 287 014c CAE7     		b	.L2
 288              	.LVL48:
 289              	.L10:
 224:/Users/imashio/Electronics/ARM/_Library/u8x8_d_uc1610.c ****       break;
 290              		.loc 1 224 0
 291 014e 0C49     		ldr	r1, .L21+20
 292 0150 FFF7FEFF 		bl	u8x8_cad_SendSequence
 293              	.LVL49:
 301:/Users/imashio/Electronics/ARM/_Library/u8x8_d_uc1610.c **** }
 294              		.loc 1 301 0
 295 0154 0120     		movs	r0, #1
 296 0156 C5E7     		b	.L2
 297              	.LVL50:
 298              	.L11:
 234:/Users/imashio/Electronics/ARM/_Library/u8x8_d_uc1610.c **** 	u8x8->x_offset = u8x8->display_info->flipmode_x_offset;
 299              		.loc 1 234 0
 300 0158 0A49     		ldr	r1, .L21+24
 301 015a FFF7FEFF 		bl	u8x8_cad_SendSequence
 302              	.LVL51:
 235:/Users/imashio/Electronics/ARM/_Library/u8x8_d_uc1610.c ****       }	
 303              		.loc 1 235 0
 304 015e D8F80030 		ldr	r3, [r8]
 305 0162 DB7C     		ldrb	r3, [r3, #19]	@ zero_extendqisi2
 306 0164 88F81E30 		strb	r3, [r8, #30]
 301:/Users/imashio/Electronics/ARM/_Library/u8x8_d_uc1610.c **** }
 307              		.loc 1 301 0
 308 0168 0120     		movs	r0, #1
 309 016a BBE7     		b	.L2
 310              	.L22:
 311              		.align	2
 312              	.L21:
 313 016c 02000000 		.word	.LANCHOR6+2
 314 0170 00000000 		.word	.LANCHOR0
 315 0174 00000000 		.word	.LANCHOR1
 316 0178 00000000 		.word	.LANCHOR2
 317 017c 00000000 		.word	.LANCHOR4
 318 0180 00000000 		.word	.LANCHOR3
 319 0184 00000000 		.word	.LANCHOR5
 320 0188 00000000 		.word	.LANCHOR6
 321              		.cfi_endproc
 322              	.LFE1:
 324              		.section	.bss.buf.6264,"aw",%nobits
 325              		.align	2
 326              		.set	.LANCHOR6,. + 0
 329              	buf.6264:
 330 0000 00000000 		.space	16
 330      00000000 
 330      00000000 
 330      00000000 
 331              		.section	.rodata.u8x8_d_uc1610_dogxl160_flip0_seq,"a",%progbits
 332              		.align	2
 333              		.set	.LANCHOR4,. + 0
 336              	u8x8_d_uc1610_dogxl160_flip0_seq:
 337 0000 18       		.byte	24
 338 0001 15       		.byte	21
 339 0002 C0       		.byte	-64
ARM GAS  /var/folders/v3/wysfpd052nz8jkbx04pk0ym80000gn/T//ccWcnbGm.s 			page 13


 340 0003 19       		.byte	25
 341 0004 FF       		.byte	-1
 342              		.section	.rodata.u8x8_d_uc1610_dogxl160_flip1_seq,"a",%progbits
 343              		.align	2
 344              		.set	.LANCHOR5,. + 0
 347              	u8x8_d_uc1610_dogxl160_flip1_seq:
 348 0000 18       		.byte	24
 349 0001 15       		.byte	21
 350 0002 C6       		.byte	-58
 351 0003 19       		.byte	25
 352 0004 FF       		.byte	-1
 353              		.section	.rodata.u8x8_d_uc1610_dogxl160_init_seq,"a",%progbits
 354              		.align	2
 355              		.set	.LANCHOR1,. + 0
 358              	u8x8_d_uc1610_dogxl160_init_seq:
 359 0000 18       		.byte	24
 360 0001 15       		.byte	21
 361 0002 F1       		.byte	-15
 362 0003 16       		.byte	22
 363 0004 67       		.byte	103
 364 0005 15       		.byte	21
 365 0006 C0       		.byte	-64
 366 0007 15       		.byte	21
 367 0008 40       		.byte	64
 368 0009 15       		.byte	21
 369 000a 50       		.byte	80
 370 000b 15       		.byte	21
 371 000c 2B       		.byte	43
 372 000d 15       		.byte	21
 373 000e EB       		.byte	-21
 374 000f 15       		.byte	21
 375 0010 81       		.byte	-127
 376 0011 16       		.byte	22
 377 0012 5F       		.byte	95
 378 0013 15       		.byte	21
 379 0014 8B       		.byte	-117
 380 0015 15       		.byte	21
 381 0016 C0       		.byte	-64
 382 0017 15       		.byte	21
 383 0018 F8       		.byte	-8
 384 0019 15       		.byte	21
 385 001a 10       		.byte	16
 386 001b 15       		.byte	21
 387 001c 00       		.byte	0
 388 001d 15       		.byte	21
 389 001e B0       		.byte	-80
 390 001f 15       		.byte	21
 391 0020 A6       		.byte	-90
 392 0021 15       		.byte	21
 393 0022 A4       		.byte	-92
 394 0023 19       		.byte	25
 395 0024 FF       		.byte	-1
 396              		.section	.rodata.u8x8_d_uc1610_dogxl160_powersave0_seq,"a",%progbits
 397              		.align	2
 398              		.set	.LANCHOR2,. + 0
 401              	u8x8_d_uc1610_dogxl160_powersave0_seq:
 402 0000 18       		.byte	24
ARM GAS  /var/folders/v3/wysfpd052nz8jkbx04pk0ym80000gn/T//ccWcnbGm.s 			page 14


 403 0001 15       		.byte	21
 404 0002 AF       		.byte	-81
 405 0003 19       		.byte	25
 406 0004 FF       		.byte	-1
 407              		.section	.rodata.u8x8_d_uc1610_dogxl160_powersave1_seq,"a",%progbits
 408              		.align	2
 409              		.set	.LANCHOR3,. + 0
 412              	u8x8_d_uc1610_dogxl160_powersave1_seq:
 413 0000 18       		.byte	24
 414 0001 15       		.byte	21
 415 0002 AE       		.byte	-82
 416 0003 19       		.byte	25
 417 0004 FF       		.byte	-1
 418              		.section	.rodata.u8x8_uc1610_display_info,"a",%progbits
 419              		.align	2
 420              		.set	.LANCHOR0,. + 0
 423              	u8x8_uc1610_display_info:
 424 0000 00       		.byte	0
 425 0001 01       		.byte	1
 426 0002 0F       		.byte	15
 427 0003 0F       		.byte	15
 428 0004 01       		.byte	1
 429 0005 06       		.byte	6
 430 0006 1E       		.byte	30
 431 0007 3F       		.byte	63
 432 0008 00127A00 		.word	8000000
 433 000c 00       		.byte	0
 434 000d 04       		.byte	4
 435 000e 1E       		.byte	30
 436 000f 28       		.byte	40
 437 0010 14       		.byte	20
 438 0011 0D       		.byte	13
 439 0012 00       		.byte	0
 440 0013 00       		.byte	0
 441 0014 A000     		.short	160
 442 0016 6800     		.short	104
 443              		.text
 444              	.Letext0:
 445              		.file 2 "/usr/local/gcc-arm-none-eabi-7-2018-q2-update/arm-none-eabi/include/machine/_default_type
 446              		.file 3 "/usr/local/gcc-arm-none-eabi-7-2018-q2-update/arm-none-eabi/include/sys/_stdint.h"
 447              		.file 4 "/Users/imashio/Electronics/ARM/_Library/u8x8.h"
ARM GAS  /var/folders/v3/wysfpd052nz8jkbx04pk0ym80000gn/T//ccWcnbGm.s 			page 15

