ARM GAS  /var/folders/v3/wysfpd052nz8jkbx04pk0ym80000gn/T//ccmcHUxz.s 			page 1


   1              		.cpu cortex-m4
   2              		.eabi_attribute 27, 1
   3              		.eabi_attribute 28, 1
   4              		.eabi_attribute 20, 1
   5              		.eabi_attribute 21, 1
   6              		.eabi_attribute 23, 3
   7              		.eabi_attribute 24, 1
   8              		.eabi_attribute 25, 1
   9              		.eabi_attribute 26, 1
  10              		.eabi_attribute 30, 1
  11              		.eabi_attribute 34, 1
  12              		.eabi_attribute 18, 4
  13              		.file	"u8x8_gpio_STM32F303.c"
  14              		.text
  15              	.Ltext0:
  16              		.cfi_sections	.debug_frame
  17              		.section	.text.u8x8_gpio_and_delay_STM32F303,"ax",%progbits
  18              		.align	1
  19              		.global	u8x8_gpio_and_delay_STM32F303
  20              		.syntax unified
  21              		.thumb
  22              		.thumb_func
  23              		.fpu fpv4-sp-d16
  25              	u8x8_gpio_and_delay_STM32F303:
  26              	.LFB126:
  27              		.file 1 "/Users/imashio/Electronics/ARM/_Library/u8x8_gpio_STM32F303.c"
   1:/Users/imashio/Electronics/ARM/_Library/u8x8_gpio_STM32F303.c **** /*
   2:/Users/imashio/Electronics/ARM/_Library/u8x8_gpio_STM32F303.c ****  * u8x8_gpio_STM32F303.c
   3:/Users/imashio/Electronics/ARM/_Library/u8x8_gpio_STM32F303.c ****  *
   4:/Users/imashio/Electronics/ARM/_Library/u8x8_gpio_STM32F303.c ****  *  Created on: Jan 29, 2018
   5:/Users/imashio/Electronics/ARM/_Library/u8x8_gpio_STM32F303.c ****  *      Author: imashio
   6:/Users/imashio/Electronics/ARM/_Library/u8x8_gpio_STM32F303.c ****  */
   7:/Users/imashio/Electronics/ARM/_Library/u8x8_gpio_STM32F303.c **** 
   8:/Users/imashio/Electronics/ARM/_Library/u8x8_gpio_STM32F303.c **** #include "stm32f3xx_hal.h"
   9:/Users/imashio/Electronics/ARM/_Library/u8x8_gpio_STM32F303.c **** #include "u8g2.h"		// graphic display library
  10:/Users/imashio/Electronics/ARM/_Library/u8x8_gpio_STM32F303.c **** 
  11:/Users/imashio/Electronics/ARM/_Library/u8x8_gpio_STM32F303.c **** uint8_t u8x8_gpio_and_delay_STM32F303(u8x8_t *u8x8, uint8_t msg, uint8_t arg_int, void *arg_ptr)
  12:/Users/imashio/Electronics/ARM/_Library/u8x8_gpio_STM32F303.c **** {
  28              		.loc 1 12 0
  29              		.cfi_startproc
  30              		@ args = 0, pretend = 0, frame = 0
  31              		@ frame_needed = 0, uses_anonymous_args = 0
  32              	.LVL0:
  33 0000 08B5     		push	{r3, lr}
  34              	.LCFI0:
  35              		.cfi_def_cfa_offset 8
  36              		.cfi_offset 3, -8
  37              		.cfi_offset 14, -4
  13:/Users/imashio/Electronics/ARM/_Library/u8x8_gpio_STM32F303.c ****   switch(msg)
  38              		.loc 1 13 0
  39 0002 2839     		subs	r1, r1, #40
  40              	.LVL1:
  41 0004 2B29     		cmp	r1, #43
  42 0006 45D8     		bhi	.L2
  43 0008 DFE801F0 		tbb	[pc, r1]
  44              	.LVL2:
  45              	.L4:
ARM GAS  /var/folders/v3/wysfpd052nz8jkbx04pk0ym80000gn/T//ccmcHUxz.s 			page 2


  46 000c 19       		.byte	(.L3-.L4)/2
  47 000d 1B       		.byte	(.L5-.L4)/2
  48 000e 16       		.byte	(.L6-.L4)/2
  49 000f 19       		.byte	(.L3-.L4)/2
  50 0010 19       		.byte	(.L3-.L4)/2
  51 0011 19       		.byte	(.L3-.L4)/2
  52 0012 44       		.byte	(.L2-.L4)/2
  53 0013 44       		.byte	(.L2-.L4)/2
  54 0014 44       		.byte	(.L2-.L4)/2
  55 0015 44       		.byte	(.L2-.L4)/2
  56 0016 44       		.byte	(.L2-.L4)/2
  57 0017 44       		.byte	(.L2-.L4)/2
  58 0018 44       		.byte	(.L2-.L4)/2
  59 0019 44       		.byte	(.L2-.L4)/2
  60 001a 44       		.byte	(.L2-.L4)/2
  61 001b 44       		.byte	(.L2-.L4)/2
  62 001c 44       		.byte	(.L2-.L4)/2
  63 001d 44       		.byte	(.L2-.L4)/2
  64 001e 44       		.byte	(.L2-.L4)/2
  65 001f 44       		.byte	(.L2-.L4)/2
  66 0020 44       		.byte	(.L2-.L4)/2
  67 0021 44       		.byte	(.L2-.L4)/2
  68 0022 44       		.byte	(.L2-.L4)/2
  69 0023 44       		.byte	(.L2-.L4)/2
  70 0024 20       		.byte	(.L7-.L4)/2
  71 0025 25       		.byte	(.L8-.L4)/2
  72 0026 19       		.byte	(.L3-.L4)/2
  73 0027 19       		.byte	(.L3-.L4)/2
  74 0028 19       		.byte	(.L3-.L4)/2
  75 0029 19       		.byte	(.L3-.L4)/2
  76 002a 19       		.byte	(.L3-.L4)/2
  77 002b 19       		.byte	(.L3-.L4)/2
  78 002c 19       		.byte	(.L3-.L4)/2
  79 002d 2A       		.byte	(.L9-.L4)/2
  80 002e 2F       		.byte	(.L10-.L4)/2
  81 002f 19       		.byte	(.L3-.L4)/2
  82 0030 19       		.byte	(.L3-.L4)/2
  83 0031 19       		.byte	(.L3-.L4)/2
  84 0032 19       		.byte	(.L3-.L4)/2
  85 0033 19       		.byte	(.L3-.L4)/2
  86 0034 34       		.byte	(.L11-.L4)/2
  87 0035 38       		.byte	(.L12-.L4)/2
  88 0036 3C       		.byte	(.L13-.L4)/2
  89 0037 40       		.byte	(.L14-.L4)/2
  90              		.p2align 1
  91              	.L6:
  92              	.LBB2:
  14:/Users/imashio/Electronics/ARM/_Library/u8x8_gpio_STM32F303.c ****   {
  15:/Users/imashio/Electronics/ARM/_Library/u8x8_gpio_STM32F303.c ****     case U8X8_MSG_GPIO_AND_DELAY_INIT:	// called once during init phase of u8g2/u8x8
  16:/Users/imashio/Electronics/ARM/_Library/u8x8_gpio_STM32F303.c ****     	break;							// can be used to setup pins
  17:/Users/imashio/Electronics/ARM/_Library/u8x8_gpio_STM32F303.c ****     case U8X8_MSG_DELAY_NANO:			// delay arg_int * 1 nano second
  18:/Users/imashio/Electronics/ARM/_Library/u8x8_gpio_STM32F303.c **** 		break;
  19:/Users/imashio/Electronics/ARM/_Library/u8x8_gpio_STM32F303.c ****     case U8X8_MSG_DELAY_100NANO:		// delay arg_int * 100 nano seconds
  20:/Users/imashio/Electronics/ARM/_Library/u8x8_gpio_STM32F303.c **** 		break;
  21:/Users/imashio/Electronics/ARM/_Library/u8x8_gpio_STM32F303.c ****     case U8X8_MSG_DELAY_10MICRO:		// delay arg_int * 10 micro seconds
  22:/Users/imashio/Electronics/ARM/_Library/u8x8_gpio_STM32F303.c ****     	delay_us(1);
  93              		.loc 1 22 0
ARM GAS  /var/folders/v3/wysfpd052nz8jkbx04pk0ym80000gn/T//ccmcHUxz.s 			page 3


  94 0038 0120     		movs	r0, #1
  95              	.LVL3:
  96 003a FFF7FEFF 		bl	delay_us
  97              	.LVL4:
  98              	.L3:
  99              	.LBE2:
  23:/Users/imashio/Electronics/ARM/_Library/u8x8_gpio_STM32F303.c **** 		break;
  24:/Users/imashio/Electronics/ARM/_Library/u8x8_gpio_STM32F303.c ****     case U8X8_MSG_DELAY_MILLI:			// delay arg_int * 1 milli second
  25:/Users/imashio/Electronics/ARM/_Library/u8x8_gpio_STM32F303.c **** 		HAL_Delay(1000);
  26:/Users/imashio/Electronics/ARM/_Library/u8x8_gpio_STM32F303.c **** 		break;
  27:/Users/imashio/Electronics/ARM/_Library/u8x8_gpio_STM32F303.c ****     case U8X8_MSG_DELAY_I2C:				// arg_int is the I2C speed in 100KHz, e.g. 4 = 400 KHz
  28:/Users/imashio/Electronics/ARM/_Library/u8x8_gpio_STM32F303.c ****     	break;							// arg_int=1: delay by 5us, arg_int = 4: delay by 1.25us
  29:/Users/imashio/Electronics/ARM/_Library/u8x8_gpio_STM32F303.c ****     //case U8X8_MSG_GPIO_D0:				// D0 or SPI clock pin: Output level in arg_int
  30:/Users/imashio/Electronics/ARM/_Library/u8x8_gpio_STM32F303.c ****     case U8X8_MSG_GPIO_SPI_CLOCK:
  31:/Users/imashio/Electronics/ARM/_Library/u8x8_gpio_STM32F303.c ****     	HAL_GPIO_WritePin( GPIOB, GPIO_PIN_4 ,arg_int );
  32:/Users/imashio/Electronics/ARM/_Library/u8x8_gpio_STM32F303.c ****     	break;
  33:/Users/imashio/Electronics/ARM/_Library/u8x8_gpio_STM32F303.c ****     //case U8X8_MSG_GPIO_D1:				// D1 or SPI data pin: Output level in arg_int
  34:/Users/imashio/Electronics/ARM/_Library/u8x8_gpio_STM32F303.c ****     case U8X8_MSG_GPIO_SPI_DATA:
  35:/Users/imashio/Electronics/ARM/_Library/u8x8_gpio_STM32F303.c ****     	HAL_GPIO_WritePin( GPIOB, GPIO_PIN_5 ,arg_int );
  36:/Users/imashio/Electronics/ARM/_Library/u8x8_gpio_STM32F303.c ****     	break;
  37:/Users/imashio/Electronics/ARM/_Library/u8x8_gpio_STM32F303.c ****     case U8X8_MSG_GPIO_D2:				// D2 pin: Output level in arg_int
  38:/Users/imashio/Electronics/ARM/_Library/u8x8_gpio_STM32F303.c ****       break;
  39:/Users/imashio/Electronics/ARM/_Library/u8x8_gpio_STM32F303.c ****     case U8X8_MSG_GPIO_D3:				// D3 pin: Output level in arg_int
  40:/Users/imashio/Electronics/ARM/_Library/u8x8_gpio_STM32F303.c ****       break;
  41:/Users/imashio/Electronics/ARM/_Library/u8x8_gpio_STM32F303.c ****     case U8X8_MSG_GPIO_D4:				// D4 pin: Output level in arg_int
  42:/Users/imashio/Electronics/ARM/_Library/u8x8_gpio_STM32F303.c ****       break;
  43:/Users/imashio/Electronics/ARM/_Library/u8x8_gpio_STM32F303.c ****     case U8X8_MSG_GPIO_D5:				// D5 pin: Output level in arg_int
  44:/Users/imashio/Electronics/ARM/_Library/u8x8_gpio_STM32F303.c ****       break;
  45:/Users/imashio/Electronics/ARM/_Library/u8x8_gpio_STM32F303.c ****     case U8X8_MSG_GPIO_D6:				// D6 pin: Output level in arg_int
  46:/Users/imashio/Electronics/ARM/_Library/u8x8_gpio_STM32F303.c ****       break;
  47:/Users/imashio/Electronics/ARM/_Library/u8x8_gpio_STM32F303.c ****     case U8X8_MSG_GPIO_D7:				// D7 pin: Output level in arg_int
  48:/Users/imashio/Electronics/ARM/_Library/u8x8_gpio_STM32F303.c ****       break;
  49:/Users/imashio/Electronics/ARM/_Library/u8x8_gpio_STM32F303.c ****     case U8X8_MSG_GPIO_E:				// E/WR pin: Output level in arg_int
  50:/Users/imashio/Electronics/ARM/_Library/u8x8_gpio_STM32F303.c ****       break;
  51:/Users/imashio/Electronics/ARM/_Library/u8x8_gpio_STM32F303.c ****     case U8X8_MSG_GPIO_CS:				// CS (chip select) pin: Output level in arg_int
  52:/Users/imashio/Electronics/ARM/_Library/u8x8_gpio_STM32F303.c ****     	HAL_GPIO_WritePin( GPIOB, GPIO_PIN_0 ,arg_int );
  53:/Users/imashio/Electronics/ARM/_Library/u8x8_gpio_STM32F303.c ****     	break;
  54:/Users/imashio/Electronics/ARM/_Library/u8x8_gpio_STM32F303.c ****     case U8X8_MSG_GPIO_DC:				// DC (data/cmd, A0, register select) pin: Output level in arg_int
  55:/Users/imashio/Electronics/ARM/_Library/u8x8_gpio_STM32F303.c ****     	HAL_GPIO_WritePin( GPIOB, GPIO_PIN_1 ,arg_int );
  56:/Users/imashio/Electronics/ARM/_Library/u8x8_gpio_STM32F303.c ****     	break;
  57:/Users/imashio/Electronics/ARM/_Library/u8x8_gpio_STM32F303.c ****     case U8X8_MSG_GPIO_RESET:			// Reset pin: Output level in arg_int
  58:/Users/imashio/Electronics/ARM/_Library/u8x8_gpio_STM32F303.c ****       break;
  59:/Users/imashio/Electronics/ARM/_Library/u8x8_gpio_STM32F303.c ****     case U8X8_MSG_GPIO_CS1:				// CS1 (chip select) pin: Output level in arg_int
  60:/Users/imashio/Electronics/ARM/_Library/u8x8_gpio_STM32F303.c ****       break;
  61:/Users/imashio/Electronics/ARM/_Library/u8x8_gpio_STM32F303.c ****     case U8X8_MSG_GPIO_CS2:				// CS2 (chip select) pin: Output level in arg_int
  62:/Users/imashio/Electronics/ARM/_Library/u8x8_gpio_STM32F303.c ****       break;
  63:/Users/imashio/Electronics/ARM/_Library/u8x8_gpio_STM32F303.c ****     case U8X8_MSG_GPIO_I2C_CLOCK:		// arg_int=0: Output low at I2C clock pin
  64:/Users/imashio/Electronics/ARM/_Library/u8x8_gpio_STM32F303.c ****       break;							// arg_int=1: Input dir with pullup high for I2C clock pin
  65:/Users/imashio/Electronics/ARM/_Library/u8x8_gpio_STM32F303.c ****     case U8X8_MSG_GPIO_I2C_DATA:			// arg_int=0: Output low at I2C data pin
  66:/Users/imashio/Electronics/ARM/_Library/u8x8_gpio_STM32F303.c ****       break;							// arg_int=1: Input dir with pullup high for I2C data pin
  67:/Users/imashio/Electronics/ARM/_Library/u8x8_gpio_STM32F303.c ****     case U8X8_MSG_GPIO_MENU_SELECT:
  68:/Users/imashio/Electronics/ARM/_Library/u8x8_gpio_STM32F303.c ****       u8x8_SetGPIOResult(u8x8, /* get menu select pin state */ 0);
  69:/Users/imashio/Electronics/ARM/_Library/u8x8_gpio_STM32F303.c ****       break;
  70:/Users/imashio/Electronics/ARM/_Library/u8x8_gpio_STM32F303.c ****     case U8X8_MSG_GPIO_MENU_NEXT:
  71:/Users/imashio/Electronics/ARM/_Library/u8x8_gpio_STM32F303.c ****       u8x8_SetGPIOResult(u8x8, /* get menu next pin state */ 0);
  72:/Users/imashio/Electronics/ARM/_Library/u8x8_gpio_STM32F303.c ****       break;
  73:/Users/imashio/Electronics/ARM/_Library/u8x8_gpio_STM32F303.c ****     case U8X8_MSG_GPIO_MENU_PREV:
ARM GAS  /var/folders/v3/wysfpd052nz8jkbx04pk0ym80000gn/T//ccmcHUxz.s 			page 4


  74:/Users/imashio/Electronics/ARM/_Library/u8x8_gpio_STM32F303.c ****       u8x8_SetGPIOResult(u8x8, /* get menu prev pin state */ 0);
  75:/Users/imashio/Electronics/ARM/_Library/u8x8_gpio_STM32F303.c ****       break;
  76:/Users/imashio/Electronics/ARM/_Library/u8x8_gpio_STM32F303.c ****     case U8X8_MSG_GPIO_MENU_HOME:
  77:/Users/imashio/Electronics/ARM/_Library/u8x8_gpio_STM32F303.c ****       u8x8_SetGPIOResult(u8x8, /* get menu home pin state */ 0);
  78:/Users/imashio/Electronics/ARM/_Library/u8x8_gpio_STM32F303.c ****       break;
  79:/Users/imashio/Electronics/ARM/_Library/u8x8_gpio_STM32F303.c ****     default:
  80:/Users/imashio/Electronics/ARM/_Library/u8x8_gpio_STM32F303.c ****       u8x8_SetGPIOResult(u8x8, 1);			// default return value
  81:/Users/imashio/Electronics/ARM/_Library/u8x8_gpio_STM32F303.c ****       break;
  82:/Users/imashio/Electronics/ARM/_Library/u8x8_gpio_STM32F303.c ****   }
  83:/Users/imashio/Electronics/ARM/_Library/u8x8_gpio_STM32F303.c ****   return 1;
  84:/Users/imashio/Electronics/ARM/_Library/u8x8_gpio_STM32F303.c **** }
 100              		.loc 1 84 0
 101 003e 0120     		movs	r0, #1
 102 0040 08BD     		pop	{r3, pc}
 103              	.LVL5:
 104              	.L5:
 105              	.LBB3:
  25:/Users/imashio/Electronics/ARM/_Library/u8x8_gpio_STM32F303.c **** 		break;
 106              		.loc 1 25 0
 107 0042 4FF47A70 		mov	r0, #1000
 108              	.LVL6:
 109 0046 FFF7FEFF 		bl	HAL_Delay
 110              	.LVL7:
  26:/Users/imashio/Electronics/ARM/_Library/u8x8_gpio_STM32F303.c ****     case U8X8_MSG_DELAY_I2C:				// arg_int is the I2C speed in 100KHz, e.g. 4 = 400 KHz
 111              		.loc 1 26 0
 112 004a F8E7     		b	.L3
 113              	.LVL8:
 114              	.L7:
  31:/Users/imashio/Electronics/ARM/_Library/u8x8_gpio_STM32F303.c ****     	break;
 115              		.loc 1 31 0
 116 004c 1021     		movs	r1, #16
 117 004e 1348     		ldr	r0, .L16
 118              	.LVL9:
 119 0050 FFF7FEFF 		bl	HAL_GPIO_WritePin
 120              	.LVL10:
  32:/Users/imashio/Electronics/ARM/_Library/u8x8_gpio_STM32F303.c ****     //case U8X8_MSG_GPIO_D1:				// D1 or SPI data pin: Output level in arg_int
 121              		.loc 1 32 0
 122 0054 F3E7     		b	.L3
 123              	.LVL11:
 124              	.L8:
  35:/Users/imashio/Electronics/ARM/_Library/u8x8_gpio_STM32F303.c ****     	break;
 125              		.loc 1 35 0
 126 0056 2021     		movs	r1, #32
 127 0058 1048     		ldr	r0, .L16
 128              	.LVL12:
 129 005a FFF7FEFF 		bl	HAL_GPIO_WritePin
 130              	.LVL13:
  36:/Users/imashio/Electronics/ARM/_Library/u8x8_gpio_STM32F303.c ****     case U8X8_MSG_GPIO_D2:				// D2 pin: Output level in arg_int
 131              		.loc 1 36 0
 132 005e EEE7     		b	.L3
 133              	.LVL14:
 134              	.L9:
  52:/Users/imashio/Electronics/ARM/_Library/u8x8_gpio_STM32F303.c ****     	break;
 135              		.loc 1 52 0
 136 0060 0121     		movs	r1, #1
 137 0062 0E48     		ldr	r0, .L16
 138              	.LVL15:
ARM GAS  /var/folders/v3/wysfpd052nz8jkbx04pk0ym80000gn/T//ccmcHUxz.s 			page 5


 139 0064 FFF7FEFF 		bl	HAL_GPIO_WritePin
 140              	.LVL16:
  53:/Users/imashio/Electronics/ARM/_Library/u8x8_gpio_STM32F303.c ****     case U8X8_MSG_GPIO_DC:				// DC (data/cmd, A0, register select) pin: Output level in arg_int
 141              		.loc 1 53 0
 142 0068 E9E7     		b	.L3
 143              	.LVL17:
 144              	.L10:
  55:/Users/imashio/Electronics/ARM/_Library/u8x8_gpio_STM32F303.c ****     	break;
 145              		.loc 1 55 0
 146 006a 0221     		movs	r1, #2
 147 006c 0B48     		ldr	r0, .L16
 148              	.LVL18:
 149 006e FFF7FEFF 		bl	HAL_GPIO_WritePin
 150              	.LVL19:
  56:/Users/imashio/Electronics/ARM/_Library/u8x8_gpio_STM32F303.c ****     case U8X8_MSG_GPIO_RESET:			// Reset pin: Output level in arg_int
 151              		.loc 1 56 0
 152 0072 E4E7     		b	.L3
 153              	.LVL20:
 154              	.L11:
  68:/Users/imashio/Electronics/ARM/_Library/u8x8_gpio_STM32F303.c ****       break;
 155              		.loc 1 68 0
 156 0074 0023     		movs	r3, #0
 157 0076 80F82430 		strb	r3, [r0, #36]
  69:/Users/imashio/Electronics/ARM/_Library/u8x8_gpio_STM32F303.c ****     case U8X8_MSG_GPIO_MENU_NEXT:
 158              		.loc 1 69 0
 159 007a E0E7     		b	.L3
 160              	.L12:
  71:/Users/imashio/Electronics/ARM/_Library/u8x8_gpio_STM32F303.c ****       break;
 161              		.loc 1 71 0
 162 007c 0023     		movs	r3, #0
 163 007e 80F82430 		strb	r3, [r0, #36]
  72:/Users/imashio/Electronics/ARM/_Library/u8x8_gpio_STM32F303.c ****     case U8X8_MSG_GPIO_MENU_PREV:
 164              		.loc 1 72 0
 165 0082 DCE7     		b	.L3
 166              	.L13:
  74:/Users/imashio/Electronics/ARM/_Library/u8x8_gpio_STM32F303.c ****       break;
 167              		.loc 1 74 0
 168 0084 0023     		movs	r3, #0
 169 0086 80F82430 		strb	r3, [r0, #36]
  75:/Users/imashio/Electronics/ARM/_Library/u8x8_gpio_STM32F303.c ****     case U8X8_MSG_GPIO_MENU_HOME:
 170              		.loc 1 75 0
 171 008a D8E7     		b	.L3
 172              	.L14:
  77:/Users/imashio/Electronics/ARM/_Library/u8x8_gpio_STM32F303.c ****       break;
 173              		.loc 1 77 0
 174 008c 0023     		movs	r3, #0
 175 008e 80F82430 		strb	r3, [r0, #36]
  78:/Users/imashio/Electronics/ARM/_Library/u8x8_gpio_STM32F303.c ****     default:
 176              		.loc 1 78 0
 177 0092 D4E7     		b	.L3
 178              	.L2:
  80:/Users/imashio/Electronics/ARM/_Library/u8x8_gpio_STM32F303.c ****       break;
 179              		.loc 1 80 0
 180 0094 0123     		movs	r3, #1
 181 0096 80F82430 		strb	r3, [r0, #36]
  81:/Users/imashio/Electronics/ARM/_Library/u8x8_gpio_STM32F303.c ****   }
 182              		.loc 1 81 0
ARM GAS  /var/folders/v3/wysfpd052nz8jkbx04pk0ym80000gn/T//ccmcHUxz.s 			page 6


 183 009a D0E7     		b	.L3
 184              	.L17:
 185              		.align	2
 186              	.L16:
 187 009c 00040048 		.word	1207960576
 188              	.LBE3:
 189              		.cfi_endproc
 190              	.LFE126:
 192              		.text
 193              	.Letext0:
 194              		.file 2 "/usr/local/gcc-arm-none-eabi-7-2018-q2-update/arm-none-eabi/include/machine/_default_type
 195              		.file 3 "/usr/local/gcc-arm-none-eabi-7-2018-q2-update/arm-none-eabi/include/sys/_stdint.h"
 196              		.file 4 "Drivers/CMSIS/Include/core_cm4.h"
 197              		.file 5 "Drivers/CMSIS/Device/ST/STM32F3xx/Include/system_stm32f3xx.h"
 198              		.file 6 "Drivers/CMSIS/Device/ST/STM32F3xx/Include/stm32f303x8.h"
 199              		.file 7 "/usr/local/gcc-arm-none-eabi-7-2018-q2-update/arm-none-eabi/include/sys/lock.h"
 200              		.file 8 "/usr/local/gcc-arm-none-eabi-7-2018-q2-update/arm-none-eabi/include/sys/_types.h"
 201              		.file 9 "/usr/local/gcc-arm-none-eabi-7-2018-q2-update/lib/gcc/arm-none-eabi/7.3.1/include/stddef.
 202              		.file 10 "/usr/local/gcc-arm-none-eabi-7-2018-q2-update/arm-none-eabi/include/sys/reent.h"
 203              		.file 11 "/Users/imashio/Electronics/ARM/_Library/u8x8.h"
 204              		.file 12 "/Users/imashio/Electronics/ARM/_Library/u8g2.h"
 205              		.file 13 "Drivers/STM32F3xx_HAL_Driver/Inc/stm32f3xx_hal.h"
 206              		.file 14 "Drivers/STM32F3xx_HAL_Driver/Inc/stm32f3xx_hal_gpio.h"
ARM GAS  /var/folders/v3/wysfpd052nz8jkbx04pk0ym80000gn/T//ccmcHUxz.s 			page 7


DEFINED SYMBOLS
                            *ABS*:0000000000000000 u8x8_gpio_STM32F303.c
/var/folders/v3/wysfpd052nz8jkbx04pk0ym80000gn/T//ccmcHUxz.s:18     .text.u8x8_gpio_and_delay_STM32F303:0000000000000000 $t
/var/folders/v3/wysfpd052nz8jkbx04pk0ym80000gn/T//ccmcHUxz.s:25     .text.u8x8_gpio_and_delay_STM32F303:0000000000000000 u8x8_gpio_and_delay_STM32F303
/var/folders/v3/wysfpd052nz8jkbx04pk0ym80000gn/T//ccmcHUxz.s:46     .text.u8x8_gpio_and_delay_STM32F303:000000000000000c $d
/var/folders/v3/wysfpd052nz8jkbx04pk0ym80000gn/T//ccmcHUxz.s:90     .text.u8x8_gpio_and_delay_STM32F303:0000000000000038 $t
/var/folders/v3/wysfpd052nz8jkbx04pk0ym80000gn/T//ccmcHUxz.s:187    .text.u8x8_gpio_and_delay_STM32F303:000000000000009c $d

UNDEFINED SYMBOLS
delay_us
HAL_Delay
HAL_GPIO_WritePin
