ARM GAS  /var/folders/v3/wysfpd052nz8jkbx04pk0ym80000gn/T//ccLJl6gU.s 			page 1


   1              		.cpu cortex-m4
   2              		.eabi_attribute 27, 1
   3              		.eabi_attribute 28, 1
   4              		.eabi_attribute 20, 1
   5              		.eabi_attribute 21, 1
   6              		.eabi_attribute 23, 3
   7              		.eabi_attribute 24, 1
   8              		.eabi_attribute 25, 1
   9              		.eabi_attribute 26, 1
  10              		.eabi_attribute 30, 2
  11              		.eabi_attribute 34, 1
  12              		.eabi_attribute 18, 4
  13              		.file	"u8x8_gpio_STM32F303.c"
  14              		.text
  15              	.Ltext0:
  16              		.cfi_sections	.debug_frame
  17              		.section	.text.u8x8_gpio_and_delay_STM32F303,"ax",%progbits
  18              		.align	1
  19              		.p2align 2,,3
  20              		.global	u8x8_gpio_and_delay_STM32F303
  21              		.syntax unified
  22              		.thumb
  23              		.thumb_func
  24              		.fpu fpv4-sp-d16
  26              	u8x8_gpio_and_delay_STM32F303:
  27              	.LFB123:
  28              		.file 1 "/Users/imashio/Electronics/ARM/_Library/u8x8_gpio_STM32F303.c"
   1:/Users/imashio/Electronics/ARM/_Library/u8x8_gpio_STM32F303.c **** /*
   2:/Users/imashio/Electronics/ARM/_Library/u8x8_gpio_STM32F303.c ****  * u8x8_gpio_STM32F303.c
   3:/Users/imashio/Electronics/ARM/_Library/u8x8_gpio_STM32F303.c ****  *
   4:/Users/imashio/Electronics/ARM/_Library/u8x8_gpio_STM32F303.c ****  *  Created on: Jan 29, 2018
   5:/Users/imashio/Electronics/ARM/_Library/u8x8_gpio_STM32F303.c ****  *      Author: imashio
   6:/Users/imashio/Electronics/ARM/_Library/u8x8_gpio_STM32F303.c ****  */
   7:/Users/imashio/Electronics/ARM/_Library/u8x8_gpio_STM32F303.c **** 
   8:/Users/imashio/Electronics/ARM/_Library/u8x8_gpio_STM32F303.c **** #include "stm32f3xx_hal.h"
   9:/Users/imashio/Electronics/ARM/_Library/u8x8_gpio_STM32F303.c **** #include "u8g2.h"		// graphic display library
  10:/Users/imashio/Electronics/ARM/_Library/u8x8_gpio_STM32F303.c **** 
  11:/Users/imashio/Electronics/ARM/_Library/u8x8_gpio_STM32F303.c **** uint8_t u8x8_gpio_and_delay_STM32F303(u8x8_t *u8x8, uint8_t msg, uint8_t arg_int, void *arg_ptr)
  12:/Users/imashio/Electronics/ARM/_Library/u8x8_gpio_STM32F303.c **** {
  29              		.loc 1 12 0
  30              		.cfi_startproc
  31              		@ args = 0, pretend = 0, frame = 0
  32              		@ frame_needed = 0, uses_anonymous_args = 0
  33              	.LVL0:
  13:/Users/imashio/Electronics/ARM/_Library/u8x8_gpio_STM32F303.c ****   switch(msg)
  34              		.loc 1 13 0
  35 0000 2839     		subs	r1, r1, #40
  36              	.LVL1:
  12:/Users/imashio/Electronics/ARM/_Library/u8x8_gpio_STM32F303.c ****   switch(msg)
  37              		.loc 1 12 0
  38 0002 08B5     		push	{r3, lr}
  39              	.LCFI0:
  40              		.cfi_def_cfa_offset 8
  41              		.cfi_offset 3, -8
  42              		.cfi_offset 14, -4
  43              		.loc 1 13 0
  44 0004 2B29     		cmp	r1, #43
ARM GAS  /var/folders/v3/wysfpd052nz8jkbx04pk0ym80000gn/T//ccLJl6gU.s 			page 2


  45 0006 17D8     		bhi	.L2
  46 0008 DFE801F0 		tbb	[pc, r1]
  47              	.LVL2:
  48              	.L4:
  49 000c 19       		.byte	(.L3-.L4)/2
  50 000d 34       		.byte	(.L5-.L4)/2
  51 000e 38       		.byte	(.L6-.L4)/2
  52 000f 19       		.byte	(.L3-.L4)/2
  53 0010 19       		.byte	(.L3-.L4)/2
  54 0011 19       		.byte	(.L3-.L4)/2
  55 0012 16       		.byte	(.L2-.L4)/2
  56 0013 16       		.byte	(.L2-.L4)/2
  57 0014 16       		.byte	(.L2-.L4)/2
  58 0015 16       		.byte	(.L2-.L4)/2
  59 0016 16       		.byte	(.L2-.L4)/2
  60 0017 16       		.byte	(.L2-.L4)/2
  61 0018 16       		.byte	(.L2-.L4)/2
  62 0019 16       		.byte	(.L2-.L4)/2
  63 001a 16       		.byte	(.L2-.L4)/2
  64 001b 16       		.byte	(.L2-.L4)/2
  65 001c 16       		.byte	(.L2-.L4)/2
  66 001d 16       		.byte	(.L2-.L4)/2
  67 001e 16       		.byte	(.L2-.L4)/2
  68 001f 16       		.byte	(.L2-.L4)/2
  69 0020 16       		.byte	(.L2-.L4)/2
  70 0021 16       		.byte	(.L2-.L4)/2
  71 0022 16       		.byte	(.L2-.L4)/2
  72 0023 16       		.byte	(.L2-.L4)/2
  73 0024 2A       		.byte	(.L7-.L4)/2
  74 0025 2F       		.byte	(.L8-.L4)/2
  75 0026 19       		.byte	(.L3-.L4)/2
  76 0027 19       		.byte	(.L3-.L4)/2
  77 0028 19       		.byte	(.L3-.L4)/2
  78 0029 19       		.byte	(.L3-.L4)/2
  79 002a 19       		.byte	(.L3-.L4)/2
  80 002b 19       		.byte	(.L3-.L4)/2
  81 002c 19       		.byte	(.L3-.L4)/2
  82 002d 20       		.byte	(.L9-.L4)/2
  83 002e 25       		.byte	(.L10-.L4)/2
  84 002f 19       		.byte	(.L3-.L4)/2
  85 0030 19       		.byte	(.L3-.L4)/2
  86 0031 19       		.byte	(.L3-.L4)/2
  87 0032 19       		.byte	(.L3-.L4)/2
  88 0033 19       		.byte	(.L3-.L4)/2
  89 0034 1B       		.byte	(.L11-.L4)/2
  90 0035 1B       		.byte	(.L11-.L4)/2
  91 0036 1B       		.byte	(.L11-.L4)/2
  92 0037 1B       		.byte	(.L11-.L4)/2
  93              		.p2align 1
  94              	.L2:
  95              	.LBB2:
  14:/Users/imashio/Electronics/ARM/_Library/u8x8_gpio_STM32F303.c ****   {
  15:/Users/imashio/Electronics/ARM/_Library/u8x8_gpio_STM32F303.c ****     case U8X8_MSG_GPIO_AND_DELAY_INIT:	// called once during init phase of u8g2/u8x8
  16:/Users/imashio/Electronics/ARM/_Library/u8x8_gpio_STM32F303.c ****     	break;							// can be used to setup pins
  17:/Users/imashio/Electronics/ARM/_Library/u8x8_gpio_STM32F303.c ****     case U8X8_MSG_DELAY_NANO:			// delay arg_int * 1 nano second
  18:/Users/imashio/Electronics/ARM/_Library/u8x8_gpio_STM32F303.c **** 		break;
  19:/Users/imashio/Electronics/ARM/_Library/u8x8_gpio_STM32F303.c ****     case U8X8_MSG_DELAY_100NANO:		// delay arg_int * 100 nano seconds
ARM GAS  /var/folders/v3/wysfpd052nz8jkbx04pk0ym80000gn/T//ccLJl6gU.s 			page 3


  20:/Users/imashio/Electronics/ARM/_Library/u8x8_gpio_STM32F303.c **** 		break;
  21:/Users/imashio/Electronics/ARM/_Library/u8x8_gpio_STM32F303.c ****     case U8X8_MSG_DELAY_10MICRO:		// delay arg_int * 10 micro seconds
  22:/Users/imashio/Electronics/ARM/_Library/u8x8_gpio_STM32F303.c ****     	delay_us(1);
  23:/Users/imashio/Electronics/ARM/_Library/u8x8_gpio_STM32F303.c **** 		break;
  24:/Users/imashio/Electronics/ARM/_Library/u8x8_gpio_STM32F303.c ****     case U8X8_MSG_DELAY_MILLI:			// delay arg_int * 1 milli second
  25:/Users/imashio/Electronics/ARM/_Library/u8x8_gpio_STM32F303.c **** 		HAL_Delay(arg_int);
  26:/Users/imashio/Electronics/ARM/_Library/u8x8_gpio_STM32F303.c **** 		break;
  27:/Users/imashio/Electronics/ARM/_Library/u8x8_gpio_STM32F303.c ****     case U8X8_MSG_DELAY_I2C:				// arg_int is the I2C speed in 100KHz, e.g. 4 = 400 KHz
  28:/Users/imashio/Electronics/ARM/_Library/u8x8_gpio_STM32F303.c ****     	break;							// arg_int=1: delay by 5us, arg_int = 4: delay by 1.25us
  29:/Users/imashio/Electronics/ARM/_Library/u8x8_gpio_STM32F303.c ****     //case U8X8_MSG_GPIO_D0:				// D0 or SPI clock pin: Output level in arg_int
  30:/Users/imashio/Electronics/ARM/_Library/u8x8_gpio_STM32F303.c ****     case U8X8_MSG_GPIO_SPI_CLOCK:
  31:/Users/imashio/Electronics/ARM/_Library/u8x8_gpio_STM32F303.c ****     	HAL_GPIO_WritePin( GPIOB, GPIO_PIN_4 ,arg_int );
  32:/Users/imashio/Electronics/ARM/_Library/u8x8_gpio_STM32F303.c ****     	break;
  33:/Users/imashio/Electronics/ARM/_Library/u8x8_gpio_STM32F303.c ****     //case U8X8_MSG_GPIO_D1:				// D1 or SPI data pin: Output level in arg_int
  34:/Users/imashio/Electronics/ARM/_Library/u8x8_gpio_STM32F303.c ****     case U8X8_MSG_GPIO_SPI_DATA:
  35:/Users/imashio/Electronics/ARM/_Library/u8x8_gpio_STM32F303.c ****     	HAL_GPIO_WritePin( GPIOB, GPIO_PIN_5 ,arg_int );
  36:/Users/imashio/Electronics/ARM/_Library/u8x8_gpio_STM32F303.c ****     	break;
  37:/Users/imashio/Electronics/ARM/_Library/u8x8_gpio_STM32F303.c ****     case U8X8_MSG_GPIO_D2:				// D2 pin: Output level in arg_int
  38:/Users/imashio/Electronics/ARM/_Library/u8x8_gpio_STM32F303.c ****       break;
  39:/Users/imashio/Electronics/ARM/_Library/u8x8_gpio_STM32F303.c ****     case U8X8_MSG_GPIO_D3:				// D3 pin: Output level in arg_int
  40:/Users/imashio/Electronics/ARM/_Library/u8x8_gpio_STM32F303.c ****       break;
  41:/Users/imashio/Electronics/ARM/_Library/u8x8_gpio_STM32F303.c ****     case U8X8_MSG_GPIO_D4:				// D4 pin: Output level in arg_int
  42:/Users/imashio/Electronics/ARM/_Library/u8x8_gpio_STM32F303.c ****       break;
  43:/Users/imashio/Electronics/ARM/_Library/u8x8_gpio_STM32F303.c ****     case U8X8_MSG_GPIO_D5:				// D5 pin: Output level in arg_int
  44:/Users/imashio/Electronics/ARM/_Library/u8x8_gpio_STM32F303.c ****       break;
  45:/Users/imashio/Electronics/ARM/_Library/u8x8_gpio_STM32F303.c ****     case U8X8_MSG_GPIO_D6:				// D6 pin: Output level in arg_int
  46:/Users/imashio/Electronics/ARM/_Library/u8x8_gpio_STM32F303.c ****       break;
  47:/Users/imashio/Electronics/ARM/_Library/u8x8_gpio_STM32F303.c ****     case U8X8_MSG_GPIO_D7:				// D7 pin: Output level in arg_int
  48:/Users/imashio/Electronics/ARM/_Library/u8x8_gpio_STM32F303.c ****       break;
  49:/Users/imashio/Electronics/ARM/_Library/u8x8_gpio_STM32F303.c ****     case U8X8_MSG_GPIO_E:				// E/WR pin: Output level in arg_int
  50:/Users/imashio/Electronics/ARM/_Library/u8x8_gpio_STM32F303.c ****       break;
  51:/Users/imashio/Electronics/ARM/_Library/u8x8_gpio_STM32F303.c ****     case U8X8_MSG_GPIO_CS:				// CS (chip select) pin: Output level in arg_int
  52:/Users/imashio/Electronics/ARM/_Library/u8x8_gpio_STM32F303.c ****     	HAL_GPIO_WritePin( GPIOB, GPIO_PIN_0 ,arg_int );
  53:/Users/imashio/Electronics/ARM/_Library/u8x8_gpio_STM32F303.c ****     	break;
  54:/Users/imashio/Electronics/ARM/_Library/u8x8_gpio_STM32F303.c ****     case U8X8_MSG_GPIO_DC:				// DC (data/cmd, A0, register select) pin: Output level in arg_int
  55:/Users/imashio/Electronics/ARM/_Library/u8x8_gpio_STM32F303.c ****     	HAL_GPIO_WritePin( GPIOB, GPIO_PIN_1 ,arg_int );
  56:/Users/imashio/Electronics/ARM/_Library/u8x8_gpio_STM32F303.c ****     	break;
  57:/Users/imashio/Electronics/ARM/_Library/u8x8_gpio_STM32F303.c ****     case U8X8_MSG_GPIO_RESET:			// Reset pin: Output level in arg_int
  58:/Users/imashio/Electronics/ARM/_Library/u8x8_gpio_STM32F303.c ****       break;
  59:/Users/imashio/Electronics/ARM/_Library/u8x8_gpio_STM32F303.c ****     case U8X8_MSG_GPIO_CS1:				// CS1 (chip select) pin: Output level in arg_int
  60:/Users/imashio/Electronics/ARM/_Library/u8x8_gpio_STM32F303.c ****       break;
  61:/Users/imashio/Electronics/ARM/_Library/u8x8_gpio_STM32F303.c ****     case U8X8_MSG_GPIO_CS2:				// CS2 (chip select) pin: Output level in arg_int
  62:/Users/imashio/Electronics/ARM/_Library/u8x8_gpio_STM32F303.c ****       break;
  63:/Users/imashio/Electronics/ARM/_Library/u8x8_gpio_STM32F303.c ****     case U8X8_MSG_GPIO_I2C_CLOCK:		// arg_int=0: Output low at I2C clock pin
  64:/Users/imashio/Electronics/ARM/_Library/u8x8_gpio_STM32F303.c ****       break;							// arg_int=1: Input dir with pullup high for I2C clock pin
  65:/Users/imashio/Electronics/ARM/_Library/u8x8_gpio_STM32F303.c ****     case U8X8_MSG_GPIO_I2C_DATA:			// arg_int=0: Output low at I2C data pin
  66:/Users/imashio/Electronics/ARM/_Library/u8x8_gpio_STM32F303.c ****       break;							// arg_int=1: Input dir with pullup high for I2C data pin
  67:/Users/imashio/Electronics/ARM/_Library/u8x8_gpio_STM32F303.c ****     case U8X8_MSG_GPIO_MENU_SELECT:
  68:/Users/imashio/Electronics/ARM/_Library/u8x8_gpio_STM32F303.c ****       u8x8_SetGPIOResult(u8x8, /* get menu select pin state */ 0);
  69:/Users/imashio/Electronics/ARM/_Library/u8x8_gpio_STM32F303.c ****       break;
  70:/Users/imashio/Electronics/ARM/_Library/u8x8_gpio_STM32F303.c ****     case U8X8_MSG_GPIO_MENU_NEXT:
  71:/Users/imashio/Electronics/ARM/_Library/u8x8_gpio_STM32F303.c ****       u8x8_SetGPIOResult(u8x8, /* get menu next pin state */ 0);
  72:/Users/imashio/Electronics/ARM/_Library/u8x8_gpio_STM32F303.c ****       break;
  73:/Users/imashio/Electronics/ARM/_Library/u8x8_gpio_STM32F303.c ****     case U8X8_MSG_GPIO_MENU_PREV:
  74:/Users/imashio/Electronics/ARM/_Library/u8x8_gpio_STM32F303.c ****       u8x8_SetGPIOResult(u8x8, /* get menu prev pin state */ 0);
  75:/Users/imashio/Electronics/ARM/_Library/u8x8_gpio_STM32F303.c ****       break;
  76:/Users/imashio/Electronics/ARM/_Library/u8x8_gpio_STM32F303.c ****     case U8X8_MSG_GPIO_MENU_HOME:
ARM GAS  /var/folders/v3/wysfpd052nz8jkbx04pk0ym80000gn/T//ccLJl6gU.s 			page 4


  77:/Users/imashio/Electronics/ARM/_Library/u8x8_gpio_STM32F303.c ****       u8x8_SetGPIOResult(u8x8, /* get menu home pin state */ 0);
  78:/Users/imashio/Electronics/ARM/_Library/u8x8_gpio_STM32F303.c ****       break;
  79:/Users/imashio/Electronics/ARM/_Library/u8x8_gpio_STM32F303.c ****     default:
  80:/Users/imashio/Electronics/ARM/_Library/u8x8_gpio_STM32F303.c ****       u8x8_SetGPIOResult(u8x8, 1);			// default return value
  96              		.loc 1 80 0
  97 0038 0123     		movs	r3, #1
  98 003a 80F82430 		strb	r3, [r0, #36]
  99              	.LVL3:
 100              	.L3:
 101              	.LBE2:
  81:/Users/imashio/Electronics/ARM/_Library/u8x8_gpio_STM32F303.c ****       break;
  82:/Users/imashio/Electronics/ARM/_Library/u8x8_gpio_STM32F303.c ****   }
  83:/Users/imashio/Electronics/ARM/_Library/u8x8_gpio_STM32F303.c ****   return 1;
  84:/Users/imashio/Electronics/ARM/_Library/u8x8_gpio_STM32F303.c **** }
 102              		.loc 1 84 0
 103 003e 0120     		movs	r0, #1
 104 0040 08BD     		pop	{r3, pc}
 105              	.LVL4:
 106              	.L11:
 107              	.LBB3:
  68:/Users/imashio/Electronics/ARM/_Library/u8x8_gpio_STM32F303.c ****       break;
 108              		.loc 1 68 0
 109 0042 0023     		movs	r3, #0
 110 0044 80F82430 		strb	r3, [r0, #36]
 111              	.LBE3:
 112              		.loc 1 84 0
 113 0048 0120     		movs	r0, #1
 114              	.LVL5:
 115 004a 08BD     		pop	{r3, pc}
 116              	.LVL6:
 117              	.L9:
 118              	.LBB4:
  52:/Users/imashio/Electronics/ARM/_Library/u8x8_gpio_STM32F303.c ****     	break;
 119              		.loc 1 52 0
 120 004c 0121     		movs	r1, #1
 121 004e 0D48     		ldr	r0, .L14
 122              	.LVL7:
 123 0050 FFF7FEFF 		bl	HAL_GPIO_WritePin
 124              	.LVL8:
  53:/Users/imashio/Electronics/ARM/_Library/u8x8_gpio_STM32F303.c ****     case U8X8_MSG_GPIO_DC:				// DC (data/cmd, A0, register select) pin: Output level in arg_int
 125              		.loc 1 53 0
 126 0054 F3E7     		b	.L3
 127              	.LVL9:
 128              	.L10:
  55:/Users/imashio/Electronics/ARM/_Library/u8x8_gpio_STM32F303.c ****     	break;
 129              		.loc 1 55 0
 130 0056 0221     		movs	r1, #2
 131 0058 0A48     		ldr	r0, .L14
 132              	.LVL10:
 133 005a FFF7FEFF 		bl	HAL_GPIO_WritePin
 134              	.LVL11:
  56:/Users/imashio/Electronics/ARM/_Library/u8x8_gpio_STM32F303.c ****     case U8X8_MSG_GPIO_RESET:			// Reset pin: Output level in arg_int
 135              		.loc 1 56 0
 136 005e EEE7     		b	.L3
 137              	.LVL12:
 138              	.L7:
  31:/Users/imashio/Electronics/ARM/_Library/u8x8_gpio_STM32F303.c ****     	break;
ARM GAS  /var/folders/v3/wysfpd052nz8jkbx04pk0ym80000gn/T//ccLJl6gU.s 			page 5


 139              		.loc 1 31 0
 140 0060 1021     		movs	r1, #16
 141 0062 0848     		ldr	r0, .L14
 142              	.LVL13:
 143 0064 FFF7FEFF 		bl	HAL_GPIO_WritePin
 144              	.LVL14:
  32:/Users/imashio/Electronics/ARM/_Library/u8x8_gpio_STM32F303.c ****     //case U8X8_MSG_GPIO_D1:				// D1 or SPI data pin: Output level in arg_int
 145              		.loc 1 32 0
 146 0068 E9E7     		b	.L3
 147              	.LVL15:
 148              	.L8:
  35:/Users/imashio/Electronics/ARM/_Library/u8x8_gpio_STM32F303.c ****     	break;
 149              		.loc 1 35 0
 150 006a 2021     		movs	r1, #32
 151 006c 0548     		ldr	r0, .L14
 152              	.LVL16:
 153 006e FFF7FEFF 		bl	HAL_GPIO_WritePin
 154              	.LVL17:
  36:/Users/imashio/Electronics/ARM/_Library/u8x8_gpio_STM32F303.c ****     case U8X8_MSG_GPIO_D2:				// D2 pin: Output level in arg_int
 155              		.loc 1 36 0
 156 0072 E4E7     		b	.L3
 157              	.LVL18:
 158              	.L5:
  25:/Users/imashio/Electronics/ARM/_Library/u8x8_gpio_STM32F303.c **** 		break;
 159              		.loc 1 25 0
 160 0074 1046     		mov	r0, r2
 161              	.LVL19:
 162 0076 FFF7FEFF 		bl	HAL_Delay
 163              	.LVL20:
  26:/Users/imashio/Electronics/ARM/_Library/u8x8_gpio_STM32F303.c ****     case U8X8_MSG_DELAY_I2C:				// arg_int is the I2C speed in 100KHz, e.g. 4 = 400 KHz
 164              		.loc 1 26 0
 165 007a E0E7     		b	.L3
 166              	.LVL21:
 167              	.L6:
  22:/Users/imashio/Electronics/ARM/_Library/u8x8_gpio_STM32F303.c **** 		break;
 168              		.loc 1 22 0
 169 007c 0120     		movs	r0, #1
 170              	.LVL22:
 171 007e FFF7FEFF 		bl	delay_us
 172              	.LVL23:
  23:/Users/imashio/Electronics/ARM/_Library/u8x8_gpio_STM32F303.c ****     case U8X8_MSG_DELAY_MILLI:			// delay arg_int * 1 milli second
 173              		.loc 1 23 0
 174 0082 DCE7     		b	.L3
 175              	.L15:
 176              		.align	2
 177              	.L14:
 178 0084 00040048 		.word	1207960576
 179              	.LBE4:
 180              		.cfi_endproc
 181              	.LFE123:
 183              		.text
 184              	.Letext0:
 185              		.file 2 "/usr/local/gcc-arm-none-eabi-7-2018-q2-update/arm-none-eabi/include/machine/_default_type
 186              		.file 3 "/usr/local/gcc-arm-none-eabi-7-2018-q2-update/arm-none-eabi/include/sys/_stdint.h"
 187              		.file 4 "Drivers/CMSIS/Include/core_cm4.h"
 188              		.file 5 "Drivers/CMSIS/Device/ST/STM32F3xx/Include/system_stm32f3xx.h"
 189              		.file 6 "Drivers/CMSIS/Device/ST/STM32F3xx/Include/stm32f303x8.h"
ARM GAS  /var/folders/v3/wysfpd052nz8jkbx04pk0ym80000gn/T//ccLJl6gU.s 			page 6


 190              		.file 7 "Drivers/STM32F3xx_HAL_Driver/Inc/stm32f3xx_hal.h"
 191              		.file 8 "/Users/imashio/Electronics/ARM/_Library/u8x8.h"
 192              		.file 9 "/Users/imashio/Electronics/ARM/_Library/u8g2.h"
 193              		.file 10 "Drivers/STM32F3xx_HAL_Driver/Inc/stm32f3xx_hal_gpio.h"
ARM GAS  /var/folders/v3/wysfpd052nz8jkbx04pk0ym80000gn/T//ccLJl6gU.s 			page 7


DEFINED SYMBOLS
                            *ABS*:0000000000000000 u8x8_gpio_STM32F303.c
/var/folders/v3/wysfpd052nz8jkbx04pk0ym80000gn/T//ccLJl6gU.s:18     .text.u8x8_gpio_and_delay_STM32F303:0000000000000000 $t
/var/folders/v3/wysfpd052nz8jkbx04pk0ym80000gn/T//ccLJl6gU.s:26     .text.u8x8_gpio_and_delay_STM32F303:0000000000000000 u8x8_gpio_and_delay_STM32F303
/var/folders/v3/wysfpd052nz8jkbx04pk0ym80000gn/T//ccLJl6gU.s:49     .text.u8x8_gpio_and_delay_STM32F303:000000000000000c $d
/var/folders/v3/wysfpd052nz8jkbx04pk0ym80000gn/T//ccLJl6gU.s:93     .text.u8x8_gpio_and_delay_STM32F303:0000000000000038 $t
/var/folders/v3/wysfpd052nz8jkbx04pk0ym80000gn/T//ccLJl6gU.s:178    .text.u8x8_gpio_and_delay_STM32F303:0000000000000084 $d

UNDEFINED SYMBOLS
HAL_GPIO_WritePin
HAL_Delay
delay_us
