ARM GAS  /var/folders/v3/wysfpd052nz8jkbx04pk0ym80000gn/T//ccdrQnyK.s 			page 1


   1              		.cpu cortex-m4
   2              		.eabi_attribute 27, 1
   3              		.eabi_attribute 28, 1
   4              		.eabi_attribute 20, 1
   5              		.eabi_attribute 21, 1
   6              		.eabi_attribute 23, 3
   7              		.eabi_attribute 24, 1
   8              		.eabi_attribute 25, 1
   9              		.eabi_attribute 26, 1
  10              		.eabi_attribute 30, 2
  11              		.eabi_attribute 34, 1
  12              		.eabi_attribute 18, 4
  13              		.file	"u8x8_d_il3820_296x128.c"
  14              		.text
  15              	.Ltext0:
  16              		.cfi_sections	.debug_frame
  17              		.section	.text.u8x8_d_il3820_first_init,"ax",%progbits
  18              		.align	1
  19              		.p2align 2,,3
  20              		.syntax unified
  21              		.thumb
  22              		.thumb_func
  23              		.fpu fpv4-sp-d16
  25              	u8x8_d_il3820_first_init:
  26              	.LFB2:
  27              		.file 1 "/Users/imashio/Electronics/ARM/_Library/u8x8_d_il3820_296x128.c"
   1:/Users/imashio/Electronics/ARM/_Library/u8x8_d_il3820_296x128.c **** /*
   2:/Users/imashio/Electronics/ARM/_Library/u8x8_d_il3820_296x128.c **** 
   3:/Users/imashio/Electronics/ARM/_Library/u8x8_d_il3820_296x128.c ****   u8x8_d_il3820_296x128.c
   4:/Users/imashio/Electronics/ARM/_Library/u8x8_d_il3820_296x128.c **** 
   5:/Users/imashio/Electronics/ARM/_Library/u8x8_d_il3820_296x128.c ****   Universal 8bit Graphics Library (https://github.com/olikraus/u8g2/)
   6:/Users/imashio/Electronics/ARM/_Library/u8x8_d_il3820_296x128.c **** 
   7:/Users/imashio/Electronics/ARM/_Library/u8x8_d_il3820_296x128.c ****   Copyright (c) 2017, olikraus@gmail.com
   8:/Users/imashio/Electronics/ARM/_Library/u8x8_d_il3820_296x128.c ****   All rights reserved.
   9:/Users/imashio/Electronics/ARM/_Library/u8x8_d_il3820_296x128.c **** 
  10:/Users/imashio/Electronics/ARM/_Library/u8x8_d_il3820_296x128.c ****   Redistribution and use in source and binary forms, with or without modification, 
  11:/Users/imashio/Electronics/ARM/_Library/u8x8_d_il3820_296x128.c ****   are permitted provided that the following conditions are met:
  12:/Users/imashio/Electronics/ARM/_Library/u8x8_d_il3820_296x128.c **** 
  13:/Users/imashio/Electronics/ARM/_Library/u8x8_d_il3820_296x128.c ****   * Redistributions of source code must retain the above copyright notice, this list 
  14:/Users/imashio/Electronics/ARM/_Library/u8x8_d_il3820_296x128.c ****     of conditions and the following disclaimer.
  15:/Users/imashio/Electronics/ARM/_Library/u8x8_d_il3820_296x128.c ****     
  16:/Users/imashio/Electronics/ARM/_Library/u8x8_d_il3820_296x128.c ****   * Redistributions in binary form must reproduce the above copyright notice, this 
  17:/Users/imashio/Electronics/ARM/_Library/u8x8_d_il3820_296x128.c ****     list of conditions and the following disclaimer in the documentation and/or other 
  18:/Users/imashio/Electronics/ARM/_Library/u8x8_d_il3820_296x128.c ****     materials provided with the distribution.
  19:/Users/imashio/Electronics/ARM/_Library/u8x8_d_il3820_296x128.c **** 
  20:/Users/imashio/Electronics/ARM/_Library/u8x8_d_il3820_296x128.c ****   THIS SOFTWARE IS PROVIDED BY THE COPYRIGHT HOLDERS AND 
  21:/Users/imashio/Electronics/ARM/_Library/u8x8_d_il3820_296x128.c ****   CONTRIBUTORS "AS IS" AND ANY EXPRESS OR IMPLIED WARRANTIES, 
  22:/Users/imashio/Electronics/ARM/_Library/u8x8_d_il3820_296x128.c ****   INCLUDING, BUT NOT LIMITED TO, THE IMPLIED WARRANTIES OF 
  23:/Users/imashio/Electronics/ARM/_Library/u8x8_d_il3820_296x128.c ****   MERCHANTABILITY AND FITNESS FOR A PARTICULAR PURPOSE ARE 
  24:/Users/imashio/Electronics/ARM/_Library/u8x8_d_il3820_296x128.c ****   DISCLAIMED. IN NO EVENT SHALL THE COPYRIGHT HOLDER OR 
  25:/Users/imashio/Electronics/ARM/_Library/u8x8_d_il3820_296x128.c ****   CONTRIBUTORS BE LIABLE FOR ANY DIRECT, INDIRECT, INCIDENTAL, 
  26:/Users/imashio/Electronics/ARM/_Library/u8x8_d_il3820_296x128.c ****   SPECIAL, EXEMPLARY, OR CONSEQUENTIAL DAMAGES (INCLUDING, BUT 
  27:/Users/imashio/Electronics/ARM/_Library/u8x8_d_il3820_296x128.c ****   NOT LIMITED TO, PROCUREMENT OF SUBSTITUTE GOODS OR SERVICES; 
  28:/Users/imashio/Electronics/ARM/_Library/u8x8_d_il3820_296x128.c ****   LOSS OF USE, DATA, OR PROFITS; OR BUSINESS INTERRUPTION) HOWEVER 
  29:/Users/imashio/Electronics/ARM/_Library/u8x8_d_il3820_296x128.c ****   CAUSED AND ON ANY THEORY OF LIABILITY, WHETHER IN CONTRACT, 
  30:/Users/imashio/Electronics/ARM/_Library/u8x8_d_il3820_296x128.c ****   STRICT LIABILITY, OR TORT (INCLUDING NEGLIGENCE OR OTHERWISE) 
  31:/Users/imashio/Electronics/ARM/_Library/u8x8_d_il3820_296x128.c ****   ARISING IN ANY WAY OUT OF THE USE OF THIS SOFTWARE, EVEN IF 
ARM GAS  /var/folders/v3/wysfpd052nz8jkbx04pk0ym80000gn/T//ccdrQnyK.s 			page 2


  32:/Users/imashio/Electronics/ARM/_Library/u8x8_d_il3820_296x128.c ****   ADVISED OF THE POSSIBILITY OF SUCH DAMAGE.  
  33:/Users/imashio/Electronics/ARM/_Library/u8x8_d_il3820_296x128.c ****   
  34:/Users/imashio/Electronics/ARM/_Library/u8x8_d_il3820_296x128.c ****   il3820: 200x300x1
  35:/Users/imashio/Electronics/ARM/_Library/u8x8_d_il3820_296x128.c ****   
  36:/Users/imashio/Electronics/ARM/_Library/u8x8_d_il3820_296x128.c ****   command 
  37:/Users/imashio/Electronics/ARM/_Library/u8x8_d_il3820_296x128.c ****     0x22: assign actions
  38:/Users/imashio/Electronics/ARM/_Library/u8x8_d_il3820_296x128.c ****     0x20: execute actions
  39:/Users/imashio/Electronics/ARM/_Library/u8x8_d_il3820_296x128.c ****   
  40:/Users/imashio/Electronics/ARM/_Library/u8x8_d_il3820_296x128.c ****   action for command 0x022 are (more or less guessed)
  41:/Users/imashio/Electronics/ARM/_Library/u8x8_d_il3820_296x128.c ****     bit 7:	Enable Clock
  42:/Users/imashio/Electronics/ARM/_Library/u8x8_d_il3820_296x128.c ****     bit 6:	Enable Charge Pump
  43:/Users/imashio/Electronics/ARM/_Library/u8x8_d_il3820_296x128.c ****     bit 5:	Load Temparture Value (???)
  44:/Users/imashio/Electronics/ARM/_Library/u8x8_d_il3820_296x128.c ****     bit 4:	Load LUT (???)
  45:/Users/imashio/Electronics/ARM/_Library/u8x8_d_il3820_296x128.c ****     bit 3:	Initial Display (???)
  46:/Users/imashio/Electronics/ARM/_Library/u8x8_d_il3820_296x128.c ****     bit 2:	Pattern Display --> Requires about 945ms with the LUT from below
  47:/Users/imashio/Electronics/ARM/_Library/u8x8_d_il3820_296x128.c ****     bit 1:	Disable Charge Pump
  48:/Users/imashio/Electronics/ARM/_Library/u8x8_d_il3820_296x128.c ****     bit 0:	Disable Clock
  49:/Users/imashio/Electronics/ARM/_Library/u8x8_d_il3820_296x128.c ****     
  50:/Users/imashio/Electronics/ARM/_Library/u8x8_d_il3820_296x128.c ****     Disable Charge Pump and Clock require about 10ms
  51:/Users/imashio/Electronics/ARM/_Library/u8x8_d_il3820_296x128.c ****     Enable Charge Pump and Clock require about 100 to 300ms
  52:/Users/imashio/Electronics/ARM/_Library/u8x8_d_il3820_296x128.c **** 
  53:/Users/imashio/Electronics/ARM/_Library/u8x8_d_il3820_296x128.c ****   Notes:
  54:/Users/imashio/Electronics/ARM/_Library/u8x8_d_il3820_296x128.c ****     - Introduced a refresh display message, which copies RAM to display
  55:/Users/imashio/Electronics/ARM/_Library/u8x8_d_il3820_296x128.c ****     - Charge pump is always enabled. Charge pump can be enabled/disabled via power save message
  56:/Users/imashio/Electronics/ARM/_Library/u8x8_d_il3820_296x128.c ****     - U8x8 will not really work because of the two buffers in the SSD1606, however U8g2 should be o
  57:/Users/imashio/Electronics/ARM/_Library/u8x8_d_il3820_296x128.c **** 
  58:/Users/imashio/Electronics/ARM/_Library/u8x8_d_il3820_296x128.c ****   LUT for the 296x128 device (IL3820)
  59:/Users/imashio/Electronics/ARM/_Library/u8x8_d_il3820_296x128.c ****   LUT (cmd: 0x032 has 30 bytes)
  60:/Users/imashio/Electronics/ARM/_Library/u8x8_d_il3820_296x128.c ****   section 6.8 of the datasheet mentions 256 bits = 32 bytes for the LUT
  61:/Users/imashio/Electronics/ARM/_Library/u8x8_d_il3820_296x128.c ****   chapter 7 tells 30 bytes
  62:/Users/imashio/Electronics/ARM/_Library/u8x8_d_il3820_296x128.c **** 
  63:/Users/imashio/Electronics/ARM/_Library/u8x8_d_il3820_296x128.c ****   according to section 6.8:
  64:/Users/imashio/Electronics/ARM/_Library/u8x8_d_il3820_296x128.c ****   20 bytes waveform
  65:/Users/imashio/Electronics/ARM/_Library/u8x8_d_il3820_296x128.c ****   10 bytes timing
  66:/Users/imashio/Electronics/ARM/_Library/u8x8_d_il3820_296x128.c ****   1 byte named as VSH/VSL
  67:/Users/imashio/Electronics/ARM/_Library/u8x8_d_il3820_296x128.c ****   1 empty byte
  68:/Users/imashio/Electronics/ARM/_Library/u8x8_d_il3820_296x128.c ****   according to the command table, the lut has 240 bits (=30 bytes * 8 bits)
  69:/Users/imashio/Electronics/ARM/_Library/u8x8_d_il3820_296x128.c **** 
  70:/Users/imashio/Electronics/ARM/_Library/u8x8_d_il3820_296x128.c **** 
  71:/Users/imashio/Electronics/ARM/_Library/u8x8_d_il3820_296x128.c ****   LUT / Refresh time
  72:/Users/imashio/Electronics/ARM/_Library/u8x8_d_il3820_296x128.c ****     total_refresh_time = (refresh_lines + dummy_lines*2)*TGate*TS_Sum/f_OSC
  73:/Users/imashio/Electronics/ARM/_Library/u8x8_d_il3820_296x128.c **** 
  74:/Users/imashio/Electronics/ARM/_Library/u8x8_d_il3820_296x128.c ****     f_OSC=1MHz (according to the datasheets)
  75:/Users/imashio/Electronics/ARM/_Library/u8x8_d_il3820_296x128.c ****     refreh_lines = 296 (for the waveshare display, 0x045 cmd)
  76:/Users/imashio/Electronics/ARM/_Library/u8x8_d_il3820_296x128.c ****     dummy_lines = 22 (for the upcoming u8g2 code, 0x03a cmd)
  77:/Users/imashio/Electronics/ARM/_Library/u8x8_d_il3820_296x128.c ****     TGate = 62 (POR default, 0x03b cmd)
  78:/Users/imashio/Electronics/ARM/_Library/u8x8_d_il3820_296x128.c ****     TS_Sum: Sum of all TS entries of the second part of the LUT
  79:/Users/imashio/Electronics/ARM/_Library/u8x8_d_il3820_296x128.c ****     f_OSC: 1MHz according to the datasheet.
  80:/Users/imashio/Electronics/ARM/_Library/u8x8_d_il3820_296x128.c **** 
  81:/Users/imashio/Electronics/ARM/_Library/u8x8_d_il3820_296x128.c ****     so we have
  82:/Users/imashio/Electronics/ARM/_Library/u8x8_d_il3820_296x128.c **** 
  83:/Users/imashio/Electronics/ARM/_Library/u8x8_d_il3820_296x128.c ****     total_refresh_time = 21080*TS_Sum/1000000 = 21ms * TS_Sum
  84:/Users/imashio/Electronics/ARM/_Library/u8x8_d_il3820_296x128.c **** 
  85:/Users/imashio/Electronics/ARM/_Library/u8x8_d_il3820_296x128.c **** 
  86:/Users/imashio/Electronics/ARM/_Library/u8x8_d_il3820_296x128.c ****   This file includes two devices:
  87:/Users/imashio/Electronics/ARM/_Library/u8x8_d_il3820_296x128.c ****     u8x8_d_il3820_296x128		--> includes LUT which is probably from the WaveShare 2.9 Vendor
  88:/Users/imashio/Electronics/ARM/_Library/u8x8_d_il3820_296x128.c ****     u8x8_d_il3820_v2_296x128		--> includes LUT which was optimized for faster speed and lesser flic
ARM GAS  /var/folders/v3/wysfpd052nz8jkbx04pk0ym80000gn/T//ccdrQnyK.s 			page 3


  89:/Users/imashio/Electronics/ARM/_Library/u8x8_d_il3820_296x128.c **** 
  90:/Users/imashio/Electronics/ARM/_Library/u8x8_d_il3820_296x128.c **** */
  91:/Users/imashio/Electronics/ARM/_Library/u8x8_d_il3820_296x128.c ****   
  92:/Users/imashio/Electronics/ARM/_Library/u8x8_d_il3820_296x128.c **** /* Waveform part of the LUT (20 bytes) */
  93:/Users/imashio/Electronics/ARM/_Library/u8x8_d_il3820_296x128.c **** /* bit 7/6: 1 - 1 transition */
  94:/Users/imashio/Electronics/ARM/_Library/u8x8_d_il3820_296x128.c **** /* bit 5/4: 1 - 0 transition */
  95:/Users/imashio/Electronics/ARM/_Library/u8x8_d_il3820_296x128.c **** /* bit 3/2: 0 - 1 transition */
  96:/Users/imashio/Electronics/ARM/_Library/u8x8_d_il3820_296x128.c **** /* bit 1/0: 0 - 0 transition */
  97:/Users/imashio/Electronics/ARM/_Library/u8x8_d_il3820_296x128.c **** /* 	00 – VSS */
  98:/Users/imashio/Electronics/ARM/_Library/u8x8_d_il3820_296x128.c **** /* 	01 – VSH */
  99:/Users/imashio/Electronics/ARM/_Library/u8x8_d_il3820_296x128.c **** /* 	10 – VSL */
 100:/Users/imashio/Electronics/ARM/_Library/u8x8_d_il3820_296x128.c **** /* 	11 – NA */
 101:/Users/imashio/Electronics/ARM/_Library/u8x8_d_il3820_296x128.c ****   
 102:/Users/imashio/Electronics/ARM/_Library/u8x8_d_il3820_296x128.c **** 
 103:/Users/imashio/Electronics/ARM/_Library/u8x8_d_il3820_296x128.c **** #include "u8x8.h"
 104:/Users/imashio/Electronics/ARM/_Library/u8x8_d_il3820_296x128.c **** 
 105:/Users/imashio/Electronics/ARM/_Library/u8x8_d_il3820_296x128.c **** /*=================================================*/
 106:/Users/imashio/Electronics/ARM/_Library/u8x8_d_il3820_296x128.c **** /* common code for all devices */
 107:/Users/imashio/Electronics/ARM/_Library/u8x8_d_il3820_296x128.c **** 
 108:/Users/imashio/Electronics/ARM/_Library/u8x8_d_il3820_296x128.c **** 
 109:/Users/imashio/Electronics/ARM/_Library/u8x8_d_il3820_296x128.c **** static const uint8_t u8x8_d_il3820_296x128_powersave0_seq[] = {
 110:/Users/imashio/Electronics/ARM/_Library/u8x8_d_il3820_296x128.c ****   U8X8_START_TRANSFER(),             	/* enable chip, delay is part of the transfer start */
 111:/Users/imashio/Electronics/ARM/_Library/u8x8_d_il3820_296x128.c ****   U8X8_CA(0x22, 0xc0),			/* enable clock and charge pump */
 112:/Users/imashio/Electronics/ARM/_Library/u8x8_d_il3820_296x128.c ****   U8X8_C(0x20),				/* execute sequence */  
 113:/Users/imashio/Electronics/ARM/_Library/u8x8_d_il3820_296x128.c ****   U8X8_DLY(200),				/* according to my measures it may take up to 150ms */
 114:/Users/imashio/Electronics/ARM/_Library/u8x8_d_il3820_296x128.c ****   U8X8_DLY(100),				/* but it might take longer */
 115:/Users/imashio/Electronics/ARM/_Library/u8x8_d_il3820_296x128.c ****   U8X8_END_TRANSFER(),             	/* disable chip */
 116:/Users/imashio/Electronics/ARM/_Library/u8x8_d_il3820_296x128.c ****   U8X8_END()             			/* end of sequence */
 117:/Users/imashio/Electronics/ARM/_Library/u8x8_d_il3820_296x128.c **** };
 118:/Users/imashio/Electronics/ARM/_Library/u8x8_d_il3820_296x128.c **** 
 119:/Users/imashio/Electronics/ARM/_Library/u8x8_d_il3820_296x128.c **** static const uint8_t u8x8_d_il3820_296x128_powersave1_seq[] = {
 120:/Users/imashio/Electronics/ARM/_Library/u8x8_d_il3820_296x128.c ****   U8X8_START_TRANSFER(),             	/* enable chip, delay is part of the transfer start */  
 121:/Users/imashio/Electronics/ARM/_Library/u8x8_d_il3820_296x128.c ****   /* disable clock and charge pump only, deep sleep is not entered, because we will loose RAM conte
 122:/Users/imashio/Electronics/ARM/_Library/u8x8_d_il3820_296x128.c ****   U8X8_CA(0x22, 0x02),			/* only disable charge pump, HW reset seems to be required if the clock is
 123:/Users/imashio/Electronics/ARM/_Library/u8x8_d_il3820_296x128.c ****   U8X8_C(0x20),				/* execute sequence */  
 124:/Users/imashio/Electronics/ARM/_Library/u8x8_d_il3820_296x128.c ****   U8X8_DLY(20),
 125:/Users/imashio/Electronics/ARM/_Library/u8x8_d_il3820_296x128.c ****   U8X8_END_TRANSFER(),             	/* disable chip */
 126:/Users/imashio/Electronics/ARM/_Library/u8x8_d_il3820_296x128.c ****   U8X8_END()             			/* end of sequence */
 127:/Users/imashio/Electronics/ARM/_Library/u8x8_d_il3820_296x128.c **** };
 128:/Users/imashio/Electronics/ARM/_Library/u8x8_d_il3820_296x128.c **** 
 129:/Users/imashio/Electronics/ARM/_Library/u8x8_d_il3820_296x128.c **** static const uint8_t u8x8_d_il3820_296x128_flip0_seq[] = {
 130:/Users/imashio/Electronics/ARM/_Library/u8x8_d_il3820_296x128.c ****   U8X8_START_TRANSFER(),             	/* enable chip, delay is part of the transfer start */
 131:/Users/imashio/Electronics/ARM/_Library/u8x8_d_il3820_296x128.c ****   U8X8_END_TRANSFER(),             	/* disable chip */
 132:/Users/imashio/Electronics/ARM/_Library/u8x8_d_il3820_296x128.c ****   U8X8_END()             			/* end of sequence */
 133:/Users/imashio/Electronics/ARM/_Library/u8x8_d_il3820_296x128.c **** };
 134:/Users/imashio/Electronics/ARM/_Library/u8x8_d_il3820_296x128.c **** 
 135:/Users/imashio/Electronics/ARM/_Library/u8x8_d_il3820_296x128.c **** static const uint8_t u8x8_d_il3820_296x128_flip1_seq[] = {
 136:/Users/imashio/Electronics/ARM/_Library/u8x8_d_il3820_296x128.c ****   U8X8_START_TRANSFER(),             	/* enable chip, delay is part of the transfer start */
 137:/Users/imashio/Electronics/ARM/_Library/u8x8_d_il3820_296x128.c ****   U8X8_END_TRANSFER(),             	/* disable chip */
 138:/Users/imashio/Electronics/ARM/_Library/u8x8_d_il3820_296x128.c ****   U8X8_END()             			/* end of sequence */
 139:/Users/imashio/Electronics/ARM/_Library/u8x8_d_il3820_296x128.c **** };
 140:/Users/imashio/Electronics/ARM/_Library/u8x8_d_il3820_296x128.c **** 
 141:/Users/imashio/Electronics/ARM/_Library/u8x8_d_il3820_296x128.c **** 
 142:/Users/imashio/Electronics/ARM/_Library/u8x8_d_il3820_296x128.c **** static const u8x8_display_info_t u8x8_il3820_296x128_display_info =
 143:/Users/imashio/Electronics/ARM/_Library/u8x8_d_il3820_296x128.c **** {
 144:/Users/imashio/Electronics/ARM/_Library/u8x8_d_il3820_296x128.c ****   /* chip_enable_level = */ 0,
 145:/Users/imashio/Electronics/ARM/_Library/u8x8_d_il3820_296x128.c ****   /* chip_disable_level = */ 1,
ARM GAS  /var/folders/v3/wysfpd052nz8jkbx04pk0ym80000gn/T//ccdrQnyK.s 			page 4


 146:/Users/imashio/Electronics/ARM/_Library/u8x8_d_il3820_296x128.c ****   
 147:/Users/imashio/Electronics/ARM/_Library/u8x8_d_il3820_296x128.c ****   /* post_chip_enable_wait_ns = */ 120,
 148:/Users/imashio/Electronics/ARM/_Library/u8x8_d_il3820_296x128.c ****   /* pre_chip_disable_wait_ns = */ 60,
 149:/Users/imashio/Electronics/ARM/_Library/u8x8_d_il3820_296x128.c ****   /* reset_pulse_width_ms = */ 100, 	
 150:/Users/imashio/Electronics/ARM/_Library/u8x8_d_il3820_296x128.c ****   /* post_reset_wait_ms = */ 100, 
 151:/Users/imashio/Electronics/ARM/_Library/u8x8_d_il3820_296x128.c ****   /* sda_setup_time_ns = */ 50,		/* IL3820 */
 152:/Users/imashio/Electronics/ARM/_Library/u8x8_d_il3820_296x128.c ****   /* sck_pulse_width_ns = */ 125,	/* IL3820: 125ns, clock cycle = 250ns */
 153:/Users/imashio/Electronics/ARM/_Library/u8x8_d_il3820_296x128.c ****   /* sck_clock_hz = */ 4000000UL,	/* since Arduino 1.6.0, the SPI bus speed in Hz. Should be  10000
 154:/Users/imashio/Electronics/ARM/_Library/u8x8_d_il3820_296x128.c ****   /* spi_mode = */ 0,		/* active high, rising edge */
 155:/Users/imashio/Electronics/ARM/_Library/u8x8_d_il3820_296x128.c ****   /* i2c_bus_clock_100kHz = */ 4,
 156:/Users/imashio/Electronics/ARM/_Library/u8x8_d_il3820_296x128.c ****   /* data_setup_time_ns = */ 40,
 157:/Users/imashio/Electronics/ARM/_Library/u8x8_d_il3820_296x128.c ****   /* write_pulse_width_ns = */ 150,	
 158:/Users/imashio/Electronics/ARM/_Library/u8x8_d_il3820_296x128.c ****   /* tile_width = */ 37,		/* 37*8 = 296 */
 159:/Users/imashio/Electronics/ARM/_Library/u8x8_d_il3820_296x128.c ****   /* tile_hight = */ 16,		/* 16*8 = 128 */	
 160:/Users/imashio/Electronics/ARM/_Library/u8x8_d_il3820_296x128.c ****   /* default_x_offset = */ 0,
 161:/Users/imashio/Electronics/ARM/_Library/u8x8_d_il3820_296x128.c ****   /* flipmode_x_offset = */ 0,
 162:/Users/imashio/Electronics/ARM/_Library/u8x8_d_il3820_296x128.c ****   /* pixel_width = */ 296,
 163:/Users/imashio/Electronics/ARM/_Library/u8x8_d_il3820_296x128.c ****   /* pixel_height = */ 128
 164:/Users/imashio/Electronics/ARM/_Library/u8x8_d_il3820_296x128.c **** };
 165:/Users/imashio/Electronics/ARM/_Library/u8x8_d_il3820_296x128.c **** 
 166:/Users/imashio/Electronics/ARM/_Library/u8x8_d_il3820_296x128.c **** 
 167:/Users/imashio/Electronics/ARM/_Library/u8x8_d_il3820_296x128.c **** static uint8_t *u8x8_convert_tile_for_il3820(uint8_t *t)
 168:/Users/imashio/Electronics/ARM/_Library/u8x8_d_il3820_296x128.c **** {
 169:/Users/imashio/Electronics/ARM/_Library/u8x8_d_il3820_296x128.c ****   uint8_t i;
 170:/Users/imashio/Electronics/ARM/_Library/u8x8_d_il3820_296x128.c ****   static uint8_t buf[8];
 171:/Users/imashio/Electronics/ARM/_Library/u8x8_d_il3820_296x128.c ****   uint8_t *pbuf = buf;
 172:/Users/imashio/Electronics/ARM/_Library/u8x8_d_il3820_296x128.c **** 
 173:/Users/imashio/Electronics/ARM/_Library/u8x8_d_il3820_296x128.c ****   for( i = 0; i < 8; i++ )
 174:/Users/imashio/Electronics/ARM/_Library/u8x8_d_il3820_296x128.c ****   {
 175:/Users/imashio/Electronics/ARM/_Library/u8x8_d_il3820_296x128.c ****     *pbuf++ = ~(*t++);
 176:/Users/imashio/Electronics/ARM/_Library/u8x8_d_il3820_296x128.c ****   }
 177:/Users/imashio/Electronics/ARM/_Library/u8x8_d_il3820_296x128.c ****   return buf;
 178:/Users/imashio/Electronics/ARM/_Library/u8x8_d_il3820_296x128.c **** }
 179:/Users/imashio/Electronics/ARM/_Library/u8x8_d_il3820_296x128.c **** 
 180:/Users/imashio/Electronics/ARM/_Library/u8x8_d_il3820_296x128.c **** static void u8x8_d_il3820_draw_tile(u8x8_t *u8x8, uint8_t arg_int, void *arg_ptr) U8X8_NOINLINE;
 181:/Users/imashio/Electronics/ARM/_Library/u8x8_d_il3820_296x128.c **** static void u8x8_d_il3820_draw_tile(u8x8_t *u8x8, uint8_t arg_int, void *arg_ptr)
 182:/Users/imashio/Electronics/ARM/_Library/u8x8_d_il3820_296x128.c **** {
 183:/Users/imashio/Electronics/ARM/_Library/u8x8_d_il3820_296x128.c ****   uint16_t x;
 184:/Users/imashio/Electronics/ARM/_Library/u8x8_d_il3820_296x128.c ****   uint8_t c, page;
 185:/Users/imashio/Electronics/ARM/_Library/u8x8_d_il3820_296x128.c ****   uint8_t *ptr;
 186:/Users/imashio/Electronics/ARM/_Library/u8x8_d_il3820_296x128.c ****   u8x8_cad_StartTransfer(u8x8);
 187:/Users/imashio/Electronics/ARM/_Library/u8x8_d_il3820_296x128.c **** 
 188:/Users/imashio/Electronics/ARM/_Library/u8x8_d_il3820_296x128.c ****   page = u8x8->display_info->tile_height;
 189:/Users/imashio/Electronics/ARM/_Library/u8x8_d_il3820_296x128.c ****   page --;
 190:/Users/imashio/Electronics/ARM/_Library/u8x8_d_il3820_296x128.c ****   page -= (((u8x8_tile_t *)arg_ptr)->y_pos);
 191:/Users/imashio/Electronics/ARM/_Library/u8x8_d_il3820_296x128.c ****   
 192:/Users/imashio/Electronics/ARM/_Library/u8x8_d_il3820_296x128.c ****   x = ((u8x8_tile_t *)arg_ptr)->x_pos;
 193:/Users/imashio/Electronics/ARM/_Library/u8x8_d_il3820_296x128.c ****   x *= 8;
 194:/Users/imashio/Electronics/ARM/_Library/u8x8_d_il3820_296x128.c ****   x += u8x8->x_offset;
 195:/Users/imashio/Electronics/ARM/_Library/u8x8_d_il3820_296x128.c **** 
 196:/Users/imashio/Electronics/ARM/_Library/u8x8_d_il3820_296x128.c ****   //u8x8_cad_SendCmd(u8x8, 0x011 );	/* cursor increment mode */
 197:/Users/imashio/Electronics/ARM/_Library/u8x8_d_il3820_296x128.c ****   //u8x8_cad_SendArg(u8x8, 7);
 198:/Users/imashio/Electronics/ARM/_Library/u8x8_d_il3820_296x128.c **** 
 199:/Users/imashio/Electronics/ARM/_Library/u8x8_d_il3820_296x128.c ****   u8x8_cad_SendCmd(u8x8, 0x04f );	/* set cursor column */
 200:/Users/imashio/Electronics/ARM/_Library/u8x8_d_il3820_296x128.c ****   u8x8_cad_SendArg(u8x8, x&255);
 201:/Users/imashio/Electronics/ARM/_Library/u8x8_d_il3820_296x128.c ****   u8x8_cad_SendArg(u8x8, x>>8);
 202:/Users/imashio/Electronics/ARM/_Library/u8x8_d_il3820_296x128.c **** 
ARM GAS  /var/folders/v3/wysfpd052nz8jkbx04pk0ym80000gn/T//ccdrQnyK.s 			page 5


 203:/Users/imashio/Electronics/ARM/_Library/u8x8_d_il3820_296x128.c ****   u8x8_cad_SendCmd(u8x8, 0x04e );	/* set cursor row */
 204:/Users/imashio/Electronics/ARM/_Library/u8x8_d_il3820_296x128.c ****   u8x8_cad_SendArg(u8x8, page);
 205:/Users/imashio/Electronics/ARM/_Library/u8x8_d_il3820_296x128.c **** 
 206:/Users/imashio/Electronics/ARM/_Library/u8x8_d_il3820_296x128.c ****   u8x8_cad_SendCmd(u8x8, 0x024 );
 207:/Users/imashio/Electronics/ARM/_Library/u8x8_d_il3820_296x128.c ****   
 208:/Users/imashio/Electronics/ARM/_Library/u8x8_d_il3820_296x128.c ****   do
 209:/Users/imashio/Electronics/ARM/_Library/u8x8_d_il3820_296x128.c ****   {
 210:/Users/imashio/Electronics/ARM/_Library/u8x8_d_il3820_296x128.c ****     c = ((u8x8_tile_t *)arg_ptr)->cnt;
 211:/Users/imashio/Electronics/ARM/_Library/u8x8_d_il3820_296x128.c ****     ptr = ((u8x8_tile_t *)arg_ptr)->tile_ptr;
 212:/Users/imashio/Electronics/ARM/_Library/u8x8_d_il3820_296x128.c ****     do
 213:/Users/imashio/Electronics/ARM/_Library/u8x8_d_il3820_296x128.c ****     {
 214:/Users/imashio/Electronics/ARM/_Library/u8x8_d_il3820_296x128.c ****       u8x8_cad_SendData(u8x8, 8, u8x8_convert_tile_for_il3820(ptr));
 215:/Users/imashio/Electronics/ARM/_Library/u8x8_d_il3820_296x128.c ****       ptr += 8;
 216:/Users/imashio/Electronics/ARM/_Library/u8x8_d_il3820_296x128.c ****       x += 8;
 217:/Users/imashio/Electronics/ARM/_Library/u8x8_d_il3820_296x128.c ****       c--;
 218:/Users/imashio/Electronics/ARM/_Library/u8x8_d_il3820_296x128.c ****     } while( c > 0 );
 219:/Users/imashio/Electronics/ARM/_Library/u8x8_d_il3820_296x128.c ****     
 220:/Users/imashio/Electronics/ARM/_Library/u8x8_d_il3820_296x128.c ****     arg_int--;
 221:/Users/imashio/Electronics/ARM/_Library/u8x8_d_il3820_296x128.c ****   } while( arg_int > 0 );
 222:/Users/imashio/Electronics/ARM/_Library/u8x8_d_il3820_296x128.c ****   
 223:/Users/imashio/Electronics/ARM/_Library/u8x8_d_il3820_296x128.c ****   u8x8_cad_EndTransfer(u8x8);
 224:/Users/imashio/Electronics/ARM/_Library/u8x8_d_il3820_296x128.c **** }
 225:/Users/imashio/Electronics/ARM/_Library/u8x8_d_il3820_296x128.c **** 
 226:/Users/imashio/Electronics/ARM/_Library/u8x8_d_il3820_296x128.c **** 
 227:/Users/imashio/Electronics/ARM/_Library/u8x8_d_il3820_296x128.c **** 
 228:/Users/imashio/Electronics/ARM/_Library/u8x8_d_il3820_296x128.c **** static const uint8_t u8x8_d_il3820_exec_1000dly_seq[] = {
 229:/Users/imashio/Electronics/ARM/_Library/u8x8_d_il3820_296x128.c ****   // assumes, that the start transfer has happend
 230:/Users/imashio/Electronics/ARM/_Library/u8x8_d_il3820_296x128.c ****   U8X8_CA(0x22, 0x04),	/* display update seq. option: pattern display */
 231:/Users/imashio/Electronics/ARM/_Library/u8x8_d_il3820_296x128.c ****   U8X8_C(0x20),	/* execute sequence */
 232:/Users/imashio/Electronics/ARM/_Library/u8x8_d_il3820_296x128.c ****   U8X8_DLY(250),
 233:/Users/imashio/Electronics/ARM/_Library/u8x8_d_il3820_296x128.c ****   U8X8_DLY(250),
 234:/Users/imashio/Electronics/ARM/_Library/u8x8_d_il3820_296x128.c ****   U8X8_DLY(250),
 235:/Users/imashio/Electronics/ARM/_Library/u8x8_d_il3820_296x128.c ****   U8X8_DLY(250),
 236:/Users/imashio/Electronics/ARM/_Library/u8x8_d_il3820_296x128.c ****   U8X8_END_TRANSFER(),             	/* disable chip */
 237:/Users/imashio/Electronics/ARM/_Library/u8x8_d_il3820_296x128.c ****   U8X8_END()             			/* end of sequence */
 238:/Users/imashio/Electronics/ARM/_Library/u8x8_d_il3820_296x128.c **** };
 239:/Users/imashio/Electronics/ARM/_Library/u8x8_d_il3820_296x128.c **** 
 240:/Users/imashio/Electronics/ARM/_Library/u8x8_d_il3820_296x128.c **** static void u8x8_d_il3820_first_init(u8x8_t *u8x8)
 241:/Users/imashio/Electronics/ARM/_Library/u8x8_d_il3820_296x128.c **** {
  28              		.loc 1 241 0
  29              		.cfi_startproc
  30              		@ args = 0, pretend = 0, frame = 0
  31              		@ frame_needed = 0, uses_anonymous_args = 0
  32              	.LVL0:
  33 0000 10B5     		push	{r4, lr}
  34              	.LCFI0:
  35              		.cfi_def_cfa_offset 8
  36              		.cfi_offset 4, -8
  37              		.cfi_offset 14, -4
  38              		.loc 1 241 0
  39 0002 0446     		mov	r4, r0
 242:/Users/imashio/Electronics/ARM/_Library/u8x8_d_il3820_296x128.c ****       u8x8_ClearDisplay(u8x8);
  40              		.loc 1 242 0
  41 0004 FFF7FEFF 		bl	u8x8_ClearDisplay
  42              	.LVL1:
 243:/Users/imashio/Electronics/ARM/_Library/u8x8_d_il3820_296x128.c ****   
 244:/Users/imashio/Electronics/ARM/_Library/u8x8_d_il3820_296x128.c ****       u8x8_cad_StartTransfer(u8x8);
ARM GAS  /var/folders/v3/wysfpd052nz8jkbx04pk0ym80000gn/T//ccdrQnyK.s 			page 6


  43              		.loc 1 244 0
  44 0008 2046     		mov	r0, r4
  45 000a FFF7FEFF 		bl	u8x8_cad_StartTransfer
  46              	.LVL2:
 245:/Users/imashio/Electronics/ARM/_Library/u8x8_d_il3820_296x128.c ****       u8x8_cad_SendCmd(u8x8, 0x032);		// program update sequence
  47              		.loc 1 245 0
  48 000e 2046     		mov	r0, r4
  49 0010 3221     		movs	r1, #50
  50 0012 FFF7FEFF 		bl	u8x8_cad_SendCmd
  51              	.LVL3:
 246:/Users/imashio/Electronics/ARM/_Library/u8x8_d_il3820_296x128.c ****       u8x8_cad_SendMultipleArg(u8x8, 8, 0x055);		// all black
  52              		.loc 1 246 0
  53 0016 2046     		mov	r0, r4
  54 0018 5522     		movs	r2, #85
  55 001a 0821     		movs	r1, #8
  56 001c FFF7FEFF 		bl	u8x8_cad_SendMultipleArg
  57              	.LVL4:
 247:/Users/imashio/Electronics/ARM/_Library/u8x8_d_il3820_296x128.c ****       u8x8_cad_SendMultipleArg(u8x8, 12, 0x0aa);		// all white
  58              		.loc 1 247 0
  59 0020 2046     		mov	r0, r4
  60 0022 AA22     		movs	r2, #170
  61 0024 0C21     		movs	r1, #12
  62 0026 FFF7FEFF 		bl	u8x8_cad_SendMultipleArg
  63              	.LVL5:
 248:/Users/imashio/Electronics/ARM/_Library/u8x8_d_il3820_296x128.c ****       u8x8_cad_SendMultipleArg(u8x8, 10, 0x022);		// 830ms
  64              		.loc 1 248 0
  65 002a 2046     		mov	r0, r4
  66 002c 0A21     		movs	r1, #10
  67 002e 2222     		movs	r2, #34
  68 0030 FFF7FEFF 		bl	u8x8_cad_SendMultipleArg
  69              	.LVL6:
 249:/Users/imashio/Electronics/ARM/_Library/u8x8_d_il3820_296x128.c ****       u8x8_cad_SendSequence(u8x8, u8x8_d_il3820_exec_1000dly_seq);
  70              		.loc 1 249 0
  71 0034 2046     		mov	r0, r4
  72 0036 0249     		ldr	r1, .L4
 250:/Users/imashio/Electronics/ARM/_Library/u8x8_d_il3820_296x128.c ****   
 251:/Users/imashio/Electronics/ARM/_Library/u8x8_d_il3820_296x128.c **** }
  73              		.loc 1 251 0
  74 0038 BDE81040 		pop	{r4, lr}
  75              	.LCFI1:
  76              		.cfi_restore 14
  77              		.cfi_restore 4
  78              		.cfi_def_cfa_offset 0
  79              	.LVL7:
 249:/Users/imashio/Electronics/ARM/_Library/u8x8_d_il3820_296x128.c ****       u8x8_cad_SendSequence(u8x8, u8x8_d_il3820_exec_1000dly_seq);
  80              		.loc 1 249 0
  81 003c FFF7FEBF 		b	u8x8_cad_SendSequence
  82              	.LVL8:
  83              	.L5:
  84              		.align	2
  85              	.L4:
  86 0040 00000000 		.word	.LANCHOR0
  87              		.cfi_endproc
  88              	.LFE2:
  90              		.section	.text.u8x8_d_il3820_draw_tile,"ax",%progbits
  91              		.align	1
  92              		.p2align 2,,3
ARM GAS  /var/folders/v3/wysfpd052nz8jkbx04pk0ym80000gn/T//ccdrQnyK.s 			page 7


  93              		.syntax unified
  94              		.thumb
  95              		.thumb_func
  96              		.fpu fpv4-sp-d16
  98              	u8x8_d_il3820_draw_tile:
  99              	.LFB1:
 182:/Users/imashio/Electronics/ARM/_Library/u8x8_d_il3820_296x128.c ****   uint16_t x;
 100              		.loc 1 182 0
 101              		.cfi_startproc
 102              		@ args = 0, pretend = 0, frame = 0
 103              		@ frame_needed = 0, uses_anonymous_args = 0
 104              	.LVL9:
 105 0000 2DE9F843 		push	{r3, r4, r5, r6, r7, r8, r9, lr}
 106              	.LCFI2:
 107              		.cfi_def_cfa_offset 32
 108              		.cfi_offset 3, -32
 109              		.cfi_offset 4, -28
 110              		.cfi_offset 5, -24
 111              		.cfi_offset 6, -20
 112              		.cfi_offset 7, -16
 113              		.cfi_offset 8, -12
 114              		.cfi_offset 9, -8
 115              		.cfi_offset 14, -4
 182:/Users/imashio/Electronics/ARM/_Library/u8x8_d_il3820_296x128.c ****   uint16_t x;
 116              		.loc 1 182 0
 117 0004 0646     		mov	r6, r0
 118 0006 9146     		mov	r9, r2
 119 0008 8846     		mov	r8, r1
 186:/Users/imashio/Electronics/ARM/_Library/u8x8_d_il3820_296x128.c **** 
 120              		.loc 1 186 0
 121 000a FFF7FEFF 		bl	u8x8_cad_StartTransfer
 122              	.LVL10:
 188:/Users/imashio/Electronics/ARM/_Library/u8x8_d_il3820_296x128.c ****   page --;
 123              		.loc 1 188 0
 124 000e 3268     		ldr	r2, [r6]
 190:/Users/imashio/Electronics/ARM/_Library/u8x8_d_il3820_296x128.c ****   
 125              		.loc 1 190 0
 126 0010 99F80630 		ldrb	r3, [r9, #6]	@ zero_extendqisi2
 188:/Users/imashio/Electronics/ARM/_Library/u8x8_d_il3820_296x128.c ****   page --;
 127              		.loc 1 188 0
 128 0014 547C     		ldrb	r4, [r2, #17]	@ zero_extendqisi2
 129              	.LVL11:
 194:/Users/imashio/Electronics/ARM/_Library/u8x8_d_il3820_296x128.c **** 
 130              		.loc 1 194 0
 131 0016 B57F     		ldrb	r5, [r6, #30]	@ zero_extendqisi2
 192:/Users/imashio/Electronics/ARM/_Library/u8x8_d_il3820_296x128.c ****   x *= 8;
 132              		.loc 1 192 0
 133 0018 99F80520 		ldrb	r2, [r9, #5]	@ zero_extendqisi2
 214:/Users/imashio/Electronics/ARM/_Library/u8x8_d_il3820_296x128.c ****       ptr += 8;
 134              		.loc 1 214 0
 135 001c 204F     		ldr	r7, .L14
 194:/Users/imashio/Electronics/ARM/_Library/u8x8_d_il3820_296x128.c **** 
 136              		.loc 1 194 0
 137 001e 05EBC205 		add	r5, r5, r2, lsl #3
 190:/Users/imashio/Electronics/ARM/_Library/u8x8_d_il3820_296x128.c ****   
 138              		.loc 1 190 0
 139 0022 DB43     		mvns	r3, r3
ARM GAS  /var/folders/v3/wysfpd052nz8jkbx04pk0ym80000gn/T//ccdrQnyK.s 			page 8


 199:/Users/imashio/Electronics/ARM/_Library/u8x8_d_il3820_296x128.c ****   u8x8_cad_SendArg(u8x8, x&255);
 140              		.loc 1 199 0
 141 0024 4F21     		movs	r1, #79
 142 0026 3046     		mov	r0, r6
 190:/Users/imashio/Electronics/ARM/_Library/u8x8_d_il3820_296x128.c ****   
 143              		.loc 1 190 0
 144 0028 1C44     		add	r4, r4, r3
 145              	.LVL12:
 199:/Users/imashio/Electronics/ARM/_Library/u8x8_d_il3820_296x128.c ****   u8x8_cad_SendArg(u8x8, x&255);
 146              		.loc 1 199 0
 147 002a FFF7FEFF 		bl	u8x8_cad_SendCmd
 148              	.LVL13:
 200:/Users/imashio/Electronics/ARM/_Library/u8x8_d_il3820_296x128.c ****   u8x8_cad_SendArg(u8x8, x>>8);
 149              		.loc 1 200 0
 150 002e E9B2     		uxtb	r1, r5
 151 0030 3046     		mov	r0, r6
 152 0032 FFF7FEFF 		bl	u8x8_cad_SendArg
 153              	.LVL14:
 201:/Users/imashio/Electronics/ARM/_Library/u8x8_d_il3820_296x128.c **** 
 154              		.loc 1 201 0
 155 0036 290A     		lsrs	r1, r5, #8
 156 0038 3046     		mov	r0, r6
 157 003a FFF7FEFF 		bl	u8x8_cad_SendArg
 158              	.LVL15:
 190:/Users/imashio/Electronics/ARM/_Library/u8x8_d_il3820_296x128.c ****   
 159              		.loc 1 190 0
 160 003e E4B2     		uxtb	r4, r4
 161              	.LVL16:
 203:/Users/imashio/Electronics/ARM/_Library/u8x8_d_il3820_296x128.c ****   u8x8_cad_SendArg(u8x8, page);
 162              		.loc 1 203 0
 163 0040 4E21     		movs	r1, #78
 164 0042 3046     		mov	r0, r6
 165 0044 FFF7FEFF 		bl	u8x8_cad_SendCmd
 166              	.LVL17:
 204:/Users/imashio/Electronics/ARM/_Library/u8x8_d_il3820_296x128.c **** 
 167              		.loc 1 204 0
 168 0048 2146     		mov	r1, r4
 169 004a 3046     		mov	r0, r6
 170 004c FFF7FEFF 		bl	u8x8_cad_SendArg
 171              	.LVL18:
 206:/Users/imashio/Electronics/ARM/_Library/u8x8_d_il3820_296x128.c ****   
 172              		.loc 1 206 0
 173 0050 3046     		mov	r0, r6
 174 0052 2421     		movs	r1, #36
 175 0054 FFF7FEFF 		bl	u8x8_cad_SendCmd
 176              	.LVL19:
 177              	.L9:
 178 0058 99F80450 		ldrb	r5, [r9, #4]	@ zero_extendqisi2
 211:/Users/imashio/Electronics/ARM/_Library/u8x8_d_il3820_296x128.c ****     do
 179              		.loc 1 211 0
 180 005c D9F80040 		ldr	r4, [r9]
 181              	.LVL20:
 182 0060 013D     		subs	r5, r5, #1
 183 0062 EDB2     		uxtb	r5, r5
 184 0064 0135     		adds	r5, r5, #1
 185 0066 04EBC505 		add	r5, r4, r5, lsl #3
 186              	.LVL21:
ARM GAS  /var/folders/v3/wysfpd052nz8jkbx04pk0ym80000gn/T//ccdrQnyK.s 			page 9


 187              	.L8:
 188              	.LBB4:
 189              	.LBB5:
 171:/Users/imashio/Electronics/ARM/_Library/u8x8_d_il3820_296x128.c **** 
 190              		.loc 1 171 0 discriminator 1
 191 006a 0D4A     		ldr	r2, .L14
 192 006c 04F10801 		add	r1, r4, #8
 193              	.LVL22:
 194              	.L7:
 175:/Users/imashio/Electronics/ARM/_Library/u8x8_d_il3820_296x128.c ****   }
 195              		.loc 1 175 0
 196 0070 14F8013B 		ldrb	r3, [r4], #1	@ zero_extendqisi2
 197              	.LVL23:
 198 0074 DB43     		mvns	r3, r3
 173:/Users/imashio/Electronics/ARM/_Library/u8x8_d_il3820_296x128.c ****   {
 199              		.loc 1 173 0
 200 0076 8C42     		cmp	r4, r1
 175:/Users/imashio/Electronics/ARM/_Library/u8x8_d_il3820_296x128.c ****   }
 201              		.loc 1 175 0
 202 0078 02F8013B 		strb	r3, [r2], #1
 203              	.LVL24:
 173:/Users/imashio/Electronics/ARM/_Library/u8x8_d_il3820_296x128.c ****   {
 204              		.loc 1 173 0
 205 007c F8D1     		bne	.L7
 206              	.LVL25:
 207              	.LBE5:
 208              	.LBE4:
 214:/Users/imashio/Electronics/ARM/_Library/u8x8_d_il3820_296x128.c ****       ptr += 8;
 209              		.loc 1 214 0
 210 007e 3A46     		mov	r2, r7
 211 0080 0821     		movs	r1, #8
 212              	.LVL26:
 213 0082 3046     		mov	r0, r6
 214 0084 FFF7FEFF 		bl	u8x8_cad_SendData
 215              	.LVL27:
 218:/Users/imashio/Electronics/ARM/_Library/u8x8_d_il3820_296x128.c ****     
 216              		.loc 1 218 0
 217 0088 AC42     		cmp	r4, r5
 218 008a EED1     		bne	.L8
 220:/Users/imashio/Electronics/ARM/_Library/u8x8_d_il3820_296x128.c ****   } while( arg_int > 0 );
 219              		.loc 1 220 0
 220 008c 08F1FF38 		add	r8, r8, #-1
 221              	.LVL28:
 221:/Users/imashio/Electronics/ARM/_Library/u8x8_d_il3820_296x128.c ****   
 222              		.loc 1 221 0
 223 0090 18F0FF08 		ands	r8, r8, #255
 224              	.LVL29:
 225 0094 E0D1     		bne	.L9
 223:/Users/imashio/Electronics/ARM/_Library/u8x8_d_il3820_296x128.c **** }
 226              		.loc 1 223 0
 227 0096 3046     		mov	r0, r6
 224:/Users/imashio/Electronics/ARM/_Library/u8x8_d_il3820_296x128.c **** 
 228              		.loc 1 224 0
 229 0098 BDE8F843 		pop	{r3, r4, r5, r6, r7, r8, r9, lr}
 230              	.LCFI3:
 231              		.cfi_restore 14
 232              		.cfi_restore 9
ARM GAS  /var/folders/v3/wysfpd052nz8jkbx04pk0ym80000gn/T//ccdrQnyK.s 			page 10


 233              		.cfi_restore 8
 234              		.cfi_restore 7
 235              		.cfi_restore 6
 236              		.cfi_restore 5
 237              		.cfi_restore 4
 238              		.cfi_restore 3
 239              		.cfi_def_cfa_offset 0
 240              	.LVL30:
 223:/Users/imashio/Electronics/ARM/_Library/u8x8_d_il3820_296x128.c **** }
 241              		.loc 1 223 0
 242 009c FFF7FEBF 		b	u8x8_cad_EndTransfer
 243              	.LVL31:
 244              	.L15:
 245              		.align	2
 246              	.L14:
 247 00a0 00000000 		.word	.LANCHOR1
 248              		.cfi_endproc
 249              	.LFE1:
 251              		.section	.text.u8x8_d_il3820_296x128,"ax",%progbits
 252              		.align	1
 253              		.p2align 2,,3
 254              		.global	u8x8_d_il3820_296x128
 255              		.syntax unified
 256              		.thumb
 257              		.thumb_func
 258              		.fpu fpv4-sp-d16
 260              	u8x8_d_il3820_296x128:
 261              	.LFB3:
 252:/Users/imashio/Electronics/ARM/_Library/u8x8_d_il3820_296x128.c **** 
 253:/Users/imashio/Electronics/ARM/_Library/u8x8_d_il3820_296x128.c **** #ifdef OBSOLETE
 254:/Users/imashio/Electronics/ARM/_Library/u8x8_d_il3820_296x128.c **** static void u8x8_d_il3820_second_init(u8x8_t *u8x8)
 255:/Users/imashio/Electronics/ARM/_Library/u8x8_d_il3820_296x128.c **** {
 256:/Users/imashio/Electronics/ARM/_Library/u8x8_d_il3820_296x128.c ****       u8x8_ClearDisplay(u8x8);
 257:/Users/imashio/Electronics/ARM/_Library/u8x8_d_il3820_296x128.c ****   
 258:/Users/imashio/Electronics/ARM/_Library/u8x8_d_il3820_296x128.c ****       u8x8_cad_StartTransfer(u8x8);
 259:/Users/imashio/Electronics/ARM/_Library/u8x8_d_il3820_296x128.c ****       u8x8_cad_SendCmd(u8x8, 0x032);		// program update sequence
 260:/Users/imashio/Electronics/ARM/_Library/u8x8_d_il3820_296x128.c ****       u8x8_cad_SendMultipleArg(u8x8, 20, 0x000);		// do nothing
 261:/Users/imashio/Electronics/ARM/_Library/u8x8_d_il3820_296x128.c ****       u8x8_cad_SendMultipleArg(u8x8, 10, 0x011);		// 414ms dly
 262:/Users/imashio/Electronics/ARM/_Library/u8x8_d_il3820_296x128.c ****       /* reuse sequence from above, ok some time is wasted here, */
 263:/Users/imashio/Electronics/ARM/_Library/u8x8_d_il3820_296x128.c ****       /* delay could be lesser */
 264:/Users/imashio/Electronics/ARM/_Library/u8x8_d_il3820_296x128.c ****       u8x8_cad_SendSequence(u8x8, u8x8_d_il3820_exec_1000dly_seq);  
 265:/Users/imashio/Electronics/ARM/_Library/u8x8_d_il3820_296x128.c **** }
 266:/Users/imashio/Electronics/ARM/_Library/u8x8_d_il3820_296x128.c **** #endif
 267:/Users/imashio/Electronics/ARM/_Library/u8x8_d_il3820_296x128.c **** 
 268:/Users/imashio/Electronics/ARM/_Library/u8x8_d_il3820_296x128.c **** 
 269:/Users/imashio/Electronics/ARM/_Library/u8x8_d_il3820_296x128.c **** /*=================================================*/
 270:/Users/imashio/Electronics/ARM/_Library/u8x8_d_il3820_296x128.c **** /* first version, LUT from WaveShare */
 271:/Users/imashio/Electronics/ARM/_Library/u8x8_d_il3820_296x128.c **** 
 272:/Users/imashio/Electronics/ARM/_Library/u8x8_d_il3820_296x128.c **** 
 273:/Users/imashio/Electronics/ARM/_Library/u8x8_d_il3820_296x128.c **** /* http://www.waveshare.com/wiki/File:2.9inch_e-Paper_Module_code.7z */
 274:/Users/imashio/Electronics/ARM/_Library/u8x8_d_il3820_296x128.c **** static const uint8_t u8x8_d_il3820_296x128_init_seq[] = {
 275:/Users/imashio/Electronics/ARM/_Library/u8x8_d_il3820_296x128.c ****     
 276:/Users/imashio/Electronics/ARM/_Library/u8x8_d_il3820_296x128.c ****   U8X8_START_TRANSFER(),             	/* enable chip, delay is part of the transfer start */
 277:/Users/imashio/Electronics/ARM/_Library/u8x8_d_il3820_296x128.c **** 
 278:/Users/imashio/Electronics/ARM/_Library/u8x8_d_il3820_296x128.c ****   U8X8_CA(0x10, 0x00),	/* Deep Sleep mode Control: Disable */
 279:/Users/imashio/Electronics/ARM/_Library/u8x8_d_il3820_296x128.c ****   U8X8_C(0x01),
 280:/Users/imashio/Electronics/ARM/_Library/u8x8_d_il3820_296x128.c ****   U8X8_A(295 % 256), U8X8_A(295/256), U8X8_A(0),
ARM GAS  /var/folders/v3/wysfpd052nz8jkbx04pk0ym80000gn/T//ccdrQnyK.s 			page 11


 281:/Users/imashio/Electronics/ARM/_Library/u8x8_d_il3820_296x128.c ****   
 282:/Users/imashio/Electronics/ARM/_Library/u8x8_d_il3820_296x128.c ****   
 283:/Users/imashio/Electronics/ARM/_Library/u8x8_d_il3820_296x128.c ****   U8X8_CA(0x03, 0x00), 	/* Gate Driving voltage: 15V (lowest value)*/
 284:/Users/imashio/Electronics/ARM/_Library/u8x8_d_il3820_296x128.c ****   U8X8_CA(0x04, 0x0a), 	/* Source Driving voltage: 15V (mid value and POR)*/
 285:/Users/imashio/Electronics/ARM/_Library/u8x8_d_il3820_296x128.c ****   
 286:/Users/imashio/Electronics/ARM/_Library/u8x8_d_il3820_296x128.c ****   //U8X8_CA(0x22, 0xc0),	/* display update seq. option: enable clk, enable CP, .... todo: this is n
 287:/Users/imashio/Electronics/ARM/_Library/u8x8_d_il3820_296x128.c **** 
 288:/Users/imashio/Electronics/ARM/_Library/u8x8_d_il3820_296x128.c ****   //U8X8_CA(0x0b, 7),	/* Set Delay of gate and source non overlap period, POR = 7 */
 289:/Users/imashio/Electronics/ARM/_Library/u8x8_d_il3820_296x128.c ****   U8X8_CA(0x2c, 0xa8),	/* write vcom value*/
 290:/Users/imashio/Electronics/ARM/_Library/u8x8_d_il3820_296x128.c ****   U8X8_CA(0x3a, 0x16),	/* dummy lines POR=22 (0x016) */
 291:/Users/imashio/Electronics/ARM/_Library/u8x8_d_il3820_296x128.c ****   U8X8_CA(0x3b, 0x08),	/* gate time POR=0x08*/
 292:/Users/imashio/Electronics/ARM/_Library/u8x8_d_il3820_296x128.c ****   U8X8_CA(0x3c, 0x33),	/* select boarder waveform */
 293:/Users/imashio/Electronics/ARM/_Library/u8x8_d_il3820_296x128.c ****   //U8X8_CA(0x22, 0xc4),	/* display update seq. option: clk -> CP -> LUT -> initial display -> patt
 294:/Users/imashio/Electronics/ARM/_Library/u8x8_d_il3820_296x128.c **** 
 295:/Users/imashio/Electronics/ARM/_Library/u8x8_d_il3820_296x128.c **** 
 296:/Users/imashio/Electronics/ARM/_Library/u8x8_d_il3820_296x128.c ****   U8X8_CA(0x11, 0x07),	/* Define data entry mode, x&y inc, x first*/
 297:/Users/imashio/Electronics/ARM/_Library/u8x8_d_il3820_296x128.c **** 
 298:/Users/imashio/Electronics/ARM/_Library/u8x8_d_il3820_296x128.c ****   U8X8_CAA(0x44, 0, 29),	/* RAM x start & end, 32*4=128 */
 299:/Users/imashio/Electronics/ARM/_Library/u8x8_d_il3820_296x128.c ****   U8X8_CAAAA(0x45, 0, 0, 295&255, 295>>8),	/* RAM y start & end, 0..295 */
 300:/Users/imashio/Electronics/ARM/_Library/u8x8_d_il3820_296x128.c ****   
 301:/Users/imashio/Electronics/ARM/_Library/u8x8_d_il3820_296x128.c ****   //U8X8_CA(0x4e, 0),	/* set x pos, 0..29? */
 302:/Users/imashio/Electronics/ARM/_Library/u8x8_d_il3820_296x128.c ****   //U8X8_CAA(0x4f, 0, 0),	/* set y pos, 0...320??? */
 303:/Users/imashio/Electronics/ARM/_Library/u8x8_d_il3820_296x128.c **** 
 304:/Users/imashio/Electronics/ARM/_Library/u8x8_d_il3820_296x128.c **** 
 305:/Users/imashio/Electronics/ARM/_Library/u8x8_d_il3820_296x128.c ****   U8X8_END_TRANSFER(),             	/* disable chip */
 306:/Users/imashio/Electronics/ARM/_Library/u8x8_d_il3820_296x128.c ****   U8X8_END()             			/* end of sequence */
 307:/Users/imashio/Electronics/ARM/_Library/u8x8_d_il3820_296x128.c **** };
 308:/Users/imashio/Electronics/ARM/_Library/u8x8_d_il3820_296x128.c **** 
 309:/Users/imashio/Electronics/ARM/_Library/u8x8_d_il3820_296x128.c **** 
 310:/Users/imashio/Electronics/ARM/_Library/u8x8_d_il3820_296x128.c **** static const uint8_t u8x8_d_il3820_to_display_seq[] = {
 311:/Users/imashio/Electronics/ARM/_Library/u8x8_d_il3820_296x128.c ****   U8X8_START_TRANSFER(),             	/* enable chip, delay is part of the transfer start */
 312:/Users/imashio/Electronics/ARM/_Library/u8x8_d_il3820_296x128.c **** /*
 313:/Users/imashio/Electronics/ARM/_Library/u8x8_d_il3820_296x128.c **** 0x50, 0xAA, 0x55, 0xAA, 0x11, 	0x00, 0x00, 0x00, 0x00, 0x00, 
 314:/Users/imashio/Electronics/ARM/_Library/u8x8_d_il3820_296x128.c **** 0x00, 0x00, 0x00, 0x00, 0x00, 	0x00, 0x00, 0x00, 0x00, 0x00, 
 315:/Users/imashio/Electronics/ARM/_Library/u8x8_d_il3820_296x128.c **** 0xFF, 0xFF, 0x1F, 0x00, 0x00, 		0x00, 0x00, 0x00, 0x00, 0x00
 316:/Users/imashio/Electronics/ARM/_Library/u8x8_d_il3820_296x128.c **** measured 1582 ms
 317:/Users/imashio/Electronics/ARM/_Library/u8x8_d_il3820_296x128.c **** */
 318:/Users/imashio/Electronics/ARM/_Library/u8x8_d_il3820_296x128.c ****   U8X8_C(0x32),	/* write LUT register*/
 319:/Users/imashio/Electronics/ARM/_Library/u8x8_d_il3820_296x128.c ****   /* original values */
 320:/Users/imashio/Electronics/ARM/_Library/u8x8_d_il3820_296x128.c ****   U8X8_A(0x50),
 321:/Users/imashio/Electronics/ARM/_Library/u8x8_d_il3820_296x128.c ****   U8X8_A(0xaa),
 322:/Users/imashio/Electronics/ARM/_Library/u8x8_d_il3820_296x128.c ****   U8X8_A(0x55),
 323:/Users/imashio/Electronics/ARM/_Library/u8x8_d_il3820_296x128.c ****   U8X8_A(0xaa),  
 324:/Users/imashio/Electronics/ARM/_Library/u8x8_d_il3820_296x128.c ****   U8X8_A(0x11),
 325:/Users/imashio/Electronics/ARM/_Library/u8x8_d_il3820_296x128.c ****   
 326:/Users/imashio/Electronics/ARM/_Library/u8x8_d_il3820_296x128.c ****   U8X8_A(0x11),
 327:/Users/imashio/Electronics/ARM/_Library/u8x8_d_il3820_296x128.c ****   U8X8_A(0x00),
 328:/Users/imashio/Electronics/ARM/_Library/u8x8_d_il3820_296x128.c ****   U8X8_A(0x00),
 329:/Users/imashio/Electronics/ARM/_Library/u8x8_d_il3820_296x128.c ****   U8X8_A(0x00),  
 330:/Users/imashio/Electronics/ARM/_Library/u8x8_d_il3820_296x128.c ****   U8X8_A(0x00),
 331:/Users/imashio/Electronics/ARM/_Library/u8x8_d_il3820_296x128.c ****   
 332:/Users/imashio/Electronics/ARM/_Library/u8x8_d_il3820_296x128.c ****   U8X8_A(0x00),
 333:/Users/imashio/Electronics/ARM/_Library/u8x8_d_il3820_296x128.c ****   U8X8_A(0x00),
 334:/Users/imashio/Electronics/ARM/_Library/u8x8_d_il3820_296x128.c ****   U8X8_A(0x00),
 335:/Users/imashio/Electronics/ARM/_Library/u8x8_d_il3820_296x128.c ****   U8X8_A(0x00),
 336:/Users/imashio/Electronics/ARM/_Library/u8x8_d_il3820_296x128.c ****   U8X8_A(0x00),
 337:/Users/imashio/Electronics/ARM/_Library/u8x8_d_il3820_296x128.c ****   
ARM GAS  /var/folders/v3/wysfpd052nz8jkbx04pk0ym80000gn/T//ccdrQnyK.s 			page 12


 338:/Users/imashio/Electronics/ARM/_Library/u8x8_d_il3820_296x128.c ****   U8X8_A(0x00),
 339:/Users/imashio/Electronics/ARM/_Library/u8x8_d_il3820_296x128.c ****   U8X8_A(0x00),
 340:/Users/imashio/Electronics/ARM/_Library/u8x8_d_il3820_296x128.c ****   U8X8_A(0x00),
 341:/Users/imashio/Electronics/ARM/_Library/u8x8_d_il3820_296x128.c ****   U8X8_A(0x00),
 342:/Users/imashio/Electronics/ARM/_Library/u8x8_d_il3820_296x128.c ****   U8X8_A(0x00),
 343:/Users/imashio/Electronics/ARM/_Library/u8x8_d_il3820_296x128.c ****   
 344:/Users/imashio/Electronics/ARM/_Library/u8x8_d_il3820_296x128.c ****   /* Timing part of the LUT, 20 Phases with 4 bit each: 10 bytes */
 345:/Users/imashio/Electronics/ARM/_Library/u8x8_d_il3820_296x128.c ****   U8X8_A(0xff),
 346:/Users/imashio/Electronics/ARM/_Library/u8x8_d_il3820_296x128.c ****   U8X8_A(0xff),
 347:/Users/imashio/Electronics/ARM/_Library/u8x8_d_il3820_296x128.c ****   U8X8_A(0x3f),
 348:/Users/imashio/Electronics/ARM/_Library/u8x8_d_il3820_296x128.c ****   U8X8_A(0x00),
 349:/Users/imashio/Electronics/ARM/_Library/u8x8_d_il3820_296x128.c ****   U8X8_A(0x00),
 350:/Users/imashio/Electronics/ARM/_Library/u8x8_d_il3820_296x128.c ****   U8X8_A(0x00),
 351:/Users/imashio/Electronics/ARM/_Library/u8x8_d_il3820_296x128.c ****   U8X8_A(0x00),
 352:/Users/imashio/Electronics/ARM/_Library/u8x8_d_il3820_296x128.c ****   U8X8_A(0x00),
 353:/Users/imashio/Electronics/ARM/_Library/u8x8_d_il3820_296x128.c ****   U8X8_A(0x00),
 354:/Users/imashio/Electronics/ARM/_Library/u8x8_d_il3820_296x128.c ****   U8X8_A(0x00),
 355:/Users/imashio/Electronics/ARM/_Library/u8x8_d_il3820_296x128.c **** 
 356:/Users/imashio/Electronics/ARM/_Library/u8x8_d_il3820_296x128.c ****   U8X8_CA(0x22, 0x04),	/* display update seq. option: pattern display, assumes clk and charge pump 
 357:/Users/imashio/Electronics/ARM/_Library/u8x8_d_il3820_296x128.c ****   U8X8_C(0x20),	/* execute sequence */
 358:/Users/imashio/Electronics/ARM/_Library/u8x8_d_il3820_296x128.c ****   
 359:/Users/imashio/Electronics/ARM/_Library/u8x8_d_il3820_296x128.c ****   U8X8_DLY(250),	/* delay for 1620ms. The current sequence takes 1582ms */
 360:/Users/imashio/Electronics/ARM/_Library/u8x8_d_il3820_296x128.c ****   U8X8_DLY(250),
 361:/Users/imashio/Electronics/ARM/_Library/u8x8_d_il3820_296x128.c ****   U8X8_DLY(250),
 362:/Users/imashio/Electronics/ARM/_Library/u8x8_d_il3820_296x128.c ****   U8X8_DLY(250),
 363:/Users/imashio/Electronics/ARM/_Library/u8x8_d_il3820_296x128.c ****   
 364:/Users/imashio/Electronics/ARM/_Library/u8x8_d_il3820_296x128.c ****   U8X8_DLY(250),
 365:/Users/imashio/Electronics/ARM/_Library/u8x8_d_il3820_296x128.c ****   U8X8_DLY(250),
 366:/Users/imashio/Electronics/ARM/_Library/u8x8_d_il3820_296x128.c ****   U8X8_DLY(120),
 367:/Users/imashio/Electronics/ARM/_Library/u8x8_d_il3820_296x128.c ****    
 368:/Users/imashio/Electronics/ARM/_Library/u8x8_d_il3820_296x128.c ****   U8X8_END_TRANSFER(),             	/* disable chip */
 369:/Users/imashio/Electronics/ARM/_Library/u8x8_d_il3820_296x128.c ****   U8X8_END()             			/* end of sequence */
 370:/Users/imashio/Electronics/ARM/_Library/u8x8_d_il3820_296x128.c **** };
 371:/Users/imashio/Electronics/ARM/_Library/u8x8_d_il3820_296x128.c **** 
 372:/Users/imashio/Electronics/ARM/_Library/u8x8_d_il3820_296x128.c **** 
 373:/Users/imashio/Electronics/ARM/_Library/u8x8_d_il3820_296x128.c **** uint8_t u8x8_d_il3820_296x128(u8x8_t *u8x8, uint8_t msg, uint8_t arg_int, void *arg_ptr)
 374:/Users/imashio/Electronics/ARM/_Library/u8x8_d_il3820_296x128.c **** {
 262              		.loc 1 374 0
 263              		.cfi_startproc
 264              		@ args = 0, pretend = 0, frame = 0
 265              		@ frame_needed = 0, uses_anonymous_args = 0
 266              	.LVL32:
 267 0000 38B5     		push	{r3, r4, r5, lr}
 268              	.LCFI4:
 269              		.cfi_def_cfa_offset 16
 270              		.cfi_offset 3, -16
 271              		.cfi_offset 4, -12
 272              		.cfi_offset 5, -8
 273              		.cfi_offset 14, -4
 375:/Users/imashio/Electronics/ARM/_Library/u8x8_d_il3820_296x128.c ****   switch(msg)
 274              		.loc 1 375 0
 275 0002 A1F10904 		sub	r4, r1, #9
 374:/Users/imashio/Electronics/ARM/_Library/u8x8_d_il3820_296x128.c ****   switch(msg)
 276              		.loc 1 374 0
 277 0006 0546     		mov	r5, r0
 278 0008 1146     		mov	r1, r2
 279              	.LVL33:
ARM GAS  /var/folders/v3/wysfpd052nz8jkbx04pk0ym80000gn/T//ccdrQnyK.s 			page 13


 280              		.loc 1 375 0
 281 000a 072C     		cmp	r4, #7
 282 000c 29D8     		bhi	.L25
 283 000e DFE804F0 		tbb	[pc, r4]
 284              	.LVL34:
 285              	.L19:
 286 0012 09       		.byte	(.L18-.L19)/2
 287 0013 19       		.byte	(.L20-.L19)/2
 288 0014 0E       		.byte	(.L21-.L19)/2
 289 0015 28       		.byte	(.L25-.L19)/2
 290 0016 28       		.byte	(.L25-.L19)/2
 291 0017 28       		.byte	(.L25-.L19)/2
 292 0018 14       		.byte	(.L22-.L19)/2
 293 0019 04       		.byte	(.L23-.L19)/2
 294              		.p2align 1
 295              	.L23:
 376:/Users/imashio/Electronics/ARM/_Library/u8x8_d_il3820_296x128.c ****   {
 377:/Users/imashio/Electronics/ARM/_Library/u8x8_d_il3820_296x128.c ****     case U8X8_MSG_DISPLAY_SETUP_MEMORY:
 378:/Users/imashio/Electronics/ARM/_Library/u8x8_d_il3820_296x128.c ****       u8x8_d_helper_display_setup_memory(u8x8, &u8x8_il3820_296x128_display_info);
 379:/Users/imashio/Electronics/ARM/_Library/u8x8_d_il3820_296x128.c ****       break;
 380:/Users/imashio/Electronics/ARM/_Library/u8x8_d_il3820_296x128.c ****     case U8X8_MSG_DISPLAY_INIT:
 381:/Users/imashio/Electronics/ARM/_Library/u8x8_d_il3820_296x128.c **** 
 382:/Users/imashio/Electronics/ARM/_Library/u8x8_d_il3820_296x128.c ****       u8x8_d_helper_display_init(u8x8);
 383:/Users/imashio/Electronics/ARM/_Library/u8x8_d_il3820_296x128.c ****       u8x8_cad_SendSequence(u8x8, u8x8_d_il3820_296x128_init_seq);    
 384:/Users/imashio/Electronics/ARM/_Library/u8x8_d_il3820_296x128.c **** 
 385:/Users/imashio/Electronics/ARM/_Library/u8x8_d_il3820_296x128.c ****       u8x8_cad_SendSequence(u8x8, u8x8_d_il3820_296x128_powersave0_seq);
 386:/Users/imashio/Electronics/ARM/_Library/u8x8_d_il3820_296x128.c ****       u8x8_d_il3820_first_init(u8x8);
 387:/Users/imashio/Electronics/ARM/_Library/u8x8_d_il3820_296x128.c **** 
 388:/Users/imashio/Electronics/ARM/_Library/u8x8_d_il3820_296x128.c ****       /* usually the DISPLAY_INIT message leaves the display in power save state */
 389:/Users/imashio/Electronics/ARM/_Library/u8x8_d_il3820_296x128.c ****       /* however this is not done for e-paper devices, see: */
 390:/Users/imashio/Electronics/ARM/_Library/u8x8_d_il3820_296x128.c ****       /* https://github.com/olikraus/u8g2/wiki/internal#powersave-mode */
 391:/Users/imashio/Electronics/ARM/_Library/u8x8_d_il3820_296x128.c ****     
 392:/Users/imashio/Electronics/ARM/_Library/u8x8_d_il3820_296x128.c ****       break;
 393:/Users/imashio/Electronics/ARM/_Library/u8x8_d_il3820_296x128.c ****     case U8X8_MSG_DISPLAY_SET_POWER_SAVE:
 394:/Users/imashio/Electronics/ARM/_Library/u8x8_d_il3820_296x128.c ****       if ( arg_int == 0 )
 395:/Users/imashio/Electronics/ARM/_Library/u8x8_d_il3820_296x128.c **** 	u8x8_cad_SendSequence(u8x8, u8x8_d_il3820_296x128_powersave0_seq);
 396:/Users/imashio/Electronics/ARM/_Library/u8x8_d_il3820_296x128.c ****       else
 397:/Users/imashio/Electronics/ARM/_Library/u8x8_d_il3820_296x128.c **** 	u8x8_cad_SendSequence(u8x8, u8x8_d_il3820_296x128_powersave1_seq);
 398:/Users/imashio/Electronics/ARM/_Library/u8x8_d_il3820_296x128.c ****       break;
 399:/Users/imashio/Electronics/ARM/_Library/u8x8_d_il3820_296x128.c ****     case U8X8_MSG_DISPLAY_DRAW_TILE:
 400:/Users/imashio/Electronics/ARM/_Library/u8x8_d_il3820_296x128.c ****       u8x8_d_il3820_draw_tile(u8x8, arg_int, arg_ptr);
 401:/Users/imashio/Electronics/ARM/_Library/u8x8_d_il3820_296x128.c ****       break;
 402:/Users/imashio/Electronics/ARM/_Library/u8x8_d_il3820_296x128.c ****     case U8X8_MSG_DISPLAY_REFRESH:
 403:/Users/imashio/Electronics/ARM/_Library/u8x8_d_il3820_296x128.c ****       u8x8_cad_SendSequence(u8x8, u8x8_d_il3820_to_display_seq);
 296              		.loc 1 403 0
 297 001a 1549     		ldr	r1, .L27
 298 001c FFF7FEFF 		bl	u8x8_cad_SendSequence
 299              	.LVL35:
 404:/Users/imashio/Electronics/ARM/_Library/u8x8_d_il3820_296x128.c ****       break;
 405:/Users/imashio/Electronics/ARM/_Library/u8x8_d_il3820_296x128.c ****     default:
 406:/Users/imashio/Electronics/ARM/_Library/u8x8_d_il3820_296x128.c ****       return 0;
 407:/Users/imashio/Electronics/ARM/_Library/u8x8_d_il3820_296x128.c ****   }
 408:/Users/imashio/Electronics/ARM/_Library/u8x8_d_il3820_296x128.c ****   return 1;
 300              		.loc 1 408 0
 301 0020 0120     		movs	r0, #1
 409:/Users/imashio/Electronics/ARM/_Library/u8x8_d_il3820_296x128.c **** }
 302              		.loc 1 409 0
ARM GAS  /var/folders/v3/wysfpd052nz8jkbx04pk0ym80000gn/T//ccdrQnyK.s 			page 14


 303 0022 38BD     		pop	{r3, r4, r5, pc}
 304              	.LVL36:
 305              	.L18:
 378:/Users/imashio/Electronics/ARM/_Library/u8x8_d_il3820_296x128.c ****       break;
 306              		.loc 1 378 0
 307 0024 1349     		ldr	r1, .L27+4
 308 0026 FFF7FEFF 		bl	u8x8_d_helper_display_setup_memory
 309              	.LVL37:
 408:/Users/imashio/Electronics/ARM/_Library/u8x8_d_il3820_296x128.c **** }
 310              		.loc 1 408 0
 311 002a 0120     		movs	r0, #1
 312              		.loc 1 409 0
 313 002c 38BD     		pop	{r3, r4, r5, pc}
 314              	.LVL38:
 315              	.L21:
 394:/Users/imashio/Electronics/ARM/_Library/u8x8_d_il3820_296x128.c **** 	u8x8_cad_SendSequence(u8x8, u8x8_d_il3820_296x128_powersave0_seq);
 316              		.loc 1 394 0
 317 002e D1B9     		cbnz	r1, .L24
 395:/Users/imashio/Electronics/ARM/_Library/u8x8_d_il3820_296x128.c ****       else
 318              		.loc 1 395 0
 319 0030 1149     		ldr	r1, .L27+8
 320 0032 FFF7FEFF 		bl	u8x8_cad_SendSequence
 321              	.LVL39:
 408:/Users/imashio/Electronics/ARM/_Library/u8x8_d_il3820_296x128.c **** }
 322              		.loc 1 408 0
 323 0036 0120     		movs	r0, #1
 324              		.loc 1 409 0
 325 0038 38BD     		pop	{r3, r4, r5, pc}
 326              	.LVL40:
 327              	.L22:
 400:/Users/imashio/Electronics/ARM/_Library/u8x8_d_il3820_296x128.c ****       break;
 328              		.loc 1 400 0
 329 003a 1A46     		mov	r2, r3
 330 003c FFF7FEFF 		bl	u8x8_d_il3820_draw_tile
 331              	.LVL41:
 408:/Users/imashio/Electronics/ARM/_Library/u8x8_d_il3820_296x128.c **** }
 332              		.loc 1 408 0
 333 0040 0120     		movs	r0, #1
 334              		.loc 1 409 0
 335 0042 38BD     		pop	{r3, r4, r5, pc}
 336              	.LVL42:
 337              	.L20:
 382:/Users/imashio/Electronics/ARM/_Library/u8x8_d_il3820_296x128.c ****       u8x8_cad_SendSequence(u8x8, u8x8_d_il3820_296x128_init_seq);    
 338              		.loc 1 382 0
 339 0044 FFF7FEFF 		bl	u8x8_d_helper_display_init
 340              	.LVL43:
 383:/Users/imashio/Electronics/ARM/_Library/u8x8_d_il3820_296x128.c **** 
 341              		.loc 1 383 0
 342 0048 2846     		mov	r0, r5
 343 004a 0C49     		ldr	r1, .L27+12
 344 004c FFF7FEFF 		bl	u8x8_cad_SendSequence
 345              	.LVL44:
 385:/Users/imashio/Electronics/ARM/_Library/u8x8_d_il3820_296x128.c ****       u8x8_d_il3820_first_init(u8x8);
 346              		.loc 1 385 0
 347 0050 0949     		ldr	r1, .L27+8
 348 0052 2846     		mov	r0, r5
 349 0054 FFF7FEFF 		bl	u8x8_cad_SendSequence
ARM GAS  /var/folders/v3/wysfpd052nz8jkbx04pk0ym80000gn/T//ccdrQnyK.s 			page 15


 350              	.LVL45:
 386:/Users/imashio/Electronics/ARM/_Library/u8x8_d_il3820_296x128.c **** 
 351              		.loc 1 386 0
 352 0058 2846     		mov	r0, r5
 353 005a FFF7FEFF 		bl	u8x8_d_il3820_first_init
 354              	.LVL46:
 408:/Users/imashio/Electronics/ARM/_Library/u8x8_d_il3820_296x128.c **** }
 355              		.loc 1 408 0
 356 005e 0120     		movs	r0, #1
 357              		.loc 1 409 0
 358 0060 38BD     		pop	{r3, r4, r5, pc}
 359              	.LVL47:
 360              	.L25:
 406:/Users/imashio/Electronics/ARM/_Library/u8x8_d_il3820_296x128.c ****   }
 361              		.loc 1 406 0
 362 0062 0020     		movs	r0, #0
 363              	.LVL48:
 364              		.loc 1 409 0
 365 0064 38BD     		pop	{r3, r4, r5, pc}
 366              	.LVL49:
 367              	.L24:
 397:/Users/imashio/Electronics/ARM/_Library/u8x8_d_il3820_296x128.c ****       break;
 368              		.loc 1 397 0
 369 0066 0649     		ldr	r1, .L27+16
 370 0068 FFF7FEFF 		bl	u8x8_cad_SendSequence
 371              	.LVL50:
 408:/Users/imashio/Electronics/ARM/_Library/u8x8_d_il3820_296x128.c **** }
 372              		.loc 1 408 0
 373 006c 0120     		movs	r0, #1
 374              		.loc 1 409 0
 375 006e 38BD     		pop	{r3, r4, r5, pc}
 376              	.LVL51:
 377              	.L28:
 378              		.align	2
 379              	.L27:
 380 0070 00000000 		.word	.LANCHOR6
 381 0074 00000000 		.word	.LANCHOR2
 382 0078 00000000 		.word	.LANCHOR4
 383 007c 00000000 		.word	.LANCHOR3
 384 0080 00000000 		.word	.LANCHOR5
 385              		.cfi_endproc
 386              	.LFE3:
 388              		.section	.text.u8x8_d_il3820_v2_296x128,"ax",%progbits
 389              		.align	1
 390              		.p2align 2,,3
 391              		.global	u8x8_d_il3820_v2_296x128
 392              		.syntax unified
 393              		.thumb
 394              		.thumb_func
 395              		.fpu fpv4-sp-d16
 397              	u8x8_d_il3820_v2_296x128:
 398              	.LFB4:
 410:/Users/imashio/Electronics/ARM/_Library/u8x8_d_il3820_296x128.c **** 
 411:/Users/imashio/Electronics/ARM/_Library/u8x8_d_il3820_296x128.c **** /*=================================================*/
 412:/Users/imashio/Electronics/ARM/_Library/u8x8_d_il3820_296x128.c **** /* second version for the IL3820 display */
 413:/Users/imashio/Electronics/ARM/_Library/u8x8_d_il3820_296x128.c **** 
 414:/Users/imashio/Electronics/ARM/_Library/u8x8_d_il3820_296x128.c **** 
ARM GAS  /var/folders/v3/wysfpd052nz8jkbx04pk0ym80000gn/T//ccdrQnyK.s 			page 16


 415:/Users/imashio/Electronics/ARM/_Library/u8x8_d_il3820_296x128.c **** /* http://www.waveshare.com/wiki/File:2.9inch_e-Paper_Module_code.7z */
 416:/Users/imashio/Electronics/ARM/_Library/u8x8_d_il3820_296x128.c **** static const uint8_t u8x8_d_il3820_v2_296x128_init_seq[] = {
 417:/Users/imashio/Electronics/ARM/_Library/u8x8_d_il3820_296x128.c ****     
 418:/Users/imashio/Electronics/ARM/_Library/u8x8_d_il3820_296x128.c ****   U8X8_START_TRANSFER(),             	/* enable chip, delay is part of the transfer start */
 419:/Users/imashio/Electronics/ARM/_Library/u8x8_d_il3820_296x128.c **** 
 420:/Users/imashio/Electronics/ARM/_Library/u8x8_d_il3820_296x128.c ****   // U8X8_CA(0x10, 0x00),	/* Deep Sleep mode Control: POR: Normal mode */
 421:/Users/imashio/Electronics/ARM/_Library/u8x8_d_il3820_296x128.c ****   U8X8_C(0x01),
 422:/Users/imashio/Electronics/ARM/_Library/u8x8_d_il3820_296x128.c ****   U8X8_A(295 % 256), U8X8_A(295/256), U8X8_A(0),
 423:/Users/imashio/Electronics/ARM/_Library/u8x8_d_il3820_296x128.c ****   
 424:/Users/imashio/Electronics/ARM/_Library/u8x8_d_il3820_296x128.c ****   /* the driving voltagesmust not be that high, in order to aviod level change after */
 425:/Users/imashio/Electronics/ARM/_Library/u8x8_d_il3820_296x128.c ****   /* some seconds (which happens with 0xea */
 426:/Users/imashio/Electronics/ARM/_Library/u8x8_d_il3820_296x128.c ****   U8X8_CA(0x03, 0x75), 	/* Gate Driving voltage: +/-15V =0x00 POR (+22/-20V) = 0x0ea*/
 427:/Users/imashio/Electronics/ARM/_Library/u8x8_d_il3820_296x128.c ****   U8X8_CA(0x04, 0x0a), 	/* Source Driving voltage:  (POR=0x0a=15V), max=0x0e*/
 428:/Users/imashio/Electronics/ARM/_Library/u8x8_d_il3820_296x128.c ****   
 429:/Users/imashio/Electronics/ARM/_Library/u8x8_d_il3820_296x128.c ****   U8X8_CA(0x0b, 7),	/* Set Delay of gate and source non overlap period, POR = 7 */
 430:/Users/imashio/Electronics/ARM/_Library/u8x8_d_il3820_296x128.c ****   U8X8_CA(0x2c, 0xa8),	/* write vcom value*/
 431:/Users/imashio/Electronics/ARM/_Library/u8x8_d_il3820_296x128.c ****   U8X8_CA(0x3a, 0x16),	/* dummy lines POR=22 (0x016) */
 432:/Users/imashio/Electronics/ARM/_Library/u8x8_d_il3820_296x128.c ****   U8X8_CA(0x3b, 0x08),	/* gate time POR=0x08*/
 433:/Users/imashio/Electronics/ARM/_Library/u8x8_d_il3820_296x128.c ****   U8X8_CA(0x3c, 0x33),	/* select boarder waveform */
 434:/Users/imashio/Electronics/ARM/_Library/u8x8_d_il3820_296x128.c **** 
 435:/Users/imashio/Electronics/ARM/_Library/u8x8_d_il3820_296x128.c ****   U8X8_CA(0x11, 0x07),	/* Define data entry mode, x&y inc, x first*/
 436:/Users/imashio/Electronics/ARM/_Library/u8x8_d_il3820_296x128.c ****   U8X8_CAA(0x44, 0, 29),	/* RAM x start & end, 32*4=128 */
 437:/Users/imashio/Electronics/ARM/_Library/u8x8_d_il3820_296x128.c ****   U8X8_CAAAA(0x45, 0, 0, 295&255, 295>>8),	/* RAM y start & end, 0..295 */
 438:/Users/imashio/Electronics/ARM/_Library/u8x8_d_il3820_296x128.c ****   
 439:/Users/imashio/Electronics/ARM/_Library/u8x8_d_il3820_296x128.c ****   U8X8_END_TRANSFER(),             	/* disable chip */
 440:/Users/imashio/Electronics/ARM/_Library/u8x8_d_il3820_296x128.c ****   U8X8_END()             			/* end of sequence */
 441:/Users/imashio/Electronics/ARM/_Library/u8x8_d_il3820_296x128.c **** };
 442:/Users/imashio/Electronics/ARM/_Library/u8x8_d_il3820_296x128.c **** 
 443:/Users/imashio/Electronics/ARM/_Library/u8x8_d_il3820_296x128.c **** 
 444:/Users/imashio/Electronics/ARM/_Library/u8x8_d_il3820_296x128.c **** static const uint8_t u8x8_d_il3820_v2_to_display_seq[] = {
 445:/Users/imashio/Electronics/ARM/_Library/u8x8_d_il3820_296x128.c ****   U8X8_START_TRANSFER(),             	/* enable chip, delay is part of the transfer start */
 446:/Users/imashio/Electronics/ARM/_Library/u8x8_d_il3820_296x128.c **** 
 447:/Users/imashio/Electronics/ARM/_Library/u8x8_d_il3820_296x128.c **** /*
 448:/Users/imashio/Electronics/ARM/_Library/u8x8_d_il3820_296x128.c **** 0xaa, 0x09, 0x09, 0x19, 0x19, 
 449:/Users/imashio/Electronics/ARM/_Library/u8x8_d_il3820_296x128.c **** 0x11, 0x11, 0x11, 0x11, 0x00, 
 450:/Users/imashio/Electronics/ARM/_Library/u8x8_d_il3820_296x128.c **** 0x00, 0x00, 0x00, 0x00, 0x00, 
 451:/Users/imashio/Electronics/ARM/_Library/u8x8_d_il3820_296x128.c **** 0x00, 0x00, 0x00, 0x00, 0x00, 
 452:/Users/imashio/Electronics/ARM/_Library/u8x8_d_il3820_296x128.c **** 
 453:/Users/imashio/Electronics/ARM/_Library/u8x8_d_il3820_296x128.c **** 0x75, 0x77, 0x77, 0x77, 0x07, 
 454:/Users/imashio/Electronics/ARM/_Library/u8x8_d_il3820_296x128.c **** 0x00, 0x00, 0x00, 0x00, 0x00
 455:/Users/imashio/Electronics/ARM/_Library/u8x8_d_il3820_296x128.c **** measured 1240 ms
 456:/Users/imashio/Electronics/ARM/_Library/u8x8_d_il3820_296x128.c **** */
 457:/Users/imashio/Electronics/ARM/_Library/u8x8_d_il3820_296x128.c ****   U8X8_C(0x32),	/* write LUT register*/
 458:/Users/imashio/Electronics/ARM/_Library/u8x8_d_il3820_296x128.c ****   /* https://github.com/olikraus/u8g2/issues/347 */
 459:/Users/imashio/Electronics/ARM/_Library/u8x8_d_il3820_296x128.c ****   U8X8_A(0xaa),
 460:/Users/imashio/Electronics/ARM/_Library/u8x8_d_il3820_296x128.c ****   U8X8_A(0x09),
 461:/Users/imashio/Electronics/ARM/_Library/u8x8_d_il3820_296x128.c ****   U8X8_A(0x09),
 462:/Users/imashio/Electronics/ARM/_Library/u8x8_d_il3820_296x128.c ****   U8X8_A(0x19),  
 463:/Users/imashio/Electronics/ARM/_Library/u8x8_d_il3820_296x128.c ****   U8X8_A(0x19),
 464:/Users/imashio/Electronics/ARM/_Library/u8x8_d_il3820_296x128.c ****   
 465:/Users/imashio/Electronics/ARM/_Library/u8x8_d_il3820_296x128.c ****   U8X8_A(0x11),
 466:/Users/imashio/Electronics/ARM/_Library/u8x8_d_il3820_296x128.c ****   U8X8_A(0x11),
 467:/Users/imashio/Electronics/ARM/_Library/u8x8_d_il3820_296x128.c ****   U8X8_A(0x11),
 468:/Users/imashio/Electronics/ARM/_Library/u8x8_d_il3820_296x128.c ****   U8X8_A(0x11),  
 469:/Users/imashio/Electronics/ARM/_Library/u8x8_d_il3820_296x128.c ****   U8X8_A(0x00),
 470:/Users/imashio/Electronics/ARM/_Library/u8x8_d_il3820_296x128.c ****   
 471:/Users/imashio/Electronics/ARM/_Library/u8x8_d_il3820_296x128.c ****   U8X8_A(0x00),
ARM GAS  /var/folders/v3/wysfpd052nz8jkbx04pk0ym80000gn/T//ccdrQnyK.s 			page 17


 472:/Users/imashio/Electronics/ARM/_Library/u8x8_d_il3820_296x128.c ****   U8X8_A(0x00),
 473:/Users/imashio/Electronics/ARM/_Library/u8x8_d_il3820_296x128.c ****   U8X8_A(0x00),
 474:/Users/imashio/Electronics/ARM/_Library/u8x8_d_il3820_296x128.c ****   U8X8_A(0x00),
 475:/Users/imashio/Electronics/ARM/_Library/u8x8_d_il3820_296x128.c ****   U8X8_A(0x00),
 476:/Users/imashio/Electronics/ARM/_Library/u8x8_d_il3820_296x128.c ****   
 477:/Users/imashio/Electronics/ARM/_Library/u8x8_d_il3820_296x128.c ****   U8X8_A(0x00),
 478:/Users/imashio/Electronics/ARM/_Library/u8x8_d_il3820_296x128.c ****   U8X8_A(0x00),
 479:/Users/imashio/Electronics/ARM/_Library/u8x8_d_il3820_296x128.c ****   U8X8_A(0x00),
 480:/Users/imashio/Electronics/ARM/_Library/u8x8_d_il3820_296x128.c ****   U8X8_A(0x00),
 481:/Users/imashio/Electronics/ARM/_Library/u8x8_d_il3820_296x128.c ****   U8X8_A(0x00),
 482:/Users/imashio/Electronics/ARM/_Library/u8x8_d_il3820_296x128.c ****   
 483:/Users/imashio/Electronics/ARM/_Library/u8x8_d_il3820_296x128.c ****   /* Timing part of the LUT, 20 Phases with 4 bit each: 10 bytes */
 484:/Users/imashio/Electronics/ARM/_Library/u8x8_d_il3820_296x128.c ****   U8X8_A(0x75),
 485:/Users/imashio/Electronics/ARM/_Library/u8x8_d_il3820_296x128.c ****   U8X8_A(0x77),
 486:/Users/imashio/Electronics/ARM/_Library/u8x8_d_il3820_296x128.c ****   U8X8_A(0x77),
 487:/Users/imashio/Electronics/ARM/_Library/u8x8_d_il3820_296x128.c ****   U8X8_A(0x77),
 488:/Users/imashio/Electronics/ARM/_Library/u8x8_d_il3820_296x128.c ****   U8X8_A(0x07),
 489:/Users/imashio/Electronics/ARM/_Library/u8x8_d_il3820_296x128.c ****   
 490:/Users/imashio/Electronics/ARM/_Library/u8x8_d_il3820_296x128.c ****   U8X8_A(0x00),
 491:/Users/imashio/Electronics/ARM/_Library/u8x8_d_il3820_296x128.c ****   U8X8_A(0x00),
 492:/Users/imashio/Electronics/ARM/_Library/u8x8_d_il3820_296x128.c ****   U8X8_A(0x00),
 493:/Users/imashio/Electronics/ARM/_Library/u8x8_d_il3820_296x128.c ****   U8X8_A(0x00),
 494:/Users/imashio/Electronics/ARM/_Library/u8x8_d_il3820_296x128.c ****   U8X8_A(0x00),
 495:/Users/imashio/Electronics/ARM/_Library/u8x8_d_il3820_296x128.c ****   
 496:/Users/imashio/Electronics/ARM/_Library/u8x8_d_il3820_296x128.c ****   U8X8_CA(0x22, 0x04),	/* display update seq. option: pattern display */
 497:/Users/imashio/Electronics/ARM/_Library/u8x8_d_il3820_296x128.c ****   U8X8_C(0x20),	/* execute sequence */
 498:/Users/imashio/Electronics/ARM/_Library/u8x8_d_il3820_296x128.c ****   
 499:/Users/imashio/Electronics/ARM/_Library/u8x8_d_il3820_296x128.c ****   U8X8_DLY(250),	/* delay for 1400ms. The current sequence takes 1240ms, it was reported, that long
 500:/Users/imashio/Electronics/ARM/_Library/u8x8_d_il3820_296x128.c ****   U8X8_DLY(250),
 501:/Users/imashio/Electronics/ARM/_Library/u8x8_d_il3820_296x128.c ****   U8X8_DLY(250),
 502:/Users/imashio/Electronics/ARM/_Library/u8x8_d_il3820_296x128.c ****   U8X8_DLY(250),
 503:/Users/imashio/Electronics/ARM/_Library/u8x8_d_il3820_296x128.c ****   
 504:/Users/imashio/Electronics/ARM/_Library/u8x8_d_il3820_296x128.c ****   U8X8_DLY(250),
 505:/Users/imashio/Electronics/ARM/_Library/u8x8_d_il3820_296x128.c ****   U8X8_DLY(150),	/* extended, #318 */
 506:/Users/imashio/Electronics/ARM/_Library/u8x8_d_il3820_296x128.c ****  
 507:/Users/imashio/Electronics/ARM/_Library/u8x8_d_il3820_296x128.c ****   U8X8_END_TRANSFER(),             	/* disable chip */
 508:/Users/imashio/Electronics/ARM/_Library/u8x8_d_il3820_296x128.c ****   U8X8_END()             			/* end of sequence */
 509:/Users/imashio/Electronics/ARM/_Library/u8x8_d_il3820_296x128.c **** };
 510:/Users/imashio/Electronics/ARM/_Library/u8x8_d_il3820_296x128.c **** 
 511:/Users/imashio/Electronics/ARM/_Library/u8x8_d_il3820_296x128.c **** uint8_t u8x8_d_il3820_v2_296x128(u8x8_t *u8x8, uint8_t msg, uint8_t arg_int, void *arg_ptr)
 512:/Users/imashio/Electronics/ARM/_Library/u8x8_d_il3820_296x128.c **** {
 399              		.loc 1 512 0
 400              		.cfi_startproc
 401              		@ args = 0, pretend = 0, frame = 0
 402              		@ frame_needed = 0, uses_anonymous_args = 0
 403              	.LVL52:
 404 0000 38B5     		push	{r3, r4, r5, lr}
 405              	.LCFI5:
 406              		.cfi_def_cfa_offset 16
 407              		.cfi_offset 3, -16
 408              		.cfi_offset 4, -12
 409              		.cfi_offset 5, -8
 410              		.cfi_offset 14, -4
 513:/Users/imashio/Electronics/ARM/_Library/u8x8_d_il3820_296x128.c ****   switch(msg)
 411              		.loc 1 513 0
 412 0002 A1F10904 		sub	r4, r1, #9
 512:/Users/imashio/Electronics/ARM/_Library/u8x8_d_il3820_296x128.c ****   switch(msg)
ARM GAS  /var/folders/v3/wysfpd052nz8jkbx04pk0ym80000gn/T//ccdrQnyK.s 			page 18


 413              		.loc 1 512 0
 414 0006 0546     		mov	r5, r0
 415 0008 1146     		mov	r1, r2
 416              	.LVL53:
 417              		.loc 1 513 0
 418 000a 072C     		cmp	r4, #7
 419 000c 29D8     		bhi	.L38
 420 000e DFE804F0 		tbb	[pc, r4]
 421              	.LVL54:
 422              	.L32:
 423 0012 09       		.byte	(.L31-.L32)/2
 424 0013 19       		.byte	(.L33-.L32)/2
 425 0014 0E       		.byte	(.L34-.L32)/2
 426 0015 28       		.byte	(.L38-.L32)/2
 427 0016 28       		.byte	(.L38-.L32)/2
 428 0017 28       		.byte	(.L38-.L32)/2
 429 0018 14       		.byte	(.L35-.L32)/2
 430 0019 04       		.byte	(.L36-.L32)/2
 431              		.p2align 1
 432              	.L36:
 514:/Users/imashio/Electronics/ARM/_Library/u8x8_d_il3820_296x128.c ****   {
 515:/Users/imashio/Electronics/ARM/_Library/u8x8_d_il3820_296x128.c ****     case U8X8_MSG_DISPLAY_SETUP_MEMORY:
 516:/Users/imashio/Electronics/ARM/_Library/u8x8_d_il3820_296x128.c ****       u8x8_d_helper_display_setup_memory(u8x8, &u8x8_il3820_296x128_display_info);
 517:/Users/imashio/Electronics/ARM/_Library/u8x8_d_il3820_296x128.c ****       break;    
 518:/Users/imashio/Electronics/ARM/_Library/u8x8_d_il3820_296x128.c ****     case U8X8_MSG_DISPLAY_INIT:
 519:/Users/imashio/Electronics/ARM/_Library/u8x8_d_il3820_296x128.c **** 
 520:/Users/imashio/Electronics/ARM/_Library/u8x8_d_il3820_296x128.c ****       u8x8_d_helper_display_init(u8x8);
 521:/Users/imashio/Electronics/ARM/_Library/u8x8_d_il3820_296x128.c ****     
 522:/Users/imashio/Electronics/ARM/_Library/u8x8_d_il3820_296x128.c ****       u8x8_cad_SendSequence(u8x8, u8x8_d_il3820_v2_296x128_init_seq);    
 523:/Users/imashio/Electronics/ARM/_Library/u8x8_d_il3820_296x128.c **** 
 524:/Users/imashio/Electronics/ARM/_Library/u8x8_d_il3820_296x128.c ****       u8x8_cad_SendSequence(u8x8, u8x8_d_il3820_296x128_powersave0_seq);
 525:/Users/imashio/Electronics/ARM/_Library/u8x8_d_il3820_296x128.c ****       u8x8_d_il3820_first_init(u8x8);
 526:/Users/imashio/Electronics/ARM/_Library/u8x8_d_il3820_296x128.c ****       /* u8x8_d_il3820_second_init(u8x8); */  /* not required, u8g2.begin() will also clear the dis
 527:/Users/imashio/Electronics/ARM/_Library/u8x8_d_il3820_296x128.c ****           
 528:/Users/imashio/Electronics/ARM/_Library/u8x8_d_il3820_296x128.c ****       /* usually the DISPLAY_INIT message leaves the display in power save state */
 529:/Users/imashio/Electronics/ARM/_Library/u8x8_d_il3820_296x128.c ****       /* however this is not done for e-paper devices, see: */
 530:/Users/imashio/Electronics/ARM/_Library/u8x8_d_il3820_296x128.c ****       /* https://github.com/olikraus/u8g2/wiki/internal#powersave-mode */
 531:/Users/imashio/Electronics/ARM/_Library/u8x8_d_il3820_296x128.c ****     
 532:/Users/imashio/Electronics/ARM/_Library/u8x8_d_il3820_296x128.c ****       break;
 533:/Users/imashio/Electronics/ARM/_Library/u8x8_d_il3820_296x128.c ****     case U8X8_MSG_DISPLAY_SET_POWER_SAVE:
 534:/Users/imashio/Electronics/ARM/_Library/u8x8_d_il3820_296x128.c ****       if ( arg_int == 0 )
 535:/Users/imashio/Electronics/ARM/_Library/u8x8_d_il3820_296x128.c **** 	u8x8_cad_SendSequence(u8x8, u8x8_d_il3820_296x128_powersave0_seq);
 536:/Users/imashio/Electronics/ARM/_Library/u8x8_d_il3820_296x128.c ****       else
 537:/Users/imashio/Electronics/ARM/_Library/u8x8_d_il3820_296x128.c **** 	u8x8_cad_SendSequence(u8x8, u8x8_d_il3820_296x128_powersave1_seq);
 538:/Users/imashio/Electronics/ARM/_Library/u8x8_d_il3820_296x128.c ****       break;
 539:/Users/imashio/Electronics/ARM/_Library/u8x8_d_il3820_296x128.c ****     case U8X8_MSG_DISPLAY_DRAW_TILE:
 540:/Users/imashio/Electronics/ARM/_Library/u8x8_d_il3820_296x128.c ****       u8x8_d_il3820_draw_tile(u8x8, arg_int, arg_ptr);
 541:/Users/imashio/Electronics/ARM/_Library/u8x8_d_il3820_296x128.c ****       break;
 542:/Users/imashio/Electronics/ARM/_Library/u8x8_d_il3820_296x128.c ****     case U8X8_MSG_DISPLAY_REFRESH:
 543:/Users/imashio/Electronics/ARM/_Library/u8x8_d_il3820_296x128.c ****       u8x8_cad_SendSequence(u8x8, u8x8_d_il3820_v2_to_display_seq);
 433              		.loc 1 543 0
 434 001a 1549     		ldr	r1, .L40
 435 001c FFF7FEFF 		bl	u8x8_cad_SendSequence
 436              	.LVL55:
 544:/Users/imashio/Electronics/ARM/_Library/u8x8_d_il3820_296x128.c ****       break;
 545:/Users/imashio/Electronics/ARM/_Library/u8x8_d_il3820_296x128.c ****     default:
 546:/Users/imashio/Electronics/ARM/_Library/u8x8_d_il3820_296x128.c ****       return 0;
ARM GAS  /var/folders/v3/wysfpd052nz8jkbx04pk0ym80000gn/T//ccdrQnyK.s 			page 19


 547:/Users/imashio/Electronics/ARM/_Library/u8x8_d_il3820_296x128.c ****   }
 548:/Users/imashio/Electronics/ARM/_Library/u8x8_d_il3820_296x128.c ****   return 1;
 437              		.loc 1 548 0
 438 0020 0120     		movs	r0, #1
 549:/Users/imashio/Electronics/ARM/_Library/u8x8_d_il3820_296x128.c **** }
 439              		.loc 1 549 0
 440 0022 38BD     		pop	{r3, r4, r5, pc}
 441              	.LVL56:
 442              	.L31:
 516:/Users/imashio/Electronics/ARM/_Library/u8x8_d_il3820_296x128.c ****       break;    
 443              		.loc 1 516 0
 444 0024 1349     		ldr	r1, .L40+4
 445 0026 FFF7FEFF 		bl	u8x8_d_helper_display_setup_memory
 446              	.LVL57:
 548:/Users/imashio/Electronics/ARM/_Library/u8x8_d_il3820_296x128.c **** }
 447              		.loc 1 548 0
 448 002a 0120     		movs	r0, #1
 449              		.loc 1 549 0
 450 002c 38BD     		pop	{r3, r4, r5, pc}
 451              	.LVL58:
 452              	.L34:
 534:/Users/imashio/Electronics/ARM/_Library/u8x8_d_il3820_296x128.c **** 	u8x8_cad_SendSequence(u8x8, u8x8_d_il3820_296x128_powersave0_seq);
 453              		.loc 1 534 0
 454 002e D1B9     		cbnz	r1, .L37
 535:/Users/imashio/Electronics/ARM/_Library/u8x8_d_il3820_296x128.c ****       else
 455              		.loc 1 535 0
 456 0030 1149     		ldr	r1, .L40+8
 457 0032 FFF7FEFF 		bl	u8x8_cad_SendSequence
 458              	.LVL59:
 548:/Users/imashio/Electronics/ARM/_Library/u8x8_d_il3820_296x128.c **** }
 459              		.loc 1 548 0
 460 0036 0120     		movs	r0, #1
 461              		.loc 1 549 0
 462 0038 38BD     		pop	{r3, r4, r5, pc}
 463              	.LVL60:
 464              	.L35:
 540:/Users/imashio/Electronics/ARM/_Library/u8x8_d_il3820_296x128.c ****       break;
 465              		.loc 1 540 0
 466 003a 1A46     		mov	r2, r3
 467 003c FFF7FEFF 		bl	u8x8_d_il3820_draw_tile
 468              	.LVL61:
 548:/Users/imashio/Electronics/ARM/_Library/u8x8_d_il3820_296x128.c **** }
 469              		.loc 1 548 0
 470 0040 0120     		movs	r0, #1
 471              		.loc 1 549 0
 472 0042 38BD     		pop	{r3, r4, r5, pc}
 473              	.LVL62:
 474              	.L33:
 520:/Users/imashio/Electronics/ARM/_Library/u8x8_d_il3820_296x128.c ****     
 475              		.loc 1 520 0
 476 0044 FFF7FEFF 		bl	u8x8_d_helper_display_init
 477              	.LVL63:
 522:/Users/imashio/Electronics/ARM/_Library/u8x8_d_il3820_296x128.c **** 
 478              		.loc 1 522 0
 479 0048 2846     		mov	r0, r5
 480 004a 0C49     		ldr	r1, .L40+12
 481 004c FFF7FEFF 		bl	u8x8_cad_SendSequence
ARM GAS  /var/folders/v3/wysfpd052nz8jkbx04pk0ym80000gn/T//ccdrQnyK.s 			page 20


 482              	.LVL64:
 524:/Users/imashio/Electronics/ARM/_Library/u8x8_d_il3820_296x128.c ****       u8x8_d_il3820_first_init(u8x8);
 483              		.loc 1 524 0
 484 0050 0949     		ldr	r1, .L40+8
 485 0052 2846     		mov	r0, r5
 486 0054 FFF7FEFF 		bl	u8x8_cad_SendSequence
 487              	.LVL65:
 525:/Users/imashio/Electronics/ARM/_Library/u8x8_d_il3820_296x128.c ****       /* u8x8_d_il3820_second_init(u8x8); */  /* not required, u8g2.begin() will also clear the dis
 488              		.loc 1 525 0
 489 0058 2846     		mov	r0, r5
 490 005a FFF7FEFF 		bl	u8x8_d_il3820_first_init
 491              	.LVL66:
 548:/Users/imashio/Electronics/ARM/_Library/u8x8_d_il3820_296x128.c **** }
 492              		.loc 1 548 0
 493 005e 0120     		movs	r0, #1
 494              		.loc 1 549 0
 495 0060 38BD     		pop	{r3, r4, r5, pc}
 496              	.LVL67:
 497              	.L38:
 546:/Users/imashio/Electronics/ARM/_Library/u8x8_d_il3820_296x128.c ****   }
 498              		.loc 1 546 0
 499 0062 0020     		movs	r0, #0
 500              	.LVL68:
 501              		.loc 1 549 0
 502 0064 38BD     		pop	{r3, r4, r5, pc}
 503              	.LVL69:
 504              	.L37:
 537:/Users/imashio/Electronics/ARM/_Library/u8x8_d_il3820_296x128.c ****       break;
 505              		.loc 1 537 0
 506 0066 0649     		ldr	r1, .L40+16
 507 0068 FFF7FEFF 		bl	u8x8_cad_SendSequence
 508              	.LVL70:
 548:/Users/imashio/Electronics/ARM/_Library/u8x8_d_il3820_296x128.c **** }
 509              		.loc 1 548 0
 510 006c 0120     		movs	r0, #1
 511              		.loc 1 549 0
 512 006e 38BD     		pop	{r3, r4, r5, pc}
 513              	.LVL71:
 514              	.L41:
 515              		.align	2
 516              	.L40:
 517 0070 00000000 		.word	.LANCHOR8
 518 0074 00000000 		.word	.LANCHOR2
 519 0078 00000000 		.word	.LANCHOR4
 520 007c 00000000 		.word	.LANCHOR7
 521 0080 00000000 		.word	.LANCHOR5
 522              		.cfi_endproc
 523              	.LFE4:
 525              		.section	.bss.buf.6262,"aw",%nobits
 526              		.align	2
 527              		.set	.LANCHOR1,. + 0
 530              	buf.6262:
 531 0000 00000000 		.space	8
 531      00000000 
 532              		.section	.rodata.u8x8_d_il3820_296x128_init_seq,"a",%progbits
 533              		.align	2
 534              		.set	.LANCHOR3,. + 0
ARM GAS  /var/folders/v3/wysfpd052nz8jkbx04pk0ym80000gn/T//ccdrQnyK.s 			page 21


 537              	u8x8_d_il3820_296x128_init_seq:
 538 0000 18       		.byte	24
 539 0001 15       		.byte	21
 540 0002 10       		.byte	16
 541 0003 16       		.byte	22
 542 0004 00       		.byte	0
 543 0005 15       		.byte	21
 544 0006 01       		.byte	1
 545 0007 16       		.byte	22
 546 0008 27       		.byte	39
 547 0009 16       		.byte	22
 548 000a 01       		.byte	1
 549 000b 16       		.byte	22
 550 000c 00       		.byte	0
 551 000d 15       		.byte	21
 552 000e 03       		.byte	3
 553 000f 16       		.byte	22
 554 0010 00       		.byte	0
 555 0011 15       		.byte	21
 556 0012 04       		.byte	4
 557 0013 16       		.byte	22
 558 0014 0A       		.byte	10
 559 0015 15       		.byte	21
 560 0016 2C       		.byte	44
 561 0017 16       		.byte	22
 562 0018 A8       		.byte	-88
 563 0019 15       		.byte	21
 564 001a 3A       		.byte	58
 565 001b 16       		.byte	22
 566 001c 16       		.byte	22
 567 001d 15       		.byte	21
 568 001e 3B       		.byte	59
 569 001f 16       		.byte	22
 570 0020 08       		.byte	8
 571 0021 15       		.byte	21
 572 0022 3C       		.byte	60
 573 0023 16       		.byte	22
 574 0024 33       		.byte	51
 575 0025 15       		.byte	21
 576 0026 11       		.byte	17
 577 0027 16       		.byte	22
 578 0028 07       		.byte	7
 579 0029 15       		.byte	21
 580 002a 44       		.byte	68
 581 002b 16       		.byte	22
 582 002c 00       		.byte	0
 583 002d 16       		.byte	22
 584 002e 1D       		.byte	29
 585 002f 15       		.byte	21
 586 0030 45       		.byte	69
 587 0031 16       		.byte	22
 588 0032 00       		.byte	0
 589 0033 16       		.byte	22
 590 0034 00       		.byte	0
 591 0035 16       		.byte	22
 592 0036 27       		.byte	39
 593 0037 16       		.byte	22
ARM GAS  /var/folders/v3/wysfpd052nz8jkbx04pk0ym80000gn/T//ccdrQnyK.s 			page 22


 594 0038 01       		.byte	1
 595 0039 19       		.byte	25
 596 003a FF       		.byte	-1
 597              		.section	.rodata.u8x8_d_il3820_296x128_powersave0_seq,"a",%progbits
 598              		.align	2
 599              		.set	.LANCHOR4,. + 0
 602              	u8x8_d_il3820_296x128_powersave0_seq:
 603 0000 18       		.byte	24
 604 0001 15       		.byte	21
 605 0002 22       		.byte	34
 606 0003 16       		.byte	22
 607 0004 C0       		.byte	-64
 608 0005 15       		.byte	21
 609 0006 20       		.byte	32
 610 0007 FE       		.byte	-2
 611 0008 C8       		.byte	-56
 612 0009 FE       		.byte	-2
 613 000a 64       		.byte	100
 614 000b 19       		.byte	25
 615 000c FF       		.byte	-1
 616              		.section	.rodata.u8x8_d_il3820_296x128_powersave1_seq,"a",%progbits
 617              		.align	2
 618              		.set	.LANCHOR5,. + 0
 621              	u8x8_d_il3820_296x128_powersave1_seq:
 622 0000 18       		.byte	24
 623 0001 15       		.byte	21
 624 0002 22       		.byte	34
 625 0003 16       		.byte	22
 626 0004 02       		.byte	2
 627 0005 15       		.byte	21
 628 0006 20       		.byte	32
 629 0007 FE       		.byte	-2
 630 0008 14       		.byte	20
 631 0009 19       		.byte	25
 632 000a FF       		.byte	-1
 633              		.section	.rodata.u8x8_d_il3820_exec_1000dly_seq,"a",%progbits
 634              		.align	2
 635              		.set	.LANCHOR0,. + 0
 638              	u8x8_d_il3820_exec_1000dly_seq:
 639 0000 15       		.byte	21
 640 0001 22       		.byte	34
 641 0002 16       		.byte	22
 642 0003 04       		.byte	4
 643 0004 15       		.byte	21
 644 0005 20       		.byte	32
 645 0006 FE       		.byte	-2
 646 0007 FA       		.byte	-6
 647 0008 FE       		.byte	-2
 648 0009 FA       		.byte	-6
 649 000a FE       		.byte	-2
 650 000b FA       		.byte	-6
 651 000c FE       		.byte	-2
 652 000d FA       		.byte	-6
 653 000e 19       		.byte	25
 654 000f FF       		.byte	-1
 655              		.section	.rodata.u8x8_d_il3820_to_display_seq,"a",%progbits
 656              		.align	2
ARM GAS  /var/folders/v3/wysfpd052nz8jkbx04pk0ym80000gn/T//ccdrQnyK.s 			page 23


 657              		.set	.LANCHOR6,. + 0
 660              	u8x8_d_il3820_to_display_seq:
 661 0000 18       		.byte	24
 662 0001 15       		.byte	21
 663 0002 32       		.byte	50
 664 0003 16       		.byte	22
 665 0004 50       		.byte	80
 666 0005 16       		.byte	22
 667 0006 AA       		.byte	-86
 668 0007 16       		.byte	22
 669 0008 55       		.byte	85
 670 0009 16       		.byte	22
 671 000a AA       		.byte	-86
 672 000b 16       		.byte	22
 673 000c 11       		.byte	17
 674 000d 16       		.byte	22
 675 000e 11       		.byte	17
 676 000f 16       		.byte	22
 677 0010 00       		.byte	0
 678 0011 16       		.byte	22
 679 0012 00       		.byte	0
 680 0013 16       		.byte	22
 681 0014 00       		.byte	0
 682 0015 16       		.byte	22
 683 0016 00       		.byte	0
 684 0017 16       		.byte	22
 685 0018 00       		.byte	0
 686 0019 16       		.byte	22
 687 001a 00       		.byte	0
 688 001b 16       		.byte	22
 689 001c 00       		.byte	0
 690 001d 16       		.byte	22
 691 001e 00       		.byte	0
 692 001f 16       		.byte	22
 693 0020 00       		.byte	0
 694 0021 16       		.byte	22
 695 0022 00       		.byte	0
 696 0023 16       		.byte	22
 697 0024 00       		.byte	0
 698 0025 16       		.byte	22
 699 0026 00       		.byte	0
 700 0027 16       		.byte	22
 701 0028 00       		.byte	0
 702 0029 16       		.byte	22
 703 002a 00       		.byte	0
 704 002b 16       		.byte	22
 705 002c FF       		.byte	-1
 706 002d 16       		.byte	22
 707 002e FF       		.byte	-1
 708 002f 16       		.byte	22
 709 0030 3F       		.byte	63
 710 0031 16       		.byte	22
 711 0032 00       		.byte	0
 712 0033 16       		.byte	22
 713 0034 00       		.byte	0
 714 0035 16       		.byte	22
 715 0036 00       		.byte	0
ARM GAS  /var/folders/v3/wysfpd052nz8jkbx04pk0ym80000gn/T//ccdrQnyK.s 			page 24


 716 0037 16       		.byte	22
 717 0038 00       		.byte	0
 718 0039 16       		.byte	22
 719 003a 00       		.byte	0
 720 003b 16       		.byte	22
 721 003c 00       		.byte	0
 722 003d 16       		.byte	22
 723 003e 00       		.byte	0
 724 003f 15       		.byte	21
 725 0040 22       		.byte	34
 726 0041 16       		.byte	22
 727 0042 04       		.byte	4
 728 0043 15       		.byte	21
 729 0044 20       		.byte	32
 730 0045 FE       		.byte	-2
 731 0046 FA       		.byte	-6
 732 0047 FE       		.byte	-2
 733 0048 FA       		.byte	-6
 734 0049 FE       		.byte	-2
 735 004a FA       		.byte	-6
 736 004b FE       		.byte	-2
 737 004c FA       		.byte	-6
 738 004d FE       		.byte	-2
 739 004e FA       		.byte	-6
 740 004f FE       		.byte	-2
 741 0050 FA       		.byte	-6
 742 0051 FE       		.byte	-2
 743 0052 78       		.byte	120
 744 0053 19       		.byte	25
 745 0054 FF       		.byte	-1
 746              		.section	.rodata.u8x8_d_il3820_v2_296x128_init_seq,"a",%progbits
 747              		.align	2
 748              		.set	.LANCHOR7,. + 0
 751              	u8x8_d_il3820_v2_296x128_init_seq:
 752 0000 18       		.byte	24
 753 0001 15       		.byte	21
 754 0002 01       		.byte	1
 755 0003 16       		.byte	22
 756 0004 27       		.byte	39
 757 0005 16       		.byte	22
 758 0006 01       		.byte	1
 759 0007 16       		.byte	22
 760 0008 00       		.byte	0
 761 0009 15       		.byte	21
 762 000a 03       		.byte	3
 763 000b 16       		.byte	22
 764 000c 75       		.byte	117
 765 000d 15       		.byte	21
 766 000e 04       		.byte	4
 767 000f 16       		.byte	22
 768 0010 0A       		.byte	10
 769 0011 15       		.byte	21
 770 0012 0B       		.byte	11
 771 0013 16       		.byte	22
 772 0014 07       		.byte	7
 773 0015 15       		.byte	21
 774 0016 2C       		.byte	44
ARM GAS  /var/folders/v3/wysfpd052nz8jkbx04pk0ym80000gn/T//ccdrQnyK.s 			page 25


 775 0017 16       		.byte	22
 776 0018 A8       		.byte	-88
 777 0019 15       		.byte	21
 778 001a 3A       		.byte	58
 779 001b 16       		.byte	22
 780 001c 16       		.byte	22
 781 001d 15       		.byte	21
 782 001e 3B       		.byte	59
 783 001f 16       		.byte	22
 784 0020 08       		.byte	8
 785 0021 15       		.byte	21
 786 0022 3C       		.byte	60
 787 0023 16       		.byte	22
 788 0024 33       		.byte	51
 789 0025 15       		.byte	21
 790 0026 11       		.byte	17
 791 0027 16       		.byte	22
 792 0028 07       		.byte	7
 793 0029 15       		.byte	21
 794 002a 44       		.byte	68
 795 002b 16       		.byte	22
 796 002c 00       		.byte	0
 797 002d 16       		.byte	22
 798 002e 1D       		.byte	29
 799 002f 15       		.byte	21
 800 0030 45       		.byte	69
 801 0031 16       		.byte	22
 802 0032 00       		.byte	0
 803 0033 16       		.byte	22
 804 0034 00       		.byte	0
 805 0035 16       		.byte	22
 806 0036 27       		.byte	39
 807 0037 16       		.byte	22
 808 0038 01       		.byte	1
 809 0039 19       		.byte	25
 810 003a FF       		.byte	-1
 811              		.section	.rodata.u8x8_d_il3820_v2_to_display_seq,"a",%progbits
 812              		.align	2
 813              		.set	.LANCHOR8,. + 0
 816              	u8x8_d_il3820_v2_to_display_seq:
 817 0000 18       		.byte	24
 818 0001 15       		.byte	21
 819 0002 32       		.byte	50
 820 0003 16       		.byte	22
 821 0004 AA       		.byte	-86
 822 0005 16       		.byte	22
 823 0006 09       		.byte	9
 824 0007 16       		.byte	22
 825 0008 09       		.byte	9
 826 0009 16       		.byte	22
 827 000a 19       		.byte	25
 828 000b 16       		.byte	22
 829 000c 19       		.byte	25
 830 000d 16       		.byte	22
 831 000e 11       		.byte	17
 832 000f 16       		.byte	22
 833 0010 11       		.byte	17
ARM GAS  /var/folders/v3/wysfpd052nz8jkbx04pk0ym80000gn/T//ccdrQnyK.s 			page 26


 834 0011 16       		.byte	22
 835 0012 11       		.byte	17
 836 0013 16       		.byte	22
 837 0014 11       		.byte	17
 838 0015 16       		.byte	22
 839 0016 00       		.byte	0
 840 0017 16       		.byte	22
 841 0018 00       		.byte	0
 842 0019 16       		.byte	22
 843 001a 00       		.byte	0
 844 001b 16       		.byte	22
 845 001c 00       		.byte	0
 846 001d 16       		.byte	22
 847 001e 00       		.byte	0
 848 001f 16       		.byte	22
 849 0020 00       		.byte	0
 850 0021 16       		.byte	22
 851 0022 00       		.byte	0
 852 0023 16       		.byte	22
 853 0024 00       		.byte	0
 854 0025 16       		.byte	22
 855 0026 00       		.byte	0
 856 0027 16       		.byte	22
 857 0028 00       		.byte	0
 858 0029 16       		.byte	22
 859 002a 00       		.byte	0
 860 002b 16       		.byte	22
 861 002c 75       		.byte	117
 862 002d 16       		.byte	22
 863 002e 77       		.byte	119
 864 002f 16       		.byte	22
 865 0030 77       		.byte	119
 866 0031 16       		.byte	22
 867 0032 77       		.byte	119
 868 0033 16       		.byte	22
 869 0034 07       		.byte	7
 870 0035 16       		.byte	22
 871 0036 00       		.byte	0
 872 0037 16       		.byte	22
 873 0038 00       		.byte	0
 874 0039 16       		.byte	22
 875 003a 00       		.byte	0
 876 003b 16       		.byte	22
 877 003c 00       		.byte	0
 878 003d 16       		.byte	22
 879 003e 00       		.byte	0
 880 003f 15       		.byte	21
 881 0040 22       		.byte	34
 882 0041 16       		.byte	22
 883 0042 04       		.byte	4
 884 0043 15       		.byte	21
 885 0044 20       		.byte	32
 886 0045 FE       		.byte	-2
 887 0046 FA       		.byte	-6
 888 0047 FE       		.byte	-2
 889 0048 FA       		.byte	-6
 890 0049 FE       		.byte	-2
ARM GAS  /var/folders/v3/wysfpd052nz8jkbx04pk0ym80000gn/T//ccdrQnyK.s 			page 27


 891 004a FA       		.byte	-6
 892 004b FE       		.byte	-2
 893 004c FA       		.byte	-6
 894 004d FE       		.byte	-2
 895 004e FA       		.byte	-6
 896 004f FE       		.byte	-2
 897 0050 96       		.byte	-106
 898 0051 19       		.byte	25
 899 0052 FF       		.byte	-1
 900              		.section	.rodata.u8x8_il3820_296x128_display_info,"a",%progbits
 901              		.align	2
 902              		.set	.LANCHOR2,. + 0
 905              	u8x8_il3820_296x128_display_info:
 906 0000 00       		.byte	0
 907 0001 01       		.byte	1
 908 0002 78       		.byte	120
 909 0003 3C       		.byte	60
 910 0004 64       		.byte	100
 911 0005 64       		.byte	100
 912 0006 32       		.byte	50
 913 0007 7D       		.byte	125
 914 0008 00093D00 		.word	4000000
 915 000c 00       		.byte	0
 916 000d 04       		.byte	4
 917 000e 28       		.byte	40
 918 000f 96       		.byte	-106
 919 0010 25       		.byte	37
 920 0011 10       		.byte	16
 921 0012 00       		.byte	0
 922 0013 00       		.byte	0
 923 0014 2801     		.short	296
 924 0016 8000     		.short	128
 925              		.text
 926              	.Letext0:
 927              		.file 2 "/usr/local/gcc-arm-none-eabi-7-2018-q2-update/arm-none-eabi/include/machine/_default_type
 928              		.file 3 "/usr/local/gcc-arm-none-eabi-7-2018-q2-update/arm-none-eabi/include/sys/_stdint.h"
 929              		.file 4 "/Users/imashio/Electronics/ARM/_Library/u8x8.h"
ARM GAS  /var/folders/v3/wysfpd052nz8jkbx04pk0ym80000gn/T//ccdrQnyK.s 			page 28


DEFINED SYMBOLS
                            *ABS*:0000000000000000 u8x8_d_il3820_296x128.c
/var/folders/v3/wysfpd052nz8jkbx04pk0ym80000gn/T//ccdrQnyK.s:18     .text.u8x8_d_il3820_first_init:0000000000000000 $t
/var/folders/v3/wysfpd052nz8jkbx04pk0ym80000gn/T//ccdrQnyK.s:25     .text.u8x8_d_il3820_first_init:0000000000000000 u8x8_d_il3820_first_init
/var/folders/v3/wysfpd052nz8jkbx04pk0ym80000gn/T//ccdrQnyK.s:86     .text.u8x8_d_il3820_first_init:0000000000000040 $d
/var/folders/v3/wysfpd052nz8jkbx04pk0ym80000gn/T//ccdrQnyK.s:91     .text.u8x8_d_il3820_draw_tile:0000000000000000 $t
/var/folders/v3/wysfpd052nz8jkbx04pk0ym80000gn/T//ccdrQnyK.s:98     .text.u8x8_d_il3820_draw_tile:0000000000000000 u8x8_d_il3820_draw_tile
/var/folders/v3/wysfpd052nz8jkbx04pk0ym80000gn/T//ccdrQnyK.s:247    .text.u8x8_d_il3820_draw_tile:00000000000000a0 $d
/var/folders/v3/wysfpd052nz8jkbx04pk0ym80000gn/T//ccdrQnyK.s:252    .text.u8x8_d_il3820_296x128:0000000000000000 $t
/var/folders/v3/wysfpd052nz8jkbx04pk0ym80000gn/T//ccdrQnyK.s:260    .text.u8x8_d_il3820_296x128:0000000000000000 u8x8_d_il3820_296x128
/var/folders/v3/wysfpd052nz8jkbx04pk0ym80000gn/T//ccdrQnyK.s:286    .text.u8x8_d_il3820_296x128:0000000000000012 $d
/var/folders/v3/wysfpd052nz8jkbx04pk0ym80000gn/T//ccdrQnyK.s:294    .text.u8x8_d_il3820_296x128:000000000000001a $t
/var/folders/v3/wysfpd052nz8jkbx04pk0ym80000gn/T//ccdrQnyK.s:380    .text.u8x8_d_il3820_296x128:0000000000000070 $d
/var/folders/v3/wysfpd052nz8jkbx04pk0ym80000gn/T//ccdrQnyK.s:389    .text.u8x8_d_il3820_v2_296x128:0000000000000000 $t
/var/folders/v3/wysfpd052nz8jkbx04pk0ym80000gn/T//ccdrQnyK.s:397    .text.u8x8_d_il3820_v2_296x128:0000000000000000 u8x8_d_il3820_v2_296x128
/var/folders/v3/wysfpd052nz8jkbx04pk0ym80000gn/T//ccdrQnyK.s:423    .text.u8x8_d_il3820_v2_296x128:0000000000000012 $d
/var/folders/v3/wysfpd052nz8jkbx04pk0ym80000gn/T//ccdrQnyK.s:431    .text.u8x8_d_il3820_v2_296x128:000000000000001a $t
/var/folders/v3/wysfpd052nz8jkbx04pk0ym80000gn/T//ccdrQnyK.s:517    .text.u8x8_d_il3820_v2_296x128:0000000000000070 $d
/var/folders/v3/wysfpd052nz8jkbx04pk0ym80000gn/T//ccdrQnyK.s:526    .bss.buf.6262:0000000000000000 $d
/var/folders/v3/wysfpd052nz8jkbx04pk0ym80000gn/T//ccdrQnyK.s:530    .bss.buf.6262:0000000000000000 buf.6262
/var/folders/v3/wysfpd052nz8jkbx04pk0ym80000gn/T//ccdrQnyK.s:533    .rodata.u8x8_d_il3820_296x128_init_seq:0000000000000000 $d
/var/folders/v3/wysfpd052nz8jkbx04pk0ym80000gn/T//ccdrQnyK.s:537    .rodata.u8x8_d_il3820_296x128_init_seq:0000000000000000 u8x8_d_il3820_296x128_init_seq
/var/folders/v3/wysfpd052nz8jkbx04pk0ym80000gn/T//ccdrQnyK.s:598    .rodata.u8x8_d_il3820_296x128_powersave0_seq:0000000000000000 $d
/var/folders/v3/wysfpd052nz8jkbx04pk0ym80000gn/T//ccdrQnyK.s:602    .rodata.u8x8_d_il3820_296x128_powersave0_seq:0000000000000000 u8x8_d_il3820_296x128_powersave0_seq
/var/folders/v3/wysfpd052nz8jkbx04pk0ym80000gn/T//ccdrQnyK.s:617    .rodata.u8x8_d_il3820_296x128_powersave1_seq:0000000000000000 $d
/var/folders/v3/wysfpd052nz8jkbx04pk0ym80000gn/T//ccdrQnyK.s:621    .rodata.u8x8_d_il3820_296x128_powersave1_seq:0000000000000000 u8x8_d_il3820_296x128_powersave1_seq
/var/folders/v3/wysfpd052nz8jkbx04pk0ym80000gn/T//ccdrQnyK.s:634    .rodata.u8x8_d_il3820_exec_1000dly_seq:0000000000000000 $d
/var/folders/v3/wysfpd052nz8jkbx04pk0ym80000gn/T//ccdrQnyK.s:638    .rodata.u8x8_d_il3820_exec_1000dly_seq:0000000000000000 u8x8_d_il3820_exec_1000dly_seq
/var/folders/v3/wysfpd052nz8jkbx04pk0ym80000gn/T//ccdrQnyK.s:656    .rodata.u8x8_d_il3820_to_display_seq:0000000000000000 $d
/var/folders/v3/wysfpd052nz8jkbx04pk0ym80000gn/T//ccdrQnyK.s:660    .rodata.u8x8_d_il3820_to_display_seq:0000000000000000 u8x8_d_il3820_to_display_seq
/var/folders/v3/wysfpd052nz8jkbx04pk0ym80000gn/T//ccdrQnyK.s:747    .rodata.u8x8_d_il3820_v2_296x128_init_seq:0000000000000000 $d
/var/folders/v3/wysfpd052nz8jkbx04pk0ym80000gn/T//ccdrQnyK.s:751    .rodata.u8x8_d_il3820_v2_296x128_init_seq:0000000000000000 u8x8_d_il3820_v2_296x128_init_seq
/var/folders/v3/wysfpd052nz8jkbx04pk0ym80000gn/T//ccdrQnyK.s:812    .rodata.u8x8_d_il3820_v2_to_display_seq:0000000000000000 $d
/var/folders/v3/wysfpd052nz8jkbx04pk0ym80000gn/T//ccdrQnyK.s:816    .rodata.u8x8_d_il3820_v2_to_display_seq:0000000000000000 u8x8_d_il3820_v2_to_display_seq
/var/folders/v3/wysfpd052nz8jkbx04pk0ym80000gn/T//ccdrQnyK.s:901    .rodata.u8x8_il3820_296x128_display_info:0000000000000000 $d
/var/folders/v3/wysfpd052nz8jkbx04pk0ym80000gn/T//ccdrQnyK.s:905    .rodata.u8x8_il3820_296x128_display_info:0000000000000000 u8x8_il3820_296x128_display_info

UNDEFINED SYMBOLS
u8x8_ClearDisplay
u8x8_cad_StartTransfer
u8x8_cad_SendCmd
u8x8_cad_SendMultipleArg
u8x8_cad_SendSequence
u8x8_cad_SendArg
u8x8_cad_SendData
u8x8_cad_EndTransfer
u8x8_d_helper_display_setup_memory
u8x8_d_helper_display_init
