ARM GAS  /var/folders/v3/wysfpd052nz8jkbx04pk0ym80000gn/T//cchRAivb.s 			page 1


   1              		.cpu cortex-m4
   2              		.eabi_attribute 27, 1
   3              		.eabi_attribute 28, 1
   4              		.eabi_attribute 20, 1
   5              		.eabi_attribute 21, 1
   6              		.eabi_attribute 23, 3
   7              		.eabi_attribute 24, 1
   8              		.eabi_attribute 25, 1
   9              		.eabi_attribute 26, 1
  10              		.eabi_attribute 30, 2
  11              		.eabi_attribute 34, 1
  12              		.eabi_attribute 18, 4
  13              		.file	"u8x8_d_ssd1327.c"
  14              		.text
  15              	.Ltext0:
  16              		.cfi_sections	.debug_frame
  17              		.section	.text.u8x8_d_ssd1327_96x96_generic,"ax",%progbits
  18              		.align	1
  19              		.p2align 2,,3
  20              		.syntax unified
  21              		.thumb
  22              		.thumb_func
  23              		.fpu fpv4-sp-d16
  25              	u8x8_d_ssd1327_96x96_generic:
  26              	.LFB1:
  27              		.file 1 "/Users/imashio/Electronics/ARM/_Library/u8x8_d_ssd1327.c"
   1:/Users/imashio/Electronics/ARM/_Library/u8x8_d_ssd1327.c **** /*
   2:/Users/imashio/Electronics/ARM/_Library/u8x8_d_ssd1327.c **** 
   3:/Users/imashio/Electronics/ARM/_Library/u8x8_d_ssd1327.c ****   u8x8_d_ssd1327.c
   4:/Users/imashio/Electronics/ARM/_Library/u8x8_d_ssd1327.c **** 
   5:/Users/imashio/Electronics/ARM/_Library/u8x8_d_ssd1327.c ****   Universal 8bit Graphics Library (https://github.com/olikraus/u8g2/)
   6:/Users/imashio/Electronics/ARM/_Library/u8x8_d_ssd1327.c **** 
   7:/Users/imashio/Electronics/ARM/_Library/u8x8_d_ssd1327.c ****   Copyright (c) 2016, olikraus@gmail.com
   8:/Users/imashio/Electronics/ARM/_Library/u8x8_d_ssd1327.c ****   All rights reserved.
   9:/Users/imashio/Electronics/ARM/_Library/u8x8_d_ssd1327.c **** 
  10:/Users/imashio/Electronics/ARM/_Library/u8x8_d_ssd1327.c ****   Redistribution and use in source and binary forms, with or without modification, 
  11:/Users/imashio/Electronics/ARM/_Library/u8x8_d_ssd1327.c ****   are permitted provided that the following conditions are met:
  12:/Users/imashio/Electronics/ARM/_Library/u8x8_d_ssd1327.c **** 
  13:/Users/imashio/Electronics/ARM/_Library/u8x8_d_ssd1327.c ****   * Redistributions of source code must retain the above copyright notice, this list 
  14:/Users/imashio/Electronics/ARM/_Library/u8x8_d_ssd1327.c ****     of conditions and the following disclaimer.
  15:/Users/imashio/Electronics/ARM/_Library/u8x8_d_ssd1327.c ****     
  16:/Users/imashio/Electronics/ARM/_Library/u8x8_d_ssd1327.c ****   * Redistributions in binary form must reproduce the above copyright notice, this 
  17:/Users/imashio/Electronics/ARM/_Library/u8x8_d_ssd1327.c ****     list of conditions and the following disclaimer in the documentation and/or other 
  18:/Users/imashio/Electronics/ARM/_Library/u8x8_d_ssd1327.c ****     materials provided with the distribution.
  19:/Users/imashio/Electronics/ARM/_Library/u8x8_d_ssd1327.c **** 
  20:/Users/imashio/Electronics/ARM/_Library/u8x8_d_ssd1327.c ****   THIS SOFTWARE IS PROVIDED BY THE COPYRIGHT HOLDERS AND 
  21:/Users/imashio/Electronics/ARM/_Library/u8x8_d_ssd1327.c ****   CONTRIBUTORS "AS IS" AND ANY EXPRESS OR IMPLIED WARRANTIES, 
  22:/Users/imashio/Electronics/ARM/_Library/u8x8_d_ssd1327.c ****   INCLUDING, BUT NOT LIMITED TO, THE IMPLIED WARRANTIES OF 
  23:/Users/imashio/Electronics/ARM/_Library/u8x8_d_ssd1327.c ****   MERCHANTABILITY AND FITNESS FOR A PARTICULAR PURPOSE ARE 
  24:/Users/imashio/Electronics/ARM/_Library/u8x8_d_ssd1327.c ****   DISCLAIMED. IN NO EVENT SHALL THE COPYRIGHT HOLDER OR 
  25:/Users/imashio/Electronics/ARM/_Library/u8x8_d_ssd1327.c ****   CONTRIBUTORS BE LIABLE FOR ANY DIRECT, INDIRECT, INCIDENTAL, 
  26:/Users/imashio/Electronics/ARM/_Library/u8x8_d_ssd1327.c ****   SPECIAL, EXEMPLARY, OR CONSEQUENTIAL DAMAGES (INCLUDING, BUT 
  27:/Users/imashio/Electronics/ARM/_Library/u8x8_d_ssd1327.c ****   NOT LIMITED TO, PROCUREMENT OF SUBSTITUTE GOODS OR SERVICES; 
  28:/Users/imashio/Electronics/ARM/_Library/u8x8_d_ssd1327.c ****   LOSS OF USE, DATA, OR PROFITS; OR BUSINESS INTERRUPTION) HOWEVER 
  29:/Users/imashio/Electronics/ARM/_Library/u8x8_d_ssd1327.c ****   CAUSED AND ON ANY THEORY OF LIABILITY, WHETHER IN CONTRACT, 
  30:/Users/imashio/Electronics/ARM/_Library/u8x8_d_ssd1327.c ****   STRICT LIABILITY, OR TORT (INCLUDING NEGLIGENCE OR OTHERWISE) 
  31:/Users/imashio/Electronics/ARM/_Library/u8x8_d_ssd1327.c ****   ARISING IN ANY WAY OUT OF THE USE OF THIS SOFTWARE, EVEN IF 
ARM GAS  /var/folders/v3/wysfpd052nz8jkbx04pk0ym80000gn/T//cchRAivb.s 			page 2


  32:/Users/imashio/Electronics/ARM/_Library/u8x8_d_ssd1327.c ****   ADVISED OF THE POSSIBILITY OF SUCH DAMAGE.  
  33:/Users/imashio/Electronics/ARM/_Library/u8x8_d_ssd1327.c ****   
  34:/Users/imashio/Electronics/ARM/_Library/u8x8_d_ssd1327.c **** */
  35:/Users/imashio/Electronics/ARM/_Library/u8x8_d_ssd1327.c **** 
  36:/Users/imashio/Electronics/ARM/_Library/u8x8_d_ssd1327.c **** 
  37:/Users/imashio/Electronics/ARM/_Library/u8x8_d_ssd1327.c **** #include "u8x8.h"
  38:/Users/imashio/Electronics/ARM/_Library/u8x8_d_ssd1327.c **** 
  39:/Users/imashio/Electronics/ARM/_Library/u8x8_d_ssd1327.c **** 
  40:/Users/imashio/Electronics/ARM/_Library/u8x8_d_ssd1327.c **** static const uint8_t u8x8_d_ssd1327_96x96_powersave0_seq[] = {
  41:/Users/imashio/Electronics/ARM/_Library/u8x8_d_ssd1327.c ****   U8X8_START_TRANSFER(),             	/* enable chip, delay is part of the transfer start */
  42:/Users/imashio/Electronics/ARM/_Library/u8x8_d_ssd1327.c ****   U8X8_C(0x0af),		                /* display on */
  43:/Users/imashio/Electronics/ARM/_Library/u8x8_d_ssd1327.c ****   U8X8_END_TRANSFER(),             	/* disable chip */
  44:/Users/imashio/Electronics/ARM/_Library/u8x8_d_ssd1327.c ****   U8X8_END()             			/* end of sequence */
  45:/Users/imashio/Electronics/ARM/_Library/u8x8_d_ssd1327.c **** };
  46:/Users/imashio/Electronics/ARM/_Library/u8x8_d_ssd1327.c **** 
  47:/Users/imashio/Electronics/ARM/_Library/u8x8_d_ssd1327.c **** static const uint8_t u8x8_d_ssd1327_96x96_powersave1_seq[] = {
  48:/Users/imashio/Electronics/ARM/_Library/u8x8_d_ssd1327.c ****   U8X8_START_TRANSFER(),             	/* enable chip, delay is part of the transfer start */
  49:/Users/imashio/Electronics/ARM/_Library/u8x8_d_ssd1327.c ****   U8X8_C(0x0ae),		                /* display off */
  50:/Users/imashio/Electronics/ARM/_Library/u8x8_d_ssd1327.c ****   U8X8_END_TRANSFER(),             	/* disable chip */
  51:/Users/imashio/Electronics/ARM/_Library/u8x8_d_ssd1327.c ****   U8X8_END()             			/* end of sequence */
  52:/Users/imashio/Electronics/ARM/_Library/u8x8_d_ssd1327.c **** };
  53:/Users/imashio/Electronics/ARM/_Library/u8x8_d_ssd1327.c **** 
  54:/Users/imashio/Electronics/ARM/_Library/u8x8_d_ssd1327.c **** 
  55:/Users/imashio/Electronics/ARM/_Library/u8x8_d_ssd1327.c **** 
  56:/Users/imashio/Electronics/ARM/_Library/u8x8_d_ssd1327.c **** 
  57:/Users/imashio/Electronics/ARM/_Library/u8x8_d_ssd1327.c **** /*
  58:/Users/imashio/Electronics/ARM/_Library/u8x8_d_ssd1327.c ****   input:
  59:/Users/imashio/Electronics/ARM/_Library/u8x8_d_ssd1327.c ****     one tile (8 Bytes)
  60:/Users/imashio/Electronics/ARM/_Library/u8x8_d_ssd1327.c ****   output:
  61:/Users/imashio/Electronics/ARM/_Library/u8x8_d_ssd1327.c ****     Tile for ssd1327 (32 Bytes)
  62:/Users/imashio/Electronics/ARM/_Library/u8x8_d_ssd1327.c **** */
  63:/Users/imashio/Electronics/ARM/_Library/u8x8_d_ssd1327.c **** 
  64:/Users/imashio/Electronics/ARM/_Library/u8x8_d_ssd1327.c **** static uint8_t u8x8_ssd1327_8to32_dest_buf[32];
  65:/Users/imashio/Electronics/ARM/_Library/u8x8_d_ssd1327.c **** 
  66:/Users/imashio/Electronics/ARM/_Library/u8x8_d_ssd1327.c **** static uint8_t *u8x8_ssd1327_8to32(U8X8_UNUSED u8x8_t *u8x8, uint8_t *ptr)
  67:/Users/imashio/Electronics/ARM/_Library/u8x8_d_ssd1327.c **** {
  68:/Users/imashio/Electronics/ARM/_Library/u8x8_d_ssd1327.c ****   uint8_t v;
  69:/Users/imashio/Electronics/ARM/_Library/u8x8_d_ssd1327.c ****   uint8_t a,b;
  70:/Users/imashio/Electronics/ARM/_Library/u8x8_d_ssd1327.c ****   uint8_t i, j;
  71:/Users/imashio/Electronics/ARM/_Library/u8x8_d_ssd1327.c ****   uint8_t *dest;
  72:/Users/imashio/Electronics/ARM/_Library/u8x8_d_ssd1327.c ****   
  73:/Users/imashio/Electronics/ARM/_Library/u8x8_d_ssd1327.c ****   for( j = 0; j < 4; j++ )
  74:/Users/imashio/Electronics/ARM/_Library/u8x8_d_ssd1327.c ****   {
  75:/Users/imashio/Electronics/ARM/_Library/u8x8_d_ssd1327.c ****     dest = u8x8_ssd1327_8to32_dest_buf;
  76:/Users/imashio/Electronics/ARM/_Library/u8x8_d_ssd1327.c ****     dest += j;
  77:/Users/imashio/Electronics/ARM/_Library/u8x8_d_ssd1327.c ****     a =*ptr;
  78:/Users/imashio/Electronics/ARM/_Library/u8x8_d_ssd1327.c ****     ptr++;
  79:/Users/imashio/Electronics/ARM/_Library/u8x8_d_ssd1327.c ****     b = *ptr;
  80:/Users/imashio/Electronics/ARM/_Library/u8x8_d_ssd1327.c ****     ptr++;
  81:/Users/imashio/Electronics/ARM/_Library/u8x8_d_ssd1327.c ****     for( i = 0; i < 8; i++ )
  82:/Users/imashio/Electronics/ARM/_Library/u8x8_d_ssd1327.c ****     {
  83:/Users/imashio/Electronics/ARM/_Library/u8x8_d_ssd1327.c ****       v = 0;
  84:/Users/imashio/Electronics/ARM/_Library/u8x8_d_ssd1327.c ****       if ( a&1 ) v |= 0xf0;
  85:/Users/imashio/Electronics/ARM/_Library/u8x8_d_ssd1327.c ****       if ( b&1 ) v |= 0x0f;
  86:/Users/imashio/Electronics/ARM/_Library/u8x8_d_ssd1327.c ****       *dest = v;
  87:/Users/imashio/Electronics/ARM/_Library/u8x8_d_ssd1327.c ****       dest+=4;
  88:/Users/imashio/Electronics/ARM/_Library/u8x8_d_ssd1327.c ****       a >>= 1;
ARM GAS  /var/folders/v3/wysfpd052nz8jkbx04pk0ym80000gn/T//cchRAivb.s 			page 3


  89:/Users/imashio/Electronics/ARM/_Library/u8x8_d_ssd1327.c ****       b >>= 1;
  90:/Users/imashio/Electronics/ARM/_Library/u8x8_d_ssd1327.c ****     }
  91:/Users/imashio/Electronics/ARM/_Library/u8x8_d_ssd1327.c ****   }
  92:/Users/imashio/Electronics/ARM/_Library/u8x8_d_ssd1327.c ****   
  93:/Users/imashio/Electronics/ARM/_Library/u8x8_d_ssd1327.c ****   return u8x8_ssd1327_8to32_dest_buf;
  94:/Users/imashio/Electronics/ARM/_Library/u8x8_d_ssd1327.c **** }
  95:/Users/imashio/Electronics/ARM/_Library/u8x8_d_ssd1327.c **** 
  96:/Users/imashio/Electronics/ARM/_Library/u8x8_d_ssd1327.c **** 
  97:/Users/imashio/Electronics/ARM/_Library/u8x8_d_ssd1327.c **** 
  98:/Users/imashio/Electronics/ARM/_Library/u8x8_d_ssd1327.c **** 
  99:/Users/imashio/Electronics/ARM/_Library/u8x8_d_ssd1327.c **** static uint8_t u8x8_d_ssd1327_96x96_generic(u8x8_t *u8x8, uint8_t msg, uint8_t arg_int, void *arg_p
 100:/Users/imashio/Electronics/ARM/_Library/u8x8_d_ssd1327.c **** {
  28              		.loc 1 100 0
  29              		.cfi_startproc
  30              		@ args = 0, pretend = 0, frame = 8
  31              		@ frame_needed = 0, uses_anonymous_args = 0
  32              	.LVL0:
  33 0000 2DE9F04F 		push	{r4, r5, r6, r7, r8, r9, r10, fp, lr}
  34              	.LCFI0:
  35              		.cfi_def_cfa_offset 36
  36              		.cfi_offset 4, -36
  37              		.cfi_offset 5, -32
  38              		.cfi_offset 6, -28
  39              		.cfi_offset 7, -24
  40              		.cfi_offset 8, -20
  41              		.cfi_offset 9, -16
  42              		.cfi_offset 10, -12
  43              		.cfi_offset 11, -8
  44              		.cfi_offset 14, -4
  45 0004 83B0     		sub	sp, sp, #12
  46              	.LCFI1:
  47              		.cfi_def_cfa_offset 48
 101:/Users/imashio/Electronics/ARM/_Library/u8x8_d_ssd1327.c ****   uint8_t x, y, c;
 102:/Users/imashio/Electronics/ARM/_Library/u8x8_d_ssd1327.c ****   uint8_t *ptr;
 103:/Users/imashio/Electronics/ARM/_Library/u8x8_d_ssd1327.c ****   switch(msg)
  48              		.loc 1 103 0
  49 0006 0E29     		cmp	r1, #14
 100:/Users/imashio/Electronics/ARM/_Library/u8x8_d_ssd1327.c ****   uint8_t x, y, c;
  50              		.loc 1 100 0
  51 0008 0092     		str	r2, [sp]
  52 000a 0546     		mov	r5, r0
  53              		.loc 1 103 0
  54 000c 00F08D80 		beq	.L3
  55 0010 0F29     		cmp	r1, #15
  56 0012 0FD0     		beq	.L4
  57 0014 0B29     		cmp	r1, #11
  58 0016 03D0     		beq	.L25
 104:/Users/imashio/Electronics/ARM/_Library/u8x8_d_ssd1327.c ****   {
 105:/Users/imashio/Electronics/ARM/_Library/u8x8_d_ssd1327.c ****     /* handled by the calling function
 106:/Users/imashio/Electronics/ARM/_Library/u8x8_d_ssd1327.c ****     case U8X8_MSG_DISPLAY_SETUP_MEMORY:
 107:/Users/imashio/Electronics/ARM/_Library/u8x8_d_ssd1327.c ****       u8x8_d_helper_display_setup_memory(u8x8, &u8x8_ssd1327_96x96_display_info);
 108:/Users/imashio/Electronics/ARM/_Library/u8x8_d_ssd1327.c ****       break;
 109:/Users/imashio/Electronics/ARM/_Library/u8x8_d_ssd1327.c ****     */
 110:/Users/imashio/Electronics/ARM/_Library/u8x8_d_ssd1327.c ****     /* handled by the calling function
 111:/Users/imashio/Electronics/ARM/_Library/u8x8_d_ssd1327.c ****     case U8X8_MSG_DISPLAY_INIT:
 112:/Users/imashio/Electronics/ARM/_Library/u8x8_d_ssd1327.c ****       u8x8_d_helper_display_init(u8x8);
 113:/Users/imashio/Electronics/ARM/_Library/u8x8_d_ssd1327.c ****       u8x8_cad_SendSequence(u8x8, u8x8_d_ssd1327_96x96_init_seq);    
ARM GAS  /var/folders/v3/wysfpd052nz8jkbx04pk0ym80000gn/T//cchRAivb.s 			page 4


 114:/Users/imashio/Electronics/ARM/_Library/u8x8_d_ssd1327.c ****       break;
 115:/Users/imashio/Electronics/ARM/_Library/u8x8_d_ssd1327.c ****     */
 116:/Users/imashio/Electronics/ARM/_Library/u8x8_d_ssd1327.c ****     case U8X8_MSG_DISPLAY_SET_POWER_SAVE:
 117:/Users/imashio/Electronics/ARM/_Library/u8x8_d_ssd1327.c ****       if ( arg_int == 0 )
 118:/Users/imashio/Electronics/ARM/_Library/u8x8_d_ssd1327.c **** 	u8x8_cad_SendSequence(u8x8, u8x8_d_ssd1327_96x96_powersave0_seq);
 119:/Users/imashio/Electronics/ARM/_Library/u8x8_d_ssd1327.c ****       else
 120:/Users/imashio/Electronics/ARM/_Library/u8x8_d_ssd1327.c **** 	u8x8_cad_SendSequence(u8x8, u8x8_d_ssd1327_96x96_powersave1_seq);
 121:/Users/imashio/Electronics/ARM/_Library/u8x8_d_ssd1327.c ****       break;
 122:/Users/imashio/Electronics/ARM/_Library/u8x8_d_ssd1327.c **** #ifdef U8X8_WITH_SET_CONTRAST
 123:/Users/imashio/Electronics/ARM/_Library/u8x8_d_ssd1327.c ****     case U8X8_MSG_DISPLAY_SET_CONTRAST:
 124:/Users/imashio/Electronics/ARM/_Library/u8x8_d_ssd1327.c ****       u8x8_cad_StartTransfer(u8x8);
 125:/Users/imashio/Electronics/ARM/_Library/u8x8_d_ssd1327.c ****       u8x8_cad_SendCmd(u8x8, 0x081 );
 126:/Users/imashio/Electronics/ARM/_Library/u8x8_d_ssd1327.c ****       u8x8_cad_SendArg(u8x8, arg_int );	/* ssd1327 has range from 0 to 255 */
 127:/Users/imashio/Electronics/ARM/_Library/u8x8_d_ssd1327.c ****       u8x8_cad_EndTransfer(u8x8);
 128:/Users/imashio/Electronics/ARM/_Library/u8x8_d_ssd1327.c ****       break;
 129:/Users/imashio/Electronics/ARM/_Library/u8x8_d_ssd1327.c **** #endif
 130:/Users/imashio/Electronics/ARM/_Library/u8x8_d_ssd1327.c ****     case U8X8_MSG_DISPLAY_DRAW_TILE:
 131:/Users/imashio/Electronics/ARM/_Library/u8x8_d_ssd1327.c ****       u8x8_cad_StartTransfer(u8x8);
 132:/Users/imashio/Electronics/ARM/_Library/u8x8_d_ssd1327.c ****       x = ((u8x8_tile_t *)arg_ptr)->x_pos;    
 133:/Users/imashio/Electronics/ARM/_Library/u8x8_d_ssd1327.c ****       x *= 4;
 134:/Users/imashio/Electronics/ARM/_Library/u8x8_d_ssd1327.c ****       x+=u8x8->x_offset/2;
 135:/Users/imashio/Electronics/ARM/_Library/u8x8_d_ssd1327.c ****     
 136:/Users/imashio/Electronics/ARM/_Library/u8x8_d_ssd1327.c ****       y = (((u8x8_tile_t *)arg_ptr)->y_pos);
 137:/Users/imashio/Electronics/ARM/_Library/u8x8_d_ssd1327.c ****       y *= 8;
 138:/Users/imashio/Electronics/ARM/_Library/u8x8_d_ssd1327.c ****     
 139:/Users/imashio/Electronics/ARM/_Library/u8x8_d_ssd1327.c ****       u8x8_cad_SendCmd(u8x8, 0x075 );	/* set row address, moved out of the loop (issue 302) */
 140:/Users/imashio/Electronics/ARM/_Library/u8x8_d_ssd1327.c ****       u8x8_cad_SendArg(u8x8, y);
 141:/Users/imashio/Electronics/ARM/_Library/u8x8_d_ssd1327.c ****       u8x8_cad_SendArg(u8x8, y+7);
 142:/Users/imashio/Electronics/ARM/_Library/u8x8_d_ssd1327.c **** 	  
 143:/Users/imashio/Electronics/ARM/_Library/u8x8_d_ssd1327.c ****       
 144:/Users/imashio/Electronics/ARM/_Library/u8x8_d_ssd1327.c ****       do
 145:/Users/imashio/Electronics/ARM/_Library/u8x8_d_ssd1327.c ****       {
 146:/Users/imashio/Electronics/ARM/_Library/u8x8_d_ssd1327.c **** 	c = ((u8x8_tile_t *)arg_ptr)->cnt;
 147:/Users/imashio/Electronics/ARM/_Library/u8x8_d_ssd1327.c **** 	ptr = ((u8x8_tile_t *)arg_ptr)->tile_ptr;
 148:/Users/imashio/Electronics/ARM/_Library/u8x8_d_ssd1327.c **** 
 149:/Users/imashio/Electronics/ARM/_Library/u8x8_d_ssd1327.c **** 	do
 150:/Users/imashio/Electronics/ARM/_Library/u8x8_d_ssd1327.c **** 	{
 151:/Users/imashio/Electronics/ARM/_Library/u8x8_d_ssd1327.c **** 	  u8x8_cad_SendCmd(u8x8, 0x015 );	/* set column address */
 152:/Users/imashio/Electronics/ARM/_Library/u8x8_d_ssd1327.c **** 	  u8x8_cad_SendArg(u8x8, x );	/* start */
 153:/Users/imashio/Electronics/ARM/_Library/u8x8_d_ssd1327.c **** 	  u8x8_cad_SendArg(u8x8, x+3 );	/* end */
 154:/Users/imashio/Electronics/ARM/_Library/u8x8_d_ssd1327.c **** 
 155:/Users/imashio/Electronics/ARM/_Library/u8x8_d_ssd1327.c **** 	  
 156:/Users/imashio/Electronics/ARM/_Library/u8x8_d_ssd1327.c **** 	  u8x8_cad_SendData(u8x8, 32, u8x8_ssd1327_8to32(u8x8, ptr));
 157:/Users/imashio/Electronics/ARM/_Library/u8x8_d_ssd1327.c **** 	  ptr += 8;
 158:/Users/imashio/Electronics/ARM/_Library/u8x8_d_ssd1327.c **** 	  x += 4;
 159:/Users/imashio/Electronics/ARM/_Library/u8x8_d_ssd1327.c **** 	  c--;
 160:/Users/imashio/Electronics/ARM/_Library/u8x8_d_ssd1327.c **** 	} while( c > 0 );
 161:/Users/imashio/Electronics/ARM/_Library/u8x8_d_ssd1327.c **** 	
 162:/Users/imashio/Electronics/ARM/_Library/u8x8_d_ssd1327.c **** 	//x += 4;
 163:/Users/imashio/Electronics/ARM/_Library/u8x8_d_ssd1327.c **** 	arg_int--;
 164:/Users/imashio/Electronics/ARM/_Library/u8x8_d_ssd1327.c ****       } while( arg_int > 0 );
 165:/Users/imashio/Electronics/ARM/_Library/u8x8_d_ssd1327.c ****       
 166:/Users/imashio/Electronics/ARM/_Library/u8x8_d_ssd1327.c ****       u8x8_cad_EndTransfer(u8x8);
 167:/Users/imashio/Electronics/ARM/_Library/u8x8_d_ssd1327.c ****       break;
 168:/Users/imashio/Electronics/ARM/_Library/u8x8_d_ssd1327.c ****     default:
 169:/Users/imashio/Electronics/ARM/_Library/u8x8_d_ssd1327.c ****       return 0;
  59              		.loc 1 169 0
ARM GAS  /var/folders/v3/wysfpd052nz8jkbx04pk0ym80000gn/T//cchRAivb.s 			page 5


  60 0018 0020     		movs	r0, #0
  61              	.LVL1:
 170:/Users/imashio/Electronics/ARM/_Library/u8x8_d_ssd1327.c ****   }
 171:/Users/imashio/Electronics/ARM/_Library/u8x8_d_ssd1327.c ****   return 1;
 172:/Users/imashio/Electronics/ARM/_Library/u8x8_d_ssd1327.c **** }
  62              		.loc 1 172 0
  63 001a 03B0     		add	sp, sp, #12
  64              	.LCFI2:
  65              		.cfi_remember_state
  66              		.cfi_def_cfa_offset 36
  67              		@ sp needed
  68 001c BDE8F08F 		pop	{r4, r5, r6, r7, r8, r9, r10, fp, pc}
  69              	.LVL2:
  70              	.L25:
  71              	.LCFI3:
  72              		.cfi_restore_state
 117:/Users/imashio/Electronics/ARM/_Library/u8x8_d_ssd1327.c **** 	u8x8_cad_SendSequence(u8x8, u8x8_d_ssd1327_96x96_powersave0_seq);
  73              		.loc 1 117 0
  74 0020 002A     		cmp	r2, #0
  75 0022 40F09380 		bne	.L6
 118:/Users/imashio/Electronics/ARM/_Library/u8x8_d_ssd1327.c ****       else
  76              		.loc 1 118 0
  77 0026 4D49     		ldr	r1, .L26
  78              	.LVL3:
  79 0028 FFF7FEFF 		bl	u8x8_cad_SendSequence
  80              	.LVL4:
 171:/Users/imashio/Electronics/ARM/_Library/u8x8_d_ssd1327.c **** }
  81              		.loc 1 171 0
  82 002c 0120     		movs	r0, #1
  83              		.loc 1 172 0
  84 002e 03B0     		add	sp, sp, #12
  85              	.LCFI4:
  86              		.cfi_remember_state
  87              		.cfi_def_cfa_offset 36
  88              		@ sp needed
  89 0030 BDE8F08F 		pop	{r4, r5, r6, r7, r8, r9, r10, fp, pc}
  90              	.LVL5:
  91              	.L4:
  92              	.LCFI5:
  93              		.cfi_restore_state
  94 0034 9A46     		mov	r10, r3
  95              	.LVL6:
  96              	.LBB6:
  97              	.LBB7:
 131:/Users/imashio/Electronics/ARM/_Library/u8x8_d_ssd1327.c ****       x = ((u8x8_tile_t *)arg_ptr)->x_pos;    
  98              		.loc 1 131 0
  99 0036 FFF7FEFF 		bl	u8x8_cad_StartTransfer
 100              	.LVL7:
 132:/Users/imashio/Electronics/ARM/_Library/u8x8_d_ssd1327.c ****       x *= 4;
 101              		.loc 1 132 0
 102 003a 9AF80530 		ldrb	r3, [r10, #5]	@ zero_extendqisi2
 103              	.LVL8:
 136:/Users/imashio/Electronics/ARM/_Library/u8x8_d_ssd1327.c ****       y *= 8;
 104              		.loc 1 136 0
 105 003e 9AF80640 		ldrb	r4, [r10, #6]	@ zero_extendqisi2
 134:/Users/imashio/Electronics/ARM/_Library/u8x8_d_ssd1327.c ****     
 106              		.loc 1 134 0
ARM GAS  /var/folders/v3/wysfpd052nz8jkbx04pk0ym80000gn/T//cchRAivb.s 			page 6


 107 0042 AA7F     		ldrb	r2, [r5, #30]	@ zero_extendqisi2
 108 0044 464F     		ldr	r7, .L26+4
 133:/Users/imashio/Electronics/ARM/_Library/u8x8_d_ssd1327.c ****       x+=u8x8->x_offset/2;
 109              		.loc 1 133 0
 110 0046 9B00     		lsls	r3, r3, #2
 111              	.LVL9:
 137:/Users/imashio/Electronics/ARM/_Library/u8x8_d_ssd1327.c ****     
 112              		.loc 1 137 0
 113 0048 E400     		lsls	r4, r4, #3
 134:/Users/imashio/Electronics/ARM/_Library/u8x8_d_ssd1327.c ****     
 114              		.loc 1 134 0
 115 004a 03EB5203 		add	r3, r3, r2, lsr #1
 116              	.LVL10:
 137:/Users/imashio/Electronics/ARM/_Library/u8x8_d_ssd1327.c ****     
 117              		.loc 1 137 0
 118 004e E4B2     		uxtb	r4, r4
 139:/Users/imashio/Electronics/ARM/_Library/u8x8_d_ssd1327.c ****       u8x8_cad_SendArg(u8x8, y);
 119              		.loc 1 139 0
 120 0050 7521     		movs	r1, #117
 121 0052 2846     		mov	r0, r5
 134:/Users/imashio/Electronics/ARM/_Library/u8x8_d_ssd1327.c ****     
 122              		.loc 1 134 0
 123 0054 03F0FF09 		and	r9, r3, #255
 124              	.LVL11:
 139:/Users/imashio/Electronics/ARM/_Library/u8x8_d_ssd1327.c ****       u8x8_cad_SendArg(u8x8, y);
 125              		.loc 1 139 0
 126 0058 FFF7FEFF 		bl	u8x8_cad_SendCmd
 127              	.LVL12:
 140:/Users/imashio/Electronics/ARM/_Library/u8x8_d_ssd1327.c ****       u8x8_cad_SendArg(u8x8, y+7);
 128              		.loc 1 140 0
 129 005c 2146     		mov	r1, r4
 130 005e 2846     		mov	r0, r5
 131 0060 FFF7FEFF 		bl	u8x8_cad_SendArg
 132              	.LVL13:
 141:/Users/imashio/Electronics/ARM/_Library/u8x8_d_ssd1327.c **** 	  
 133              		.loc 1 141 0
 134 0064 E11D     		adds	r1, r4, #7
 135 0066 C9B2     		uxtb	r1, r1
 136 0068 2846     		mov	r0, r5
 137 006a FFF7FEFF 		bl	u8x8_cad_SendArg
 138              	.LVL14:
 156:/Users/imashio/Electronics/ARM/_Library/u8x8_d_ssd1327.c **** 	  ptr += 8;
 139              		.loc 1 156 0
 140 006e A7F12408 		sub	r8, r7, #36
 141              	.LVL15:
 142              	.L12:
 146:/Users/imashio/Electronics/ARM/_Library/u8x8_d_ssd1327.c **** 	ptr = ((u8x8_tile_t *)arg_ptr)->tile_ptr;
 143              		.loc 1 146 0
 144 0072 9AF80430 		ldrb	r3, [r10, #4]	@ zero_extendqisi2
 145 0076 0193     		str	r3, [sp, #4]
 146 0078 1A46     		mov	r2, r3
 147              	.LVL16:
 148 007a DAF80030 		ldr	r3, [r10]
 149 007e 561E     		subs	r6, r2, #1
 150 0080 F6B2     		uxtb	r6, r6
 151 0082 03F11202 		add	r2, r3, #18
 152              	.LVL17:
ARM GAS  /var/folders/v3/wysfpd052nz8jkbx04pk0ym80000gn/T//cchRAivb.s 			page 7


 153 0086 0821     		movs	r1, #8
 154 0088 11FB0626 		smlabb	r6, r1, r6, r2
 155 008c 03F10A0B 		add	fp, r3, #10
 147:/Users/imashio/Electronics/ARM/_Library/u8x8_d_ssd1327.c **** 
 156              		.loc 1 147 0
 157 0090 4C46     		mov	r4, r9
 158              	.LVL18:
 159              	.L11:
 151:/Users/imashio/Electronics/ARM/_Library/u8x8_d_ssd1327.c **** 	  u8x8_cad_SendArg(u8x8, x );	/* start */
 160              		.loc 1 151 0
 161 0092 1521     		movs	r1, #21
 162 0094 2846     		mov	r0, r5
 163 0096 FFF7FEFF 		bl	u8x8_cad_SendCmd
 164              	.LVL19:
 152:/Users/imashio/Electronics/ARM/_Library/u8x8_d_ssd1327.c **** 	  u8x8_cad_SendArg(u8x8, x+3 );	/* end */
 165              		.loc 1 152 0
 166 009a 2146     		mov	r1, r4
 167 009c 2846     		mov	r0, r5
 168 009e FFF7FEFF 		bl	u8x8_cad_SendArg
 169              	.LVL20:
 153:/Users/imashio/Electronics/ARM/_Library/u8x8_d_ssd1327.c **** 
 170              		.loc 1 153 0
 171 00a2 E11C     		adds	r1, r4, #3
 172 00a4 C9B2     		uxtb	r1, r1
 173 00a6 2846     		mov	r0, r5
 174 00a8 FFF7FEFF 		bl	u8x8_cad_SendArg
 175              	.LVL21:
 176 00ac ABF1080E 		sub	lr, fp, #8
 177 00b0 BC46     		mov	ip, r7
 178              	.LVL22:
 179              	.L10:
 180              	.LBB8:
 181              	.LBB9:
  77:/Users/imashio/Electronics/ARM/_Library/u8x8_d_ssd1327.c ****     ptr++;
 182              		.loc 1 77 0
 183 00b2 1EF8021C 		ldrb	r1, [lr, #-2]	@ zero_extendqisi2
 184              	.LVL23:
  79:/Users/imashio/Electronics/ARM/_Library/u8x8_d_ssd1327.c ****     ptr++;
 185              		.loc 1 79 0
 186 00b6 1EF8012C 		ldrb	r2, [lr, #-1]	@ zero_extendqisi2
 187              	.LVL24:
 188 00ba ACF12003 		sub	r3, ip, #32
 189              	.LVL25:
 190              	.L9:
  84:/Users/imashio/Electronics/ARM/_Library/u8x8_d_ssd1327.c ****       if ( b&1 ) v |= 0x0f;
 191              		.loc 1 84 0
 192 00be 11F0010F 		tst	r1, #1
 193 00c2 14BF     		ite	ne
 194 00c4 F020     		movne	r0, #240
 195 00c6 0020     		moveq	r0, #0
 196              	.LVL26:
  85:/Users/imashio/Electronics/ARM/_Library/u8x8_d_ssd1327.c ****       *dest = v;
 197              		.loc 1 85 0
 198 00c8 12F0010F 		tst	r2, #1
 199 00cc 18BF     		it	ne
 200 00ce 40F00F00 		orrne	r0, r0, #15
 201              	.LVL27:
ARM GAS  /var/folders/v3/wysfpd052nz8jkbx04pk0ym80000gn/T//cchRAivb.s 			page 8


  86:/Users/imashio/Electronics/ARM/_Library/u8x8_d_ssd1327.c ****       dest+=4;
 202              		.loc 1 86 0
 203 00d2 03F8040C 		strb	r0, [r3, #-4]
 204              	.LVL28:
 205 00d6 0433     		adds	r3, r3, #4
 206              	.LVL29:
  81:/Users/imashio/Electronics/ARM/_Library/u8x8_d_ssd1327.c ****     {
 207              		.loc 1 81 0
 208 00d8 6345     		cmp	r3, ip
  88:/Users/imashio/Electronics/ARM/_Library/u8x8_d_ssd1327.c ****       b >>= 1;
 209              		.loc 1 88 0
 210 00da 4FEA5101 		lsr	r1, r1, #1
 211              	.LVL30:
  89:/Users/imashio/Electronics/ARM/_Library/u8x8_d_ssd1327.c ****     }
 212              		.loc 1 89 0
 213 00de 4FEA5202 		lsr	r2, r2, #1
 214              	.LVL31:
  81:/Users/imashio/Electronics/ARM/_Library/u8x8_d_ssd1327.c ****     {
 215              		.loc 1 81 0
 216 00e2 ECD1     		bne	.L9
 217              	.LVL32:
 218 00e4 0EF1020E 		add	lr, lr, #2
 219              	.LVL33:
  73:/Users/imashio/Electronics/ARM/_Library/u8x8_d_ssd1327.c ****   {
 220              		.loc 1 73 0
 221 00e8 F345     		cmp	fp, lr
 222 00ea 03F1010C 		add	ip, r3, #1
 223 00ee E0D1     		bne	.L10
 224              	.LVL34:
 225              	.LBE9:
 226              	.LBE8:
 156:/Users/imashio/Electronics/ARM/_Library/u8x8_d_ssd1327.c **** 	  ptr += 8;
 227              		.loc 1 156 0
 228 00f0 4246     		mov	r2, r8
 229 00f2 2021     		movs	r1, #32
 230 00f4 2846     		mov	r0, r5
 231 00f6 0BF1080B 		add	fp, fp, #8
 232              	.LVL35:
 233 00fa FFF7FEFF 		bl	u8x8_cad_SendData
 234              	.LVL36:
 158:/Users/imashio/Electronics/ARM/_Library/u8x8_d_ssd1327.c **** 	  c--;
 235              		.loc 1 158 0
 236 00fe 0434     		adds	r4, r4, #4
 237              	.LVL37:
 160:/Users/imashio/Electronics/ARM/_Library/u8x8_d_ssd1327.c **** 	
 238              		.loc 1 160 0
 239 0100 B345     		cmp	fp, r6
 158:/Users/imashio/Electronics/ARM/_Library/u8x8_d_ssd1327.c **** 	  c--;
 240              		.loc 1 158 0
 241 0102 E4B2     		uxtb	r4, r4
 242              	.LVL38:
 160:/Users/imashio/Electronics/ARM/_Library/u8x8_d_ssd1327.c **** 	
 243              		.loc 1 160 0
 244 0104 C5D1     		bne	.L11
 245 0106 019B     		ldr	r3, [sp, #4]
 246 0108 09EB8309 		add	r9, r9, r3, lsl #2
 163:/Users/imashio/Electronics/ARM/_Library/u8x8_d_ssd1327.c ****       } while( arg_int > 0 );
ARM GAS  /var/folders/v3/wysfpd052nz8jkbx04pk0ym80000gn/T//cchRAivb.s 			page 9


 247              		.loc 1 163 0
 248 010c 009B     		ldr	r3, [sp]
 249 010e 013B     		subs	r3, r3, #1
 250              	.LVL39:
 164:/Users/imashio/Electronics/ARM/_Library/u8x8_d_ssd1327.c ****       
 251              		.loc 1 164 0
 252 0110 13F0FF03 		ands	r3, r3, #255
 253              	.LVL40:
 254 0114 5FFA89F9 		uxtb	r9, r9
 255 0118 0093     		str	r3, [sp]
 256              	.LVL41:
 257 011a AAD1     		bne	.L12
 166:/Users/imashio/Electronics/ARM/_Library/u8x8_d_ssd1327.c ****       break;
 258              		.loc 1 166 0
 259 011c 2846     		mov	r0, r5
 260 011e FFF7FEFF 		bl	u8x8_cad_EndTransfer
 261              	.LVL42:
 262 0122 0120     		movs	r0, #1
 263              	.LBE7:
 264              	.LBE6:
 265              		.loc 1 172 0
 266 0124 03B0     		add	sp, sp, #12
 267              	.LCFI6:
 268              		.cfi_remember_state
 269              		.cfi_def_cfa_offset 36
 270              		@ sp needed
 271 0126 BDE8F08F 		pop	{r4, r5, r6, r7, r8, r9, r10, fp, pc}
 272              	.LVL43:
 273              	.L3:
 274              	.LCFI7:
 275              		.cfi_restore_state
 124:/Users/imashio/Electronics/ARM/_Library/u8x8_d_ssd1327.c ****       u8x8_cad_SendCmd(u8x8, 0x081 );
 276              		.loc 1 124 0
 277 012a FFF7FEFF 		bl	u8x8_cad_StartTransfer
 278              	.LVL44:
 125:/Users/imashio/Electronics/ARM/_Library/u8x8_d_ssd1327.c ****       u8x8_cad_SendArg(u8x8, arg_int );	/* ssd1327 has range from 0 to 255 */
 279              		.loc 1 125 0
 280 012e 8121     		movs	r1, #129
 281 0130 2846     		mov	r0, r5
 282 0132 FFF7FEFF 		bl	u8x8_cad_SendCmd
 283              	.LVL45:
 126:/Users/imashio/Electronics/ARM/_Library/u8x8_d_ssd1327.c ****       u8x8_cad_EndTransfer(u8x8);
 284              		.loc 1 126 0
 285 0136 0099     		ldr	r1, [sp]
 286 0138 2846     		mov	r0, r5
 287 013a FFF7FEFF 		bl	u8x8_cad_SendArg
 288              	.LVL46:
 127:/Users/imashio/Electronics/ARM/_Library/u8x8_d_ssd1327.c ****       break;
 289              		.loc 1 127 0
 290 013e 2846     		mov	r0, r5
 291 0140 FFF7FEFF 		bl	u8x8_cad_EndTransfer
 292              	.LVL47:
 171:/Users/imashio/Electronics/ARM/_Library/u8x8_d_ssd1327.c **** }
 293              		.loc 1 171 0
 294 0144 0120     		movs	r0, #1
 295              		.loc 1 172 0
 296 0146 03B0     		add	sp, sp, #12
ARM GAS  /var/folders/v3/wysfpd052nz8jkbx04pk0ym80000gn/T//cchRAivb.s 			page 10


 297              	.LCFI8:
 298              		.cfi_remember_state
 299              		.cfi_def_cfa_offset 36
 300              		@ sp needed
 301 0148 BDE8F08F 		pop	{r4, r5, r6, r7, r8, r9, r10, fp, pc}
 302              	.LVL48:
 303              	.L6:
 304              	.LCFI9:
 305              		.cfi_restore_state
 120:/Users/imashio/Electronics/ARM/_Library/u8x8_d_ssd1327.c ****       break;
 306              		.loc 1 120 0
 307 014c 0549     		ldr	r1, .L26+8
 308              	.LVL49:
 309 014e FFF7FEFF 		bl	u8x8_cad_SendSequence
 310              	.LVL50:
 171:/Users/imashio/Electronics/ARM/_Library/u8x8_d_ssd1327.c **** }
 311              		.loc 1 171 0
 312 0152 0120     		movs	r0, #1
 313              		.loc 1 172 0
 314 0154 03B0     		add	sp, sp, #12
 315              	.LCFI10:
 316              		.cfi_def_cfa_offset 36
 317              		@ sp needed
 318 0156 BDE8F08F 		pop	{r4, r5, r6, r7, r8, r9, r10, fp, pc}
 319              	.LVL51:
 320              	.L27:
 321 015a 00BF     		.align	2
 322              	.L26:
 323 015c 00000000 		.word	.LANCHOR0
 324 0160 24000000 		.word	.LANCHOR2+36
 325 0164 00000000 		.word	.LANCHOR1
 326              		.cfi_endproc
 327              	.LFE1:
 329              		.section	.text.u8x8_d_ssd1327_seeed_96x96,"ax",%progbits
 330              		.align	1
 331              		.p2align 2,,3
 332              		.global	u8x8_d_ssd1327_seeed_96x96
 333              		.syntax unified
 334              		.thumb
 335              		.thumb_func
 336              		.fpu fpv4-sp-d16
 338              	u8x8_d_ssd1327_seeed_96x96:
 339              	.LFB2:
 173:/Users/imashio/Electronics/ARM/_Library/u8x8_d_ssd1327.c **** 
 174:/Users/imashio/Electronics/ARM/_Library/u8x8_d_ssd1327.c **** /*=============================================*/
 175:/Users/imashio/Electronics/ARM/_Library/u8x8_d_ssd1327.c **** /*  Seeedstudio Grove OLED 96x96 */
 176:/Users/imashio/Electronics/ARM/_Library/u8x8_d_ssd1327.c **** 
 177:/Users/imashio/Electronics/ARM/_Library/u8x8_d_ssd1327.c **** static const u8x8_display_info_t u8x8_ssd1327_96x96_display_info =
 178:/Users/imashio/Electronics/ARM/_Library/u8x8_d_ssd1327.c **** {
 179:/Users/imashio/Electronics/ARM/_Library/u8x8_d_ssd1327.c ****   /* chip_enable_level = */ 0,
 180:/Users/imashio/Electronics/ARM/_Library/u8x8_d_ssd1327.c ****   /* chip_disable_level = */ 1,
 181:/Users/imashio/Electronics/ARM/_Library/u8x8_d_ssd1327.c ****   
 182:/Users/imashio/Electronics/ARM/_Library/u8x8_d_ssd1327.c ****   /* post_chip_enable_wait_ns = */ 20,
 183:/Users/imashio/Electronics/ARM/_Library/u8x8_d_ssd1327.c ****   /* pre_chip_disable_wait_ns = */ 10,
 184:/Users/imashio/Electronics/ARM/_Library/u8x8_d_ssd1327.c ****   /* reset_pulse_width_ms = */ 100, 	
 185:/Users/imashio/Electronics/ARM/_Library/u8x8_d_ssd1327.c ****   /* post_reset_wait_ms = */ 100, 		/**/
 186:/Users/imashio/Electronics/ARM/_Library/u8x8_d_ssd1327.c ****   /* sda_setup_time_ns = */ 100,		/* */
ARM GAS  /var/folders/v3/wysfpd052nz8jkbx04pk0ym80000gn/T//cchRAivb.s 			page 11


 187:/Users/imashio/Electronics/ARM/_Library/u8x8_d_ssd1327.c ****   /* sck_pulse_width_ns = */ 100,	/*  */
 188:/Users/imashio/Electronics/ARM/_Library/u8x8_d_ssd1327.c ****   /* sck_clock_hz = */ 4000000UL,	/* since Arduino 1.6.0, the SPI bus speed in Hz. Should be  10000
 189:/Users/imashio/Electronics/ARM/_Library/u8x8_d_ssd1327.c ****   /* spi_mode = */ 0,		/* active high, rising edge */
 190:/Users/imashio/Electronics/ARM/_Library/u8x8_d_ssd1327.c ****   /* i2c_bus_clock_100kHz = */ 1,	/* use 1 instead of 4, because the SSD1327 seems to be very slow 
 191:/Users/imashio/Electronics/ARM/_Library/u8x8_d_ssd1327.c ****   /* data_setup_time_ns = */ 40,
 192:/Users/imashio/Electronics/ARM/_Library/u8x8_d_ssd1327.c ****   /* write_pulse_width_ns = */ 60,	
 193:/Users/imashio/Electronics/ARM/_Library/u8x8_d_ssd1327.c ****   /* tile_width = */ 12,
 194:/Users/imashio/Electronics/ARM/_Library/u8x8_d_ssd1327.c ****   /* tile_hight = */ 12,
 195:/Users/imashio/Electronics/ARM/_Library/u8x8_d_ssd1327.c ****   /* default_x_offset = */ 16,
 196:/Users/imashio/Electronics/ARM/_Library/u8x8_d_ssd1327.c ****   /* flipmode_x_offset = */ 16,		
 197:/Users/imashio/Electronics/ARM/_Library/u8x8_d_ssd1327.c ****   /* pixel_width = */ 96,
 198:/Users/imashio/Electronics/ARM/_Library/u8x8_d_ssd1327.c ****   /* pixel_height = */ 96
 199:/Users/imashio/Electronics/ARM/_Library/u8x8_d_ssd1327.c **** };
 200:/Users/imashio/Electronics/ARM/_Library/u8x8_d_ssd1327.c **** 
 201:/Users/imashio/Electronics/ARM/_Library/u8x8_d_ssd1327.c **** /*  https://github.com/SeeedDocument/Grove_OLED_1.12/raw/master/resources/LY120-096096.pdf */
 202:/Users/imashio/Electronics/ARM/_Library/u8x8_d_ssd1327.c **** /*  http://www.seeedstudio.com/wiki/index.php?title=Twig_-_OLED_96x96 */
 203:/Users/imashio/Electronics/ARM/_Library/u8x8_d_ssd1327.c **** /* values from u8glib */
 204:/Users/imashio/Electronics/ARM/_Library/u8x8_d_ssd1327.c **** /*
 205:/Users/imashio/Electronics/ARM/_Library/u8x8_d_ssd1327.c ****   Re-map setting in Graphic Display Data RAM, command 0x0a0
 206:/Users/imashio/Electronics/ARM/_Library/u8x8_d_ssd1327.c ****     Bit 0: Column Address Re-map
 207:/Users/imashio/Electronics/ARM/_Library/u8x8_d_ssd1327.c ****     Bit 1: Nibble Re-map
 208:/Users/imashio/Electronics/ARM/_Library/u8x8_d_ssd1327.c ****     Bit 2: Horizontal/Vertical Address Increment
 209:/Users/imashio/Electronics/ARM/_Library/u8x8_d_ssd1327.c ****     Bit 3: Not used, must be 0
 210:/Users/imashio/Electronics/ARM/_Library/u8x8_d_ssd1327.c ****     
 211:/Users/imashio/Electronics/ARM/_Library/u8x8_d_ssd1327.c ****     Bit 4: COM Re-map
 212:/Users/imashio/Electronics/ARM/_Library/u8x8_d_ssd1327.c ****     Bit 5: Not used, must be 0
 213:/Users/imashio/Electronics/ARM/_Library/u8x8_d_ssd1327.c ****     Bit 6: COM Split Odd Even
 214:/Users/imashio/Electronics/ARM/_Library/u8x8_d_ssd1327.c ****     Bit 7: Not used, must be 0
 215:/Users/imashio/Electronics/ARM/_Library/u8x8_d_ssd1327.c **** */
 216:/Users/imashio/Electronics/ARM/_Library/u8x8_d_ssd1327.c **** 
 217:/Users/imashio/Electronics/ARM/_Library/u8x8_d_ssd1327.c **** 
 218:/Users/imashio/Electronics/ARM/_Library/u8x8_d_ssd1327.c **** static const uint8_t u8x8_d_ssd1327_96x96_init_seq[] = {
 219:/Users/imashio/Electronics/ARM/_Library/u8x8_d_ssd1327.c ****     
 220:/Users/imashio/Electronics/ARM/_Library/u8x8_d_ssd1327.c ****   U8X8_START_TRANSFER(),             	/* enable chip, delay is part of the transfer start */
 221:/Users/imashio/Electronics/ARM/_Library/u8x8_d_ssd1327.c ****   
 222:/Users/imashio/Electronics/ARM/_Library/u8x8_d_ssd1327.c ****   U8X8_CA(0x0fd, 0x012),		/* unlock display, usually not required because the display is unlocked a
 223:/Users/imashio/Electronics/ARM/_Library/u8x8_d_ssd1327.c ****   U8X8_C(0x0ae),		                /* display off */
 224:/Users/imashio/Electronics/ARM/_Library/u8x8_d_ssd1327.c ****   //U8X8_CA(0x0a8, 0x03f),		/* multiplex ratio: 0x03f * 1/64 duty */
 225:/Users/imashio/Electronics/ARM/_Library/u8x8_d_ssd1327.c ****   U8X8_CA(0x0a8, 0x05f),		/* multiplex ratio: 0x05f * 1/64 duty */
 226:/Users/imashio/Electronics/ARM/_Library/u8x8_d_ssd1327.c ****   U8X8_CA(0x0a1, 0x000),		/* display start line */
 227:/Users/imashio/Electronics/ARM/_Library/u8x8_d_ssd1327.c ****   //U8X8_CA(0x0a2, 0x04c),		/* display offset, shift mapping ram counter */
 228:/Users/imashio/Electronics/ARM/_Library/u8x8_d_ssd1327.c ****   
 229:/Users/imashio/Electronics/ARM/_Library/u8x8_d_ssd1327.c ****   U8X8_CA(0x0a2, 0x020),		/* display offset, shift mapping ram counter */
 230:/Users/imashio/Electronics/ARM/_Library/u8x8_d_ssd1327.c ****   U8X8_CA(0x0a0, 0x051),		/* remap configuration */
 231:/Users/imashio/Electronics/ARM/_Library/u8x8_d_ssd1327.c ****   
 232:/Users/imashio/Electronics/ARM/_Library/u8x8_d_ssd1327.c ****   
 233:/Users/imashio/Electronics/ARM/_Library/u8x8_d_ssd1327.c ****   U8X8_CA(0x0ab, 0x001),		/* Enable internal VDD regulator (RESET) */
 234:/Users/imashio/Electronics/ARM/_Library/u8x8_d_ssd1327.c ****   //U8X8_CA(0x081, 0x070),		/* contrast, brightness, 0..128 */
 235:/Users/imashio/Electronics/ARM/_Library/u8x8_d_ssd1327.c ****   U8X8_CA(0x081, 0x053),		/* contrast, brightness, 0..128 */
 236:/Users/imashio/Electronics/ARM/_Library/u8x8_d_ssd1327.c ****   //U8X8_CA(0x0b1, 0x055),                    /* phase length */
 237:/Users/imashio/Electronics/ARM/_Library/u8x8_d_ssd1327.c ****   U8X8_CA(0x0b1, 0x051),                    /* phase length */  
 238:/Users/imashio/Electronics/ARM/_Library/u8x8_d_ssd1327.c ****   //U8X8_CA(0x0b3, 0x091),		/* set display clock divide ratio/oscillator frequency (set clock as 13
 239:/Users/imashio/Electronics/ARM/_Library/u8x8_d_ssd1327.c ****   U8X8_CA(0x0b3, 0x001),		/* set display clock divide ratio/oscillator frequency  */			
 240:/Users/imashio/Electronics/ARM/_Library/u8x8_d_ssd1327.c ****   
 241:/Users/imashio/Electronics/ARM/_Library/u8x8_d_ssd1327.c ****   //? U8X8_CA(0x0ad, 0x002),		/* master configuration: disable embedded DC-DC, enable internal VCOM
 242:/Users/imashio/Electronics/ARM/_Library/u8x8_d_ssd1327.c ****   //? U8X8_C(0x086),				/* full current range (0x084, 0x085, 0x086) */
 243:/Users/imashio/Electronics/ARM/_Library/u8x8_d_ssd1327.c ****   
ARM GAS  /var/folders/v3/wysfpd052nz8jkbx04pk0ym80000gn/T//cchRAivb.s 			page 12


 244:/Users/imashio/Electronics/ARM/_Library/u8x8_d_ssd1327.c ****   U8X8_C(0x0b9),				/* use linear lookup table */
 245:/Users/imashio/Electronics/ARM/_Library/u8x8_d_ssd1327.c **** 
 246:/Users/imashio/Electronics/ARM/_Library/u8x8_d_ssd1327.c ****   //U8X8_CA(0x0bc, 0x010),                    /* pre-charge voltage level */
 247:/Users/imashio/Electronics/ARM/_Library/u8x8_d_ssd1327.c ****   U8X8_CA(0x0bc, 0x008),                    /* pre-charge voltage level */
 248:/Users/imashio/Electronics/ARM/_Library/u8x8_d_ssd1327.c ****   //U8X8_CA(0x0be, 0x01c),                     /* VCOMH voltage */
 249:/Users/imashio/Electronics/ARM/_Library/u8x8_d_ssd1327.c ****   U8X8_CA(0x0be, 0x007),                     /* VCOMH voltage */
 250:/Users/imashio/Electronics/ARM/_Library/u8x8_d_ssd1327.c ****   U8X8_CA(0x0b6, 0x001),		/* second precharge */
 251:/Users/imashio/Electronics/ARM/_Library/u8x8_d_ssd1327.c ****   U8X8_CA(0x0d5, 0x062),		/* enable second precharge, internal vsl (bit0 = 0) */
 252:/Users/imashio/Electronics/ARM/_Library/u8x8_d_ssd1327.c **** 
 253:/Users/imashio/Electronics/ARM/_Library/u8x8_d_ssd1327.c **** 
 254:/Users/imashio/Electronics/ARM/_Library/u8x8_d_ssd1327.c ****   
 255:/Users/imashio/Electronics/ARM/_Library/u8x8_d_ssd1327.c ****   U8X8_C(0x0a4),				/* normal display mode */
 256:/Users/imashio/Electronics/ARM/_Library/u8x8_d_ssd1327.c ****     
 257:/Users/imashio/Electronics/ARM/_Library/u8x8_d_ssd1327.c ****   U8X8_END_TRANSFER(),             	/* disable chip */
 258:/Users/imashio/Electronics/ARM/_Library/u8x8_d_ssd1327.c ****   U8X8_END()             			/* end of sequence */
 259:/Users/imashio/Electronics/ARM/_Library/u8x8_d_ssd1327.c **** };
 260:/Users/imashio/Electronics/ARM/_Library/u8x8_d_ssd1327.c **** 
 261:/Users/imashio/Electronics/ARM/_Library/u8x8_d_ssd1327.c **** 
 262:/Users/imashio/Electronics/ARM/_Library/u8x8_d_ssd1327.c **** static const uint8_t u8x8_d_ssd1327_seeed_96x96_flip0_seq[] = {
 263:/Users/imashio/Electronics/ARM/_Library/u8x8_d_ssd1327.c ****   U8X8_START_TRANSFER(),             	/* enable chip, delay is part of the transfer start */
 264:/Users/imashio/Electronics/ARM/_Library/u8x8_d_ssd1327.c ****   U8X8_CA(0x0a2, 0x020),		/* display offset, shift mapping ram counter */
 265:/Users/imashio/Electronics/ARM/_Library/u8x8_d_ssd1327.c ****   U8X8_CA(0x0a0, 0x051),		/* remap configuration */
 266:/Users/imashio/Electronics/ARM/_Library/u8x8_d_ssd1327.c ****   U8X8_END_TRANSFER(),             	/* disable chip */
 267:/Users/imashio/Electronics/ARM/_Library/u8x8_d_ssd1327.c ****   U8X8_END()             			/* end of sequence */
 268:/Users/imashio/Electronics/ARM/_Library/u8x8_d_ssd1327.c **** };
 269:/Users/imashio/Electronics/ARM/_Library/u8x8_d_ssd1327.c **** 
 270:/Users/imashio/Electronics/ARM/_Library/u8x8_d_ssd1327.c **** static const uint8_t u8x8_d_ssd1327_seeed_96x96_flip1_seq[] = {
 271:/Users/imashio/Electronics/ARM/_Library/u8x8_d_ssd1327.c ****   U8X8_START_TRANSFER(),             	/* enable chip, delay is part of the transfer start */
 272:/Users/imashio/Electronics/ARM/_Library/u8x8_d_ssd1327.c ****   U8X8_CA(0x0a2, 0x060),		/* display offset, shift mapping ram counter */
 273:/Users/imashio/Electronics/ARM/_Library/u8x8_d_ssd1327.c ****   U8X8_CA(0x0a0, 0x042),		/* remap configuration */
 274:/Users/imashio/Electronics/ARM/_Library/u8x8_d_ssd1327.c ****   U8X8_END_TRANSFER(),             	/* disable chip */
 275:/Users/imashio/Electronics/ARM/_Library/u8x8_d_ssd1327.c ****   U8X8_END()             			/* end of sequence */
 276:/Users/imashio/Electronics/ARM/_Library/u8x8_d_ssd1327.c **** };
 277:/Users/imashio/Electronics/ARM/_Library/u8x8_d_ssd1327.c **** 
 278:/Users/imashio/Electronics/ARM/_Library/u8x8_d_ssd1327.c **** 
 279:/Users/imashio/Electronics/ARM/_Library/u8x8_d_ssd1327.c **** uint8_t u8x8_d_ssd1327_seeed_96x96(u8x8_t *u8x8, uint8_t msg, uint8_t arg_int, void *arg_ptr)
 280:/Users/imashio/Electronics/ARM/_Library/u8x8_d_ssd1327.c **** {
 340              		.loc 1 280 0
 341              		.cfi_startproc
 342              		@ args = 0, pretend = 0, frame = 0
 343              		@ frame_needed = 0, uses_anonymous_args = 0
 344              	.LVL52:
 345 0000 70B5     		push	{r4, r5, r6, lr}
 346              	.LCFI11:
 347              		.cfi_def_cfa_offset 16
 348              		.cfi_offset 4, -16
 349              		.cfi_offset 5, -12
 350              		.cfi_offset 6, -8
 351              		.cfi_offset 14, -4
 352              		.loc 1 280 0
 353 0002 0546     		mov	r5, r0
 354 0004 0C46     		mov	r4, r1
 355 0006 1646     		mov	r6, r2
 281:/Users/imashio/Electronics/ARM/_Library/u8x8_d_ssd1327.c ****   if ( u8x8_d_ssd1327_96x96_generic(u8x8, msg, arg_int, arg_ptr) != 0 )
 356              		.loc 1 281 0
 357 0008 FFF7FEFF 		bl	u8x8_d_ssd1327_96x96_generic
 358              	.LVL53:
ARM GAS  /var/folders/v3/wysfpd052nz8jkbx04pk0ym80000gn/T//cchRAivb.s 			page 13


 359 000c 30B9     		cbnz	r0, .L33
 282:/Users/imashio/Electronics/ARM/_Library/u8x8_d_ssd1327.c ****     return 1;
 283:/Users/imashio/Electronics/ARM/_Library/u8x8_d_ssd1327.c ****   if ( msg == U8X8_MSG_DISPLAY_SETUP_MEMORY )
 360              		.loc 1 283 0
 361 000e 092C     		cmp	r4, #9
 362 0010 10D0     		beq	.L35
 284:/Users/imashio/Electronics/ARM/_Library/u8x8_d_ssd1327.c ****   {
 285:/Users/imashio/Electronics/ARM/_Library/u8x8_d_ssd1327.c ****     u8x8_d_helper_display_setup_memory(u8x8, &u8x8_ssd1327_96x96_display_info);
 286:/Users/imashio/Electronics/ARM/_Library/u8x8_d_ssd1327.c ****     return 1;
 287:/Users/imashio/Electronics/ARM/_Library/u8x8_d_ssd1327.c ****   }
 288:/Users/imashio/Electronics/ARM/_Library/u8x8_d_ssd1327.c ****   else if ( msg == U8X8_MSG_DISPLAY_INIT )
 363              		.loc 1 288 0
 364 0012 0A2C     		cmp	r4, #10
 365 0014 14D0     		beq	.L36
 289:/Users/imashio/Electronics/ARM/_Library/u8x8_d_ssd1327.c ****   {
 290:/Users/imashio/Electronics/ARM/_Library/u8x8_d_ssd1327.c ****     u8x8_d_helper_display_init(u8x8);
 291:/Users/imashio/Electronics/ARM/_Library/u8x8_d_ssd1327.c ****     u8x8_cad_SendSequence(u8x8, u8x8_d_ssd1327_96x96_init_seq);    
 292:/Users/imashio/Electronics/ARM/_Library/u8x8_d_ssd1327.c ****     return 1;
 293:/Users/imashio/Electronics/ARM/_Library/u8x8_d_ssd1327.c ****   }
 294:/Users/imashio/Electronics/ARM/_Library/u8x8_d_ssd1327.c ****   else if  ( msg == U8X8_MSG_DISPLAY_SET_FLIP_MODE )
 366              		.loc 1 294 0
 367 0016 0D2C     		cmp	r4, #13
 368 0018 02D0     		beq	.L37
 295:/Users/imashio/Electronics/ARM/_Library/u8x8_d_ssd1327.c ****   {
 296:/Users/imashio/Electronics/ARM/_Library/u8x8_d_ssd1327.c ****     if ( arg_int == 0 )
 297:/Users/imashio/Electronics/ARM/_Library/u8x8_d_ssd1327.c ****     {
 298:/Users/imashio/Electronics/ARM/_Library/u8x8_d_ssd1327.c ****       u8x8_cad_SendSequence(u8x8, u8x8_d_ssd1327_seeed_96x96_flip0_seq);
 299:/Users/imashio/Electronics/ARM/_Library/u8x8_d_ssd1327.c ****       u8x8->x_offset = u8x8->display_info->default_x_offset;
 300:/Users/imashio/Electronics/ARM/_Library/u8x8_d_ssd1327.c ****     }
 301:/Users/imashio/Electronics/ARM/_Library/u8x8_d_ssd1327.c ****     else
 302:/Users/imashio/Electronics/ARM/_Library/u8x8_d_ssd1327.c ****     {
 303:/Users/imashio/Electronics/ARM/_Library/u8x8_d_ssd1327.c ****       u8x8_cad_SendSequence(u8x8, u8x8_d_ssd1327_seeed_96x96_flip1_seq);
 304:/Users/imashio/Electronics/ARM/_Library/u8x8_d_ssd1327.c ****       u8x8->x_offset = u8x8->display_info->flipmode_x_offset;
 305:/Users/imashio/Electronics/ARM/_Library/u8x8_d_ssd1327.c ****     }
 306:/Users/imashio/Electronics/ARM/_Library/u8x8_d_ssd1327.c ****     return 1;
 307:/Users/imashio/Electronics/ARM/_Library/u8x8_d_ssd1327.c ****   }
 308:/Users/imashio/Electronics/ARM/_Library/u8x8_d_ssd1327.c ****   return 0;
 309:/Users/imashio/Electronics/ARM/_Library/u8x8_d_ssd1327.c **** }
 369              		.loc 1 309 0
 370 001a 70BD     		pop	{r4, r5, r6, pc}
 371              	.LVL54:
 372              	.L33:
 282:/Users/imashio/Electronics/ARM/_Library/u8x8_d_ssd1327.c ****   if ( msg == U8X8_MSG_DISPLAY_SETUP_MEMORY )
 373              		.loc 1 282 0
 374 001c 0120     		movs	r0, #1
 375              		.loc 1 309 0
 376 001e 70BD     		pop	{r4, r5, r6, pc}
 377              	.LVL55:
 378              	.L37:
 296:/Users/imashio/Electronics/ARM/_Library/u8x8_d_ssd1327.c ****     {
 379              		.loc 1 296 0
 380 0020 BEB1     		cbz	r6, .L38
 303:/Users/imashio/Electronics/ARM/_Library/u8x8_d_ssd1327.c ****       u8x8->x_offset = u8x8->display_info->flipmode_x_offset;
 381              		.loc 1 303 0
 382 0022 2846     		mov	r0, r5
 383 0024 0F49     		ldr	r1, .L39
 384 0026 FFF7FEFF 		bl	u8x8_cad_SendSequence
ARM GAS  /var/folders/v3/wysfpd052nz8jkbx04pk0ym80000gn/T//cchRAivb.s 			page 14


 385              	.LVL56:
 304:/Users/imashio/Electronics/ARM/_Library/u8x8_d_ssd1327.c ****     }
 386              		.loc 1 304 0
 387 002a 2B68     		ldr	r3, [r5]
 388 002c DB7C     		ldrb	r3, [r3, #19]	@ zero_extendqisi2
 389 002e AB77     		strb	r3, [r5, #30]
 306:/Users/imashio/Electronics/ARM/_Library/u8x8_d_ssd1327.c ****   }
 390              		.loc 1 306 0
 391 0030 0120     		movs	r0, #1
 392              		.loc 1 309 0
 393 0032 70BD     		pop	{r4, r5, r6, pc}
 394              	.LVL57:
 395              	.L35:
 285:/Users/imashio/Electronics/ARM/_Library/u8x8_d_ssd1327.c ****     return 1;
 396              		.loc 1 285 0
 397 0034 2846     		mov	r0, r5
 398 0036 0C49     		ldr	r1, .L39+4
 399 0038 FFF7FEFF 		bl	u8x8_d_helper_display_setup_memory
 400              	.LVL58:
 286:/Users/imashio/Electronics/ARM/_Library/u8x8_d_ssd1327.c ****   }
 401              		.loc 1 286 0
 402 003c 0120     		movs	r0, #1
 403              		.loc 1 309 0
 404 003e 70BD     		pop	{r4, r5, r6, pc}
 405              	.LVL59:
 406              	.L36:
 290:/Users/imashio/Electronics/ARM/_Library/u8x8_d_ssd1327.c ****     u8x8_cad_SendSequence(u8x8, u8x8_d_ssd1327_96x96_init_seq);    
 407              		.loc 1 290 0
 408 0040 2846     		mov	r0, r5
 409 0042 FFF7FEFF 		bl	u8x8_d_helper_display_init
 410              	.LVL60:
 291:/Users/imashio/Electronics/ARM/_Library/u8x8_d_ssd1327.c ****     return 1;
 411              		.loc 1 291 0
 412 0046 2846     		mov	r0, r5
 413 0048 0849     		ldr	r1, .L39+8
 414 004a FFF7FEFF 		bl	u8x8_cad_SendSequence
 415              	.LVL61:
 292:/Users/imashio/Electronics/ARM/_Library/u8x8_d_ssd1327.c ****   }
 416              		.loc 1 292 0
 417 004e 0120     		movs	r0, #1
 418              		.loc 1 309 0
 419 0050 70BD     		pop	{r4, r5, r6, pc}
 420              	.LVL62:
 421              	.L38:
 298:/Users/imashio/Electronics/ARM/_Library/u8x8_d_ssd1327.c ****       u8x8->x_offset = u8x8->display_info->default_x_offset;
 422              		.loc 1 298 0
 423 0052 2846     		mov	r0, r5
 424 0054 0649     		ldr	r1, .L39+12
 425 0056 FFF7FEFF 		bl	u8x8_cad_SendSequence
 426              	.LVL63:
 299:/Users/imashio/Electronics/ARM/_Library/u8x8_d_ssd1327.c ****     }
 427              		.loc 1 299 0
 428 005a 2B68     		ldr	r3, [r5]
 429 005c 9B7C     		ldrb	r3, [r3, #18]	@ zero_extendqisi2
 430 005e AB77     		strb	r3, [r5, #30]
 306:/Users/imashio/Electronics/ARM/_Library/u8x8_d_ssd1327.c ****   }
 431              		.loc 1 306 0
ARM GAS  /var/folders/v3/wysfpd052nz8jkbx04pk0ym80000gn/T//cchRAivb.s 			page 15


 432 0060 0120     		movs	r0, #1
 433              		.loc 1 309 0
 434 0062 70BD     		pop	{r4, r5, r6, pc}
 435              	.LVL64:
 436              	.L40:
 437              		.align	2
 438              	.L39:
 439 0064 00000000 		.word	.LANCHOR6
 440 0068 00000000 		.word	.LANCHOR3
 441 006c 00000000 		.word	.LANCHOR4
 442 0070 00000000 		.word	.LANCHOR5
 443              		.cfi_endproc
 444              	.LFE2:
 446              		.section	.text.u8x8_d_ssd1327_midas_128x128,"ax",%progbits
 447              		.align	1
 448              		.p2align 2,,3
 449              		.global	u8x8_d_ssd1327_midas_128x128
 450              		.syntax unified
 451              		.thumb
 452              		.thumb_func
 453              		.fpu fpv4-sp-d16
 455              	u8x8_d_ssd1327_midas_128x128:
 456              	.LFB3:
 310:/Users/imashio/Electronics/ARM/_Library/u8x8_d_ssd1327.c **** 
 311:/Users/imashio/Electronics/ARM/_Library/u8x8_d_ssd1327.c **** 
 312:/Users/imashio/Electronics/ARM/_Library/u8x8_d_ssd1327.c **** /*=============================================*/
 313:/Users/imashio/Electronics/ARM/_Library/u8x8_d_ssd1327.c **** /*  MIDAS MCOT128128C1V-YM 128x128 Module */
 314:/Users/imashio/Electronics/ARM/_Library/u8x8_d_ssd1327.c **** 
 315:/Users/imashio/Electronics/ARM/_Library/u8x8_d_ssd1327.c **** 
 316:/Users/imashio/Electronics/ARM/_Library/u8x8_d_ssd1327.c **** static const u8x8_display_info_t u8x8_ssd1327_128x128_display_info =
 317:/Users/imashio/Electronics/ARM/_Library/u8x8_d_ssd1327.c **** {
 318:/Users/imashio/Electronics/ARM/_Library/u8x8_d_ssd1327.c ****   /* chip_enable_level = */ 0,
 319:/Users/imashio/Electronics/ARM/_Library/u8x8_d_ssd1327.c ****   /* chip_disable_level = */ 1,
 320:/Users/imashio/Electronics/ARM/_Library/u8x8_d_ssd1327.c ****   
 321:/Users/imashio/Electronics/ARM/_Library/u8x8_d_ssd1327.c ****   /* post_chip_enable_wait_ns = */ 20,
 322:/Users/imashio/Electronics/ARM/_Library/u8x8_d_ssd1327.c ****   /* pre_chip_disable_wait_ns = */ 10,
 323:/Users/imashio/Electronics/ARM/_Library/u8x8_d_ssd1327.c ****   /* reset_pulse_width_ms = */ 100, 	
 324:/Users/imashio/Electronics/ARM/_Library/u8x8_d_ssd1327.c ****   /* post_reset_wait_ms = */ 100, 		/**/
 325:/Users/imashio/Electronics/ARM/_Library/u8x8_d_ssd1327.c ****   /* sda_setup_time_ns = */ 100,		/* */
 326:/Users/imashio/Electronics/ARM/_Library/u8x8_d_ssd1327.c ****   /* sck_pulse_width_ns = */ 100,	/*  */
 327:/Users/imashio/Electronics/ARM/_Library/u8x8_d_ssd1327.c ****   /* sck_clock_hz = */ 4000000UL,	/* since Arduino 1.6.0, the SPI bus speed in Hz. Should be  10000
 328:/Users/imashio/Electronics/ARM/_Library/u8x8_d_ssd1327.c ****   /* spi_mode = */ 0,		/* active high, rising edge */
 329:/Users/imashio/Electronics/ARM/_Library/u8x8_d_ssd1327.c ****   /* i2c_bus_clock_100kHz = */ 1,	/* use 1 instead of 4, because the SSD1327 seems to be very slow 
 330:/Users/imashio/Electronics/ARM/_Library/u8x8_d_ssd1327.c ****   /* data_setup_time_ns = */ 40,
 331:/Users/imashio/Electronics/ARM/_Library/u8x8_d_ssd1327.c ****   /* write_pulse_width_ns = */ 60,	
 332:/Users/imashio/Electronics/ARM/_Library/u8x8_d_ssd1327.c ****   /* tile_width = */ 16,
 333:/Users/imashio/Electronics/ARM/_Library/u8x8_d_ssd1327.c ****   /* tile_hight = */ 16,
 334:/Users/imashio/Electronics/ARM/_Library/u8x8_d_ssd1327.c ****   /* default_x_offset = */ 0,
 335:/Users/imashio/Electronics/ARM/_Library/u8x8_d_ssd1327.c ****   /* flipmode_x_offset = */ 0,		
 336:/Users/imashio/Electronics/ARM/_Library/u8x8_d_ssd1327.c ****   /* pixel_width = */ 128,
 337:/Users/imashio/Electronics/ARM/_Library/u8x8_d_ssd1327.c ****   /* pixel_height = */ 128
 338:/Users/imashio/Electronics/ARM/_Library/u8x8_d_ssd1327.c **** };
 339:/Users/imashio/Electronics/ARM/_Library/u8x8_d_ssd1327.c **** 
 340:/Users/imashio/Electronics/ARM/_Library/u8x8_d_ssd1327.c **** /*  https://github.com/SeeedDocument/Grove_OLED_1.12/raw/master/resources/LY120-096096.pdf */
 341:/Users/imashio/Electronics/ARM/_Library/u8x8_d_ssd1327.c **** /*  http://www.seeedstudio.com/wiki/index.php?title=Twig_-_OLED_96x96 */
 342:/Users/imashio/Electronics/ARM/_Library/u8x8_d_ssd1327.c **** /* values from u8glib */
 343:/Users/imashio/Electronics/ARM/_Library/u8x8_d_ssd1327.c **** /*
ARM GAS  /var/folders/v3/wysfpd052nz8jkbx04pk0ym80000gn/T//cchRAivb.s 			page 16


 344:/Users/imashio/Electronics/ARM/_Library/u8x8_d_ssd1327.c ****   Re-map setting in Graphic Display Data RAM, command 0x0a0
 345:/Users/imashio/Electronics/ARM/_Library/u8x8_d_ssd1327.c ****     Bit 0: Column Address Re-map
 346:/Users/imashio/Electronics/ARM/_Library/u8x8_d_ssd1327.c ****     Bit 1: Nibble Re-map
 347:/Users/imashio/Electronics/ARM/_Library/u8x8_d_ssd1327.c ****     Bit 2: Horizontal/Vertical Address Increment
 348:/Users/imashio/Electronics/ARM/_Library/u8x8_d_ssd1327.c ****     Bit 3: Not used, must be 0
 349:/Users/imashio/Electronics/ARM/_Library/u8x8_d_ssd1327.c ****     
 350:/Users/imashio/Electronics/ARM/_Library/u8x8_d_ssd1327.c ****     Bit 4: COM Re-map
 351:/Users/imashio/Electronics/ARM/_Library/u8x8_d_ssd1327.c ****     Bit 5: Not used, must be 0
 352:/Users/imashio/Electronics/ARM/_Library/u8x8_d_ssd1327.c ****     Bit 6: COM Split Odd Even
 353:/Users/imashio/Electronics/ARM/_Library/u8x8_d_ssd1327.c ****     Bit 7: Not used, must be 0
 354:/Users/imashio/Electronics/ARM/_Library/u8x8_d_ssd1327.c **** */
 355:/Users/imashio/Electronics/ARM/_Library/u8x8_d_ssd1327.c **** 
 356:/Users/imashio/Electronics/ARM/_Library/u8x8_d_ssd1327.c **** 
 357:/Users/imashio/Electronics/ARM/_Library/u8x8_d_ssd1327.c **** static const uint8_t u8x8_d_ssd1327_128x128_init_seq[] = {
 358:/Users/imashio/Electronics/ARM/_Library/u8x8_d_ssd1327.c ****     
 359:/Users/imashio/Electronics/ARM/_Library/u8x8_d_ssd1327.c ****   U8X8_START_TRANSFER(),             	/* enable chip, delay is part of the transfer start */
 360:/Users/imashio/Electronics/ARM/_Library/u8x8_d_ssd1327.c **** 
 361:/Users/imashio/Electronics/ARM/_Library/u8x8_d_ssd1327.c **** 	
 362:/Users/imashio/Electronics/ARM/_Library/u8x8_d_ssd1327.c ****   U8X8_CA(0x0fd, 0x012),		/* unlock display, usually not required because the display is unlocked a
 363:/Users/imashio/Electronics/ARM/_Library/u8x8_d_ssd1327.c ****   U8X8_C(0x0ae),		                /* display off */
 364:/Users/imashio/Electronics/ARM/_Library/u8x8_d_ssd1327.c ****   //U8X8_CA(0x0a8, 0x03f),		/* multiplex ratio: 0x03f * 1/64 duty */
 365:/Users/imashio/Electronics/ARM/_Library/u8x8_d_ssd1327.c ****   //U8X8_CA(0x0a8, 0x05f),		/* multiplex ratio: 0x05f * 1/64 duty */
 366:/Users/imashio/Electronics/ARM/_Library/u8x8_d_ssd1327.c ****   U8X8_CA(0x0a8, 0x07f),       		 /* multiplex ratio: 0x05f * 1/128duty */
 367:/Users/imashio/Electronics/ARM/_Library/u8x8_d_ssd1327.c ****   U8X8_CA(0x0a1, 0x000),		/* display start line */
 368:/Users/imashio/Electronics/ARM/_Library/u8x8_d_ssd1327.c ****   //U8X8_CA(0x0a2, 0x04c),		/* display offset, shift mapping ram counter */
 369:/Users/imashio/Electronics/ARM/_Library/u8x8_d_ssd1327.c ****   
 370:/Users/imashio/Electronics/ARM/_Library/u8x8_d_ssd1327.c ****   U8X8_CA(0x0a2, 0x000),		/* display offset, shift mapping ram counter */
 371:/Users/imashio/Electronics/ARM/_Library/u8x8_d_ssd1327.c ****   U8X8_CA(0x0a0, 0x051),		/* remap configuration */
 372:/Users/imashio/Electronics/ARM/_Library/u8x8_d_ssd1327.c ****   
 373:/Users/imashio/Electronics/ARM/_Library/u8x8_d_ssd1327.c ****   
 374:/Users/imashio/Electronics/ARM/_Library/u8x8_d_ssd1327.c ****   U8X8_CA(0x0ab, 0x001),		/* Enable internal VDD regulator (RESET) */
 375:/Users/imashio/Electronics/ARM/_Library/u8x8_d_ssd1327.c ****   //U8X8_CA(0x081, 0x070),		/* contrast, brightness, 0..128 */
 376:/Users/imashio/Electronics/ARM/_Library/u8x8_d_ssd1327.c ****   U8X8_CA(0x081, 0x053),		/* contrast, brightness, 0..128 */
 377:/Users/imashio/Electronics/ARM/_Library/u8x8_d_ssd1327.c ****   //U8X8_CA(0x0b1, 0x055),                    /* phase length */
 378:/Users/imashio/Electronics/ARM/_Library/u8x8_d_ssd1327.c ****   U8X8_CA(0x0b1, 0x051),                    /* phase length */  
 379:/Users/imashio/Electronics/ARM/_Library/u8x8_d_ssd1327.c ****   //U8X8_CA(0x0b3, 0x091),		/* set display clock divide ratio/oscillator frequency (set clock as 13
 380:/Users/imashio/Electronics/ARM/_Library/u8x8_d_ssd1327.c ****   U8X8_CA(0x0b3, 0x001),		/* set display clock divide ratio/oscillator frequency  */			
 381:/Users/imashio/Electronics/ARM/_Library/u8x8_d_ssd1327.c ****   
 382:/Users/imashio/Electronics/ARM/_Library/u8x8_d_ssd1327.c ****   //? U8X8_CA(0x0ad, 0x002),		/* master configuration: disable embedded DC-DC, enable internal VCOM
 383:/Users/imashio/Electronics/ARM/_Library/u8x8_d_ssd1327.c ****   //? U8X8_C(0x086),				/* full current range (0x084, 0x085, 0x086) */
 384:/Users/imashio/Electronics/ARM/_Library/u8x8_d_ssd1327.c ****   
 385:/Users/imashio/Electronics/ARM/_Library/u8x8_d_ssd1327.c ****   U8X8_C(0x0b9),				/* use linear lookup table */
 386:/Users/imashio/Electronics/ARM/_Library/u8x8_d_ssd1327.c **** 
 387:/Users/imashio/Electronics/ARM/_Library/u8x8_d_ssd1327.c ****   //U8X8_CA(0x0bc, 0x010),                    /* pre-charge voltage level */
 388:/Users/imashio/Electronics/ARM/_Library/u8x8_d_ssd1327.c ****   U8X8_CA(0x0bc, 0x008),                    /* pre-charge voltage level */
 389:/Users/imashio/Electronics/ARM/_Library/u8x8_d_ssd1327.c ****   //U8X8_CA(0x0be, 0x01c),                     /* VCOMH voltage */
 390:/Users/imashio/Electronics/ARM/_Library/u8x8_d_ssd1327.c ****   U8X8_CA(0x0be, 0x007),                     /* VCOMH voltage */
 391:/Users/imashio/Electronics/ARM/_Library/u8x8_d_ssd1327.c ****   U8X8_CA(0x0b6, 0x001),		/* second precharge */
 392:/Users/imashio/Electronics/ARM/_Library/u8x8_d_ssd1327.c ****   U8X8_CA(0x0d5, 0x062),		/* enable second precharge, internal vsl (bit0 = 0) */
 393:/Users/imashio/Electronics/ARM/_Library/u8x8_d_ssd1327.c **** 
 394:/Users/imashio/Electronics/ARM/_Library/u8x8_d_ssd1327.c **** 
 395:/Users/imashio/Electronics/ARM/_Library/u8x8_d_ssd1327.c ****   
 396:/Users/imashio/Electronics/ARM/_Library/u8x8_d_ssd1327.c ****   U8X8_C(0x0a4),				/* normal display mode */
 397:/Users/imashio/Electronics/ARM/_Library/u8x8_d_ssd1327.c ****     
 398:/Users/imashio/Electronics/ARM/_Library/u8x8_d_ssd1327.c ****   U8X8_END_TRANSFER(),             	/* disable chip */
 399:/Users/imashio/Electronics/ARM/_Library/u8x8_d_ssd1327.c ****   U8X8_END()             			/* end of sequence */
 400:/Users/imashio/Electronics/ARM/_Library/u8x8_d_ssd1327.c **** };
ARM GAS  /var/folders/v3/wysfpd052nz8jkbx04pk0ym80000gn/T//cchRAivb.s 			page 17


 401:/Users/imashio/Electronics/ARM/_Library/u8x8_d_ssd1327.c **** 
 402:/Users/imashio/Electronics/ARM/_Library/u8x8_d_ssd1327.c **** 
 403:/Users/imashio/Electronics/ARM/_Library/u8x8_d_ssd1327.c **** static const uint8_t u8x8_d_ssd1327_128x128_flip0_seq[] = {
 404:/Users/imashio/Electronics/ARM/_Library/u8x8_d_ssd1327.c ****   U8X8_START_TRANSFER(),             	/* enable chip, delay is part of the transfer start */
 405:/Users/imashio/Electronics/ARM/_Library/u8x8_d_ssd1327.c ****   U8X8_CA(0x0a2, 0x000),		/* display offset, shift mapping ram counter */
 406:/Users/imashio/Electronics/ARM/_Library/u8x8_d_ssd1327.c ****   U8X8_CA(0x0a0, 0x051),		/* remap configuration */
 407:/Users/imashio/Electronics/ARM/_Library/u8x8_d_ssd1327.c ****   U8X8_END_TRANSFER(),             	/* disable chip */
 408:/Users/imashio/Electronics/ARM/_Library/u8x8_d_ssd1327.c ****   U8X8_END()             			/* end of sequence */
 409:/Users/imashio/Electronics/ARM/_Library/u8x8_d_ssd1327.c **** };
 410:/Users/imashio/Electronics/ARM/_Library/u8x8_d_ssd1327.c **** 
 411:/Users/imashio/Electronics/ARM/_Library/u8x8_d_ssd1327.c **** static const uint8_t u8x8_d_ssd1327_128x128_flip1_seq[] = {
 412:/Users/imashio/Electronics/ARM/_Library/u8x8_d_ssd1327.c ****   U8X8_START_TRANSFER(),             	/* enable chip, delay is part of the transfer start */
 413:/Users/imashio/Electronics/ARM/_Library/u8x8_d_ssd1327.c ****   U8X8_CA(0x0a2, 0x000),		/* display offset, shift mapping ram counter */
 414:/Users/imashio/Electronics/ARM/_Library/u8x8_d_ssd1327.c ****   U8X8_CA(0x0a0, 0x042),		/* remap configuration */
 415:/Users/imashio/Electronics/ARM/_Library/u8x8_d_ssd1327.c ****   U8X8_END_TRANSFER(),             	/* disable chip */
 416:/Users/imashio/Electronics/ARM/_Library/u8x8_d_ssd1327.c ****   U8X8_END()             			/* end of sequence */
 417:/Users/imashio/Electronics/ARM/_Library/u8x8_d_ssd1327.c **** };
 418:/Users/imashio/Electronics/ARM/_Library/u8x8_d_ssd1327.c **** 
 419:/Users/imashio/Electronics/ARM/_Library/u8x8_d_ssd1327.c **** 
 420:/Users/imashio/Electronics/ARM/_Library/u8x8_d_ssd1327.c **** uint8_t u8x8_d_ssd1327_midas_128x128(u8x8_t *u8x8, uint8_t msg, uint8_t arg_int, void *arg_ptr)
 421:/Users/imashio/Electronics/ARM/_Library/u8x8_d_ssd1327.c **** {
 457              		.loc 1 421 0
 458              		.cfi_startproc
 459              		@ args = 0, pretend = 0, frame = 0
 460              		@ frame_needed = 0, uses_anonymous_args = 0
 461              	.LVL65:
 462 0000 70B5     		push	{r4, r5, r6, lr}
 463              	.LCFI12:
 464              		.cfi_def_cfa_offset 16
 465              		.cfi_offset 4, -16
 466              		.cfi_offset 5, -12
 467              		.cfi_offset 6, -8
 468              		.cfi_offset 14, -4
 469              		.loc 1 421 0
 470 0002 0546     		mov	r5, r0
 471 0004 0C46     		mov	r4, r1
 472 0006 1646     		mov	r6, r2
 422:/Users/imashio/Electronics/ARM/_Library/u8x8_d_ssd1327.c ****   /* call the 96x96 procedure at the moment */
 423:/Users/imashio/Electronics/ARM/_Library/u8x8_d_ssd1327.c ****   if ( u8x8_d_ssd1327_96x96_generic(u8x8, msg, arg_int, arg_ptr) != 0 )
 473              		.loc 1 423 0
 474 0008 FFF7FEFF 		bl	u8x8_d_ssd1327_96x96_generic
 475              	.LVL66:
 476 000c 30B9     		cbnz	r0, .L46
 424:/Users/imashio/Electronics/ARM/_Library/u8x8_d_ssd1327.c ****     return 1;
 425:/Users/imashio/Electronics/ARM/_Library/u8x8_d_ssd1327.c ****   if ( msg == U8X8_MSG_DISPLAY_SETUP_MEMORY )
 477              		.loc 1 425 0
 478 000e 092C     		cmp	r4, #9
 479 0010 10D0     		beq	.L48
 426:/Users/imashio/Electronics/ARM/_Library/u8x8_d_ssd1327.c ****   {
 427:/Users/imashio/Electronics/ARM/_Library/u8x8_d_ssd1327.c ****     u8x8_d_helper_display_setup_memory(u8x8, &u8x8_ssd1327_128x128_display_info);
 428:/Users/imashio/Electronics/ARM/_Library/u8x8_d_ssd1327.c ****     return 1;
 429:/Users/imashio/Electronics/ARM/_Library/u8x8_d_ssd1327.c ****   }
 430:/Users/imashio/Electronics/ARM/_Library/u8x8_d_ssd1327.c ****   else if ( msg == U8X8_MSG_DISPLAY_INIT )
 480              		.loc 1 430 0
 481 0012 0A2C     		cmp	r4, #10
 482 0014 14D0     		beq	.L49
 431:/Users/imashio/Electronics/ARM/_Library/u8x8_d_ssd1327.c ****   {
ARM GAS  /var/folders/v3/wysfpd052nz8jkbx04pk0ym80000gn/T//cchRAivb.s 			page 18


 432:/Users/imashio/Electronics/ARM/_Library/u8x8_d_ssd1327.c ****     u8x8_d_helper_display_init(u8x8);
 433:/Users/imashio/Electronics/ARM/_Library/u8x8_d_ssd1327.c ****     u8x8_cad_SendSequence(u8x8, u8x8_d_ssd1327_128x128_init_seq); 
 434:/Users/imashio/Electronics/ARM/_Library/u8x8_d_ssd1327.c ****     return 1;
 435:/Users/imashio/Electronics/ARM/_Library/u8x8_d_ssd1327.c ****   }
 436:/Users/imashio/Electronics/ARM/_Library/u8x8_d_ssd1327.c ****   else if  ( msg == U8X8_MSG_DISPLAY_SET_FLIP_MODE )
 483              		.loc 1 436 0
 484 0016 0D2C     		cmp	r4, #13
 485 0018 02D0     		beq	.L50
 437:/Users/imashio/Electronics/ARM/_Library/u8x8_d_ssd1327.c ****   {
 438:/Users/imashio/Electronics/ARM/_Library/u8x8_d_ssd1327.c ****     if ( arg_int == 0 )
 439:/Users/imashio/Electronics/ARM/_Library/u8x8_d_ssd1327.c ****     {
 440:/Users/imashio/Electronics/ARM/_Library/u8x8_d_ssd1327.c ****       u8x8_cad_SendSequence(u8x8, u8x8_d_ssd1327_128x128_flip0_seq);
 441:/Users/imashio/Electronics/ARM/_Library/u8x8_d_ssd1327.c ****       u8x8->x_offset = u8x8->display_info->default_x_offset;
 442:/Users/imashio/Electronics/ARM/_Library/u8x8_d_ssd1327.c ****     }
 443:/Users/imashio/Electronics/ARM/_Library/u8x8_d_ssd1327.c ****     else
 444:/Users/imashio/Electronics/ARM/_Library/u8x8_d_ssd1327.c ****     {
 445:/Users/imashio/Electronics/ARM/_Library/u8x8_d_ssd1327.c ****       u8x8_cad_SendSequence(u8x8, u8x8_d_ssd1327_128x128_flip1_seq);
 446:/Users/imashio/Electronics/ARM/_Library/u8x8_d_ssd1327.c ****       u8x8->x_offset = u8x8->display_info->flipmode_x_offset;
 447:/Users/imashio/Electronics/ARM/_Library/u8x8_d_ssd1327.c ****     }
 448:/Users/imashio/Electronics/ARM/_Library/u8x8_d_ssd1327.c ****     return 1;
 449:/Users/imashio/Electronics/ARM/_Library/u8x8_d_ssd1327.c ****   }
 450:/Users/imashio/Electronics/ARM/_Library/u8x8_d_ssd1327.c ****   return 0;
 451:/Users/imashio/Electronics/ARM/_Library/u8x8_d_ssd1327.c **** }
 486              		.loc 1 451 0
 487 001a 70BD     		pop	{r4, r5, r6, pc}
 488              	.LVL67:
 489              	.L46:
 424:/Users/imashio/Electronics/ARM/_Library/u8x8_d_ssd1327.c ****   if ( msg == U8X8_MSG_DISPLAY_SETUP_MEMORY )
 490              		.loc 1 424 0
 491 001c 0120     		movs	r0, #1
 492              		.loc 1 451 0
 493 001e 70BD     		pop	{r4, r5, r6, pc}
 494              	.LVL68:
 495              	.L50:
 438:/Users/imashio/Electronics/ARM/_Library/u8x8_d_ssd1327.c ****     {
 496              		.loc 1 438 0
 497 0020 BEB1     		cbz	r6, .L51
 445:/Users/imashio/Electronics/ARM/_Library/u8x8_d_ssd1327.c ****       u8x8->x_offset = u8x8->display_info->flipmode_x_offset;
 498              		.loc 1 445 0
 499 0022 2846     		mov	r0, r5
 500 0024 0F49     		ldr	r1, .L52
 501 0026 FFF7FEFF 		bl	u8x8_cad_SendSequence
 502              	.LVL69:
 446:/Users/imashio/Electronics/ARM/_Library/u8x8_d_ssd1327.c ****     }
 503              		.loc 1 446 0
 504 002a 2B68     		ldr	r3, [r5]
 505 002c DB7C     		ldrb	r3, [r3, #19]	@ zero_extendqisi2
 506 002e AB77     		strb	r3, [r5, #30]
 448:/Users/imashio/Electronics/ARM/_Library/u8x8_d_ssd1327.c ****   }
 507              		.loc 1 448 0
 508 0030 0120     		movs	r0, #1
 509              		.loc 1 451 0
 510 0032 70BD     		pop	{r4, r5, r6, pc}
 511              	.LVL70:
 512              	.L48:
 427:/Users/imashio/Electronics/ARM/_Library/u8x8_d_ssd1327.c ****     return 1;
 513              		.loc 1 427 0
ARM GAS  /var/folders/v3/wysfpd052nz8jkbx04pk0ym80000gn/T//cchRAivb.s 			page 19


 514 0034 2846     		mov	r0, r5
 515 0036 0C49     		ldr	r1, .L52+4
 516 0038 FFF7FEFF 		bl	u8x8_d_helper_display_setup_memory
 517              	.LVL71:
 428:/Users/imashio/Electronics/ARM/_Library/u8x8_d_ssd1327.c ****   }
 518              		.loc 1 428 0
 519 003c 0120     		movs	r0, #1
 520              		.loc 1 451 0
 521 003e 70BD     		pop	{r4, r5, r6, pc}
 522              	.LVL72:
 523              	.L49:
 432:/Users/imashio/Electronics/ARM/_Library/u8x8_d_ssd1327.c ****     u8x8_cad_SendSequence(u8x8, u8x8_d_ssd1327_128x128_init_seq); 
 524              		.loc 1 432 0
 525 0040 2846     		mov	r0, r5
 526 0042 FFF7FEFF 		bl	u8x8_d_helper_display_init
 527              	.LVL73:
 433:/Users/imashio/Electronics/ARM/_Library/u8x8_d_ssd1327.c ****     return 1;
 528              		.loc 1 433 0
 529 0046 2846     		mov	r0, r5
 530 0048 0849     		ldr	r1, .L52+8
 531 004a FFF7FEFF 		bl	u8x8_cad_SendSequence
 532              	.LVL74:
 434:/Users/imashio/Electronics/ARM/_Library/u8x8_d_ssd1327.c ****   }
 533              		.loc 1 434 0
 534 004e 0120     		movs	r0, #1
 535              		.loc 1 451 0
 536 0050 70BD     		pop	{r4, r5, r6, pc}
 537              	.LVL75:
 538              	.L51:
 440:/Users/imashio/Electronics/ARM/_Library/u8x8_d_ssd1327.c ****       u8x8->x_offset = u8x8->display_info->default_x_offset;
 539              		.loc 1 440 0
 540 0052 2846     		mov	r0, r5
 541 0054 0649     		ldr	r1, .L52+12
 542 0056 FFF7FEFF 		bl	u8x8_cad_SendSequence
 543              	.LVL76:
 441:/Users/imashio/Electronics/ARM/_Library/u8x8_d_ssd1327.c ****     }
 544              		.loc 1 441 0
 545 005a 2B68     		ldr	r3, [r5]
 546 005c 9B7C     		ldrb	r3, [r3, #18]	@ zero_extendqisi2
 547 005e AB77     		strb	r3, [r5, #30]
 448:/Users/imashio/Electronics/ARM/_Library/u8x8_d_ssd1327.c ****   }
 548              		.loc 1 448 0
 549 0060 0120     		movs	r0, #1
 550              		.loc 1 451 0
 551 0062 70BD     		pop	{r4, r5, r6, pc}
 552              	.LVL77:
 553              	.L53:
 554              		.align	2
 555              	.L52:
 556 0064 00000000 		.word	.LANCHOR10
 557 0068 00000000 		.word	.LANCHOR7
 558 006c 00000000 		.word	.LANCHOR8
 559 0070 00000000 		.word	.LANCHOR9
 560              		.cfi_endproc
 561              	.LFE3:
 563              		.section	.bss.u8x8_ssd1327_8to32_dest_buf,"aw",%nobits
 564              		.align	2
ARM GAS  /var/folders/v3/wysfpd052nz8jkbx04pk0ym80000gn/T//cchRAivb.s 			page 20


 565              		.set	.LANCHOR2,. + 0
 568              	u8x8_ssd1327_8to32_dest_buf:
 569 0000 00000000 		.space	32
 569      00000000 
 569      00000000 
 569      00000000 
 569      00000000 
 570              		.section	.rodata.u8x8_d_ssd1327_128x128_flip0_seq,"a",%progbits
 571              		.align	2
 572              		.set	.LANCHOR9,. + 0
 575              	u8x8_d_ssd1327_128x128_flip0_seq:
 576 0000 18       		.byte	24
 577 0001 15       		.byte	21
 578 0002 A2       		.byte	-94
 579 0003 16       		.byte	22
 580 0004 00       		.byte	0
 581 0005 15       		.byte	21
 582 0006 A0       		.byte	-96
 583 0007 16       		.byte	22
 584 0008 51       		.byte	81
 585 0009 19       		.byte	25
 586 000a FF       		.byte	-1
 587              		.section	.rodata.u8x8_d_ssd1327_128x128_flip1_seq,"a",%progbits
 588              		.align	2
 589              		.set	.LANCHOR10,. + 0
 592              	u8x8_d_ssd1327_128x128_flip1_seq:
 593 0000 18       		.byte	24
 594 0001 15       		.byte	21
 595 0002 A2       		.byte	-94
 596 0003 16       		.byte	22
 597 0004 00       		.byte	0
 598 0005 15       		.byte	21
 599 0006 A0       		.byte	-96
 600 0007 16       		.byte	22
 601 0008 42       		.byte	66
 602 0009 19       		.byte	25
 603 000a FF       		.byte	-1
 604              		.section	.rodata.u8x8_d_ssd1327_128x128_init_seq,"a",%progbits
 605              		.align	2
 606              		.set	.LANCHOR8,. + 0
 609              	u8x8_d_ssd1327_128x128_init_seq:
 610 0000 18       		.byte	24
 611 0001 15       		.byte	21
 612 0002 FD       		.byte	-3
 613 0003 16       		.byte	22
 614 0004 12       		.byte	18
 615 0005 15       		.byte	21
 616 0006 AE       		.byte	-82
 617 0007 15       		.byte	21
 618 0008 A8       		.byte	-88
 619 0009 16       		.byte	22
 620 000a 7F       		.byte	127
 621 000b 15       		.byte	21
 622 000c A1       		.byte	-95
 623 000d 16       		.byte	22
 624 000e 00       		.byte	0
 625 000f 15       		.byte	21
ARM GAS  /var/folders/v3/wysfpd052nz8jkbx04pk0ym80000gn/T//cchRAivb.s 			page 21


 626 0010 A2       		.byte	-94
 627 0011 16       		.byte	22
 628 0012 00       		.byte	0
 629 0013 15       		.byte	21
 630 0014 A0       		.byte	-96
 631 0015 16       		.byte	22
 632 0016 51       		.byte	81
 633 0017 15       		.byte	21
 634 0018 AB       		.byte	-85
 635 0019 16       		.byte	22
 636 001a 01       		.byte	1
 637 001b 15       		.byte	21
 638 001c 81       		.byte	-127
 639 001d 16       		.byte	22
 640 001e 53       		.byte	83
 641 001f 15       		.byte	21
 642 0020 B1       		.byte	-79
 643 0021 16       		.byte	22
 644 0022 51       		.byte	81
 645 0023 15       		.byte	21
 646 0024 B3       		.byte	-77
 647 0025 16       		.byte	22
 648 0026 01       		.byte	1
 649 0027 15       		.byte	21
 650 0028 B9       		.byte	-71
 651 0029 15       		.byte	21
 652 002a BC       		.byte	-68
 653 002b 16       		.byte	22
 654 002c 08       		.byte	8
 655 002d 15       		.byte	21
 656 002e BE       		.byte	-66
 657 002f 16       		.byte	22
 658 0030 07       		.byte	7
 659 0031 15       		.byte	21
 660 0032 B6       		.byte	-74
 661 0033 16       		.byte	22
 662 0034 01       		.byte	1
 663 0035 15       		.byte	21
 664 0036 D5       		.byte	-43
 665 0037 16       		.byte	22
 666 0038 62       		.byte	98
 667 0039 15       		.byte	21
 668 003a A4       		.byte	-92
 669 003b 19       		.byte	25
 670 003c FF       		.byte	-1
 671              		.section	.rodata.u8x8_d_ssd1327_96x96_init_seq,"a",%progbits
 672              		.align	2
 673              		.set	.LANCHOR4,. + 0
 676              	u8x8_d_ssd1327_96x96_init_seq:
 677 0000 18       		.byte	24
 678 0001 15       		.byte	21
 679 0002 FD       		.byte	-3
 680 0003 16       		.byte	22
 681 0004 12       		.byte	18
 682 0005 15       		.byte	21
 683 0006 AE       		.byte	-82
 684 0007 15       		.byte	21
ARM GAS  /var/folders/v3/wysfpd052nz8jkbx04pk0ym80000gn/T//cchRAivb.s 			page 22


 685 0008 A8       		.byte	-88
 686 0009 16       		.byte	22
 687 000a 5F       		.byte	95
 688 000b 15       		.byte	21
 689 000c A1       		.byte	-95
 690 000d 16       		.byte	22
 691 000e 00       		.byte	0
 692 000f 15       		.byte	21
 693 0010 A2       		.byte	-94
 694 0011 16       		.byte	22
 695 0012 20       		.byte	32
 696 0013 15       		.byte	21
 697 0014 A0       		.byte	-96
 698 0015 16       		.byte	22
 699 0016 51       		.byte	81
 700 0017 15       		.byte	21
 701 0018 AB       		.byte	-85
 702 0019 16       		.byte	22
 703 001a 01       		.byte	1
 704 001b 15       		.byte	21
 705 001c 81       		.byte	-127
 706 001d 16       		.byte	22
 707 001e 53       		.byte	83
 708 001f 15       		.byte	21
 709 0020 B1       		.byte	-79
 710 0021 16       		.byte	22
 711 0022 51       		.byte	81
 712 0023 15       		.byte	21
 713 0024 B3       		.byte	-77
 714 0025 16       		.byte	22
 715 0026 01       		.byte	1
 716 0027 15       		.byte	21
 717 0028 B9       		.byte	-71
 718 0029 15       		.byte	21
 719 002a BC       		.byte	-68
 720 002b 16       		.byte	22
 721 002c 08       		.byte	8
 722 002d 15       		.byte	21
 723 002e BE       		.byte	-66
 724 002f 16       		.byte	22
 725 0030 07       		.byte	7
 726 0031 15       		.byte	21
 727 0032 B6       		.byte	-74
 728 0033 16       		.byte	22
 729 0034 01       		.byte	1
 730 0035 15       		.byte	21
 731 0036 D5       		.byte	-43
 732 0037 16       		.byte	22
 733 0038 62       		.byte	98
 734 0039 15       		.byte	21
 735 003a A4       		.byte	-92
 736 003b 19       		.byte	25
 737 003c FF       		.byte	-1
 738              		.section	.rodata.u8x8_d_ssd1327_96x96_powersave0_seq,"a",%progbits
 739              		.align	2
 740              		.set	.LANCHOR0,. + 0
 743              	u8x8_d_ssd1327_96x96_powersave0_seq:
ARM GAS  /var/folders/v3/wysfpd052nz8jkbx04pk0ym80000gn/T//cchRAivb.s 			page 23


 744 0000 18       		.byte	24
 745 0001 15       		.byte	21
 746 0002 AF       		.byte	-81
 747 0003 19       		.byte	25
 748 0004 FF       		.byte	-1
 749              		.section	.rodata.u8x8_d_ssd1327_96x96_powersave1_seq,"a",%progbits
 750              		.align	2
 751              		.set	.LANCHOR1,. + 0
 754              	u8x8_d_ssd1327_96x96_powersave1_seq:
 755 0000 18       		.byte	24
 756 0001 15       		.byte	21
 757 0002 AE       		.byte	-82
 758 0003 19       		.byte	25
 759 0004 FF       		.byte	-1
 760              		.section	.rodata.u8x8_d_ssd1327_seeed_96x96_flip0_seq,"a",%progbits
 761              		.align	2
 762              		.set	.LANCHOR5,. + 0
 765              	u8x8_d_ssd1327_seeed_96x96_flip0_seq:
 766 0000 18       		.byte	24
 767 0001 15       		.byte	21
 768 0002 A2       		.byte	-94
 769 0003 16       		.byte	22
 770 0004 20       		.byte	32
 771 0005 15       		.byte	21
 772 0006 A0       		.byte	-96
 773 0007 16       		.byte	22
 774 0008 51       		.byte	81
 775 0009 19       		.byte	25
 776 000a FF       		.byte	-1
 777              		.section	.rodata.u8x8_d_ssd1327_seeed_96x96_flip1_seq,"a",%progbits
 778              		.align	2
 779              		.set	.LANCHOR6,. + 0
 782              	u8x8_d_ssd1327_seeed_96x96_flip1_seq:
 783 0000 18       		.byte	24
 784 0001 15       		.byte	21
 785 0002 A2       		.byte	-94
 786 0003 16       		.byte	22
 787 0004 60       		.byte	96
 788 0005 15       		.byte	21
 789 0006 A0       		.byte	-96
 790 0007 16       		.byte	22
 791 0008 42       		.byte	66
 792 0009 19       		.byte	25
 793 000a FF       		.byte	-1
 794              		.section	.rodata.u8x8_ssd1327_128x128_display_info,"a",%progbits
 795              		.align	2
 796              		.set	.LANCHOR7,. + 0
 799              	u8x8_ssd1327_128x128_display_info:
 800 0000 00       		.byte	0
 801 0001 01       		.byte	1
 802 0002 14       		.byte	20
 803 0003 0A       		.byte	10
 804 0004 64       		.byte	100
 805 0005 64       		.byte	100
 806 0006 64       		.byte	100
 807 0007 64       		.byte	100
 808 0008 00093D00 		.word	4000000
ARM GAS  /var/folders/v3/wysfpd052nz8jkbx04pk0ym80000gn/T//cchRAivb.s 			page 24


 809 000c 00       		.byte	0
 810 000d 01       		.byte	1
 811 000e 28       		.byte	40
 812 000f 3C       		.byte	60
 813 0010 10       		.byte	16
 814 0011 10       		.byte	16
 815 0012 00       		.byte	0
 816 0013 00       		.byte	0
 817 0014 8000     		.short	128
 818 0016 8000     		.short	128
 819              		.section	.rodata.u8x8_ssd1327_96x96_display_info,"a",%progbits
 820              		.align	2
 821              		.set	.LANCHOR3,. + 0
 824              	u8x8_ssd1327_96x96_display_info:
 825 0000 00       		.byte	0
 826 0001 01       		.byte	1
 827 0002 14       		.byte	20
 828 0003 0A       		.byte	10
 829 0004 64       		.byte	100
 830 0005 64       		.byte	100
 831 0006 64       		.byte	100
 832 0007 64       		.byte	100
 833 0008 00093D00 		.word	4000000
 834 000c 00       		.byte	0
 835 000d 01       		.byte	1
 836 000e 28       		.byte	40
 837 000f 3C       		.byte	60
 838 0010 0C       		.byte	12
 839 0011 0C       		.byte	12
 840 0012 10       		.byte	16
 841 0013 10       		.byte	16
 842 0014 6000     		.short	96
 843 0016 6000     		.short	96
 844              		.text
 845              	.Letext0:
 846              		.file 2 "/usr/local/gcc-arm-none-eabi-7-2018-q2-update/arm-none-eabi/include/machine/_default_type
 847              		.file 3 "/usr/local/gcc-arm-none-eabi-7-2018-q2-update/arm-none-eabi/include/sys/_stdint.h"
 848              		.file 4 "/Users/imashio/Electronics/ARM/_Library/u8x8.h"
ARM GAS  /var/folders/v3/wysfpd052nz8jkbx04pk0ym80000gn/T//cchRAivb.s 			page 25

