ARM GAS  /var/folders/v3/wysfpd052nz8jkbx04pk0ym80000gn/T//ccCWh5Ad.s 			page 1


   1              		.cpu cortex-m4
   2              		.eabi_attribute 27, 1
   3              		.eabi_attribute 28, 1
   4              		.eabi_attribute 20, 1
   5              		.eabi_attribute 21, 1
   6              		.eabi_attribute 23, 3
   7              		.eabi_attribute 24, 1
   8              		.eabi_attribute 25, 1
   9              		.eabi_attribute 26, 1
  10              		.eabi_attribute 30, 2
  11              		.eabi_attribute 34, 1
  12              		.eabi_attribute 18, 4
  13              		.file	"u8x8_d_stdio.c"
  14              		.text
  15              	.Ltext0:
  16              		.cfi_sections	.debug_frame
  17              		.section	.text.bitmap_place_tile,"ax",%progbits
  18              		.align	1
  19              		.p2align 2,,3
  20              		.global	bitmap_place_tile
  21              		.syntax unified
  22              		.thumb
  23              		.thumb_func
  24              		.fpu fpv4-sp-d16
  26              	bitmap_place_tile:
  27              	.LFB3:
  28              		.file 1 "/Users/imashio/Electronics/ARM/_Library/u8x8_d_stdio.c"
   1:/Users/imashio/Electronics/ARM/_Library/u8x8_d_stdio.c **** /*
   2:/Users/imashio/Electronics/ARM/_Library/u8x8_d_stdio.c **** 
   3:/Users/imashio/Electronics/ARM/_Library/u8x8_d_stdio.c ****   u8x8_d_stdio.c
   4:/Users/imashio/Electronics/ARM/_Library/u8x8_d_stdio.c **** 
   5:/Users/imashio/Electronics/ARM/_Library/u8x8_d_stdio.c ****   Universal 8bit Graphics Library (https://github.com/olikraus/u8g2/)
   6:/Users/imashio/Electronics/ARM/_Library/u8x8_d_stdio.c **** 
   7:/Users/imashio/Electronics/ARM/_Library/u8x8_d_stdio.c ****   Copyright (c) 2016, olikraus@gmail.com
   8:/Users/imashio/Electronics/ARM/_Library/u8x8_d_stdio.c ****   All rights reserved.
   9:/Users/imashio/Electronics/ARM/_Library/u8x8_d_stdio.c **** 
  10:/Users/imashio/Electronics/ARM/_Library/u8x8_d_stdio.c ****   Redistribution and use in source and binary forms, with or without modification, 
  11:/Users/imashio/Electronics/ARM/_Library/u8x8_d_stdio.c ****   are permitted provided that the following conditions are met:
  12:/Users/imashio/Electronics/ARM/_Library/u8x8_d_stdio.c **** 
  13:/Users/imashio/Electronics/ARM/_Library/u8x8_d_stdio.c ****   * Redistributions of source code must retain the above copyright notice, this list 
  14:/Users/imashio/Electronics/ARM/_Library/u8x8_d_stdio.c ****     of conditions and the following disclaimer.
  15:/Users/imashio/Electronics/ARM/_Library/u8x8_d_stdio.c ****     
  16:/Users/imashio/Electronics/ARM/_Library/u8x8_d_stdio.c ****   * Redistributions in binary form must reproduce the above copyright notice, this 
  17:/Users/imashio/Electronics/ARM/_Library/u8x8_d_stdio.c ****     list of conditions and the following disclaimer in the documentation and/or other 
  18:/Users/imashio/Electronics/ARM/_Library/u8x8_d_stdio.c ****     materials provided with the distribution.
  19:/Users/imashio/Electronics/ARM/_Library/u8x8_d_stdio.c **** 
  20:/Users/imashio/Electronics/ARM/_Library/u8x8_d_stdio.c ****   THIS SOFTWARE IS PROVIDED BY THE COPYRIGHT HOLDERS AND 
  21:/Users/imashio/Electronics/ARM/_Library/u8x8_d_stdio.c ****   CONTRIBUTORS "AS IS" AND ANY EXPRESS OR IMPLIED WARRANTIES, 
  22:/Users/imashio/Electronics/ARM/_Library/u8x8_d_stdio.c ****   INCLUDING, BUT NOT LIMITED TO, THE IMPLIED WARRANTIES OF 
  23:/Users/imashio/Electronics/ARM/_Library/u8x8_d_stdio.c ****   MERCHANTABILITY AND FITNESS FOR A PARTICULAR PURPOSE ARE 
  24:/Users/imashio/Electronics/ARM/_Library/u8x8_d_stdio.c ****   DISCLAIMED. IN NO EVENT SHALL THE COPYRIGHT HOLDER OR 
  25:/Users/imashio/Electronics/ARM/_Library/u8x8_d_stdio.c ****   CONTRIBUTORS BE LIABLE FOR ANY DIRECT, INDIRECT, INCIDENTAL, 
  26:/Users/imashio/Electronics/ARM/_Library/u8x8_d_stdio.c ****   SPECIAL, EXEMPLARY, OR CONSEQUENTIAL DAMAGES (INCLUDING, BUT 
  27:/Users/imashio/Electronics/ARM/_Library/u8x8_d_stdio.c ****   NOT LIMITED TO, PROCUREMENT OF SUBSTITUTE GOODS OR SERVICES; 
  28:/Users/imashio/Electronics/ARM/_Library/u8x8_d_stdio.c ****   LOSS OF USE, DATA, OR PROFITS; OR BUSINESS INTERRUPTION) HOWEVER 
  29:/Users/imashio/Electronics/ARM/_Library/u8x8_d_stdio.c ****   CAUSED AND ON ANY THEORY OF LIABILITY, WHETHER IN CONTRACT, 
  30:/Users/imashio/Electronics/ARM/_Library/u8x8_d_stdio.c ****   STRICT LIABILITY, OR TORT (INCLUDING NEGLIGENCE OR OTHERWISE) 
ARM GAS  /var/folders/v3/wysfpd052nz8jkbx04pk0ym80000gn/T//ccCWh5Ad.s 			page 2


  31:/Users/imashio/Electronics/ARM/_Library/u8x8_d_stdio.c ****   ARISING IN ANY WAY OUT OF THE USE OF THIS SOFTWARE, EVEN IF 
  32:/Users/imashio/Electronics/ARM/_Library/u8x8_d_stdio.c ****   ADVISED OF THE POSSIBILITY OF SUCH DAMAGE.  
  33:/Users/imashio/Electronics/ARM/_Library/u8x8_d_stdio.c **** 
  34:/Users/imashio/Electronics/ARM/_Library/u8x8_d_stdio.c **** */
  35:/Users/imashio/Electronics/ARM/_Library/u8x8_d_stdio.c **** 
  36:/Users/imashio/Electronics/ARM/_Library/u8x8_d_stdio.c **** #include "u8x8.h"
  37:/Users/imashio/Electronics/ARM/_Library/u8x8_d_stdio.c **** 
  38:/Users/imashio/Electronics/ARM/_Library/u8x8_d_stdio.c **** #include <stdio.h>
  39:/Users/imashio/Electronics/ARM/_Library/u8x8_d_stdio.c **** 
  40:/Users/imashio/Electronics/ARM/_Library/u8x8_d_stdio.c **** #define W 8
  41:/Users/imashio/Electronics/ARM/_Library/u8x8_d_stdio.c **** #define H 2
  42:/Users/imashio/Electronics/ARM/_Library/u8x8_d_stdio.c **** 
  43:/Users/imashio/Electronics/ARM/_Library/u8x8_d_stdio.c **** uint8_t bitmap[W*H*8];
  44:/Users/imashio/Electronics/ARM/_Library/u8x8_d_stdio.c **** 
  45:/Users/imashio/Electronics/ARM/_Library/u8x8_d_stdio.c **** void bitmap_place_tile(uint8_t x, uint8_t y, uint8_t *tile)
  46:/Users/imashio/Electronics/ARM/_Library/u8x8_d_stdio.c **** {
  29              		.loc 1 46 0
  30              		.cfi_startproc
  31              		@ args = 0, pretend = 0, frame = 0
  32              		@ frame_needed = 0, uses_anonymous_args = 0
  33              		@ link register save eliminated.
  34              	.LVL0:
  35 0000 064B     		ldr	r3, .L5
  47:/Users/imashio/Electronics/ARM/_Library/u8x8_d_stdio.c ****   uint8_t i;
  48:/Users/imashio/Electronics/ARM/_Library/u8x8_d_stdio.c ****   for(i = 0; i < 8; i++ )
  49:/Users/imashio/Electronics/ARM/_Library/u8x8_d_stdio.c ****     bitmap[x*8+y*W*8+i] = tile[i];
  36              		.loc 1 49 0
  37 0002 00EBC101 		add	r1, r0, r1, lsl #3
  38              	.LVL1:
  39 0006 03EBC101 		add	r1, r3, r1, lsl #3
  40 000a 531E     		subs	r3, r2, #1
  41 000c 0732     		adds	r2, r2, #7
  42              	.LVL2:
  43              	.L2:
  44              		.loc 1 49 0 is_stmt 0 discriminator 3
  45 000e 13F8010F 		ldrb	r0, [r3, #1]!	@ zero_extendqisi2
  46              	.LVL3:
  47 0012 01F8010B 		strb	r0, [r1], #1
  48              	.LVL4:
  48:/Users/imashio/Electronics/ARM/_Library/u8x8_d_stdio.c ****     bitmap[x*8+y*W*8+i] = tile[i];
  49              		.loc 1 48 0 is_stmt 1 discriminator 3
  50 0016 9342     		cmp	r3, r2
  51 0018 F9D1     		bne	.L2
  50:/Users/imashio/Electronics/ARM/_Library/u8x8_d_stdio.c **** }
  52              		.loc 1 50 0
  53 001a 7047     		bx	lr
  54              	.L6:
  55              		.align	2
  56              	.L5:
  57 001c 00000000 		.word	bitmap
  58              		.cfi_endproc
  59              	.LFE3:
  61              		.section	.text.bitmap_show,"ax",%progbits
  62              		.align	1
  63              		.p2align 2,,3
  64              		.global	bitmap_show
  65              		.syntax unified
ARM GAS  /var/folders/v3/wysfpd052nz8jkbx04pk0ym80000gn/T//ccCWh5Ad.s 			page 3


  66              		.thumb
  67              		.thumb_func
  68              		.fpu fpv4-sp-d16
  70              	bitmap_show:
  71              	.LFB4:
  51:/Users/imashio/Electronics/ARM/_Library/u8x8_d_stdio.c **** 
  52:/Users/imashio/Electronics/ARM/_Library/u8x8_d_stdio.c **** void bitmap_show(void)
  53:/Users/imashio/Electronics/ARM/_Library/u8x8_d_stdio.c **** {
  72              		.loc 1 53 0
  73              		.cfi_startproc
  74              		@ args = 0, pretend = 0, frame = 0
  75              		@ frame_needed = 0, uses_anonymous_args = 0
  76              	.LVL5:
  77 0000 2DE9F047 		push	{r4, r5, r6, r7, r8, r9, r10, lr}
  78              	.LCFI0:
  79              		.cfi_def_cfa_offset 32
  80              		.cfi_offset 4, -32
  81              		.cfi_offset 5, -28
  82              		.cfi_offset 6, -24
  83              		.cfi_offset 7, -20
  84              		.cfi_offset 8, -16
  85              		.cfi_offset 9, -12
  86              		.cfi_offset 10, -8
  87              		.cfi_offset 14, -4
  88 0004 114F     		ldr	r7, .L16
  54:/Users/imashio/Electronics/ARM/_Library/u8x8_d_stdio.c ****   int x, y;
  55:/Users/imashio/Electronics/ARM/_Library/u8x8_d_stdio.c ****   for( y = 0; y < H*8; y++ )
  89              		.loc 1 55 0
  90 0006 0026     		movs	r6, #0
  91 0008 07F13F09 		add	r9, r7, #63
  92 000c 4FF00108 		mov	r8, #1
  93              	.LVL6:
  94              	.L8:
  56:/Users/imashio/Electronics/ARM/_Library/u8x8_d_stdio.c ****   {
  57:/Users/imashio/Electronics/ARM/_Library/u8x8_d_stdio.c ****     for( x = 0; x < W*8; x++ )
  58:/Users/imashio/Electronics/ARM/_Library/u8x8_d_stdio.c ****     {
  59:/Users/imashio/Electronics/ARM/_Library/u8x8_d_stdio.c ****       if ( (bitmap[x+(y/8)*W*8] & (1<<((y&7)))) != 0 )
  95              		.loc 1 59 0
  96 0010 F510     		asrs	r5, r6, #3
  97 0012 AD01     		lsls	r5, r5, #6
  98 0014 6C1E     		subs	r4, r5, #1
  99 0016 06F0070A 		and	r10, r6, #7
 100 001a 3C44     		add	r4, r4, r7
 101 001c 4D44     		add	r5, r5, r9
 102 001e 08FA0AFA 		lsl	r10, r8, r10
 103              	.LVL7:
 104              	.L11:
 105 0022 14F8013F 		ldrb	r3, [r4, #1]!	@ zero_extendqisi2
 106 0026 13EA0A0F 		tst	r3, r10
  60:/Users/imashio/Electronics/ARM/_Library/u8x8_d_stdio.c ****       {
  61:/Users/imashio/Electronics/ARM/_Library/u8x8_d_stdio.c **** 	printf("*");
 107              		.loc 1 61 0
 108 002a 4FF02A00 		mov	r0, #42
  62:/Users/imashio/Electronics/ARM/_Library/u8x8_d_stdio.c ****       }
  63:/Users/imashio/Electronics/ARM/_Library/u8x8_d_stdio.c ****       else
  64:/Users/imashio/Electronics/ARM/_Library/u8x8_d_stdio.c ****       {
  65:/Users/imashio/Electronics/ARM/_Library/u8x8_d_stdio.c **** 	printf(".");
ARM GAS  /var/folders/v3/wysfpd052nz8jkbx04pk0ym80000gn/T//ccCWh5Ad.s 			page 4


 109              		.loc 1 65 0
 110 002e 08BF     		it	eq
 111 0030 2E20     		moveq	r0, #46
 112 0032 FFF7FEFF 		bl	putchar
 113              	.LVL8:
  57:/Users/imashio/Electronics/ARM/_Library/u8x8_d_stdio.c ****     {
 114              		.loc 1 57 0
 115 0036 AC42     		cmp	r4, r5
 116 0038 F3D1     		bne	.L11
  55:/Users/imashio/Electronics/ARM/_Library/u8x8_d_stdio.c ****   {
 117              		.loc 1 55 0 discriminator 2
 118 003a 0136     		adds	r6, r6, #1
 119              	.LVL9:
  66:/Users/imashio/Electronics/ARM/_Library/u8x8_d_stdio.c ****       }
  67:/Users/imashio/Electronics/ARM/_Library/u8x8_d_stdio.c ****     }
  68:/Users/imashio/Electronics/ARM/_Library/u8x8_d_stdio.c ****     printf("\n");
 120              		.loc 1 68 0 discriminator 2
 121 003c 0A20     		movs	r0, #10
 122 003e FFF7FEFF 		bl	putchar
 123              	.LVL10:
  55:/Users/imashio/Electronics/ARM/_Library/u8x8_d_stdio.c ****   {
 124              		.loc 1 55 0 discriminator 2
 125 0042 102E     		cmp	r6, #16
 126 0044 E4D1     		bne	.L8
  69:/Users/imashio/Electronics/ARM/_Library/u8x8_d_stdio.c ****   }
  70:/Users/imashio/Electronics/ARM/_Library/u8x8_d_stdio.c **** }
 127              		.loc 1 70 0
 128 0046 BDE8F087 		pop	{r4, r5, r6, r7, r8, r9, r10, pc}
 129              	.LVL11:
 130              	.L17:
 131 004a 00BF     		.align	2
 132              	.L16:
 133 004c 00000000 		.word	bitmap
 134              		.cfi_endproc
 135              	.LFE4:
 137              		.section	.text.u8x8_d_stdio,"ax",%progbits
 138              		.align	1
 139              		.p2align 2,,3
 140              		.global	u8x8_d_stdio
 141              		.syntax unified
 142              		.thumb
 143              		.thumb_func
 144              		.fpu fpv4-sp-d16
 146              	u8x8_d_stdio:
 147              	.LFB5:
  71:/Users/imashio/Electronics/ARM/_Library/u8x8_d_stdio.c **** 
  72:/Users/imashio/Electronics/ARM/_Library/u8x8_d_stdio.c **** 
  73:/Users/imashio/Electronics/ARM/_Library/u8x8_d_stdio.c **** uint8_t u8x8_d_stdio(U8X8_UNUSED u8x8_t *u8x8, uint8_t msg, uint8_t arg_int, void *arg_ptr)
  74:/Users/imashio/Electronics/ARM/_Library/u8x8_d_stdio.c **** {
 148              		.loc 1 74 0
 149              		.cfi_startproc
 150              		@ args = 0, pretend = 0, frame = 0
 151              		@ frame_needed = 0, uses_anonymous_args = 0
 152              	.LVL12:
  75:/Users/imashio/Electronics/ARM/_Library/u8x8_d_stdio.c ****   switch(msg)
 153              		.loc 1 75 0
 154 0000 0B29     		cmp	r1, #11
ARM GAS  /var/folders/v3/wysfpd052nz8jkbx04pk0ym80000gn/T//ccCWh5Ad.s 			page 5


  74:/Users/imashio/Electronics/ARM/_Library/u8x8_d_stdio.c ****   switch(msg)
 155              		.loc 1 74 0
 156 0002 10B5     		push	{r4, lr}
 157              	.LCFI1:
 158              		.cfi_def_cfa_offset 8
 159              		.cfi_offset 4, -8
 160              		.cfi_offset 14, -4
 161              		.loc 1 75 0
 162 0004 13D0     		beq	.L20
 163 0006 0F29     		cmp	r1, #15
 164 0008 0FD1     		bne	.L19
 165              	.LVL13:
 166              	.LBB10:
 167              	.LBB11:
 168              	.LBB12:
 169              	.LBB13:
  49:/Users/imashio/Electronics/ARM/_Library/u8x8_d_stdio.c **** }
 170              		.loc 1 49 0
 171 000a 9C79     		ldrb	r4, [r3, #6]	@ zero_extendqisi2
 172 000c 5979     		ldrb	r1, [r3, #5]	@ zero_extendqisi2
 173              	.LVL14:
 174              	.LBE13:
 175              	.LBE12:
  76:/Users/imashio/Electronics/ARM/_Library/u8x8_d_stdio.c ****   {
  77:/Users/imashio/Electronics/ARM/_Library/u8x8_d_stdio.c ****     case U8X8_MSG_DISPLAY_INIT:
  78:/Users/imashio/Electronics/ARM/_Library/u8x8_d_stdio.c ****       break;
  79:/Users/imashio/Electronics/ARM/_Library/u8x8_d_stdio.c ****     case U8X8_MSG_DISPLAY_SET_POWER_SAVE:
  80:/Users/imashio/Electronics/ARM/_Library/u8x8_d_stdio.c ****       if ( arg_int == 0 )
  81:/Users/imashio/Electronics/ARM/_Library/u8x8_d_stdio.c **** 	bitmap_show();
  82:/Users/imashio/Electronics/ARM/_Library/u8x8_d_stdio.c ****       break;
  83:/Users/imashio/Electronics/ARM/_Library/u8x8_d_stdio.c ****     case U8X8_MSG_DISPLAY_SET_CONTRAST:
  84:/Users/imashio/Electronics/ARM/_Library/u8x8_d_stdio.c ****       break;
  85:/Users/imashio/Electronics/ARM/_Library/u8x8_d_stdio.c ****     case U8X8_MSG_DISPLAY_DRAW_TILE:      
  86:/Users/imashio/Electronics/ARM/_Library/u8x8_d_stdio.c ****       bitmap_place_tile(((u8x8_tile_t *)arg_ptr)->x_pos, ((u8x8_tile_t *)arg_ptr)->y_pos, ((u8x8_ti
 176              		.loc 1 86 0
 177 000e 1868     		ldr	r0, [r3]
 178              	.LVL15:
 179 0010 0A4A     		ldr	r2, .L27
 180              	.LVL16:
 181              	.LBB15:
 182              	.LBB14:
  49:/Users/imashio/Electronics/ARM/_Library/u8x8_d_stdio.c **** }
 183              		.loc 1 49 0
 184 0012 01EBC403 		add	r3, r1, r4, lsl #3
 185              	.LVL17:
 186 0016 02EBC302 		add	r2, r2, r3, lsl #3
 187 001a 431E     		subs	r3, r0, #1
 188 001c 0730     		adds	r0, r0, #7
 189              	.LVL18:
 190              	.L23:
 191 001e 13F8011F 		ldrb	r1, [r3, #1]!	@ zero_extendqisi2
 192              	.LVL19:
 193 0022 02F8011B 		strb	r1, [r2], #1
 194              	.LVL20:
  48:/Users/imashio/Electronics/ARM/_Library/u8x8_d_stdio.c ****     bitmap[x*8+y*W*8+i] = tile[i];
 195              		.loc 1 48 0
 196 0026 8342     		cmp	r3, r0
ARM GAS  /var/folders/v3/wysfpd052nz8jkbx04pk0ym80000gn/T//ccCWh5Ad.s 			page 6


 197 0028 F9D1     		bne	.L23
 198              	.LVL21:
 199              	.L19:
 200              	.LBE14:
 201              	.LBE15:
 202              	.LBE11:
 203              	.LBE10:
  87:/Users/imashio/Electronics/ARM/_Library/u8x8_d_stdio.c ****       break;
  88:/Users/imashio/Electronics/ARM/_Library/u8x8_d_stdio.c ****     default:
  89:/Users/imashio/Electronics/ARM/_Library/u8x8_d_stdio.c ****       break;
  90:/Users/imashio/Electronics/ARM/_Library/u8x8_d_stdio.c ****   }
  91:/Users/imashio/Electronics/ARM/_Library/u8x8_d_stdio.c ****   return 1;
  92:/Users/imashio/Electronics/ARM/_Library/u8x8_d_stdio.c **** }
 204              		.loc 1 92 0
 205 002a 0120     		movs	r0, #1
 206 002c 10BD     		pop	{r4, pc}
 207              	.LVL22:
 208              	.L20:
  80:/Users/imashio/Electronics/ARM/_Library/u8x8_d_stdio.c **** 	bitmap_show();
 209              		.loc 1 80 0
 210 002e 002A     		cmp	r2, #0
 211 0030 FBD1     		bne	.L19
  81:/Users/imashio/Electronics/ARM/_Library/u8x8_d_stdio.c ****       break;
 212              		.loc 1 81 0
 213 0032 FFF7FEFF 		bl	bitmap_show
 214              	.LVL23:
 215              		.loc 1 92 0
 216 0036 0120     		movs	r0, #1
 217 0038 10BD     		pop	{r4, pc}
 218              	.L28:
 219 003a 00BF     		.align	2
 220              	.L27:
 221 003c 00000000 		.word	bitmap
 222              		.cfi_endproc
 223              	.LFE5:
 225              		.section	.text.u8x8_SetupStdio,"ax",%progbits
 226              		.align	1
 227              		.p2align 2,,3
 228              		.global	u8x8_SetupStdio
 229              		.syntax unified
 230              		.thumb
 231              		.thumb_func
 232              		.fpu fpv4-sp-d16
 234              	u8x8_SetupStdio:
 235              	.LFB6:
  93:/Users/imashio/Electronics/ARM/_Library/u8x8_d_stdio.c **** 
  94:/Users/imashio/Electronics/ARM/_Library/u8x8_d_stdio.c **** 
  95:/Users/imashio/Electronics/ARM/_Library/u8x8_d_stdio.c **** 
  96:/Users/imashio/Electronics/ARM/_Library/u8x8_d_stdio.c **** void u8x8_SetupStdio(u8x8_t *u8x8)
  97:/Users/imashio/Electronics/ARM/_Library/u8x8_d_stdio.c **** {
 236              		.loc 1 97 0
 237              		.cfi_startproc
 238              		@ args = 0, pretend = 0, frame = 0
 239              		@ frame_needed = 0, uses_anonymous_args = 0
 240              	.LVL24:
 241 0000 10B5     		push	{r4, lr}
 242              	.LCFI2:
ARM GAS  /var/folders/v3/wysfpd052nz8jkbx04pk0ym80000gn/T//ccCWh5Ad.s 			page 7


 243              		.cfi_def_cfa_offset 8
 244              		.cfi_offset 4, -8
 245              		.cfi_offset 14, -4
 246              		.loc 1 97 0
 247 0002 0446     		mov	r4, r0
  98:/Users/imashio/Electronics/ARM/_Library/u8x8_d_stdio.c ****   u8x8_SetupDefaults(u8x8);
 248              		.loc 1 98 0
 249 0004 FFF7FEFF 		bl	u8x8_SetupDefaults
 250              	.LVL25:
  99:/Users/imashio/Electronics/ARM/_Library/u8x8_d_stdio.c ****   u8x8->display_cb = u8x8_d_stdio;
 251              		.loc 1 99 0
 252 0008 014B     		ldr	r3, .L31
 253 000a A360     		str	r3, [r4, #8]
 100:/Users/imashio/Electronics/ARM/_Library/u8x8_d_stdio.c **** }
 254              		.loc 1 100 0
 255 000c 10BD     		pop	{r4, pc}
 256              	.LVL26:
 257              	.L32:
 258 000e 00BF     		.align	2
 259              	.L31:
 260 0010 00000000 		.word	u8x8_d_stdio
 261              		.cfi_endproc
 262              	.LFE6:
 264              		.comm	bitmap,128,4
 265              		.text
 266              	.Letext0:
 267              		.file 2 "/usr/local/gcc-arm-none-eabi-7-2018-q2-update/arm-none-eabi/include/machine/_default_type
 268              		.file 3 "/usr/local/gcc-arm-none-eabi-7-2018-q2-update/arm-none-eabi/include/sys/_stdint.h"
 269              		.file 4 "/Users/imashio/Electronics/ARM/_Library/u8x8.h"
 270              		.file 5 "/usr/local/gcc-arm-none-eabi-7-2018-q2-update/arm-none-eabi/include/sys/lock.h"
 271              		.file 6 "/usr/local/gcc-arm-none-eabi-7-2018-q2-update/arm-none-eabi/include/sys/_types.h"
 272              		.file 7 "/usr/local/gcc-arm-none-eabi-7-2018-q2-update/lib/gcc/arm-none-eabi/7.3.1/include/stddef.
 273              		.file 8 "/usr/local/gcc-arm-none-eabi-7-2018-q2-update/arm-none-eabi/include/sys/reent.h"
 274              		.file 9 "<built-in>"
ARM GAS  /var/folders/v3/wysfpd052nz8jkbx04pk0ym80000gn/T//ccCWh5Ad.s 			page 8

