ARM GAS  /var/folders/v3/wysfpd052nz8jkbx04pk0ym80000gn/T//cc3Zd5pa.s 			page 1


   1              		.cpu cortex-m4
   2              		.eabi_attribute 27, 1
   3              		.eabi_attribute 28, 1
   4              		.eabi_attribute 20, 1
   5              		.eabi_attribute 21, 1
   6              		.eabi_attribute 23, 3
   7              		.eabi_attribute 24, 1
   8              		.eabi_attribute 25, 1
   9              		.eabi_attribute 26, 1
  10              		.eabi_attribute 30, 2
  11              		.eabi_attribute 34, 1
  12              		.eabi_attribute 18, 4
  13              		.file	"u8x8_d_ls013b7dh03.c"
  14              		.text
  15              	.Ltext0:
  16              		.cfi_sections	.debug_frame
  17              		.section	.text.u8x8_d_ls013b7dh03_128x128,"ax",%progbits
  18              		.align	1
  19              		.p2align 2,,3
  20              		.global	u8x8_d_ls013b7dh03_128x128
  21              		.syntax unified
  22              		.thumb
  23              		.thumb_func
  24              		.fpu fpv4-sp-d16
  26              	u8x8_d_ls013b7dh03_128x128:
  27              	.LFB0:
  28              		.file 1 "/Users/imashio/Electronics/ARM/_Library/u8x8_d_ls013b7dh03.c"
   1:/Users/imashio/Electronics/ARM/_Library/u8x8_d_ls013b7dh03.c **** /*
   2:/Users/imashio/Electronics/ARM/_Library/u8x8_d_ls013b7dh03.c **** 
   3:/Users/imashio/Electronics/ARM/_Library/u8x8_d_ls013b7dh03.c ****   u8x8_d_ls013b7dh03.c
   4:/Users/imashio/Electronics/ARM/_Library/u8x8_d_ls013b7dh03.c ****   
   5:/Users/imashio/Electronics/ARM/_Library/u8x8_d_ls013b7dh03.c ****   Universal 8bit Graphics Library (https://github.com/olikraus/u8g2/)
   6:/Users/imashio/Electronics/ARM/_Library/u8x8_d_ls013b7dh03.c **** 
   7:/Users/imashio/Electronics/ARM/_Library/u8x8_d_ls013b7dh03.c ****   Copyright (c) 2016, olikraus@gmail.com
   8:/Users/imashio/Electronics/ARM/_Library/u8x8_d_ls013b7dh03.c ****   All rights reserved.
   9:/Users/imashio/Electronics/ARM/_Library/u8x8_d_ls013b7dh03.c **** 
  10:/Users/imashio/Electronics/ARM/_Library/u8x8_d_ls013b7dh03.c ****   Redistribution and use in source and binary forms, with or without modification, 
  11:/Users/imashio/Electronics/ARM/_Library/u8x8_d_ls013b7dh03.c ****   are permitted provided that the following conditions are met:
  12:/Users/imashio/Electronics/ARM/_Library/u8x8_d_ls013b7dh03.c **** 
  13:/Users/imashio/Electronics/ARM/_Library/u8x8_d_ls013b7dh03.c ****   * Redistributions of source code must retain the above copyright notice, this list 
  14:/Users/imashio/Electronics/ARM/_Library/u8x8_d_ls013b7dh03.c ****     of conditions and the following disclaimer.
  15:/Users/imashio/Electronics/ARM/_Library/u8x8_d_ls013b7dh03.c ****     
  16:/Users/imashio/Electronics/ARM/_Library/u8x8_d_ls013b7dh03.c ****   * Redistributions in binary form must reproduce the above copyright notice, this 
  17:/Users/imashio/Electronics/ARM/_Library/u8x8_d_ls013b7dh03.c ****     list of conditions and the following disclaimer in the documentation and/or other 
  18:/Users/imashio/Electronics/ARM/_Library/u8x8_d_ls013b7dh03.c ****     materials provided with the distribution.
  19:/Users/imashio/Electronics/ARM/_Library/u8x8_d_ls013b7dh03.c **** 
  20:/Users/imashio/Electronics/ARM/_Library/u8x8_d_ls013b7dh03.c ****   THIS SOFTWARE IS PROVIDED BY THE COPYRIGHT HOLDERS AND 
  21:/Users/imashio/Electronics/ARM/_Library/u8x8_d_ls013b7dh03.c ****   CONTRIBUTORS "AS IS" AND ANY EXPRESS OR IMPLIED WARRANTIES, 
  22:/Users/imashio/Electronics/ARM/_Library/u8x8_d_ls013b7dh03.c ****   INCLUDING, BUT NOT LIMITED TO, THE IMPLIED WARRANTIES OF 
  23:/Users/imashio/Electronics/ARM/_Library/u8x8_d_ls013b7dh03.c ****   MERCHANTABILITY AND FITNESS FOR A PARTICULAR PURPOSE ARE 
  24:/Users/imashio/Electronics/ARM/_Library/u8x8_d_ls013b7dh03.c ****   DISCLAIMED. IN NO EVENT SHALL THE COPYRIGHT HOLDER OR 
  25:/Users/imashio/Electronics/ARM/_Library/u8x8_d_ls013b7dh03.c ****   CONTRIBUTORS BE LIABLE FOR ANY DIRECT, INDIRECT, INCIDENTAL, 
  26:/Users/imashio/Electronics/ARM/_Library/u8x8_d_ls013b7dh03.c ****   SPECIAL, EXEMPLARY, OR CONSEQUENTIAL DAMAGES (INCLUDING, BUT 
  27:/Users/imashio/Electronics/ARM/_Library/u8x8_d_ls013b7dh03.c ****   NOT LIMITED TO, PROCUREMENT OF SUBSTITUTE GOODS OR SERVICES; 
  28:/Users/imashio/Electronics/ARM/_Library/u8x8_d_ls013b7dh03.c ****   LOSS OF USE, DATA, OR PROFITS; OR BUSINESS INTERRUPTION) HOWEVER 
  29:/Users/imashio/Electronics/ARM/_Library/u8x8_d_ls013b7dh03.c ****   CAUSED AND ON ANY THEORY OF LIABILITY, WHETHER IN CONTRACT, 
  30:/Users/imashio/Electronics/ARM/_Library/u8x8_d_ls013b7dh03.c ****   STRICT LIABILITY, OR TORT (INCLUDING NEGLIGENCE OR OTHERWISE) 
ARM GAS  /var/folders/v3/wysfpd052nz8jkbx04pk0ym80000gn/T//cc3Zd5pa.s 			page 2


  31:/Users/imashio/Electronics/ARM/_Library/u8x8_d_ls013b7dh03.c ****   ARISING IN ANY WAY OUT OF THE USE OF THIS SOFTWARE, EVEN IF 
  32:/Users/imashio/Electronics/ARM/_Library/u8x8_d_ls013b7dh03.c ****   ADVISED OF THE POSSIBILITY OF SUCH DAMAGE.  
  33:/Users/imashio/Electronics/ARM/_Library/u8x8_d_ls013b7dh03.c **** 
  34:/Users/imashio/Electronics/ARM/_Library/u8x8_d_ls013b7dh03.c **** 
  35:/Users/imashio/Electronics/ARM/_Library/u8x8_d_ls013b7dh03.c ****   The LS013B7DH02 is a simple display and controller
  36:/Users/imashio/Electronics/ARM/_Library/u8x8_d_ls013b7dh03.c ****   --> no support for contrast adjustment, flip and power down.
  37:/Users/imashio/Electronics/ARM/_Library/u8x8_d_ls013b7dh03.c **** */
  38:/Users/imashio/Electronics/ARM/_Library/u8x8_d_ls013b7dh03.c **** 
  39:/Users/imashio/Electronics/ARM/_Library/u8x8_d_ls013b7dh03.c **** #include "u8x8.h"
  40:/Users/imashio/Electronics/ARM/_Library/u8x8_d_ls013b7dh03.c **** 
  41:/Users/imashio/Electronics/ARM/_Library/u8x8_d_ls013b7dh03.c **** #define SWAP8(a) ((((a) & 0x80) >> 7) | (((a) & 0x40) >> 5) | (((a) & 0x20) >> 3) | (((a) & 0x10) >
  42:/Users/imashio/Electronics/ARM/_Library/u8x8_d_ls013b7dh03.c **** 
  43:/Users/imashio/Electronics/ARM/_Library/u8x8_d_ls013b7dh03.c **** #define LS013B7DH03_CMD_UPDATE     (0x01)
  44:/Users/imashio/Electronics/ARM/_Library/u8x8_d_ls013b7dh03.c **** #define LS013B7DH03_CMD_ALL_CLEAR  (0x04)
  45:/Users/imashio/Electronics/ARM/_Library/u8x8_d_ls013b7dh03.c **** #define LS013B7DH03_VAL_TRAILER    (0x00)
  46:/Users/imashio/Electronics/ARM/_Library/u8x8_d_ls013b7dh03.c **** 
  47:/Users/imashio/Electronics/ARM/_Library/u8x8_d_ls013b7dh03.c **** static const u8x8_display_info_t u8x8_ls013b7dh03_128x128_display_info =
  48:/Users/imashio/Electronics/ARM/_Library/u8x8_d_ls013b7dh03.c **** {
  49:/Users/imashio/Electronics/ARM/_Library/u8x8_d_ls013b7dh03.c ****   /* chip_enable_level = */ 1,
  50:/Users/imashio/Electronics/ARM/_Library/u8x8_d_ls013b7dh03.c ****   /* chip_disable_level = */ 0,
  51:/Users/imashio/Electronics/ARM/_Library/u8x8_d_ls013b7dh03.c ****   /* post_chip_enable_wait_ns = */ 50,
  52:/Users/imashio/Electronics/ARM/_Library/u8x8_d_ls013b7dh03.c ****   /* pre_chip_disable_wait_ns = */ 50,
  53:/Users/imashio/Electronics/ARM/_Library/u8x8_d_ls013b7dh03.c ****   /* reset_pulse_width_ms = */ 1,
  54:/Users/imashio/Electronics/ARM/_Library/u8x8_d_ls013b7dh03.c ****   /* post_reset_wait_ms = */ 6,
  55:/Users/imashio/Electronics/ARM/_Library/u8x8_d_ls013b7dh03.c ****   /* sda_setup_time_ns = */ 227,	/* 227 nsec according to the datasheet */		
  56:/Users/imashio/Electronics/ARM/_Library/u8x8_d_ls013b7dh03.c ****   /* sck_pulse_width_ns = */  255,	/* 450 nsec according to the datasheet */
  57:/Users/imashio/Electronics/ARM/_Library/u8x8_d_ls013b7dh03.c ****   /* sck_clock_hz = */ 1000000UL,	/* since Arduino 1.6.0, the SPI bus speed in Hz. Should be  10000
  58:/Users/imashio/Electronics/ARM/_Library/u8x8_d_ls013b7dh03.c ****   /* spi_mode = */ 2,		/* active low, rising edge */
  59:/Users/imashio/Electronics/ARM/_Library/u8x8_d_ls013b7dh03.c ****   /* i2c_bus_clock_100kHz = */ 4,
  60:/Users/imashio/Electronics/ARM/_Library/u8x8_d_ls013b7dh03.c ****   /* data_setup_time_ns = */ 100,
  61:/Users/imashio/Electronics/ARM/_Library/u8x8_d_ls013b7dh03.c ****   /* write_pulse_width_ns = */ 100,
  62:/Users/imashio/Electronics/ARM/_Library/u8x8_d_ls013b7dh03.c ****   /* tile_width = */ 16,
  63:/Users/imashio/Electronics/ARM/_Library/u8x8_d_ls013b7dh03.c ****   /* tile_hight = */ 16,
  64:/Users/imashio/Electronics/ARM/_Library/u8x8_d_ls013b7dh03.c ****   /* default_x_offset = */ 0,
  65:/Users/imashio/Electronics/ARM/_Library/u8x8_d_ls013b7dh03.c ****   /* flipmode_x_offset = */ 0,
  66:/Users/imashio/Electronics/ARM/_Library/u8x8_d_ls013b7dh03.c ****   /* pixel_width = */ 128,
  67:/Users/imashio/Electronics/ARM/_Library/u8x8_d_ls013b7dh03.c ****   /* pixel_height = */ 128
  68:/Users/imashio/Electronics/ARM/_Library/u8x8_d_ls013b7dh03.c **** };
  69:/Users/imashio/Electronics/ARM/_Library/u8x8_d_ls013b7dh03.c **** 
  70:/Users/imashio/Electronics/ARM/_Library/u8x8_d_ls013b7dh03.c **** uint8_t u8x8_d_ls013b7dh03_128x128(u8x8_t *u8x8, uint8_t msg, U8X8_UNUSED uint8_t arg_int, void *ar
  71:/Users/imashio/Electronics/ARM/_Library/u8x8_d_ls013b7dh03.c **** {
  29              		.loc 1 71 0
  30              		.cfi_startproc
  31              		@ args = 0, pretend = 0, frame = 0
  32              		@ frame_needed = 0, uses_anonymous_args = 0
  33              	.LVL0:
  72:/Users/imashio/Electronics/ARM/_Library/u8x8_d_ls013b7dh03.c ****   uint8_t y, c, i;
  73:/Users/imashio/Electronics/ARM/_Library/u8x8_d_ls013b7dh03.c ****   uint8_t *ptr;
  74:/Users/imashio/Electronics/ARM/_Library/u8x8_d_ls013b7dh03.c ****   switch(msg)
  34              		.loc 1 74 0
  35 0000 0939     		subs	r1, r1, #9
  36              	.LVL1:
  71:/Users/imashio/Electronics/ARM/_Library/u8x8_d_ls013b7dh03.c ****   uint8_t y, c, i;
  37              		.loc 1 71 0
  38 0002 2DE9F041 		push	{r4, r5, r6, r7, r8, lr}
  39              	.LCFI0:
  40              		.cfi_def_cfa_offset 24
ARM GAS  /var/folders/v3/wysfpd052nz8jkbx04pk0ym80000gn/T//cc3Zd5pa.s 			page 3


  41              		.cfi_offset 4, -24
  42              		.cfi_offset 5, -20
  43              		.cfi_offset 6, -16
  44              		.cfi_offset 7, -12
  45              		.cfi_offset 8, -8
  46              		.cfi_offset 14, -4
  71:/Users/imashio/Electronics/ARM/_Library/u8x8_d_ls013b7dh03.c ****   uint8_t y, c, i;
  47              		.loc 1 71 0
  48 0006 0446     		mov	r4, r0
  49              		.loc 1 74 0
  50 0008 0629     		cmp	r1, #6
  51 000a 65D8     		bhi	.L2
  52 000c DFE801F0 		tbb	[pc, r1]
  53              	.LVL2:
  54              	.L4:
  55 0010 1A       		.byte	(.L3-.L4)/2
  56 0011 07       		.byte	(.L5-.L4)/2
  57 0012 04       		.byte	(.L9-.L4)/2
  58 0013 64       		.byte	(.L2-.L4)/2
  59 0014 64       		.byte	(.L2-.L4)/2
  60 0015 64       		.byte	(.L2-.L4)/2
  61 0016 20       		.byte	(.L7-.L4)/2
  62 0017 00       		.p2align 1
  63              	.L9:
  75:/Users/imashio/Electronics/ARM/_Library/u8x8_d_ls013b7dh03.c ****   {
  76:/Users/imashio/Electronics/ARM/_Library/u8x8_d_ls013b7dh03.c ****     case U8X8_MSG_DISPLAY_SETUP_MEMORY:
  77:/Users/imashio/Electronics/ARM/_Library/u8x8_d_ls013b7dh03.c ****       u8x8_d_helper_display_setup_memory(u8x8, &u8x8_ls013b7dh03_128x128_display_info);
  78:/Users/imashio/Electronics/ARM/_Library/u8x8_d_ls013b7dh03.c ****       break;
  79:/Users/imashio/Electronics/ARM/_Library/u8x8_d_ls013b7dh03.c ****     case U8X8_MSG_DISPLAY_INIT:
  80:/Users/imashio/Electronics/ARM/_Library/u8x8_d_ls013b7dh03.c ****       u8x8_d_helper_display_init(u8x8);
  81:/Users/imashio/Electronics/ARM/_Library/u8x8_d_ls013b7dh03.c **** 
  82:/Users/imashio/Electronics/ARM/_Library/u8x8_d_ls013b7dh03.c ****       /* clear screen */
  83:/Users/imashio/Electronics/ARM/_Library/u8x8_d_ls013b7dh03.c ****       u8x8_cad_StartTransfer(u8x8);
  84:/Users/imashio/Electronics/ARM/_Library/u8x8_d_ls013b7dh03.c ****       u8x8_cad_SendCmd(u8x8, SWAP8(LS013B7DH03_CMD_ALL_CLEAR) );
  85:/Users/imashio/Electronics/ARM/_Library/u8x8_d_ls013b7dh03.c ****       u8x8_cad_SendCmd(u8x8, LS013B7DH03_VAL_TRAILER);
  86:/Users/imashio/Electronics/ARM/_Library/u8x8_d_ls013b7dh03.c ****       u8x8_cad_EndTransfer(u8x8);
  87:/Users/imashio/Electronics/ARM/_Library/u8x8_d_ls013b7dh03.c **** 
  88:/Users/imashio/Electronics/ARM/_Library/u8x8_d_ls013b7dh03.c ****       break;
  89:/Users/imashio/Electronics/ARM/_Library/u8x8_d_ls013b7dh03.c ****     case U8X8_MSG_DISPLAY_SET_POWER_SAVE:
  90:/Users/imashio/Electronics/ARM/_Library/u8x8_d_ls013b7dh03.c ****       /* not available for the ls013b7dh03 */
  91:/Users/imashio/Electronics/ARM/_Library/u8x8_d_ls013b7dh03.c ****       break;
  92:/Users/imashio/Electronics/ARM/_Library/u8x8_d_ls013b7dh03.c ****     case U8X8_MSG_DISPLAY_DRAW_TILE:
  93:/Users/imashio/Electronics/ARM/_Library/u8x8_d_ls013b7dh03.c ****       /* each tile is 8 lines, with the data starting at the left edge */
  94:/Users/imashio/Electronics/ARM/_Library/u8x8_d_ls013b7dh03.c ****       y = ((((u8x8_tile_t *)arg_ptr)->y_pos) * 8) + 1;
  95:/Users/imashio/Electronics/ARM/_Library/u8x8_d_ls013b7dh03.c **** 
  96:/Users/imashio/Electronics/ARM/_Library/u8x8_d_ls013b7dh03.c ****       c = ((u8x8_tile_t *)arg_ptr)->cnt;
  97:/Users/imashio/Electronics/ARM/_Library/u8x8_d_ls013b7dh03.c ****       ptr = ((u8x8_tile_t *)arg_ptr)->tile_ptr;
  98:/Users/imashio/Electronics/ARM/_Library/u8x8_d_ls013b7dh03.c **** 
  99:/Users/imashio/Electronics/ARM/_Library/u8x8_d_ls013b7dh03.c ****       /* send data mode byte */
 100:/Users/imashio/Electronics/ARM/_Library/u8x8_d_ls013b7dh03.c ****       u8x8_cad_StartTransfer(u8x8);
 101:/Users/imashio/Electronics/ARM/_Library/u8x8_d_ls013b7dh03.c ****       u8x8_cad_SendCmd(u8x8, SWAP8(LS013B7DH03_CMD_UPDATE) );
 102:/Users/imashio/Electronics/ARM/_Library/u8x8_d_ls013b7dh03.c **** 
 103:/Users/imashio/Electronics/ARM/_Library/u8x8_d_ls013b7dh03.c ****       /* send 8 lines of 16 bytes (=128 pixels) */
 104:/Users/imashio/Electronics/ARM/_Library/u8x8_d_ls013b7dh03.c ****       for( i = 0; i < 8; i++ )
 105:/Users/imashio/Electronics/ARM/_Library/u8x8_d_ls013b7dh03.c ****       {
 106:/Users/imashio/Electronics/ARM/_Library/u8x8_d_ls013b7dh03.c ****         u8x8_cad_SendCmd(u8x8, SWAP8(y + i) );
 107:/Users/imashio/Electronics/ARM/_Library/u8x8_d_ls013b7dh03.c ****         u8x8_cad_SendData(u8x8, c, ptr);
ARM GAS  /var/folders/v3/wysfpd052nz8jkbx04pk0ym80000gn/T//cc3Zd5pa.s 			page 4


 108:/Users/imashio/Electronics/ARM/_Library/u8x8_d_ls013b7dh03.c ****         u8x8_cad_SendCmd(u8x8, LS013B7DH03_VAL_TRAILER);
 109:/Users/imashio/Electronics/ARM/_Library/u8x8_d_ls013b7dh03.c **** 
 110:/Users/imashio/Electronics/ARM/_Library/u8x8_d_ls013b7dh03.c ****         ptr += c;
 111:/Users/imashio/Electronics/ARM/_Library/u8x8_d_ls013b7dh03.c ****       }
 112:/Users/imashio/Electronics/ARM/_Library/u8x8_d_ls013b7dh03.c **** 
 113:/Users/imashio/Electronics/ARM/_Library/u8x8_d_ls013b7dh03.c ****       /* finish with a trailing byte */
 114:/Users/imashio/Electronics/ARM/_Library/u8x8_d_ls013b7dh03.c ****       u8x8_cad_SendCmd(u8x8, LS013B7DH03_VAL_TRAILER);
 115:/Users/imashio/Electronics/ARM/_Library/u8x8_d_ls013b7dh03.c ****       u8x8_cad_EndTransfer(u8x8);
 116:/Users/imashio/Electronics/ARM/_Library/u8x8_d_ls013b7dh03.c **** 
 117:/Users/imashio/Electronics/ARM/_Library/u8x8_d_ls013b7dh03.c ****       break;
 118:/Users/imashio/Electronics/ARM/_Library/u8x8_d_ls013b7dh03.c ****     default:
 119:/Users/imashio/Electronics/ARM/_Library/u8x8_d_ls013b7dh03.c ****       return 0;
 120:/Users/imashio/Electronics/ARM/_Library/u8x8_d_ls013b7dh03.c ****   }
 121:/Users/imashio/Electronics/ARM/_Library/u8x8_d_ls013b7dh03.c ****   return 1;
  64              		.loc 1 121 0
  65 0018 0120     		movs	r0, #1
  66              	.LVL3:
 122:/Users/imashio/Electronics/ARM/_Library/u8x8_d_ls013b7dh03.c **** }
  67              		.loc 1 122 0
  68 001a BDE8F081 		pop	{r4, r5, r6, r7, r8, pc}
  69              	.LVL4:
  70              	.L5:
  80:/Users/imashio/Electronics/ARM/_Library/u8x8_d_ls013b7dh03.c **** 
  71              		.loc 1 80 0
  72 001e FFF7FEFF 		bl	u8x8_d_helper_display_init
  73              	.LVL5:
  83:/Users/imashio/Electronics/ARM/_Library/u8x8_d_ls013b7dh03.c ****       u8x8_cad_SendCmd(u8x8, SWAP8(LS013B7DH03_CMD_ALL_CLEAR) );
  74              		.loc 1 83 0
  75 0022 2046     		mov	r0, r4
  76 0024 FFF7FEFF 		bl	u8x8_cad_StartTransfer
  77              	.LVL6:
  84:/Users/imashio/Electronics/ARM/_Library/u8x8_d_ls013b7dh03.c ****       u8x8_cad_SendCmd(u8x8, LS013B7DH03_VAL_TRAILER);
  78              		.loc 1 84 0
  79 0028 2021     		movs	r1, #32
  80 002a 2046     		mov	r0, r4
  81 002c FFF7FEFF 		bl	u8x8_cad_SendCmd
  82              	.LVL7:
  83              	.L12:
 114:/Users/imashio/Electronics/ARM/_Library/u8x8_d_ls013b7dh03.c ****       u8x8_cad_EndTransfer(u8x8);
  84              		.loc 1 114 0
  85 0030 0021     		movs	r1, #0
  86 0032 2046     		mov	r0, r4
  87 0034 FFF7FEFF 		bl	u8x8_cad_SendCmd
  88              	.LVL8:
 115:/Users/imashio/Electronics/ARM/_Library/u8x8_d_ls013b7dh03.c **** 
  89              		.loc 1 115 0
  90 0038 2046     		mov	r0, r4
  91 003a FFF7FEFF 		bl	u8x8_cad_EndTransfer
  92              	.LVL9:
 121:/Users/imashio/Electronics/ARM/_Library/u8x8_d_ls013b7dh03.c **** }
  93              		.loc 1 121 0
  94 003e 0120     		movs	r0, #1
  95              		.loc 1 122 0
  96 0040 BDE8F081 		pop	{r4, r5, r6, r7, r8, pc}
  97              	.LVL10:
  98              	.L3:
  77:/Users/imashio/Electronics/ARM/_Library/u8x8_d_ls013b7dh03.c ****       break;
ARM GAS  /var/folders/v3/wysfpd052nz8jkbx04pk0ym80000gn/T//cc3Zd5pa.s 			page 5


  99              		.loc 1 77 0
 100 0044 2649     		ldr	r1, .L14
 101 0046 FFF7FEFF 		bl	u8x8_d_helper_display_setup_memory
 102              	.LVL11:
 121:/Users/imashio/Electronics/ARM/_Library/u8x8_d_ls013b7dh03.c **** }
 103              		.loc 1 121 0
 104 004a 0120     		movs	r0, #1
 105              		.loc 1 122 0
 106 004c BDE8F081 		pop	{r4, r5, r6, r7, r8, pc}
 107              	.LVL12:
 108              	.L7:
  94:/Users/imashio/Electronics/ARM/_Library/u8x8_d_ls013b7dh03.c **** 
 109              		.loc 1 94 0
 110 0050 9E79     		ldrb	r6, [r3, #6]	@ zero_extendqisi2
  96:/Users/imashio/Electronics/ARM/_Library/u8x8_d_ls013b7dh03.c ****       ptr = ((u8x8_tile_t *)arg_ptr)->tile_ptr;
 111              		.loc 1 96 0
 112 0052 1F79     		ldrb	r7, [r3, #4]	@ zero_extendqisi2
  97:/Users/imashio/Electronics/ARM/_Library/u8x8_d_ls013b7dh03.c **** 
 113              		.loc 1 97 0
 114 0054 1D68     		ldr	r5, [r3]
 100:/Users/imashio/Electronics/ARM/_Library/u8x8_d_ls013b7dh03.c ****       u8x8_cad_SendCmd(u8x8, SWAP8(LS013B7DH03_CMD_UPDATE) );
 115              		.loc 1 100 0
 116 0056 FFF7FEFF 		bl	u8x8_cad_StartTransfer
 117              	.LVL13:
 101:/Users/imashio/Electronics/ARM/_Library/u8x8_d_ls013b7dh03.c **** 
 118              		.loc 1 101 0
 119 005a 8021     		movs	r1, #128
 120 005c 2046     		mov	r0, r4
  94:/Users/imashio/Electronics/ARM/_Library/u8x8_d_ls013b7dh03.c **** 
 121              		.loc 1 94 0
 122 005e F600     		lsls	r6, r6, #3
 101:/Users/imashio/Electronics/ARM/_Library/u8x8_d_ls013b7dh03.c **** 
 123              		.loc 1 101 0
 124 0060 FFF7FEFF 		bl	u8x8_cad_SendCmd
 125              	.LVL14:
  94:/Users/imashio/Electronics/ARM/_Library/u8x8_d_ls013b7dh03.c **** 
 126              		.loc 1 94 0
 127 0064 0136     		adds	r6, r6, #1
 128 0066 F6B2     		uxtb	r6, r6
 129              	.LVL15:
 104:/Users/imashio/Electronics/ARM/_Library/u8x8_d_ls013b7dh03.c ****       {
 130              		.loc 1 104 0
 131 0068 4FF00008 		mov	r8, #0
 132              	.LVL16:
 133              	.L8:
 134 006c 06EB0803 		add	r3, r6, r8
 135 0070 DBB2     		uxtb	r3, r3
 106:/Users/imashio/Electronics/ARM/_Library/u8x8_d_ls013b7dh03.c ****         u8x8_cad_SendData(u8x8, c, ptr);
 136              		.loc 1 106 0 discriminator 3
 137 0072 5900     		lsls	r1, r3, #1
 138 0074 DA00     		lsls	r2, r3, #3
 139 0076 02F02002 		and	r2, r2, #32
 140 007a 01F01001 		and	r1, r1, #16
 141 007e 1143     		orrs	r1, r1, r2
 142 0080 5A01     		lsls	r2, r3, #5
 143 0082 41EAD311 		orr	r1, r1, r3, lsr #7
 144 0086 02F04002 		and	r2, r2, #64
ARM GAS  /var/folders/v3/wysfpd052nz8jkbx04pk0ym80000gn/T//cc3Zd5pa.s 			page 6


 145 008a 1143     		orrs	r1, r1, r2
 146 008c 5811     		asrs	r0, r3, #5
 147 008e A6EB0802 		sub	r2, r6, r8
 148 0092 41EAC211 		orr	r1, r1, r2, lsl #7
 149 0096 00F00200 		and	r0, r0, #2
 150 009a DA10     		asrs	r2, r3, #3
 151 009c 02F00402 		and	r2, r2, #4
 152 00a0 0143     		orrs	r1, r1, r0
 153 00a2 5B10     		asrs	r3, r3, #1
 154 00a4 03F00803 		and	r3, r3, #8
 155 00a8 1143     		orrs	r1, r1, r2
 156 00aa 1943     		orrs	r1, r1, r3
 157 00ac C9B2     		uxtb	r1, r1
 158 00ae 2046     		mov	r0, r4
 159 00b0 FFF7FEFF 		bl	u8x8_cad_SendCmd
 160              	.LVL17:
 104:/Users/imashio/Electronics/ARM/_Library/u8x8_d_ls013b7dh03.c ****       {
 161              		.loc 1 104 0 discriminator 3
 162 00b4 08F10108 		add	r8, r8, #1
 163              	.LVL18:
 107:/Users/imashio/Electronics/ARM/_Library/u8x8_d_ls013b7dh03.c ****         u8x8_cad_SendCmd(u8x8, LS013B7DH03_VAL_TRAILER);
 164              		.loc 1 107 0 discriminator 3
 165 00b8 2A46     		mov	r2, r5
 166 00ba 3946     		mov	r1, r7
 167 00bc 2046     		mov	r0, r4
 168 00be FFF7FEFF 		bl	u8x8_cad_SendData
 169              	.LVL19:
 104:/Users/imashio/Electronics/ARM/_Library/u8x8_d_ls013b7dh03.c ****       {
 170              		.loc 1 104 0 discriminator 3
 171 00c2 5FFA88F8 		uxtb	r8, r8
 108:/Users/imashio/Electronics/ARM/_Library/u8x8_d_ls013b7dh03.c **** 
 172              		.loc 1 108 0 discriminator 3
 173 00c6 0021     		movs	r1, #0
 174 00c8 2046     		mov	r0, r4
 175 00ca FFF7FEFF 		bl	u8x8_cad_SendCmd
 176              	.LVL20:
 104:/Users/imashio/Electronics/ARM/_Library/u8x8_d_ls013b7dh03.c ****       {
 177              		.loc 1 104 0 discriminator 3
 178 00ce B8F1080F 		cmp	r8, #8
 110:/Users/imashio/Electronics/ARM/_Library/u8x8_d_ls013b7dh03.c ****       }
 179              		.loc 1 110 0 discriminator 3
 180 00d2 3D44     		add	r5, r5, r7
 181              	.LVL21:
 104:/Users/imashio/Electronics/ARM/_Library/u8x8_d_ls013b7dh03.c ****       {
 182              		.loc 1 104 0 discriminator 3
 183 00d4 CAD1     		bne	.L8
 184 00d6 ABE7     		b	.L12
 185              	.LVL22:
 186              	.L2:
 119:/Users/imashio/Electronics/ARM/_Library/u8x8_d_ls013b7dh03.c ****   }
 187              		.loc 1 119 0
 188 00d8 0020     		movs	r0, #0
 189              	.LVL23:
 190              		.loc 1 122 0
 191 00da BDE8F081 		pop	{r4, r5, r6, r7, r8, pc}
 192              	.LVL24:
 193              	.L15:
ARM GAS  /var/folders/v3/wysfpd052nz8jkbx04pk0ym80000gn/T//cc3Zd5pa.s 			page 7


 194 00de 00BF     		.align	2
 195              	.L14:
 196 00e0 00000000 		.word	.LANCHOR0
 197              		.cfi_endproc
 198              	.LFE0:
 200              		.section	.rodata.u8x8_ls013b7dh03_128x128_display_info,"a",%progbits
 201              		.align	2
 202              		.set	.LANCHOR0,. + 0
 205              	u8x8_ls013b7dh03_128x128_display_info:
 206 0000 01       		.byte	1
 207 0001 00       		.byte	0
 208 0002 32       		.byte	50
 209 0003 32       		.byte	50
 210 0004 01       		.byte	1
 211 0005 06       		.byte	6
 212 0006 E3       		.byte	-29
 213 0007 FF       		.byte	-1
 214 0008 40420F00 		.word	1000000
 215 000c 02       		.byte	2
 216 000d 04       		.byte	4
 217 000e 64       		.byte	100
 218 000f 64       		.byte	100
 219 0010 10       		.byte	16
 220 0011 10       		.byte	16
 221 0012 00       		.byte	0
 222 0013 00       		.byte	0
 223 0014 8000     		.short	128
 224 0016 8000     		.short	128
 225              		.text
 226              	.Letext0:
 227              		.file 2 "/usr/local/gcc-arm-none-eabi-7-2018-q2-update/arm-none-eabi/include/machine/_default_type
 228              		.file 3 "/usr/local/gcc-arm-none-eabi-7-2018-q2-update/arm-none-eabi/include/sys/_stdint.h"
 229              		.file 4 "/Users/imashio/Electronics/ARM/_Library/u8x8.h"
ARM GAS  /var/folders/v3/wysfpd052nz8jkbx04pk0ym80000gn/T//cc3Zd5pa.s 			page 8


DEFINED SYMBOLS
                            *ABS*:0000000000000000 u8x8_d_ls013b7dh03.c
/var/folders/v3/wysfpd052nz8jkbx04pk0ym80000gn/T//cc3Zd5pa.s:18     .text.u8x8_d_ls013b7dh03_128x128:0000000000000000 $t
/var/folders/v3/wysfpd052nz8jkbx04pk0ym80000gn/T//cc3Zd5pa.s:26     .text.u8x8_d_ls013b7dh03_128x128:0000000000000000 u8x8_d_ls013b7dh03_128x128
/var/folders/v3/wysfpd052nz8jkbx04pk0ym80000gn/T//cc3Zd5pa.s:55     .text.u8x8_d_ls013b7dh03_128x128:0000000000000010 $d
/var/folders/v3/wysfpd052nz8jkbx04pk0ym80000gn/T//cc3Zd5pa.s:196    .text.u8x8_d_ls013b7dh03_128x128:00000000000000e0 $d
/var/folders/v3/wysfpd052nz8jkbx04pk0ym80000gn/T//cc3Zd5pa.s:201    .rodata.u8x8_ls013b7dh03_128x128_display_info:0000000000000000 $d
/var/folders/v3/wysfpd052nz8jkbx04pk0ym80000gn/T//cc3Zd5pa.s:205    .rodata.u8x8_ls013b7dh03_128x128_display_info:0000000000000000 u8x8_ls013b7dh03_128x128_display_info
/var/folders/v3/wysfpd052nz8jkbx04pk0ym80000gn/T//cc3Zd5pa.s:62     .text.u8x8_d_ls013b7dh03_128x128:0000000000000017 $d
/var/folders/v3/wysfpd052nz8jkbx04pk0ym80000gn/T//cc3Zd5pa.s:62     .text.u8x8_d_ls013b7dh03_128x128:0000000000000018 $t

UNDEFINED SYMBOLS
u8x8_d_helper_display_init
u8x8_cad_StartTransfer
u8x8_cad_SendCmd
u8x8_cad_EndTransfer
u8x8_d_helper_display_setup_memory
u8x8_cad_SendData
