ARM GAS  /var/folders/v3/wysfpd052nz8jkbx04pk0ym80000gn/T//ccWqVvFB.s 			page 1


   1              		.cpu cortex-m4
   2              		.eabi_attribute 27, 1
   3              		.eabi_attribute 28, 1
   4              		.eabi_attribute 20, 1
   5              		.eabi_attribute 21, 1
   6              		.eabi_attribute 23, 3
   7              		.eabi_attribute 24, 1
   8              		.eabi_attribute 25, 1
   9              		.eabi_attribute 26, 1
  10              		.eabi_attribute 30, 1
  11              		.eabi_attribute 34, 1
  12              		.eabi_attribute 18, 4
  13              		.file	"u8x8_d_ssd1322.c"
  14              		.text
  15              	.Ltext0:
  16              		.cfi_sections	.debug_frame
  17              		.section	.text.u8x8_ssd1322_8to32,"ax",%progbits
  18              		.align	1
  19              		.syntax unified
  20              		.thumb
  21              		.thumb_func
  22              		.fpu fpv4-sp-d16
  24              	u8x8_ssd1322_8to32:
  25              	.LFB1:
  26              		.file 1 "/Users/imashio/Electronics/ARM/_Library/u8x8_d_ssd1322.c"
   1:/Users/imashio/Electronics/ARM/_Library/u8x8_d_ssd1322.c **** /*
   2:/Users/imashio/Electronics/ARM/_Library/u8x8_d_ssd1322.c **** 
   3:/Users/imashio/Electronics/ARM/_Library/u8x8_d_ssd1322.c ****   u8x8_d_ssd1322.c
   4:/Users/imashio/Electronics/ARM/_Library/u8x8_d_ssd1322.c ****   
   5:/Users/imashio/Electronics/ARM/_Library/u8x8_d_ssd1322.c ****   Universal 8bit Graphics Library (https://github.com/olikraus/u8g2/)
   6:/Users/imashio/Electronics/ARM/_Library/u8x8_d_ssd1322.c **** 
   7:/Users/imashio/Electronics/ARM/_Library/u8x8_d_ssd1322.c ****   Copyright (c) 2016, olikraus@gmail.com
   8:/Users/imashio/Electronics/ARM/_Library/u8x8_d_ssd1322.c ****   All rights reserved.
   9:/Users/imashio/Electronics/ARM/_Library/u8x8_d_ssd1322.c **** 
  10:/Users/imashio/Electronics/ARM/_Library/u8x8_d_ssd1322.c ****   Redistribution and use in source and binary forms, with or without modification, 
  11:/Users/imashio/Electronics/ARM/_Library/u8x8_d_ssd1322.c ****   are permitted provided that the following conditions are met:
  12:/Users/imashio/Electronics/ARM/_Library/u8x8_d_ssd1322.c **** 
  13:/Users/imashio/Electronics/ARM/_Library/u8x8_d_ssd1322.c ****   * Redistributions of source code must retain the above copyright notice, this list 
  14:/Users/imashio/Electronics/ARM/_Library/u8x8_d_ssd1322.c ****     of conditions and the following disclaimer.
  15:/Users/imashio/Electronics/ARM/_Library/u8x8_d_ssd1322.c ****     
  16:/Users/imashio/Electronics/ARM/_Library/u8x8_d_ssd1322.c ****   * Redistributions in binary form must reproduce the above copyright notice, this 
  17:/Users/imashio/Electronics/ARM/_Library/u8x8_d_ssd1322.c ****     list of conditions and the following disclaimer in the documentation and/or other 
  18:/Users/imashio/Electronics/ARM/_Library/u8x8_d_ssd1322.c ****     materials provided with the distribution.
  19:/Users/imashio/Electronics/ARM/_Library/u8x8_d_ssd1322.c **** 
  20:/Users/imashio/Electronics/ARM/_Library/u8x8_d_ssd1322.c ****   THIS SOFTWARE IS PROVIDED BY THE COPYRIGHT HOLDERS AND 
  21:/Users/imashio/Electronics/ARM/_Library/u8x8_d_ssd1322.c ****   CONTRIBUTORS "AS IS" AND ANY EXPRESS OR IMPLIED WARRANTIES, 
  22:/Users/imashio/Electronics/ARM/_Library/u8x8_d_ssd1322.c ****   INCLUDING, BUT NOT LIMITED TO, THE IMPLIED WARRANTIES OF 
  23:/Users/imashio/Electronics/ARM/_Library/u8x8_d_ssd1322.c ****   MERCHANTABILITY AND FITNESS FOR A PARTICULAR PURPOSE ARE 
  24:/Users/imashio/Electronics/ARM/_Library/u8x8_d_ssd1322.c ****   DISCLAIMED. IN NO EVENT SHALL THE COPYRIGHT HOLDER OR 
  25:/Users/imashio/Electronics/ARM/_Library/u8x8_d_ssd1322.c ****   CONTRIBUTORS BE LIABLE FOR ANY DIRECT, INDIRECT, INCIDENTAL, 
  26:/Users/imashio/Electronics/ARM/_Library/u8x8_d_ssd1322.c ****   SPECIAL, EXEMPLARY, OR CONSEQUENTIAL DAMAGES (INCLUDING, BUT 
  27:/Users/imashio/Electronics/ARM/_Library/u8x8_d_ssd1322.c ****   NOT LIMITED TO, PROCUREMENT OF SUBSTITUTE GOODS OR SERVICES; 
  28:/Users/imashio/Electronics/ARM/_Library/u8x8_d_ssd1322.c ****   LOSS OF USE, DATA, OR PROFITS; OR BUSINESS INTERRUPTION) HOWEVER 
  29:/Users/imashio/Electronics/ARM/_Library/u8x8_d_ssd1322.c ****   CAUSED AND ON ANY THEORY OF LIABILITY, WHETHER IN CONTRACT, 
  30:/Users/imashio/Electronics/ARM/_Library/u8x8_d_ssd1322.c ****   STRICT LIABILITY, OR TORT (INCLUDING NEGLIGENCE OR OTHERWISE) 
  31:/Users/imashio/Electronics/ARM/_Library/u8x8_d_ssd1322.c ****   ARISING IN ANY WAY OUT OF THE USE OF THIS SOFTWARE, EVEN IF 
  32:/Users/imashio/Electronics/ARM/_Library/u8x8_d_ssd1322.c ****   ADVISED OF THE POSSIBILITY OF SUCH DAMAGE.  
ARM GAS  /var/folders/v3/wysfpd052nz8jkbx04pk0ym80000gn/T//ccWqVvFB.s 			page 2


  33:/Users/imashio/Electronics/ARM/_Library/u8x8_d_ssd1322.c **** 
  34:/Users/imashio/Electronics/ARM/_Library/u8x8_d_ssd1322.c **** 
  35:/Users/imashio/Electronics/ARM/_Library/u8x8_d_ssd1322.c ****   
  36:/Users/imashio/Electronics/ARM/_Library/u8x8_d_ssd1322.c ****   
  37:/Users/imashio/Electronics/ARM/_Library/u8x8_d_ssd1322.c **** */
  38:/Users/imashio/Electronics/ARM/_Library/u8x8_d_ssd1322.c **** #include "u8x8.h"
  39:/Users/imashio/Electronics/ARM/_Library/u8x8_d_ssd1322.c **** 
  40:/Users/imashio/Electronics/ARM/_Library/u8x8_d_ssd1322.c **** 
  41:/Users/imashio/Electronics/ARM/_Library/u8x8_d_ssd1322.c **** 
  42:/Users/imashio/Electronics/ARM/_Library/u8x8_d_ssd1322.c **** 
  43:/Users/imashio/Electronics/ARM/_Library/u8x8_d_ssd1322.c **** static const uint8_t u8x8_d_ssd1322_powersave0_seq[] = {
  44:/Users/imashio/Electronics/ARM/_Library/u8x8_d_ssd1322.c ****   U8X8_START_TRANSFER(),             	/* enable chip, delay is part of the transfer start */
  45:/Users/imashio/Electronics/ARM/_Library/u8x8_d_ssd1322.c ****   U8X8_C(0x0af),		                /* ssd1322: display on */
  46:/Users/imashio/Electronics/ARM/_Library/u8x8_d_ssd1322.c ****   U8X8_END_TRANSFER(),             	/* disable chip */
  47:/Users/imashio/Electronics/ARM/_Library/u8x8_d_ssd1322.c ****   U8X8_END()             			/* end of sequence */
  48:/Users/imashio/Electronics/ARM/_Library/u8x8_d_ssd1322.c **** };
  49:/Users/imashio/Electronics/ARM/_Library/u8x8_d_ssd1322.c **** 
  50:/Users/imashio/Electronics/ARM/_Library/u8x8_d_ssd1322.c **** static const uint8_t u8x8_d_ssd1322_powersave1_seq[] = {
  51:/Users/imashio/Electronics/ARM/_Library/u8x8_d_ssd1322.c ****   U8X8_START_TRANSFER(),             	/* enable chip, delay is part of the transfer start */
  52:/Users/imashio/Electronics/ARM/_Library/u8x8_d_ssd1322.c ****   U8X8_C(0x0ae),		                /* ssd1322: display off */
  53:/Users/imashio/Electronics/ARM/_Library/u8x8_d_ssd1322.c ****   U8X8_END_TRANSFER(),             	/* disable chip */
  54:/Users/imashio/Electronics/ARM/_Library/u8x8_d_ssd1322.c ****   U8X8_END()             			/* end of sequence */
  55:/Users/imashio/Electronics/ARM/_Library/u8x8_d_ssd1322.c **** };
  56:/Users/imashio/Electronics/ARM/_Library/u8x8_d_ssd1322.c **** 
  57:/Users/imashio/Electronics/ARM/_Library/u8x8_d_ssd1322.c **** 
  58:/Users/imashio/Electronics/ARM/_Library/u8x8_d_ssd1322.c **** 
  59:/Users/imashio/Electronics/ARM/_Library/u8x8_d_ssd1322.c **** /* interpret b as a monochrome bit pattern, write value 15 for high bit and value 0 for a low bit *
  60:/Users/imashio/Electronics/ARM/_Library/u8x8_d_ssd1322.c **** /* topbit (msb) is sent last */
  61:/Users/imashio/Electronics/ARM/_Library/u8x8_d_ssd1322.c **** /* example: b = 0x083 will send 0xff, 0x00, 0x00, 0xf0 */
  62:/Users/imashio/Electronics/ARM/_Library/u8x8_d_ssd1322.c **** 
  63:/Users/imashio/Electronics/ARM/_Library/u8x8_d_ssd1322.c **** /* 4 Jan 2017: I think this procedure not required any more. Delete? */
  64:/Users/imashio/Electronics/ARM/_Library/u8x8_d_ssd1322.c **** uint8_t u8x8_write_byte_to_16gr_device(u8x8_t *u8x8, uint8_t b)
  65:/Users/imashio/Electronics/ARM/_Library/u8x8_d_ssd1322.c **** {
  66:/Users/imashio/Electronics/ARM/_Library/u8x8_d_ssd1322.c ****   static uint8_t buf[4];
  67:/Users/imashio/Electronics/ARM/_Library/u8x8_d_ssd1322.c ****   static uint8_t map[4] = { 0, 0x00f, 0x0f0, 0x0ff };
  68:/Users/imashio/Electronics/ARM/_Library/u8x8_d_ssd1322.c ****   buf [3] = map[b & 3];
  69:/Users/imashio/Electronics/ARM/_Library/u8x8_d_ssd1322.c ****   b>>=2;
  70:/Users/imashio/Electronics/ARM/_Library/u8x8_d_ssd1322.c ****   buf [2] = map[b & 3];
  71:/Users/imashio/Electronics/ARM/_Library/u8x8_d_ssd1322.c ****   b>>=2;
  72:/Users/imashio/Electronics/ARM/_Library/u8x8_d_ssd1322.c ****   buf [1] = map[b & 3];
  73:/Users/imashio/Electronics/ARM/_Library/u8x8_d_ssd1322.c ****   b>>=2;
  74:/Users/imashio/Electronics/ARM/_Library/u8x8_d_ssd1322.c ****   buf [0] = map[b & 3];
  75:/Users/imashio/Electronics/ARM/_Library/u8x8_d_ssd1322.c ****   return u8x8_cad_SendData(u8x8, 4, buf);
  76:/Users/imashio/Electronics/ARM/_Library/u8x8_d_ssd1322.c **** }
  77:/Users/imashio/Electronics/ARM/_Library/u8x8_d_ssd1322.c **** 
  78:/Users/imashio/Electronics/ARM/_Library/u8x8_d_ssd1322.c **** 
  79:/Users/imashio/Electronics/ARM/_Library/u8x8_d_ssd1322.c **** /*
  80:/Users/imashio/Electronics/ARM/_Library/u8x8_d_ssd1322.c ****   input:
  81:/Users/imashio/Electronics/ARM/_Library/u8x8_d_ssd1322.c ****     one tile (8 Bytes)
  82:/Users/imashio/Electronics/ARM/_Library/u8x8_d_ssd1322.c ****   output:
  83:/Users/imashio/Electronics/ARM/_Library/u8x8_d_ssd1322.c ****     Tile for SSD1325 (32 Bytes)
  84:/Users/imashio/Electronics/ARM/_Library/u8x8_d_ssd1322.c **** */
  85:/Users/imashio/Electronics/ARM/_Library/u8x8_d_ssd1322.c **** 
  86:/Users/imashio/Electronics/ARM/_Library/u8x8_d_ssd1322.c **** static uint8_t u8x8_ssd1322_to32_dest_buf[32];
  87:/Users/imashio/Electronics/ARM/_Library/u8x8_d_ssd1322.c **** 
  88:/Users/imashio/Electronics/ARM/_Library/u8x8_d_ssd1322.c **** static uint8_t *u8x8_ssd1322_8to32(U8X8_UNUSED u8x8_t *u8x8, uint8_t *ptr)
  89:/Users/imashio/Electronics/ARM/_Library/u8x8_d_ssd1322.c **** {
ARM GAS  /var/folders/v3/wysfpd052nz8jkbx04pk0ym80000gn/T//ccWqVvFB.s 			page 3


  27              		.loc 1 89 0
  28              		.cfi_startproc
  29              		@ args = 0, pretend = 0, frame = 0
  30              		@ frame_needed = 0, uses_anonymous_args = 0
  31              		@ link register save eliminated.
  32              	.LVL0:
  33 0000 70B4     		push	{r4, r5, r6}
  34              	.LCFI0:
  35              		.cfi_def_cfa_offset 12
  36              		.cfi_offset 4, -12
  37              		.cfi_offset 5, -8
  38              		.cfi_offset 6, -4
  39              	.LVL1:
  90:/Users/imashio/Electronics/ARM/_Library/u8x8_d_ssd1322.c ****   uint8_t v;
  91:/Users/imashio/Electronics/ARM/_Library/u8x8_d_ssd1322.c ****   uint8_t a,b;
  92:/Users/imashio/Electronics/ARM/_Library/u8x8_d_ssd1322.c ****   uint8_t i, j;
  93:/Users/imashio/Electronics/ARM/_Library/u8x8_d_ssd1322.c ****   uint8_t *dest;
  94:/Users/imashio/Electronics/ARM/_Library/u8x8_d_ssd1322.c ****   
  95:/Users/imashio/Electronics/ARM/_Library/u8x8_d_ssd1322.c ****   for( j = 0; j < 4; j++ )
  40              		.loc 1 95 0
  41 0002 0026     		movs	r6, #0
  42 0004 15E0     		b	.L2
  43              	.LVL2:
  44              	.L8:
  96:/Users/imashio/Electronics/ARM/_Library/u8x8_d_ssd1322.c ****   {
  97:/Users/imashio/Electronics/ARM/_Library/u8x8_d_ssd1322.c ****     dest = u8x8_ssd1322_to32_dest_buf;
  98:/Users/imashio/Electronics/ARM/_Library/u8x8_d_ssd1322.c ****     dest += j;
  99:/Users/imashio/Electronics/ARM/_Library/u8x8_d_ssd1322.c ****     a =*ptr;
 100:/Users/imashio/Electronics/ARM/_Library/u8x8_d_ssd1322.c ****     ptr++;
 101:/Users/imashio/Electronics/ARM/_Library/u8x8_d_ssd1322.c ****     b = *ptr;
 102:/Users/imashio/Electronics/ARM/_Library/u8x8_d_ssd1322.c ****     ptr++;
 103:/Users/imashio/Electronics/ARM/_Library/u8x8_d_ssd1322.c ****     for( i = 0; i < 8; i++ )
 104:/Users/imashio/Electronics/ARM/_Library/u8x8_d_ssd1322.c ****     {
 105:/Users/imashio/Electronics/ARM/_Library/u8x8_d_ssd1322.c ****       v = 0;
 106:/Users/imashio/Electronics/ARM/_Library/u8x8_d_ssd1322.c ****       if ( a&1 ) v |= 0xf0;
  45              		.loc 1 106 0
  46 0006 F024     		movs	r4, #240
  47 0008 0BE0     		b	.L4
  48              	.LVL3:
  49              	.L5:
 107:/Users/imashio/Electronics/ARM/_Library/u8x8_d_ssd1322.c ****       if ( b&1 ) v |= 0x0f;
 108:/Users/imashio/Electronics/ARM/_Library/u8x8_d_ssd1322.c ****       *dest = v;
  50              		.loc 1 108 0 discriminator 2
  51 000a 05F8044B 		strb	r4, [r5], #4
  52              	.LVL4:
 109:/Users/imashio/Electronics/ARM/_Library/u8x8_d_ssd1322.c ****       dest+=4;
 110:/Users/imashio/Electronics/ARM/_Library/u8x8_d_ssd1322.c ****       a >>= 1;
  53              		.loc 1 110 0 discriminator 2
  54 000e 4008     		lsrs	r0, r0, #1
  55              	.LVL5:
 111:/Users/imashio/Electronics/ARM/_Library/u8x8_d_ssd1322.c ****       b >>= 1;
  56              		.loc 1 111 0 discriminator 2
  57 0010 5208     		lsrs	r2, r2, #1
  58              	.LVL6:
 103:/Users/imashio/Electronics/ARM/_Library/u8x8_d_ssd1322.c ****     {
  59              		.loc 1 103 0 discriminator 2
  60 0012 0133     		adds	r3, r3, #1
ARM GAS  /var/folders/v3/wysfpd052nz8jkbx04pk0ym80000gn/T//ccWqVvFB.s 			page 4


  61              	.LVL7:
  62 0014 DBB2     		uxtb	r3, r3
  63              	.LVL8:
  64              	.L3:
 103:/Users/imashio/Electronics/ARM/_Library/u8x8_d_ssd1322.c ****     {
  65              		.loc 1 103 0 is_stmt 0 discriminator 1
  66 0016 072B     		cmp	r3, #7
  67 0018 09D8     		bhi	.L10
  68              	.LVL9:
 106:/Users/imashio/Electronics/ARM/_Library/u8x8_d_ssd1322.c ****       if ( b&1 ) v |= 0x0f;
  69              		.loc 1 106 0 is_stmt 1
  70 001a 10F0010F 		tst	r0, #1
  71 001e F2D1     		bne	.L8
 105:/Users/imashio/Electronics/ARM/_Library/u8x8_d_ssd1322.c ****       if ( a&1 ) v |= 0xf0;
  72              		.loc 1 105 0
  73 0020 0024     		movs	r4, #0
  74              	.L4:
  75              	.LVL10:
 107:/Users/imashio/Electronics/ARM/_Library/u8x8_d_ssd1322.c ****       *dest = v;
  76              		.loc 1 107 0
  77 0022 12F0010F 		tst	r2, #1
  78 0026 F0D0     		beq	.L5
 107:/Users/imashio/Electronics/ARM/_Library/u8x8_d_ssd1322.c ****       *dest = v;
  79              		.loc 1 107 0 is_stmt 0 discriminator 1
  80 0028 44F00F04 		orr	r4, r4, #15
  81              	.LVL11:
  82 002c EDE7     		b	.L5
  83              	.LVL12:
  84              	.L10:
  95:/Users/imashio/Electronics/ARM/_Library/u8x8_d_ssd1322.c ****   {
  85              		.loc 1 95 0 is_stmt 1 discriminator 2
  86 002e 0136     		adds	r6, r6, #1
  87              	.LVL13:
  88 0030 F6B2     		uxtb	r6, r6
  89              	.LVL14:
  90              	.L2:
  95:/Users/imashio/Electronics/ARM/_Library/u8x8_d_ssd1322.c ****   {
  91              		.loc 1 95 0 is_stmt 0 discriminator 1
  92 0032 032E     		cmp	r6, #3
  93 0034 06D8     		bhi	.L11
  94              	.LVL15:
  98:/Users/imashio/Electronics/ARM/_Library/u8x8_d_ssd1322.c ****     a =*ptr;
  95              		.loc 1 98 0 is_stmt 1
  96 0036 054D     		ldr	r5, .L12
  97 0038 3544     		add	r5, r5, r6
  98              	.LVL16:
  99:/Users/imashio/Electronics/ARM/_Library/u8x8_d_ssd1322.c ****     ptr++;
  99              		.loc 1 99 0
 100 003a 0878     		ldrb	r0, [r1]	@ zero_extendqisi2
 101              	.LVL17:
 101:/Users/imashio/Electronics/ARM/_Library/u8x8_d_ssd1322.c ****     ptr++;
 102              		.loc 1 101 0
 103 003c 4A78     		ldrb	r2, [r1, #1]	@ zero_extendqisi2
 104              	.LVL18:
 102:/Users/imashio/Electronics/ARM/_Library/u8x8_d_ssd1322.c ****     for( i = 0; i < 8; i++ )
 105              		.loc 1 102 0
 106 003e 0231     		adds	r1, r1, #2
ARM GAS  /var/folders/v3/wysfpd052nz8jkbx04pk0ym80000gn/T//ccWqVvFB.s 			page 5


 107              	.LVL19:
 103:/Users/imashio/Electronics/ARM/_Library/u8x8_d_ssd1322.c ****     {
 108              		.loc 1 103 0
 109 0040 0023     		movs	r3, #0
 110 0042 E8E7     		b	.L3
 111              	.LVL20:
 112              	.L11:
 112:/Users/imashio/Electronics/ARM/_Library/u8x8_d_ssd1322.c ****     }
 113:/Users/imashio/Electronics/ARM/_Library/u8x8_d_ssd1322.c ****   }
 114:/Users/imashio/Electronics/ARM/_Library/u8x8_d_ssd1322.c ****   
 115:/Users/imashio/Electronics/ARM/_Library/u8x8_d_ssd1322.c ****   return u8x8_ssd1322_to32_dest_buf;
 116:/Users/imashio/Electronics/ARM/_Library/u8x8_d_ssd1322.c **** }
 113              		.loc 1 116 0
 114 0044 0148     		ldr	r0, .L12
 115 0046 70BC     		pop	{r4, r5, r6}
 116              	.LCFI1:
 117              		.cfi_restore 6
 118              		.cfi_restore 5
 119              		.cfi_restore 4
 120              		.cfi_def_cfa_offset 0
 121              	.LVL21:
 122 0048 7047     		bx	lr
 123              	.L13:
 124 004a 00BF     		.align	2
 125              	.L12:
 126 004c 00000000 		.word	.LANCHOR0
 127              		.cfi_endproc
 128              	.LFE1:
 130              		.section	.text.u8x8_ssd1322_4to32,"ax",%progbits
 131              		.align	1
 132              		.syntax unified
 133              		.thumb
 134              		.thumb_func
 135              		.fpu fpv4-sp-d16
 137              	u8x8_ssd1322_4to32:
 138              	.LFB2:
 117:/Users/imashio/Electronics/ARM/_Library/u8x8_d_ssd1322.c **** 
 118:/Users/imashio/Electronics/ARM/_Library/u8x8_d_ssd1322.c **** static uint8_t *u8x8_ssd1322_4to32(U8X8_UNUSED u8x8_t *u8x8, uint8_t *ptr)
 119:/Users/imashio/Electronics/ARM/_Library/u8x8_d_ssd1322.c **** {
 139              		.loc 1 119 0
 140              		.cfi_startproc
 141              		@ args = 0, pretend = 0, frame = 0
 142              		@ frame_needed = 0, uses_anonymous_args = 0
 143              		@ link register save eliminated.
 144              	.LVL22:
 145 0000 30B4     		push	{r4, r5}
 146              	.LCFI2:
 147              		.cfi_def_cfa_offset 8
 148              		.cfi_offset 4, -8
 149              		.cfi_offset 5, -4
 150              	.LVL23:
 120:/Users/imashio/Electronics/ARM/_Library/u8x8_d_ssd1322.c ****   uint8_t v;
 121:/Users/imashio/Electronics/ARM/_Library/u8x8_d_ssd1322.c ****   uint8_t a;
 122:/Users/imashio/Electronics/ARM/_Library/u8x8_d_ssd1322.c ****   uint8_t i, j;
 123:/Users/imashio/Electronics/ARM/_Library/u8x8_d_ssd1322.c ****   uint8_t *dest;
 124:/Users/imashio/Electronics/ARM/_Library/u8x8_d_ssd1322.c ****   
 125:/Users/imashio/Electronics/ARM/_Library/u8x8_d_ssd1322.c ****   for( j = 0; j < 4; j++ )
ARM GAS  /var/folders/v3/wysfpd052nz8jkbx04pk0ym80000gn/T//ccWqVvFB.s 			page 6


 151              		.loc 1 125 0
 152 0002 0025     		movs	r5, #0
 153 0004 0EE0     		b	.L15
 154              	.LVL24:
 155              	.L20:
 126:/Users/imashio/Electronics/ARM/_Library/u8x8_d_ssd1322.c ****   {
 127:/Users/imashio/Electronics/ARM/_Library/u8x8_d_ssd1322.c ****     dest = u8x8_ssd1322_to32_dest_buf;
 128:/Users/imashio/Electronics/ARM/_Library/u8x8_d_ssd1322.c ****     dest += j;
 129:/Users/imashio/Electronics/ARM/_Library/u8x8_d_ssd1322.c ****     a =*ptr;
 130:/Users/imashio/Electronics/ARM/_Library/u8x8_d_ssd1322.c ****     ptr++;
 131:/Users/imashio/Electronics/ARM/_Library/u8x8_d_ssd1322.c ****     for( i = 0; i < 8; i++ )
 132:/Users/imashio/Electronics/ARM/_Library/u8x8_d_ssd1322.c ****     {
 133:/Users/imashio/Electronics/ARM/_Library/u8x8_d_ssd1322.c ****       v = 0;
 134:/Users/imashio/Electronics/ARM/_Library/u8x8_d_ssd1322.c ****       if ( a&1 ) v = 0xff;
 156              		.loc 1 134 0
 157 0006 FF24     		movs	r4, #255
 158              	.L17:
 159              	.LVL25:
 135:/Users/imashio/Electronics/ARM/_Library/u8x8_d_ssd1322.c ****       *dest = v;
 160              		.loc 1 135 0 discriminator 2
 161 0008 00F8044B 		strb	r4, [r0], #4
 162              	.LVL26:
 136:/Users/imashio/Electronics/ARM/_Library/u8x8_d_ssd1322.c ****       dest+=4;
 137:/Users/imashio/Electronics/ARM/_Library/u8x8_d_ssd1322.c ****       a >>= 1;
 163              		.loc 1 137 0 discriminator 2
 164 000c 5208     		lsrs	r2, r2, #1
 165              	.LVL27:
 131:/Users/imashio/Electronics/ARM/_Library/u8x8_d_ssd1322.c ****     {
 166              		.loc 1 131 0 discriminator 2
 167 000e 0133     		adds	r3, r3, #1
 168              	.LVL28:
 169 0010 DBB2     		uxtb	r3, r3
 170              	.LVL29:
 171              	.L16:
 131:/Users/imashio/Electronics/ARM/_Library/u8x8_d_ssd1322.c ****     {
 172              		.loc 1 131 0 is_stmt 0 discriminator 1
 173 0012 072B     		cmp	r3, #7
 174 0014 04D8     		bhi	.L22
 175              	.LVL30:
 134:/Users/imashio/Electronics/ARM/_Library/u8x8_d_ssd1322.c ****       *dest = v;
 176              		.loc 1 134 0 is_stmt 1
 177 0016 12F0010F 		tst	r2, #1
 178 001a F4D1     		bne	.L20
 133:/Users/imashio/Electronics/ARM/_Library/u8x8_d_ssd1322.c ****       if ( a&1 ) v = 0xff;
 179              		.loc 1 133 0
 180 001c 0024     		movs	r4, #0
 181 001e F3E7     		b	.L17
 182              	.LVL31:
 183              	.L22:
 125:/Users/imashio/Electronics/ARM/_Library/u8x8_d_ssd1322.c ****   {
 184              		.loc 1 125 0 discriminator 2
 185 0020 0135     		adds	r5, r5, #1
 186              	.LVL32:
 187 0022 EDB2     		uxtb	r5, r5
 188              	.LVL33:
 189              	.L15:
 125:/Users/imashio/Electronics/ARM/_Library/u8x8_d_ssd1322.c ****   {
ARM GAS  /var/folders/v3/wysfpd052nz8jkbx04pk0ym80000gn/T//ccWqVvFB.s 			page 7


 190              		.loc 1 125 0 is_stmt 0 discriminator 1
 191 0024 032D     		cmp	r5, #3
 192 0026 05D8     		bhi	.L23
 193              	.LVL34:
 128:/Users/imashio/Electronics/ARM/_Library/u8x8_d_ssd1322.c ****     a =*ptr;
 194              		.loc 1 128 0 is_stmt 1
 195 0028 0448     		ldr	r0, .L24
 196 002a 2844     		add	r0, r0, r5
 197              	.LVL35:
 129:/Users/imashio/Electronics/ARM/_Library/u8x8_d_ssd1322.c ****     ptr++;
 198              		.loc 1 129 0
 199 002c 11F8012B 		ldrb	r2, [r1], #1	@ zero_extendqisi2
 200              	.LVL36:
 131:/Users/imashio/Electronics/ARM/_Library/u8x8_d_ssd1322.c ****     {
 201              		.loc 1 131 0
 202 0030 0023     		movs	r3, #0
 203 0032 EEE7     		b	.L16
 204              	.LVL37:
 205              	.L23:
 138:/Users/imashio/Electronics/ARM/_Library/u8x8_d_ssd1322.c ****     }
 139:/Users/imashio/Electronics/ARM/_Library/u8x8_d_ssd1322.c ****   }
 140:/Users/imashio/Electronics/ARM/_Library/u8x8_d_ssd1322.c ****   
 141:/Users/imashio/Electronics/ARM/_Library/u8x8_d_ssd1322.c ****   return u8x8_ssd1322_to32_dest_buf;
 142:/Users/imashio/Electronics/ARM/_Library/u8x8_d_ssd1322.c **** }
 206              		.loc 1 142 0
 207 0034 0148     		ldr	r0, .L24
 208 0036 30BC     		pop	{r4, r5}
 209              	.LCFI3:
 210              		.cfi_restore 5
 211              		.cfi_restore 4
 212              		.cfi_def_cfa_offset 0
 213              	.LVL38:
 214 0038 7047     		bx	lr
 215              	.L25:
 216 003a 00BF     		.align	2
 217              	.L24:
 218 003c 00000000 		.word	.LANCHOR0
 219              		.cfi_endproc
 220              	.LFE2:
 222              		.section	.text.u8x8_write_byte_to_16gr_device,"ax",%progbits
 223              		.align	1
 224              		.global	u8x8_write_byte_to_16gr_device
 225              		.syntax unified
 226              		.thumb
 227              		.thumb_func
 228              		.fpu fpv4-sp-d16
 230              	u8x8_write_byte_to_16gr_device:
 231              	.LFB0:
  65:/Users/imashio/Electronics/ARM/_Library/u8x8_d_ssd1322.c ****   static uint8_t buf[4];
 232              		.loc 1 65 0
 233              		.cfi_startproc
 234              		@ args = 0, pretend = 0, frame = 0
 235              		@ frame_needed = 0, uses_anonymous_args = 0
 236              	.LVL39:
 237 0000 10B5     		push	{r4, lr}
 238              	.LCFI4:
 239              		.cfi_def_cfa_offset 8
ARM GAS  /var/folders/v3/wysfpd052nz8jkbx04pk0ym80000gn/T//ccWqVvFB.s 			page 8


 240              		.cfi_offset 4, -8
 241              		.cfi_offset 14, -4
  68:/Users/imashio/Electronics/ARM/_Library/u8x8_d_ssd1322.c ****   b>>=2;
 242              		.loc 1 68 0
 243 0002 01F00302 		and	r2, r1, #3
 244 0006 094B     		ldr	r3, .L28
 245 0008 9C5C     		ldrb	r4, [r3, r2]	@ zero_extendqisi2
 246 000a 094A     		ldr	r2, .L28+4
 247 000c D470     		strb	r4, [r2, #3]
 248              	.LVL40:
  70:/Users/imashio/Electronics/ARM/_Library/u8x8_d_ssd1322.c ****   b>>=2;
 249              		.loc 1 70 0
 250 000e C1F38104 		ubfx	r4, r1, #2, #2
 251 0012 1C5D     		ldrb	r4, [r3, r4]	@ zero_extendqisi2
 252 0014 9470     		strb	r4, [r2, #2]
 253              	.LVL41:
  72:/Users/imashio/Electronics/ARM/_Library/u8x8_d_ssd1322.c ****   b>>=2;
 254              		.loc 1 72 0
 255 0016 C1F30114 		ubfx	r4, r1, #4, #2
 256 001a 1C5D     		ldrb	r4, [r3, r4]	@ zero_extendqisi2
 257 001c 5470     		strb	r4, [r2, #1]
  73:/Users/imashio/Electronics/ARM/_Library/u8x8_d_ssd1322.c ****   buf [0] = map[b & 3];
 258              		.loc 1 73 0
 259 001e 8909     		lsrs	r1, r1, #6
 260              	.LVL42:
  74:/Users/imashio/Electronics/ARM/_Library/u8x8_d_ssd1322.c ****   return u8x8_cad_SendData(u8x8, 4, buf);
 261              		.loc 1 74 0
 262 0020 5B5C     		ldrb	r3, [r3, r1]	@ zero_extendqisi2
 263 0022 1370     		strb	r3, [r2]
  75:/Users/imashio/Electronics/ARM/_Library/u8x8_d_ssd1322.c **** }
 264              		.loc 1 75 0
 265 0024 0421     		movs	r1, #4
 266              	.LVL43:
 267 0026 FFF7FEFF 		bl	u8x8_cad_SendData
 268              	.LVL44:
  76:/Users/imashio/Electronics/ARM/_Library/u8x8_d_ssd1322.c **** 
 269              		.loc 1 76 0
 270 002a 10BD     		pop	{r4, pc}
 271              	.L29:
 272              		.align	2
 273              	.L28:
 274 002c 00000000 		.word	.LANCHOR1
 275 0030 00000000 		.word	.LANCHOR2
 276              		.cfi_endproc
 277              	.LFE0:
 279              		.section	.text.u8x8_d_ssd1322_common,"ax",%progbits
 280              		.align	1
 281              		.global	u8x8_d_ssd1322_common
 282              		.syntax unified
 283              		.thumb
 284              		.thumb_func
 285              		.fpu fpv4-sp-d16
 287              	u8x8_d_ssd1322_common:
 288              	.LFB3:
 143:/Users/imashio/Electronics/ARM/_Library/u8x8_d_ssd1322.c **** 
 144:/Users/imashio/Electronics/ARM/_Library/u8x8_d_ssd1322.c **** 
 145:/Users/imashio/Electronics/ARM/_Library/u8x8_d_ssd1322.c **** uint8_t u8x8_d_ssd1322_common(u8x8_t *u8x8, uint8_t msg, uint8_t arg_int, void *arg_ptr)
ARM GAS  /var/folders/v3/wysfpd052nz8jkbx04pk0ym80000gn/T//ccWqVvFB.s 			page 9


 146:/Users/imashio/Electronics/ARM/_Library/u8x8_d_ssd1322.c **** {
 289              		.loc 1 146 0
 290              		.cfi_startproc
 291              		@ args = 0, pretend = 0, frame = 0
 292              		@ frame_needed = 0, uses_anonymous_args = 0
 293              	.LVL45:
 294 0000 2DE9F843 		push	{r3, r4, r5, r6, r7, r8, r9, lr}
 295              	.LCFI5:
 296              		.cfi_def_cfa_offset 32
 297              		.cfi_offset 3, -32
 298              		.cfi_offset 4, -28
 299              		.cfi_offset 5, -24
 300              		.cfi_offset 6, -20
 301              		.cfi_offset 7, -16
 302              		.cfi_offset 8, -12
 303              		.cfi_offset 9, -8
 304              		.cfi_offset 14, -4
 305 0004 0446     		mov	r4, r0
 306 0006 9046     		mov	r8, r2
 147:/Users/imashio/Electronics/ARM/_Library/u8x8_d_ssd1322.c ****   uint8_t x; 
 148:/Users/imashio/Electronics/ARM/_Library/u8x8_d_ssd1322.c ****   uint8_t y, c;
 149:/Users/imashio/Electronics/ARM/_Library/u8x8_d_ssd1322.c ****   uint8_t *ptr;
 150:/Users/imashio/Electronics/ARM/_Library/u8x8_d_ssd1322.c ****   switch(msg)
 307              		.loc 1 150 0
 308 0008 0E29     		cmp	r1, #14
 309 000a 11D0     		beq	.L32
 310 000c 9946     		mov	r9, r3
 311 000e 0F29     		cmp	r1, #15
 312 0010 1ED0     		beq	.L33
 313 0012 0B29     		cmp	r1, #11
 314 0014 01D0     		beq	.L41
 151:/Users/imashio/Electronics/ARM/_Library/u8x8_d_ssd1322.c ****   {
 152:/Users/imashio/Electronics/ARM/_Library/u8x8_d_ssd1322.c ****     /* U8X8_MSG_DISPLAY_SETUP_MEMORY is handled by the calling function */
 153:/Users/imashio/Electronics/ARM/_Library/u8x8_d_ssd1322.c ****     /*
 154:/Users/imashio/Electronics/ARM/_Library/u8x8_d_ssd1322.c ****     case U8X8_MSG_DISPLAY_SETUP_MEMORY:
 155:/Users/imashio/Electronics/ARM/_Library/u8x8_d_ssd1322.c ****       break;
 156:/Users/imashio/Electronics/ARM/_Library/u8x8_d_ssd1322.c ****     case U8X8_MSG_DISPLAY_INIT:
 157:/Users/imashio/Electronics/ARM/_Library/u8x8_d_ssd1322.c ****       u8x8_d_helper_display_init(u8x8);
 158:/Users/imashio/Electronics/ARM/_Library/u8x8_d_ssd1322.c ****       u8x8_cad_SendSequence(u8x8, u8x8_d_ssd1322_256x64_init_seq);
 159:/Users/imashio/Electronics/ARM/_Library/u8x8_d_ssd1322.c ****       break;
 160:/Users/imashio/Electronics/ARM/_Library/u8x8_d_ssd1322.c ****     */
 161:/Users/imashio/Electronics/ARM/_Library/u8x8_d_ssd1322.c ****     case U8X8_MSG_DISPLAY_SET_POWER_SAVE:
 162:/Users/imashio/Electronics/ARM/_Library/u8x8_d_ssd1322.c ****       if ( arg_int == 0 )
 163:/Users/imashio/Electronics/ARM/_Library/u8x8_d_ssd1322.c **** 	u8x8_cad_SendSequence(u8x8, u8x8_d_ssd1322_powersave0_seq);
 164:/Users/imashio/Electronics/ARM/_Library/u8x8_d_ssd1322.c ****       else
 165:/Users/imashio/Electronics/ARM/_Library/u8x8_d_ssd1322.c **** 	u8x8_cad_SendSequence(u8x8, u8x8_d_ssd1322_powersave1_seq);
 166:/Users/imashio/Electronics/ARM/_Library/u8x8_d_ssd1322.c ****       break;
 167:/Users/imashio/Electronics/ARM/_Library/u8x8_d_ssd1322.c **** #ifdef U8X8_WITH_SET_CONTRAST
 168:/Users/imashio/Electronics/ARM/_Library/u8x8_d_ssd1322.c ****     case U8X8_MSG_DISPLAY_SET_CONTRAST:
 169:/Users/imashio/Electronics/ARM/_Library/u8x8_d_ssd1322.c ****       u8x8_cad_StartTransfer(u8x8);
 170:/Users/imashio/Electronics/ARM/_Library/u8x8_d_ssd1322.c ****       u8x8_cad_SendCmd(u8x8, 0x0C1 );
 171:/Users/imashio/Electronics/ARM/_Library/u8x8_d_ssd1322.c ****       u8x8_cad_SendArg(u8x8, arg_int );	/* ssd1322 has range from 0 to 255 */
 172:/Users/imashio/Electronics/ARM/_Library/u8x8_d_ssd1322.c ****       u8x8_cad_EndTransfer(u8x8);
 173:/Users/imashio/Electronics/ARM/_Library/u8x8_d_ssd1322.c ****       break;
 174:/Users/imashio/Electronics/ARM/_Library/u8x8_d_ssd1322.c **** #endif
 175:/Users/imashio/Electronics/ARM/_Library/u8x8_d_ssd1322.c ****     case U8X8_MSG_DISPLAY_DRAW_TILE:
 176:/Users/imashio/Electronics/ARM/_Library/u8x8_d_ssd1322.c ****       u8x8_cad_StartTransfer(u8x8);
ARM GAS  /var/folders/v3/wysfpd052nz8jkbx04pk0ym80000gn/T//ccWqVvFB.s 			page 10


 177:/Users/imashio/Electronics/ARM/_Library/u8x8_d_ssd1322.c ****       x = ((u8x8_tile_t *)arg_ptr)->x_pos;    
 178:/Users/imashio/Electronics/ARM/_Library/u8x8_d_ssd1322.c ****       x *= 2;		// only every 4th col can be addressed
 179:/Users/imashio/Electronics/ARM/_Library/u8x8_d_ssd1322.c ****       x += u8x8->x_offset;		
 180:/Users/imashio/Electronics/ARM/_Library/u8x8_d_ssd1322.c ****     
 181:/Users/imashio/Electronics/ARM/_Library/u8x8_d_ssd1322.c ****       y = (((u8x8_tile_t *)arg_ptr)->y_pos);
 182:/Users/imashio/Electronics/ARM/_Library/u8x8_d_ssd1322.c ****       y *= 8;
 183:/Users/imashio/Electronics/ARM/_Library/u8x8_d_ssd1322.c ****     
 184:/Users/imashio/Electronics/ARM/_Library/u8x8_d_ssd1322.c ****       
 185:/Users/imashio/Electronics/ARM/_Library/u8x8_d_ssd1322.c ****       u8x8_cad_SendCmd(u8x8, 0x075 );	/* set row address, moved out of the loop (issue 302) */
 186:/Users/imashio/Electronics/ARM/_Library/u8x8_d_ssd1322.c ****       u8x8_cad_SendArg(u8x8, y);
 187:/Users/imashio/Electronics/ARM/_Library/u8x8_d_ssd1322.c ****       u8x8_cad_SendArg(u8x8, y+7);
 188:/Users/imashio/Electronics/ARM/_Library/u8x8_d_ssd1322.c ****       
 189:/Users/imashio/Electronics/ARM/_Library/u8x8_d_ssd1322.c ****       do
 190:/Users/imashio/Electronics/ARM/_Library/u8x8_d_ssd1322.c ****       {
 191:/Users/imashio/Electronics/ARM/_Library/u8x8_d_ssd1322.c **** 	c = ((u8x8_tile_t *)arg_ptr)->cnt;
 192:/Users/imashio/Electronics/ARM/_Library/u8x8_d_ssd1322.c **** 	ptr = ((u8x8_tile_t *)arg_ptr)->tile_ptr;
 193:/Users/imashio/Electronics/ARM/_Library/u8x8_d_ssd1322.c **** 
 194:/Users/imashio/Electronics/ARM/_Library/u8x8_d_ssd1322.c **** 	do
 195:/Users/imashio/Electronics/ARM/_Library/u8x8_d_ssd1322.c **** 	{
 196:/Users/imashio/Electronics/ARM/_Library/u8x8_d_ssd1322.c **** 	  u8x8_cad_SendCmd(u8x8, 0x015 );	/* set column address */
 197:/Users/imashio/Electronics/ARM/_Library/u8x8_d_ssd1322.c **** 	  u8x8_cad_SendArg(u8x8, x );	/* start */
 198:/Users/imashio/Electronics/ARM/_Library/u8x8_d_ssd1322.c **** 	  u8x8_cad_SendArg(u8x8, x+1 );	/* end */
 199:/Users/imashio/Electronics/ARM/_Library/u8x8_d_ssd1322.c **** 
 200:/Users/imashio/Electronics/ARM/_Library/u8x8_d_ssd1322.c **** 	  u8x8_cad_SendCmd(u8x8, 0x05c );	/* write to ram */
 201:/Users/imashio/Electronics/ARM/_Library/u8x8_d_ssd1322.c **** 	  
 202:/Users/imashio/Electronics/ARM/_Library/u8x8_d_ssd1322.c **** 	  u8x8_cad_SendData(u8x8, 32, u8x8_ssd1322_8to32(u8x8, ptr));
 203:/Users/imashio/Electronics/ARM/_Library/u8x8_d_ssd1322.c **** 	  
 204:/Users/imashio/Electronics/ARM/_Library/u8x8_d_ssd1322.c **** 	  ptr += 8;
 205:/Users/imashio/Electronics/ARM/_Library/u8x8_d_ssd1322.c **** 	  x += 2;
 206:/Users/imashio/Electronics/ARM/_Library/u8x8_d_ssd1322.c **** 	  c--;
 207:/Users/imashio/Electronics/ARM/_Library/u8x8_d_ssd1322.c **** 	} while( c > 0 );
 208:/Users/imashio/Electronics/ARM/_Library/u8x8_d_ssd1322.c **** 	
 209:/Users/imashio/Electronics/ARM/_Library/u8x8_d_ssd1322.c **** 	//x += 2;
 210:/Users/imashio/Electronics/ARM/_Library/u8x8_d_ssd1322.c **** 	arg_int--;
 211:/Users/imashio/Electronics/ARM/_Library/u8x8_d_ssd1322.c ****       } while( arg_int > 0 );
 212:/Users/imashio/Electronics/ARM/_Library/u8x8_d_ssd1322.c ****       
 213:/Users/imashio/Electronics/ARM/_Library/u8x8_d_ssd1322.c ****       u8x8_cad_EndTransfer(u8x8);
 214:/Users/imashio/Electronics/ARM/_Library/u8x8_d_ssd1322.c ****       break;
 215:/Users/imashio/Electronics/ARM/_Library/u8x8_d_ssd1322.c ****     default:
 216:/Users/imashio/Electronics/ARM/_Library/u8x8_d_ssd1322.c ****       return 0;
 315              		.loc 1 216 0
 316 0016 0020     		movs	r0, #0
 317              	.LVL46:
 318 0018 18E0     		b	.L31
 319              	.LVL47:
 320              	.L41:
 162:/Users/imashio/Electronics/ARM/_Library/u8x8_d_ssd1322.c **** 	u8x8_cad_SendSequence(u8x8, u8x8_d_ssd1322_powersave0_seq);
 321              		.loc 1 162 0
 322 001a 22B9     		cbnz	r2, .L35
 163:/Users/imashio/Electronics/ARM/_Library/u8x8_d_ssd1322.c ****       else
 323              		.loc 1 163 0
 324 001c 3149     		ldr	r1, .L42
 325              	.LVL48:
 326 001e FFF7FEFF 		bl	u8x8_cad_SendSequence
 327              	.LVL49:
 217:/Users/imashio/Electronics/ARM/_Library/u8x8_d_ssd1322.c ****   }
 218:/Users/imashio/Electronics/ARM/_Library/u8x8_d_ssd1322.c ****   return 1;
ARM GAS  /var/folders/v3/wysfpd052nz8jkbx04pk0ym80000gn/T//ccWqVvFB.s 			page 11


 328              		.loc 1 218 0
 329 0022 0120     		movs	r0, #1
 330 0024 12E0     		b	.L31
 331              	.LVL50:
 332              	.L35:
 165:/Users/imashio/Electronics/ARM/_Library/u8x8_d_ssd1322.c ****       break;
 333              		.loc 1 165 0
 334 0026 3049     		ldr	r1, .L42+4
 335              	.LVL51:
 336 0028 FFF7FEFF 		bl	u8x8_cad_SendSequence
 337              	.LVL52:
 338              		.loc 1 218 0
 339 002c 0120     		movs	r0, #1
 340 002e 0DE0     		b	.L31
 341              	.LVL53:
 342              	.L32:
 169:/Users/imashio/Electronics/ARM/_Library/u8x8_d_ssd1322.c ****       u8x8_cad_SendCmd(u8x8, 0x0C1 );
 343              		.loc 1 169 0
 344 0030 FFF7FEFF 		bl	u8x8_cad_StartTransfer
 345              	.LVL54:
 170:/Users/imashio/Electronics/ARM/_Library/u8x8_d_ssd1322.c ****       u8x8_cad_SendArg(u8x8, arg_int );	/* ssd1322 has range from 0 to 255 */
 346              		.loc 1 170 0
 347 0034 C121     		movs	r1, #193
 348 0036 2046     		mov	r0, r4
 349 0038 FFF7FEFF 		bl	u8x8_cad_SendCmd
 350              	.LVL55:
 171:/Users/imashio/Electronics/ARM/_Library/u8x8_d_ssd1322.c ****       u8x8_cad_EndTransfer(u8x8);
 351              		.loc 1 171 0
 352 003c 4146     		mov	r1, r8
 353 003e 2046     		mov	r0, r4
 354 0040 FFF7FEFF 		bl	u8x8_cad_SendArg
 355              	.LVL56:
 172:/Users/imashio/Electronics/ARM/_Library/u8x8_d_ssd1322.c ****       break;
 356              		.loc 1 172 0
 357 0044 2046     		mov	r0, r4
 358 0046 FFF7FEFF 		bl	u8x8_cad_EndTransfer
 359              	.LVL57:
 360              		.loc 1 218 0
 361 004a 0120     		movs	r0, #1
 362              	.LVL58:
 363              	.L31:
 219:/Users/imashio/Electronics/ARM/_Library/u8x8_d_ssd1322.c **** }
 364              		.loc 1 219 0
 365 004c BDE8F883 		pop	{r3, r4, r5, r6, r7, r8, r9, pc}
 366              	.LVL59:
 367              	.L33:
 176:/Users/imashio/Electronics/ARM/_Library/u8x8_d_ssd1322.c ****       x = ((u8x8_tile_t *)arg_ptr)->x_pos;    
 368              		.loc 1 176 0
 369 0050 FFF7FEFF 		bl	u8x8_cad_StartTransfer
 370              	.LVL60:
 177:/Users/imashio/Electronics/ARM/_Library/u8x8_d_ssd1322.c ****       x *= 2;		// only every 4th col can be addressed
 371              		.loc 1 177 0
 372 0054 99F80530 		ldrb	r3, [r9, #5]	@ zero_extendqisi2
 373              	.LVL61:
 178:/Users/imashio/Electronics/ARM/_Library/u8x8_d_ssd1322.c ****       x += u8x8->x_offset;		
 374              		.loc 1 178 0
 375 0058 5B00     		lsls	r3, r3, #1
ARM GAS  /var/folders/v3/wysfpd052nz8jkbx04pk0ym80000gn/T//ccWqVvFB.s 			page 12


 376              	.LVL62:
 377 005a DBB2     		uxtb	r3, r3
 378              	.LVL63:
 179:/Users/imashio/Electronics/ARM/_Library/u8x8_d_ssd1322.c ****     
 379              		.loc 1 179 0
 380 005c A57F     		ldrb	r5, [r4, #30]	@ zero_extendqisi2
 381 005e 1D44     		add	r5, r5, r3
 382 0060 EDB2     		uxtb	r5, r5
 383              	.LVL64:
 181:/Users/imashio/Electronics/ARM/_Library/u8x8_d_ssd1322.c ****       y *= 8;
 384              		.loc 1 181 0
 385 0062 99F80660 		ldrb	r6, [r9, #6]	@ zero_extendqisi2
 386              	.LVL65:
 182:/Users/imashio/Electronics/ARM/_Library/u8x8_d_ssd1322.c ****     
 387              		.loc 1 182 0
 388 0066 F600     		lsls	r6, r6, #3
 389              	.LVL66:
 390 0068 F6B2     		uxtb	r6, r6
 391              	.LVL67:
 185:/Users/imashio/Electronics/ARM/_Library/u8x8_d_ssd1322.c ****       u8x8_cad_SendArg(u8x8, y);
 392              		.loc 1 185 0
 393 006a 7521     		movs	r1, #117
 394 006c 2046     		mov	r0, r4
 395 006e FFF7FEFF 		bl	u8x8_cad_SendCmd
 396              	.LVL68:
 186:/Users/imashio/Electronics/ARM/_Library/u8x8_d_ssd1322.c ****       u8x8_cad_SendArg(u8x8, y+7);
 397              		.loc 1 186 0
 398 0072 3146     		mov	r1, r6
 399 0074 2046     		mov	r0, r4
 400 0076 FFF7FEFF 		bl	u8x8_cad_SendArg
 401              	.LVL69:
 187:/Users/imashio/Electronics/ARM/_Library/u8x8_d_ssd1322.c ****       
 402              		.loc 1 187 0
 403 007a F11D     		adds	r1, r6, #7
 404 007c C9B2     		uxtb	r1, r1
 405 007e 2046     		mov	r0, r4
 406 0080 FFF7FEFF 		bl	u8x8_cad_SendArg
 407              	.LVL70:
 408              	.L37:
 191:/Users/imashio/Electronics/ARM/_Library/u8x8_d_ssd1322.c **** 	ptr = ((u8x8_tile_t *)arg_ptr)->tile_ptr;
 409              		.loc 1 191 0
 410 0084 99F80460 		ldrb	r6, [r9, #4]	@ zero_extendqisi2
 411              	.LVL71:
 192:/Users/imashio/Electronics/ARM/_Library/u8x8_d_ssd1322.c **** 
 412              		.loc 1 192 0
 413 0088 D9F80070 		ldr	r7, [r9]
 414              	.LVL72:
 415              	.L36:
 196:/Users/imashio/Electronics/ARM/_Library/u8x8_d_ssd1322.c **** 	  u8x8_cad_SendArg(u8x8, x );	/* start */
 416              		.loc 1 196 0 discriminator 1
 417 008c 1521     		movs	r1, #21
 418 008e 2046     		mov	r0, r4
 419 0090 FFF7FEFF 		bl	u8x8_cad_SendCmd
 420              	.LVL73:
 197:/Users/imashio/Electronics/ARM/_Library/u8x8_d_ssd1322.c **** 	  u8x8_cad_SendArg(u8x8, x+1 );	/* end */
 421              		.loc 1 197 0 discriminator 1
 422 0094 2946     		mov	r1, r5
ARM GAS  /var/folders/v3/wysfpd052nz8jkbx04pk0ym80000gn/T//ccWqVvFB.s 			page 13


 423 0096 2046     		mov	r0, r4
 424 0098 FFF7FEFF 		bl	u8x8_cad_SendArg
 425              	.LVL74:
 198:/Users/imashio/Electronics/ARM/_Library/u8x8_d_ssd1322.c **** 
 426              		.loc 1 198 0 discriminator 1
 427 009c 691C     		adds	r1, r5, #1
 428 009e C9B2     		uxtb	r1, r1
 429 00a0 2046     		mov	r0, r4
 430 00a2 FFF7FEFF 		bl	u8x8_cad_SendArg
 431              	.LVL75:
 200:/Users/imashio/Electronics/ARM/_Library/u8x8_d_ssd1322.c **** 	  
 432              		.loc 1 200 0 discriminator 1
 433 00a6 5C21     		movs	r1, #92
 434 00a8 2046     		mov	r0, r4
 435 00aa FFF7FEFF 		bl	u8x8_cad_SendCmd
 436              	.LVL76:
 202:/Users/imashio/Electronics/ARM/_Library/u8x8_d_ssd1322.c **** 	  
 437              		.loc 1 202 0 discriminator 1
 438 00ae 3946     		mov	r1, r7
 439 00b0 2046     		mov	r0, r4
 440 00b2 FFF7FEFF 		bl	u8x8_ssd1322_8to32
 441              	.LVL77:
 442 00b6 0246     		mov	r2, r0
 443 00b8 2021     		movs	r1, #32
 444 00ba 2046     		mov	r0, r4
 445 00bc FFF7FEFF 		bl	u8x8_cad_SendData
 446              	.LVL78:
 204:/Users/imashio/Electronics/ARM/_Library/u8x8_d_ssd1322.c **** 	  x += 2;
 447              		.loc 1 204 0 discriminator 1
 448 00c0 0837     		adds	r7, r7, #8
 449              	.LVL79:
 205:/Users/imashio/Electronics/ARM/_Library/u8x8_d_ssd1322.c **** 	  c--;
 450              		.loc 1 205 0 discriminator 1
 451 00c2 0235     		adds	r5, r5, #2
 452              	.LVL80:
 453 00c4 EDB2     		uxtb	r5, r5
 454              	.LVL81:
 206:/Users/imashio/Electronics/ARM/_Library/u8x8_d_ssd1322.c **** 	} while( c > 0 );
 455              		.loc 1 206 0 discriminator 1
 456 00c6 731E     		subs	r3, r6, #1
 457              	.LVL82:
 207:/Users/imashio/Electronics/ARM/_Library/u8x8_d_ssd1322.c **** 	
 458              		.loc 1 207 0 discriminator 1
 459 00c8 13F0FF06 		ands	r6, r3, #255
 460 00cc DED1     		bne	.L36
 210:/Users/imashio/Electronics/ARM/_Library/u8x8_d_ssd1322.c ****       } while( arg_int > 0 );
 461              		.loc 1 210 0
 462 00ce 08F1FF38 		add	r8, r8, #-1
 463              	.LVL83:
 211:/Users/imashio/Electronics/ARM/_Library/u8x8_d_ssd1322.c ****       
 464              		.loc 1 211 0
 465 00d2 18F0FF08 		ands	r8, r8, #255
 466              	.LVL84:
 467 00d6 D5D1     		bne	.L37
 213:/Users/imashio/Electronics/ARM/_Library/u8x8_d_ssd1322.c ****       break;
 468              		.loc 1 213 0
 469 00d8 2046     		mov	r0, r4
ARM GAS  /var/folders/v3/wysfpd052nz8jkbx04pk0ym80000gn/T//ccWqVvFB.s 			page 14


 470 00da FFF7FEFF 		bl	u8x8_cad_EndTransfer
 471              	.LVL85:
 218:/Users/imashio/Electronics/ARM/_Library/u8x8_d_ssd1322.c **** }
 472              		.loc 1 218 0
 473 00de 0120     		movs	r0, #1
 214:/Users/imashio/Electronics/ARM/_Library/u8x8_d_ssd1322.c ****     default:
 474              		.loc 1 214 0
 475 00e0 B4E7     		b	.L31
 476              	.L43:
 477 00e2 00BF     		.align	2
 478              	.L42:
 479 00e4 00000000 		.word	.LANCHOR3
 480 00e8 00000000 		.word	.LANCHOR4
 481              		.cfi_endproc
 482              	.LFE3:
 484              		.section	.text.u8x8_d_ssd1322_nhd_256x64,"ax",%progbits
 485              		.align	1
 486              		.global	u8x8_d_ssd1322_nhd_256x64
 487              		.syntax unified
 488              		.thumb
 489              		.thumb_func
 490              		.fpu fpv4-sp-d16
 492              	u8x8_d_ssd1322_nhd_256x64:
 493              	.LFB4:
 220:/Users/imashio/Electronics/ARM/_Library/u8x8_d_ssd1322.c **** 
 221:/Users/imashio/Electronics/ARM/_Library/u8x8_d_ssd1322.c **** /*=========================================================*/
 222:/Users/imashio/Electronics/ARM/_Library/u8x8_d_ssd1322.c **** 
 223:/Users/imashio/Electronics/ARM/_Library/u8x8_d_ssd1322.c **** static const uint8_t u8x8_d_ssd1322_256x64_flip0_seq[] = {
 224:/Users/imashio/Electronics/ARM/_Library/u8x8_d_ssd1322.c ****   U8X8_START_TRANSFER(),             	/* enable chip, delay is part of the transfer start */
 225:/Users/imashio/Electronics/ARM/_Library/u8x8_d_ssd1322.c ****   U8X8_CAA(0x0a0, 0x006, 0x011),		/* remap */
 226:/Users/imashio/Electronics/ARM/_Library/u8x8_d_ssd1322.c ****   U8X8_END_TRANSFER(),             	/* disable chip */
 227:/Users/imashio/Electronics/ARM/_Library/u8x8_d_ssd1322.c ****   U8X8_END()             			/* end of sequence */
 228:/Users/imashio/Electronics/ARM/_Library/u8x8_d_ssd1322.c **** };
 229:/Users/imashio/Electronics/ARM/_Library/u8x8_d_ssd1322.c **** 
 230:/Users/imashio/Electronics/ARM/_Library/u8x8_d_ssd1322.c **** static const uint8_t u8x8_d_ssd1322_256x64_flip1_seq[] = {
 231:/Users/imashio/Electronics/ARM/_Library/u8x8_d_ssd1322.c ****   U8X8_START_TRANSFER(),             	/* enable chip, delay is part of the transfer start */
 232:/Users/imashio/Electronics/ARM/_Library/u8x8_d_ssd1322.c ****   U8X8_CAA(0x0a0, 0x014, 0x011),		/* remap */
 233:/Users/imashio/Electronics/ARM/_Library/u8x8_d_ssd1322.c ****   U8X8_END_TRANSFER(),             	/* disable chip */
 234:/Users/imashio/Electronics/ARM/_Library/u8x8_d_ssd1322.c ****   U8X8_END()             			/* end of sequence */
 235:/Users/imashio/Electronics/ARM/_Library/u8x8_d_ssd1322.c **** };
 236:/Users/imashio/Electronics/ARM/_Library/u8x8_d_ssd1322.c **** 
 237:/Users/imashio/Electronics/ARM/_Library/u8x8_d_ssd1322.c **** static const u8x8_display_info_t u8x8_ssd1322_256x64_display_info =
 238:/Users/imashio/Electronics/ARM/_Library/u8x8_d_ssd1322.c **** {
 239:/Users/imashio/Electronics/ARM/_Library/u8x8_d_ssd1322.c ****   /* chip_enable_level = */ 0,
 240:/Users/imashio/Electronics/ARM/_Library/u8x8_d_ssd1322.c ****   /* chip_disable_level = */ 1,
 241:/Users/imashio/Electronics/ARM/_Library/u8x8_d_ssd1322.c ****   
 242:/Users/imashio/Electronics/ARM/_Library/u8x8_d_ssd1322.c ****   /* post_chip_enable_wait_ns = */ 20,
 243:/Users/imashio/Electronics/ARM/_Library/u8x8_d_ssd1322.c ****   /* pre_chip_disable_wait_ns = */ 10,
 244:/Users/imashio/Electronics/ARM/_Library/u8x8_d_ssd1322.c ****   /* reset_pulse_width_ms = */ 100, 	/* SSD1322: 2 us */
 245:/Users/imashio/Electronics/ARM/_Library/u8x8_d_ssd1322.c ****   /* post_reset_wait_ms = */ 100, /* far east OLEDs need much longer setup time */
 246:/Users/imashio/Electronics/ARM/_Library/u8x8_d_ssd1322.c ****   /* sda_setup_time_ns = */ 50,		/* SSD1322: 15ns, but cycle time is 100ns, so use 100/2 */
 247:/Users/imashio/Electronics/ARM/_Library/u8x8_d_ssd1322.c ****   /* sck_pulse_width_ns = */ 50,	/* SSD1322: 20ns, but cycle time is 100ns, so use 100/2, AVR: belo
 248:/Users/imashio/Electronics/ARM/_Library/u8x8_d_ssd1322.c ****   /* sck_clock_hz = */ 10000000UL,	/* since Arduino 1.6.0, the SPI bus speed in Hz. Should be  1000
 249:/Users/imashio/Electronics/ARM/_Library/u8x8_d_ssd1322.c ****   /* spi_mode = */ 0,		/* active high, rising edge */
 250:/Users/imashio/Electronics/ARM/_Library/u8x8_d_ssd1322.c ****   /* i2c_bus_clock_100kHz = */ 4,
 251:/Users/imashio/Electronics/ARM/_Library/u8x8_d_ssd1322.c ****   /* data_setup_time_ns = */ 10,
 252:/Users/imashio/Electronics/ARM/_Library/u8x8_d_ssd1322.c ****   /* write_pulse_width_ns = */ 150,	/* SSD1322: cycle time is 300ns, so use 300/2 = 150 */
ARM GAS  /var/folders/v3/wysfpd052nz8jkbx04pk0ym80000gn/T//ccWqVvFB.s 			page 15


 253:/Users/imashio/Electronics/ARM/_Library/u8x8_d_ssd1322.c ****   /* tile_width = */ 32,		/* 256 pixel, so we require 32 bytes for this */
 254:/Users/imashio/Electronics/ARM/_Library/u8x8_d_ssd1322.c ****   /* tile_hight = */ 8,
 255:/Users/imashio/Electronics/ARM/_Library/u8x8_d_ssd1322.c ****   /* default_x_offset = */ 0x01c,	/* this is the byte offset (there are two pixel per byte with 4 b
 256:/Users/imashio/Electronics/ARM/_Library/u8x8_d_ssd1322.c ****   /* flipmode_x_offset = */ 0x01c,
 257:/Users/imashio/Electronics/ARM/_Library/u8x8_d_ssd1322.c ****   /* pixel_width = */ 256,
 258:/Users/imashio/Electronics/ARM/_Library/u8x8_d_ssd1322.c ****   /* pixel_height = */ 64
 259:/Users/imashio/Electronics/ARM/_Library/u8x8_d_ssd1322.c **** };
 260:/Users/imashio/Electronics/ARM/_Library/u8x8_d_ssd1322.c **** 
 261:/Users/imashio/Electronics/ARM/_Library/u8x8_d_ssd1322.c **** 
 262:/Users/imashio/Electronics/ARM/_Library/u8x8_d_ssd1322.c **** static const uint8_t u8x8_d_ssd1322_256x64_init_seq[] = {
 263:/Users/imashio/Electronics/ARM/_Library/u8x8_d_ssd1322.c ****     
 264:/Users/imashio/Electronics/ARM/_Library/u8x8_d_ssd1322.c ****   U8X8_DLY(1),
 265:/Users/imashio/Electronics/ARM/_Library/u8x8_d_ssd1322.c ****   U8X8_START_TRANSFER(),             	/* enable chip, delay is part of the transfer start */
 266:/Users/imashio/Electronics/ARM/_Library/u8x8_d_ssd1322.c ****   U8X8_DLY(1),
 267:/Users/imashio/Electronics/ARM/_Library/u8x8_d_ssd1322.c ****   
 268:/Users/imashio/Electronics/ARM/_Library/u8x8_d_ssd1322.c ****   U8X8_CA(0xfd, 0x12),            	/* unlock */
 269:/Users/imashio/Electronics/ARM/_Library/u8x8_d_ssd1322.c ****   U8X8_C(0xae),		                /* display off */
 270:/Users/imashio/Electronics/ARM/_Library/u8x8_d_ssd1322.c ****   U8X8_CA(0xb3, 0x91),			/* set display clock divide ratio/oscillator frequency (set clock as 80 fr
 271:/Users/imashio/Electronics/ARM/_Library/u8x8_d_ssd1322.c ****   U8X8_CA(0xca, 0x3f),			/* multiplex ratio 1/64 Duty (0x0F~0x3F) */  
 272:/Users/imashio/Electronics/ARM/_Library/u8x8_d_ssd1322.c ****   U8X8_CA(0xa2, 0x00),			/* display offset, shift mapping ram counter */  
 273:/Users/imashio/Electronics/ARM/_Library/u8x8_d_ssd1322.c ****   U8X8_CA(0xa1, 0x00),			/* display start line */  
 274:/Users/imashio/Electronics/ARM/_Library/u8x8_d_ssd1322.c ****   //U8X8_CAA(0xa0, 0x14, 0x11),	/* Set Re-Map / Dual COM Line Mode */  
 275:/Users/imashio/Electronics/ARM/_Library/u8x8_d_ssd1322.c ****   U8X8_CAA(0xa0, 0x06, 0x011),	/* Set Re-Map / Dual COM Line Mode */  
 276:/Users/imashio/Electronics/ARM/_Library/u8x8_d_ssd1322.c ****   U8X8_CA(0xab, 0x01),			/* Enable Internal VDD Regulator */  
 277:/Users/imashio/Electronics/ARM/_Library/u8x8_d_ssd1322.c ****   U8X8_CAA(0xb4, 0xa0, 0x005|0x0fd),	/* Display Enhancement A */  
 278:/Users/imashio/Electronics/ARM/_Library/u8x8_d_ssd1322.c ****   U8X8_CA(0xc1, 0x9f),			/* contrast */  
 279:/Users/imashio/Electronics/ARM/_Library/u8x8_d_ssd1322.c ****   U8X8_CA(0xc7, 0x0f),			/* Set Scale Factor of Segment Output Current Control */  
 280:/Users/imashio/Electronics/ARM/_Library/u8x8_d_ssd1322.c ****   U8X8_C(0xb9),		                /* linear grayscale */
 281:/Users/imashio/Electronics/ARM/_Library/u8x8_d_ssd1322.c ****   U8X8_CA(0xb1, 0xe2),			/* Phase 1 (Reset) & Phase 2 (Pre-Charge) Period Adjustment */  
 282:/Users/imashio/Electronics/ARM/_Library/u8x8_d_ssd1322.c ****   U8X8_CAA(0xd1, 0x082|0x020, 0x020),	/* Display Enhancement B */  
 283:/Users/imashio/Electronics/ARM/_Library/u8x8_d_ssd1322.c ****   U8X8_CA(0xbb, 0x1f),			/* precharge  voltage */  
 284:/Users/imashio/Electronics/ARM/_Library/u8x8_d_ssd1322.c ****   U8X8_CA(0xb6, 0x08),			/* precharge  period */  
 285:/Users/imashio/Electronics/ARM/_Library/u8x8_d_ssd1322.c ****   U8X8_CA(0xbe, 0x07),			/* vcomh */  
 286:/Users/imashio/Electronics/ARM/_Library/u8x8_d_ssd1322.c ****   U8X8_C(0xa6),		                /* normal display */
 287:/Users/imashio/Electronics/ARM/_Library/u8x8_d_ssd1322.c ****   U8X8_C(0xa9),		                /* exit partial display */
 288:/Users/imashio/Electronics/ARM/_Library/u8x8_d_ssd1322.c **** 
 289:/Users/imashio/Electronics/ARM/_Library/u8x8_d_ssd1322.c **** 
 290:/Users/imashio/Electronics/ARM/_Library/u8x8_d_ssd1322.c ****   U8X8_DLY(1),					/* delay 2ms */
 291:/Users/imashio/Electronics/ARM/_Library/u8x8_d_ssd1322.c **** 
 292:/Users/imashio/Electronics/ARM/_Library/u8x8_d_ssd1322.c ****   
 293:/Users/imashio/Electronics/ARM/_Library/u8x8_d_ssd1322.c ****   U8X8_END_TRANSFER(),             	/* disable chip */
 294:/Users/imashio/Electronics/ARM/_Library/u8x8_d_ssd1322.c ****   U8X8_END()             			/* end of sequence */
 295:/Users/imashio/Electronics/ARM/_Library/u8x8_d_ssd1322.c **** };
 296:/Users/imashio/Electronics/ARM/_Library/u8x8_d_ssd1322.c **** 
 297:/Users/imashio/Electronics/ARM/_Library/u8x8_d_ssd1322.c **** 
 298:/Users/imashio/Electronics/ARM/_Library/u8x8_d_ssd1322.c **** uint8_t u8x8_d_ssd1322_nhd_256x64(u8x8_t *u8x8, uint8_t msg, uint8_t arg_int, void *arg_ptr)
 299:/Users/imashio/Electronics/ARM/_Library/u8x8_d_ssd1322.c **** {
 494              		.loc 1 299 0
 495              		.cfi_startproc
 496              		@ args = 0, pretend = 0, frame = 0
 497              		@ frame_needed = 0, uses_anonymous_args = 0
 498              	.LVL86:
 499 0000 10B5     		push	{r4, lr}
 500              	.LCFI6:
 501              		.cfi_def_cfa_offset 8
 502              		.cfi_offset 4, -8
 503              		.cfi_offset 14, -4
ARM GAS  /var/folders/v3/wysfpd052nz8jkbx04pk0ym80000gn/T//ccWqVvFB.s 			page 16


 504 0002 0446     		mov	r4, r0
 300:/Users/imashio/Electronics/ARM/_Library/u8x8_d_ssd1322.c ****   switch(msg)
 505              		.loc 1 300 0
 506 0004 0A29     		cmp	r1, #10
 507 0006 0BD0     		beq	.L46
 508 0008 0D29     		cmp	r1, #13
 509 000a 11D0     		beq	.L47
 510 000c 0929     		cmp	r1, #9
 511 000e 02D0     		beq	.L53
 301:/Users/imashio/Electronics/ARM/_Library/u8x8_d_ssd1322.c ****   {
 302:/Users/imashio/Electronics/ARM/_Library/u8x8_d_ssd1322.c ****     case U8X8_MSG_DISPLAY_SETUP_MEMORY:
 303:/Users/imashio/Electronics/ARM/_Library/u8x8_d_ssd1322.c ****       u8x8_d_helper_display_setup_memory(u8x8, &u8x8_ssd1322_256x64_display_info);
 304:/Users/imashio/Electronics/ARM/_Library/u8x8_d_ssd1322.c ****       break;
 305:/Users/imashio/Electronics/ARM/_Library/u8x8_d_ssd1322.c ****     case U8X8_MSG_DISPLAY_INIT:
 306:/Users/imashio/Electronics/ARM/_Library/u8x8_d_ssd1322.c ****       u8x8_d_helper_display_init(u8x8);
 307:/Users/imashio/Electronics/ARM/_Library/u8x8_d_ssd1322.c ****       u8x8_cad_SendSequence(u8x8, u8x8_d_ssd1322_256x64_init_seq);
 308:/Users/imashio/Electronics/ARM/_Library/u8x8_d_ssd1322.c ****       break;
 309:/Users/imashio/Electronics/ARM/_Library/u8x8_d_ssd1322.c ****     case U8X8_MSG_DISPLAY_SET_FLIP_MODE:
 310:/Users/imashio/Electronics/ARM/_Library/u8x8_d_ssd1322.c ****       if ( arg_int == 0 )
 311:/Users/imashio/Electronics/ARM/_Library/u8x8_d_ssd1322.c ****       {
 312:/Users/imashio/Electronics/ARM/_Library/u8x8_d_ssd1322.c **** 	u8x8_cad_SendSequence(u8x8, u8x8_d_ssd1322_256x64_flip0_seq);
 313:/Users/imashio/Electronics/ARM/_Library/u8x8_d_ssd1322.c **** 	u8x8->x_offset = u8x8->display_info->default_x_offset;
 314:/Users/imashio/Electronics/ARM/_Library/u8x8_d_ssd1322.c ****       }
 315:/Users/imashio/Electronics/ARM/_Library/u8x8_d_ssd1322.c ****       else
 316:/Users/imashio/Electronics/ARM/_Library/u8x8_d_ssd1322.c ****       {
 317:/Users/imashio/Electronics/ARM/_Library/u8x8_d_ssd1322.c **** 	u8x8_cad_SendSequence(u8x8, u8x8_d_ssd1322_256x64_flip1_seq);
 318:/Users/imashio/Electronics/ARM/_Library/u8x8_d_ssd1322.c **** 	u8x8->x_offset = u8x8->display_info->flipmode_x_offset;
 319:/Users/imashio/Electronics/ARM/_Library/u8x8_d_ssd1322.c ****       }
 320:/Users/imashio/Electronics/ARM/_Library/u8x8_d_ssd1322.c ****       break;
 321:/Users/imashio/Electronics/ARM/_Library/u8x8_d_ssd1322.c ****     
 322:/Users/imashio/Electronics/ARM/_Library/u8x8_d_ssd1322.c ****     default:
 323:/Users/imashio/Electronics/ARM/_Library/u8x8_d_ssd1322.c ****       return u8x8_d_ssd1322_common(u8x8, msg, arg_int, arg_ptr);
 512              		.loc 1 323 0
 513 0010 FFF7FEFF 		bl	u8x8_d_ssd1322_common
 514              	.LVL87:
 515 0014 03E0     		b	.L49
 516              	.LVL88:
 517              	.L53:
 303:/Users/imashio/Electronics/ARM/_Library/u8x8_d_ssd1322.c ****       break;
 518              		.loc 1 303 0
 519 0016 0F49     		ldr	r1, .L54
 520              	.LVL89:
 521 0018 FFF7FEFF 		bl	u8x8_d_helper_display_setup_memory
 522              	.LVL90:
 324:/Users/imashio/Electronics/ARM/_Library/u8x8_d_ssd1322.c ****   }
 325:/Users/imashio/Electronics/ARM/_Library/u8x8_d_ssd1322.c ****   return 1;
 523              		.loc 1 325 0
 524 001c 0120     		movs	r0, #1
 525              	.L49:
 326:/Users/imashio/Electronics/ARM/_Library/u8x8_d_ssd1322.c **** }
 526              		.loc 1 326 0
 527 001e 10BD     		pop	{r4, pc}
 528              	.LVL91:
 529              	.L46:
 306:/Users/imashio/Electronics/ARM/_Library/u8x8_d_ssd1322.c ****       u8x8_cad_SendSequence(u8x8, u8x8_d_ssd1322_256x64_init_seq);
 530              		.loc 1 306 0
 531 0020 FFF7FEFF 		bl	u8x8_d_helper_display_init
ARM GAS  /var/folders/v3/wysfpd052nz8jkbx04pk0ym80000gn/T//ccWqVvFB.s 			page 17


 532              	.LVL92:
 307:/Users/imashio/Electronics/ARM/_Library/u8x8_d_ssd1322.c ****       break;
 533              		.loc 1 307 0
 534 0024 0C49     		ldr	r1, .L54+4
 535 0026 2046     		mov	r0, r4
 536 0028 FFF7FEFF 		bl	u8x8_cad_SendSequence
 537              	.LVL93:
 325:/Users/imashio/Electronics/ARM/_Library/u8x8_d_ssd1322.c **** }
 538              		.loc 1 325 0
 539 002c 0120     		movs	r0, #1
 308:/Users/imashio/Electronics/ARM/_Library/u8x8_d_ssd1322.c ****     case U8X8_MSG_DISPLAY_SET_FLIP_MODE:
 540              		.loc 1 308 0
 541 002e F6E7     		b	.L49
 542              	.LVL94:
 543              	.L47:
 310:/Users/imashio/Electronics/ARM/_Library/u8x8_d_ssd1322.c ****       {
 544              		.loc 1 310 0
 545 0030 3AB9     		cbnz	r2, .L50
 312:/Users/imashio/Electronics/ARM/_Library/u8x8_d_ssd1322.c **** 	u8x8->x_offset = u8x8->display_info->default_x_offset;
 546              		.loc 1 312 0
 547 0032 0A49     		ldr	r1, .L54+8
 548              	.LVL95:
 549 0034 FFF7FEFF 		bl	u8x8_cad_SendSequence
 550              	.LVL96:
 313:/Users/imashio/Electronics/ARM/_Library/u8x8_d_ssd1322.c ****       }
 551              		.loc 1 313 0
 552 0038 2368     		ldr	r3, [r4]
 553 003a 9B7C     		ldrb	r3, [r3, #18]	@ zero_extendqisi2
 554 003c A377     		strb	r3, [r4, #30]
 325:/Users/imashio/Electronics/ARM/_Library/u8x8_d_ssd1322.c **** }
 555              		.loc 1 325 0
 556 003e 0120     		movs	r0, #1
 557 0040 EDE7     		b	.L49
 558              	.LVL97:
 559              	.L50:
 317:/Users/imashio/Electronics/ARM/_Library/u8x8_d_ssd1322.c **** 	u8x8->x_offset = u8x8->display_info->flipmode_x_offset;
 560              		.loc 1 317 0
 561 0042 0749     		ldr	r1, .L54+12
 562              	.LVL98:
 563 0044 FFF7FEFF 		bl	u8x8_cad_SendSequence
 564              	.LVL99:
 318:/Users/imashio/Electronics/ARM/_Library/u8x8_d_ssd1322.c ****       }
 565              		.loc 1 318 0
 566 0048 2368     		ldr	r3, [r4]
 567 004a DB7C     		ldrb	r3, [r3, #19]	@ zero_extendqisi2
 568 004c A377     		strb	r3, [r4, #30]
 325:/Users/imashio/Electronics/ARM/_Library/u8x8_d_ssd1322.c **** }
 569              		.loc 1 325 0
 570 004e 0120     		movs	r0, #1
 571 0050 E5E7     		b	.L49
 572              	.L55:
 573 0052 00BF     		.align	2
 574              	.L54:
 575 0054 00000000 		.word	.LANCHOR5
 576 0058 00000000 		.word	.LANCHOR6
 577 005c 00000000 		.word	.LANCHOR7
 578 0060 00000000 		.word	.LANCHOR8
ARM GAS  /var/folders/v3/wysfpd052nz8jkbx04pk0ym80000gn/T//ccWqVvFB.s 			page 18


 579              		.cfi_endproc
 580              	.LFE4:
 582              		.section	.text.u8x8_d_ssd1322_common2,"ax",%progbits
 583              		.align	1
 584              		.global	u8x8_d_ssd1322_common2
 585              		.syntax unified
 586              		.thumb
 587              		.thumb_func
 588              		.fpu fpv4-sp-d16
 590              	u8x8_d_ssd1322_common2:
 591              	.LFB5:
 327:/Users/imashio/Electronics/ARM/_Library/u8x8_d_ssd1322.c **** 
 328:/Users/imashio/Electronics/ARM/_Library/u8x8_d_ssd1322.c **** /*=========================================================*/
 329:/Users/imashio/Electronics/ARM/_Library/u8x8_d_ssd1322.c **** /* 
 330:/Users/imashio/Electronics/ARM/_Library/u8x8_d_ssd1322.c ****   NHD-2.7-12864WDW3-M 
 331:/Users/imashio/Electronics/ARM/_Library/u8x8_d_ssd1322.c ****   http://www.newhavendisplay.com/nhd2712864wdw3m-p-9546.html
 332:/Users/imashio/Electronics/ARM/_Library/u8x8_d_ssd1322.c ****   http://www.newhavendisplay.com/specs/NHD-2.7-12864WDW3-M.pdf
 333:/Users/imashio/Electronics/ARM/_Library/u8x8_d_ssd1322.c **** 
 334:/Users/imashio/Electronics/ARM/_Library/u8x8_d_ssd1322.c ****   It looks like that only every second pixel is connected to the OLED
 335:/Users/imashio/Electronics/ARM/_Library/u8x8_d_ssd1322.c **** */
 336:/Users/imashio/Electronics/ARM/_Library/u8x8_d_ssd1322.c **** 
 337:/Users/imashio/Electronics/ARM/_Library/u8x8_d_ssd1322.c **** uint8_t u8x8_d_ssd1322_common2(u8x8_t *u8x8, uint8_t msg, uint8_t arg_int, void *arg_ptr)
 338:/Users/imashio/Electronics/ARM/_Library/u8x8_d_ssd1322.c **** {
 592              		.loc 1 338 0
 593              		.cfi_startproc
 594              		@ args = 0, pretend = 0, frame = 0
 595              		@ frame_needed = 0, uses_anonymous_args = 0
 596              	.LVL100:
 597 0000 2DE9F84F 		push	{r3, r4, r5, r6, r7, r8, r9, r10, fp, lr}
 598              	.LCFI7:
 599              		.cfi_def_cfa_offset 40
 600              		.cfi_offset 3, -40
 601              		.cfi_offset 4, -36
 602              		.cfi_offset 5, -32
 603              		.cfi_offset 6, -28
 604              		.cfi_offset 7, -24
 605              		.cfi_offset 8, -20
 606              		.cfi_offset 9, -16
 607              		.cfi_offset 10, -12
 608              		.cfi_offset 11, -8
 609              		.cfi_offset 14, -4
 610 0004 0446     		mov	r4, r0
 611 0006 9246     		mov	r10, r2
 339:/Users/imashio/Electronics/ARM/_Library/u8x8_d_ssd1322.c ****   uint8_t x; 
 340:/Users/imashio/Electronics/ARM/_Library/u8x8_d_ssd1322.c ****   uint8_t y, c;
 341:/Users/imashio/Electronics/ARM/_Library/u8x8_d_ssd1322.c ****   uint8_t *ptr;
 342:/Users/imashio/Electronics/ARM/_Library/u8x8_d_ssd1322.c ****   switch(msg)
 612              		.loc 1 342 0
 613 0008 0E29     		cmp	r1, #14
 614 000a 11D0     		beq	.L58
 615 000c 9B46     		mov	fp, r3
 616 000e 0F29     		cmp	r1, #15
 617 0010 1ED0     		beq	.L59
 618 0012 0B29     		cmp	r1, #11
 619 0014 01D0     		beq	.L67
 343:/Users/imashio/Electronics/ARM/_Library/u8x8_d_ssd1322.c ****   {
 344:/Users/imashio/Electronics/ARM/_Library/u8x8_d_ssd1322.c ****     /* U8X8_MSG_DISPLAY_SETUP_MEMORY is handled by the calling function */
ARM GAS  /var/folders/v3/wysfpd052nz8jkbx04pk0ym80000gn/T//ccWqVvFB.s 			page 19


 345:/Users/imashio/Electronics/ARM/_Library/u8x8_d_ssd1322.c ****     /*
 346:/Users/imashio/Electronics/ARM/_Library/u8x8_d_ssd1322.c ****     case U8X8_MSG_DISPLAY_SETUP_MEMORY:
 347:/Users/imashio/Electronics/ARM/_Library/u8x8_d_ssd1322.c ****       break;
 348:/Users/imashio/Electronics/ARM/_Library/u8x8_d_ssd1322.c ****     case U8X8_MSG_DISPLAY_INIT:
 349:/Users/imashio/Electronics/ARM/_Library/u8x8_d_ssd1322.c ****       u8x8_d_helper_display_init(u8x8);
 350:/Users/imashio/Electronics/ARM/_Library/u8x8_d_ssd1322.c ****       u8x8_cad_SendSequence(u8x8, u8x8_d_ssd1322_256x64_init_seq);
 351:/Users/imashio/Electronics/ARM/_Library/u8x8_d_ssd1322.c ****       break;
 352:/Users/imashio/Electronics/ARM/_Library/u8x8_d_ssd1322.c ****     */
 353:/Users/imashio/Electronics/ARM/_Library/u8x8_d_ssd1322.c ****     case U8X8_MSG_DISPLAY_SET_POWER_SAVE:
 354:/Users/imashio/Electronics/ARM/_Library/u8x8_d_ssd1322.c ****       if ( arg_int == 0 )
 355:/Users/imashio/Electronics/ARM/_Library/u8x8_d_ssd1322.c **** 	u8x8_cad_SendSequence(u8x8, u8x8_d_ssd1322_powersave0_seq);
 356:/Users/imashio/Electronics/ARM/_Library/u8x8_d_ssd1322.c ****       else
 357:/Users/imashio/Electronics/ARM/_Library/u8x8_d_ssd1322.c **** 	u8x8_cad_SendSequence(u8x8, u8x8_d_ssd1322_powersave1_seq);
 358:/Users/imashio/Electronics/ARM/_Library/u8x8_d_ssd1322.c ****       break;
 359:/Users/imashio/Electronics/ARM/_Library/u8x8_d_ssd1322.c **** #ifdef U8X8_WITH_SET_CONTRAST
 360:/Users/imashio/Electronics/ARM/_Library/u8x8_d_ssd1322.c ****     case U8X8_MSG_DISPLAY_SET_CONTRAST:
 361:/Users/imashio/Electronics/ARM/_Library/u8x8_d_ssd1322.c ****       u8x8_cad_StartTransfer(u8x8);
 362:/Users/imashio/Electronics/ARM/_Library/u8x8_d_ssd1322.c ****       u8x8_cad_SendCmd(u8x8, 0x0C1 );
 363:/Users/imashio/Electronics/ARM/_Library/u8x8_d_ssd1322.c ****       u8x8_cad_SendArg(u8x8, arg_int );	/* ssd1322 has range from 0 to 255 */
 364:/Users/imashio/Electronics/ARM/_Library/u8x8_d_ssd1322.c ****       u8x8_cad_EndTransfer(u8x8);
 365:/Users/imashio/Electronics/ARM/_Library/u8x8_d_ssd1322.c ****       break;
 366:/Users/imashio/Electronics/ARM/_Library/u8x8_d_ssd1322.c **** #endif
 367:/Users/imashio/Electronics/ARM/_Library/u8x8_d_ssd1322.c ****     case U8X8_MSG_DISPLAY_DRAW_TILE:
 368:/Users/imashio/Electronics/ARM/_Library/u8x8_d_ssd1322.c ****       u8x8_cad_StartTransfer(u8x8);
 369:/Users/imashio/Electronics/ARM/_Library/u8x8_d_ssd1322.c ****       x = ((u8x8_tile_t *)arg_ptr)->x_pos;    
 370:/Users/imashio/Electronics/ARM/_Library/u8x8_d_ssd1322.c ****       x *= 2;		// only every 4th col can be addressed
 371:/Users/imashio/Electronics/ARM/_Library/u8x8_d_ssd1322.c ****       x *= 2;		// only every second pixel is used in the 128x64 NHD OLED 
 372:/Users/imashio/Electronics/ARM/_Library/u8x8_d_ssd1322.c ****     
 373:/Users/imashio/Electronics/ARM/_Library/u8x8_d_ssd1322.c ****       x += u8x8->x_offset;
 374:/Users/imashio/Electronics/ARM/_Library/u8x8_d_ssd1322.c ****     
 375:/Users/imashio/Electronics/ARM/_Library/u8x8_d_ssd1322.c ****       y = (((u8x8_tile_t *)arg_ptr)->y_pos);
 376:/Users/imashio/Electronics/ARM/_Library/u8x8_d_ssd1322.c ****       y *= 8;
 377:/Users/imashio/Electronics/ARM/_Library/u8x8_d_ssd1322.c ****           
 378:/Users/imashio/Electronics/ARM/_Library/u8x8_d_ssd1322.c ****       u8x8_cad_SendCmd(u8x8, 0x075 );	/* set row address, moved out of the loop (issue 302) */
 379:/Users/imashio/Electronics/ARM/_Library/u8x8_d_ssd1322.c ****       u8x8_cad_SendArg(u8x8, y);
 380:/Users/imashio/Electronics/ARM/_Library/u8x8_d_ssd1322.c ****       u8x8_cad_SendArg(u8x8, y+7);
 381:/Users/imashio/Electronics/ARM/_Library/u8x8_d_ssd1322.c ****       
 382:/Users/imashio/Electronics/ARM/_Library/u8x8_d_ssd1322.c ****       do
 383:/Users/imashio/Electronics/ARM/_Library/u8x8_d_ssd1322.c ****       {
 384:/Users/imashio/Electronics/ARM/_Library/u8x8_d_ssd1322.c **** 	c = ((u8x8_tile_t *)arg_ptr)->cnt;
 385:/Users/imashio/Electronics/ARM/_Library/u8x8_d_ssd1322.c **** 	ptr = ((u8x8_tile_t *)arg_ptr)->tile_ptr;
 386:/Users/imashio/Electronics/ARM/_Library/u8x8_d_ssd1322.c **** 
 387:/Users/imashio/Electronics/ARM/_Library/u8x8_d_ssd1322.c **** 	do
 388:/Users/imashio/Electronics/ARM/_Library/u8x8_d_ssd1322.c **** 	{
 389:/Users/imashio/Electronics/ARM/_Library/u8x8_d_ssd1322.c **** 	  u8x8_cad_SendCmd(u8x8, 0x015 );	/* set column address */
 390:/Users/imashio/Electronics/ARM/_Library/u8x8_d_ssd1322.c **** 	  u8x8_cad_SendArg(u8x8, x );	/* start */
 391:/Users/imashio/Electronics/ARM/_Library/u8x8_d_ssd1322.c **** 	  u8x8_cad_SendArg(u8x8, x+1 );	/* end */
 392:/Users/imashio/Electronics/ARM/_Library/u8x8_d_ssd1322.c **** 	  u8x8_cad_SendCmd(u8x8, 0x05c );	/* write to ram */	  
 393:/Users/imashio/Electronics/ARM/_Library/u8x8_d_ssd1322.c **** 	  u8x8_cad_SendData(u8x8, 32, u8x8_ssd1322_4to32(u8x8, ptr));	  
 394:/Users/imashio/Electronics/ARM/_Library/u8x8_d_ssd1322.c **** 	  ptr += 4;
 395:/Users/imashio/Electronics/ARM/_Library/u8x8_d_ssd1322.c **** 	  x += 2;
 396:/Users/imashio/Electronics/ARM/_Library/u8x8_d_ssd1322.c **** 	  
 397:/Users/imashio/Electronics/ARM/_Library/u8x8_d_ssd1322.c **** 	  u8x8_cad_SendCmd(u8x8, 0x015 );	/* set column address */
 398:/Users/imashio/Electronics/ARM/_Library/u8x8_d_ssd1322.c **** 	  u8x8_cad_SendArg(u8x8, x );	/* start */
 399:/Users/imashio/Electronics/ARM/_Library/u8x8_d_ssd1322.c **** 	  u8x8_cad_SendArg(u8x8, x+1 );	/* end */
 400:/Users/imashio/Electronics/ARM/_Library/u8x8_d_ssd1322.c **** 	  u8x8_cad_SendCmd(u8x8, 0x05c );	/* write to ram */	  
 401:/Users/imashio/Electronics/ARM/_Library/u8x8_d_ssd1322.c **** 	  u8x8_cad_SendData(u8x8, 32, u8x8_ssd1322_4to32(u8x8, ptr));	  
ARM GAS  /var/folders/v3/wysfpd052nz8jkbx04pk0ym80000gn/T//ccWqVvFB.s 			page 20


 402:/Users/imashio/Electronics/ARM/_Library/u8x8_d_ssd1322.c **** 	  ptr += 4;
 403:/Users/imashio/Electronics/ARM/_Library/u8x8_d_ssd1322.c **** 	  x += 2;
 404:/Users/imashio/Electronics/ARM/_Library/u8x8_d_ssd1322.c **** 	  
 405:/Users/imashio/Electronics/ARM/_Library/u8x8_d_ssd1322.c **** 	  c--;
 406:/Users/imashio/Electronics/ARM/_Library/u8x8_d_ssd1322.c **** 	} while( c > 0 );
 407:/Users/imashio/Electronics/ARM/_Library/u8x8_d_ssd1322.c **** 	
 408:/Users/imashio/Electronics/ARM/_Library/u8x8_d_ssd1322.c **** 	//x += 2;
 409:/Users/imashio/Electronics/ARM/_Library/u8x8_d_ssd1322.c **** 	arg_int--;
 410:/Users/imashio/Electronics/ARM/_Library/u8x8_d_ssd1322.c ****       } while( arg_int > 0 );
 411:/Users/imashio/Electronics/ARM/_Library/u8x8_d_ssd1322.c ****       
 412:/Users/imashio/Electronics/ARM/_Library/u8x8_d_ssd1322.c ****       u8x8_cad_EndTransfer(u8x8);
 413:/Users/imashio/Electronics/ARM/_Library/u8x8_d_ssd1322.c ****       break;
 414:/Users/imashio/Electronics/ARM/_Library/u8x8_d_ssd1322.c ****     default:
 415:/Users/imashio/Electronics/ARM/_Library/u8x8_d_ssd1322.c ****       return 0;
 620              		.loc 1 415 0
 621 0016 0020     		movs	r0, #0
 622              	.LVL101:
 623 0018 18E0     		b	.L57
 624              	.LVL102:
 625              	.L67:
 354:/Users/imashio/Electronics/ARM/_Library/u8x8_d_ssd1322.c **** 	u8x8_cad_SendSequence(u8x8, u8x8_d_ssd1322_powersave0_seq);
 626              		.loc 1 354 0
 627 001a 22B9     		cbnz	r2, .L61
 355:/Users/imashio/Electronics/ARM/_Library/u8x8_d_ssd1322.c ****       else
 628              		.loc 1 355 0
 629 001c 4249     		ldr	r1, .L68
 630              	.LVL103:
 631 001e FFF7FEFF 		bl	u8x8_cad_SendSequence
 632              	.LVL104:
 416:/Users/imashio/Electronics/ARM/_Library/u8x8_d_ssd1322.c ****   }
 417:/Users/imashio/Electronics/ARM/_Library/u8x8_d_ssd1322.c ****   return 1;
 633              		.loc 1 417 0
 634 0022 0120     		movs	r0, #1
 635 0024 12E0     		b	.L57
 636              	.LVL105:
 637              	.L61:
 357:/Users/imashio/Electronics/ARM/_Library/u8x8_d_ssd1322.c ****       break;
 638              		.loc 1 357 0
 639 0026 4149     		ldr	r1, .L68+4
 640              	.LVL106:
 641 0028 FFF7FEFF 		bl	u8x8_cad_SendSequence
 642              	.LVL107:
 643              		.loc 1 417 0
 644 002c 0120     		movs	r0, #1
 645 002e 0DE0     		b	.L57
 646              	.LVL108:
 647              	.L58:
 361:/Users/imashio/Electronics/ARM/_Library/u8x8_d_ssd1322.c ****       u8x8_cad_SendCmd(u8x8, 0x0C1 );
 648              		.loc 1 361 0
 649 0030 FFF7FEFF 		bl	u8x8_cad_StartTransfer
 650              	.LVL109:
 362:/Users/imashio/Electronics/ARM/_Library/u8x8_d_ssd1322.c ****       u8x8_cad_SendArg(u8x8, arg_int );	/* ssd1322 has range from 0 to 255 */
 651              		.loc 1 362 0
 652 0034 C121     		movs	r1, #193
 653 0036 2046     		mov	r0, r4
 654 0038 FFF7FEFF 		bl	u8x8_cad_SendCmd
 655              	.LVL110:
ARM GAS  /var/folders/v3/wysfpd052nz8jkbx04pk0ym80000gn/T//ccWqVvFB.s 			page 21


 363:/Users/imashio/Electronics/ARM/_Library/u8x8_d_ssd1322.c ****       u8x8_cad_EndTransfer(u8x8);
 656              		.loc 1 363 0
 657 003c 5146     		mov	r1, r10
 658 003e 2046     		mov	r0, r4
 659 0040 FFF7FEFF 		bl	u8x8_cad_SendArg
 660              	.LVL111:
 364:/Users/imashio/Electronics/ARM/_Library/u8x8_d_ssd1322.c ****       break;
 661              		.loc 1 364 0
 662 0044 2046     		mov	r0, r4
 663 0046 FFF7FEFF 		bl	u8x8_cad_EndTransfer
 664              	.LVL112:
 665              		.loc 1 417 0
 666 004a 0120     		movs	r0, #1
 667              	.LVL113:
 668              	.L57:
 418:/Users/imashio/Electronics/ARM/_Library/u8x8_d_ssd1322.c **** }
 669              		.loc 1 418 0
 670 004c BDE8F88F 		pop	{r3, r4, r5, r6, r7, r8, r9, r10, fp, pc}
 671              	.LVL114:
 672              	.L59:
 368:/Users/imashio/Electronics/ARM/_Library/u8x8_d_ssd1322.c ****       x = ((u8x8_tile_t *)arg_ptr)->x_pos;    
 673              		.loc 1 368 0
 674 0050 FFF7FEFF 		bl	u8x8_cad_StartTransfer
 675              	.LVL115:
 369:/Users/imashio/Electronics/ARM/_Library/u8x8_d_ssd1322.c ****       x *= 2;		// only every 4th col can be addressed
 676              		.loc 1 369 0
 677 0054 9BF80530 		ldrb	r3, [fp, #5]	@ zero_extendqisi2
 678              	.LVL116:
 370:/Users/imashio/Electronics/ARM/_Library/u8x8_d_ssd1322.c ****       x *= 2;		// only every second pixel is used in the 128x64 NHD OLED 
 679              		.loc 1 370 0
 680 0058 5B00     		lsls	r3, r3, #1
 681              	.LVL117:
 682 005a DBB2     		uxtb	r3, r3
 683              	.LVL118:
 371:/Users/imashio/Electronics/ARM/_Library/u8x8_d_ssd1322.c ****     
 684              		.loc 1 371 0
 685 005c 5B00     		lsls	r3, r3, #1
 686              	.LVL119:
 687 005e DBB2     		uxtb	r3, r3
 688              	.LVL120:
 373:/Users/imashio/Electronics/ARM/_Library/u8x8_d_ssd1322.c ****     
 689              		.loc 1 373 0
 690 0060 A57F     		ldrb	r5, [r4, #30]	@ zero_extendqisi2
 691 0062 1D44     		add	r5, r5, r3
 692 0064 EDB2     		uxtb	r5, r5
 693              	.LVL121:
 375:/Users/imashio/Electronics/ARM/_Library/u8x8_d_ssd1322.c ****       y *= 8;
 694              		.loc 1 375 0
 695 0066 9BF80660 		ldrb	r6, [fp, #6]	@ zero_extendqisi2
 696              	.LVL122:
 376:/Users/imashio/Electronics/ARM/_Library/u8x8_d_ssd1322.c ****           
 697              		.loc 1 376 0
 698 006a F600     		lsls	r6, r6, #3
 699              	.LVL123:
 700 006c F6B2     		uxtb	r6, r6
 701              	.LVL124:
 378:/Users/imashio/Electronics/ARM/_Library/u8x8_d_ssd1322.c ****       u8x8_cad_SendArg(u8x8, y);
ARM GAS  /var/folders/v3/wysfpd052nz8jkbx04pk0ym80000gn/T//ccWqVvFB.s 			page 22


 702              		.loc 1 378 0
 703 006e 7521     		movs	r1, #117
 704 0070 2046     		mov	r0, r4
 705 0072 FFF7FEFF 		bl	u8x8_cad_SendCmd
 706              	.LVL125:
 379:/Users/imashio/Electronics/ARM/_Library/u8x8_d_ssd1322.c ****       u8x8_cad_SendArg(u8x8, y+7);
 707              		.loc 1 379 0
 708 0076 3146     		mov	r1, r6
 709 0078 2046     		mov	r0, r4
 710 007a FFF7FEFF 		bl	u8x8_cad_SendArg
 711              	.LVL126:
 380:/Users/imashio/Electronics/ARM/_Library/u8x8_d_ssd1322.c ****       
 712              		.loc 1 380 0
 713 007e F11D     		adds	r1, r6, #7
 714 0080 C9B2     		uxtb	r1, r1
 715 0082 2046     		mov	r0, r4
 716 0084 FFF7FEFF 		bl	u8x8_cad_SendArg
 717              	.LVL127:
 718              	.L63:
 384:/Users/imashio/Electronics/ARM/_Library/u8x8_d_ssd1322.c **** 	ptr = ((u8x8_tile_t *)arg_ptr)->tile_ptr;
 719              		.loc 1 384 0
 720 0088 9BF80460 		ldrb	r6, [fp, #4]	@ zero_extendqisi2
 721              	.LVL128:
 385:/Users/imashio/Electronics/ARM/_Library/u8x8_d_ssd1322.c **** 
 722              		.loc 1 385 0
 723 008c DBF80070 		ldr	r7, [fp]
 724              	.LVL129:
 725              	.L62:
 389:/Users/imashio/Electronics/ARM/_Library/u8x8_d_ssd1322.c **** 	  u8x8_cad_SendArg(u8x8, x );	/* start */
 726              		.loc 1 389 0 discriminator 1
 727 0090 1521     		movs	r1, #21
 728 0092 2046     		mov	r0, r4
 729 0094 FFF7FEFF 		bl	u8x8_cad_SendCmd
 730              	.LVL130:
 390:/Users/imashio/Electronics/ARM/_Library/u8x8_d_ssd1322.c **** 	  u8x8_cad_SendArg(u8x8, x+1 );	/* end */
 731              		.loc 1 390 0 discriminator 1
 732 0098 2946     		mov	r1, r5
 733 009a 2046     		mov	r0, r4
 734 009c FFF7FEFF 		bl	u8x8_cad_SendArg
 735              	.LVL131:
 391:/Users/imashio/Electronics/ARM/_Library/u8x8_d_ssd1322.c **** 	  u8x8_cad_SendCmd(u8x8, 0x05c );	/* write to ram */	  
 736              		.loc 1 391 0 discriminator 1
 737 00a0 691C     		adds	r1, r5, #1
 738 00a2 C9B2     		uxtb	r1, r1
 739 00a4 2046     		mov	r0, r4
 740 00a6 FFF7FEFF 		bl	u8x8_cad_SendArg
 741              	.LVL132:
 392:/Users/imashio/Electronics/ARM/_Library/u8x8_d_ssd1322.c **** 	  u8x8_cad_SendData(u8x8, 32, u8x8_ssd1322_4to32(u8x8, ptr));	  
 742              		.loc 1 392 0 discriminator 1
 743 00aa 5C21     		movs	r1, #92
 744 00ac 2046     		mov	r0, r4
 745 00ae FFF7FEFF 		bl	u8x8_cad_SendCmd
 746              	.LVL133:
 393:/Users/imashio/Electronics/ARM/_Library/u8x8_d_ssd1322.c **** 	  ptr += 4;
 747              		.loc 1 393 0 discriminator 1
 748 00b2 3946     		mov	r1, r7
 749 00b4 2046     		mov	r0, r4
ARM GAS  /var/folders/v3/wysfpd052nz8jkbx04pk0ym80000gn/T//ccWqVvFB.s 			page 23


 750 00b6 FFF7FEFF 		bl	u8x8_ssd1322_4to32
 751              	.LVL134:
 752 00ba 0246     		mov	r2, r0
 753 00bc 2021     		movs	r1, #32
 754 00be 2046     		mov	r0, r4
 755 00c0 FFF7FEFF 		bl	u8x8_cad_SendData
 756              	.LVL135:
 394:/Users/imashio/Electronics/ARM/_Library/u8x8_d_ssd1322.c **** 	  x += 2;
 757              		.loc 1 394 0 discriminator 1
 758 00c4 07F10409 		add	r9, r7, #4
 759              	.LVL136:
 395:/Users/imashio/Electronics/ARM/_Library/u8x8_d_ssd1322.c **** 	  
 760              		.loc 1 395 0 discriminator 1
 761 00c8 05F10208 		add	r8, r5, #2
 762 00cc 5FFA88F8 		uxtb	r8, r8
 763              	.LVL137:
 397:/Users/imashio/Electronics/ARM/_Library/u8x8_d_ssd1322.c **** 	  u8x8_cad_SendArg(u8x8, x );	/* start */
 764              		.loc 1 397 0 discriminator 1
 765 00d0 1521     		movs	r1, #21
 766 00d2 2046     		mov	r0, r4
 767 00d4 FFF7FEFF 		bl	u8x8_cad_SendCmd
 768              	.LVL138:
 398:/Users/imashio/Electronics/ARM/_Library/u8x8_d_ssd1322.c **** 	  u8x8_cad_SendArg(u8x8, x+1 );	/* end */
 769              		.loc 1 398 0 discriminator 1
 770 00d8 4146     		mov	r1, r8
 771 00da 2046     		mov	r0, r4
 772 00dc FFF7FEFF 		bl	u8x8_cad_SendArg
 773              	.LVL139:
 399:/Users/imashio/Electronics/ARM/_Library/u8x8_d_ssd1322.c **** 	  u8x8_cad_SendCmd(u8x8, 0x05c );	/* write to ram */	  
 774              		.loc 1 399 0 discriminator 1
 775 00e0 E91C     		adds	r1, r5, #3
 776 00e2 C9B2     		uxtb	r1, r1
 777 00e4 2046     		mov	r0, r4
 778 00e6 FFF7FEFF 		bl	u8x8_cad_SendArg
 779              	.LVL140:
 400:/Users/imashio/Electronics/ARM/_Library/u8x8_d_ssd1322.c **** 	  u8x8_cad_SendData(u8x8, 32, u8x8_ssd1322_4to32(u8x8, ptr));	  
 780              		.loc 1 400 0 discriminator 1
 781 00ea 5C21     		movs	r1, #92
 782 00ec 2046     		mov	r0, r4
 783 00ee FFF7FEFF 		bl	u8x8_cad_SendCmd
 784              	.LVL141:
 401:/Users/imashio/Electronics/ARM/_Library/u8x8_d_ssd1322.c **** 	  ptr += 4;
 785              		.loc 1 401 0 discriminator 1
 786 00f2 4946     		mov	r1, r9
 787 00f4 2046     		mov	r0, r4
 788 00f6 FFF7FEFF 		bl	u8x8_ssd1322_4to32
 789              	.LVL142:
 790 00fa 0246     		mov	r2, r0
 791 00fc 2021     		movs	r1, #32
 792 00fe 2046     		mov	r0, r4
 793 0100 FFF7FEFF 		bl	u8x8_cad_SendData
 794              	.LVL143:
 402:/Users/imashio/Electronics/ARM/_Library/u8x8_d_ssd1322.c **** 	  x += 2;
 795              		.loc 1 402 0 discriminator 1
 796 0104 0837     		adds	r7, r7, #8
 797              	.LVL144:
 403:/Users/imashio/Electronics/ARM/_Library/u8x8_d_ssd1322.c **** 	  
ARM GAS  /var/folders/v3/wysfpd052nz8jkbx04pk0ym80000gn/T//ccWqVvFB.s 			page 24


 798              		.loc 1 403 0 discriminator 1
 799 0106 0435     		adds	r5, r5, #4
 800 0108 EDB2     		uxtb	r5, r5
 801              	.LVL145:
 405:/Users/imashio/Electronics/ARM/_Library/u8x8_d_ssd1322.c **** 	} while( c > 0 );
 802              		.loc 1 405 0 discriminator 1
 803 010a 013E     		subs	r6, r6, #1
 804              	.LVL146:
 406:/Users/imashio/Electronics/ARM/_Library/u8x8_d_ssd1322.c **** 	
 805              		.loc 1 406 0 discriminator 1
 806 010c 16F0FF06 		ands	r6, r6, #255
 807              	.LVL147:
 808 0110 BED1     		bne	.L62
 409:/Users/imashio/Electronics/ARM/_Library/u8x8_d_ssd1322.c ****       } while( arg_int > 0 );
 809              		.loc 1 409 0
 810 0112 0AF1FF3A 		add	r10, r10, #-1
 811              	.LVL148:
 410:/Users/imashio/Electronics/ARM/_Library/u8x8_d_ssd1322.c ****       
 812              		.loc 1 410 0
 813 0116 1AF0FF0A 		ands	r10, r10, #255
 814              	.LVL149:
 815 011a B5D1     		bne	.L63
 412:/Users/imashio/Electronics/ARM/_Library/u8x8_d_ssd1322.c ****       break;
 816              		.loc 1 412 0
 817 011c 2046     		mov	r0, r4
 818 011e FFF7FEFF 		bl	u8x8_cad_EndTransfer
 819              	.LVL150:
 417:/Users/imashio/Electronics/ARM/_Library/u8x8_d_ssd1322.c **** }
 820              		.loc 1 417 0
 821 0122 0120     		movs	r0, #1
 413:/Users/imashio/Electronics/ARM/_Library/u8x8_d_ssd1322.c ****     default:
 822              		.loc 1 413 0
 823 0124 92E7     		b	.L57
 824              	.L69:
 825 0126 00BF     		.align	2
 826              	.L68:
 827 0128 00000000 		.word	.LANCHOR3
 828 012c 00000000 		.word	.LANCHOR4
 829              		.cfi_endproc
 830              	.LFE5:
 832              		.section	.text.u8x8_d_ssd1322_nhd_128x64,"ax",%progbits
 833              		.align	1
 834              		.global	u8x8_d_ssd1322_nhd_128x64
 835              		.syntax unified
 836              		.thumb
 837              		.thumb_func
 838              		.fpu fpv4-sp-d16
 840              	u8x8_d_ssd1322_nhd_128x64:
 841              	.LFB6:
 419:/Users/imashio/Electronics/ARM/_Library/u8x8_d_ssd1322.c **** 
 420:/Users/imashio/Electronics/ARM/_Library/u8x8_d_ssd1322.c **** 
 421:/Users/imashio/Electronics/ARM/_Library/u8x8_d_ssd1322.c **** static const uint8_t u8x8_d_ssd1322_128x64_flip0_seq[] = {
 422:/Users/imashio/Electronics/ARM/_Library/u8x8_d_ssd1322.c ****   U8X8_START_TRANSFER(),             	/* enable chip, delay is part of the transfer start */
 423:/Users/imashio/Electronics/ARM/_Library/u8x8_d_ssd1322.c ****   U8X8_CAA(0x0a0, 0x016, 0x011),		/* remap */
 424:/Users/imashio/Electronics/ARM/_Library/u8x8_d_ssd1322.c ****   U8X8_END_TRANSFER(),             	/* disable chip */
 425:/Users/imashio/Electronics/ARM/_Library/u8x8_d_ssd1322.c ****   U8X8_END()             			/* end of sequence */
 426:/Users/imashio/Electronics/ARM/_Library/u8x8_d_ssd1322.c **** };
ARM GAS  /var/folders/v3/wysfpd052nz8jkbx04pk0ym80000gn/T//ccWqVvFB.s 			page 25


 427:/Users/imashio/Electronics/ARM/_Library/u8x8_d_ssd1322.c **** 
 428:/Users/imashio/Electronics/ARM/_Library/u8x8_d_ssd1322.c **** static const uint8_t u8x8_d_ssd1322_128x64_flip1_seq[] = {
 429:/Users/imashio/Electronics/ARM/_Library/u8x8_d_ssd1322.c ****   U8X8_START_TRANSFER(),             	/* enable chip, delay is part of the transfer start */
 430:/Users/imashio/Electronics/ARM/_Library/u8x8_d_ssd1322.c ****   U8X8_CAA(0x0a0, 0x004, 0x011),		/* remap */
 431:/Users/imashio/Electronics/ARM/_Library/u8x8_d_ssd1322.c ****   U8X8_END_TRANSFER(),             	/* disable chip */
 432:/Users/imashio/Electronics/ARM/_Library/u8x8_d_ssd1322.c ****   U8X8_END()             			/* end of sequence */
 433:/Users/imashio/Electronics/ARM/_Library/u8x8_d_ssd1322.c **** };
 434:/Users/imashio/Electronics/ARM/_Library/u8x8_d_ssd1322.c **** 
 435:/Users/imashio/Electronics/ARM/_Library/u8x8_d_ssd1322.c **** static const u8x8_display_info_t u8x8_ssd1322_128x64_display_info =
 436:/Users/imashio/Electronics/ARM/_Library/u8x8_d_ssd1322.c **** {
 437:/Users/imashio/Electronics/ARM/_Library/u8x8_d_ssd1322.c ****   /* chip_enable_level = */ 0,
 438:/Users/imashio/Electronics/ARM/_Library/u8x8_d_ssd1322.c ****   /* chip_disable_level = */ 1,
 439:/Users/imashio/Electronics/ARM/_Library/u8x8_d_ssd1322.c ****   
 440:/Users/imashio/Electronics/ARM/_Library/u8x8_d_ssd1322.c ****   /* post_chip_enable_wait_ns = */ 20,
 441:/Users/imashio/Electronics/ARM/_Library/u8x8_d_ssd1322.c ****   /* pre_chip_disable_wait_ns = */ 10,
 442:/Users/imashio/Electronics/ARM/_Library/u8x8_d_ssd1322.c ****   /* reset_pulse_width_ms = */ 100, 	/* SSD1322: 2 us */
 443:/Users/imashio/Electronics/ARM/_Library/u8x8_d_ssd1322.c ****   /* post_reset_wait_ms = */ 100, /* far east OLEDs need much longer setup time */
 444:/Users/imashio/Electronics/ARM/_Library/u8x8_d_ssd1322.c ****   /* sda_setup_time_ns = */ 50,		/* SSD1322: 15ns, but cycle time is 100ns, so use 100/2 */
 445:/Users/imashio/Electronics/ARM/_Library/u8x8_d_ssd1322.c ****   /* sck_pulse_width_ns = */ 50,	/* SSD1322: 20ns, but cycle time is 100ns, so use 100/2, AVR: belo
 446:/Users/imashio/Electronics/ARM/_Library/u8x8_d_ssd1322.c ****   /* sck_clock_hz = */ 10000000UL,	/* since Arduino 1.6.0, the SPI bus speed in Hz. Should be  1000
 447:/Users/imashio/Electronics/ARM/_Library/u8x8_d_ssd1322.c ****   /* spi_mode = */ 0,		/* active high, rising edge */
 448:/Users/imashio/Electronics/ARM/_Library/u8x8_d_ssd1322.c ****   /* i2c_bus_clock_100kHz = */ 4,
 449:/Users/imashio/Electronics/ARM/_Library/u8x8_d_ssd1322.c ****   /* data_setup_time_ns = */ 10,
 450:/Users/imashio/Electronics/ARM/_Library/u8x8_d_ssd1322.c ****   /* write_pulse_width_ns = */ 150,	/* SSD1322: cycle time is 300ns, so use 300/2 = 150 */
 451:/Users/imashio/Electronics/ARM/_Library/u8x8_d_ssd1322.c ****   /* tile_width = */ 16,		/* 128 pixel */
 452:/Users/imashio/Electronics/ARM/_Library/u8x8_d_ssd1322.c ****   /* tile_hight = */ 8,
 453:/Users/imashio/Electronics/ARM/_Library/u8x8_d_ssd1322.c ****   /* default_x_offset = */ 28,	/* this is the byte offset (there are two pixel per byte with 4 bit 
 454:/Users/imashio/Electronics/ARM/_Library/u8x8_d_ssd1322.c ****   /* flipmode_x_offset = */ 28,
 455:/Users/imashio/Electronics/ARM/_Library/u8x8_d_ssd1322.c ****   /* pixel_width = */ 128,
 456:/Users/imashio/Electronics/ARM/_Library/u8x8_d_ssd1322.c ****   /* pixel_height = */ 64
 457:/Users/imashio/Electronics/ARM/_Library/u8x8_d_ssd1322.c **** };
 458:/Users/imashio/Electronics/ARM/_Library/u8x8_d_ssd1322.c **** 
 459:/Users/imashio/Electronics/ARM/_Library/u8x8_d_ssd1322.c **** 
 460:/Users/imashio/Electronics/ARM/_Library/u8x8_d_ssd1322.c **** static const uint8_t u8x8_d_ssd1322_128x64_init_seq[] = {
 461:/Users/imashio/Electronics/ARM/_Library/u8x8_d_ssd1322.c ****     
 462:/Users/imashio/Electronics/ARM/_Library/u8x8_d_ssd1322.c ****   U8X8_DLY(1),
 463:/Users/imashio/Electronics/ARM/_Library/u8x8_d_ssd1322.c ****   U8X8_START_TRANSFER(),             	/* enable chip, delay is part of the transfer start */
 464:/Users/imashio/Electronics/ARM/_Library/u8x8_d_ssd1322.c ****   U8X8_DLY(1),
 465:/Users/imashio/Electronics/ARM/_Library/u8x8_d_ssd1322.c ****   
 466:/Users/imashio/Electronics/ARM/_Library/u8x8_d_ssd1322.c ****   U8X8_CA(0xfd, 0x12),            	/* unlock */
 467:/Users/imashio/Electronics/ARM/_Library/u8x8_d_ssd1322.c ****   U8X8_C(0xae),		                /* display off */
 468:/Users/imashio/Electronics/ARM/_Library/u8x8_d_ssd1322.c ****   U8X8_CA(0xb3, 0x91),			/* set display clock divide ratio/oscillator frequency (set clock as 80 fr
 469:/Users/imashio/Electronics/ARM/_Library/u8x8_d_ssd1322.c ****   U8X8_CA(0xca, 0x3f),			/* multiplex ratio 1/64 Duty (0x0F~0x3F) */  
 470:/Users/imashio/Electronics/ARM/_Library/u8x8_d_ssd1322.c ****   U8X8_CA(0xa2, 0x00),			/* display offset, shift mapping ram counter */  
 471:/Users/imashio/Electronics/ARM/_Library/u8x8_d_ssd1322.c **** 
 472:/Users/imashio/Electronics/ARM/_Library/u8x8_d_ssd1322.c ****   U8X8_CA(0xa1, 0x00),			/* display start line */  
 473:/Users/imashio/Electronics/ARM/_Library/u8x8_d_ssd1322.c ****   U8X8_CA(0xab, 0x01),			/* Enable Internal VDD Regulator */  
 474:/Users/imashio/Electronics/ARM/_Library/u8x8_d_ssd1322.c ****   //U8X8_CAA(0xa0, 0x14, 0x11),	/* Set Re-Map / Dual COM Line Mode */  
 475:/Users/imashio/Electronics/ARM/_Library/u8x8_d_ssd1322.c ****   //U8X8_CAA(0xa0, 0x06, 0x011),	/* Set Re-Map / Dual COM Line Mode */  
 476:/Users/imashio/Electronics/ARM/_Library/u8x8_d_ssd1322.c ****   U8X8_CAA(0xa0, 0x16, 0x011),	/* Set Re-Map / Dual COM Line Mode (NHD-2.7-12864WDW3-M datasheet) *
 477:/Users/imashio/Electronics/ARM/_Library/u8x8_d_ssd1322.c ****   U8X8_CA(0xc7, 0x0f),			/* Set Scale Factor of Segment Output Current Control */  
 478:/Users/imashio/Electronics/ARM/_Library/u8x8_d_ssd1322.c ****   U8X8_CA(0xc1, 0x9f),			/* contrast */  
 479:/Users/imashio/Electronics/ARM/_Library/u8x8_d_ssd1322.c ****   //U8X8_CA(0xb1, 0xe2),			/* Phase 1 (Reset) & Phase 2 (Pre-Charge) Period Adjustment */  
 480:/Users/imashio/Electronics/ARM/_Library/u8x8_d_ssd1322.c ****   U8X8_CA(0xb1, 0xf2),			/* Phase 1 (Reset) & Phase 2 (Pre-Charge) Period Adjustment (NHD-2.7-12864
 481:/Users/imashio/Electronics/ARM/_Library/u8x8_d_ssd1322.c ****   U8X8_CA(0xbb, 0x1f),			/* precharge  voltage */    
 482:/Users/imashio/Electronics/ARM/_Library/u8x8_d_ssd1322.c ****   //U8X8_CAA(0xb4, 0xa0, 0x005|0x0fd),	/* Display Enhancement A */  
 483:/Users/imashio/Electronics/ARM/_Library/u8x8_d_ssd1322.c ****   U8X8_CAA(0xb4, 0xa0, 0x0fd),	/* Display Enhancement A (NHD-2.7-12864WDW3-M datasheet) */  
ARM GAS  /var/folders/v3/wysfpd052nz8jkbx04pk0ym80000gn/T//ccWqVvFB.s 			page 26


 484:/Users/imashio/Electronics/ARM/_Library/u8x8_d_ssd1322.c ****   U8X8_CA(0xbe, 0x04),			/* vcomh (NHD-2.7-12864WDW3-M datasheet) */  
 485:/Users/imashio/Electronics/ARM/_Library/u8x8_d_ssd1322.c ****   U8X8_C(0xb9),		                /* linear grayscale */
 486:/Users/imashio/Electronics/ARM/_Library/u8x8_d_ssd1322.c ****   //U8X8_CAA(0xd1, 0x082|0x020, 0x020),	/* Display Enhancement B */  
 487:/Users/imashio/Electronics/ARM/_Library/u8x8_d_ssd1322.c ****   //U8X8_CA(0xb6, 0x08),			/* precharge  period */  
 488:/Users/imashio/Electronics/ARM/_Library/u8x8_d_ssd1322.c ****   U8X8_C(0xa6),		                /* normal display */
 489:/Users/imashio/Electronics/ARM/_Library/u8x8_d_ssd1322.c ****   U8X8_C(0xa9),		                /* exit partial display */
 490:/Users/imashio/Electronics/ARM/_Library/u8x8_d_ssd1322.c **** 
 491:/Users/imashio/Electronics/ARM/_Library/u8x8_d_ssd1322.c **** 
 492:/Users/imashio/Electronics/ARM/_Library/u8x8_d_ssd1322.c ****   U8X8_DLY(1),					/* delay 2ms */
 493:/Users/imashio/Electronics/ARM/_Library/u8x8_d_ssd1322.c **** 
 494:/Users/imashio/Electronics/ARM/_Library/u8x8_d_ssd1322.c ****   
 495:/Users/imashio/Electronics/ARM/_Library/u8x8_d_ssd1322.c ****   U8X8_END_TRANSFER(),             	/* disable chip */
 496:/Users/imashio/Electronics/ARM/_Library/u8x8_d_ssd1322.c ****   U8X8_END()             			/* end of sequence */
 497:/Users/imashio/Electronics/ARM/_Library/u8x8_d_ssd1322.c **** };
 498:/Users/imashio/Electronics/ARM/_Library/u8x8_d_ssd1322.c **** 
 499:/Users/imashio/Electronics/ARM/_Library/u8x8_d_ssd1322.c **** uint8_t u8x8_d_ssd1322_nhd_128x64(u8x8_t *u8x8, uint8_t msg, uint8_t arg_int, void *arg_ptr)
 500:/Users/imashio/Electronics/ARM/_Library/u8x8_d_ssd1322.c **** {
 842              		.loc 1 500 0
 843              		.cfi_startproc
 844              		@ args = 0, pretend = 0, frame = 0
 845              		@ frame_needed = 0, uses_anonymous_args = 0
 846              	.LVL151:
 847 0000 10B5     		push	{r4, lr}
 848              	.LCFI8:
 849              		.cfi_def_cfa_offset 8
 850              		.cfi_offset 4, -8
 851              		.cfi_offset 14, -4
 852 0002 0446     		mov	r4, r0
 501:/Users/imashio/Electronics/ARM/_Library/u8x8_d_ssd1322.c ****   switch(msg)
 853              		.loc 1 501 0
 854 0004 0A29     		cmp	r1, #10
 855 0006 0BD0     		beq	.L72
 856 0008 0D29     		cmp	r1, #13
 857 000a 11D0     		beq	.L73
 858 000c 0929     		cmp	r1, #9
 859 000e 02D0     		beq	.L79
 502:/Users/imashio/Electronics/ARM/_Library/u8x8_d_ssd1322.c ****   {
 503:/Users/imashio/Electronics/ARM/_Library/u8x8_d_ssd1322.c ****     case U8X8_MSG_DISPLAY_SETUP_MEMORY:
 504:/Users/imashio/Electronics/ARM/_Library/u8x8_d_ssd1322.c ****       u8x8_d_helper_display_setup_memory(u8x8, &u8x8_ssd1322_128x64_display_info);
 505:/Users/imashio/Electronics/ARM/_Library/u8x8_d_ssd1322.c ****       break;
 506:/Users/imashio/Electronics/ARM/_Library/u8x8_d_ssd1322.c ****     case U8X8_MSG_DISPLAY_INIT:
 507:/Users/imashio/Electronics/ARM/_Library/u8x8_d_ssd1322.c ****       u8x8_d_helper_display_init(u8x8);
 508:/Users/imashio/Electronics/ARM/_Library/u8x8_d_ssd1322.c ****       u8x8_cad_SendSequence(u8x8, u8x8_d_ssd1322_128x64_init_seq);
 509:/Users/imashio/Electronics/ARM/_Library/u8x8_d_ssd1322.c ****       break;
 510:/Users/imashio/Electronics/ARM/_Library/u8x8_d_ssd1322.c ****     case U8X8_MSG_DISPLAY_SET_FLIP_MODE:
 511:/Users/imashio/Electronics/ARM/_Library/u8x8_d_ssd1322.c ****       if ( arg_int == 0 )
 512:/Users/imashio/Electronics/ARM/_Library/u8x8_d_ssd1322.c ****       {
 513:/Users/imashio/Electronics/ARM/_Library/u8x8_d_ssd1322.c **** 	u8x8_cad_SendSequence(u8x8, u8x8_d_ssd1322_128x64_flip0_seq);
 514:/Users/imashio/Electronics/ARM/_Library/u8x8_d_ssd1322.c **** 	u8x8->x_offset = u8x8->display_info->default_x_offset;
 515:/Users/imashio/Electronics/ARM/_Library/u8x8_d_ssd1322.c ****       }
 516:/Users/imashio/Electronics/ARM/_Library/u8x8_d_ssd1322.c ****       else
 517:/Users/imashio/Electronics/ARM/_Library/u8x8_d_ssd1322.c ****       {
 518:/Users/imashio/Electronics/ARM/_Library/u8x8_d_ssd1322.c **** 	u8x8_cad_SendSequence(u8x8, u8x8_d_ssd1322_128x64_flip1_seq);
 519:/Users/imashio/Electronics/ARM/_Library/u8x8_d_ssd1322.c **** 	u8x8->x_offset = u8x8->display_info->flipmode_x_offset;
 520:/Users/imashio/Electronics/ARM/_Library/u8x8_d_ssd1322.c ****       }
 521:/Users/imashio/Electronics/ARM/_Library/u8x8_d_ssd1322.c ****       break;
 522:/Users/imashio/Electronics/ARM/_Library/u8x8_d_ssd1322.c ****     
ARM GAS  /var/folders/v3/wysfpd052nz8jkbx04pk0ym80000gn/T//ccWqVvFB.s 			page 27


 523:/Users/imashio/Electronics/ARM/_Library/u8x8_d_ssd1322.c ****     default:
 524:/Users/imashio/Electronics/ARM/_Library/u8x8_d_ssd1322.c ****       return u8x8_d_ssd1322_common2(u8x8, msg, arg_int, arg_ptr);
 860              		.loc 1 524 0
 861 0010 FFF7FEFF 		bl	u8x8_d_ssd1322_common2
 862              	.LVL152:
 863 0014 03E0     		b	.L75
 864              	.LVL153:
 865              	.L79:
 504:/Users/imashio/Electronics/ARM/_Library/u8x8_d_ssd1322.c ****       break;
 866              		.loc 1 504 0
 867 0016 0F49     		ldr	r1, .L80
 868              	.LVL154:
 869 0018 FFF7FEFF 		bl	u8x8_d_helper_display_setup_memory
 870              	.LVL155:
 525:/Users/imashio/Electronics/ARM/_Library/u8x8_d_ssd1322.c ****   }
 526:/Users/imashio/Electronics/ARM/_Library/u8x8_d_ssd1322.c ****   return 1;
 871              		.loc 1 526 0
 872 001c 0120     		movs	r0, #1
 873              	.L75:
 527:/Users/imashio/Electronics/ARM/_Library/u8x8_d_ssd1322.c **** }
 874              		.loc 1 527 0
 875 001e 10BD     		pop	{r4, pc}
 876              	.LVL156:
 877              	.L72:
 507:/Users/imashio/Electronics/ARM/_Library/u8x8_d_ssd1322.c ****       u8x8_cad_SendSequence(u8x8, u8x8_d_ssd1322_128x64_init_seq);
 878              		.loc 1 507 0
 879 0020 FFF7FEFF 		bl	u8x8_d_helper_display_init
 880              	.LVL157:
 508:/Users/imashio/Electronics/ARM/_Library/u8x8_d_ssd1322.c ****       break;
 881              		.loc 1 508 0
 882 0024 0C49     		ldr	r1, .L80+4
 883 0026 2046     		mov	r0, r4
 884 0028 FFF7FEFF 		bl	u8x8_cad_SendSequence
 885              	.LVL158:
 526:/Users/imashio/Electronics/ARM/_Library/u8x8_d_ssd1322.c **** }
 886              		.loc 1 526 0
 887 002c 0120     		movs	r0, #1
 509:/Users/imashio/Electronics/ARM/_Library/u8x8_d_ssd1322.c ****     case U8X8_MSG_DISPLAY_SET_FLIP_MODE:
 888              		.loc 1 509 0
 889 002e F6E7     		b	.L75
 890              	.LVL159:
 891              	.L73:
 511:/Users/imashio/Electronics/ARM/_Library/u8x8_d_ssd1322.c ****       {
 892              		.loc 1 511 0
 893 0030 3AB9     		cbnz	r2, .L76
 513:/Users/imashio/Electronics/ARM/_Library/u8x8_d_ssd1322.c **** 	u8x8->x_offset = u8x8->display_info->default_x_offset;
 894              		.loc 1 513 0
 895 0032 0A49     		ldr	r1, .L80+8
 896              	.LVL160:
 897 0034 FFF7FEFF 		bl	u8x8_cad_SendSequence
 898              	.LVL161:
 514:/Users/imashio/Electronics/ARM/_Library/u8x8_d_ssd1322.c ****       }
 899              		.loc 1 514 0
 900 0038 2368     		ldr	r3, [r4]
 901 003a 9B7C     		ldrb	r3, [r3, #18]	@ zero_extendqisi2
 902 003c A377     		strb	r3, [r4, #30]
 526:/Users/imashio/Electronics/ARM/_Library/u8x8_d_ssd1322.c **** }
ARM GAS  /var/folders/v3/wysfpd052nz8jkbx04pk0ym80000gn/T//ccWqVvFB.s 			page 28


 903              		.loc 1 526 0
 904 003e 0120     		movs	r0, #1
 905 0040 EDE7     		b	.L75
 906              	.LVL162:
 907              	.L76:
 518:/Users/imashio/Electronics/ARM/_Library/u8x8_d_ssd1322.c **** 	u8x8->x_offset = u8x8->display_info->flipmode_x_offset;
 908              		.loc 1 518 0
 909 0042 0749     		ldr	r1, .L80+12
 910              	.LVL163:
 911 0044 FFF7FEFF 		bl	u8x8_cad_SendSequence
 912              	.LVL164:
 519:/Users/imashio/Electronics/ARM/_Library/u8x8_d_ssd1322.c ****       }
 913              		.loc 1 519 0
 914 0048 2368     		ldr	r3, [r4]
 915 004a DB7C     		ldrb	r3, [r3, #19]	@ zero_extendqisi2
 916 004c A377     		strb	r3, [r4, #30]
 526:/Users/imashio/Electronics/ARM/_Library/u8x8_d_ssd1322.c **** }
 917              		.loc 1 526 0
 918 004e 0120     		movs	r0, #1
 919 0050 E5E7     		b	.L75
 920              	.L81:
 921 0052 00BF     		.align	2
 922              	.L80:
 923 0054 00000000 		.word	.LANCHOR9
 924 0058 00000000 		.word	.LANCHOR10
 925 005c 00000000 		.word	.LANCHOR11
 926 0060 00000000 		.word	.LANCHOR12
 927              		.cfi_endproc
 928              	.LFE6:
 930              		.section	.bss.buf.6259,"aw",%nobits
 931              		.align	2
 932              		.set	.LANCHOR2,. + 0
 935              	buf.6259:
 936 0000 00000000 		.space	4
 937              		.section	.bss.u8x8_ssd1322_to32_dest_buf,"aw",%nobits
 938              		.align	2
 939              		.set	.LANCHOR0,. + 0
 942              	u8x8_ssd1322_to32_dest_buf:
 943 0000 00000000 		.space	32
 943      00000000 
 943      00000000 
 943      00000000 
 943      00000000 
 944              		.section	.rodata.map.6260,"a",%progbits
 945              		.align	2
 946              		.set	.LANCHOR1,. + 0
 949              	map.6260:
 950 0000 00       		.byte	0
 951 0001 0F       		.byte	15
 952 0002 F0       		.byte	-16
 953 0003 FF       		.byte	-1
 954              		.section	.rodata.u8x8_d_ssd1322_128x64_flip0_seq,"a",%progbits
 955              		.align	2
 956              		.set	.LANCHOR11,. + 0
 959              	u8x8_d_ssd1322_128x64_flip0_seq:
 960 0000 18       		.byte	24
 961 0001 15       		.byte	21
ARM GAS  /var/folders/v3/wysfpd052nz8jkbx04pk0ym80000gn/T//ccWqVvFB.s 			page 29


 962 0002 A0       		.byte	-96
 963 0003 16       		.byte	22
 964 0004 16       		.byte	22
 965 0005 16       		.byte	22
 966 0006 11       		.byte	17
 967 0007 19       		.byte	25
 968 0008 FF       		.byte	-1
 969              		.section	.rodata.u8x8_d_ssd1322_128x64_flip1_seq,"a",%progbits
 970              		.align	2
 971              		.set	.LANCHOR12,. + 0
 974              	u8x8_d_ssd1322_128x64_flip1_seq:
 975 0000 18       		.byte	24
 976 0001 15       		.byte	21
 977 0002 A0       		.byte	-96
 978 0003 16       		.byte	22
 979 0004 04       		.byte	4
 980 0005 16       		.byte	22
 981 0006 11       		.byte	17
 982 0007 19       		.byte	25
 983 0008 FF       		.byte	-1
 984              		.section	.rodata.u8x8_d_ssd1322_128x64_init_seq,"a",%progbits
 985              		.align	2
 986              		.set	.LANCHOR10,. + 0
 989              	u8x8_d_ssd1322_128x64_init_seq:
 990 0000 FE       		.byte	-2
 991 0001 01       		.byte	1
 992 0002 18       		.byte	24
 993 0003 FE       		.byte	-2
 994 0004 01       		.byte	1
 995 0005 15       		.byte	21
 996 0006 FD       		.byte	-3
 997 0007 16       		.byte	22
 998 0008 12       		.byte	18
 999 0009 15       		.byte	21
 1000 000a AE       		.byte	-82
 1001 000b 15       		.byte	21
 1002 000c B3       		.byte	-77
 1003 000d 16       		.byte	22
 1004 000e 91       		.byte	-111
 1005 000f 15       		.byte	21
 1006 0010 CA       		.byte	-54
 1007 0011 16       		.byte	22
 1008 0012 3F       		.byte	63
 1009 0013 15       		.byte	21
 1010 0014 A2       		.byte	-94
 1011 0015 16       		.byte	22
 1012 0016 00       		.byte	0
 1013 0017 15       		.byte	21
 1014 0018 A1       		.byte	-95
 1015 0019 16       		.byte	22
 1016 001a 00       		.byte	0
 1017 001b 15       		.byte	21
 1018 001c AB       		.byte	-85
 1019 001d 16       		.byte	22
 1020 001e 01       		.byte	1
 1021 001f 15       		.byte	21
 1022 0020 A0       		.byte	-96
ARM GAS  /var/folders/v3/wysfpd052nz8jkbx04pk0ym80000gn/T//ccWqVvFB.s 			page 30


 1023 0021 16       		.byte	22
 1024 0022 16       		.byte	22
 1025 0023 16       		.byte	22
 1026 0024 11       		.byte	17
 1027 0025 15       		.byte	21
 1028 0026 C7       		.byte	-57
 1029 0027 16       		.byte	22
 1030 0028 0F       		.byte	15
 1031 0029 15       		.byte	21
 1032 002a C1       		.byte	-63
 1033 002b 16       		.byte	22
 1034 002c 9F       		.byte	-97
 1035 002d 15       		.byte	21
 1036 002e B1       		.byte	-79
 1037 002f 16       		.byte	22
 1038 0030 F2       		.byte	-14
 1039 0031 15       		.byte	21
 1040 0032 BB       		.byte	-69
 1041 0033 16       		.byte	22
 1042 0034 1F       		.byte	31
 1043 0035 15       		.byte	21
 1044 0036 B4       		.byte	-76
 1045 0037 16       		.byte	22
 1046 0038 A0       		.byte	-96
 1047 0039 16       		.byte	22
 1048 003a FD       		.byte	-3
 1049 003b 15       		.byte	21
 1050 003c BE       		.byte	-66
 1051 003d 16       		.byte	22
 1052 003e 04       		.byte	4
 1053 003f 15       		.byte	21
 1054 0040 B9       		.byte	-71
 1055 0041 15       		.byte	21
 1056 0042 A6       		.byte	-90
 1057 0043 15       		.byte	21
 1058 0044 A9       		.byte	-87
 1059 0045 FE       		.byte	-2
 1060 0046 01       		.byte	1
 1061 0047 19       		.byte	25
 1062 0048 FF       		.byte	-1
 1063              		.section	.rodata.u8x8_d_ssd1322_256x64_flip0_seq,"a",%progbits
 1064              		.align	2
 1065              		.set	.LANCHOR7,. + 0
 1068              	u8x8_d_ssd1322_256x64_flip0_seq:
 1069 0000 18       		.byte	24
 1070 0001 15       		.byte	21
 1071 0002 A0       		.byte	-96
 1072 0003 16       		.byte	22
 1073 0004 06       		.byte	6
 1074 0005 16       		.byte	22
 1075 0006 11       		.byte	17
 1076 0007 19       		.byte	25
 1077 0008 FF       		.byte	-1
 1078              		.section	.rodata.u8x8_d_ssd1322_256x64_flip1_seq,"a",%progbits
 1079              		.align	2
 1080              		.set	.LANCHOR8,. + 0
 1083              	u8x8_d_ssd1322_256x64_flip1_seq:
ARM GAS  /var/folders/v3/wysfpd052nz8jkbx04pk0ym80000gn/T//ccWqVvFB.s 			page 31


 1084 0000 18       		.byte	24
 1085 0001 15       		.byte	21
 1086 0002 A0       		.byte	-96
 1087 0003 16       		.byte	22
 1088 0004 14       		.byte	20
 1089 0005 16       		.byte	22
 1090 0006 11       		.byte	17
 1091 0007 19       		.byte	25
 1092 0008 FF       		.byte	-1
 1093              		.section	.rodata.u8x8_d_ssd1322_256x64_init_seq,"a",%progbits
 1094              		.align	2
 1095              		.set	.LANCHOR6,. + 0
 1098              	u8x8_d_ssd1322_256x64_init_seq:
 1099 0000 FE       		.byte	-2
 1100 0001 01       		.byte	1
 1101 0002 18       		.byte	24
 1102 0003 FE       		.byte	-2
 1103 0004 01       		.byte	1
 1104 0005 15       		.byte	21
 1105 0006 FD       		.byte	-3
 1106 0007 16       		.byte	22
 1107 0008 12       		.byte	18
 1108 0009 15       		.byte	21
 1109 000a AE       		.byte	-82
 1110 000b 15       		.byte	21
 1111 000c B3       		.byte	-77
 1112 000d 16       		.byte	22
 1113 000e 91       		.byte	-111
 1114 000f 15       		.byte	21
 1115 0010 CA       		.byte	-54
 1116 0011 16       		.byte	22
 1117 0012 3F       		.byte	63
 1118 0013 15       		.byte	21
 1119 0014 A2       		.byte	-94
 1120 0015 16       		.byte	22
 1121 0016 00       		.byte	0
 1122 0017 15       		.byte	21
 1123 0018 A1       		.byte	-95
 1124 0019 16       		.byte	22
 1125 001a 00       		.byte	0
 1126 001b 15       		.byte	21
 1127 001c A0       		.byte	-96
 1128 001d 16       		.byte	22
 1129 001e 06       		.byte	6
 1130 001f 16       		.byte	22
 1131 0020 11       		.byte	17
 1132 0021 15       		.byte	21
 1133 0022 AB       		.byte	-85
 1134 0023 16       		.byte	22
 1135 0024 01       		.byte	1
 1136 0025 15       		.byte	21
 1137 0026 B4       		.byte	-76
 1138 0027 16       		.byte	22
 1139 0028 A0       		.byte	-96
 1140 0029 16       		.byte	22
 1141 002a FD       		.byte	-3
 1142 002b 15       		.byte	21
ARM GAS  /var/folders/v3/wysfpd052nz8jkbx04pk0ym80000gn/T//ccWqVvFB.s 			page 32


 1143 002c C1       		.byte	-63
 1144 002d 16       		.byte	22
 1145 002e 9F       		.byte	-97
 1146 002f 15       		.byte	21
 1147 0030 C7       		.byte	-57
 1148 0031 16       		.byte	22
 1149 0032 0F       		.byte	15
 1150 0033 15       		.byte	21
 1151 0034 B9       		.byte	-71
 1152 0035 15       		.byte	21
 1153 0036 B1       		.byte	-79
 1154 0037 16       		.byte	22
 1155 0038 E2       		.byte	-30
 1156 0039 15       		.byte	21
 1157 003a D1       		.byte	-47
 1158 003b 16       		.byte	22
 1159 003c A2       		.byte	-94
 1160 003d 16       		.byte	22
 1161 003e 20       		.byte	32
 1162 003f 15       		.byte	21
 1163 0040 BB       		.byte	-69
 1164 0041 16       		.byte	22
 1165 0042 1F       		.byte	31
 1166 0043 15       		.byte	21
 1167 0044 B6       		.byte	-74
 1168 0045 16       		.byte	22
 1169 0046 08       		.byte	8
 1170 0047 15       		.byte	21
 1171 0048 BE       		.byte	-66
 1172 0049 16       		.byte	22
 1173 004a 07       		.byte	7
 1174 004b 15       		.byte	21
 1175 004c A6       		.byte	-90
 1176 004d 15       		.byte	21
 1177 004e A9       		.byte	-87
 1178 004f FE       		.byte	-2
 1179 0050 01       		.byte	1
 1180 0051 19       		.byte	25
 1181 0052 FF       		.byte	-1
 1182              		.section	.rodata.u8x8_d_ssd1322_powersave0_seq,"a",%progbits
 1183              		.align	2
 1184              		.set	.LANCHOR3,. + 0
 1187              	u8x8_d_ssd1322_powersave0_seq:
 1188 0000 18       		.byte	24
 1189 0001 15       		.byte	21
 1190 0002 AF       		.byte	-81
 1191 0003 19       		.byte	25
 1192 0004 FF       		.byte	-1
 1193              		.section	.rodata.u8x8_d_ssd1322_powersave1_seq,"a",%progbits
 1194              		.align	2
 1195              		.set	.LANCHOR4,. + 0
 1198              	u8x8_d_ssd1322_powersave1_seq:
 1199 0000 18       		.byte	24
 1200 0001 15       		.byte	21
 1201 0002 AE       		.byte	-82
 1202 0003 19       		.byte	25
 1203 0004 FF       		.byte	-1
ARM GAS  /var/folders/v3/wysfpd052nz8jkbx04pk0ym80000gn/T//ccWqVvFB.s 			page 33


 1204              		.section	.rodata.u8x8_ssd1322_128x64_display_info,"a",%progbits
 1205              		.align	2
 1206              		.set	.LANCHOR9,. + 0
 1209              	u8x8_ssd1322_128x64_display_info:
 1210 0000 00       		.byte	0
 1211 0001 01       		.byte	1
 1212 0002 14       		.byte	20
 1213 0003 0A       		.byte	10
 1214 0004 64       		.byte	100
 1215 0005 64       		.byte	100
 1216 0006 32       		.byte	50
 1217 0007 32       		.byte	50
 1218 0008 80969800 		.word	10000000
 1219 000c 00       		.byte	0
 1220 000d 04       		.byte	4
 1221 000e 0A       		.byte	10
 1222 000f 96       		.byte	-106
 1223 0010 10       		.byte	16
 1224 0011 08       		.byte	8
 1225 0012 1C       		.byte	28
 1226 0013 1C       		.byte	28
 1227 0014 8000     		.short	128
 1228 0016 4000     		.short	64
 1229              		.section	.rodata.u8x8_ssd1322_256x64_display_info,"a",%progbits
 1230              		.align	2
 1231              		.set	.LANCHOR5,. + 0
 1234              	u8x8_ssd1322_256x64_display_info:
 1235 0000 00       		.byte	0
 1236 0001 01       		.byte	1
 1237 0002 14       		.byte	20
 1238 0003 0A       		.byte	10
 1239 0004 64       		.byte	100
 1240 0005 64       		.byte	100
 1241 0006 32       		.byte	50
 1242 0007 32       		.byte	50
 1243 0008 80969800 		.word	10000000
 1244 000c 00       		.byte	0
 1245 000d 04       		.byte	4
 1246 000e 0A       		.byte	10
 1247 000f 96       		.byte	-106
 1248 0010 20       		.byte	32
 1249 0011 08       		.byte	8
 1250 0012 1C       		.byte	28
 1251 0013 1C       		.byte	28
 1252 0014 0001     		.short	256
 1253 0016 4000     		.short	64
 1254              		.text
 1255              	.Letext0:
 1256              		.file 2 "/usr/local/gcc-arm-none-eabi-7-2018-q2-update/arm-none-eabi/include/machine/_default_type
 1257              		.file 3 "/usr/local/gcc-arm-none-eabi-7-2018-q2-update/arm-none-eabi/include/sys/_stdint.h"
 1258              		.file 4 "/Users/imashio/Electronics/ARM/_Library/u8x8.h"
ARM GAS  /var/folders/v3/wysfpd052nz8jkbx04pk0ym80000gn/T//ccWqVvFB.s 			page 34

