ARM GAS  /var/folders/v3/wysfpd052nz8jkbx04pk0ym80000gn/T//cccUw3f1.s 			page 1


   1              		.cpu cortex-m4
   2              		.eabi_attribute 27, 1
   3              		.eabi_attribute 28, 1
   4              		.eabi_attribute 20, 1
   5              		.eabi_attribute 21, 1
   6              		.eabi_attribute 23, 3
   7              		.eabi_attribute 24, 1
   8              		.eabi_attribute 25, 1
   9              		.eabi_attribute 26, 1
  10              		.eabi_attribute 30, 1
  11              		.eabi_attribute 34, 1
  12              		.eabi_attribute 18, 4
  13              		.file	"u8x8_d_ld7032_60x32.c"
  14              		.text
  15              	.Ltext0:
  16              		.cfi_sections	.debug_frame
  17              		.section	.text.u8x8_d_ld7032_generic,"ax",%progbits
  18              		.align	1
  19              		.syntax unified
  20              		.thumb
  21              		.thumb_func
  22              		.fpu fpv4-sp-d16
  24              	u8x8_d_ld7032_generic:
  25              	.LFB0:
  26              		.file 1 "/Users/imashio/Electronics/ARM/_Library/u8x8_d_ld7032_60x32.c"
   1:/Users/imashio/Electronics/ARM/_Library/u8x8_d_ld7032_60x32.c **** /*
   2:/Users/imashio/Electronics/ARM/_Library/u8x8_d_ld7032_60x32.c **** 
   3:/Users/imashio/Electronics/ARM/_Library/u8x8_d_ld7032_60x32.c ****   u8x8_d_ld7032_60x32.c
   4:/Users/imashio/Electronics/ARM/_Library/u8x8_d_ld7032_60x32.c ****   Note: Flip Mode is NOT supported
   5:/Users/imashio/Electronics/ARM/_Library/u8x8_d_ld7032_60x32.c **** 
   6:/Users/imashio/Electronics/ARM/_Library/u8x8_d_ld7032_60x32.c ****   Universal 8bit Graphics Library (https://github.com/olikraus/u8g2/)
   7:/Users/imashio/Electronics/ARM/_Library/u8x8_d_ld7032_60x32.c **** 
   8:/Users/imashio/Electronics/ARM/_Library/u8x8_d_ld7032_60x32.c ****   Copyright (c) 2016, olikraus@gmail.com
   9:/Users/imashio/Electronics/ARM/_Library/u8x8_d_ld7032_60x32.c ****   All rights reserved.
  10:/Users/imashio/Electronics/ARM/_Library/u8x8_d_ld7032_60x32.c **** 
  11:/Users/imashio/Electronics/ARM/_Library/u8x8_d_ld7032_60x32.c ****   Redistribution and use in source and binary forms, with or without modification, 
  12:/Users/imashio/Electronics/ARM/_Library/u8x8_d_ld7032_60x32.c ****   are permitted provided that the following conditions are met:
  13:/Users/imashio/Electronics/ARM/_Library/u8x8_d_ld7032_60x32.c **** 
  14:/Users/imashio/Electronics/ARM/_Library/u8x8_d_ld7032_60x32.c ****   * Redistributions of source code must retain the above copyright notice, this list 
  15:/Users/imashio/Electronics/ARM/_Library/u8x8_d_ld7032_60x32.c ****     of conditions and the following disclaimer.
  16:/Users/imashio/Electronics/ARM/_Library/u8x8_d_ld7032_60x32.c ****     
  17:/Users/imashio/Electronics/ARM/_Library/u8x8_d_ld7032_60x32.c ****   * Redistributions in binary form must reproduce the above copyright notice, this 
  18:/Users/imashio/Electronics/ARM/_Library/u8x8_d_ld7032_60x32.c ****     list of conditions and the following disclaimer in the documentation and/or other 
  19:/Users/imashio/Electronics/ARM/_Library/u8x8_d_ld7032_60x32.c ****     materials provided with the distribution.
  20:/Users/imashio/Electronics/ARM/_Library/u8x8_d_ld7032_60x32.c **** 
  21:/Users/imashio/Electronics/ARM/_Library/u8x8_d_ld7032_60x32.c ****   THIS SOFTWARE IS PROVIDED BY THE COPYRIGHT HOLDERS AND 
  22:/Users/imashio/Electronics/ARM/_Library/u8x8_d_ld7032_60x32.c ****   CONTRIBUTORS "AS IS" AND ANY EXPRESS OR IMPLIED WARRANTIES, 
  23:/Users/imashio/Electronics/ARM/_Library/u8x8_d_ld7032_60x32.c ****   INCLUDING, BUT NOT LIMITED TO, THE IMPLIED WARRANTIES OF 
  24:/Users/imashio/Electronics/ARM/_Library/u8x8_d_ld7032_60x32.c ****   MERCHANTABILITY AND FITNESS FOR A PARTICULAR PURPOSE ARE 
  25:/Users/imashio/Electronics/ARM/_Library/u8x8_d_ld7032_60x32.c ****   DISCLAIMED. IN NO EVENT SHALL THE COPYRIGHT HOLDER OR 
  26:/Users/imashio/Electronics/ARM/_Library/u8x8_d_ld7032_60x32.c ****   CONTRIBUTORS BE LIABLE FOR ANY DIRECT, INDIRECT, INCIDENTAL, 
  27:/Users/imashio/Electronics/ARM/_Library/u8x8_d_ld7032_60x32.c ****   SPECIAL, EXEMPLARY, OR CONSEQUENTIAL DAMAGES (INCLUDING, BUT 
  28:/Users/imashio/Electronics/ARM/_Library/u8x8_d_ld7032_60x32.c ****   NOT LIMITED TO, PROCUREMENT OF SUBSTITUTE GOODS OR SERVICES; 
  29:/Users/imashio/Electronics/ARM/_Library/u8x8_d_ld7032_60x32.c ****   LOSS OF USE, DATA, OR PROFITS; OR BUSINESS INTERRUPTION) HOWEVER 
  30:/Users/imashio/Electronics/ARM/_Library/u8x8_d_ld7032_60x32.c ****   CAUSED AND ON ANY THEORY OF LIABILITY, WHETHER IN CONTRACT, 
  31:/Users/imashio/Electronics/ARM/_Library/u8x8_d_ld7032_60x32.c ****   STRICT LIABILITY, OR TORT (INCLUDING NEGLIGENCE OR OTHERWISE) 
  32:/Users/imashio/Electronics/ARM/_Library/u8x8_d_ld7032_60x32.c ****   ARISING IN ANY WAY OUT OF THE USE OF THIS SOFTWARE, EVEN IF 
ARM GAS  /var/folders/v3/wysfpd052nz8jkbx04pk0ym80000gn/T//cccUw3f1.s 			page 2


  33:/Users/imashio/Electronics/ARM/_Library/u8x8_d_ld7032_60x32.c ****   ADVISED OF THE POSSIBILITY OF SUCH DAMAGE.  
  34:/Users/imashio/Electronics/ARM/_Library/u8x8_d_ld7032_60x32.c ****   
  35:/Users/imashio/Electronics/ARM/_Library/u8x8_d_ld7032_60x32.c **** */
  36:/Users/imashio/Electronics/ARM/_Library/u8x8_d_ld7032_60x32.c **** 
  37:/Users/imashio/Electronics/ARM/_Library/u8x8_d_ld7032_60x32.c **** 
  38:/Users/imashio/Electronics/ARM/_Library/u8x8_d_ld7032_60x32.c **** #include "u8x8.h"
  39:/Users/imashio/Electronics/ARM/_Library/u8x8_d_ld7032_60x32.c **** 
  40:/Users/imashio/Electronics/ARM/_Library/u8x8_d_ld7032_60x32.c **** 
  41:/Users/imashio/Electronics/ARM/_Library/u8x8_d_ld7032_60x32.c **** /* testboard U8GLIB_LD7032_60x32 u8g(11, 12, 9, 10, 8);	// SPI Com: SCK = 11, MOSI = 12, CS = 9, A0
  42:/Users/imashio/Electronics/ARM/_Library/u8x8_d_ld7032_60x32.c **** /* http://www.seeedstudio.com/document/pdf/0.5OLED%20SPEC.pdf */
  43:/Users/imashio/Electronics/ARM/_Library/u8x8_d_ld7032_60x32.c **** static const uint8_t u8x8_d_ld7032_60x32_init_seq[] = {
  44:/Users/imashio/Electronics/ARM/_Library/u8x8_d_ld7032_60x32.c ****     
  45:/Users/imashio/Electronics/ARM/_Library/u8x8_d_ld7032_60x32.c ****   U8X8_START_TRANSFER(),             	/* enable chip, delay is part of the transfer start */
  46:/Users/imashio/Electronics/ARM/_Library/u8x8_d_ld7032_60x32.c **** 
  47:/Users/imashio/Electronics/ARM/_Library/u8x8_d_ld7032_60x32.c ****   //U8X8_CA(0x002, 0x001),		/* Dot Matrix Display ON */
  48:/Users/imashio/Electronics/ARM/_Library/u8x8_d_ld7032_60x32.c ****   U8X8_CA(0x014, 0x000),		/* Stand-by OFF */
  49:/Users/imashio/Electronics/ARM/_Library/u8x8_d_ld7032_60x32.c ****   U8X8_CA(0x01a, 0x004),		/* Dot Matrix Frame Rate,  special value for this OLED from manual*/
  50:/Users/imashio/Electronics/ARM/_Library/u8x8_d_ld7032_60x32.c ****   U8X8_CA(0x01d, 0x000),		/* Graphics Memory Writing Direction: reset default (right down, horizont
  51:/Users/imashio/Electronics/ARM/_Library/u8x8_d_ld7032_60x32.c ****   U8X8_CA(0x009, 0x000),		/* Display Direction:  reset default (x,y: min --> max) */
  52:/Users/imashio/Electronics/ARM/_Library/u8x8_d_ld7032_60x32.c ****   U8X8_CAA(0x030, 0x000, 0x03b),	/* Display Size X, Column Start - End*/
  53:/Users/imashio/Electronics/ARM/_Library/u8x8_d_ld7032_60x32.c ****   U8X8_CAA(0x032, 0x000, 0x01f),	/* Display Size Y, Row Start - End*/
  54:/Users/imashio/Electronics/ARM/_Library/u8x8_d_ld7032_60x32.c ****   U8X8_CA(0x010, 0x000),		/* Peak Pulse Width Set: 0 SCLK */
  55:/Users/imashio/Electronics/ARM/_Library/u8x8_d_ld7032_60x32.c ****   U8X8_CA(0x016, 0x000),		/* Peak Pulse Delay Set: 0 SCLK */
  56:/Users/imashio/Electronics/ARM/_Library/u8x8_d_ld7032_60x32.c ****   U8X8_CA(0x012, 0x040),		/* Dot Matrix Current Level Set: 0x050 * 1 uA = 80 uA */
  57:/Users/imashio/Electronics/ARM/_Library/u8x8_d_ld7032_60x32.c ****   U8X8_CA(0x018, 0x003),		/* Pre-Charge Pulse Width: 3 SCLK */
  58:/Users/imashio/Electronics/ARM/_Library/u8x8_d_ld7032_60x32.c ****   U8X8_CA(0x044, 0x002),		/* Pre-Charge Mode: Every Time */
  59:/Users/imashio/Electronics/ARM/_Library/u8x8_d_ld7032_60x32.c ****   U8X8_CA(0x048, 0x003),		/* Row overlap timing: Pre-Charge + Peak Delay + Peak boot Timing */
  60:/Users/imashio/Electronics/ARM/_Library/u8x8_d_ld7032_60x32.c ****   U8X8_CA(0x03f, 0x011),		/* VCC_R_SEL: ??? */
  61:/Users/imashio/Electronics/ARM/_Library/u8x8_d_ld7032_60x32.c ****   U8X8_CA(0x03d, 0x000),		/* VSS selection: 2.8V */
  62:/Users/imashio/Electronics/ARM/_Library/u8x8_d_ld7032_60x32.c ****   //U8X8_CA(0x002, 0x001),		/* Dot Matrix Display ON */
  63:/Users/imashio/Electronics/ARM/_Library/u8x8_d_ld7032_60x32.c ****   
  64:/Users/imashio/Electronics/ARM/_Library/u8x8_d_ld7032_60x32.c ****     
  65:/Users/imashio/Electronics/ARM/_Library/u8x8_d_ld7032_60x32.c ****   U8X8_END_TRANSFER(),             	/* disable chip */
  66:/Users/imashio/Electronics/ARM/_Library/u8x8_d_ld7032_60x32.c ****   U8X8_END()             			/* end of sequence */
  67:/Users/imashio/Electronics/ARM/_Library/u8x8_d_ld7032_60x32.c **** };
  68:/Users/imashio/Electronics/ARM/_Library/u8x8_d_ld7032_60x32.c **** 
  69:/Users/imashio/Electronics/ARM/_Library/u8x8_d_ld7032_60x32.c **** static const uint8_t u8x8_d_ld7032_60x32_powersave0_seq[] = {
  70:/Users/imashio/Electronics/ARM/_Library/u8x8_d_ld7032_60x32.c ****   U8X8_START_TRANSFER(),             	/* enable chip, delay is part of the transfer start */
  71:/Users/imashio/Electronics/ARM/_Library/u8x8_d_ld7032_60x32.c ****   U8X8_CA(0x002, 0x001),		/* Dot Matrix Display ON */
  72:/Users/imashio/Electronics/ARM/_Library/u8x8_d_ld7032_60x32.c ****   U8X8_END_TRANSFER(),             	/* disable chip */
  73:/Users/imashio/Electronics/ARM/_Library/u8x8_d_ld7032_60x32.c ****   U8X8_END()             			/* end of sequence */
  74:/Users/imashio/Electronics/ARM/_Library/u8x8_d_ld7032_60x32.c **** };
  75:/Users/imashio/Electronics/ARM/_Library/u8x8_d_ld7032_60x32.c **** 
  76:/Users/imashio/Electronics/ARM/_Library/u8x8_d_ld7032_60x32.c **** static const uint8_t u8x8_d_ld7032_60x32_powersave1_seq[] = {
  77:/Users/imashio/Electronics/ARM/_Library/u8x8_d_ld7032_60x32.c ****   U8X8_START_TRANSFER(),             	/* enable chip, delay is part of the transfer start */
  78:/Users/imashio/Electronics/ARM/_Library/u8x8_d_ld7032_60x32.c ****   U8X8_CA(0x002, 0x000),		/* Dot Matrix Display ON */
  79:/Users/imashio/Electronics/ARM/_Library/u8x8_d_ld7032_60x32.c ****   U8X8_END_TRANSFER(),             	/* disable chip */
  80:/Users/imashio/Electronics/ARM/_Library/u8x8_d_ld7032_60x32.c ****   U8X8_END()             			/* end of sequence */
  81:/Users/imashio/Electronics/ARM/_Library/u8x8_d_ld7032_60x32.c **** };
  82:/Users/imashio/Electronics/ARM/_Library/u8x8_d_ld7032_60x32.c **** 
  83:/Users/imashio/Electronics/ARM/_Library/u8x8_d_ld7032_60x32.c **** static const uint8_t u8x8_d_ld7032_60x32_flip0_seq[] = {
  84:/Users/imashio/Electronics/ARM/_Library/u8x8_d_ld7032_60x32.c ****   U8X8_START_TRANSFER(),             	/* enable chip, delay is part of the transfer start */
  85:/Users/imashio/Electronics/ARM/_Library/u8x8_d_ld7032_60x32.c ****   U8X8_CA(0x009, 0x000),		/* Display Direction:  reset default (x,y: min --> max) */  
  86:/Users/imashio/Electronics/ARM/_Library/u8x8_d_ld7032_60x32.c ****   U8X8_END_TRANSFER(),             	/* disable chip */
  87:/Users/imashio/Electronics/ARM/_Library/u8x8_d_ld7032_60x32.c ****   U8X8_END()             			/* end of sequence */
  88:/Users/imashio/Electronics/ARM/_Library/u8x8_d_ld7032_60x32.c **** };
  89:/Users/imashio/Electronics/ARM/_Library/u8x8_d_ld7032_60x32.c **** 
ARM GAS  /var/folders/v3/wysfpd052nz8jkbx04pk0ym80000gn/T//cccUw3f1.s 			page 3


  90:/Users/imashio/Electronics/ARM/_Library/u8x8_d_ld7032_60x32.c **** static const uint8_t u8x8_d_ld7032_60x32_flip1_seq[] = {
  91:/Users/imashio/Electronics/ARM/_Library/u8x8_d_ld7032_60x32.c ****   U8X8_START_TRANSFER(),             	/* enable chip, delay is part of the transfer start */
  92:/Users/imashio/Electronics/ARM/_Library/u8x8_d_ld7032_60x32.c ****   //U8X8_CA(0x009, 0x002),		/* Display Direction:  reset default (x,y: min --> max) */  
  93:/Users/imashio/Electronics/ARM/_Library/u8x8_d_ld7032_60x32.c ****   U8X8_END_TRANSFER(),             	/* disable chip */
  94:/Users/imashio/Electronics/ARM/_Library/u8x8_d_ld7032_60x32.c ****   U8X8_END()             			/* end of sequence */
  95:/Users/imashio/Electronics/ARM/_Library/u8x8_d_ld7032_60x32.c **** };
  96:/Users/imashio/Electronics/ARM/_Library/u8x8_d_ld7032_60x32.c **** 
  97:/Users/imashio/Electronics/ARM/_Library/u8x8_d_ld7032_60x32.c **** 
  98:/Users/imashio/Electronics/ARM/_Library/u8x8_d_ld7032_60x32.c **** static uint8_t u8x8_d_ld7032_generic(u8x8_t *u8x8, uint8_t msg, uint8_t arg_int, void *arg_ptr)
  99:/Users/imashio/Electronics/ARM/_Library/u8x8_d_ld7032_60x32.c **** {
  27              		.loc 1 99 0
  28              		.cfi_startproc
  29              		@ args = 0, pretend = 0, frame = 0
  30              		@ frame_needed = 0, uses_anonymous_args = 0
  31              	.LVL0:
  32 0000 F8B5     		push	{r3, r4, r5, r6, r7, lr}
  33              	.LCFI0:
  34              		.cfi_def_cfa_offset 24
  35              		.cfi_offset 3, -24
  36              		.cfi_offset 4, -20
  37              		.cfi_offset 5, -16
  38              		.cfi_offset 6, -12
  39              		.cfi_offset 7, -8
  40              		.cfi_offset 14, -4
  41 0002 0546     		mov	r5, r0
  42 0004 1446     		mov	r4, r2
  43 0006 1E46     		mov	r6, r3
 100:/Users/imashio/Electronics/ARM/_Library/u8x8_d_ld7032_60x32.c ****   uint8_t x, c;
 101:/Users/imashio/Electronics/ARM/_Library/u8x8_d_ld7032_60x32.c ****   uint8_t *ptr;
 102:/Users/imashio/Electronics/ARM/_Library/u8x8_d_ld7032_60x32.c ****   switch(msg)
  44              		.loc 1 102 0
  45 0008 0A39     		subs	r1, r1, #10
  46              	.LVL1:
  47 000a 0529     		cmp	r1, #5
  48 000c 7BD8     		bhi	.L13
  49 000e DFE801F0 		tbb	[pc, r1]
  50              	.LVL2:
  51              	.L4:
  52 0012 03       		.byte	(.L3-.L4)/2
  53 0013 0B       		.byte	(.L5-.L4)/2
  54 0014 7A       		.byte	(.L13-.L4)/2
  55 0015 16       		.byte	(.L6-.L4)/2
  56 0016 27       		.byte	(.L7-.L4)/2
  57 0017 3B       		.byte	(.L8-.L4)/2
  58              		.p2align 1
  59              	.L3:
 103:/Users/imashio/Electronics/ARM/_Library/u8x8_d_ld7032_60x32.c ****   {
 104:/Users/imashio/Electronics/ARM/_Library/u8x8_d_ld7032_60x32.c ****     /* handled by the calling function
 105:/Users/imashio/Electronics/ARM/_Library/u8x8_d_ld7032_60x32.c ****     case U8X8_MSG_DISPLAY_SETUP_MEMORY:
 106:/Users/imashio/Electronics/ARM/_Library/u8x8_d_ld7032_60x32.c ****       u8x8_d_helper_display_setup_memory(u8x8, &u8x8_ld7032_60x32_display_info);
 107:/Users/imashio/Electronics/ARM/_Library/u8x8_d_ld7032_60x32.c ****       break;
 108:/Users/imashio/Electronics/ARM/_Library/u8x8_d_ld7032_60x32.c ****     */
 109:/Users/imashio/Electronics/ARM/_Library/u8x8_d_ld7032_60x32.c ****     case U8X8_MSG_DISPLAY_INIT:
 110:/Users/imashio/Electronics/ARM/_Library/u8x8_d_ld7032_60x32.c ****       u8x8_d_helper_display_init(u8x8);
  60              		.loc 1 110 0
  61 0018 FFF7FEFF 		bl	u8x8_d_helper_display_init
  62              	.LVL3:
ARM GAS  /var/folders/v3/wysfpd052nz8jkbx04pk0ym80000gn/T//cccUw3f1.s 			page 4


 111:/Users/imashio/Electronics/ARM/_Library/u8x8_d_ld7032_60x32.c ****       u8x8_cad_SendSequence(u8x8, u8x8_d_ld7032_60x32_init_seq);    
  63              		.loc 1 111 0
  64 001c 3B49     		ldr	r1, .L17
  65 001e 2846     		mov	r0, r5
  66 0020 FFF7FEFF 		bl	u8x8_cad_SendSequence
  67              	.LVL4:
 112:/Users/imashio/Electronics/ARM/_Library/u8x8_d_ld7032_60x32.c ****       break;
 113:/Users/imashio/Electronics/ARM/_Library/u8x8_d_ld7032_60x32.c ****     case U8X8_MSG_DISPLAY_SET_POWER_SAVE:
 114:/Users/imashio/Electronics/ARM/_Library/u8x8_d_ld7032_60x32.c ****       if ( arg_int == 0 )
 115:/Users/imashio/Electronics/ARM/_Library/u8x8_d_ld7032_60x32.c **** 	u8x8_cad_SendSequence(u8x8, u8x8_d_ld7032_60x32_powersave0_seq);
 116:/Users/imashio/Electronics/ARM/_Library/u8x8_d_ld7032_60x32.c ****       else
 117:/Users/imashio/Electronics/ARM/_Library/u8x8_d_ld7032_60x32.c **** 	u8x8_cad_SendSequence(u8x8, u8x8_d_ld7032_60x32_powersave1_seq);
 118:/Users/imashio/Electronics/ARM/_Library/u8x8_d_ld7032_60x32.c ****       break;
 119:/Users/imashio/Electronics/ARM/_Library/u8x8_d_ld7032_60x32.c ****     case U8X8_MSG_DISPLAY_SET_FLIP_MODE:
 120:/Users/imashio/Electronics/ARM/_Library/u8x8_d_ld7032_60x32.c ****       if ( arg_int == 0 )
 121:/Users/imashio/Electronics/ARM/_Library/u8x8_d_ld7032_60x32.c ****       {
 122:/Users/imashio/Electronics/ARM/_Library/u8x8_d_ld7032_60x32.c **** 	u8x8_cad_SendSequence(u8x8, u8x8_d_ld7032_60x32_flip0_seq);
 123:/Users/imashio/Electronics/ARM/_Library/u8x8_d_ld7032_60x32.c **** 	u8x8->x_offset = u8x8->display_info->default_x_offset;
 124:/Users/imashio/Electronics/ARM/_Library/u8x8_d_ld7032_60x32.c ****       }
 125:/Users/imashio/Electronics/ARM/_Library/u8x8_d_ld7032_60x32.c ****       else
 126:/Users/imashio/Electronics/ARM/_Library/u8x8_d_ld7032_60x32.c ****       {
 127:/Users/imashio/Electronics/ARM/_Library/u8x8_d_ld7032_60x32.c **** 	u8x8_cad_SendSequence(u8x8, u8x8_d_ld7032_60x32_flip1_seq);
 128:/Users/imashio/Electronics/ARM/_Library/u8x8_d_ld7032_60x32.c **** 	u8x8->x_offset = u8x8->display_info->flipmode_x_offset;
 129:/Users/imashio/Electronics/ARM/_Library/u8x8_d_ld7032_60x32.c ****       }
 130:/Users/imashio/Electronics/ARM/_Library/u8x8_d_ld7032_60x32.c ****       break;
 131:/Users/imashio/Electronics/ARM/_Library/u8x8_d_ld7032_60x32.c **** #ifdef U8X8_WITH_SET_CONTRAST
 132:/Users/imashio/Electronics/ARM/_Library/u8x8_d_ld7032_60x32.c ****     case U8X8_MSG_DISPLAY_SET_CONTRAST:
 133:/Users/imashio/Electronics/ARM/_Library/u8x8_d_ld7032_60x32.c ****       u8x8_cad_StartTransfer(u8x8);
 134:/Users/imashio/Electronics/ARM/_Library/u8x8_d_ld7032_60x32.c ****       u8x8_cad_SendCmd(u8x8, 0x012 );
 135:/Users/imashio/Electronics/ARM/_Library/u8x8_d_ld7032_60x32.c ****       if ( arg_int > 0x07f )			/* default is 0x040, limit to 0x07f to be on the safe side (hopefull
 136:/Users/imashio/Electronics/ARM/_Library/u8x8_d_ld7032_60x32.c **** 	arg_int= 0x07f;
 137:/Users/imashio/Electronics/ARM/_Library/u8x8_d_ld7032_60x32.c ****       u8x8_cad_SendArg(u8x8, arg_int );	/* values from 0x00 to 0x0ff are allowed, bit will all valu
 138:/Users/imashio/Electronics/ARM/_Library/u8x8_d_ld7032_60x32.c ****       u8x8_cad_EndTransfer(u8x8);
 139:/Users/imashio/Electronics/ARM/_Library/u8x8_d_ld7032_60x32.c ****       break;
 140:/Users/imashio/Electronics/ARM/_Library/u8x8_d_ld7032_60x32.c **** #endif
 141:/Users/imashio/Electronics/ARM/_Library/u8x8_d_ld7032_60x32.c ****     case U8X8_MSG_DISPLAY_DRAW_TILE:
 142:/Users/imashio/Electronics/ARM/_Library/u8x8_d_ld7032_60x32.c ****       u8x8_cad_StartTransfer(u8x8);
 143:/Users/imashio/Electronics/ARM/_Library/u8x8_d_ld7032_60x32.c ****       x = ((u8x8_tile_t *)arg_ptr)->x_pos;    
 144:/Users/imashio/Electronics/ARM/_Library/u8x8_d_ld7032_60x32.c ****       x += u8x8->x_offset/8;
 145:/Users/imashio/Electronics/ARM/_Library/u8x8_d_ld7032_60x32.c ****       u8x8_cad_SendCmd(u8x8, 0x034 );
 146:/Users/imashio/Electronics/ARM/_Library/u8x8_d_ld7032_60x32.c ****       u8x8_cad_SendArg(u8x8, x );
 147:/Users/imashio/Electronics/ARM/_Library/u8x8_d_ld7032_60x32.c ****       u8x8_cad_SendCmd(u8x8, 0x035 );
 148:/Users/imashio/Electronics/ARM/_Library/u8x8_d_ld7032_60x32.c ****       u8x8_cad_SendArg(u8x8, 0x007 );
 149:/Users/imashio/Electronics/ARM/_Library/u8x8_d_ld7032_60x32.c ****       u8x8_cad_SendCmd(u8x8, 0x036 );
 150:/Users/imashio/Electronics/ARM/_Library/u8x8_d_ld7032_60x32.c ****       u8x8_cad_SendArg(u8x8, (((u8x8_tile_t *)arg_ptr)->y_pos)*8 );
 151:/Users/imashio/Electronics/ARM/_Library/u8x8_d_ld7032_60x32.c ****       u8x8_cad_SendCmd(u8x8, 0x037 );
 152:/Users/imashio/Electronics/ARM/_Library/u8x8_d_ld7032_60x32.c ****       u8x8_cad_SendArg(u8x8, 0x01f );
 153:/Users/imashio/Electronics/ARM/_Library/u8x8_d_ld7032_60x32.c ****       u8x8_cad_SendCmd(u8x8, 0x008 );
 154:/Users/imashio/Electronics/ARM/_Library/u8x8_d_ld7032_60x32.c ****     
 155:/Users/imashio/Electronics/ARM/_Library/u8x8_d_ld7032_60x32.c ****       
 156:/Users/imashio/Electronics/ARM/_Library/u8x8_d_ld7032_60x32.c ****       do
 157:/Users/imashio/Electronics/ARM/_Library/u8x8_d_ld7032_60x32.c ****       {
 158:/Users/imashio/Electronics/ARM/_Library/u8x8_d_ld7032_60x32.c **** 	c = ((u8x8_tile_t *)arg_ptr)->cnt;
 159:/Users/imashio/Electronics/ARM/_Library/u8x8_d_ld7032_60x32.c **** 	ptr = ((u8x8_tile_t *)arg_ptr)->tile_ptr;
 160:/Users/imashio/Electronics/ARM/_Library/u8x8_d_ld7032_60x32.c **** 	u8x8_cad_SendData(u8x8, c*8, ptr); 	/* note: SendData can not handle more than 255 bytes */
 161:/Users/imashio/Electronics/ARM/_Library/u8x8_d_ld7032_60x32.c **** 	arg_int--;
 162:/Users/imashio/Electronics/ARM/_Library/u8x8_d_ld7032_60x32.c ****       } while( arg_int > 0 );
ARM GAS  /var/folders/v3/wysfpd052nz8jkbx04pk0ym80000gn/T//cccUw3f1.s 			page 5


 163:/Users/imashio/Electronics/ARM/_Library/u8x8_d_ld7032_60x32.c ****       
 164:/Users/imashio/Electronics/ARM/_Library/u8x8_d_ld7032_60x32.c ****       u8x8_cad_EndTransfer(u8x8);
 165:/Users/imashio/Electronics/ARM/_Library/u8x8_d_ld7032_60x32.c ****       break;
 166:/Users/imashio/Electronics/ARM/_Library/u8x8_d_ld7032_60x32.c ****     default:
 167:/Users/imashio/Electronics/ARM/_Library/u8x8_d_ld7032_60x32.c ****       return 0;
 168:/Users/imashio/Electronics/ARM/_Library/u8x8_d_ld7032_60x32.c ****   }
 169:/Users/imashio/Electronics/ARM/_Library/u8x8_d_ld7032_60x32.c ****   return 1;
  68              		.loc 1 169 0
  69 0024 0120     		movs	r0, #1
  70              	.LVL5:
  71              	.L2:
 170:/Users/imashio/Electronics/ARM/_Library/u8x8_d_ld7032_60x32.c **** }
  72              		.loc 1 170 0
  73 0026 F8BD     		pop	{r3, r4, r5, r6, r7, pc}
  74              	.LVL6:
  75              	.L5:
 114:/Users/imashio/Electronics/ARM/_Library/u8x8_d_ld7032_60x32.c **** 	u8x8_cad_SendSequence(u8x8, u8x8_d_ld7032_60x32_powersave0_seq);
  76              		.loc 1 114 0
  77 0028 22B9     		cbnz	r2, .L9
 115:/Users/imashio/Electronics/ARM/_Library/u8x8_d_ld7032_60x32.c ****       else
  78              		.loc 1 115 0
  79 002a 3949     		ldr	r1, .L17+4
  80 002c FFF7FEFF 		bl	u8x8_cad_SendSequence
  81              	.LVL7:
 169:/Users/imashio/Electronics/ARM/_Library/u8x8_d_ld7032_60x32.c **** }
  82              		.loc 1 169 0
  83 0030 0120     		movs	r0, #1
  84 0032 F8E7     		b	.L2
  85              	.LVL8:
  86              	.L9:
 117:/Users/imashio/Electronics/ARM/_Library/u8x8_d_ld7032_60x32.c ****       break;
  87              		.loc 1 117 0
  88 0034 3749     		ldr	r1, .L17+8
  89 0036 FFF7FEFF 		bl	u8x8_cad_SendSequence
  90              	.LVL9:
 169:/Users/imashio/Electronics/ARM/_Library/u8x8_d_ld7032_60x32.c **** }
  91              		.loc 1 169 0
  92 003a 0120     		movs	r0, #1
  93 003c F3E7     		b	.L2
  94              	.LVL10:
  95              	.L6:
 120:/Users/imashio/Electronics/ARM/_Library/u8x8_d_ld7032_60x32.c ****       {
  96              		.loc 1 120 0
  97 003e 3AB9     		cbnz	r2, .L10
 122:/Users/imashio/Electronics/ARM/_Library/u8x8_d_ld7032_60x32.c **** 	u8x8->x_offset = u8x8->display_info->default_x_offset;
  98              		.loc 1 122 0
  99 0040 3549     		ldr	r1, .L17+12
 100 0042 FFF7FEFF 		bl	u8x8_cad_SendSequence
 101              	.LVL11:
 123:/Users/imashio/Electronics/ARM/_Library/u8x8_d_ld7032_60x32.c ****       }
 102              		.loc 1 123 0
 103 0046 2B68     		ldr	r3, [r5]
 104 0048 9B7C     		ldrb	r3, [r3, #18]	@ zero_extendqisi2
 105 004a AB77     		strb	r3, [r5, #30]
 169:/Users/imashio/Electronics/ARM/_Library/u8x8_d_ld7032_60x32.c **** }
 106              		.loc 1 169 0
 107 004c 0120     		movs	r0, #1
ARM GAS  /var/folders/v3/wysfpd052nz8jkbx04pk0ym80000gn/T//cccUw3f1.s 			page 6


 108 004e EAE7     		b	.L2
 109              	.LVL12:
 110              	.L10:
 127:/Users/imashio/Electronics/ARM/_Library/u8x8_d_ld7032_60x32.c **** 	u8x8->x_offset = u8x8->display_info->flipmode_x_offset;
 111              		.loc 1 127 0
 112 0050 3249     		ldr	r1, .L17+16
 113 0052 FFF7FEFF 		bl	u8x8_cad_SendSequence
 114              	.LVL13:
 128:/Users/imashio/Electronics/ARM/_Library/u8x8_d_ld7032_60x32.c ****       }
 115              		.loc 1 128 0
 116 0056 2B68     		ldr	r3, [r5]
 117 0058 DB7C     		ldrb	r3, [r3, #19]	@ zero_extendqisi2
 118 005a AB77     		strb	r3, [r5, #30]
 169:/Users/imashio/Electronics/ARM/_Library/u8x8_d_ld7032_60x32.c **** }
 119              		.loc 1 169 0
 120 005c 0120     		movs	r0, #1
 121 005e E2E7     		b	.L2
 122              	.LVL14:
 123              	.L7:
 133:/Users/imashio/Electronics/ARM/_Library/u8x8_d_ld7032_60x32.c ****       u8x8_cad_SendCmd(u8x8, 0x012 );
 124              		.loc 1 133 0
 125 0060 FFF7FEFF 		bl	u8x8_cad_StartTransfer
 126              	.LVL15:
 134:/Users/imashio/Electronics/ARM/_Library/u8x8_d_ld7032_60x32.c ****       if ( arg_int > 0x07f )			/* default is 0x040, limit to 0x07f to be on the safe side (hopefull
 127              		.loc 1 134 0
 128 0064 1221     		movs	r1, #18
 129 0066 2846     		mov	r0, r5
 130 0068 FFF7FEFF 		bl	u8x8_cad_SendCmd
 131              	.LVL16:
 135:/Users/imashio/Electronics/ARM/_Library/u8x8_d_ld7032_60x32.c **** 	arg_int= 0x07f;
 132              		.loc 1 135 0
 133 006c 14F0800F 		tst	r4, #128
 134 0070 08D1     		bne	.L16
 135              	.L11:
 136              	.LVL17:
 137:/Users/imashio/Electronics/ARM/_Library/u8x8_d_ld7032_60x32.c ****       u8x8_cad_EndTransfer(u8x8);
 137              		.loc 1 137 0
 138 0072 2146     		mov	r1, r4
 139 0074 2846     		mov	r0, r5
 140 0076 FFF7FEFF 		bl	u8x8_cad_SendArg
 141              	.LVL18:
 138:/Users/imashio/Electronics/ARM/_Library/u8x8_d_ld7032_60x32.c ****       break;
 142              		.loc 1 138 0
 143 007a 2846     		mov	r0, r5
 144 007c FFF7FEFF 		bl	u8x8_cad_EndTransfer
 145              	.LVL19:
 169:/Users/imashio/Electronics/ARM/_Library/u8x8_d_ld7032_60x32.c **** }
 146              		.loc 1 169 0
 147 0080 0120     		movs	r0, #1
 139:/Users/imashio/Electronics/ARM/_Library/u8x8_d_ld7032_60x32.c **** #endif
 148              		.loc 1 139 0
 149 0082 D0E7     		b	.L2
 150              	.LVL20:
 151              	.L16:
 136:/Users/imashio/Electronics/ARM/_Library/u8x8_d_ld7032_60x32.c ****       u8x8_cad_SendArg(u8x8, arg_int );	/* values from 0x00 to 0x0ff are allowed, bit will all valu
 152              		.loc 1 136 0
 153 0084 7F24     		movs	r4, #127
ARM GAS  /var/folders/v3/wysfpd052nz8jkbx04pk0ym80000gn/T//cccUw3f1.s 			page 7


 154 0086 F4E7     		b	.L11
 155              	.LVL21:
 156              	.L8:
 142:/Users/imashio/Electronics/ARM/_Library/u8x8_d_ld7032_60x32.c ****       x = ((u8x8_tile_t *)arg_ptr)->x_pos;    
 157              		.loc 1 142 0
 158 0088 FFF7FEFF 		bl	u8x8_cad_StartTransfer
 159              	.LVL22:
 143:/Users/imashio/Electronics/ARM/_Library/u8x8_d_ld7032_60x32.c ****       x += u8x8->x_offset/8;
 160              		.loc 1 143 0
 161 008c 7779     		ldrb	r7, [r6, #5]	@ zero_extendqisi2
 162              	.LVL23:
 144:/Users/imashio/Electronics/ARM/_Library/u8x8_d_ld7032_60x32.c ****       u8x8_cad_SendCmd(u8x8, 0x034 );
 163              		.loc 1 144 0
 164 008e AB7F     		ldrb	r3, [r5, #30]	@ zero_extendqisi2
 165 0090 07EBD307 		add	r7, r7, r3, lsr #3
 166              	.LVL24:
 167 0094 FFB2     		uxtb	r7, r7
 168              	.LVL25:
 145:/Users/imashio/Electronics/ARM/_Library/u8x8_d_ld7032_60x32.c ****       u8x8_cad_SendArg(u8x8, x );
 169              		.loc 1 145 0
 170 0096 3421     		movs	r1, #52
 171 0098 2846     		mov	r0, r5
 172 009a FFF7FEFF 		bl	u8x8_cad_SendCmd
 173              	.LVL26:
 146:/Users/imashio/Electronics/ARM/_Library/u8x8_d_ld7032_60x32.c ****       u8x8_cad_SendCmd(u8x8, 0x035 );
 174              		.loc 1 146 0
 175 009e 3946     		mov	r1, r7
 176 00a0 2846     		mov	r0, r5
 177 00a2 FFF7FEFF 		bl	u8x8_cad_SendArg
 178              	.LVL27:
 147:/Users/imashio/Electronics/ARM/_Library/u8x8_d_ld7032_60x32.c ****       u8x8_cad_SendArg(u8x8, 0x007 );
 179              		.loc 1 147 0
 180 00a6 3521     		movs	r1, #53
 181 00a8 2846     		mov	r0, r5
 182 00aa FFF7FEFF 		bl	u8x8_cad_SendCmd
 183              	.LVL28:
 148:/Users/imashio/Electronics/ARM/_Library/u8x8_d_ld7032_60x32.c ****       u8x8_cad_SendCmd(u8x8, 0x036 );
 184              		.loc 1 148 0
 185 00ae 0721     		movs	r1, #7
 186 00b0 2846     		mov	r0, r5
 187 00b2 FFF7FEFF 		bl	u8x8_cad_SendArg
 188              	.LVL29:
 149:/Users/imashio/Electronics/ARM/_Library/u8x8_d_ld7032_60x32.c ****       u8x8_cad_SendArg(u8x8, (((u8x8_tile_t *)arg_ptr)->y_pos)*8 );
 189              		.loc 1 149 0
 190 00b6 3621     		movs	r1, #54
 191 00b8 2846     		mov	r0, r5
 192 00ba FFF7FEFF 		bl	u8x8_cad_SendCmd
 193              	.LVL30:
 150:/Users/imashio/Electronics/ARM/_Library/u8x8_d_ld7032_60x32.c ****       u8x8_cad_SendCmd(u8x8, 0x037 );
 194              		.loc 1 150 0
 195 00be B179     		ldrb	r1, [r6, #6]	@ zero_extendqisi2
 196 00c0 C900     		lsls	r1, r1, #3
 197 00c2 01F0F801 		and	r1, r1, #248
 198 00c6 2846     		mov	r0, r5
 199 00c8 FFF7FEFF 		bl	u8x8_cad_SendArg
 200              	.LVL31:
 151:/Users/imashio/Electronics/ARM/_Library/u8x8_d_ld7032_60x32.c ****       u8x8_cad_SendArg(u8x8, 0x01f );
ARM GAS  /var/folders/v3/wysfpd052nz8jkbx04pk0ym80000gn/T//cccUw3f1.s 			page 8


 201              		.loc 1 151 0
 202 00cc 3721     		movs	r1, #55
 203 00ce 2846     		mov	r0, r5
 204 00d0 FFF7FEFF 		bl	u8x8_cad_SendCmd
 205              	.LVL32:
 152:/Users/imashio/Electronics/ARM/_Library/u8x8_d_ld7032_60x32.c ****       u8x8_cad_SendCmd(u8x8, 0x008 );
 206              		.loc 1 152 0
 207 00d4 1F21     		movs	r1, #31
 208 00d6 2846     		mov	r0, r5
 209 00d8 FFF7FEFF 		bl	u8x8_cad_SendArg
 210              	.LVL33:
 153:/Users/imashio/Electronics/ARM/_Library/u8x8_d_ld7032_60x32.c ****     
 211              		.loc 1 153 0
 212 00dc 0821     		movs	r1, #8
 213 00de 2846     		mov	r0, r5
 214 00e0 FFF7FEFF 		bl	u8x8_cad_SendCmd
 215              	.LVL34:
 216              	.L12:
 158:/Users/imashio/Electronics/ARM/_Library/u8x8_d_ld7032_60x32.c **** 	ptr = ((u8x8_tile_t *)arg_ptr)->tile_ptr;
 217              		.loc 1 158 0 discriminator 1
 218 00e4 3179     		ldrb	r1, [r6, #4]	@ zero_extendqisi2
 219              	.LVL35:
 160:/Users/imashio/Electronics/ARM/_Library/u8x8_d_ld7032_60x32.c **** 	arg_int--;
 220              		.loc 1 160 0 discriminator 1
 221 00e6 C900     		lsls	r1, r1, #3
 222              	.LVL36:
 223 00e8 3268     		ldr	r2, [r6]
 224 00ea 01F0F801 		and	r1, r1, #248
 225 00ee 2846     		mov	r0, r5
 226 00f0 FFF7FEFF 		bl	u8x8_cad_SendData
 227              	.LVL37:
 161:/Users/imashio/Electronics/ARM/_Library/u8x8_d_ld7032_60x32.c ****       } while( arg_int > 0 );
 228              		.loc 1 161 0 discriminator 1
 229 00f4 013C     		subs	r4, r4, #1
 230              	.LVL38:
 162:/Users/imashio/Electronics/ARM/_Library/u8x8_d_ld7032_60x32.c ****       
 231              		.loc 1 162 0 discriminator 1
 232 00f6 14F0FF04 		ands	r4, r4, #255
 233              	.LVL39:
 234 00fa F3D1     		bne	.L12
 164:/Users/imashio/Electronics/ARM/_Library/u8x8_d_ld7032_60x32.c ****       break;
 235              		.loc 1 164 0
 236 00fc 2846     		mov	r0, r5
 237 00fe FFF7FEFF 		bl	u8x8_cad_EndTransfer
 238              	.LVL40:
 169:/Users/imashio/Electronics/ARM/_Library/u8x8_d_ld7032_60x32.c **** }
 239              		.loc 1 169 0
 240 0102 0120     		movs	r0, #1
 165:/Users/imashio/Electronics/ARM/_Library/u8x8_d_ld7032_60x32.c ****     default:
 241              		.loc 1 165 0
 242 0104 8FE7     		b	.L2
 243              	.LVL41:
 244              	.L13:
 167:/Users/imashio/Electronics/ARM/_Library/u8x8_d_ld7032_60x32.c ****   }
 245              		.loc 1 167 0
 246 0106 0020     		movs	r0, #0
 247              	.LVL42:
ARM GAS  /var/folders/v3/wysfpd052nz8jkbx04pk0ym80000gn/T//cccUw3f1.s 			page 9


 248 0108 8DE7     		b	.L2
 249              	.L18:
 250 010a 00BF     		.align	2
 251              	.L17:
 252 010c 00000000 		.word	.LANCHOR0
 253 0110 00000000 		.word	.LANCHOR1
 254 0114 00000000 		.word	.LANCHOR2
 255 0118 00000000 		.word	.LANCHOR3
 256 011c 00000000 		.word	.LANCHOR4
 257              		.cfi_endproc
 258              	.LFE0:
 260              		.section	.text.u8x8_d_ld7032_60x32,"ax",%progbits
 261              		.align	1
 262              		.global	u8x8_d_ld7032_60x32
 263              		.syntax unified
 264              		.thumb
 265              		.thumb_func
 266              		.fpu fpv4-sp-d16
 268              	u8x8_d_ld7032_60x32:
 269              	.LFB1:
 171:/Users/imashio/Electronics/ARM/_Library/u8x8_d_ld7032_60x32.c **** 
 172:/Users/imashio/Electronics/ARM/_Library/u8x8_d_ld7032_60x32.c **** 
 173:/Users/imashio/Electronics/ARM/_Library/u8x8_d_ld7032_60x32.c **** static const u8x8_display_info_t u8x8_ld7032_60x32_display_info =
 174:/Users/imashio/Electronics/ARM/_Library/u8x8_d_ld7032_60x32.c **** {
 175:/Users/imashio/Electronics/ARM/_Library/u8x8_d_ld7032_60x32.c ****   /* chip_enable_level = */ 0,
 176:/Users/imashio/Electronics/ARM/_Library/u8x8_d_ld7032_60x32.c ****   /* chip_disable_level = */ 1,
 177:/Users/imashio/Electronics/ARM/_Library/u8x8_d_ld7032_60x32.c ****   
 178:/Users/imashio/Electronics/ARM/_Library/u8x8_d_ld7032_60x32.c ****   /* post_chip_enable_wait_ns = */ 15,
 179:/Users/imashio/Electronics/ARM/_Library/u8x8_d_ld7032_60x32.c ****   /* pre_chip_disable_wait_ns = */ 20,
 180:/Users/imashio/Electronics/ARM/_Library/u8x8_d_ld7032_60x32.c ****   /* reset_pulse_width_ms = */ 100, 	
 181:/Users/imashio/Electronics/ARM/_Library/u8x8_d_ld7032_60x32.c ****   /* post_reset_wait_ms = */ 100, 
 182:/Users/imashio/Electronics/ARM/_Library/u8x8_d_ld7032_60x32.c ****   /* sda_setup_time_ns = */ 30,		/* 20ns, but cycle time is 60ns, so use 60/2 */
 183:/Users/imashio/Electronics/ARM/_Library/u8x8_d_ld7032_60x32.c ****   /* sck_pulse_width_ns = */ 30,	/* 20ns, but cycle time is 60ns, so use 60/2  */
 184:/Users/imashio/Electronics/ARM/_Library/u8x8_d_ld7032_60x32.c ****   /* sck_clock_hz = */ 4000000UL,	/* since Arduino 1.6.0, the SPI bus speed in Hz. Should be  10000
 185:/Users/imashio/Electronics/ARM/_Library/u8x8_d_ld7032_60x32.c ****   /* spi_mode = */ 0,		/* active high, rising edge */
 186:/Users/imashio/Electronics/ARM/_Library/u8x8_d_ld7032_60x32.c ****   /* i2c_bus_clock_100kHz = */ 4,
 187:/Users/imashio/Electronics/ARM/_Library/u8x8_d_ld7032_60x32.c ****   /* data_setup_time_ns = */ 20,
 188:/Users/imashio/Electronics/ARM/_Library/u8x8_d_ld7032_60x32.c ****   /* write_pulse_width_ns = */ 40,	
 189:/Users/imashio/Electronics/ARM/_Library/u8x8_d_ld7032_60x32.c ****   /* tile_width = */ 8,
 190:/Users/imashio/Electronics/ARM/_Library/u8x8_d_ld7032_60x32.c ****   /* tile_hight = */ 4,
 191:/Users/imashio/Electronics/ARM/_Library/u8x8_d_ld7032_60x32.c ****   /* default_x_offset = */ 0,
 192:/Users/imashio/Electronics/ARM/_Library/u8x8_d_ld7032_60x32.c ****   /* flipmode_x_offset = */ 0,
 193:/Users/imashio/Electronics/ARM/_Library/u8x8_d_ld7032_60x32.c ****   /* pixel_width = */ 60,
 194:/Users/imashio/Electronics/ARM/_Library/u8x8_d_ld7032_60x32.c ****   /* pixel_height = */ 32
 195:/Users/imashio/Electronics/ARM/_Library/u8x8_d_ld7032_60x32.c **** };
 196:/Users/imashio/Electronics/ARM/_Library/u8x8_d_ld7032_60x32.c **** 
 197:/Users/imashio/Electronics/ARM/_Library/u8x8_d_ld7032_60x32.c **** uint8_t u8x8_d_ld7032_60x32(u8x8_t *u8x8, uint8_t msg, uint8_t arg_int, void *arg_ptr)
 198:/Users/imashio/Electronics/ARM/_Library/u8x8_d_ld7032_60x32.c **** {
 270              		.loc 1 198 0
 271              		.cfi_startproc
 272              		@ args = 0, pretend = 0, frame = 0
 273              		@ frame_needed = 0, uses_anonymous_args = 0
 274              	.LVL43:
 275 0000 08B5     		push	{r3, lr}
 276              	.LCFI1:
 277              		.cfi_def_cfa_offset 8
 278              		.cfi_offset 3, -8
ARM GAS  /var/folders/v3/wysfpd052nz8jkbx04pk0ym80000gn/T//cccUw3f1.s 			page 10


 279              		.cfi_offset 14, -4
 199:/Users/imashio/Electronics/ARM/_Library/u8x8_d_ld7032_60x32.c ****     if ( msg == U8X8_MSG_DISPLAY_SETUP_MEMORY )
 280              		.loc 1 199 0
 281 0002 0929     		cmp	r1, #9
 282 0004 02D0     		beq	.L23
 200:/Users/imashio/Electronics/ARM/_Library/u8x8_d_ld7032_60x32.c ****     {
 201:/Users/imashio/Electronics/ARM/_Library/u8x8_d_ld7032_60x32.c ****       u8x8_d_helper_display_setup_memory(u8x8, &u8x8_ld7032_60x32_display_info);
 202:/Users/imashio/Electronics/ARM/_Library/u8x8_d_ld7032_60x32.c ****       return 1;
 203:/Users/imashio/Electronics/ARM/_Library/u8x8_d_ld7032_60x32.c ****     }
 204:/Users/imashio/Electronics/ARM/_Library/u8x8_d_ld7032_60x32.c ****     return u8x8_d_ld7032_generic(u8x8, msg, arg_int, arg_ptr);
 283              		.loc 1 204 0
 284 0006 FFF7FEFF 		bl	u8x8_d_ld7032_generic
 285              	.LVL44:
 286              	.L21:
 205:/Users/imashio/Electronics/ARM/_Library/u8x8_d_ld7032_60x32.c **** }
 287              		.loc 1 205 0
 288 000a 08BD     		pop	{r3, pc}
 289              	.LVL45:
 290              	.L23:
 201:/Users/imashio/Electronics/ARM/_Library/u8x8_d_ld7032_60x32.c ****       return 1;
 291              		.loc 1 201 0
 292 000c 0249     		ldr	r1, .L24
 293              	.LVL46:
 294 000e FFF7FEFF 		bl	u8x8_d_helper_display_setup_memory
 295              	.LVL47:
 202:/Users/imashio/Electronics/ARM/_Library/u8x8_d_ld7032_60x32.c ****     }
 296              		.loc 1 202 0
 297 0012 0120     		movs	r0, #1
 298 0014 F9E7     		b	.L21
 299              	.L25:
 300 0016 00BF     		.align	2
 301              	.L24:
 302 0018 00000000 		.word	.LANCHOR5
 303              		.cfi_endproc
 304              	.LFE1:
 306              		.section	.rodata.u8x8_d_ld7032_60x32_flip0_seq,"a",%progbits
 307              		.align	2
 308              		.set	.LANCHOR3,. + 0
 311              	u8x8_d_ld7032_60x32_flip0_seq:
 312 0000 18       		.byte	24
 313 0001 15       		.byte	21
 314 0002 09       		.byte	9
 315 0003 16       		.byte	22
 316 0004 00       		.byte	0
 317 0005 19       		.byte	25
 318 0006 FF       		.byte	-1
 319              		.section	.rodata.u8x8_d_ld7032_60x32_flip1_seq,"a",%progbits
 320              		.align	2
 321              		.set	.LANCHOR4,. + 0
 324              	u8x8_d_ld7032_60x32_flip1_seq:
 325 0000 18       		.byte	24
 326 0001 19       		.byte	25
 327 0002 FF       		.byte	-1
 328              		.section	.rodata.u8x8_d_ld7032_60x32_init_seq,"a",%progbits
 329              		.align	2
 330              		.set	.LANCHOR0,. + 0
 333              	u8x8_d_ld7032_60x32_init_seq:
ARM GAS  /var/folders/v3/wysfpd052nz8jkbx04pk0ym80000gn/T//cccUw3f1.s 			page 11


 334 0000 18       		.byte	24
 335 0001 15       		.byte	21
 336 0002 14       		.byte	20
 337 0003 16       		.byte	22
 338 0004 00       		.byte	0
 339 0005 15       		.byte	21
 340 0006 1A       		.byte	26
 341 0007 16       		.byte	22
 342 0008 04       		.byte	4
 343 0009 15       		.byte	21
 344 000a 1D       		.byte	29
 345 000b 16       		.byte	22
 346 000c 00       		.byte	0
 347 000d 15       		.byte	21
 348 000e 09       		.byte	9
 349 000f 16       		.byte	22
 350 0010 00       		.byte	0
 351 0011 15       		.byte	21
 352 0012 30       		.byte	48
 353 0013 16       		.byte	22
 354 0014 00       		.byte	0
 355 0015 16       		.byte	22
 356 0016 3B       		.byte	59
 357 0017 15       		.byte	21
 358 0018 32       		.byte	50
 359 0019 16       		.byte	22
 360 001a 00       		.byte	0
 361 001b 16       		.byte	22
 362 001c 1F       		.byte	31
 363 001d 15       		.byte	21
 364 001e 10       		.byte	16
 365 001f 16       		.byte	22
 366 0020 00       		.byte	0
 367 0021 15       		.byte	21
 368 0022 16       		.byte	22
 369 0023 16       		.byte	22
 370 0024 00       		.byte	0
 371 0025 15       		.byte	21
 372 0026 12       		.byte	18
 373 0027 16       		.byte	22
 374 0028 40       		.byte	64
 375 0029 15       		.byte	21
 376 002a 18       		.byte	24
 377 002b 16       		.byte	22
 378 002c 03       		.byte	3
 379 002d 15       		.byte	21
 380 002e 44       		.byte	68
 381 002f 16       		.byte	22
 382 0030 02       		.byte	2
 383 0031 15       		.byte	21
 384 0032 48       		.byte	72
 385 0033 16       		.byte	22
 386 0034 03       		.byte	3
 387 0035 15       		.byte	21
 388 0036 3F       		.byte	63
 389 0037 16       		.byte	22
 390 0038 11       		.byte	17
ARM GAS  /var/folders/v3/wysfpd052nz8jkbx04pk0ym80000gn/T//cccUw3f1.s 			page 12


 391 0039 15       		.byte	21
 392 003a 3D       		.byte	61
 393 003b 16       		.byte	22
 394 003c 00       		.byte	0
 395 003d 19       		.byte	25
 396 003e FF       		.byte	-1
 397              		.section	.rodata.u8x8_d_ld7032_60x32_powersave0_seq,"a",%progbits
 398              		.align	2
 399              		.set	.LANCHOR1,. + 0
 402              	u8x8_d_ld7032_60x32_powersave0_seq:
 403 0000 18       		.byte	24
 404 0001 15       		.byte	21
 405 0002 02       		.byte	2
 406 0003 16       		.byte	22
 407 0004 01       		.byte	1
 408 0005 19       		.byte	25
 409 0006 FF       		.byte	-1
 410              		.section	.rodata.u8x8_d_ld7032_60x32_powersave1_seq,"a",%progbits
 411              		.align	2
 412              		.set	.LANCHOR2,. + 0
 415              	u8x8_d_ld7032_60x32_powersave1_seq:
 416 0000 18       		.byte	24
 417 0001 15       		.byte	21
 418 0002 02       		.byte	2
 419 0003 16       		.byte	22
 420 0004 00       		.byte	0
 421 0005 19       		.byte	25
 422 0006 FF       		.byte	-1
 423              		.section	.rodata.u8x8_ld7032_60x32_display_info,"a",%progbits
 424              		.align	2
 425              		.set	.LANCHOR5,. + 0
 428              	u8x8_ld7032_60x32_display_info:
 429 0000 00       		.byte	0
 430 0001 01       		.byte	1
 431 0002 0F       		.byte	15
 432 0003 14       		.byte	20
 433 0004 64       		.byte	100
 434 0005 64       		.byte	100
 435 0006 1E       		.byte	30
 436 0007 1E       		.byte	30
 437 0008 00093D00 		.word	4000000
 438 000c 00       		.byte	0
 439 000d 04       		.byte	4
 440 000e 14       		.byte	20
 441 000f 28       		.byte	40
 442 0010 08       		.byte	8
 443 0011 04       		.byte	4
 444 0012 00       		.byte	0
 445 0013 00       		.byte	0
 446 0014 3C00     		.short	60
 447 0016 2000     		.short	32
 448              		.text
 449              	.Letext0:
 450              		.file 2 "/usr/local/gcc-arm-none-eabi-7-2018-q2-update/arm-none-eabi/include/machine/_default_type
 451              		.file 3 "/usr/local/gcc-arm-none-eabi-7-2018-q2-update/arm-none-eabi/include/sys/_stdint.h"
 452              		.file 4 "/Users/imashio/Electronics/ARM/_Library/u8x8.h"
ARM GAS  /var/folders/v3/wysfpd052nz8jkbx04pk0ym80000gn/T//cccUw3f1.s 			page 13


DEFINED SYMBOLS
                            *ABS*:0000000000000000 u8x8_d_ld7032_60x32.c
/var/folders/v3/wysfpd052nz8jkbx04pk0ym80000gn/T//cccUw3f1.s:18     .text.u8x8_d_ld7032_generic:0000000000000000 $t
/var/folders/v3/wysfpd052nz8jkbx04pk0ym80000gn/T//cccUw3f1.s:24     .text.u8x8_d_ld7032_generic:0000000000000000 u8x8_d_ld7032_generic
/var/folders/v3/wysfpd052nz8jkbx04pk0ym80000gn/T//cccUw3f1.s:52     .text.u8x8_d_ld7032_generic:0000000000000012 $d
/var/folders/v3/wysfpd052nz8jkbx04pk0ym80000gn/T//cccUw3f1.s:58     .text.u8x8_d_ld7032_generic:0000000000000018 $t
/var/folders/v3/wysfpd052nz8jkbx04pk0ym80000gn/T//cccUw3f1.s:252    .text.u8x8_d_ld7032_generic:000000000000010c $d
/var/folders/v3/wysfpd052nz8jkbx04pk0ym80000gn/T//cccUw3f1.s:261    .text.u8x8_d_ld7032_60x32:0000000000000000 $t
/var/folders/v3/wysfpd052nz8jkbx04pk0ym80000gn/T//cccUw3f1.s:268    .text.u8x8_d_ld7032_60x32:0000000000000000 u8x8_d_ld7032_60x32
/var/folders/v3/wysfpd052nz8jkbx04pk0ym80000gn/T//cccUw3f1.s:302    .text.u8x8_d_ld7032_60x32:0000000000000018 $d
/var/folders/v3/wysfpd052nz8jkbx04pk0ym80000gn/T//cccUw3f1.s:307    .rodata.u8x8_d_ld7032_60x32_flip0_seq:0000000000000000 $d
/var/folders/v3/wysfpd052nz8jkbx04pk0ym80000gn/T//cccUw3f1.s:311    .rodata.u8x8_d_ld7032_60x32_flip0_seq:0000000000000000 u8x8_d_ld7032_60x32_flip0_seq
/var/folders/v3/wysfpd052nz8jkbx04pk0ym80000gn/T//cccUw3f1.s:320    .rodata.u8x8_d_ld7032_60x32_flip1_seq:0000000000000000 $d
/var/folders/v3/wysfpd052nz8jkbx04pk0ym80000gn/T//cccUw3f1.s:324    .rodata.u8x8_d_ld7032_60x32_flip1_seq:0000000000000000 u8x8_d_ld7032_60x32_flip1_seq
/var/folders/v3/wysfpd052nz8jkbx04pk0ym80000gn/T//cccUw3f1.s:329    .rodata.u8x8_d_ld7032_60x32_init_seq:0000000000000000 $d
/var/folders/v3/wysfpd052nz8jkbx04pk0ym80000gn/T//cccUw3f1.s:333    .rodata.u8x8_d_ld7032_60x32_init_seq:0000000000000000 u8x8_d_ld7032_60x32_init_seq
/var/folders/v3/wysfpd052nz8jkbx04pk0ym80000gn/T//cccUw3f1.s:398    .rodata.u8x8_d_ld7032_60x32_powersave0_seq:0000000000000000 $d
/var/folders/v3/wysfpd052nz8jkbx04pk0ym80000gn/T//cccUw3f1.s:402    .rodata.u8x8_d_ld7032_60x32_powersave0_seq:0000000000000000 u8x8_d_ld7032_60x32_powersave0_seq
/var/folders/v3/wysfpd052nz8jkbx04pk0ym80000gn/T//cccUw3f1.s:411    .rodata.u8x8_d_ld7032_60x32_powersave1_seq:0000000000000000 $d
/var/folders/v3/wysfpd052nz8jkbx04pk0ym80000gn/T//cccUw3f1.s:415    .rodata.u8x8_d_ld7032_60x32_powersave1_seq:0000000000000000 u8x8_d_ld7032_60x32_powersave1_seq
/var/folders/v3/wysfpd052nz8jkbx04pk0ym80000gn/T//cccUw3f1.s:424    .rodata.u8x8_ld7032_60x32_display_info:0000000000000000 $d
/var/folders/v3/wysfpd052nz8jkbx04pk0ym80000gn/T//cccUw3f1.s:428    .rodata.u8x8_ld7032_60x32_display_info:0000000000000000 u8x8_ld7032_60x32_display_info

UNDEFINED SYMBOLS
u8x8_d_helper_display_init
u8x8_cad_SendSequence
u8x8_cad_StartTransfer
u8x8_cad_SendCmd
u8x8_cad_SendArg
u8x8_cad_EndTransfer
u8x8_cad_SendData
u8x8_d_helper_display_setup_memory
