ARM GAS  /var/folders/v3/wysfpd052nz8jkbx04pk0ym80000gn/T//ccXdWShK.s 			page 1


   1              		.cpu cortex-m4
   2              		.eabi_attribute 27, 1
   3              		.eabi_attribute 28, 1
   4              		.eabi_attribute 20, 1
   5              		.eabi_attribute 21, 1
   6              		.eabi_attribute 23, 3
   7              		.eabi_attribute 24, 1
   8              		.eabi_attribute 25, 1
   9              		.eabi_attribute 26, 1
  10              		.eabi_attribute 30, 1
  11              		.eabi_attribute 34, 1
  12              		.eabi_attribute 18, 4
  13              		.file	"u8x8_u8toa.c"
  14              		.text
  15              	.Ltext0:
  16              		.cfi_sections	.debug_frame
  17              		.section	.text.u8x8_u8toap,"ax",%progbits
  18              		.align	1
  19              		.global	u8x8_u8toap
  20              		.syntax unified
  21              		.thumb
  22              		.thumb_func
  23              		.fpu fpv4-sp-d16
  25              	u8x8_u8toap:
  26              	.LFB0:
  27              		.file 1 "/Users/imashio/Electronics/ARM/_Library/u8x8_u8toa.c"
   1:/Users/imashio/Electronics/ARM/_Library/u8x8_u8toa.c **** /*
   2:/Users/imashio/Electronics/ARM/_Library/u8x8_u8toa.c **** 
   3:/Users/imashio/Electronics/ARM/_Library/u8x8_u8toa.c ****   u8x8_u8toa.c
   4:/Users/imashio/Electronics/ARM/_Library/u8x8_u8toa.c **** 
   5:/Users/imashio/Electronics/ARM/_Library/u8x8_u8toa.c ****   Universal 8bit Graphics Library (https://github.com/olikraus/u8g2/)
   6:/Users/imashio/Electronics/ARM/_Library/u8x8_u8toa.c **** 
   7:/Users/imashio/Electronics/ARM/_Library/u8x8_u8toa.c ****   Copyright (c) 2016, olikraus@gmail.com
   8:/Users/imashio/Electronics/ARM/_Library/u8x8_u8toa.c ****   All rights reserved.
   9:/Users/imashio/Electronics/ARM/_Library/u8x8_u8toa.c **** 
  10:/Users/imashio/Electronics/ARM/_Library/u8x8_u8toa.c ****   Redistribution and use in source and binary forms, with or without modification, 
  11:/Users/imashio/Electronics/ARM/_Library/u8x8_u8toa.c ****   are permitted provided that the following conditions are met:
  12:/Users/imashio/Electronics/ARM/_Library/u8x8_u8toa.c **** 
  13:/Users/imashio/Electronics/ARM/_Library/u8x8_u8toa.c ****   * Redistributions of source code must retain the above copyright notice, this list 
  14:/Users/imashio/Electronics/ARM/_Library/u8x8_u8toa.c ****     of conditions and the following disclaimer.
  15:/Users/imashio/Electronics/ARM/_Library/u8x8_u8toa.c ****     
  16:/Users/imashio/Electronics/ARM/_Library/u8x8_u8toa.c ****   * Redistributions in binary form must reproduce the above copyright notice, this 
  17:/Users/imashio/Electronics/ARM/_Library/u8x8_u8toa.c ****     list of conditions and the following disclaimer in the documentation and/or other 
  18:/Users/imashio/Electronics/ARM/_Library/u8x8_u8toa.c ****     materials provided with the distribution.
  19:/Users/imashio/Electronics/ARM/_Library/u8x8_u8toa.c **** 
  20:/Users/imashio/Electronics/ARM/_Library/u8x8_u8toa.c ****   THIS SOFTWARE IS PROVIDED BY THE COPYRIGHT HOLDERS AND 
  21:/Users/imashio/Electronics/ARM/_Library/u8x8_u8toa.c ****   CONTRIBUTORS "AS IS" AND ANY EXPRESS OR IMPLIED WARRANTIES, 
  22:/Users/imashio/Electronics/ARM/_Library/u8x8_u8toa.c ****   INCLUDING, BUT NOT LIMITED TO, THE IMPLIED WARRANTIES OF 
  23:/Users/imashio/Electronics/ARM/_Library/u8x8_u8toa.c ****   MERCHANTABILITY AND FITNESS FOR A PARTICULAR PURPOSE ARE 
  24:/Users/imashio/Electronics/ARM/_Library/u8x8_u8toa.c ****   DISCLAIMED. IN NO EVENT SHALL THE COPYRIGHT HOLDER OR 
  25:/Users/imashio/Electronics/ARM/_Library/u8x8_u8toa.c ****   CONTRIBUTORS BE LIABLE FOR ANY DIRECT, INDIRECT, INCIDENTAL, 
  26:/Users/imashio/Electronics/ARM/_Library/u8x8_u8toa.c ****   SPECIAL, EXEMPLARY, OR CONSEQUENTIAL DAMAGES (INCLUDING, BUT 
  27:/Users/imashio/Electronics/ARM/_Library/u8x8_u8toa.c ****   NOT LIMITED TO, PROCUREMENT OF SUBSTITUTE GOODS OR SERVICES; 
  28:/Users/imashio/Electronics/ARM/_Library/u8x8_u8toa.c ****   LOSS OF USE, DATA, OR PROFITS; OR BUSINESS INTERRUPTION) HOWEVER 
  29:/Users/imashio/Electronics/ARM/_Library/u8x8_u8toa.c ****   CAUSED AND ON ANY THEORY OF LIABILITY, WHETHER IN CONTRACT, 
  30:/Users/imashio/Electronics/ARM/_Library/u8x8_u8toa.c ****   STRICT LIABILITY, OR TORT (INCLUDING NEGLIGENCE OR OTHERWISE) 
  31:/Users/imashio/Electronics/ARM/_Library/u8x8_u8toa.c ****   ARISING IN ANY WAY OUT OF THE USE OF THIS SOFTWARE, EVEN IF 
ARM GAS  /var/folders/v3/wysfpd052nz8jkbx04pk0ym80000gn/T//ccXdWShK.s 			page 2


  32:/Users/imashio/Electronics/ARM/_Library/u8x8_u8toa.c ****   ADVISED OF THE POSSIBILITY OF SUCH DAMAGE.  
  33:/Users/imashio/Electronics/ARM/_Library/u8x8_u8toa.c ****   
  34:/Users/imashio/Electronics/ARM/_Library/u8x8_u8toa.c **** */
  35:/Users/imashio/Electronics/ARM/_Library/u8x8_u8toa.c **** 
  36:/Users/imashio/Electronics/ARM/_Library/u8x8_u8toa.c **** 
  37:/Users/imashio/Electronics/ARM/_Library/u8x8_u8toa.c **** #include "u8x8.h"
  38:/Users/imashio/Electronics/ARM/_Library/u8x8_u8toa.c **** 
  39:/Users/imashio/Electronics/ARM/_Library/u8x8_u8toa.c **** static const unsigned char u8x8_u8toa_tab[3]  = { 100, 10, 1 } ;
  40:/Users/imashio/Electronics/ARM/_Library/u8x8_u8toa.c **** const char *u8x8_u8toap(char * dest, uint8_t v)
  41:/Users/imashio/Electronics/ARM/_Library/u8x8_u8toa.c **** {
  28              		.loc 1 41 0
  29              		.cfi_startproc
  30              		@ args = 0, pretend = 0, frame = 0
  31              		@ frame_needed = 0, uses_anonymous_args = 0
  32              		@ link register save eliminated.
  33              	.LVL0:
  34 0000 30B4     		push	{r4, r5}
  35              	.LCFI0:
  36              		.cfi_def_cfa_offset 8
  37              		.cfi_offset 4, -8
  38              		.cfi_offset 5, -4
  39              	.LVL1:
  42:/Users/imashio/Electronics/ARM/_Library/u8x8_u8toa.c ****   uint8_t pos;
  43:/Users/imashio/Electronics/ARM/_Library/u8x8_u8toa.c ****   uint8_t d;
  44:/Users/imashio/Electronics/ARM/_Library/u8x8_u8toa.c ****   uint8_t c;
  45:/Users/imashio/Electronics/ARM/_Library/u8x8_u8toa.c ****   for( pos = 0; pos < 3; pos++ )
  40              		.loc 1 45 0
  41 0002 0024     		movs	r4, #0
  42 0004 08E0     		b	.L2
  43              	.LVL2:
  44              	.L4:
  46:/Users/imashio/Electronics/ARM/_Library/u8x8_u8toa.c ****   {
  47:/Users/imashio/Electronics/ARM/_Library/u8x8_u8toa.c ****       d = '0';
  48:/Users/imashio/Electronics/ARM/_Library/u8x8_u8toa.c ****       c = *(u8x8_u8toa_tab+pos);
  49:/Users/imashio/Electronics/ARM/_Library/u8x8_u8toa.c ****       while( v >= c )
  50:/Users/imashio/Electronics/ARM/_Library/u8x8_u8toa.c ****       {
  51:/Users/imashio/Electronics/ARM/_Library/u8x8_u8toa.c **** 	v -= c;
  45              		.loc 1 51 0
  46 0006 891A     		subs	r1, r1, r2
  47              	.LVL3:
  48 0008 C9B2     		uxtb	r1, r1
  49              	.LVL4:
  52:/Users/imashio/Electronics/ARM/_Library/u8x8_u8toa.c **** 	d++;
  50              		.loc 1 52 0
  51 000a 0133     		adds	r3, r3, #1
  52              	.LVL5:
  53 000c DBB2     		uxtb	r3, r3
  54              	.LVL6:
  55              	.L3:
  49:/Users/imashio/Electronics/ARM/_Library/u8x8_u8toa.c ****       {
  56              		.loc 1 49 0
  57 000e 9142     		cmp	r1, r2
  58 0010 F9D2     		bcs	.L4
  53:/Users/imashio/Electronics/ARM/_Library/u8x8_u8toa.c ****       }
  54:/Users/imashio/Electronics/ARM/_Library/u8x8_u8toa.c ****       dest[pos] = d;
  59              		.loc 1 54 0 discriminator 2
  60 0012 4355     		strb	r3, [r0, r5]
ARM GAS  /var/folders/v3/wysfpd052nz8jkbx04pk0ym80000gn/T//ccXdWShK.s 			page 3


  45:/Users/imashio/Electronics/ARM/_Library/u8x8_u8toa.c ****   {
  61              		.loc 1 45 0 discriminator 2
  62 0014 0134     		adds	r4, r4, #1
  63              	.LVL7:
  64 0016 E4B2     		uxtb	r4, r4
  65              	.LVL8:
  66              	.L2:
  45:/Users/imashio/Electronics/ARM/_Library/u8x8_u8toa.c ****   {
  67              		.loc 1 45 0 is_stmt 0 discriminator 1
  68 0018 022C     		cmp	r4, #2
  69 001a 04D8     		bhi	.L7
  70              	.LVL9:
  48:/Users/imashio/Electronics/ARM/_Library/u8x8_u8toa.c ****       while( v >= c )
  71              		.loc 1 48 0 is_stmt 1
  72 001c 2546     		mov	r5, r4
  73 001e 044B     		ldr	r3, .L8
  74 0020 1A5D     		ldrb	r2, [r3, r4]	@ zero_extendqisi2
  75              	.LVL10:
  47:/Users/imashio/Electronics/ARM/_Library/u8x8_u8toa.c ****       c = *(u8x8_u8toa_tab+pos);
  76              		.loc 1 47 0
  77 0022 3023     		movs	r3, #48
  49:/Users/imashio/Electronics/ARM/_Library/u8x8_u8toa.c ****       {
  78              		.loc 1 49 0
  79 0024 F3E7     		b	.L3
  80              	.LVL11:
  81              	.L7:
  55:/Users/imashio/Electronics/ARM/_Library/u8x8_u8toa.c ****   }  
  56:/Users/imashio/Electronics/ARM/_Library/u8x8_u8toa.c ****   dest[3] = '\0';
  82              		.loc 1 56 0
  83 0026 0023     		movs	r3, #0
  84 0028 C370     		strb	r3, [r0, #3]
  57:/Users/imashio/Electronics/ARM/_Library/u8x8_u8toa.c ****   return dest;
  58:/Users/imashio/Electronics/ARM/_Library/u8x8_u8toa.c **** }
  85              		.loc 1 58 0
  86 002a 30BC     		pop	{r4, r5}
  87              	.LCFI1:
  88              		.cfi_restore 5
  89              		.cfi_restore 4
  90              		.cfi_def_cfa_offset 0
  91              	.LVL12:
  92 002c 7047     		bx	lr
  93              	.L9:
  94 002e 00BF     		.align	2
  95              	.L8:
  96 0030 00000000 		.word	.LANCHOR0
  97              		.cfi_endproc
  98              	.LFE0:
 100              		.section	.text.u8x8_u8toa,"ax",%progbits
 101              		.align	1
 102              		.global	u8x8_u8toa
 103              		.syntax unified
 104              		.thumb
 105              		.thumb_func
 106              		.fpu fpv4-sp-d16
 108              	u8x8_u8toa:
 109              	.LFB1:
  59:/Users/imashio/Electronics/ARM/_Library/u8x8_u8toa.c **** 
ARM GAS  /var/folders/v3/wysfpd052nz8jkbx04pk0ym80000gn/T//ccXdWShK.s 			page 4


  60:/Users/imashio/Electronics/ARM/_Library/u8x8_u8toa.c **** /* v = value, d = number of digits */
  61:/Users/imashio/Electronics/ARM/_Library/u8x8_u8toa.c **** const char *u8x8_u8toa(uint8_t v, uint8_t d)
  62:/Users/imashio/Electronics/ARM/_Library/u8x8_u8toa.c **** {
 110              		.loc 1 62 0
 111              		.cfi_startproc
 112              		@ args = 0, pretend = 0, frame = 0
 113              		@ frame_needed = 0, uses_anonymous_args = 0
 114              	.LVL13:
 115 0000 10B5     		push	{r4, lr}
 116              	.LCFI2:
 117              		.cfi_def_cfa_offset 8
 118              		.cfi_offset 4, -8
 119              		.cfi_offset 14, -4
  63:/Users/imashio/Electronics/ARM/_Library/u8x8_u8toa.c ****   static char buf[4];
  64:/Users/imashio/Electronics/ARM/_Library/u8x8_u8toa.c ****   d = 3-d;
 120              		.loc 1 64 0
 121 0002 C1F10301 		rsb	r1, r1, #3
 122              	.LVL14:
 123 0006 CCB2     		uxtb	r4, r1
 124              	.LVL15:
  65:/Users/imashio/Electronics/ARM/_Library/u8x8_u8toa.c ****   return u8x8_u8toap(buf, v) + d;
 125              		.loc 1 65 0
 126 0008 0146     		mov	r1, r0
 127 000a 0248     		ldr	r0, .L12
 128              	.LVL16:
 129 000c FFF7FEFF 		bl	u8x8_u8toap
 130              	.LVL17:
  66:/Users/imashio/Electronics/ARM/_Library/u8x8_u8toa.c **** }
 131              		.loc 1 66 0
 132 0010 2044     		add	r0, r0, r4
 133 0012 10BD     		pop	{r4, pc}
 134              	.LVL18:
 135              	.L13:
 136              		.align	2
 137              	.L12:
 138 0014 00000000 		.word	.LANCHOR1
 139              		.cfi_endproc
 140              	.LFE1:
 142              		.section	.bss.buf.6271,"aw",%nobits
 143              		.align	2
 144              		.set	.LANCHOR1,. + 0
 147              	buf.6271:
 148 0000 00000000 		.space	4
 149              		.section	.rodata.u8x8_u8toa_tab,"a",%progbits
 150              		.align	2
 151              		.set	.LANCHOR0,. + 0
 154              	u8x8_u8toa_tab:
 155 0000 64       		.byte	100
 156 0001 0A       		.byte	10
 157 0002 01       		.byte	1
 158              		.text
 159              	.Letext0:
 160              		.file 2 "/usr/local/gcc-arm-none-eabi-7-2018-q2-update/arm-none-eabi/include/machine/_default_type
 161              		.file 3 "/usr/local/gcc-arm-none-eabi-7-2018-q2-update/arm-none-eabi/include/sys/_stdint.h"
 162              		.file 4 "/Users/imashio/Electronics/ARM/_Library/u8x8.h"
ARM GAS  /var/folders/v3/wysfpd052nz8jkbx04pk0ym80000gn/T//ccXdWShK.s 			page 5


DEFINED SYMBOLS
                            *ABS*:0000000000000000 u8x8_u8toa.c
/var/folders/v3/wysfpd052nz8jkbx04pk0ym80000gn/T//ccXdWShK.s:18     .text.u8x8_u8toap:0000000000000000 $t
/var/folders/v3/wysfpd052nz8jkbx04pk0ym80000gn/T//ccXdWShK.s:25     .text.u8x8_u8toap:0000000000000000 u8x8_u8toap
/var/folders/v3/wysfpd052nz8jkbx04pk0ym80000gn/T//ccXdWShK.s:96     .text.u8x8_u8toap:0000000000000030 $d
/var/folders/v3/wysfpd052nz8jkbx04pk0ym80000gn/T//ccXdWShK.s:101    .text.u8x8_u8toa:0000000000000000 $t
/var/folders/v3/wysfpd052nz8jkbx04pk0ym80000gn/T//ccXdWShK.s:108    .text.u8x8_u8toa:0000000000000000 u8x8_u8toa
/var/folders/v3/wysfpd052nz8jkbx04pk0ym80000gn/T//ccXdWShK.s:138    .text.u8x8_u8toa:0000000000000014 $d
/var/folders/v3/wysfpd052nz8jkbx04pk0ym80000gn/T//ccXdWShK.s:143    .bss.buf.6271:0000000000000000 $d
/var/folders/v3/wysfpd052nz8jkbx04pk0ym80000gn/T//ccXdWShK.s:147    .bss.buf.6271:0000000000000000 buf.6271
/var/folders/v3/wysfpd052nz8jkbx04pk0ym80000gn/T//ccXdWShK.s:150    .rodata.u8x8_u8toa_tab:0000000000000000 $d
/var/folders/v3/wysfpd052nz8jkbx04pk0ym80000gn/T//ccXdWShK.s:154    .rodata.u8x8_u8toa_tab:0000000000000000 u8x8_u8toa_tab

NO UNDEFINED SYMBOLS
