ARM GAS  /var/folders/v3/wysfpd052nz8jkbx04pk0ym80000gn/T//cc8Z6cG5.s 			page 1


   1              		.cpu cortex-m4
   2              		.eabi_attribute 27, 1
   3              		.eabi_attribute 28, 1
   4              		.eabi_attribute 20, 1
   5              		.eabi_attribute 21, 1
   6              		.eabi_attribute 23, 3
   7              		.eabi_attribute 24, 1
   8              		.eabi_attribute 25, 1
   9              		.eabi_attribute 26, 1
  10              		.eabi_attribute 30, 1
  11              		.eabi_attribute 34, 1
  12              		.eabi_attribute 18, 4
  13              		.file	"u8x8_input_value.c"
  14              		.text
  15              	.Ltext0:
  16              		.cfi_sections	.debug_frame
  17              		.section	.text.u8x8_UserInterfaceInputValue,"ax",%progbits
  18              		.align	1
  19              		.global	u8x8_UserInterfaceInputValue
  20              		.syntax unified
  21              		.thumb
  22              		.thumb_func
  23              		.fpu fpv4-sp-d16
  25              	u8x8_UserInterfaceInputValue:
  26              	.LFB0:
  27              		.file 1 "/Users/imashio/Electronics/ARM/_Library/u8x8_input_value.c"
   1:/Users/imashio/Electronics/ARM/_Library/u8x8_input_value.c **** /*
   2:/Users/imashio/Electronics/ARM/_Library/u8x8_input_value.c **** 
   3:/Users/imashio/Electronics/ARM/_Library/u8x8_input_value.c ****   u8x8_input_value.c
   4:/Users/imashio/Electronics/ARM/_Library/u8x8_input_value.c ****   
   5:/Users/imashio/Electronics/ARM/_Library/u8x8_input_value.c ****   Universal 8bit Graphics Library (https://github.com/olikraus/u8g2/)
   6:/Users/imashio/Electronics/ARM/_Library/u8x8_input_value.c **** 
   7:/Users/imashio/Electronics/ARM/_Library/u8x8_input_value.c ****   Copyright (c) 2016, olikraus@gmail.com
   8:/Users/imashio/Electronics/ARM/_Library/u8x8_input_value.c ****   All rights reserved.
   9:/Users/imashio/Electronics/ARM/_Library/u8x8_input_value.c **** 
  10:/Users/imashio/Electronics/ARM/_Library/u8x8_input_value.c ****   Redistribution and use in source and binary forms, with or without modification, 
  11:/Users/imashio/Electronics/ARM/_Library/u8x8_input_value.c ****   are permitted provided that the following conditions are met:
  12:/Users/imashio/Electronics/ARM/_Library/u8x8_input_value.c **** 
  13:/Users/imashio/Electronics/ARM/_Library/u8x8_input_value.c ****   * Redistributions of source code must retain the above copyright notice, this list 
  14:/Users/imashio/Electronics/ARM/_Library/u8x8_input_value.c ****     of conditions and the following disclaimer.
  15:/Users/imashio/Electronics/ARM/_Library/u8x8_input_value.c ****     
  16:/Users/imashio/Electronics/ARM/_Library/u8x8_input_value.c ****   * Redistributions in binary form must reproduce the above copyright notice, this 
  17:/Users/imashio/Electronics/ARM/_Library/u8x8_input_value.c ****     list of conditions and the following disclaimer in the documentation and/or other 
  18:/Users/imashio/Electronics/ARM/_Library/u8x8_input_value.c ****     materials provided with the distribution.
  19:/Users/imashio/Electronics/ARM/_Library/u8x8_input_value.c **** 
  20:/Users/imashio/Electronics/ARM/_Library/u8x8_input_value.c ****   THIS SOFTWARE IS PROVIDED BY THE COPYRIGHT HOLDERS AND 
  21:/Users/imashio/Electronics/ARM/_Library/u8x8_input_value.c ****   CONTRIBUTORS "AS IS" AND ANY EXPRESS OR IMPLIED WARRANTIES, 
  22:/Users/imashio/Electronics/ARM/_Library/u8x8_input_value.c ****   INCLUDING, BUT NOT LIMITED TO, THE IMPLIED WARRANTIES OF 
  23:/Users/imashio/Electronics/ARM/_Library/u8x8_input_value.c ****   MERCHANTABILITY AND FITNESS FOR A PARTICULAR PURPOSE ARE 
  24:/Users/imashio/Electronics/ARM/_Library/u8x8_input_value.c ****   DISCLAIMED. IN NO EVENT SHALL THE COPYRIGHT HOLDER OR 
  25:/Users/imashio/Electronics/ARM/_Library/u8x8_input_value.c ****   CONTRIBUTORS BE LIABLE FOR ANY DIRECT, INDIRECT, INCIDENTAL, 
  26:/Users/imashio/Electronics/ARM/_Library/u8x8_input_value.c ****   SPECIAL, EXEMPLARY, OR CONSEQUENTIAL DAMAGES (INCLUDING, BUT 
  27:/Users/imashio/Electronics/ARM/_Library/u8x8_input_value.c ****   NOT LIMITED TO, PROCUREMENT OF SUBSTITUTE GOODS OR SERVICES; 
  28:/Users/imashio/Electronics/ARM/_Library/u8x8_input_value.c ****   LOSS OF USE, DATA, OR PROFITS; OR BUSINESS INTERRUPTION) HOWEVER 
  29:/Users/imashio/Electronics/ARM/_Library/u8x8_input_value.c ****   CAUSED AND ON ANY THEORY OF LIABILITY, WHETHER IN CONTRACT, 
  30:/Users/imashio/Electronics/ARM/_Library/u8x8_input_value.c ****   STRICT LIABILITY, OR TORT (INCLUDING NEGLIGENCE OR OTHERWISE) 
  31:/Users/imashio/Electronics/ARM/_Library/u8x8_input_value.c ****   ARISING IN ANY WAY OUT OF THE USE OF THIS SOFTWARE, EVEN IF 
ARM GAS  /var/folders/v3/wysfpd052nz8jkbx04pk0ym80000gn/T//cc8Z6cG5.s 			page 2


  32:/Users/imashio/Electronics/ARM/_Library/u8x8_input_value.c ****   ADVISED OF THE POSSIBILITY OF SUCH DAMAGE.  
  33:/Users/imashio/Electronics/ARM/_Library/u8x8_input_value.c ****   
  34:/Users/imashio/Electronics/ARM/_Library/u8x8_input_value.c **** */
  35:/Users/imashio/Electronics/ARM/_Library/u8x8_input_value.c **** 
  36:/Users/imashio/Electronics/ARM/_Library/u8x8_input_value.c **** #include "u8x8.h"
  37:/Users/imashio/Electronics/ARM/_Library/u8x8_input_value.c **** 
  38:/Users/imashio/Electronics/ARM/_Library/u8x8_input_value.c **** /*
  39:/Users/imashio/Electronics/ARM/_Library/u8x8_input_value.c ****   return:
  40:/Users/imashio/Electronics/ARM/_Library/u8x8_input_value.c ****     0: value is not changed (HOME/Break Button pressed)
  41:/Users/imashio/Electronics/ARM/_Library/u8x8_input_value.c ****     1: value has been updated
  42:/Users/imashio/Electronics/ARM/_Library/u8x8_input_value.c **** */
  43:/Users/imashio/Electronics/ARM/_Library/u8x8_input_value.c **** 
  44:/Users/imashio/Electronics/ARM/_Library/u8x8_input_value.c **** uint8_t u8x8_UserInterfaceInputValue(u8x8_t *u8x8, const char *title, const char *pre, uint8_t *val
  45:/Users/imashio/Electronics/ARM/_Library/u8x8_input_value.c **** {
  28              		.loc 1 45 0
  29              		.cfi_startproc
  30              		@ args = 16, pretend = 0, frame = 8
  31              		@ frame_needed = 0, uses_anonymous_args = 0
  32              	.LVL0:
  33 0000 2DE9F04F 		push	{r4, r5, r6, r7, r8, r9, r10, fp, lr}
  34              	.LCFI0:
  35              		.cfi_def_cfa_offset 36
  36              		.cfi_offset 4, -36
  37              		.cfi_offset 5, -32
  38              		.cfi_offset 6, -28
  39              		.cfi_offset 7, -24
  40              		.cfi_offset 8, -20
  41              		.cfi_offset 9, -16
  42              		.cfi_offset 10, -12
  43              		.cfi_offset 11, -8
  44              		.cfi_offset 14, -4
  45 0004 85B0     		sub	sp, sp, #20
  46              	.LCFI1:
  47              		.cfi_def_cfa_offset 56
  48 0006 0446     		mov	r4, r0
  49 0008 0391     		str	r1, [sp, #12]
  50 000a 0292     		str	r2, [sp, #8]
  51 000c 9B46     		mov	fp, r3
  52 000e 9DF83890 		ldrb	r9, [sp, #56]	@ zero_extendqisi2
  53 0012 9DF83C80 		ldrb	r8, [sp, #60]	@ zero_extendqisi2
  54 0016 9DF84060 		ldrb	r6, [sp, #64]	@ zero_extendqisi2
  46:/Users/imashio/Electronics/ARM/_Library/u8x8_input_value.c ****   uint8_t height;
  47:/Users/imashio/Electronics/ARM/_Library/u8x8_input_value.c ****   uint8_t y;
  48:/Users/imashio/Electronics/ARM/_Library/u8x8_input_value.c ****   uint8_t width;
  49:/Users/imashio/Electronics/ARM/_Library/u8x8_input_value.c ****   uint8_t x;
  50:/Users/imashio/Electronics/ARM/_Library/u8x8_input_value.c ****   uint8_t local_value = *value;
  55              		.loc 1 50 0
  56 001a 1D78     		ldrb	r5, [r3]	@ zero_extendqisi2
  57              	.LVL1:
  51:/Users/imashio/Electronics/ARM/_Library/u8x8_input_value.c ****   uint8_t r;
  52:/Users/imashio/Electronics/ARM/_Library/u8x8_input_value.c ****   uint8_t event;
  53:/Users/imashio/Electronics/ARM/_Library/u8x8_input_value.c **** 
  54:/Users/imashio/Electronics/ARM/_Library/u8x8_input_value.c ****   /* calculate overall height of the input value box */
  55:/Users/imashio/Electronics/ARM/_Library/u8x8_input_value.c ****   height = 1;	/* button line */
  56:/Users/imashio/Electronics/ARM/_Library/u8x8_input_value.c ****   height += u8x8_GetStringLineCnt(title);
  58              		.loc 1 56 0
  59 001c 0846     		mov	r0, r1
ARM GAS  /var/folders/v3/wysfpd052nz8jkbx04pk0ym80000gn/T//cc8Z6cG5.s 			page 3


  60              	.LVL2:
  61 001e FFF7FEFF 		bl	u8x8_GetStringLineCnt
  62              	.LVL3:
  63 0022 0130     		adds	r0, r0, #1
  64 0024 C0B2     		uxtb	r0, r0
  65              	.LVL4:
  57:/Users/imashio/Electronics/ARM/_Library/u8x8_input_value.c ****   
  58:/Users/imashio/Electronics/ARM/_Library/u8x8_input_value.c ****   /* calculate offset from top */
  59:/Users/imashio/Electronics/ARM/_Library/u8x8_input_value.c ****   y = 0;
  60:/Users/imashio/Electronics/ARM/_Library/u8x8_input_value.c ****   if ( height < u8x8_GetRows(u8x8)  )
  66              		.loc 1 60 0
  67 0026 2368     		ldr	r3, [r4]
  68 0028 5B7C     		ldrb	r3, [r3, #17]	@ zero_extendqisi2
  69 002a 8342     		cmp	r3, r0
  70 002c 41D9     		bls	.L13
  71              	.LVL5:
  61:/Users/imashio/Electronics/ARM/_Library/u8x8_input_value.c ****   {
  62:/Users/imashio/Electronics/ARM/_Library/u8x8_input_value.c ****     y = u8x8_GetRows(u8x8);
  63:/Users/imashio/Electronics/ARM/_Library/u8x8_input_value.c ****     y -= height;
  72              		.loc 1 63 0
  73 002e 181A     		subs	r0, r3, r0
  74              	.LVL6:
  64:/Users/imashio/Electronics/ARM/_Library/u8x8_input_value.c ****     y /= 2;
  75              		.loc 1 64 0
  76 0030 C0F3460A 		ubfx	r10, r0, #1, #7
  77              	.LVL7:
  78              	.L2:
  65:/Users/imashio/Electronics/ARM/_Library/u8x8_input_value.c ****   }
  66:/Users/imashio/Electronics/ARM/_Library/u8x8_input_value.c ****   
  67:/Users/imashio/Electronics/ARM/_Library/u8x8_input_value.c ****   /* calculate offset from left for the label */
  68:/Users/imashio/Electronics/ARM/_Library/u8x8_input_value.c ****   x = 0;
  69:/Users/imashio/Electronics/ARM/_Library/u8x8_input_value.c ****   width = u8x8_GetUTF8Len(u8x8, pre);
  79              		.loc 1 69 0
  80 0034 0299     		ldr	r1, [sp, #8]
  81 0036 2046     		mov	r0, r4
  82 0038 FFF7FEFF 		bl	u8x8_GetUTF8Len
  83              	.LVL8:
  70:/Users/imashio/Electronics/ARM/_Library/u8x8_input_value.c ****   width += digits;
  84              		.loc 1 70 0
  85 003c 3044     		add	r0, r0, r6
  86              	.LVL9:
  87 003e C7B2     		uxtb	r7, r0
  88              	.LVL10:
  71:/Users/imashio/Electronics/ARM/_Library/u8x8_input_value.c ****   width += u8x8_GetUTF8Len(u8x8, post);
  89              		.loc 1 71 0
  90 0040 1199     		ldr	r1, [sp, #68]
  91 0042 2046     		mov	r0, r4
  92 0044 FFF7FEFF 		bl	u8x8_GetUTF8Len
  93              	.LVL11:
  94 0048 3844     		add	r0, r0, r7
  95 004a C0B2     		uxtb	r0, r0
  96              	.LVL12:
  72:/Users/imashio/Electronics/ARM/_Library/u8x8_input_value.c ****   if ( width < u8x8_GetCols(u8x8) )
  97              		.loc 1 72 0
  98 004c 2368     		ldr	r3, [r4]
  99 004e 1F7C     		ldrb	r7, [r3, #16]	@ zero_extendqisi2
 100 0050 8742     		cmp	r7, r0
ARM GAS  /var/folders/v3/wysfpd052nz8jkbx04pk0ym80000gn/T//cc8Z6cG5.s 			page 4


 101 0052 31D9     		bls	.L14
 102              	.LVL13:
  73:/Users/imashio/Electronics/ARM/_Library/u8x8_input_value.c ****   {
  74:/Users/imashio/Electronics/ARM/_Library/u8x8_input_value.c ****     x = u8x8_GetCols(u8x8);
  75:/Users/imashio/Electronics/ARM/_Library/u8x8_input_value.c ****     x -= width;
 103              		.loc 1 75 0
 104 0054 3F1A     		subs	r7, r7, r0
 105              	.LVL14:
  76:/Users/imashio/Electronics/ARM/_Library/u8x8_input_value.c ****     x /= 2;
 106              		.loc 1 76 0
 107 0056 C7F34607 		ubfx	r7, r7, #1, #7
 108              	.LVL15:
 109              	.L3:
  77:/Users/imashio/Electronics/ARM/_Library/u8x8_input_value.c ****   }
  78:/Users/imashio/Electronics/ARM/_Library/u8x8_input_value.c ****   
  79:/Users/imashio/Electronics/ARM/_Library/u8x8_input_value.c ****   /* render */
  80:/Users/imashio/Electronics/ARM/_Library/u8x8_input_value.c ****   u8x8_ClearDisplay(u8x8);   /* required, because not everything is filled */
 110              		.loc 1 80 0
 111 005a 2046     		mov	r0, r4
 112              	.LVL16:
 113 005c FFF7FEFF 		bl	u8x8_ClearDisplay
 114              	.LVL17:
  81:/Users/imashio/Electronics/ARM/_Library/u8x8_input_value.c ****   u8x8_SetInverseFont(u8x8, 0);  
 115              		.loc 1 81 0
 116 0060 0021     		movs	r1, #0
 117 0062 E177     		strb	r1, [r4, #31]
  82:/Users/imashio/Electronics/ARM/_Library/u8x8_input_value.c ****   y += u8x8_DrawUTF8Lines(u8x8, 0, y, u8x8_GetCols(u8x8), title);
 118              		.loc 1 82 0
 119 0064 2368     		ldr	r3, [r4]
 120 0066 1B7C     		ldrb	r3, [r3, #16]	@ zero_extendqisi2
 121 0068 039A     		ldr	r2, [sp, #12]
 122 006a 0092     		str	r2, [sp]
 123 006c 5246     		mov	r2, r10
 124 006e 2046     		mov	r0, r4
 125 0070 FFF7FEFF 		bl	u8x8_DrawUTF8Lines
 126              	.LVL18:
 127 0074 5044     		add	r0, r0, r10
 128 0076 5FFA80FA 		uxtb	r10, r0
 129              	.LVL19:
  83:/Users/imashio/Electronics/ARM/_Library/u8x8_input_value.c ****   x += u8x8_DrawUTF8(u8x8, x, y, pre);
 130              		.loc 1 83 0
 131 007a 029B     		ldr	r3, [sp, #8]
 132 007c 5246     		mov	r2, r10
 133 007e 3946     		mov	r1, r7
 134 0080 2046     		mov	r0, r4
 135 0082 FFF7FEFF 		bl	u8x8_DrawUTF8
 136              	.LVL20:
 137 0086 0744     		add	r7, r7, r0
 138              	.LVL21:
 139 0088 FFB2     		uxtb	r7, r7
 140              	.LVL22:
  84:/Users/imashio/Electronics/ARM/_Library/u8x8_input_value.c ****   u8x8_DrawUTF8(u8x8, x+digits, y, post);
 141              		.loc 1 84 0
 142 008a F119     		adds	r1, r6, r7
 143 008c 119B     		ldr	r3, [sp, #68]
 144 008e 5246     		mov	r2, r10
 145 0090 C9B2     		uxtb	r1, r1
ARM GAS  /var/folders/v3/wysfpd052nz8jkbx04pk0ym80000gn/T//cc8Z6cG5.s 			page 5


 146 0092 2046     		mov	r0, r4
 147 0094 FFF7FEFF 		bl	u8x8_DrawUTF8
 148              	.LVL23:
  85:/Users/imashio/Electronics/ARM/_Library/u8x8_input_value.c ****   u8x8_SetInverseFont(u8x8, 1);
 149              		.loc 1 85 0
 150 0098 0123     		movs	r3, #1
 151 009a E377     		strb	r3, [r4, #31]
  86:/Users/imashio/Electronics/ARM/_Library/u8x8_input_value.c ****   
  87:/Users/imashio/Electronics/ARM/_Library/u8x8_input_value.c ****   /* event loop */
  88:/Users/imashio/Electronics/ARM/_Library/u8x8_input_value.c ****   u8x8_DrawUTF8(u8x8, x, y, u8x8_u8toa(local_value, digits));
 152              		.loc 1 88 0
 153 009c 3146     		mov	r1, r6
 154 009e 2846     		mov	r0, r5
 155 00a0 FFF7FEFF 		bl	u8x8_u8toa
 156              	.LVL24:
 157 00a4 0346     		mov	r3, r0
 158 00a6 5246     		mov	r2, r10
 159 00a8 3946     		mov	r1, r7
 160 00aa 2046     		mov	r0, r4
 161 00ac FFF7FEFF 		bl	u8x8_DrawUTF8
 162              	.LVL25:
 163 00b0 1AE0     		b	.L4
 164              	.LVL26:
 165              	.L13:
  59:/Users/imashio/Electronics/ARM/_Library/u8x8_input_value.c ****   if ( height < u8x8_GetRows(u8x8)  )
 166              		.loc 1 59 0
 167 00b2 4FF0000A 		mov	r10, #0
 168 00b6 BDE7     		b	.L2
 169              	.LVL27:
 170              	.L14:
  68:/Users/imashio/Electronics/ARM/_Library/u8x8_input_value.c ****   width = u8x8_GetUTF8Len(u8x8, pre);
 171              		.loc 1 68 0
 172 00b8 0027     		movs	r7, #0
 173 00ba CEE7     		b	.L3
 174              	.LVL28:
 175              	.L19:
  89:/Users/imashio/Electronics/ARM/_Library/u8x8_input_value.c ****   for(;;)
  90:/Users/imashio/Electronics/ARM/_Library/u8x8_input_value.c ****   {
  91:/Users/imashio/Electronics/ARM/_Library/u8x8_input_value.c ****     event = u8x8_GetMenuEvent(u8x8);
  92:/Users/imashio/Electronics/ARM/_Library/u8x8_input_value.c ****     if ( event == U8X8_MSG_GPIO_MENU_SELECT )
  93:/Users/imashio/Electronics/ARM/_Library/u8x8_input_value.c ****     {
  94:/Users/imashio/Electronics/ARM/_Library/u8x8_input_value.c ****       *value = local_value;
 176              		.loc 1 94 0
 177 00bc 8BF80050 		strb	r5, [fp]
 178              	.LVL29:
  95:/Users/imashio/Electronics/ARM/_Library/u8x8_input_value.c ****       r = 1;
 179              		.loc 1 95 0
 180 00c0 0120     		movs	r0, #1
 181              	.LVL30:
 182              	.L6:
  96:/Users/imashio/Electronics/ARM/_Library/u8x8_input_value.c ****       break;
  97:/Users/imashio/Electronics/ARM/_Library/u8x8_input_value.c ****     }
  98:/Users/imashio/Electronics/ARM/_Library/u8x8_input_value.c ****     else if ( event == U8X8_MSG_GPIO_MENU_HOME )
  99:/Users/imashio/Electronics/ARM/_Library/u8x8_input_value.c ****     {
 100:/Users/imashio/Electronics/ARM/_Library/u8x8_input_value.c ****       r = 0;
 101:/Users/imashio/Electronics/ARM/_Library/u8x8_input_value.c ****       break;
 102:/Users/imashio/Electronics/ARM/_Library/u8x8_input_value.c ****     }
ARM GAS  /var/folders/v3/wysfpd052nz8jkbx04pk0ym80000gn/T//cc8Z6cG5.s 			page 6


 103:/Users/imashio/Electronics/ARM/_Library/u8x8_input_value.c ****     else if ( event == U8X8_MSG_GPIO_MENU_NEXT || event == U8X8_MSG_GPIO_MENU_UP )
 104:/Users/imashio/Electronics/ARM/_Library/u8x8_input_value.c ****     {
 105:/Users/imashio/Electronics/ARM/_Library/u8x8_input_value.c ****       if ( local_value >= hi )
 106:/Users/imashio/Electronics/ARM/_Library/u8x8_input_value.c **** 	local_value = lo;
 107:/Users/imashio/Electronics/ARM/_Library/u8x8_input_value.c ****       else
 108:/Users/imashio/Electronics/ARM/_Library/u8x8_input_value.c **** 	local_value++;
 109:/Users/imashio/Electronics/ARM/_Library/u8x8_input_value.c ****       u8x8_DrawUTF8(u8x8, x, y, u8x8_u8toa(local_value, digits));
 110:/Users/imashio/Electronics/ARM/_Library/u8x8_input_value.c ****     }
 111:/Users/imashio/Electronics/ARM/_Library/u8x8_input_value.c ****     else if ( event == U8X8_MSG_GPIO_MENU_PREV || event == U8X8_MSG_GPIO_MENU_DOWN )
 112:/Users/imashio/Electronics/ARM/_Library/u8x8_input_value.c ****     {
 113:/Users/imashio/Electronics/ARM/_Library/u8x8_input_value.c ****       if ( local_value <= lo )
 114:/Users/imashio/Electronics/ARM/_Library/u8x8_input_value.c **** 	local_value = hi;
 115:/Users/imashio/Electronics/ARM/_Library/u8x8_input_value.c ****       else
 116:/Users/imashio/Electronics/ARM/_Library/u8x8_input_value.c **** 	local_value--;
 117:/Users/imashio/Electronics/ARM/_Library/u8x8_input_value.c ****       u8x8_DrawUTF8(u8x8, x, y, u8x8_u8toa(local_value, digits));
 118:/Users/imashio/Electronics/ARM/_Library/u8x8_input_value.c ****     }        
 119:/Users/imashio/Electronics/ARM/_Library/u8x8_input_value.c ****   }
 120:/Users/imashio/Electronics/ARM/_Library/u8x8_input_value.c ****   
 121:/Users/imashio/Electronics/ARM/_Library/u8x8_input_value.c ****   u8x8_SetInverseFont(u8x8, 0);
 183              		.loc 1 121 0
 184 00c2 0023     		movs	r3, #0
 185 00c4 E377     		strb	r3, [r4, #31]
 122:/Users/imashio/Electronics/ARM/_Library/u8x8_input_value.c ****   return r;  
 123:/Users/imashio/Electronics/ARM/_Library/u8x8_input_value.c **** }
 186              		.loc 1 123 0
 187 00c6 05B0     		add	sp, sp, #20
 188              	.LCFI2:
 189              		.cfi_remember_state
 190              		.cfi_def_cfa_offset 36
 191              		@ sp needed
 192 00c8 BDE8F08F 		pop	{r4, r5, r6, r7, r8, r9, r10, fp, pc}
 193              	.LVL31:
 194              	.L7:
 195              	.LCFI3:
 196              		.cfi_restore_state
 105:/Users/imashio/Electronics/ARM/_Library/u8x8_input_value.c **** 	local_value = lo;
 197              		.loc 1 105 0
 198 00cc 4545     		cmp	r5, r8
 199 00ce 29D2     		bcs	.L16
 108:/Users/imashio/Electronics/ARM/_Library/u8x8_input_value.c ****       u8x8_DrawUTF8(u8x8, x, y, u8x8_u8toa(local_value, digits));
 200              		.loc 1 108 0
 201 00d0 0135     		adds	r5, r5, #1
 202              	.LVL32:
 203 00d2 EDB2     		uxtb	r5, r5
 204              	.LVL33:
 205              	.L9:
 109:/Users/imashio/Electronics/ARM/_Library/u8x8_input_value.c ****     }
 206              		.loc 1 109 0
 207 00d4 3146     		mov	r1, r6
 208 00d6 2846     		mov	r0, r5
 209              	.LVL34:
 210 00d8 FFF7FEFF 		bl	u8x8_u8toa
 211              	.LVL35:
 212 00dc 0346     		mov	r3, r0
 213 00de 5246     		mov	r2, r10
 214 00e0 3946     		mov	r1, r7
 215 00e2 2046     		mov	r0, r4
ARM GAS  /var/folders/v3/wysfpd052nz8jkbx04pk0ym80000gn/T//cc8Z6cG5.s 			page 7


 216 00e4 FFF7FEFF 		bl	u8x8_DrawUTF8
 217              	.LVL36:
 218              	.L4:
  91:/Users/imashio/Electronics/ARM/_Library/u8x8_input_value.c ****     if ( event == U8X8_MSG_GPIO_MENU_SELECT )
 219              		.loc 1 91 0
 220 00e8 2046     		mov	r0, r4
 221 00ea FFF7FEFF 		bl	u8x8_GetMenuEvent
 222              	.LVL37:
  92:/Users/imashio/Electronics/ARM/_Library/u8x8_input_value.c ****     {
 223              		.loc 1 92 0
 224 00ee 5028     		cmp	r0, #80
 225 00f0 E4D0     		beq	.L19
  98:/Users/imashio/Electronics/ARM/_Library/u8x8_input_value.c ****     {
 226              		.loc 1 98 0
 227 00f2 5328     		cmp	r0, #83
 228 00f4 1AD0     		beq	.L15
 103:/Users/imashio/Electronics/ARM/_Library/u8x8_input_value.c ****     {
 229              		.loc 1 103 0
 230 00f6 5128     		cmp	r0, #81
 231 00f8 E8D0     		beq	.L7
 103:/Users/imashio/Electronics/ARM/_Library/u8x8_input_value.c ****     {
 232              		.loc 1 103 0 is_stmt 0 discriminator 1
 233 00fa 5428     		cmp	r0, #84
 234 00fc E6D0     		beq	.L7
 111:/Users/imashio/Electronics/ARM/_Library/u8x8_input_value.c ****     {
 235              		.loc 1 111 0 is_stmt 1
 236 00fe 5228     		cmp	r0, #82
 237 0100 01D0     		beq	.L11
 111:/Users/imashio/Electronics/ARM/_Library/u8x8_input_value.c ****     {
 238              		.loc 1 111 0 is_stmt 0 discriminator 1
 239 0102 5528     		cmp	r0, #85
 240 0104 F0D1     		bne	.L4
 241              	.L11:
 113:/Users/imashio/Electronics/ARM/_Library/u8x8_input_value.c **** 	local_value = hi;
 242              		.loc 1 113 0 is_stmt 1
 243 0106 4D45     		cmp	r5, r9
 244 0108 0ED9     		bls	.L17
 116:/Users/imashio/Electronics/ARM/_Library/u8x8_input_value.c ****       u8x8_DrawUTF8(u8x8, x, y, u8x8_u8toa(local_value, digits));
 245              		.loc 1 116 0
 246 010a 013D     		subs	r5, r5, #1
 247              	.LVL38:
 248 010c EDB2     		uxtb	r5, r5
 249              	.LVL39:
 250              	.L12:
 117:/Users/imashio/Electronics/ARM/_Library/u8x8_input_value.c ****     }        
 251              		.loc 1 117 0
 252 010e 3146     		mov	r1, r6
 253 0110 2846     		mov	r0, r5
 254              	.LVL40:
 255 0112 FFF7FEFF 		bl	u8x8_u8toa
 256              	.LVL41:
 257 0116 0346     		mov	r3, r0
 258 0118 5246     		mov	r2, r10
 259 011a 3946     		mov	r1, r7
 260 011c 2046     		mov	r0, r4
 261 011e FFF7FEFF 		bl	u8x8_DrawUTF8
 262              	.LVL42:
ARM GAS  /var/folders/v3/wysfpd052nz8jkbx04pk0ym80000gn/T//cc8Z6cG5.s 			page 8


 263 0122 E1E7     		b	.L4
 264              	.LVL43:
 265              	.L16:
 106:/Users/imashio/Electronics/ARM/_Library/u8x8_input_value.c ****       else
 266              		.loc 1 106 0
 267 0124 4D46     		mov	r5, r9
 268              	.LVL44:
 269 0126 D5E7     		b	.L9
 270              	.LVL45:
 271              	.L17:
 114:/Users/imashio/Electronics/ARM/_Library/u8x8_input_value.c ****       else
 272              		.loc 1 114 0
 273 0128 4546     		mov	r5, r8
 274              	.LVL46:
 275 012a F0E7     		b	.L12
 276              	.LVL47:
 277              	.L15:
 100:/Users/imashio/Electronics/ARM/_Library/u8x8_input_value.c ****       break;
 278              		.loc 1 100 0
 279 012c 0020     		movs	r0, #0
 280              	.LVL48:
 281 012e C8E7     		b	.L6
 282              		.cfi_endproc
 283              	.LFE0:
 285              		.text
 286              	.Letext0:
 287              		.file 2 "/usr/local/gcc-arm-none-eabi-7-2018-q2-update/arm-none-eabi/include/machine/_default_type
 288              		.file 3 "/usr/local/gcc-arm-none-eabi-7-2018-q2-update/arm-none-eabi/include/sys/_stdint.h"
 289              		.file 4 "/Users/imashio/Electronics/ARM/_Library/u8x8.h"
ARM GAS  /var/folders/v3/wysfpd052nz8jkbx04pk0ym80000gn/T//cc8Z6cG5.s 			page 9

