ARM GAS  /var/folders/v3/wysfpd052nz8jkbx04pk0ym80000gn/T//cce5CbyR.s 			page 1


   1              		.cpu cortex-m4
   2              		.eabi_attribute 27, 1
   3              		.eabi_attribute 28, 1
   4              		.eabi_attribute 20, 1
   5              		.eabi_attribute 21, 1
   6              		.eabi_attribute 23, 3
   7              		.eabi_attribute 24, 1
   8              		.eabi_attribute 25, 1
   9              		.eabi_attribute 26, 1
  10              		.eabi_attribute 30, 2
  11              		.eabi_attribute 34, 1
  12              		.eabi_attribute 18, 4
  13              		.file	"u8x8_d_sbn1661.c"
  14              		.text
  15              	.Ltext0:
  16              		.cfi_sections	.debug_frame
  17              		.section	.text.u8x8_d_sbn1661_122x32,"ax",%progbits
  18              		.align	1
  19              		.p2align 2,,3
  20              		.global	u8x8_d_sbn1661_122x32
  21              		.syntax unified
  22              		.thumb
  23              		.thumb_func
  24              		.fpu fpv4-sp-d16
  26              	u8x8_d_sbn1661_122x32:
  27              	.LFB1:
  28              		.file 1 "/Users/imashio/Electronics/ARM/_Library/u8x8_d_sbn1661.c"
   1:/Users/imashio/Electronics/ARM/_Library/u8x8_d_sbn1661.c **** /*
   2:/Users/imashio/Electronics/ARM/_Library/u8x8_d_sbn1661.c **** 
   3:/Users/imashio/Electronics/ARM/_Library/u8x8_d_sbn1661.c ****   u8x8_d_sbn1661.c 
   4:/Users/imashio/Electronics/ARM/_Library/u8x8_d_sbn1661.c ****   
   5:/Users/imashio/Electronics/ARM/_Library/u8x8_d_sbn1661.c ****   SED1520 / SBN1661 122x32 5V LCD
   6:/Users/imashio/Electronics/ARM/_Library/u8x8_d_sbn1661.c ****   
   7:/Users/imashio/Electronics/ARM/_Library/u8x8_d_sbn1661.c ****   Universal 8bit Graphics Library (https://github.com/olikraus/u8g2/)
   8:/Users/imashio/Electronics/ARM/_Library/u8x8_d_sbn1661.c **** 
   9:/Users/imashio/Electronics/ARM/_Library/u8x8_d_sbn1661.c ****   Copyright (c) 2016, olikraus@gmail.com
  10:/Users/imashio/Electronics/ARM/_Library/u8x8_d_sbn1661.c ****   All rights reserved.
  11:/Users/imashio/Electronics/ARM/_Library/u8x8_d_sbn1661.c **** 
  12:/Users/imashio/Electronics/ARM/_Library/u8x8_d_sbn1661.c ****   Redistribution and use in source and binary forms, with or without modification, 
  13:/Users/imashio/Electronics/ARM/_Library/u8x8_d_sbn1661.c ****   are permitted provided that the following conditions are met:
  14:/Users/imashio/Electronics/ARM/_Library/u8x8_d_sbn1661.c **** 
  15:/Users/imashio/Electronics/ARM/_Library/u8x8_d_sbn1661.c ****   * Redistributions of source code must retain the above copyright notice, this list 
  16:/Users/imashio/Electronics/ARM/_Library/u8x8_d_sbn1661.c ****     of conditions and the following disclaimer.
  17:/Users/imashio/Electronics/ARM/_Library/u8x8_d_sbn1661.c ****     
  18:/Users/imashio/Electronics/ARM/_Library/u8x8_d_sbn1661.c ****   * Redistributions in binary form must reproduce the above copyright notice, this 
  19:/Users/imashio/Electronics/ARM/_Library/u8x8_d_sbn1661.c ****     list of conditions and the following disclaimer in the documentation and/or other 
  20:/Users/imashio/Electronics/ARM/_Library/u8x8_d_sbn1661.c ****     materials provided with the distribution.
  21:/Users/imashio/Electronics/ARM/_Library/u8x8_d_sbn1661.c **** 
  22:/Users/imashio/Electronics/ARM/_Library/u8x8_d_sbn1661.c ****   THIS SOFTWARE IS PROVIDED BY THE COPYRIGHT HOLDERS AND 
  23:/Users/imashio/Electronics/ARM/_Library/u8x8_d_sbn1661.c ****   CONTRIBUTORS "AS IS" AND ANY EXPRESS OR IMPLIED WARRANTIES, 
  24:/Users/imashio/Electronics/ARM/_Library/u8x8_d_sbn1661.c ****   INCLUDING, BUT NOT LIMITED TO, THE IMPLIED WARRANTIES OF 
  25:/Users/imashio/Electronics/ARM/_Library/u8x8_d_sbn1661.c ****   MERCHANTABILITY AND FITNESS FOR A PARTICULAR PURPOSE ARE 
  26:/Users/imashio/Electronics/ARM/_Library/u8x8_d_sbn1661.c ****   DISCLAIMED. IN NO EVENT SHALL THE COPYRIGHT HOLDER OR 
  27:/Users/imashio/Electronics/ARM/_Library/u8x8_d_sbn1661.c ****   CONTRIBUTORS BE LIABLE FOR ANY DIRECT, INDIRECT, INCIDENTAL, 
  28:/Users/imashio/Electronics/ARM/_Library/u8x8_d_sbn1661.c ****   SPECIAL, EXEMPLARY, OR CONSEQUENTIAL DAMAGES (INCLUDING, BUT 
  29:/Users/imashio/Electronics/ARM/_Library/u8x8_d_sbn1661.c ****   NOT LIMITED TO, PROCUREMENT OF SUBSTITUTE GOODS OR SERVICES; 
  30:/Users/imashio/Electronics/ARM/_Library/u8x8_d_sbn1661.c ****   LOSS OF USE, DATA, OR PROFITS; OR BUSINESS INTERRUPTION) HOWEVER 
ARM GAS  /var/folders/v3/wysfpd052nz8jkbx04pk0ym80000gn/T//cce5CbyR.s 			page 2


  31:/Users/imashio/Electronics/ARM/_Library/u8x8_d_sbn1661.c ****   CAUSED AND ON ANY THEORY OF LIABILITY, WHETHER IN CONTRACT, 
  32:/Users/imashio/Electronics/ARM/_Library/u8x8_d_sbn1661.c ****   STRICT LIABILITY, OR TORT (INCLUDING NEGLIGENCE OR OTHERWISE) 
  33:/Users/imashio/Electronics/ARM/_Library/u8x8_d_sbn1661.c ****   ARISING IN ANY WAY OUT OF THE USE OF THIS SOFTWARE, EVEN IF 
  34:/Users/imashio/Electronics/ARM/_Library/u8x8_d_sbn1661.c ****   ADVISED OF THE POSSIBILITY OF SUCH DAMAGE.  
  35:/Users/imashio/Electronics/ARM/_Library/u8x8_d_sbn1661.c **** 
  36:/Users/imashio/Electronics/ARM/_Library/u8x8_d_sbn1661.c ****   
  37:/Users/imashio/Electronics/ARM/_Library/u8x8_d_sbn1661.c **** */
  38:/Users/imashio/Electronics/ARM/_Library/u8x8_d_sbn1661.c **** #include "u8x8.h"
  39:/Users/imashio/Electronics/ARM/_Library/u8x8_d_sbn1661.c **** 
  40:/Users/imashio/Electronics/ARM/_Library/u8x8_d_sbn1661.c **** 
  41:/Users/imashio/Electronics/ARM/_Library/u8x8_d_sbn1661.c **** 
  42:/Users/imashio/Electronics/ARM/_Library/u8x8_d_sbn1661.c **** 
  43:/Users/imashio/Electronics/ARM/_Library/u8x8_d_sbn1661.c **** static const uint8_t u8x8_d_sbn1661_init_seq[] = {
  44:/Users/imashio/Electronics/ARM/_Library/u8x8_d_sbn1661.c ****   U8X8_C(0x0c0),		                /* display start at line 0  */  
  45:/Users/imashio/Electronics/ARM/_Library/u8x8_d_sbn1661.c ****   U8X8_C(0x0a0),		                /* a0: ADC forward, a1: ADC reverse */  
  46:/Users/imashio/Electronics/ARM/_Library/u8x8_d_sbn1661.c ****   U8X8_C(0x0a4),		                /* a4: normal driving, a5: power save */  
  47:/Users/imashio/Electronics/ARM/_Library/u8x8_d_sbn1661.c ****   U8X8_C(0x0a9),		                /* a8: 1/16, a9: 1/32 duty */  
  48:/Users/imashio/Electronics/ARM/_Library/u8x8_d_sbn1661.c **** 
  49:/Users/imashio/Electronics/ARM/_Library/u8x8_d_sbn1661.c ****   //U8X8_C(0x0af),				/* display on */
  50:/Users/imashio/Electronics/ARM/_Library/u8x8_d_sbn1661.c ****   
  51:/Users/imashio/Electronics/ARM/_Library/u8x8_d_sbn1661.c ****   U8X8_END()             			/* end of sequence */
  52:/Users/imashio/Electronics/ARM/_Library/u8x8_d_sbn1661.c **** };
  53:/Users/imashio/Electronics/ARM/_Library/u8x8_d_sbn1661.c **** 
  54:/Users/imashio/Electronics/ARM/_Library/u8x8_d_sbn1661.c **** static const uint8_t u8x8_d_sbn1661_powersave0_seq[] = {
  55:/Users/imashio/Electronics/ARM/_Library/u8x8_d_sbn1661.c ****   U8X8_C(0x0af),		                /* display on */
  56:/Users/imashio/Electronics/ARM/_Library/u8x8_d_sbn1661.c ****   U8X8_END()             			/* end of sequence */
  57:/Users/imashio/Electronics/ARM/_Library/u8x8_d_sbn1661.c **** };
  58:/Users/imashio/Electronics/ARM/_Library/u8x8_d_sbn1661.c **** 
  59:/Users/imashio/Electronics/ARM/_Library/u8x8_d_sbn1661.c **** static const uint8_t u8x8_d_sbn1661_powersave1_seq[] = {
  60:/Users/imashio/Electronics/ARM/_Library/u8x8_d_sbn1661.c ****   U8X8_C(0x0ae),		                /* display off */
  61:/Users/imashio/Electronics/ARM/_Library/u8x8_d_sbn1661.c ****   U8X8_END()             			/* end of sequence */
  62:/Users/imashio/Electronics/ARM/_Library/u8x8_d_sbn1661.c **** };
  63:/Users/imashio/Electronics/ARM/_Library/u8x8_d_sbn1661.c **** 
  64:/Users/imashio/Electronics/ARM/_Library/u8x8_d_sbn1661.c **** 
  65:/Users/imashio/Electronics/ARM/_Library/u8x8_d_sbn1661.c **** struct u8x8_sbn1661_vars
  66:/Users/imashio/Electronics/ARM/_Library/u8x8_d_sbn1661.c **** {
  67:/Users/imashio/Electronics/ARM/_Library/u8x8_d_sbn1661.c ****   uint8_t *ptr;
  68:/Users/imashio/Electronics/ARM/_Library/u8x8_d_sbn1661.c ****   uint8_t x;
  69:/Users/imashio/Electronics/ARM/_Library/u8x8_d_sbn1661.c ****   uint8_t c;
  70:/Users/imashio/Electronics/ARM/_Library/u8x8_d_sbn1661.c ****   uint8_t arg_int;
  71:/Users/imashio/Electronics/ARM/_Library/u8x8_d_sbn1661.c **** };
  72:/Users/imashio/Electronics/ARM/_Library/u8x8_d_sbn1661.c **** 
  73:/Users/imashio/Electronics/ARM/_Library/u8x8_d_sbn1661.c **** static void u8x8_sbn1661_out(u8x8_t *u8x8, struct u8x8_sbn1661_vars *v, void *arg_ptr)
  74:/Users/imashio/Electronics/ARM/_Library/u8x8_d_sbn1661.c **** {
  75:/Users/imashio/Electronics/ARM/_Library/u8x8_d_sbn1661.c ****   uint8_t cnt;
  76:/Users/imashio/Electronics/ARM/_Library/u8x8_d_sbn1661.c ****   u8x8_cad_SendCmd(u8x8, 0x000 | ((v->x << 3) & 63) );
  77:/Users/imashio/Electronics/ARM/_Library/u8x8_d_sbn1661.c ****   u8x8_cad_SendCmd(u8x8, 0x0b8 | (((u8x8_tile_t *)arg_ptr)->y_pos));
  78:/Users/imashio/Electronics/ARM/_Library/u8x8_d_sbn1661.c ****   
  79:/Users/imashio/Electronics/ARM/_Library/u8x8_d_sbn1661.c ****   while( v->arg_int > 0 )
  80:/Users/imashio/Electronics/ARM/_Library/u8x8_d_sbn1661.c ****   {
  81:/Users/imashio/Electronics/ARM/_Library/u8x8_d_sbn1661.c ****       /* calculate tiles to next boundary (end or chip limit) */
  82:/Users/imashio/Electronics/ARM/_Library/u8x8_d_sbn1661.c ****       cnt = v->x;
  83:/Users/imashio/Electronics/ARM/_Library/u8x8_d_sbn1661.c ****       cnt += 8;
  84:/Users/imashio/Electronics/ARM/_Library/u8x8_d_sbn1661.c ****       cnt &= 0x0f8;
  85:/Users/imashio/Electronics/ARM/_Library/u8x8_d_sbn1661.c ****       cnt -= v->x;
  86:/Users/imashio/Electronics/ARM/_Library/u8x8_d_sbn1661.c ****             
  87:/Users/imashio/Electronics/ARM/_Library/u8x8_d_sbn1661.c ****       if ( cnt > v->c )
ARM GAS  /var/folders/v3/wysfpd052nz8jkbx04pk0ym80000gn/T//cce5CbyR.s 			page 3


  88:/Users/imashio/Electronics/ARM/_Library/u8x8_d_sbn1661.c **** 	cnt = v->c;
  89:/Users/imashio/Electronics/ARM/_Library/u8x8_d_sbn1661.c ****     
  90:/Users/imashio/Electronics/ARM/_Library/u8x8_d_sbn1661.c ****       /* of course we still could use cnt=1 here... */
  91:/Users/imashio/Electronics/ARM/_Library/u8x8_d_sbn1661.c ****       /* but setting cnt to 1 is not very efficient */
  92:/Users/imashio/Electronics/ARM/_Library/u8x8_d_sbn1661.c ****       //cnt = 1;
  93:/Users/imashio/Electronics/ARM/_Library/u8x8_d_sbn1661.c ****     
  94:/Users/imashio/Electronics/ARM/_Library/u8x8_d_sbn1661.c ****       v->x +=cnt;
  95:/Users/imashio/Electronics/ARM/_Library/u8x8_d_sbn1661.c ****       v->c-=cnt;
  96:/Users/imashio/Electronics/ARM/_Library/u8x8_d_sbn1661.c ****       cnt<<=3;
  97:/Users/imashio/Electronics/ARM/_Library/u8x8_d_sbn1661.c ****       u8x8_cad_SendData(u8x8, cnt, v->ptr);	/* note: SendData can not handle more than 255 bytes */
  98:/Users/imashio/Electronics/ARM/_Library/u8x8_d_sbn1661.c ****       v->ptr += cnt;
  99:/Users/imashio/Electronics/ARM/_Library/u8x8_d_sbn1661.c ****     
 100:/Users/imashio/Electronics/ARM/_Library/u8x8_d_sbn1661.c ****       if ( v->c == 0 )
 101:/Users/imashio/Electronics/ARM/_Library/u8x8_d_sbn1661.c ****       {
 102:/Users/imashio/Electronics/ARM/_Library/u8x8_d_sbn1661.c **** 	v->ptr = ((u8x8_tile_t *)arg_ptr)->tile_ptr;
 103:/Users/imashio/Electronics/ARM/_Library/u8x8_d_sbn1661.c **** 	v->c = ((u8x8_tile_t *)arg_ptr)->cnt;
 104:/Users/imashio/Electronics/ARM/_Library/u8x8_d_sbn1661.c **** 	v->arg_int--;
 105:/Users/imashio/Electronics/ARM/_Library/u8x8_d_sbn1661.c ****       }
 106:/Users/imashio/Electronics/ARM/_Library/u8x8_d_sbn1661.c ****       if ( ((v->x) & 7) == 0 )
 107:/Users/imashio/Electronics/ARM/_Library/u8x8_d_sbn1661.c **** 	break;       
 108:/Users/imashio/Electronics/ARM/_Library/u8x8_d_sbn1661.c ****   } 
 109:/Users/imashio/Electronics/ARM/_Library/u8x8_d_sbn1661.c **** }
 110:/Users/imashio/Electronics/ARM/_Library/u8x8_d_sbn1661.c **** 
 111:/Users/imashio/Electronics/ARM/_Library/u8x8_d_sbn1661.c **** 
 112:/Users/imashio/Electronics/ARM/_Library/u8x8_d_sbn1661.c **** static const u8x8_display_info_t u8x8_sbn1661_122x32_display_info =
 113:/Users/imashio/Electronics/ARM/_Library/u8x8_d_sbn1661.c **** {
 114:/Users/imashio/Electronics/ARM/_Library/u8x8_d_sbn1661.c ****   /* chip_enable_level = */ 0,		/* sbn1661: Not used */
 115:/Users/imashio/Electronics/ARM/_Library/u8x8_d_sbn1661.c ****   /* chip_disable_level = */ 1,		/* sbn1661: Not used */
 116:/Users/imashio/Electronics/ARM/_Library/u8x8_d_sbn1661.c ****   
 117:/Users/imashio/Electronics/ARM/_Library/u8x8_d_sbn1661.c ****   /* post_chip_enable_wait_ns = */ 100,
 118:/Users/imashio/Electronics/ARM/_Library/u8x8_d_sbn1661.c ****   /* pre_chip_disable_wait_ns = */ 20,
 119:/Users/imashio/Electronics/ARM/_Library/u8x8_d_sbn1661.c ****   /* reset_pulse_width_ms = */ 1, 
 120:/Users/imashio/Electronics/ARM/_Library/u8x8_d_sbn1661.c ****   /* post_reset_wait_ms = */ 6, 		/*  */
 121:/Users/imashio/Electronics/ARM/_Library/u8x8_d_sbn1661.c ****   /* sda_setup_time_ns = */ 12,		
 122:/Users/imashio/Electronics/ARM/_Library/u8x8_d_sbn1661.c ****   /* sck_pulse_width_ns = */ 75,	/* sbn1661: Not used */
 123:/Users/imashio/Electronics/ARM/_Library/u8x8_d_sbn1661.c ****   /* sck_clock_hz = */ 4000000UL,	/* sbn1661: Not used */
 124:/Users/imashio/Electronics/ARM/_Library/u8x8_d_sbn1661.c ****   /* spi_mode = */ 0,				/* active high, rising edge */
 125:/Users/imashio/Electronics/ARM/_Library/u8x8_d_sbn1661.c ****   /* i2c_bus_clock_100kHz = */ 4,	/* sbn1661: Not used */
 126:/Users/imashio/Electronics/ARM/_Library/u8x8_d_sbn1661.c ****   /* data_setup_time_ns = */ 200,
 127:/Users/imashio/Electronics/ARM/_Library/u8x8_d_sbn1661.c ****   /* write_pulse_width_ns = */ 200,	/*  */
 128:/Users/imashio/Electronics/ARM/_Library/u8x8_d_sbn1661.c ****   /* tile_width = */ 16,		/* width of 16*8=128 pixel */
 129:/Users/imashio/Electronics/ARM/_Library/u8x8_d_sbn1661.c ****   /* tile_hight = */ 4,
 130:/Users/imashio/Electronics/ARM/_Library/u8x8_d_sbn1661.c ****   /* default_x_offset = */ 0,
 131:/Users/imashio/Electronics/ARM/_Library/u8x8_d_sbn1661.c ****   /* flipmode_x_offset = */ 0,
 132:/Users/imashio/Electronics/ARM/_Library/u8x8_d_sbn1661.c ****   /* pixel_width = */ 122,
 133:/Users/imashio/Electronics/ARM/_Library/u8x8_d_sbn1661.c ****   /* pixel_height = */ 32
 134:/Users/imashio/Electronics/ARM/_Library/u8x8_d_sbn1661.c **** };
 135:/Users/imashio/Electronics/ARM/_Library/u8x8_d_sbn1661.c **** 
 136:/Users/imashio/Electronics/ARM/_Library/u8x8_d_sbn1661.c **** uint8_t u8x8_d_sbn1661_122x32(u8x8_t *u8x8, uint8_t msg, uint8_t arg_int, void *arg_ptr)
 137:/Users/imashio/Electronics/ARM/_Library/u8x8_d_sbn1661.c **** {
  29              		.loc 1 137 0
  30              		.cfi_startproc
  31              		@ args = 0, pretend = 0, frame = 0
  32              		@ frame_needed = 0, uses_anonymous_args = 0
  33              	.LVL0:
 138:/Users/imashio/Electronics/ARM/_Library/u8x8_d_sbn1661.c ****   uint8_t *ptr;
 139:/Users/imashio/Electronics/ARM/_Library/u8x8_d_sbn1661.c ****   //uint8_t x;
ARM GAS  /var/folders/v3/wysfpd052nz8jkbx04pk0ym80000gn/T//cce5CbyR.s 			page 4


 140:/Users/imashio/Electronics/ARM/_Library/u8x8_d_sbn1661.c ****   //uint8_t c;
 141:/Users/imashio/Electronics/ARM/_Library/u8x8_d_sbn1661.c ****   
 142:/Users/imashio/Electronics/ARM/_Library/u8x8_d_sbn1661.c ****   switch(msg)
  34              		.loc 1 142 0
  35 0000 0939     		subs	r1, r1, #9
  36              	.LVL1:
 137:/Users/imashio/Electronics/ARM/_Library/u8x8_d_sbn1661.c ****   uint8_t *ptr;
  37              		.loc 1 137 0
  38 0002 F8B5     		push	{r3, r4, r5, r6, r7, lr}
  39              	.LCFI0:
  40              		.cfi_def_cfa_offset 24
  41              		.cfi_offset 3, -24
  42              		.cfi_offset 4, -20
  43              		.cfi_offset 5, -16
  44              		.cfi_offset 6, -12
  45              		.cfi_offset 7, -8
  46              		.cfi_offset 14, -4
 137:/Users/imashio/Electronics/ARM/_Library/u8x8_d_sbn1661.c ****   uint8_t *ptr;
  47              		.loc 1 137 0
  48 0004 0446     		mov	r4, r0
  49 0006 1E46     		mov	r6, r3
  50              		.loc 1 142 0
  51 0008 0629     		cmp	r1, #6
  52 000a 00F28480 		bhi	.L9
  53 000e DFE801F0 		tbb	[pc, r1]
  54              	.LVL2:
  55              	.L4:
  56 0012 7D       		.byte	(.L3-.L4)/2
  57 0013 60       		.byte	(.L5-.L4)/2
  58 0014 3D       		.byte	(.L6-.L4)/2
  59 0015 82       		.byte	(.L9-.L4)/2
  60 0016 82       		.byte	(.L9-.L4)/2
  61 0017 82       		.byte	(.L9-.L4)/2
  62 0018 04       		.byte	(.L7-.L4)/2
  63 0019 00       		.p2align 1
  64              	.L7:
 143:/Users/imashio/Electronics/ARM/_Library/u8x8_d_sbn1661.c ****   {
 144:/Users/imashio/Electronics/ARM/_Library/u8x8_d_sbn1661.c ****     case U8X8_MSG_DISPLAY_SETUP_MEMORY:
 145:/Users/imashio/Electronics/ARM/_Library/u8x8_d_sbn1661.c ****       u8x8_d_helper_display_setup_memory(u8x8, &u8x8_sbn1661_122x32_display_info);
 146:/Users/imashio/Electronics/ARM/_Library/u8x8_d_sbn1661.c ****       break;
 147:/Users/imashio/Electronics/ARM/_Library/u8x8_d_sbn1661.c ****     case U8X8_MSG_DISPLAY_INIT:
 148:/Users/imashio/Electronics/ARM/_Library/u8x8_d_sbn1661.c ****       u8x8_d_helper_display_init(u8x8);
 149:/Users/imashio/Electronics/ARM/_Library/u8x8_d_sbn1661.c ****     
 150:/Users/imashio/Electronics/ARM/_Library/u8x8_d_sbn1661.c ****       u8x8->cad_cb(u8x8, U8X8_MSG_CAD_START_TRANSFER, 0, NULL);
 151:/Users/imashio/Electronics/ARM/_Library/u8x8_d_sbn1661.c ****       u8x8_cad_SendSequence(u8x8, u8x8_d_sbn1661_init_seq);
 152:/Users/imashio/Electronics/ARM/_Library/u8x8_d_sbn1661.c ****       u8x8->cad_cb(u8x8, U8X8_MSG_CAD_END_TRANSFER, 0, NULL);
 153:/Users/imashio/Electronics/ARM/_Library/u8x8_d_sbn1661.c ****     
 154:/Users/imashio/Electronics/ARM/_Library/u8x8_d_sbn1661.c ****       u8x8->cad_cb(u8x8, U8X8_MSG_CAD_START_TRANSFER, 1, NULL);
 155:/Users/imashio/Electronics/ARM/_Library/u8x8_d_sbn1661.c ****       u8x8_cad_SendSequence(u8x8, u8x8_d_sbn1661_init_seq);
 156:/Users/imashio/Electronics/ARM/_Library/u8x8_d_sbn1661.c ****       u8x8->cad_cb(u8x8, U8X8_MSG_CAD_END_TRANSFER, 1, NULL);
 157:/Users/imashio/Electronics/ARM/_Library/u8x8_d_sbn1661.c ****       break;
 158:/Users/imashio/Electronics/ARM/_Library/u8x8_d_sbn1661.c ****     case U8X8_MSG_DISPLAY_SET_POWER_SAVE:
 159:/Users/imashio/Electronics/ARM/_Library/u8x8_d_sbn1661.c ****       
 160:/Users/imashio/Electronics/ARM/_Library/u8x8_d_sbn1661.c ****       if ( arg_int == 0 )
 161:/Users/imashio/Electronics/ARM/_Library/u8x8_d_sbn1661.c ****       {
 162:/Users/imashio/Electronics/ARM/_Library/u8x8_d_sbn1661.c **** 	u8x8->cad_cb(u8x8, U8X8_MSG_CAD_START_TRANSFER, 0, NULL);
 163:/Users/imashio/Electronics/ARM/_Library/u8x8_d_sbn1661.c **** 	u8x8_cad_SendSequence(u8x8, u8x8_d_sbn1661_powersave0_seq);
ARM GAS  /var/folders/v3/wysfpd052nz8jkbx04pk0ym80000gn/T//cce5CbyR.s 			page 5


 164:/Users/imashio/Electronics/ARM/_Library/u8x8_d_sbn1661.c **** 	u8x8->cad_cb(u8x8, U8X8_MSG_CAD_END_TRANSFER, 0, NULL);
 165:/Users/imashio/Electronics/ARM/_Library/u8x8_d_sbn1661.c **** 
 166:/Users/imashio/Electronics/ARM/_Library/u8x8_d_sbn1661.c **** 	u8x8->cad_cb(u8x8, U8X8_MSG_CAD_START_TRANSFER, 1, NULL);
 167:/Users/imashio/Electronics/ARM/_Library/u8x8_d_sbn1661.c **** 	u8x8_cad_SendSequence(u8x8, u8x8_d_sbn1661_powersave0_seq);
 168:/Users/imashio/Electronics/ARM/_Library/u8x8_d_sbn1661.c **** 	u8x8->cad_cb(u8x8, U8X8_MSG_CAD_END_TRANSFER, 1, NULL);	
 169:/Users/imashio/Electronics/ARM/_Library/u8x8_d_sbn1661.c ****       }
 170:/Users/imashio/Electronics/ARM/_Library/u8x8_d_sbn1661.c ****       else
 171:/Users/imashio/Electronics/ARM/_Library/u8x8_d_sbn1661.c ****       {
 172:/Users/imashio/Electronics/ARM/_Library/u8x8_d_sbn1661.c **** 	u8x8->cad_cb(u8x8, U8X8_MSG_CAD_START_TRANSFER, 0, NULL);
 173:/Users/imashio/Electronics/ARM/_Library/u8x8_d_sbn1661.c **** 	u8x8_cad_SendSequence(u8x8, u8x8_d_sbn1661_powersave1_seq);
 174:/Users/imashio/Electronics/ARM/_Library/u8x8_d_sbn1661.c **** 	u8x8->cad_cb(u8x8, U8X8_MSG_CAD_END_TRANSFER, 0, NULL);
 175:/Users/imashio/Electronics/ARM/_Library/u8x8_d_sbn1661.c **** 	
 176:/Users/imashio/Electronics/ARM/_Library/u8x8_d_sbn1661.c **** 	u8x8->cad_cb(u8x8, U8X8_MSG_CAD_START_TRANSFER, 1, NULL);
 177:/Users/imashio/Electronics/ARM/_Library/u8x8_d_sbn1661.c **** 	u8x8_cad_SendSequence(u8x8, u8x8_d_sbn1661_powersave1_seq);
 178:/Users/imashio/Electronics/ARM/_Library/u8x8_d_sbn1661.c **** 	u8x8->cad_cb(u8x8, U8X8_MSG_CAD_END_TRANSFER, 1, NULL);
 179:/Users/imashio/Electronics/ARM/_Library/u8x8_d_sbn1661.c **** 	
 180:/Users/imashio/Electronics/ARM/_Library/u8x8_d_sbn1661.c ****       }
 181:/Users/imashio/Electronics/ARM/_Library/u8x8_d_sbn1661.c ****       break;
 182:/Users/imashio/Electronics/ARM/_Library/u8x8_d_sbn1661.c ****     case U8X8_MSG_DISPLAY_DRAW_TILE:
 183:/Users/imashio/Electronics/ARM/_Library/u8x8_d_sbn1661.c **** 
 184:/Users/imashio/Electronics/ARM/_Library/u8x8_d_sbn1661.c ****       ptr = ((u8x8_tile_t *)arg_ptr)->tile_ptr;
 185:/Users/imashio/Electronics/ARM/_Library/u8x8_d_sbn1661.c ****       // x and c are ignored (u8g2 only)
 186:/Users/imashio/Electronics/ARM/_Library/u8x8_d_sbn1661.c ****       //x = ((u8x8_tile_t *)arg_ptr)->x_pos;
 187:/Users/imashio/Electronics/ARM/_Library/u8x8_d_sbn1661.c ****       //c = ((u8x8_tile_t *)arg_ptr)->cnt;
 188:/Users/imashio/Electronics/ARM/_Library/u8x8_d_sbn1661.c ****       
 189:/Users/imashio/Electronics/ARM/_Library/u8x8_d_sbn1661.c ****       u8x8->cad_cb(u8x8, U8X8_MSG_CAD_START_TRANSFER, 0, NULL);
  65              		.loc 1 189 0
  66 001a 0023     		movs	r3, #0
  67 001c 1A46     		mov	r2, r3
  68              	.LVL3:
  69 001e C768     		ldr	r7, [r0, #12]
 184:/Users/imashio/Electronics/ARM/_Library/u8x8_d_sbn1661.c ****       // x and c are ignored (u8g2 only)
  70              		.loc 1 184 0
  71 0020 3568     		ldr	r5, [r6]
  72              	.LVL4:
  73              		.loc 1 189 0
  74 0022 1821     		movs	r1, #24
  75 0024 B847     		blx	r7
  76              	.LVL5:
 190:/Users/imashio/Electronics/ARM/_Library/u8x8_d_sbn1661.c ****       u8x8_cad_SendCmd(u8x8, 0x000 | 0);		// column 0
  77              		.loc 1 190 0
  78 0026 0021     		movs	r1, #0
  79 0028 2046     		mov	r0, r4
  80 002a FFF7FEFF 		bl	u8x8_cad_SendCmd
  81              	.LVL6:
 191:/Users/imashio/Electronics/ARM/_Library/u8x8_d_sbn1661.c ****       u8x8_cad_SendCmd(u8x8, 0x0b8 | (((u8x8_tile_t *)arg_ptr)->y_pos));
  82              		.loc 1 191 0
  83 002e B179     		ldrb	r1, [r6, #6]	@ zero_extendqisi2
  84 0030 2046     		mov	r0, r4
  85 0032 41F0B801 		orr	r1, r1, #184
  86 0036 FFF7FEFF 		bl	u8x8_cad_SendCmd
  87              	.LVL7:
 192:/Users/imashio/Electronics/ARM/_Library/u8x8_d_sbn1661.c ****       u8x8_cad_SendData(u8x8, 61, ptr);	/* note: SendData can not handle more than 255 bytes */    
  88              		.loc 1 192 0
  89 003a 2A46     		mov	r2, r5
  90 003c 3D21     		movs	r1, #61
  91 003e 2046     		mov	r0, r4
ARM GAS  /var/folders/v3/wysfpd052nz8jkbx04pk0ym80000gn/T//cce5CbyR.s 			page 6


  92 0040 FFF7FEFF 		bl	u8x8_cad_SendData
  93              	.LVL8:
 193:/Users/imashio/Electronics/ARM/_Library/u8x8_d_sbn1661.c ****       u8x8->cad_cb(u8x8, U8X8_MSG_CAD_END_TRANSFER, 0, NULL);
  94              		.loc 1 193 0
  95 0044 0023     		movs	r3, #0
  96 0046 1A46     		mov	r2, r3
  97 0048 E768     		ldr	r7, [r4, #12]
  98 004a 1921     		movs	r1, #25
  99 004c 2046     		mov	r0, r4
 100 004e B847     		blx	r7
 101              	.LVL9:
 194:/Users/imashio/Electronics/ARM/_Library/u8x8_d_sbn1661.c **** 
 195:/Users/imashio/Electronics/ARM/_Library/u8x8_d_sbn1661.c ****       ptr += 61;
 196:/Users/imashio/Electronics/ARM/_Library/u8x8_d_sbn1661.c ****       
 197:/Users/imashio/Electronics/ARM/_Library/u8x8_d_sbn1661.c ****       u8x8->cad_cb(u8x8, U8X8_MSG_CAD_START_TRANSFER, 1, NULL);
 102              		.loc 1 197 0
 103 0050 0122     		movs	r2, #1
 104 0052 0023     		movs	r3, #0
 105 0054 1821     		movs	r1, #24
 106 0056 E768     		ldr	r7, [r4, #12]
 107 0058 2046     		mov	r0, r4
 108 005a B847     		blx	r7
 109              	.LVL10:
 198:/Users/imashio/Electronics/ARM/_Library/u8x8_d_sbn1661.c ****       u8x8_cad_SendCmd(u8x8, 0x000 | 0);		// column 0
 110              		.loc 1 198 0
 111 005c 0021     		movs	r1, #0
 112 005e 2046     		mov	r0, r4
 113 0060 FFF7FEFF 		bl	u8x8_cad_SendCmd
 114              	.LVL11:
 199:/Users/imashio/Electronics/ARM/_Library/u8x8_d_sbn1661.c ****       u8x8_cad_SendCmd(u8x8, 0x0b8 | (((u8x8_tile_t *)arg_ptr)->y_pos));
 115              		.loc 1 199 0
 116 0064 B179     		ldrb	r1, [r6, #6]	@ zero_extendqisi2
 117 0066 2046     		mov	r0, r4
 118 0068 41F0B801 		orr	r1, r1, #184
 119 006c FFF7FEFF 		bl	u8x8_cad_SendCmd
 120              	.LVL12:
 200:/Users/imashio/Electronics/ARM/_Library/u8x8_d_sbn1661.c ****     
 201:/Users/imashio/Electronics/ARM/_Library/u8x8_d_sbn1661.c ****       u8x8_cad_SendData(u8x8, 61, ptr);	/* note: SendData can not handle more than 255 bytes */    
 121              		.loc 1 201 0
 122 0070 05F13D02 		add	r2, r5, #61
 123              	.LVL13:
 124 0074 3D21     		movs	r1, #61
 125 0076 2046     		mov	r0, r4
 126 0078 FFF7FEFF 		bl	u8x8_cad_SendData
 127              	.LVL14:
 128              	.L11:
 202:/Users/imashio/Electronics/ARM/_Library/u8x8_d_sbn1661.c ****       u8x8->cad_cb(u8x8, U8X8_MSG_CAD_END_TRANSFER, 1, NULL);
 129              		.loc 1 202 0
 130 007c E568     		ldr	r5, [r4, #12]
 131 007e 2046     		mov	r0, r4
 132 0080 0023     		movs	r3, #0
 133 0082 0122     		movs	r2, #1
 134 0084 1921     		movs	r1, #25
 135 0086 A847     		blx	r5
 136              	.LVL15:
 203:/Users/imashio/Electronics/ARM/_Library/u8x8_d_sbn1661.c ****     
 204:/Users/imashio/Electronics/ARM/_Library/u8x8_d_sbn1661.c ****       break;
ARM GAS  /var/folders/v3/wysfpd052nz8jkbx04pk0ym80000gn/T//cce5CbyR.s 			page 7


 205:/Users/imashio/Electronics/ARM/_Library/u8x8_d_sbn1661.c ****     default:
 206:/Users/imashio/Electronics/ARM/_Library/u8x8_d_sbn1661.c ****       return 0;
 207:/Users/imashio/Electronics/ARM/_Library/u8x8_d_sbn1661.c ****   }
 208:/Users/imashio/Electronics/ARM/_Library/u8x8_d_sbn1661.c ****   return 1;
 137              		.loc 1 208 0
 138 0088 0120     		movs	r0, #1
 209:/Users/imashio/Electronics/ARM/_Library/u8x8_d_sbn1661.c **** }
 139              		.loc 1 209 0
 140 008a F8BD     		pop	{r3, r4, r5, r6, r7, pc}
 141              	.LVL16:
 142              	.L6:
 143 008c 1546     		mov	r5, r2
 144 008e C668     		ldr	r6, [r0, #12]
 145              	.LVL17:
 160:/Users/imashio/Electronics/ARM/_Library/u8x8_d_sbn1661.c ****       {
 146              		.loc 1 160 0
 147 0090 002A     		cmp	r2, #0
 148 0092 42D1     		bne	.L8
 162:/Users/imashio/Electronics/ARM/_Library/u8x8_d_sbn1661.c **** 	u8x8_cad_SendSequence(u8x8, u8x8_d_sbn1661_powersave0_seq);
 149              		.loc 1 162 0
 150 0094 1346     		mov	r3, r2
 151 0096 1821     		movs	r1, #24
 152 0098 B047     		blx	r6
 153              	.LVL18:
 163:/Users/imashio/Electronics/ARM/_Library/u8x8_d_sbn1661.c **** 	u8x8->cad_cb(u8x8, U8X8_MSG_CAD_END_TRANSFER, 0, NULL);
 154              		.loc 1 163 0
 155 009a 2046     		mov	r0, r4
 156 009c 2B49     		ldr	r1, .L13
 157 009e FFF7FEFF 		bl	u8x8_cad_SendSequence
 158              	.LVL19:
 164:/Users/imashio/Electronics/ARM/_Library/u8x8_d_sbn1661.c **** 
 159              		.loc 1 164 0
 160 00a2 E668     		ldr	r6, [r4, #12]
 161 00a4 2B46     		mov	r3, r5
 162 00a6 2A46     		mov	r2, r5
 163 00a8 1921     		movs	r1, #25
 164 00aa 2046     		mov	r0, r4
 165 00ac B047     		blx	r6
 166              	.LVL20:
 166:/Users/imashio/Electronics/ARM/_Library/u8x8_d_sbn1661.c **** 	u8x8_cad_SendSequence(u8x8, u8x8_d_sbn1661_powersave0_seq);
 167              		.loc 1 166 0
 168 00ae 2B46     		mov	r3, r5
 169 00b0 0122     		movs	r2, #1
 170 00b2 E668     		ldr	r6, [r4, #12]
 171 00b4 1821     		movs	r1, #24
 172 00b6 2046     		mov	r0, r4
 173 00b8 B047     		blx	r6
 174              	.LVL21:
 167:/Users/imashio/Electronics/ARM/_Library/u8x8_d_sbn1661.c **** 	u8x8->cad_cb(u8x8, U8X8_MSG_CAD_END_TRANSFER, 1, NULL);	
 175              		.loc 1 167 0
 176 00ba 2046     		mov	r0, r4
 177 00bc 2349     		ldr	r1, .L13
 178 00be FFF7FEFF 		bl	u8x8_cad_SendSequence
 179              	.LVL22:
 168:/Users/imashio/Electronics/ARM/_Library/u8x8_d_sbn1661.c ****       }
 180              		.loc 1 168 0
 181 00c2 2B46     		mov	r3, r5
ARM GAS  /var/folders/v3/wysfpd052nz8jkbx04pk0ym80000gn/T//cce5CbyR.s 			page 8


 182 00c4 2046     		mov	r0, r4
 183 00c6 E568     		ldr	r5, [r4, #12]
 184 00c8 0122     		movs	r2, #1
 185 00ca 1921     		movs	r1, #25
 186 00cc A847     		blx	r5
 187              	.LVL23:
 208:/Users/imashio/Electronics/ARM/_Library/u8x8_d_sbn1661.c **** }
 188              		.loc 1 208 0
 189 00ce 0120     		movs	r0, #1
 190              		.loc 1 209 0
 191 00d0 F8BD     		pop	{r3, r4, r5, r6, r7, pc}
 192              	.LVL24:
 193              	.L5:
 148:/Users/imashio/Electronics/ARM/_Library/u8x8_d_sbn1661.c ****     
 194              		.loc 1 148 0
 195 00d2 FFF7FEFF 		bl	u8x8_d_helper_display_init
 196              	.LVL25:
 150:/Users/imashio/Electronics/ARM/_Library/u8x8_d_sbn1661.c ****       u8x8_cad_SendSequence(u8x8, u8x8_d_sbn1661_init_seq);
 197              		.loc 1 150 0
 198 00d6 0023     		movs	r3, #0
 199 00d8 1A46     		mov	r2, r3
 200 00da E568     		ldr	r5, [r4, #12]
 201 00dc 1821     		movs	r1, #24
 202 00de 2046     		mov	r0, r4
 203 00e0 A847     		blx	r5
 204              	.LVL26:
 151:/Users/imashio/Electronics/ARM/_Library/u8x8_d_sbn1661.c ****       u8x8->cad_cb(u8x8, U8X8_MSG_CAD_END_TRANSFER, 0, NULL);
 205              		.loc 1 151 0
 206 00e2 2046     		mov	r0, r4
 207 00e4 1A49     		ldr	r1, .L13+4
 208 00e6 FFF7FEFF 		bl	u8x8_cad_SendSequence
 209              	.LVL27:
 152:/Users/imashio/Electronics/ARM/_Library/u8x8_d_sbn1661.c ****     
 210              		.loc 1 152 0
 211 00ea 0023     		movs	r3, #0
 212 00ec 1A46     		mov	r2, r3
 213 00ee E568     		ldr	r5, [r4, #12]
 214 00f0 1921     		movs	r1, #25
 215 00f2 2046     		mov	r0, r4
 216 00f4 A847     		blx	r5
 217              	.LVL28:
 154:/Users/imashio/Electronics/ARM/_Library/u8x8_d_sbn1661.c ****       u8x8_cad_SendSequence(u8x8, u8x8_d_sbn1661_init_seq);
 218              		.loc 1 154 0
 219 00f6 E568     		ldr	r5, [r4, #12]
 220 00f8 0023     		movs	r3, #0
 221 00fa 0122     		movs	r2, #1
 222 00fc 1821     		movs	r1, #24
 223 00fe 2046     		mov	r0, r4
 224 0100 A847     		blx	r5
 225              	.LVL29:
 155:/Users/imashio/Electronics/ARM/_Library/u8x8_d_sbn1661.c ****       u8x8->cad_cb(u8x8, U8X8_MSG_CAD_END_TRANSFER, 1, NULL);
 226              		.loc 1 155 0
 227 0102 1349     		ldr	r1, .L13+4
 228 0104 2046     		mov	r0, r4
 229 0106 FFF7FEFF 		bl	u8x8_cad_SendSequence
 230              	.LVL30:
 231 010a B7E7     		b	.L11
ARM GAS  /var/folders/v3/wysfpd052nz8jkbx04pk0ym80000gn/T//cce5CbyR.s 			page 9


 232              	.LVL31:
 233              	.L3:
 145:/Users/imashio/Electronics/ARM/_Library/u8x8_d_sbn1661.c ****       break;
 234              		.loc 1 145 0
 235 010c 1149     		ldr	r1, .L13+8
 236 010e FFF7FEFF 		bl	u8x8_d_helper_display_setup_memory
 237              	.LVL32:
 208:/Users/imashio/Electronics/ARM/_Library/u8x8_d_sbn1661.c **** }
 238              		.loc 1 208 0
 239 0112 0120     		movs	r0, #1
 240              		.loc 1 209 0
 241 0114 F8BD     		pop	{r3, r4, r5, r6, r7, pc}
 242              	.LVL33:
 243              	.L9:
 206:/Users/imashio/Electronics/ARM/_Library/u8x8_d_sbn1661.c ****   }
 244              		.loc 1 206 0
 245 0116 0020     		movs	r0, #0
 246              	.LVL34:
 247              		.loc 1 209 0
 248 0118 F8BD     		pop	{r3, r4, r5, r6, r7, pc}
 249              	.LVL35:
 250              	.L8:
 172:/Users/imashio/Electronics/ARM/_Library/u8x8_d_sbn1661.c **** 	u8x8_cad_SendSequence(u8x8, u8x8_d_sbn1661_powersave1_seq);
 251              		.loc 1 172 0
 252 011a 0023     		movs	r3, #0
 253 011c 1A46     		mov	r2, r3
 254              	.LVL36:
 255 011e 1821     		movs	r1, #24
 256 0120 B047     		blx	r6
 257              	.LVL37:
 173:/Users/imashio/Electronics/ARM/_Library/u8x8_d_sbn1661.c **** 	u8x8->cad_cb(u8x8, U8X8_MSG_CAD_END_TRANSFER, 0, NULL);
 258              		.loc 1 173 0
 259 0122 2046     		mov	r0, r4
 260 0124 0C49     		ldr	r1, .L13+12
 261 0126 FFF7FEFF 		bl	u8x8_cad_SendSequence
 262              	.LVL38:
 174:/Users/imashio/Electronics/ARM/_Library/u8x8_d_sbn1661.c **** 	
 263              		.loc 1 174 0
 264 012a 0023     		movs	r3, #0
 265 012c 1A46     		mov	r2, r3
 266 012e E568     		ldr	r5, [r4, #12]
 267 0130 1921     		movs	r1, #25
 268 0132 2046     		mov	r0, r4
 269 0134 A847     		blx	r5
 270              	.LVL39:
 176:/Users/imashio/Electronics/ARM/_Library/u8x8_d_sbn1661.c **** 	u8x8_cad_SendSequence(u8x8, u8x8_d_sbn1661_powersave1_seq);
 271              		.loc 1 176 0
 272 0136 E568     		ldr	r5, [r4, #12]
 273 0138 0023     		movs	r3, #0
 274 013a 0122     		movs	r2, #1
 275 013c 1821     		movs	r1, #24
 276 013e 2046     		mov	r0, r4
 277 0140 A847     		blx	r5
 278              	.LVL40:
 177:/Users/imashio/Electronics/ARM/_Library/u8x8_d_sbn1661.c **** 	u8x8->cad_cb(u8x8, U8X8_MSG_CAD_END_TRANSFER, 1, NULL);
 279              		.loc 1 177 0
 280 0142 0549     		ldr	r1, .L13+12
ARM GAS  /var/folders/v3/wysfpd052nz8jkbx04pk0ym80000gn/T//cce5CbyR.s 			page 10


 281 0144 2046     		mov	r0, r4
 282 0146 FFF7FEFF 		bl	u8x8_cad_SendSequence
 283              	.LVL41:
 284 014a 97E7     		b	.L11
 285              	.L14:
 286              		.align	2
 287              	.L13:
 288 014c 00000000 		.word	.LANCHOR2
 289 0150 00000000 		.word	.LANCHOR1
 290 0154 00000000 		.word	.LANCHOR0
 291 0158 00000000 		.word	.LANCHOR3
 292              		.cfi_endproc
 293              	.LFE1:
 295              		.section	.text.u8x8_d_sed1520_122x32,"ax",%progbits
 296              		.align	1
 297              		.p2align 2,,3
 298              		.global	u8x8_d_sed1520_122x32
 299              		.syntax unified
 300              		.thumb
 301              		.thumb_func
 302              		.fpu fpv4-sp-d16
 304              	u8x8_d_sed1520_122x32:
 305              	.LFB2:
 210:/Users/imashio/Electronics/ARM/_Library/u8x8_d_sbn1661.c **** 
 211:/Users/imashio/Electronics/ARM/_Library/u8x8_d_sbn1661.c **** uint8_t u8x8_d_sed1520_122x32(u8x8_t *u8x8, uint8_t msg, uint8_t arg_int, void *arg_ptr)
 212:/Users/imashio/Electronics/ARM/_Library/u8x8_d_sbn1661.c **** {
 306              		.loc 1 212 0
 307              		.cfi_startproc
 308              		@ args = 0, pretend = 0, frame = 0
 309              		@ frame_needed = 0, uses_anonymous_args = 0
 310              		@ link register save eliminated.
 311              	.LVL42:
 213:/Users/imashio/Electronics/ARM/_Library/u8x8_d_sbn1661.c ****   return u8x8_d_sbn1661_122x32(u8x8, msg, arg_int, arg_ptr);
 312              		.loc 1 213 0
 313 0000 FFF7FEBF 		b	u8x8_d_sbn1661_122x32
 314              	.LVL43:
 315              		.cfi_endproc
 316              	.LFE2:
 318              		.section	.rodata.u8x8_d_sbn1661_init_seq,"a",%progbits
 319              		.align	2
 320              		.set	.LANCHOR1,. + 0
 323              	u8x8_d_sbn1661_init_seq:
 324 0000 15       		.byte	21
 325 0001 C0       		.byte	-64
 326 0002 15       		.byte	21
 327 0003 A0       		.byte	-96
 328 0004 15       		.byte	21
 329 0005 A4       		.byte	-92
 330 0006 15       		.byte	21
 331 0007 A9       		.byte	-87
 332 0008 FF       		.byte	-1
 333              		.section	.rodata.u8x8_d_sbn1661_powersave0_seq,"a",%progbits
 334              		.align	2
 335              		.set	.LANCHOR2,. + 0
 338              	u8x8_d_sbn1661_powersave0_seq:
 339 0000 15       		.byte	21
 340 0001 AF       		.byte	-81
ARM GAS  /var/folders/v3/wysfpd052nz8jkbx04pk0ym80000gn/T//cce5CbyR.s 			page 11


 341 0002 FF       		.byte	-1
 342              		.section	.rodata.u8x8_d_sbn1661_powersave1_seq,"a",%progbits
 343              		.align	2
 344              		.set	.LANCHOR3,. + 0
 347              	u8x8_d_sbn1661_powersave1_seq:
 348 0000 15       		.byte	21
 349 0001 AE       		.byte	-82
 350 0002 FF       		.byte	-1
 351              		.section	.rodata.u8x8_sbn1661_122x32_display_info,"a",%progbits
 352              		.align	2
 353              		.set	.LANCHOR0,. + 0
 356              	u8x8_sbn1661_122x32_display_info:
 357 0000 00       		.byte	0
 358 0001 01       		.byte	1
 359 0002 64       		.byte	100
 360 0003 14       		.byte	20
 361 0004 01       		.byte	1
 362 0005 06       		.byte	6
 363 0006 0C       		.byte	12
 364 0007 4B       		.byte	75
 365 0008 00093D00 		.word	4000000
 366 000c 00       		.byte	0
 367 000d 04       		.byte	4
 368 000e C8       		.byte	-56
 369 000f C8       		.byte	-56
 370 0010 10       		.byte	16
 371 0011 04       		.byte	4
 372 0012 00       		.byte	0
 373 0013 00       		.byte	0
 374 0014 7A00     		.short	122
 375 0016 2000     		.short	32
 376              		.text
 377              	.Letext0:
 378              		.file 2 "/usr/local/gcc-arm-none-eabi-7-2018-q2-update/arm-none-eabi/include/machine/_default_type
 379              		.file 3 "/usr/local/gcc-arm-none-eabi-7-2018-q2-update/arm-none-eabi/include/sys/_stdint.h"
 380              		.file 4 "/Users/imashio/Electronics/ARM/_Library/u8x8.h"
ARM GAS  /var/folders/v3/wysfpd052nz8jkbx04pk0ym80000gn/T//cce5CbyR.s 			page 12


DEFINED SYMBOLS
                            *ABS*:0000000000000000 u8x8_d_sbn1661.c
/var/folders/v3/wysfpd052nz8jkbx04pk0ym80000gn/T//cce5CbyR.s:18     .text.u8x8_d_sbn1661_122x32:0000000000000000 $t
/var/folders/v3/wysfpd052nz8jkbx04pk0ym80000gn/T//cce5CbyR.s:26     .text.u8x8_d_sbn1661_122x32:0000000000000000 u8x8_d_sbn1661_122x32
/var/folders/v3/wysfpd052nz8jkbx04pk0ym80000gn/T//cce5CbyR.s:56     .text.u8x8_d_sbn1661_122x32:0000000000000012 $d
/var/folders/v3/wysfpd052nz8jkbx04pk0ym80000gn/T//cce5CbyR.s:288    .text.u8x8_d_sbn1661_122x32:000000000000014c $d
/var/folders/v3/wysfpd052nz8jkbx04pk0ym80000gn/T//cce5CbyR.s:296    .text.u8x8_d_sed1520_122x32:0000000000000000 $t
/var/folders/v3/wysfpd052nz8jkbx04pk0ym80000gn/T//cce5CbyR.s:304    .text.u8x8_d_sed1520_122x32:0000000000000000 u8x8_d_sed1520_122x32
/var/folders/v3/wysfpd052nz8jkbx04pk0ym80000gn/T//cce5CbyR.s:319    .rodata.u8x8_d_sbn1661_init_seq:0000000000000000 $d
/var/folders/v3/wysfpd052nz8jkbx04pk0ym80000gn/T//cce5CbyR.s:323    .rodata.u8x8_d_sbn1661_init_seq:0000000000000000 u8x8_d_sbn1661_init_seq
/var/folders/v3/wysfpd052nz8jkbx04pk0ym80000gn/T//cce5CbyR.s:334    .rodata.u8x8_d_sbn1661_powersave0_seq:0000000000000000 $d
/var/folders/v3/wysfpd052nz8jkbx04pk0ym80000gn/T//cce5CbyR.s:338    .rodata.u8x8_d_sbn1661_powersave0_seq:0000000000000000 u8x8_d_sbn1661_powersave0_seq
/var/folders/v3/wysfpd052nz8jkbx04pk0ym80000gn/T//cce5CbyR.s:343    .rodata.u8x8_d_sbn1661_powersave1_seq:0000000000000000 $d
/var/folders/v3/wysfpd052nz8jkbx04pk0ym80000gn/T//cce5CbyR.s:347    .rodata.u8x8_d_sbn1661_powersave1_seq:0000000000000000 u8x8_d_sbn1661_powersave1_seq
/var/folders/v3/wysfpd052nz8jkbx04pk0ym80000gn/T//cce5CbyR.s:352    .rodata.u8x8_sbn1661_122x32_display_info:0000000000000000 $d
/var/folders/v3/wysfpd052nz8jkbx04pk0ym80000gn/T//cce5CbyR.s:356    .rodata.u8x8_sbn1661_122x32_display_info:0000000000000000 u8x8_sbn1661_122x32_display_info
/var/folders/v3/wysfpd052nz8jkbx04pk0ym80000gn/T//cce5CbyR.s:63     .text.u8x8_d_sbn1661_122x32:0000000000000019 $d
/var/folders/v3/wysfpd052nz8jkbx04pk0ym80000gn/T//cce5CbyR.s:63     .text.u8x8_d_sbn1661_122x32:000000000000001a $t

UNDEFINED SYMBOLS
u8x8_cad_SendCmd
u8x8_cad_SendData
u8x8_cad_SendSequence
u8x8_d_helper_display_init
u8x8_d_helper_display_setup_memory
