ARM GAS  /var/folders/v3/wysfpd052nz8jkbx04pk0ym80000gn/T//cc1dWwh0.s 			page 1


   1              		.cpu cortex-m4
   2              		.eabi_attribute 27, 1
   3              		.eabi_attribute 28, 1
   4              		.eabi_attribute 20, 1
   5              		.eabi_attribute 21, 1
   6              		.eabi_attribute 23, 3
   7              		.eabi_attribute 24, 1
   8              		.eabi_attribute 25, 1
   9              		.eabi_attribute 26, 1
  10              		.eabi_attribute 30, 2
  11              		.eabi_attribute 34, 1
  12              		.eabi_attribute 18, 4
  13              		.file	"u8x8_debounce.c"
  14              		.text
  15              	.Ltext0:
  16              		.cfi_sections	.debug_frame
  17              		.section	.text.u8x8_GetMenuEvent,"ax",%progbits
  18              		.align	1
  19              		.p2align 2,,3
  20              		.weak	u8x8_GetMenuEvent
  21              		.syntax unified
  22              		.thumb
  23              		.thumb_func
  24              		.fpu fpv4-sp-d16
  26              	u8x8_GetMenuEvent:
  27              	.LFB2:
  28              		.file 1 "/Users/imashio/Electronics/ARM/_Library/u8x8_debounce.c"
   1:/Users/imashio/Electronics/ARM/_Library/u8x8_debounce.c **** /*
   2:/Users/imashio/Electronics/ARM/_Library/u8x8_debounce.c **** 
   3:/Users/imashio/Electronics/ARM/_Library/u8x8_debounce.c ****   u8x8_debounce.c
   4:/Users/imashio/Electronics/ARM/_Library/u8x8_debounce.c ****   
   5:/Users/imashio/Electronics/ARM/_Library/u8x8_debounce.c ****   Key/button simple debounce algorithm (Addon for u8x8)
   6:/Users/imashio/Electronics/ARM/_Library/u8x8_debounce.c ****   
   7:/Users/imashio/Electronics/ARM/_Library/u8x8_debounce.c ****   Universal 8bit Graphics Library (https://github.com/olikraus/u8g2/)
   8:/Users/imashio/Electronics/ARM/_Library/u8x8_debounce.c **** 
   9:/Users/imashio/Electronics/ARM/_Library/u8x8_debounce.c ****   Copyright (c) 2016, olikraus@gmail.com
  10:/Users/imashio/Electronics/ARM/_Library/u8x8_debounce.c ****   All rights reserved.
  11:/Users/imashio/Electronics/ARM/_Library/u8x8_debounce.c **** 
  12:/Users/imashio/Electronics/ARM/_Library/u8x8_debounce.c ****   Redistribution and use in source and binary forms, with or without modification, 
  13:/Users/imashio/Electronics/ARM/_Library/u8x8_debounce.c ****   are permitted provided that the following conditions are met:
  14:/Users/imashio/Electronics/ARM/_Library/u8x8_debounce.c **** 
  15:/Users/imashio/Electronics/ARM/_Library/u8x8_debounce.c ****   * Redistributions of source code must retain the above copyright notice, this list 
  16:/Users/imashio/Electronics/ARM/_Library/u8x8_debounce.c ****     of conditions and the following disclaimer.
  17:/Users/imashio/Electronics/ARM/_Library/u8x8_debounce.c ****     
  18:/Users/imashio/Electronics/ARM/_Library/u8x8_debounce.c ****   * Redistributions in binary form must reproduce the above copyright notice, this 
  19:/Users/imashio/Electronics/ARM/_Library/u8x8_debounce.c ****     list of conditions and the following disclaimer in the documentation and/or other 
  20:/Users/imashio/Electronics/ARM/_Library/u8x8_debounce.c ****     materials provided with the distribution.
  21:/Users/imashio/Electronics/ARM/_Library/u8x8_debounce.c **** 
  22:/Users/imashio/Electronics/ARM/_Library/u8x8_debounce.c ****   THIS SOFTWARE IS PROVIDED BY THE COPYRIGHT HOLDERS AND 
  23:/Users/imashio/Electronics/ARM/_Library/u8x8_debounce.c ****   CONTRIBUTORS "AS IS" AND ANY EXPRESS OR IMPLIED WARRANTIES, 
  24:/Users/imashio/Electronics/ARM/_Library/u8x8_debounce.c ****   INCLUDING, BUT NOT LIMITED TO, THE IMPLIED WARRANTIES OF 
  25:/Users/imashio/Electronics/ARM/_Library/u8x8_debounce.c ****   MERCHANTABILITY AND FITNESS FOR A PARTICULAR PURPOSE ARE 
  26:/Users/imashio/Electronics/ARM/_Library/u8x8_debounce.c ****   DISCLAIMED. IN NO EVENT SHALL THE COPYRIGHT HOLDER OR 
  27:/Users/imashio/Electronics/ARM/_Library/u8x8_debounce.c ****   CONTRIBUTORS BE LIABLE FOR ANY DIRECT, INDIRECT, INCIDENTAL, 
  28:/Users/imashio/Electronics/ARM/_Library/u8x8_debounce.c ****   SPECIAL, EXEMPLARY, OR CONSEQUENTIAL DAMAGES (INCLUDING, BUT 
  29:/Users/imashio/Electronics/ARM/_Library/u8x8_debounce.c ****   NOT LIMITED TO, PROCUREMENT OF SUBSTITUTE GOODS OR SERVICES; 
  30:/Users/imashio/Electronics/ARM/_Library/u8x8_debounce.c ****   LOSS OF USE, DATA, OR PROFITS; OR BUSINESS INTERRUPTION) HOWEVER 
ARM GAS  /var/folders/v3/wysfpd052nz8jkbx04pk0ym80000gn/T//cc1dWwh0.s 			page 2


  31:/Users/imashio/Electronics/ARM/_Library/u8x8_debounce.c ****   CAUSED AND ON ANY THEORY OF LIABILITY, WHETHER IN CONTRACT, 
  32:/Users/imashio/Electronics/ARM/_Library/u8x8_debounce.c ****   STRICT LIABILITY, OR TORT (INCLUDING NEGLIGENCE OR OTHERWISE) 
  33:/Users/imashio/Electronics/ARM/_Library/u8x8_debounce.c ****   ARISING IN ANY WAY OUT OF THE USE OF THIS SOFTWARE, EVEN IF 
  34:/Users/imashio/Electronics/ARM/_Library/u8x8_debounce.c ****   ADVISED OF THE POSSIBILITY OF SUCH DAMAGE.  
  35:/Users/imashio/Electronics/ARM/_Library/u8x8_debounce.c ****   
  36:/Users/imashio/Electronics/ARM/_Library/u8x8_debounce.c **** */
  37:/Users/imashio/Electronics/ARM/_Library/u8x8_debounce.c **** 
  38:/Users/imashio/Electronics/ARM/_Library/u8x8_debounce.c **** #include "u8x8.h"
  39:/Users/imashio/Electronics/ARM/_Library/u8x8_debounce.c **** 
  40:/Users/imashio/Electronics/ARM/_Library/u8x8_debounce.c **** static uint8_t u8x8_read_pin_state(u8x8_t *u8x8)
  41:/Users/imashio/Electronics/ARM/_Library/u8x8_debounce.c **** {
  42:/Users/imashio/Electronics/ARM/_Library/u8x8_debounce.c ****   uint8_t i;
  43:/Users/imashio/Electronics/ARM/_Library/u8x8_debounce.c ****   uint8_t pin_state;
  44:/Users/imashio/Electronics/ARM/_Library/u8x8_debounce.c ****   
  45:/Users/imashio/Electronics/ARM/_Library/u8x8_debounce.c ****   pin_state = 255;	/* be compatible with the setup of the default pin setup, which is 255 */
  46:/Users/imashio/Electronics/ARM/_Library/u8x8_debounce.c ****   for( i = 0; i < U8X8_PIN_INPUT_CNT; i++ )
  47:/Users/imashio/Electronics/ARM/_Library/u8x8_debounce.c ****   {
  48:/Users/imashio/Electronics/ARM/_Library/u8x8_debounce.c ****     pin_state <<= 1;
  49:/Users/imashio/Electronics/ARM/_Library/u8x8_debounce.c ****     
  50:/Users/imashio/Electronics/ARM/_Library/u8x8_debounce.c ****     /* the callback function should put the return value into this variable */
  51:/Users/imashio/Electronics/ARM/_Library/u8x8_debounce.c ****     u8x8->gpio_result = 1;
  52:/Users/imashio/Electronics/ARM/_Library/u8x8_debounce.c ****     u8x8_gpio_call(u8x8, U8X8_MSG_GPIO(i+U8X8_PIN_OUTPUT_CNT), 0);
  53:/Users/imashio/Electronics/ARM/_Library/u8x8_debounce.c ****     pin_state |= u8x8->gpio_result & 1;
  54:/Users/imashio/Electronics/ARM/_Library/u8x8_debounce.c ****   }
  55:/Users/imashio/Electronics/ARM/_Library/u8x8_debounce.c ****   
  56:/Users/imashio/Electronics/ARM/_Library/u8x8_debounce.c ****   return pin_state;
  57:/Users/imashio/Electronics/ARM/_Library/u8x8_debounce.c **** }
  58:/Users/imashio/Electronics/ARM/_Library/u8x8_debounce.c **** 
  59:/Users/imashio/Electronics/ARM/_Library/u8x8_debounce.c **** /*
  60:/Users/imashio/Electronics/ARM/_Library/u8x8_debounce.c ****   return 0 to U8X8_PIN_INPUT_CNT-1 if there is a difference
  61:/Users/imashio/Electronics/ARM/_Library/u8x8_debounce.c ****   return U8X8_PIN_INPUT_CNT if there is no difference
  62:/Users/imashio/Electronics/ARM/_Library/u8x8_debounce.c **** */
  63:/Users/imashio/Electronics/ARM/_Library/u8x8_debounce.c **** static uint8_t u8x8_find_first_diff(uint8_t a, uint8_t b)
  64:/Users/imashio/Electronics/ARM/_Library/u8x8_debounce.c **** {
  65:/Users/imashio/Electronics/ARM/_Library/u8x8_debounce.c ****   uint8_t mask;
  66:/Users/imashio/Electronics/ARM/_Library/u8x8_debounce.c ****   uint8_t i;
  67:/Users/imashio/Electronics/ARM/_Library/u8x8_debounce.c ****   mask = 1;
  68:/Users/imashio/Electronics/ARM/_Library/u8x8_debounce.c ****   i = U8X8_PIN_INPUT_CNT;
  69:/Users/imashio/Electronics/ARM/_Library/u8x8_debounce.c ****   do
  70:/Users/imashio/Electronics/ARM/_Library/u8x8_debounce.c ****   {
  71:/Users/imashio/Electronics/ARM/_Library/u8x8_debounce.c ****     i--;
  72:/Users/imashio/Electronics/ARM/_Library/u8x8_debounce.c ****     if ( (a & mask) != (b & mask) )
  73:/Users/imashio/Electronics/ARM/_Library/u8x8_debounce.c ****       return i;
  74:/Users/imashio/Electronics/ARM/_Library/u8x8_debounce.c ****     mask <<= 1;
  75:/Users/imashio/Electronics/ARM/_Library/u8x8_debounce.c ****   } while( i > 0 );
  76:/Users/imashio/Electronics/ARM/_Library/u8x8_debounce.c ****   return U8X8_PIN_INPUT_CNT;
  77:/Users/imashio/Electronics/ARM/_Library/u8x8_debounce.c **** }
  78:/Users/imashio/Electronics/ARM/_Library/u8x8_debounce.c **** 
  79:/Users/imashio/Electronics/ARM/_Library/u8x8_debounce.c **** /*
  80:/Users/imashio/Electronics/ARM/_Library/u8x8_debounce.c ****   State A:
  81:/Users/imashio/Electronics/ARM/_Library/u8x8_debounce.c ****     u8x8->debounce_last_pin_state == current_state 
  82:/Users/imashio/Electronics/ARM/_Library/u8x8_debounce.c ****       --> State A
  83:/Users/imashio/Electronics/ARM/_Library/u8x8_debounce.c ****     u8x8->debounce_last_pin_state != current_state 
  84:/Users/imashio/Electronics/ARM/_Library/u8x8_debounce.c ****       --> u8x8->debounce_last_pin_state = current_state 
  85:/Users/imashio/Electronics/ARM/_Library/u8x8_debounce.c ****       --> State B + cnt
  86:/Users/imashio/Electronics/ARM/_Library/u8x8_debounce.c **** 
  87:/Users/imashio/Electronics/ARM/_Library/u8x8_debounce.c ****   State B + cnt
ARM GAS  /var/folders/v3/wysfpd052nz8jkbx04pk0ym80000gn/T//cc1dWwh0.s 			page 3


  88:/Users/imashio/Electronics/ARM/_Library/u8x8_debounce.c ****     --> state--
  89:/Users/imashio/Electronics/ARM/_Library/u8x8_debounce.c **** 
  90:/Users/imashio/Electronics/ARM/_Library/u8x8_debounce.c ****   State B
  91:/Users/imashio/Electronics/ARM/_Library/u8x8_debounce.c ****     u8x8->debounce_last_pin_state == current_state 
  92:/Users/imashio/Electronics/ARM/_Library/u8x8_debounce.c ****       --> keypress detected
  93:/Users/imashio/Electronics/ARM/_Library/u8x8_debounce.c ****       --> State C
  94:/Users/imashio/Electronics/ARM/_Library/u8x8_debounce.c ****     u8x8->debounce_last_pin_state != current_state 
  95:/Users/imashio/Electronics/ARM/_Library/u8x8_debounce.c ****       --> State A
  96:/Users/imashio/Electronics/ARM/_Library/u8x8_debounce.c **** 
  97:/Users/imashio/Electronics/ARM/_Library/u8x8_debounce.c ****   State C
  98:/Users/imashio/Electronics/ARM/_Library/u8x8_debounce.c ****     u8x8->debounce_last_pin_state == current_state 
  99:/Users/imashio/Electronics/ARM/_Library/u8x8_debounce.c ****       --> State C
 100:/Users/imashio/Electronics/ARM/_Library/u8x8_debounce.c ****     u8x8->debounce_last_pin_state != current_state 
 101:/Users/imashio/Electronics/ARM/_Library/u8x8_debounce.c ****       --> State A
 102:/Users/imashio/Electronics/ARM/_Library/u8x8_debounce.c **** 
 103:/Users/imashio/Electronics/ARM/_Library/u8x8_debounce.c **** */
 104:/Users/imashio/Electronics/ARM/_Library/u8x8_debounce.c **** 
 105:/Users/imashio/Electronics/ARM/_Library/u8x8_debounce.c **** #ifdef __unix__xxxxxx_THIS_IS_DISABLED
 106:/Users/imashio/Electronics/ARM/_Library/u8x8_debounce.c **** 
 107:/Users/imashio/Electronics/ARM/_Library/u8x8_debounce.c **** #include <stdio.h>
 108:/Users/imashio/Electronics/ARM/_Library/u8x8_debounce.c **** #include <stdlib.h>
 109:/Users/imashio/Electronics/ARM/_Library/u8x8_debounce.c **** uint8_t u8x8_GetMenuEvent(u8x8_t *u8x8)
 110:/Users/imashio/Electronics/ARM/_Library/u8x8_debounce.c **** {
 111:/Users/imashio/Electronics/ARM/_Library/u8x8_debounce.c ****     int c;
 112:/Users/imashio/Electronics/ARM/_Library/u8x8_debounce.c ****     c = getc(stdin);
 113:/Users/imashio/Electronics/ARM/_Library/u8x8_debounce.c ****     switch(c)
 114:/Users/imashio/Electronics/ARM/_Library/u8x8_debounce.c ****     {
 115:/Users/imashio/Electronics/ARM/_Library/u8x8_debounce.c ****         case 'n':
 116:/Users/imashio/Electronics/ARM/_Library/u8x8_debounce.c ****             return  U8X8_MSG_GPIO_MENU_NEXT;
 117:/Users/imashio/Electronics/ARM/_Library/u8x8_debounce.c ****         case 'p':
 118:/Users/imashio/Electronics/ARM/_Library/u8x8_debounce.c ****             return  U8X8_MSG_GPIO_MENU_PREV;
 119:/Users/imashio/Electronics/ARM/_Library/u8x8_debounce.c ****         case 's':
 120:/Users/imashio/Electronics/ARM/_Library/u8x8_debounce.c ****             return  U8X8_MSG_GPIO_MENU_SELECT;
 121:/Users/imashio/Electronics/ARM/_Library/u8x8_debounce.c ****         case 'h':
 122:/Users/imashio/Electronics/ARM/_Library/u8x8_debounce.c ****             return  U8X8_MSG_GPIO_MENU_HOME;
 123:/Users/imashio/Electronics/ARM/_Library/u8x8_debounce.c ****         case 'x':
 124:/Users/imashio/Electronics/ARM/_Library/u8x8_debounce.c ****             exit(0);
 125:/Users/imashio/Electronics/ARM/_Library/u8x8_debounce.c ****         default:
 126:/Users/imashio/Electronics/ARM/_Library/u8x8_debounce.c ****             puts("press n, p, s, h or x");
 127:/Users/imashio/Electronics/ARM/_Library/u8x8_debounce.c ****             break;
 128:/Users/imashio/Electronics/ARM/_Library/u8x8_debounce.c ****     }
 129:/Users/imashio/Electronics/ARM/_Library/u8x8_debounce.c ****     return 0;
 130:/Users/imashio/Electronics/ARM/_Library/u8x8_debounce.c **** }
 131:/Users/imashio/Electronics/ARM/_Library/u8x8_debounce.c **** 
 132:/Users/imashio/Electronics/ARM/_Library/u8x8_debounce.c **** 
 133:/Users/imashio/Electronics/ARM/_Library/u8x8_debounce.c **** #else  /* __unix__ */
 134:/Users/imashio/Electronics/ARM/_Library/u8x8_debounce.c **** 
 135:/Users/imashio/Electronics/ARM/_Library/u8x8_debounce.c **** 
 136:/Users/imashio/Electronics/ARM/_Library/u8x8_debounce.c **** #define U8X8_DEBOUNCE_WAIT 2
 137:/Users/imashio/Electronics/ARM/_Library/u8x8_debounce.c **** /* do debounce and return a GPIO msg which indicates the event */
 138:/Users/imashio/Electronics/ARM/_Library/u8x8_debounce.c **** /* returns 0, if there is no event */
 139:/Users/imashio/Electronics/ARM/_Library/u8x8_debounce.c **** #if defined(__GNUC__) && !defined(__CYGWIN__)
 140:/Users/imashio/Electronics/ARM/_Library/u8x8_debounce.c **** # pragma weak  u8x8_GetMenuEvent
 141:/Users/imashio/Electronics/ARM/_Library/u8x8_debounce.c **** #endif
 142:/Users/imashio/Electronics/ARM/_Library/u8x8_debounce.c **** uint8_t u8x8_GetMenuEvent(u8x8_t *u8x8)
 143:/Users/imashio/Electronics/ARM/_Library/u8x8_debounce.c **** {
  29              		.loc 1 143 0
ARM GAS  /var/folders/v3/wysfpd052nz8jkbx04pk0ym80000gn/T//cc1dWwh0.s 			page 4


  30              		.cfi_startproc
  31              		@ args = 0, pretend = 0, frame = 0
  32              		@ frame_needed = 0, uses_anonymous_args = 0
  33              	.LVL0:
  34 0000 F8B5     		push	{r3, r4, r5, r6, r7, lr}
  35              	.LCFI0:
  36              		.cfi_def_cfa_offset 24
  37              		.cfi_offset 3, -24
  38              		.cfi_offset 4, -20
  39              		.cfi_offset 5, -16
  40              		.cfi_offset 6, -12
  41              		.cfi_offset 7, -8
  42              		.cfi_offset 14, -4
  43              		.loc 1 143 0
  44 0002 0646     		mov	r6, r0
  45              	.LVL1:
  46 0004 5024     		movs	r4, #80
  47              	.LBB8:
  48              	.LBB9:
  45:/Users/imashio/Electronics/ARM/_Library/u8x8_debounce.c ****   for( i = 0; i < U8X8_PIN_INPUT_CNT; i++ )
  49              		.loc 1 45 0
  50 0006 FF25     		movs	r5, #255
  51:/Users/imashio/Electronics/ARM/_Library/u8x8_debounce.c ****     u8x8_gpio_call(u8x8, U8X8_MSG_GPIO(i+U8X8_PIN_OUTPUT_CNT), 0);
  51              		.loc 1 51 0
  52 0008 0127     		movs	r7, #1
  53              	.LVL2:
  54              	.L2:
  52:/Users/imashio/Electronics/ARM/_Library/u8x8_debounce.c ****     pin_state |= u8x8->gpio_result & 1;
  55              		.loc 1 52 0
  56 000a 2146     		mov	r1, r4
  51:/Users/imashio/Electronics/ARM/_Library/u8x8_debounce.c ****     u8x8_gpio_call(u8x8, U8X8_MSG_GPIO(i+U8X8_PIN_OUTPUT_CNT), 0);
  57              		.loc 1 51 0
  58 000c 86F82470 		strb	r7, [r6, #36]
  52:/Users/imashio/Electronics/ARM/_Library/u8x8_debounce.c ****     pin_state |= u8x8->gpio_result & 1;
  59              		.loc 1 52 0
  60 0010 0022     		movs	r2, #0
  61 0012 3046     		mov	r0, r6
  62 0014 FFF7FEFF 		bl	u8x8_gpio_call
  63              	.LVL3:
  53:/Users/imashio/Electronics/ARM/_Library/u8x8_debounce.c ****   }
  64              		.loc 1 53 0
  65 0018 96F82430 		ldrb	r3, [r6, #36]	@ zero_extendqisi2
  66 001c 0134     		adds	r4, r4, #1
  67              	.LVL4:
  68 001e 03F00103 		and	r3, r3, #1
  69 0022 E4B2     		uxtb	r4, r4
  70 0024 43EA4503 		orr	r3, r3, r5, lsl #1
  46:/Users/imashio/Electronics/ARM/_Library/u8x8_debounce.c ****   {
  71              		.loc 1 46 0
  72 0028 562C     		cmp	r4, #86
  53:/Users/imashio/Electronics/ARM/_Library/u8x8_debounce.c ****   }
  73              		.loc 1 53 0
  74 002a DDB2     		uxtb	r5, r3
  75              	.LVL5:
  46:/Users/imashio/Electronics/ARM/_Library/u8x8_debounce.c ****   {
  76              		.loc 1 46 0
  77 002c EDD1     		bne	.L2
ARM GAS  /var/folders/v3/wysfpd052nz8jkbx04pk0ym80000gn/T//cc1dWwh0.s 			page 5


  78              	.LVL6:
  79              	.LBE9:
  80              	.LBE8:
 144:/Users/imashio/Electronics/ARM/_Library/u8x8_debounce.c ****   uint8_t pin_state;
 145:/Users/imashio/Electronics/ARM/_Library/u8x8_debounce.c ****   uint8_t result_msg = 0;	/* invalid message, no event */
 146:/Users/imashio/Electronics/ARM/_Library/u8x8_debounce.c ****   
 147:/Users/imashio/Electronics/ARM/_Library/u8x8_debounce.c ****   pin_state = u8x8_read_pin_state(u8x8);
 148:/Users/imashio/Electronics/ARM/_Library/u8x8_debounce.c ****   
 149:/Users/imashio/Electronics/ARM/_Library/u8x8_debounce.c ****   /* States A, B, C & D are encoded in the upper 4 bit*/
 150:/Users/imashio/Electronics/ARM/_Library/u8x8_debounce.c ****   switch(u8x8->debounce_state)
  81              		.loc 1 150 0
  82 002e 96F82730 		ldrb	r3, [r6, #39]	@ zero_extendqisi2
  83 0032 102B     		cmp	r3, #16
  84 0034 25D0     		beq	.L4
  85 0036 13D9     		bls	.L22
  86 0038 202B     		cmp	r3, #32
  87 003a 08D0     		beq	.L7
  88 003c 302B     		cmp	r3, #48
  89 003e 1AD1     		bne	.L3
 151:/Users/imashio/Electronics/ARM/_Library/u8x8_debounce.c ****   {
 152:/Users/imashio/Electronics/ARM/_Library/u8x8_debounce.c ****     case 0x00:	/* State A, default state */
 153:/Users/imashio/Electronics/ARM/_Library/u8x8_debounce.c ****       if ( u8x8->debounce_default_pin_state != pin_state )
 154:/Users/imashio/Electronics/ARM/_Library/u8x8_debounce.c ****       {
 155:/Users/imashio/Electronics/ARM/_Library/u8x8_debounce.c **** 	//u8x8->debounce_last_pin_state = pin_state;
 156:/Users/imashio/Electronics/ARM/_Library/u8x8_debounce.c **** 	u8x8->debounce_state = 0x010 + U8X8_DEBOUNCE_WAIT;
 157:/Users/imashio/Electronics/ARM/_Library/u8x8_debounce.c ****       }
 158:/Users/imashio/Electronics/ARM/_Library/u8x8_debounce.c ****       break;
 159:/Users/imashio/Electronics/ARM/_Library/u8x8_debounce.c ****     case 0x10:	/* State B */
 160:/Users/imashio/Electronics/ARM/_Library/u8x8_debounce.c ****       //if ( u8x8->debounce_last_pin_state != pin_state )
 161:/Users/imashio/Electronics/ARM/_Library/u8x8_debounce.c ****       if ( u8x8->debounce_default_pin_state == pin_state )
 162:/Users/imashio/Electronics/ARM/_Library/u8x8_debounce.c ****       {
 163:/Users/imashio/Electronics/ARM/_Library/u8x8_debounce.c **** 	u8x8->debounce_state = 0x00;	/* back to state A */
 164:/Users/imashio/Electronics/ARM/_Library/u8x8_debounce.c ****       }
 165:/Users/imashio/Electronics/ARM/_Library/u8x8_debounce.c ****       else
 166:/Users/imashio/Electronics/ARM/_Library/u8x8_debounce.c ****       {
 167:/Users/imashio/Electronics/ARM/_Library/u8x8_debounce.c **** 	/* keypress detected */
 168:/Users/imashio/Electronics/ARM/_Library/u8x8_debounce.c **** 	u8x8->debounce_last_pin_state = pin_state;
 169:/Users/imashio/Electronics/ARM/_Library/u8x8_debounce.c **** 	//result_msg = U8X8_MSG_GPIO_MENU_NEXT;
 170:/Users/imashio/Electronics/ARM/_Library/u8x8_debounce.c **** 	u8x8->debounce_state = 0x020 + U8X8_DEBOUNCE_WAIT;	/* got to state C */	
 171:/Users/imashio/Electronics/ARM/_Library/u8x8_debounce.c ****       }
 172:/Users/imashio/Electronics/ARM/_Library/u8x8_debounce.c ****       break;
 173:/Users/imashio/Electronics/ARM/_Library/u8x8_debounce.c ****       
 174:/Users/imashio/Electronics/ARM/_Library/u8x8_debounce.c ****     case 0x20:	/* State C */
 175:/Users/imashio/Electronics/ARM/_Library/u8x8_debounce.c ****       if ( u8x8->debounce_last_pin_state != pin_state )
 176:/Users/imashio/Electronics/ARM/_Library/u8x8_debounce.c ****       {
 177:/Users/imashio/Electronics/ARM/_Library/u8x8_debounce.c **** 	u8x8->debounce_state = 0x00;	/* back to state A */
 178:/Users/imashio/Electronics/ARM/_Library/u8x8_debounce.c ****       }
 179:/Users/imashio/Electronics/ARM/_Library/u8x8_debounce.c ****       else
 180:/Users/imashio/Electronics/ARM/_Library/u8x8_debounce.c ****       {
 181:/Users/imashio/Electronics/ARM/_Library/u8x8_debounce.c **** 	u8x8->debounce_state = 0x030;	/* got to state D */	
 182:/Users/imashio/Electronics/ARM/_Library/u8x8_debounce.c ****       }
 183:/Users/imashio/Electronics/ARM/_Library/u8x8_debounce.c ****       break;
 184:/Users/imashio/Electronics/ARM/_Library/u8x8_debounce.c ****       
 185:/Users/imashio/Electronics/ARM/_Library/u8x8_debounce.c ****     case 0x30:	/* State D */
 186:/Users/imashio/Electronics/ARM/_Library/u8x8_debounce.c ****       /* wait until key release */
 187:/Users/imashio/Electronics/ARM/_Library/u8x8_debounce.c ****       if ( u8x8->debounce_default_pin_state == pin_state )
  90              		.loc 1 187 0
ARM GAS  /var/folders/v3/wysfpd052nz8jkbx04pk0ym80000gn/T//cc1dWwh0.s 			page 6


  91 0040 96F82530 		ldrb	r3, [r6, #37]	@ zero_extendqisi2
  92 0044 AB42     		cmp	r3, r5
  93 0046 28D0     		beq	.L23
  94              	.L16:
 145:/Users/imashio/Electronics/ARM/_Library/u8x8_debounce.c ****   
  95              		.loc 1 145 0
  96 0048 0024     		movs	r4, #0
  97              	.LVL7:
 188:/Users/imashio/Electronics/ARM/_Library/u8x8_debounce.c ****       {
 189:/Users/imashio/Electronics/ARM/_Library/u8x8_debounce.c **** 	u8x8->debounce_state = 0x00;	/* back to state A */
 190:/Users/imashio/Electronics/ARM/_Library/u8x8_debounce.c **** 	result_msg = U8X8_MSG_GPIO(u8x8_find_first_diff(u8x8->debounce_default_pin_state, u8x8->debounce_l
 191:/Users/imashio/Electronics/ARM/_Library/u8x8_debounce.c ****       }
 192:/Users/imashio/Electronics/ARM/_Library/u8x8_debounce.c ****       else
 193:/Users/imashio/Electronics/ARM/_Library/u8x8_debounce.c ****       {
 194:/Users/imashio/Electronics/ARM/_Library/u8x8_debounce.c **** 	//result_msg = U8X8_MSG_GPIO_MENU_NEXT;
 195:/Users/imashio/Electronics/ARM/_Library/u8x8_debounce.c **** 	// maybe implement autorepeat here 
 196:/Users/imashio/Electronics/ARM/_Library/u8x8_debounce.c ****       }
 197:/Users/imashio/Electronics/ARM/_Library/u8x8_debounce.c ****       break;
 198:/Users/imashio/Electronics/ARM/_Library/u8x8_debounce.c ****     default:
 199:/Users/imashio/Electronics/ARM/_Library/u8x8_debounce.c ****       u8x8->debounce_state--;	/* count down, until there is a valid state */
 200:/Users/imashio/Electronics/ARM/_Library/u8x8_debounce.c ****       break;
 201:/Users/imashio/Electronics/ARM/_Library/u8x8_debounce.c ****   }
 202:/Users/imashio/Electronics/ARM/_Library/u8x8_debounce.c ****   return result_msg;
 203:/Users/imashio/Electronics/ARM/_Library/u8x8_debounce.c **** }
  98              		.loc 1 203 0
  99 004a 2046     		mov	r0, r4
 100 004c F8BD     		pop	{r3, r4, r5, r6, r7, pc}
 101              	.LVL8:
 102              	.L7:
 175:/Users/imashio/Electronics/ARM/_Library/u8x8_debounce.c ****       {
 103              		.loc 1 175 0
 104 004e 96F82630 		ldrb	r3, [r6, #38]	@ zero_extendqisi2
 105 0052 AB42     		cmp	r3, r5
 106 0054 34D0     		beq	.L24
 107              	.L11:
 163:/Users/imashio/Electronics/ARM/_Library/u8x8_debounce.c ****       }
 108              		.loc 1 163 0
 109 0056 0024     		movs	r4, #0
 110 0058 86F82740 		strb	r4, [r6, #39]
 111              	.LVL9:
 112              	.L9:
 113              		.loc 1 203 0
 114 005c 2046     		mov	r0, r4
 115 005e F8BD     		pop	{r3, r4, r5, r6, r7, pc}
 116              	.LVL10:
 117              	.L22:
 150:/Users/imashio/Electronics/ARM/_Library/u8x8_debounce.c ****   {
 118              		.loc 1 150 0
 119 0060 4BB9     		cbnz	r3, .L3
 153:/Users/imashio/Electronics/ARM/_Library/u8x8_debounce.c ****       {
 120              		.loc 1 153 0
 121 0062 96F82520 		ldrb	r2, [r6, #37]	@ zero_extendqisi2
 122 0066 AA42     		cmp	r2, r5
 123 0068 EED0     		beq	.L16
 156:/Users/imashio/Electronics/ARM/_Library/u8x8_debounce.c ****       }
 124              		.loc 1 156 0
 125 006a 1222     		movs	r2, #18
ARM GAS  /var/folders/v3/wysfpd052nz8jkbx04pk0ym80000gn/T//cc1dWwh0.s 			page 7


 145:/Users/imashio/Electronics/ARM/_Library/u8x8_debounce.c ****   
 126              		.loc 1 145 0
 127 006c 1C46     		mov	r4, r3
 156:/Users/imashio/Electronics/ARM/_Library/u8x8_debounce.c ****       }
 128              		.loc 1 156 0
 129 006e 86F82720 		strb	r2, [r6, #39]
 130              	.LVL11:
 131              		.loc 1 203 0
 132 0072 2046     		mov	r0, r4
 133 0074 F8BD     		pop	{r3, r4, r5, r6, r7, pc}
 134              	.LVL12:
 135              	.L3:
 199:/Users/imashio/Electronics/ARM/_Library/u8x8_debounce.c ****       break;
 136              		.loc 1 199 0
 137 0076 013B     		subs	r3, r3, #1
 145:/Users/imashio/Electronics/ARM/_Library/u8x8_debounce.c ****   
 138              		.loc 1 145 0
 139 0078 0024     		movs	r4, #0
 140              	.LVL13:
 199:/Users/imashio/Electronics/ARM/_Library/u8x8_debounce.c ****       break;
 141              		.loc 1 199 0
 142 007a 86F82730 		strb	r3, [r6, #39]
 143              		.loc 1 203 0
 144 007e 2046     		mov	r0, r4
 145 0080 F8BD     		pop	{r3, r4, r5, r6, r7, pc}
 146              	.LVL14:
 147              	.L4:
 161:/Users/imashio/Electronics/ARM/_Library/u8x8_debounce.c ****       {
 148              		.loc 1 161 0
 149 0082 96F82530 		ldrb	r3, [r6, #37]	@ zero_extendqisi2
 150 0086 AB42     		cmp	r3, r5
 151 0088 E5D0     		beq	.L11
 170:/Users/imashio/Electronics/ARM/_Library/u8x8_debounce.c ****       }
 152              		.loc 1 170 0
 153 008a 2223     		movs	r3, #34
 145:/Users/imashio/Electronics/ARM/_Library/u8x8_debounce.c ****   
 154              		.loc 1 145 0
 155 008c 0024     		movs	r4, #0
 156              	.LVL15:
 168:/Users/imashio/Electronics/ARM/_Library/u8x8_debounce.c **** 	//result_msg = U8X8_MSG_GPIO_MENU_NEXT;
 157              		.loc 1 168 0
 158 008e 86F82650 		strb	r5, [r6, #38]
 170:/Users/imashio/Electronics/ARM/_Library/u8x8_debounce.c ****       }
 159              		.loc 1 170 0
 160 0092 86F82730 		strb	r3, [r6, #39]
 161              		.loc 1 203 0
 162 0096 2046     		mov	r0, r4
 163 0098 F8BD     		pop	{r3, r4, r5, r6, r7, pc}
 164              	.LVL16:
 165              	.L23:
 166 009a 96F82630 		ldrb	r3, [r6, #38]	@ zero_extendqisi2
 189:/Users/imashio/Electronics/ARM/_Library/u8x8_debounce.c **** 	result_msg = U8X8_MSG_GPIO(u8x8_find_first_diff(u8x8->debounce_default_pin_state, u8x8->debounce_l
 167              		.loc 1 189 0
 168 009e 0022     		movs	r2, #0
 169 00a0 86F82720 		strb	r2, [r6, #39]
 170 00a4 6B40     		eors	r3, r3, r5
 171              	.LVL17:
ARM GAS  /var/folders/v3/wysfpd052nz8jkbx04pk0ym80000gn/T//cc1dWwh0.s 			page 8


 172              	.LBB10:
 173              	.LBB11:
  68:/Users/imashio/Electronics/ARM/_Library/u8x8_debounce.c ****   do
 174              		.loc 1 68 0
 175 00a6 0620     		movs	r0, #6
  67:/Users/imashio/Electronics/ARM/_Library/u8x8_debounce.c ****   i = U8X8_PIN_INPUT_CNT;
 176              		.loc 1 67 0
 177 00a8 0122     		movs	r2, #1
 178              	.LVL18:
 179              	.L13:
  71:/Users/imashio/Electronics/ARM/_Library/u8x8_debounce.c ****     if ( (a & mask) != (b & mask) )
 180              		.loc 1 71 0
 181 00aa 411E     		subs	r1, r0, #1
  72:/Users/imashio/Electronics/ARM/_Library/u8x8_debounce.c ****       return i;
 182              		.loc 1 72 0
 183 00ac 1A42     		tst	r2, r3
  71:/Users/imashio/Electronics/ARM/_Library/u8x8_debounce.c ****     if ( (a & mask) != (b & mask) )
 184              		.loc 1 71 0
 185 00ae C9B2     		uxtb	r1, r1
 186              	.LVL19:
  74:/Users/imashio/Electronics/ARM/_Library/u8x8_debounce.c ****   } while( i > 0 );
 187              		.loc 1 74 0
 188 00b0 4FEA4202 		lsl	r2, r2, #1
 189              	.LVL20:
  72:/Users/imashio/Electronics/ARM/_Library/u8x8_debounce.c ****       return i;
 190              		.loc 1 72 0
 191 00b4 08D1     		bne	.L12
  74:/Users/imashio/Electronics/ARM/_Library/u8x8_debounce.c ****   } while( i > 0 );
 192              		.loc 1 74 0
 193 00b6 D2B2     		uxtb	r2, r2
 194              	.LVL21:
  75:/Users/imashio/Electronics/ARM/_Library/u8x8_debounce.c ****   return U8X8_PIN_INPUT_CNT;
 195              		.loc 1 75 0
 196 00b8 0846     		mov	r0, r1
 197 00ba 0029     		cmp	r1, #0
 198 00bc F5D1     		bne	.L13
 199 00be CDE7     		b	.L9
 200              	.LVL22:
 201              	.L24:
 202              	.LBE11:
 203              	.LBE10:
 181:/Users/imashio/Electronics/ARM/_Library/u8x8_debounce.c ****       }
 204              		.loc 1 181 0
 205 00c0 3023     		movs	r3, #48
 206 00c2 86F82730 		strb	r3, [r6, #39]
 207 00c6 BFE7     		b	.L16
 208              	.LVL23:
 209              	.L12:
 210 00c8 4F30     		adds	r0, r0, #79
 211 00ca C4B2     		uxtb	r4, r0
 212              	.LVL24:
 213 00cc C6E7     		b	.L9
 214              		.cfi_endproc
 215              	.LFE2:
 217 00ce 00BF     		.text
 218              	.Letext0:
 219              		.file 2 "/usr/local/gcc-arm-none-eabi-7-2018-q2-update/arm-none-eabi/include/machine/_default_type
ARM GAS  /var/folders/v3/wysfpd052nz8jkbx04pk0ym80000gn/T//cc1dWwh0.s 			page 9


 220              		.file 3 "/usr/local/gcc-arm-none-eabi-7-2018-q2-update/arm-none-eabi/include/sys/_stdint.h"
 221              		.file 4 "/Users/imashio/Electronics/ARM/_Library/u8x8.h"
ARM GAS  /var/folders/v3/wysfpd052nz8jkbx04pk0ym80000gn/T//cc1dWwh0.s 			page 10

