ARM GAS  /var/folders/v3/wysfpd052nz8jkbx04pk0ym80000gn/T//cccfZg4k.s 			page 1


   1              		.cpu cortex-m4
   2              		.eabi_attribute 27, 1
   3              		.eabi_attribute 28, 1
   4              		.eabi_attribute 20, 1
   5              		.eabi_attribute 21, 1
   6              		.eabi_attribute 23, 3
   7              		.eabi_attribute 24, 1
   8              		.eabi_attribute 25, 1
   9              		.eabi_attribute 26, 1
  10              		.eabi_attribute 30, 2
  11              		.eabi_attribute 34, 1
  12              		.eabi_attribute 18, 4
  13              		.file	"u8x8_d_ist3020.c"
  14              		.text
  15              	.Ltext0:
  16              		.cfi_sections	.debug_frame
  17              		.section	.text.u8x8_d_ist3020_erc19264,"ax",%progbits
  18              		.align	1
  19              		.p2align 2,,3
  20              		.global	u8x8_d_ist3020_erc19264
  21              		.syntax unified
  22              		.thumb
  23              		.thumb_func
  24              		.fpu fpv4-sp-d16
  26              	u8x8_d_ist3020_erc19264:
  27              	.LFB0:
  28              		.file 1 "/Users/imashio/Electronics/ARM/_Library/u8x8_d_ist3020.c"
   1:/Users/imashio/Electronics/ARM/_Library/u8x8_d_ist3020.c **** /*
   2:/Users/imashio/Electronics/ARM/_Library/u8x8_d_ist3020.c **** 
   3:/Users/imashio/Electronics/ARM/_Library/u8x8_d_ist3020.c ****   u8x8_d_ist3020.c
   4:/Users/imashio/Electronics/ARM/_Library/u8x8_d_ist3020.c ****   
   5:/Users/imashio/Electronics/ARM/_Library/u8x8_d_ist3020.c ****   Universal 8bit Graphics Library (https://github.com/olikraus/u8g2/)
   6:/Users/imashio/Electronics/ARM/_Library/u8x8_d_ist3020.c **** 
   7:/Users/imashio/Electronics/ARM/_Library/u8x8_d_ist3020.c ****   Copyright (c) 2017, olikraus@gmail.com
   8:/Users/imashio/Electronics/ARM/_Library/u8x8_d_ist3020.c ****   All rights reserved.
   9:/Users/imashio/Electronics/ARM/_Library/u8x8_d_ist3020.c **** 
  10:/Users/imashio/Electronics/ARM/_Library/u8x8_d_ist3020.c ****   Redistribution and use in source and binary forms, with or without modification, 
  11:/Users/imashio/Electronics/ARM/_Library/u8x8_d_ist3020.c ****   are permitted provided that the following conditions are met:
  12:/Users/imashio/Electronics/ARM/_Library/u8x8_d_ist3020.c **** 
  13:/Users/imashio/Electronics/ARM/_Library/u8x8_d_ist3020.c ****   * Redistributions of source code must retain the above copyright notice, this list 
  14:/Users/imashio/Electronics/ARM/_Library/u8x8_d_ist3020.c ****     of conditions and the following disclaimer.
  15:/Users/imashio/Electronics/ARM/_Library/u8x8_d_ist3020.c ****     
  16:/Users/imashio/Electronics/ARM/_Library/u8x8_d_ist3020.c ****   * Redistributions in binary form must reproduce the above copyright notice, this 
  17:/Users/imashio/Electronics/ARM/_Library/u8x8_d_ist3020.c ****     list of conditions and the following disclaimer in the documentation and/or other 
  18:/Users/imashio/Electronics/ARM/_Library/u8x8_d_ist3020.c ****     materials provided with the distribution.
  19:/Users/imashio/Electronics/ARM/_Library/u8x8_d_ist3020.c **** 
  20:/Users/imashio/Electronics/ARM/_Library/u8x8_d_ist3020.c ****   THIS SOFTWARE IS PROVIDED BY THE COPYRIGHT HOLDERS AND 
  21:/Users/imashio/Electronics/ARM/_Library/u8x8_d_ist3020.c ****   CONTRIBUTORS "AS IS" AND ANY EXPRESS OR IMPLIED WARRANTIES, 
  22:/Users/imashio/Electronics/ARM/_Library/u8x8_d_ist3020.c ****   INCLUDING, BUT NOT LIMITED TO, THE IMPLIED WARRANTIES OF 
  23:/Users/imashio/Electronics/ARM/_Library/u8x8_d_ist3020.c ****   MERCHANTABILITY AND FITNESS FOR A PARTICULAR PURPOSE ARE 
  24:/Users/imashio/Electronics/ARM/_Library/u8x8_d_ist3020.c ****   DISCLAIMED. IN NO EVENT SHALL THE COPYRIGHT HOLDER OR 
  25:/Users/imashio/Electronics/ARM/_Library/u8x8_d_ist3020.c ****   CONTRIBUTORS BE LIABLE FOR ANY DIRECT, INDIRECT, INCIDENTAL, 
  26:/Users/imashio/Electronics/ARM/_Library/u8x8_d_ist3020.c ****   SPECIAL, EXEMPLARY, OR CONSEQUENTIAL DAMAGES (INCLUDING, BUT 
  27:/Users/imashio/Electronics/ARM/_Library/u8x8_d_ist3020.c ****   NOT LIMITED TO, PROCUREMENT OF SUBSTITUTE GOODS OR SERVICES; 
  28:/Users/imashio/Electronics/ARM/_Library/u8x8_d_ist3020.c ****   LOSS OF USE, DATA, OR PROFITS; OR BUSINESS INTERRUPTION) HOWEVER 
  29:/Users/imashio/Electronics/ARM/_Library/u8x8_d_ist3020.c ****   CAUSED AND ON ANY THEORY OF LIABILITY, WHETHER IN CONTRACT, 
  30:/Users/imashio/Electronics/ARM/_Library/u8x8_d_ist3020.c ****   STRICT LIABILITY, OR TORT (INCLUDING NEGLIGENCE OR OTHERWISE) 
ARM GAS  /var/folders/v3/wysfpd052nz8jkbx04pk0ym80000gn/T//cccfZg4k.s 			page 2


  31:/Users/imashio/Electronics/ARM/_Library/u8x8_d_ist3020.c ****   ARISING IN ANY WAY OUT OF THE USE OF THIS SOFTWARE, EVEN IF 
  32:/Users/imashio/Electronics/ARM/_Library/u8x8_d_ist3020.c ****   ADVISED OF THE POSSIBILITY OF SUCH DAMAGE.  
  33:/Users/imashio/Electronics/ARM/_Library/u8x8_d_ist3020.c **** 
  34:/Users/imashio/Electronics/ARM/_Library/u8x8_d_ist3020.c ****   
  35:/Users/imashio/Electronics/ARM/_Library/u8x8_d_ist3020.c **** */
  36:/Users/imashio/Electronics/ARM/_Library/u8x8_d_ist3020.c **** #include "u8x8.h"
  37:/Users/imashio/Electronics/ARM/_Library/u8x8_d_ist3020.c **** 
  38:/Users/imashio/Electronics/ARM/_Library/u8x8_d_ist3020.c **** 
  39:/Users/imashio/Electronics/ARM/_Library/u8x8_d_ist3020.c **** 
  40:/Users/imashio/Electronics/ARM/_Library/u8x8_d_ist3020.c **** 
  41:/Users/imashio/Electronics/ARM/_Library/u8x8_d_ist3020.c **** static const uint8_t u8x8_d_ist3020_erc19264_powersave0_seq[] = {
  42:/Users/imashio/Electronics/ARM/_Library/u8x8_d_ist3020.c ****   U8X8_START_TRANSFER(),             	/* enable chip, delay is part of the transfer start */
  43:/Users/imashio/Electronics/ARM/_Library/u8x8_d_ist3020.c ****   U8X8_C(0x0a4),		                /* all pixel off, issue 142 */
  44:/Users/imashio/Electronics/ARM/_Library/u8x8_d_ist3020.c ****   U8X8_C(0x0af),		                /* display on */
  45:/Users/imashio/Electronics/ARM/_Library/u8x8_d_ist3020.c ****   U8X8_END_TRANSFER(),             	/* disable chip */
  46:/Users/imashio/Electronics/ARM/_Library/u8x8_d_ist3020.c ****   U8X8_END()             			/* end of sequence */
  47:/Users/imashio/Electronics/ARM/_Library/u8x8_d_ist3020.c **** };
  48:/Users/imashio/Electronics/ARM/_Library/u8x8_d_ist3020.c **** 
  49:/Users/imashio/Electronics/ARM/_Library/u8x8_d_ist3020.c **** static const uint8_t u8x8_d_ist3020_erc19264_powersave1_seq[] = {
  50:/Users/imashio/Electronics/ARM/_Library/u8x8_d_ist3020.c ****   U8X8_START_TRANSFER(),             	/* enable chip, delay is part of the transfer start */
  51:/Users/imashio/Electronics/ARM/_Library/u8x8_d_ist3020.c ****   U8X8_C(0x0ae),		                /* display off */
  52:/Users/imashio/Electronics/ARM/_Library/u8x8_d_ist3020.c ****   U8X8_C(0x0a5),		                /* enter powersafe: all pixel on, issue 142 */
  53:/Users/imashio/Electronics/ARM/_Library/u8x8_d_ist3020.c ****   U8X8_END_TRANSFER(),             	/* disable chip */
  54:/Users/imashio/Electronics/ARM/_Library/u8x8_d_ist3020.c ****   U8X8_END()             			/* end of sequence */
  55:/Users/imashio/Electronics/ARM/_Library/u8x8_d_ist3020.c **** };
  56:/Users/imashio/Electronics/ARM/_Library/u8x8_d_ist3020.c **** 
  57:/Users/imashio/Electronics/ARM/_Library/u8x8_d_ist3020.c **** static const uint8_t u8x8_d_ist3020_erc19264_flip0_seq[] = {
  58:/Users/imashio/Electronics/ARM/_Library/u8x8_d_ist3020.c ****   U8X8_START_TRANSFER(),             	/* enable chip, delay is part of the transfer start */
  59:/Users/imashio/Electronics/ARM/_Library/u8x8_d_ist3020.c ****   U8X8_C(0x0a0),				/* segment remap a0/a1*/
  60:/Users/imashio/Electronics/ARM/_Library/u8x8_d_ist3020.c ****   U8X8_C(0x0c8),				/* c0: scan dir normal, c8: reverse */
  61:/Users/imashio/Electronics/ARM/_Library/u8x8_d_ist3020.c ****   U8X8_END_TRANSFER(),             	/* disable chip */
  62:/Users/imashio/Electronics/ARM/_Library/u8x8_d_ist3020.c ****   U8X8_END()             			/* end of sequence */
  63:/Users/imashio/Electronics/ARM/_Library/u8x8_d_ist3020.c **** };
  64:/Users/imashio/Electronics/ARM/_Library/u8x8_d_ist3020.c **** 
  65:/Users/imashio/Electronics/ARM/_Library/u8x8_d_ist3020.c **** static const uint8_t u8x8_d_ist3020_erc19264_flip1_seq[] = {
  66:/Users/imashio/Electronics/ARM/_Library/u8x8_d_ist3020.c ****   U8X8_START_TRANSFER(),             	/* enable chip, delay is part of the transfer start */
  67:/Users/imashio/Electronics/ARM/_Library/u8x8_d_ist3020.c ****   U8X8_C(0x0a1),				/* segment remap a0/a1*/
  68:/Users/imashio/Electronics/ARM/_Library/u8x8_d_ist3020.c ****   U8X8_C(0x0c0),				/* c0: scan dir normal, c8: reverse */
  69:/Users/imashio/Electronics/ARM/_Library/u8x8_d_ist3020.c ****   U8X8_END_TRANSFER(),             	/* disable chip */
  70:/Users/imashio/Electronics/ARM/_Library/u8x8_d_ist3020.c ****   U8X8_END()             			/* end of sequence */
  71:/Users/imashio/Electronics/ARM/_Library/u8x8_d_ist3020.c **** };
  72:/Users/imashio/Electronics/ARM/_Library/u8x8_d_ist3020.c **** 
  73:/Users/imashio/Electronics/ARM/_Library/u8x8_d_ist3020.c **** 
  74:/Users/imashio/Electronics/ARM/_Library/u8x8_d_ist3020.c **** static const u8x8_display_info_t u8x8_ist3020_erc19264_display_info =
  75:/Users/imashio/Electronics/ARM/_Library/u8x8_d_ist3020.c **** {
  76:/Users/imashio/Electronics/ARM/_Library/u8x8_d_ist3020.c ****   /* chip_enable_level = */ 0,
  77:/Users/imashio/Electronics/ARM/_Library/u8x8_d_ist3020.c ****   /* chip_disable_level = */ 1,
  78:/Users/imashio/Electronics/ARM/_Library/u8x8_d_ist3020.c ****   
  79:/Users/imashio/Electronics/ARM/_Library/u8x8_d_ist3020.c ****   /* post_chip_enable_wait_ns = */ 150,	/* IST3020 datasheet, page 56 */
  80:/Users/imashio/Electronics/ARM/_Library/u8x8_d_ist3020.c ****   /* pre_chip_disable_wait_ns = */ 150,	/* IST3020 datasheet, page 56 */
  81:/Users/imashio/Electronics/ARM/_Library/u8x8_d_ist3020.c ****   /* reset_pulse_width_ms = */ 1, 
  82:/Users/imashio/Electronics/ARM/_Library/u8x8_d_ist3020.c ****   /* post_reset_wait_ms = */ 1, 
  83:/Users/imashio/Electronics/ARM/_Library/u8x8_d_ist3020.c ****   /* sda_setup_time_ns = */ 100,		/* IST3020 datasheet, page 56 */
  84:/Users/imashio/Electronics/ARM/_Library/u8x8_d_ist3020.c ****   /* sck_pulse_width_ns = */ 100,	/* IST3020 datasheet, page 56 */
  85:/Users/imashio/Electronics/ARM/_Library/u8x8_d_ist3020.c ****   /* sck_clock_hz = */ 4000000UL,	/* */
  86:/Users/imashio/Electronics/ARM/_Library/u8x8_d_ist3020.c ****   /* spi_mode = */ 0,		/* active high, rising edge */
  87:/Users/imashio/Electronics/ARM/_Library/u8x8_d_ist3020.c ****   /* i2c_bus_clock_100kHz = */ 4,
ARM GAS  /var/folders/v3/wysfpd052nz8jkbx04pk0ym80000gn/T//cccfZg4k.s 			page 3


  88:/Users/imashio/Electronics/ARM/_Library/u8x8_d_ist3020.c ****   /* data_setup_time_ns = */ 40,	/* IST3020 datasheet, page 54 */
  89:/Users/imashio/Electronics/ARM/_Library/u8x8_d_ist3020.c ****   /* write_pulse_width_ns = */ 60,	/* IST3020 datasheet, page 54 */
  90:/Users/imashio/Electronics/ARM/_Library/u8x8_d_ist3020.c ****   /* tile_width = */ 24,		/* width of 24*8=192 pixel */
  91:/Users/imashio/Electronics/ARM/_Library/u8x8_d_ist3020.c ****   /* tile_hight = */ 8,
  92:/Users/imashio/Electronics/ARM/_Library/u8x8_d_ist3020.c ****   /* default_x_offset = */ 0,
  93:/Users/imashio/Electronics/ARM/_Library/u8x8_d_ist3020.c ****   /* flipmode_x_offset = */ 64,
  94:/Users/imashio/Electronics/ARM/_Library/u8x8_d_ist3020.c ****   /* pixel_width = */ 192,
  95:/Users/imashio/Electronics/ARM/_Library/u8x8_d_ist3020.c ****   /* pixel_height = */ 64
  96:/Users/imashio/Electronics/ARM/_Library/u8x8_d_ist3020.c **** };
  97:/Users/imashio/Electronics/ARM/_Library/u8x8_d_ist3020.c **** 
  98:/Users/imashio/Electronics/ARM/_Library/u8x8_d_ist3020.c **** static const uint8_t u8x8_d_ist3020_erc19264_init_seq[] = {
  99:/Users/imashio/Electronics/ARM/_Library/u8x8_d_ist3020.c ****     
 100:/Users/imashio/Electronics/ARM/_Library/u8x8_d_ist3020.c ****   U8X8_START_TRANSFER(),             	/* enable chip, delay is part of the transfer start */
 101:/Users/imashio/Electronics/ARM/_Library/u8x8_d_ist3020.c ****   
 102:/Users/imashio/Electronics/ARM/_Library/u8x8_d_ist3020.c ****   U8X8_C(0x0e2),            			/* soft reset */
 103:/Users/imashio/Electronics/ARM/_Library/u8x8_d_ist3020.c ****   U8X8_C(0x0ab),            			/* build in osc on, used in ER code, but not mentioned in data sheet
 104:/Users/imashio/Electronics/ARM/_Library/u8x8_d_ist3020.c ****   U8X8_C(0x0ae),		                /* display off */
 105:/Users/imashio/Electronics/ARM/_Library/u8x8_d_ist3020.c ****   
 106:/Users/imashio/Electronics/ARM/_Library/u8x8_d_ist3020.c ****   U8X8_C(0x040),		                /* set display start line to 0 */
 107:/Users/imashio/Electronics/ARM/_Library/u8x8_d_ist3020.c ****   
 108:/Users/imashio/Electronics/ARM/_Library/u8x8_d_ist3020.c ****   U8X8_C(0x0a0),		                /* ADC set to reverse */
 109:/Users/imashio/Electronics/ARM/_Library/u8x8_d_ist3020.c ****   U8X8_C(0x0c8),		                /* common output mode */
 110:/Users/imashio/Electronics/ARM/_Library/u8x8_d_ist3020.c ****   // Flipmode
 111:/Users/imashio/Electronics/ARM/_Library/u8x8_d_ist3020.c ****   //U8X8_C(0x0a0),		                /* ADC set to reverse */
 112:/Users/imashio/Electronics/ARM/_Library/u8x8_d_ist3020.c ****   //U8X8_C(0x0c8),		                /* common output mode */
 113:/Users/imashio/Electronics/ARM/_Library/u8x8_d_ist3020.c ****   
 114:/Users/imashio/Electronics/ARM/_Library/u8x8_d_ist3020.c ****   U8X8_C(0x0a6),		                /* display normal, bit val 0: LCD pixel off. */
 115:/Users/imashio/Electronics/ARM/_Library/u8x8_d_ist3020.c ****   U8X8_C(0x0a3),		                /* FIX: LCD bias 1/7, old value was 1/9 (0x0a2) */
 116:/Users/imashio/Electronics/ARM/_Library/u8x8_d_ist3020.c ****   
 117:/Users/imashio/Electronics/ARM/_Library/u8x8_d_ist3020.c ****   U8X8_C(0x028|4),		                /* all power  control circuits on */
 118:/Users/imashio/Electronics/ARM/_Library/u8x8_d_ist3020.c ****   U8X8_DLY(50),
 119:/Users/imashio/Electronics/ARM/_Library/u8x8_d_ist3020.c ****   U8X8_C(0x028|6),		                /* all power  control circuits on */
 120:/Users/imashio/Electronics/ARM/_Library/u8x8_d_ist3020.c ****   U8X8_DLY(50),
 121:/Users/imashio/Electronics/ARM/_Library/u8x8_d_ist3020.c ****   U8X8_C(0x028|7),		                /* all power  control circuits on */
 122:/Users/imashio/Electronics/ARM/_Library/u8x8_d_ist3020.c ****   U8X8_DLY(50),
 123:/Users/imashio/Electronics/ARM/_Library/u8x8_d_ist3020.c ****   
 124:/Users/imashio/Electronics/ARM/_Library/u8x8_d_ist3020.c ****   U8X8_C(0x020),		                /* v0 voltage resistor ratio */
 125:/Users/imashio/Electronics/ARM/_Library/u8x8_d_ist3020.c ****   U8X8_CA(0x081, 0x019),		/* set contrast, contrast value (from ER code: 45) */
 126:/Users/imashio/Electronics/ARM/_Library/u8x8_d_ist3020.c ****   
 127:/Users/imashio/Electronics/ARM/_Library/u8x8_d_ist3020.c ****   U8X8_C(0x0ae),		                /* display off */
 128:/Users/imashio/Electronics/ARM/_Library/u8x8_d_ist3020.c ****   U8X8_C(0x0a5),		                /* enter powersafe: all pixel on, issue 142 */
 129:/Users/imashio/Electronics/ARM/_Library/u8x8_d_ist3020.c ****    
 130:/Users/imashio/Electronics/ARM/_Library/u8x8_d_ist3020.c ****   U8X8_END_TRANSFER(),             	/* disable chip */
 131:/Users/imashio/Electronics/ARM/_Library/u8x8_d_ist3020.c ****   U8X8_END()             			/* end of sequence */
 132:/Users/imashio/Electronics/ARM/_Library/u8x8_d_ist3020.c **** };
 133:/Users/imashio/Electronics/ARM/_Library/u8x8_d_ist3020.c **** 
 134:/Users/imashio/Electronics/ARM/_Library/u8x8_d_ist3020.c **** uint8_t u8x8_d_ist3020_erc19264(u8x8_t *u8x8, uint8_t msg, uint8_t arg_int, void *arg_ptr)
 135:/Users/imashio/Electronics/ARM/_Library/u8x8_d_ist3020.c **** {
  29              		.loc 1 135 0
  30              		.cfi_startproc
  31              		@ args = 0, pretend = 0, frame = 0
  32              		@ frame_needed = 0, uses_anonymous_args = 0
  33              	.LVL0:
 136:/Users/imashio/Electronics/ARM/_Library/u8x8_d_ist3020.c ****   uint8_t x, c;
 137:/Users/imashio/Electronics/ARM/_Library/u8x8_d_ist3020.c ****   uint8_t *ptr;
 138:/Users/imashio/Electronics/ARM/_Library/u8x8_d_ist3020.c ****   switch(msg)
  34              		.loc 1 138 0
ARM GAS  /var/folders/v3/wysfpd052nz8jkbx04pk0ym80000gn/T//cccfZg4k.s 			page 4


  35 0000 0939     		subs	r1, r1, #9
  36              	.LVL1:
 135:/Users/imashio/Electronics/ARM/_Library/u8x8_d_ist3020.c ****   uint8_t x, c;
  37              		.loc 1 135 0
  38 0002 F8B5     		push	{r3, r4, r5, r6, r7, lr}
  39              	.LCFI0:
  40              		.cfi_def_cfa_offset 24
  41              		.cfi_offset 3, -24
  42              		.cfi_offset 4, -20
  43              		.cfi_offset 5, -16
  44              		.cfi_offset 6, -12
  45              		.cfi_offset 7, -8
  46              		.cfi_offset 14, -4
 135:/Users/imashio/Electronics/ARM/_Library/u8x8_d_ist3020.c ****   uint8_t x, c;
  47              		.loc 1 135 0
  48 0004 0546     		mov	r5, r0
  49 0006 1446     		mov	r4, r2
  50 0008 1F46     		mov	r7, r3
  51              		.loc 1 138 0
  52 000a 0629     		cmp	r1, #6
  53 000c 5BD8     		bhi	.L13
  54 000e DFE801F0 		tbb	[pc, r1]
  55              	.LVL2:
  56              	.L4:
  57 0012 2F       		.byte	(.L3-.L4)/2
  58 0013 34       		.byte	(.L5-.L4)/2
  59 0014 54       		.byte	(.L6-.L4)/2
  60 0015 5A       		.byte	(.L13-.L4)/2
  61 0016 3C       		.byte	(.L7-.L4)/2
  62 0017 45       		.byte	(.L8-.L4)/2
  63 0018 04       		.byte	(.L9-.L4)/2
  64 0019 00       		.p2align 1
  65              	.L9:
 139:/Users/imashio/Electronics/ARM/_Library/u8x8_d_ist3020.c ****   {
 140:/Users/imashio/Electronics/ARM/_Library/u8x8_d_ist3020.c ****     case U8X8_MSG_DISPLAY_SETUP_MEMORY:
 141:/Users/imashio/Electronics/ARM/_Library/u8x8_d_ist3020.c ****       u8x8_d_helper_display_setup_memory(u8x8, &u8x8_ist3020_erc19264_display_info);
 142:/Users/imashio/Electronics/ARM/_Library/u8x8_d_ist3020.c ****       break;
 143:/Users/imashio/Electronics/ARM/_Library/u8x8_d_ist3020.c ****     case U8X8_MSG_DISPLAY_INIT:
 144:/Users/imashio/Electronics/ARM/_Library/u8x8_d_ist3020.c ****       u8x8_d_helper_display_init(u8x8);
 145:/Users/imashio/Electronics/ARM/_Library/u8x8_d_ist3020.c ****       u8x8_cad_SendSequence(u8x8, u8x8_d_ist3020_erc19264_init_seq);
 146:/Users/imashio/Electronics/ARM/_Library/u8x8_d_ist3020.c ****       break;
 147:/Users/imashio/Electronics/ARM/_Library/u8x8_d_ist3020.c ****     case U8X8_MSG_DISPLAY_SET_POWER_SAVE:
 148:/Users/imashio/Electronics/ARM/_Library/u8x8_d_ist3020.c ****       if ( arg_int == 0 )
 149:/Users/imashio/Electronics/ARM/_Library/u8x8_d_ist3020.c **** 	u8x8_cad_SendSequence(u8x8, u8x8_d_ist3020_erc19264_powersave0_seq);
 150:/Users/imashio/Electronics/ARM/_Library/u8x8_d_ist3020.c ****       else
 151:/Users/imashio/Electronics/ARM/_Library/u8x8_d_ist3020.c **** 	u8x8_cad_SendSequence(u8x8, u8x8_d_ist3020_erc19264_powersave1_seq);
 152:/Users/imashio/Electronics/ARM/_Library/u8x8_d_ist3020.c ****       break;
 153:/Users/imashio/Electronics/ARM/_Library/u8x8_d_ist3020.c ****     case U8X8_MSG_DISPLAY_SET_FLIP_MODE:
 154:/Users/imashio/Electronics/ARM/_Library/u8x8_d_ist3020.c ****       if ( arg_int == 0 )
 155:/Users/imashio/Electronics/ARM/_Library/u8x8_d_ist3020.c ****       {
 156:/Users/imashio/Electronics/ARM/_Library/u8x8_d_ist3020.c **** 	u8x8_cad_SendSequence(u8x8, u8x8_d_ist3020_erc19264_flip0_seq);
 157:/Users/imashio/Electronics/ARM/_Library/u8x8_d_ist3020.c **** 	u8x8->x_offset = u8x8->display_info->default_x_offset;
 158:/Users/imashio/Electronics/ARM/_Library/u8x8_d_ist3020.c ****       }
 159:/Users/imashio/Electronics/ARM/_Library/u8x8_d_ist3020.c ****       else
 160:/Users/imashio/Electronics/ARM/_Library/u8x8_d_ist3020.c ****       {
 161:/Users/imashio/Electronics/ARM/_Library/u8x8_d_ist3020.c **** 	u8x8_cad_SendSequence(u8x8, u8x8_d_ist3020_erc19264_flip1_seq);
 162:/Users/imashio/Electronics/ARM/_Library/u8x8_d_ist3020.c **** 	u8x8->x_offset = u8x8->display_info->flipmode_x_offset;
ARM GAS  /var/folders/v3/wysfpd052nz8jkbx04pk0ym80000gn/T//cccfZg4k.s 			page 5


 163:/Users/imashio/Electronics/ARM/_Library/u8x8_d_ist3020.c ****       }	
 164:/Users/imashio/Electronics/ARM/_Library/u8x8_d_ist3020.c ****       break;
 165:/Users/imashio/Electronics/ARM/_Library/u8x8_d_ist3020.c **** #ifdef U8X8_WITH_SET_CONTRAST
 166:/Users/imashio/Electronics/ARM/_Library/u8x8_d_ist3020.c ****     case U8X8_MSG_DISPLAY_SET_CONTRAST:
 167:/Users/imashio/Electronics/ARM/_Library/u8x8_d_ist3020.c ****       u8x8_cad_StartTransfer(u8x8);
 168:/Users/imashio/Electronics/ARM/_Library/u8x8_d_ist3020.c ****       u8x8_cad_SendCmd(u8x8, 0x081 );
 169:/Users/imashio/Electronics/ARM/_Library/u8x8_d_ist3020.c ****       u8x8_cad_SendArg(u8x8, arg_int >> 2 );	/* st7567 has range from 0 to 63 */
 170:/Users/imashio/Electronics/ARM/_Library/u8x8_d_ist3020.c ****       u8x8_cad_EndTransfer(u8x8);
 171:/Users/imashio/Electronics/ARM/_Library/u8x8_d_ist3020.c ****       break;
 172:/Users/imashio/Electronics/ARM/_Library/u8x8_d_ist3020.c **** #endif
 173:/Users/imashio/Electronics/ARM/_Library/u8x8_d_ist3020.c ****     case U8X8_MSG_DISPLAY_DRAW_TILE:
 174:/Users/imashio/Electronics/ARM/_Library/u8x8_d_ist3020.c ****       u8x8_cad_StartTransfer(u8x8);
  66              		.loc 1 174 0
  67 001a FFF7FEFF 		bl	u8x8_cad_StartTransfer
  68              	.LVL3:
 175:/Users/imashio/Electronics/ARM/_Library/u8x8_d_ist3020.c ****     
 176:/Users/imashio/Electronics/ARM/_Library/u8x8_d_ist3020.c ****       x = ((u8x8_tile_t *)arg_ptr)->x_pos;
  69              		.loc 1 176 0
  70 001e 7B79     		ldrb	r3, [r7, #5]	@ zero_extendqisi2
  71              	.LVL4:
 177:/Users/imashio/Electronics/ARM/_Library/u8x8_d_ist3020.c ****       x *= 8;
 178:/Users/imashio/Electronics/ARM/_Library/u8x8_d_ist3020.c ****       x += u8x8->x_offset;
  72              		.loc 1 178 0
  73 0020 AE7F     		ldrb	r6, [r5, #30]	@ zero_extendqisi2
  74 0022 06EBC306 		add	r6, r6, r3, lsl #3
  75 0026 06F0FF06 		and	r6, r6, #255
  76              	.LVL5:
 179:/Users/imashio/Electronics/ARM/_Library/u8x8_d_ist3020.c ****       u8x8_cad_SendCmd(u8x8, 0x010 | (x>>4) );
  77              		.loc 1 179 0
  78 002a 3109     		lsrs	r1, r6, #4
  79 002c 41F01001 		orr	r1, r1, #16
  80 0030 2846     		mov	r0, r5
  81 0032 FFF7FEFF 		bl	u8x8_cad_SendCmd
  82              	.LVL6:
 180:/Users/imashio/Electronics/ARM/_Library/u8x8_d_ist3020.c ****       u8x8_cad_SendCmd(u8x8, 0x000 | ((x&15)));
  83              		.loc 1 180 0
  84 0036 06F00F01 		and	r1, r6, #15
  85 003a 2846     		mov	r0, r5
  86 003c FFF7FEFF 		bl	u8x8_cad_SendCmd
  87              	.LVL7:
 181:/Users/imashio/Electronics/ARM/_Library/u8x8_d_ist3020.c ****       u8x8_cad_SendCmd(u8x8, 0x0b0 | (((u8x8_tile_t *)arg_ptr)->y_pos));
  88              		.loc 1 181 0
  89 0040 B979     		ldrb	r1, [r7, #6]	@ zero_extendqisi2
  90 0042 2846     		mov	r0, r5
  91 0044 41F0B001 		orr	r1, r1, #176
  92 0048 FFF7FEFF 		bl	u8x8_cad_SendCmd
  93              	.LVL8:
 182:/Users/imashio/Electronics/ARM/_Library/u8x8_d_ist3020.c ****     
 183:/Users/imashio/Electronics/ARM/_Library/u8x8_d_ist3020.c ****       c = ((u8x8_tile_t *)arg_ptr)->cnt;
  94              		.loc 1 183 0
  95 004c 3E79     		ldrb	r6, [r7, #4]	@ zero_extendqisi2
  96              	.LVL9:
 184:/Users/imashio/Electronics/ARM/_Library/u8x8_d_ist3020.c ****       c *= 8;
 185:/Users/imashio/Electronics/ARM/_Library/u8x8_d_ist3020.c ****       ptr = ((u8x8_tile_t *)arg_ptr)->tile_ptr;
  97              		.loc 1 185 0
  98 004e 3F68     		ldr	r7, [r7]
  99              	.LVL10:
ARM GAS  /var/folders/v3/wysfpd052nz8jkbx04pk0ym80000gn/T//cccfZg4k.s 			page 6


 184:/Users/imashio/Electronics/ARM/_Library/u8x8_d_ist3020.c ****       c *= 8;
 100              		.loc 1 184 0
 101 0050 F600     		lsls	r6, r6, #3
 102              	.LVL11:
 103 0052 F6B2     		uxtb	r6, r6
 104              	.LVL12:
 105              	.L12:
 186:/Users/imashio/Electronics/ARM/_Library/u8x8_d_ist3020.c ****       do
 187:/Users/imashio/Electronics/ARM/_Library/u8x8_d_ist3020.c ****       {
 188:/Users/imashio/Electronics/ARM/_Library/u8x8_d_ist3020.c **** 	u8x8_cad_SendData(u8x8, c, ptr);	/* note: SendData can not handle more than 255 bytes */
 106              		.loc 1 188 0 discriminator 1
 107 0054 3A46     		mov	r2, r7
 108 0056 3146     		mov	r1, r6
 109 0058 2846     		mov	r0, r5
 189:/Users/imashio/Electronics/ARM/_Library/u8x8_d_ist3020.c **** 	arg_int--;
 110              		.loc 1 189 0 discriminator 1
 111 005a 013C     		subs	r4, r4, #1
 112              	.LVL13:
 188:/Users/imashio/Electronics/ARM/_Library/u8x8_d_ist3020.c **** 	arg_int--;
 113              		.loc 1 188 0 discriminator 1
 114 005c FFF7FEFF 		bl	u8x8_cad_SendData
 115              	.LVL14:
 190:/Users/imashio/Electronics/ARM/_Library/u8x8_d_ist3020.c ****       } while( arg_int > 0 );
 116              		.loc 1 190 0 discriminator 1
 117 0060 14F0FF04 		ands	r4, r4, #255
 118              	.LVL15:
 119 0064 F6D1     		bne	.L12
 191:/Users/imashio/Electronics/ARM/_Library/u8x8_d_ist3020.c ****       
 192:/Users/imashio/Electronics/ARM/_Library/u8x8_d_ist3020.c ****       u8x8_cad_EndTransfer(u8x8);
 120              		.loc 1 192 0
 121 0066 2846     		mov	r0, r5
 122 0068 FFF7FEFF 		bl	u8x8_cad_EndTransfer
 123              	.LVL16:
 193:/Users/imashio/Electronics/ARM/_Library/u8x8_d_ist3020.c ****       break;
 194:/Users/imashio/Electronics/ARM/_Library/u8x8_d_ist3020.c ****     default:
 195:/Users/imashio/Electronics/ARM/_Library/u8x8_d_ist3020.c ****       return 0;
 196:/Users/imashio/Electronics/ARM/_Library/u8x8_d_ist3020.c ****   }
 197:/Users/imashio/Electronics/ARM/_Library/u8x8_d_ist3020.c ****   return 1;
 124              		.loc 1 197 0
 125 006c 0120     		movs	r0, #1
 198:/Users/imashio/Electronics/ARM/_Library/u8x8_d_ist3020.c **** }
 126              		.loc 1 198 0
 127 006e F8BD     		pop	{r3, r4, r5, r6, r7, pc}
 128              	.LVL17:
 129              	.L3:
 141:/Users/imashio/Electronics/ARM/_Library/u8x8_d_ist3020.c ****       break;
 130              		.loc 1 141 0
 131 0070 1C49     		ldr	r1, .L17
 132 0072 FFF7FEFF 		bl	u8x8_d_helper_display_setup_memory
 133              	.LVL18:
 197:/Users/imashio/Electronics/ARM/_Library/u8x8_d_ist3020.c **** }
 134              		.loc 1 197 0
 135 0076 0120     		movs	r0, #1
 136              		.loc 1 198 0
 137 0078 F8BD     		pop	{r3, r4, r5, r6, r7, pc}
 138              	.LVL19:
 139              	.L5:
ARM GAS  /var/folders/v3/wysfpd052nz8jkbx04pk0ym80000gn/T//cccfZg4k.s 			page 7


 144:/Users/imashio/Electronics/ARM/_Library/u8x8_d_ist3020.c ****       u8x8_cad_SendSequence(u8x8, u8x8_d_ist3020_erc19264_init_seq);
 140              		.loc 1 144 0
 141 007a FFF7FEFF 		bl	u8x8_d_helper_display_init
 142              	.LVL20:
 145:/Users/imashio/Electronics/ARM/_Library/u8x8_d_ist3020.c ****       break;
 143              		.loc 1 145 0
 144 007e 2846     		mov	r0, r5
 145 0080 1949     		ldr	r1, .L17+4
 146 0082 FFF7FEFF 		bl	u8x8_cad_SendSequence
 147              	.LVL21:
 197:/Users/imashio/Electronics/ARM/_Library/u8x8_d_ist3020.c **** }
 148              		.loc 1 197 0
 149 0086 0120     		movs	r0, #1
 150              		.loc 1 198 0
 151 0088 F8BD     		pop	{r3, r4, r5, r6, r7, pc}
 152              	.LVL22:
 153              	.L7:
 154:/Users/imashio/Electronics/ARM/_Library/u8x8_d_ist3020.c ****       {
 154              		.loc 1 154 0
 155 008a F2B9     		cbnz	r2, .L11
 156:/Users/imashio/Electronics/ARM/_Library/u8x8_d_ist3020.c **** 	u8x8->x_offset = u8x8->display_info->default_x_offset;
 156              		.loc 1 156 0
 157 008c 1749     		ldr	r1, .L17+8
 158 008e FFF7FEFF 		bl	u8x8_cad_SendSequence
 159              	.LVL23:
 157:/Users/imashio/Electronics/ARM/_Library/u8x8_d_ist3020.c ****       }
 160              		.loc 1 157 0
 161 0092 2B68     		ldr	r3, [r5]
 162 0094 9B7C     		ldrb	r3, [r3, #18]	@ zero_extendqisi2
 163 0096 AB77     		strb	r3, [r5, #30]
 197:/Users/imashio/Electronics/ARM/_Library/u8x8_d_ist3020.c **** }
 164              		.loc 1 197 0
 165 0098 0120     		movs	r0, #1
 166              		.loc 1 198 0
 167 009a F8BD     		pop	{r3, r4, r5, r6, r7, pc}
 168              	.LVL24:
 169              	.L8:
 167:/Users/imashio/Electronics/ARM/_Library/u8x8_d_ist3020.c ****       u8x8_cad_SendCmd(u8x8, 0x081 );
 170              		.loc 1 167 0
 171 009c FFF7FEFF 		bl	u8x8_cad_StartTransfer
 172              	.LVL25:
 168:/Users/imashio/Electronics/ARM/_Library/u8x8_d_ist3020.c ****       u8x8_cad_SendArg(u8x8, arg_int >> 2 );	/* st7567 has range from 0 to 63 */
 173              		.loc 1 168 0
 174 00a0 8121     		movs	r1, #129
 175 00a2 2846     		mov	r0, r5
 176 00a4 FFF7FEFF 		bl	u8x8_cad_SendCmd
 177              	.LVL26:
 169:/Users/imashio/Electronics/ARM/_Library/u8x8_d_ist3020.c ****       u8x8_cad_EndTransfer(u8x8);
 178              		.loc 1 169 0
 179 00a8 A108     		lsrs	r1, r4, #2
 180 00aa 2846     		mov	r0, r5
 181 00ac FFF7FEFF 		bl	u8x8_cad_SendArg
 182              	.LVL27:
 170:/Users/imashio/Electronics/ARM/_Library/u8x8_d_ist3020.c ****       break;
 183              		.loc 1 170 0
 184 00b0 2846     		mov	r0, r5
 185 00b2 FFF7FEFF 		bl	u8x8_cad_EndTransfer
ARM GAS  /var/folders/v3/wysfpd052nz8jkbx04pk0ym80000gn/T//cccfZg4k.s 			page 8


 186              	.LVL28:
 197:/Users/imashio/Electronics/ARM/_Library/u8x8_d_ist3020.c **** }
 187              		.loc 1 197 0
 188 00b6 0120     		movs	r0, #1
 189              		.loc 1 198 0
 190 00b8 F8BD     		pop	{r3, r4, r5, r6, r7, pc}
 191              	.LVL29:
 192              	.L6:
 148:/Users/imashio/Electronics/ARM/_Library/u8x8_d_ist3020.c **** 	u8x8_cad_SendSequence(u8x8, u8x8_d_ist3020_erc19264_powersave0_seq);
 193              		.loc 1 148 0
 194 00ba 72B9     		cbnz	r2, .L10
 149:/Users/imashio/Electronics/ARM/_Library/u8x8_d_ist3020.c ****       else
 195              		.loc 1 149 0
 196 00bc 0C49     		ldr	r1, .L17+12
 197 00be FFF7FEFF 		bl	u8x8_cad_SendSequence
 198              	.LVL30:
 197:/Users/imashio/Electronics/ARM/_Library/u8x8_d_ist3020.c **** }
 199              		.loc 1 197 0
 200 00c2 0120     		movs	r0, #1
 201              		.loc 1 198 0
 202 00c4 F8BD     		pop	{r3, r4, r5, r6, r7, pc}
 203              	.LVL31:
 204              	.L13:
 195:/Users/imashio/Electronics/ARM/_Library/u8x8_d_ist3020.c ****   }
 205              		.loc 1 195 0
 206 00c6 0020     		movs	r0, #0
 207              	.LVL32:
 208              		.loc 1 198 0
 209 00c8 F8BD     		pop	{r3, r4, r5, r6, r7, pc}
 210              	.LVL33:
 211              	.L11:
 161:/Users/imashio/Electronics/ARM/_Library/u8x8_d_ist3020.c **** 	u8x8->x_offset = u8x8->display_info->flipmode_x_offset;
 212              		.loc 1 161 0
 213 00ca 0A49     		ldr	r1, .L17+16
 214 00cc FFF7FEFF 		bl	u8x8_cad_SendSequence
 215              	.LVL34:
 162:/Users/imashio/Electronics/ARM/_Library/u8x8_d_ist3020.c ****       }	
 216              		.loc 1 162 0
 217 00d0 2B68     		ldr	r3, [r5]
 218 00d2 DB7C     		ldrb	r3, [r3, #19]	@ zero_extendqisi2
 219 00d4 AB77     		strb	r3, [r5, #30]
 197:/Users/imashio/Electronics/ARM/_Library/u8x8_d_ist3020.c **** }
 220              		.loc 1 197 0
 221 00d6 0120     		movs	r0, #1
 222              		.loc 1 198 0
 223 00d8 F8BD     		pop	{r3, r4, r5, r6, r7, pc}
 224              	.LVL35:
 225              	.L10:
 151:/Users/imashio/Electronics/ARM/_Library/u8x8_d_ist3020.c ****       break;
 226              		.loc 1 151 0
 227 00da 0749     		ldr	r1, .L17+20
 228 00dc FFF7FEFF 		bl	u8x8_cad_SendSequence
 229              	.LVL36:
 197:/Users/imashio/Electronics/ARM/_Library/u8x8_d_ist3020.c **** }
 230              		.loc 1 197 0
 231 00e0 0120     		movs	r0, #1
 232              		.loc 1 198 0
ARM GAS  /var/folders/v3/wysfpd052nz8jkbx04pk0ym80000gn/T//cccfZg4k.s 			page 9


 233 00e2 F8BD     		pop	{r3, r4, r5, r6, r7, pc}
 234              	.LVL37:
 235              	.L18:
 236              		.align	2
 237              	.L17:
 238 00e4 00000000 		.word	.LANCHOR0
 239 00e8 00000000 		.word	.LANCHOR1
 240 00ec 00000000 		.word	.LANCHOR4
 241 00f0 00000000 		.word	.LANCHOR2
 242 00f4 00000000 		.word	.LANCHOR5
 243 00f8 00000000 		.word	.LANCHOR3
 244              		.cfi_endproc
 245              	.LFE0:
 247              		.section	.rodata.u8x8_d_ist3020_erc19264_flip0_seq,"a",%progbits
 248              		.align	2
 249              		.set	.LANCHOR4,. + 0
 252              	u8x8_d_ist3020_erc19264_flip0_seq:
 253 0000 18       		.byte	24
 254 0001 15       		.byte	21
 255 0002 A0       		.byte	-96
 256 0003 15       		.byte	21
 257 0004 C8       		.byte	-56
 258 0005 19       		.byte	25
 259 0006 FF       		.byte	-1
 260              		.section	.rodata.u8x8_d_ist3020_erc19264_flip1_seq,"a",%progbits
 261              		.align	2
 262              		.set	.LANCHOR5,. + 0
 265              	u8x8_d_ist3020_erc19264_flip1_seq:
 266 0000 18       		.byte	24
 267 0001 15       		.byte	21
 268 0002 A1       		.byte	-95
 269 0003 15       		.byte	21
 270 0004 C0       		.byte	-64
 271 0005 19       		.byte	25
 272 0006 FF       		.byte	-1
 273              		.section	.rodata.u8x8_d_ist3020_erc19264_init_seq,"a",%progbits
 274              		.align	2
 275              		.set	.LANCHOR1,. + 0
 278              	u8x8_d_ist3020_erc19264_init_seq:
 279 0000 18       		.byte	24
 280 0001 15       		.byte	21
 281 0002 E2       		.byte	-30
 282 0003 15       		.byte	21
 283 0004 AB       		.byte	-85
 284 0005 15       		.byte	21
 285 0006 AE       		.byte	-82
 286 0007 15       		.byte	21
 287 0008 40       		.byte	64
 288 0009 15       		.byte	21
 289 000a A0       		.byte	-96
 290 000b 15       		.byte	21
 291 000c C8       		.byte	-56
 292 000d 15       		.byte	21
 293 000e A6       		.byte	-90
 294 000f 15       		.byte	21
 295 0010 A3       		.byte	-93
 296 0011 15       		.byte	21
ARM GAS  /var/folders/v3/wysfpd052nz8jkbx04pk0ym80000gn/T//cccfZg4k.s 			page 10


 297 0012 2C       		.byte	44
 298 0013 FE       		.byte	-2
 299 0014 32       		.byte	50
 300 0015 15       		.byte	21
 301 0016 2E       		.byte	46
 302 0017 FE       		.byte	-2
 303 0018 32       		.byte	50
 304 0019 15       		.byte	21
 305 001a 2F       		.byte	47
 306 001b FE       		.byte	-2
 307 001c 32       		.byte	50
 308 001d 15       		.byte	21
 309 001e 20       		.byte	32
 310 001f 15       		.byte	21
 311 0020 81       		.byte	-127
 312 0021 16       		.byte	22
 313 0022 19       		.byte	25
 314 0023 15       		.byte	21
 315 0024 AE       		.byte	-82
 316 0025 15       		.byte	21
 317 0026 A5       		.byte	-91
 318 0027 19       		.byte	25
 319 0028 FF       		.byte	-1
 320              		.section	.rodata.u8x8_d_ist3020_erc19264_powersave0_seq,"a",%progbits
 321              		.align	2
 322              		.set	.LANCHOR2,. + 0
 325              	u8x8_d_ist3020_erc19264_powersave0_seq:
 326 0000 18       		.byte	24
 327 0001 15       		.byte	21
 328 0002 A4       		.byte	-92
 329 0003 15       		.byte	21
 330 0004 AF       		.byte	-81
 331 0005 19       		.byte	25
 332 0006 FF       		.byte	-1
 333              		.section	.rodata.u8x8_d_ist3020_erc19264_powersave1_seq,"a",%progbits
 334              		.align	2
 335              		.set	.LANCHOR3,. + 0
 338              	u8x8_d_ist3020_erc19264_powersave1_seq:
 339 0000 18       		.byte	24
 340 0001 15       		.byte	21
 341 0002 AE       		.byte	-82
 342 0003 15       		.byte	21
 343 0004 A5       		.byte	-91
 344 0005 19       		.byte	25
 345 0006 FF       		.byte	-1
 346              		.section	.rodata.u8x8_ist3020_erc19264_display_info,"a",%progbits
 347              		.align	2
 348              		.set	.LANCHOR0,. + 0
 351              	u8x8_ist3020_erc19264_display_info:
 352 0000 00       		.byte	0
 353 0001 01       		.byte	1
 354 0002 96       		.byte	-106
 355 0003 96       		.byte	-106
 356 0004 01       		.byte	1
 357 0005 01       		.byte	1
 358 0006 64       		.byte	100
 359 0007 64       		.byte	100
ARM GAS  /var/folders/v3/wysfpd052nz8jkbx04pk0ym80000gn/T//cccfZg4k.s 			page 11


 360 0008 00093D00 		.word	4000000
 361 000c 00       		.byte	0
 362 000d 04       		.byte	4
 363 000e 28       		.byte	40
 364 000f 3C       		.byte	60
 365 0010 18       		.byte	24
 366 0011 08       		.byte	8
 367 0012 00       		.byte	0
 368 0013 40       		.byte	64
 369 0014 C000     		.short	192
 370 0016 4000     		.short	64
 371              		.text
 372              	.Letext0:
 373              		.file 2 "/usr/local/gcc-arm-none-eabi-7-2018-q2-update/arm-none-eabi/include/machine/_default_type
 374              		.file 3 "/usr/local/gcc-arm-none-eabi-7-2018-q2-update/arm-none-eabi/include/sys/_stdint.h"
 375              		.file 4 "/Users/imashio/Electronics/ARM/_Library/u8x8.h"
ARM GAS  /var/folders/v3/wysfpd052nz8jkbx04pk0ym80000gn/T//cccfZg4k.s 			page 12

