ARM GAS  /var/folders/v3/wysfpd052nz8jkbx04pk0ym80000gn/T//cc2CqxCI.s 			page 1


   1              		.cpu cortex-m4
   2              		.eabi_attribute 27, 1
   3              		.eabi_attribute 28, 1
   4              		.eabi_attribute 20, 1
   5              		.eabi_attribute 21, 1
   6              		.eabi_attribute 23, 3
   7              		.eabi_attribute 24, 1
   8              		.eabi_attribute 25, 1
   9              		.eabi_attribute 26, 1
  10              		.eabi_attribute 30, 1
  11              		.eabi_attribute 34, 1
  12              		.eabi_attribute 18, 4
  13              		.file	"u8x8_debounce.c"
  14              		.text
  15              	.Ltext0:
  16              		.cfi_sections	.debug_frame
  17              		.section	.text.u8x8_find_first_diff,"ax",%progbits
  18              		.align	1
  19              		.syntax unified
  20              		.thumb
  21              		.thumb_func
  22              		.fpu fpv4-sp-d16
  24              	u8x8_find_first_diff:
  25              	.LFB1:
  26              		.file 1 "/Users/imashio/Electronics/ARM/_Library/u8x8_debounce.c"
   1:/Users/imashio/Electronics/ARM/_Library/u8x8_debounce.c **** /*
   2:/Users/imashio/Electronics/ARM/_Library/u8x8_debounce.c **** 
   3:/Users/imashio/Electronics/ARM/_Library/u8x8_debounce.c ****   u8x8_debounce.c
   4:/Users/imashio/Electronics/ARM/_Library/u8x8_debounce.c ****   
   5:/Users/imashio/Electronics/ARM/_Library/u8x8_debounce.c ****   Key/button simple debounce algorithm (Addon for u8x8)
   6:/Users/imashio/Electronics/ARM/_Library/u8x8_debounce.c ****   
   7:/Users/imashio/Electronics/ARM/_Library/u8x8_debounce.c ****   Universal 8bit Graphics Library (https://github.com/olikraus/u8g2/)
   8:/Users/imashio/Electronics/ARM/_Library/u8x8_debounce.c **** 
   9:/Users/imashio/Electronics/ARM/_Library/u8x8_debounce.c ****   Copyright (c) 2016, olikraus@gmail.com
  10:/Users/imashio/Electronics/ARM/_Library/u8x8_debounce.c ****   All rights reserved.
  11:/Users/imashio/Electronics/ARM/_Library/u8x8_debounce.c **** 
  12:/Users/imashio/Electronics/ARM/_Library/u8x8_debounce.c ****   Redistribution and use in source and binary forms, with or without modification, 
  13:/Users/imashio/Electronics/ARM/_Library/u8x8_debounce.c ****   are permitted provided that the following conditions are met:
  14:/Users/imashio/Electronics/ARM/_Library/u8x8_debounce.c **** 
  15:/Users/imashio/Electronics/ARM/_Library/u8x8_debounce.c ****   * Redistributions of source code must retain the above copyright notice, this list 
  16:/Users/imashio/Electronics/ARM/_Library/u8x8_debounce.c ****     of conditions and the following disclaimer.
  17:/Users/imashio/Electronics/ARM/_Library/u8x8_debounce.c ****     
  18:/Users/imashio/Electronics/ARM/_Library/u8x8_debounce.c ****   * Redistributions in binary form must reproduce the above copyright notice, this 
  19:/Users/imashio/Electronics/ARM/_Library/u8x8_debounce.c ****     list of conditions and the following disclaimer in the documentation and/or other 
  20:/Users/imashio/Electronics/ARM/_Library/u8x8_debounce.c ****     materials provided with the distribution.
  21:/Users/imashio/Electronics/ARM/_Library/u8x8_debounce.c **** 
  22:/Users/imashio/Electronics/ARM/_Library/u8x8_debounce.c ****   THIS SOFTWARE IS PROVIDED BY THE COPYRIGHT HOLDERS AND 
  23:/Users/imashio/Electronics/ARM/_Library/u8x8_debounce.c ****   CONTRIBUTORS "AS IS" AND ANY EXPRESS OR IMPLIED WARRANTIES, 
  24:/Users/imashio/Electronics/ARM/_Library/u8x8_debounce.c ****   INCLUDING, BUT NOT LIMITED TO, THE IMPLIED WARRANTIES OF 
  25:/Users/imashio/Electronics/ARM/_Library/u8x8_debounce.c ****   MERCHANTABILITY AND FITNESS FOR A PARTICULAR PURPOSE ARE 
  26:/Users/imashio/Electronics/ARM/_Library/u8x8_debounce.c ****   DISCLAIMED. IN NO EVENT SHALL THE COPYRIGHT HOLDER OR 
  27:/Users/imashio/Electronics/ARM/_Library/u8x8_debounce.c ****   CONTRIBUTORS BE LIABLE FOR ANY DIRECT, INDIRECT, INCIDENTAL, 
  28:/Users/imashio/Electronics/ARM/_Library/u8x8_debounce.c ****   SPECIAL, EXEMPLARY, OR CONSEQUENTIAL DAMAGES (INCLUDING, BUT 
  29:/Users/imashio/Electronics/ARM/_Library/u8x8_debounce.c ****   NOT LIMITED TO, PROCUREMENT OF SUBSTITUTE GOODS OR SERVICES; 
  30:/Users/imashio/Electronics/ARM/_Library/u8x8_debounce.c ****   LOSS OF USE, DATA, OR PROFITS; OR BUSINESS INTERRUPTION) HOWEVER 
  31:/Users/imashio/Electronics/ARM/_Library/u8x8_debounce.c ****   CAUSED AND ON ANY THEORY OF LIABILITY, WHETHER IN CONTRACT, 
  32:/Users/imashio/Electronics/ARM/_Library/u8x8_debounce.c ****   STRICT LIABILITY, OR TORT (INCLUDING NEGLIGENCE OR OTHERWISE) 
ARM GAS  /var/folders/v3/wysfpd052nz8jkbx04pk0ym80000gn/T//cc2CqxCI.s 			page 2


  33:/Users/imashio/Electronics/ARM/_Library/u8x8_debounce.c ****   ARISING IN ANY WAY OUT OF THE USE OF THIS SOFTWARE, EVEN IF 
  34:/Users/imashio/Electronics/ARM/_Library/u8x8_debounce.c ****   ADVISED OF THE POSSIBILITY OF SUCH DAMAGE.  
  35:/Users/imashio/Electronics/ARM/_Library/u8x8_debounce.c ****   
  36:/Users/imashio/Electronics/ARM/_Library/u8x8_debounce.c **** */
  37:/Users/imashio/Electronics/ARM/_Library/u8x8_debounce.c **** 
  38:/Users/imashio/Electronics/ARM/_Library/u8x8_debounce.c **** #include "u8x8.h"
  39:/Users/imashio/Electronics/ARM/_Library/u8x8_debounce.c **** 
  40:/Users/imashio/Electronics/ARM/_Library/u8x8_debounce.c **** static uint8_t u8x8_read_pin_state(u8x8_t *u8x8)
  41:/Users/imashio/Electronics/ARM/_Library/u8x8_debounce.c **** {
  42:/Users/imashio/Electronics/ARM/_Library/u8x8_debounce.c ****   uint8_t i;
  43:/Users/imashio/Electronics/ARM/_Library/u8x8_debounce.c ****   uint8_t pin_state;
  44:/Users/imashio/Electronics/ARM/_Library/u8x8_debounce.c ****   
  45:/Users/imashio/Electronics/ARM/_Library/u8x8_debounce.c ****   pin_state = 255;	/* be compatible with the setup of the default pin setup, which is 255 */
  46:/Users/imashio/Electronics/ARM/_Library/u8x8_debounce.c ****   for( i = 0; i < U8X8_PIN_INPUT_CNT; i++ )
  47:/Users/imashio/Electronics/ARM/_Library/u8x8_debounce.c ****   {
  48:/Users/imashio/Electronics/ARM/_Library/u8x8_debounce.c ****     pin_state <<= 1;
  49:/Users/imashio/Electronics/ARM/_Library/u8x8_debounce.c ****     
  50:/Users/imashio/Electronics/ARM/_Library/u8x8_debounce.c ****     /* the callback function should put the return value into this variable */
  51:/Users/imashio/Electronics/ARM/_Library/u8x8_debounce.c ****     u8x8->gpio_result = 1;
  52:/Users/imashio/Electronics/ARM/_Library/u8x8_debounce.c ****     u8x8_gpio_call(u8x8, U8X8_MSG_GPIO(i+U8X8_PIN_OUTPUT_CNT), 0);
  53:/Users/imashio/Electronics/ARM/_Library/u8x8_debounce.c ****     pin_state |= u8x8->gpio_result & 1;
  54:/Users/imashio/Electronics/ARM/_Library/u8x8_debounce.c ****   }
  55:/Users/imashio/Electronics/ARM/_Library/u8x8_debounce.c ****   
  56:/Users/imashio/Electronics/ARM/_Library/u8x8_debounce.c ****   return pin_state;
  57:/Users/imashio/Electronics/ARM/_Library/u8x8_debounce.c **** }
  58:/Users/imashio/Electronics/ARM/_Library/u8x8_debounce.c **** 
  59:/Users/imashio/Electronics/ARM/_Library/u8x8_debounce.c **** /*
  60:/Users/imashio/Electronics/ARM/_Library/u8x8_debounce.c ****   return 0 to U8X8_PIN_INPUT_CNT-1 if there is a difference
  61:/Users/imashio/Electronics/ARM/_Library/u8x8_debounce.c ****   return U8X8_PIN_INPUT_CNT if there is no difference
  62:/Users/imashio/Electronics/ARM/_Library/u8x8_debounce.c **** */
  63:/Users/imashio/Electronics/ARM/_Library/u8x8_debounce.c **** static uint8_t u8x8_find_first_diff(uint8_t a, uint8_t b)
  64:/Users/imashio/Electronics/ARM/_Library/u8x8_debounce.c **** {
  27              		.loc 1 64 0
  28              		.cfi_startproc
  29              		@ args = 0, pretend = 0, frame = 0
  30              		@ frame_needed = 0, uses_anonymous_args = 0
  31              		@ link register save eliminated.
  32              	.LVL0:
  33 0000 10B4     		push	{r4}
  34              	.LCFI0:
  35              		.cfi_def_cfa_offset 4
  36              		.cfi_offset 4, -4
  37              	.LVL1:
  65:/Users/imashio/Electronics/ARM/_Library/u8x8_debounce.c ****   uint8_t mask;
  66:/Users/imashio/Electronics/ARM/_Library/u8x8_debounce.c ****   uint8_t i;
  67:/Users/imashio/Electronics/ARM/_Library/u8x8_debounce.c ****   mask = 1;
  68:/Users/imashio/Electronics/ARM/_Library/u8x8_debounce.c ****   i = U8X8_PIN_INPUT_CNT;
  38              		.loc 1 68 0
  39 0002 0623     		movs	r3, #6
  67:/Users/imashio/Electronics/ARM/_Library/u8x8_debounce.c ****   i = U8X8_PIN_INPUT_CNT;
  40              		.loc 1 67 0
  41 0004 0122     		movs	r2, #1
  42              	.LVL2:
  43              	.L3:
  69:/Users/imashio/Electronics/ARM/_Library/u8x8_debounce.c ****   do
  70:/Users/imashio/Electronics/ARM/_Library/u8x8_debounce.c ****   {
  71:/Users/imashio/Electronics/ARM/_Library/u8x8_debounce.c ****     i--;
ARM GAS  /var/folders/v3/wysfpd052nz8jkbx04pk0ym80000gn/T//cc2CqxCI.s 			page 3


  44              		.loc 1 71 0
  45 0006 013B     		subs	r3, r3, #1
  46              	.LVL3:
  47 0008 DBB2     		uxtb	r3, r3
  48              	.LVL4:
  72:/Users/imashio/Electronics/ARM/_Library/u8x8_debounce.c ****     if ( (a & mask) != (b & mask) )
  49              		.loc 1 72 0
  50 000a 80EA0104 		eor	r4, r0, r1
  51 000e 2242     		tst	r2, r4
  52 0010 04D1     		bne	.L2
  73:/Users/imashio/Electronics/ARM/_Library/u8x8_debounce.c ****       return i;
  74:/Users/imashio/Electronics/ARM/_Library/u8x8_debounce.c ****     mask <<= 1;
  53              		.loc 1 74 0
  54 0012 5200     		lsls	r2, r2, #1
  55              	.LVL5:
  56 0014 D2B2     		uxtb	r2, r2
  57              	.LVL6:
  75:/Users/imashio/Electronics/ARM/_Library/u8x8_debounce.c ****   } while( i > 0 );
  58              		.loc 1 75 0
  59 0016 002B     		cmp	r3, #0
  60 0018 F5D1     		bne	.L3
  76:/Users/imashio/Electronics/ARM/_Library/u8x8_debounce.c ****   return U8X8_PIN_INPUT_CNT;
  61              		.loc 1 76 0
  62 001a 0623     		movs	r3, #6
  63              	.LVL7:
  64              	.L2:
  77:/Users/imashio/Electronics/ARM/_Library/u8x8_debounce.c **** }
  65              		.loc 1 77 0
  66 001c 1846     		mov	r0, r3
  67              	.LVL8:
  68 001e 5DF8044B 		ldr	r4, [sp], #4
  69              	.LCFI1:
  70              		.cfi_restore 4
  71              		.cfi_def_cfa_offset 0
  72 0022 7047     		bx	lr
  73              		.cfi_endproc
  74              	.LFE1:
  76              		.section	.text.u8x8_read_pin_state,"ax",%progbits
  77              		.align	1
  78              		.syntax unified
  79              		.thumb
  80              		.thumb_func
  81              		.fpu fpv4-sp-d16
  83              	u8x8_read_pin_state:
  84              	.LFB0:
  41:/Users/imashio/Electronics/ARM/_Library/u8x8_debounce.c ****   uint8_t i;
  85              		.loc 1 41 0
  86              		.cfi_startproc
  87              		@ args = 0, pretend = 0, frame = 0
  88              		@ frame_needed = 0, uses_anonymous_args = 0
  89              	.LVL9:
  90 0000 70B5     		push	{r4, r5, r6, lr}
  91              	.LCFI2:
  92              		.cfi_def_cfa_offset 16
  93              		.cfi_offset 4, -16
  94              		.cfi_offset 5, -12
  95              		.cfi_offset 6, -8
ARM GAS  /var/folders/v3/wysfpd052nz8jkbx04pk0ym80000gn/T//cc2CqxCI.s 			page 4


  96              		.cfi_offset 14, -4
  97 0002 0646     		mov	r6, r0
  98              	.LVL10:
  45:/Users/imashio/Electronics/ARM/_Library/u8x8_debounce.c ****   for( i = 0; i < U8X8_PIN_INPUT_CNT; i++ )
  99              		.loc 1 45 0
 100 0004 FF20     		movs	r0, #255
 101              	.LVL11:
  46:/Users/imashio/Electronics/ARM/_Library/u8x8_debounce.c ****   {
 102              		.loc 1 46 0
 103 0006 0024     		movs	r4, #0
 104 0008 12E0     		b	.L6
 105              	.LVL12:
 106              	.L7:
  48:/Users/imashio/Electronics/ARM/_Library/u8x8_debounce.c ****     
 107              		.loc 1 48 0 discriminator 3
 108 000a 4000     		lsls	r0, r0, #1
 109              	.LVL13:
 110 000c C5B2     		uxtb	r5, r0
 111              	.LVL14:
  51:/Users/imashio/Electronics/ARM/_Library/u8x8_debounce.c ****     u8x8_gpio_call(u8x8, U8X8_MSG_GPIO(i+U8X8_PIN_OUTPUT_CNT), 0);
 112              		.loc 1 51 0 discriminator 3
 113 000e 0123     		movs	r3, #1
 114 0010 86F82430 		strb	r3, [r6, #36]
  52:/Users/imashio/Electronics/ARM/_Library/u8x8_debounce.c ****     pin_state |= u8x8->gpio_result & 1;
 115              		.loc 1 52 0 discriminator 3
 116 0014 04F15001 		add	r1, r4, #80
 117 0018 0022     		movs	r2, #0
 118 001a C9B2     		uxtb	r1, r1
 119 001c 3046     		mov	r0, r6
 120 001e FFF7FEFF 		bl	u8x8_gpio_call
 121              	.LVL15:
  53:/Users/imashio/Electronics/ARM/_Library/u8x8_debounce.c ****   }
 122              		.loc 1 53 0 discriminator 3
 123 0022 96F92400 		ldrsb	r0, [r6, #36]
 124 0026 00F00100 		and	r0, r0, #1
 125 002a 2843     		orrs	r0, r0, r5
 126              	.LVL16:
  46:/Users/imashio/Electronics/ARM/_Library/u8x8_debounce.c ****   {
 127              		.loc 1 46 0 discriminator 3
 128 002c 0134     		adds	r4, r4, #1
 129              	.LVL17:
 130 002e E4B2     		uxtb	r4, r4
 131              	.LVL18:
 132              	.L6:
  46:/Users/imashio/Electronics/ARM/_Library/u8x8_debounce.c ****   {
 133              		.loc 1 46 0 is_stmt 0 discriminator 1
 134 0030 052C     		cmp	r4, #5
 135 0032 EAD9     		bls	.L7
  57:/Users/imashio/Electronics/ARM/_Library/u8x8_debounce.c **** 
 136              		.loc 1 57 0 is_stmt 1
 137 0034 70BD     		pop	{r4, r5, r6, pc}
 138              		.cfi_endproc
 139              	.LFE0:
 141              		.section	.text.u8x8_GetMenuEvent,"ax",%progbits
 142              		.align	1
 143              		.weak	u8x8_GetMenuEvent
 144              		.syntax unified
ARM GAS  /var/folders/v3/wysfpd052nz8jkbx04pk0ym80000gn/T//cc2CqxCI.s 			page 5


 145              		.thumb
 146              		.thumb_func
 147              		.fpu fpv4-sp-d16
 149              	u8x8_GetMenuEvent:
 150              	.LFB2:
  78:/Users/imashio/Electronics/ARM/_Library/u8x8_debounce.c **** 
  79:/Users/imashio/Electronics/ARM/_Library/u8x8_debounce.c **** /*
  80:/Users/imashio/Electronics/ARM/_Library/u8x8_debounce.c ****   State A:
  81:/Users/imashio/Electronics/ARM/_Library/u8x8_debounce.c ****     u8x8->debounce_last_pin_state == current_state 
  82:/Users/imashio/Electronics/ARM/_Library/u8x8_debounce.c ****       --> State A
  83:/Users/imashio/Electronics/ARM/_Library/u8x8_debounce.c ****     u8x8->debounce_last_pin_state != current_state 
  84:/Users/imashio/Electronics/ARM/_Library/u8x8_debounce.c ****       --> u8x8->debounce_last_pin_state = current_state 
  85:/Users/imashio/Electronics/ARM/_Library/u8x8_debounce.c ****       --> State B + cnt
  86:/Users/imashio/Electronics/ARM/_Library/u8x8_debounce.c **** 
  87:/Users/imashio/Electronics/ARM/_Library/u8x8_debounce.c ****   State B + cnt
  88:/Users/imashio/Electronics/ARM/_Library/u8x8_debounce.c ****     --> state--
  89:/Users/imashio/Electronics/ARM/_Library/u8x8_debounce.c **** 
  90:/Users/imashio/Electronics/ARM/_Library/u8x8_debounce.c ****   State B
  91:/Users/imashio/Electronics/ARM/_Library/u8x8_debounce.c ****     u8x8->debounce_last_pin_state == current_state 
  92:/Users/imashio/Electronics/ARM/_Library/u8x8_debounce.c ****       --> keypress detected
  93:/Users/imashio/Electronics/ARM/_Library/u8x8_debounce.c ****       --> State C
  94:/Users/imashio/Electronics/ARM/_Library/u8x8_debounce.c ****     u8x8->debounce_last_pin_state != current_state 
  95:/Users/imashio/Electronics/ARM/_Library/u8x8_debounce.c ****       --> State A
  96:/Users/imashio/Electronics/ARM/_Library/u8x8_debounce.c **** 
  97:/Users/imashio/Electronics/ARM/_Library/u8x8_debounce.c ****   State C
  98:/Users/imashio/Electronics/ARM/_Library/u8x8_debounce.c ****     u8x8->debounce_last_pin_state == current_state 
  99:/Users/imashio/Electronics/ARM/_Library/u8x8_debounce.c ****       --> State C
 100:/Users/imashio/Electronics/ARM/_Library/u8x8_debounce.c ****     u8x8->debounce_last_pin_state != current_state 
 101:/Users/imashio/Electronics/ARM/_Library/u8x8_debounce.c ****       --> State A
 102:/Users/imashio/Electronics/ARM/_Library/u8x8_debounce.c **** 
 103:/Users/imashio/Electronics/ARM/_Library/u8x8_debounce.c **** */
 104:/Users/imashio/Electronics/ARM/_Library/u8x8_debounce.c **** 
 105:/Users/imashio/Electronics/ARM/_Library/u8x8_debounce.c **** #ifdef __unix__xxxxxx_THIS_IS_DISABLED
 106:/Users/imashio/Electronics/ARM/_Library/u8x8_debounce.c **** 
 107:/Users/imashio/Electronics/ARM/_Library/u8x8_debounce.c **** #include <stdio.h>
 108:/Users/imashio/Electronics/ARM/_Library/u8x8_debounce.c **** #include <stdlib.h>
 109:/Users/imashio/Electronics/ARM/_Library/u8x8_debounce.c **** uint8_t u8x8_GetMenuEvent(u8x8_t *u8x8)
 110:/Users/imashio/Electronics/ARM/_Library/u8x8_debounce.c **** {
 111:/Users/imashio/Electronics/ARM/_Library/u8x8_debounce.c ****     int c;
 112:/Users/imashio/Electronics/ARM/_Library/u8x8_debounce.c ****     c = getc(stdin);
 113:/Users/imashio/Electronics/ARM/_Library/u8x8_debounce.c ****     switch(c)
 114:/Users/imashio/Electronics/ARM/_Library/u8x8_debounce.c ****     {
 115:/Users/imashio/Electronics/ARM/_Library/u8x8_debounce.c ****         case 'n':
 116:/Users/imashio/Electronics/ARM/_Library/u8x8_debounce.c ****             return  U8X8_MSG_GPIO_MENU_NEXT;
 117:/Users/imashio/Electronics/ARM/_Library/u8x8_debounce.c ****         case 'p':
 118:/Users/imashio/Electronics/ARM/_Library/u8x8_debounce.c ****             return  U8X8_MSG_GPIO_MENU_PREV;
 119:/Users/imashio/Electronics/ARM/_Library/u8x8_debounce.c ****         case 's':
 120:/Users/imashio/Electronics/ARM/_Library/u8x8_debounce.c ****             return  U8X8_MSG_GPIO_MENU_SELECT;
 121:/Users/imashio/Electronics/ARM/_Library/u8x8_debounce.c ****         case 'h':
 122:/Users/imashio/Electronics/ARM/_Library/u8x8_debounce.c ****             return  U8X8_MSG_GPIO_MENU_HOME;
 123:/Users/imashio/Electronics/ARM/_Library/u8x8_debounce.c ****         case 'x':
 124:/Users/imashio/Electronics/ARM/_Library/u8x8_debounce.c ****             exit(0);
 125:/Users/imashio/Electronics/ARM/_Library/u8x8_debounce.c ****         default:
 126:/Users/imashio/Electronics/ARM/_Library/u8x8_debounce.c ****             puts("press n, p, s, h or x");
 127:/Users/imashio/Electronics/ARM/_Library/u8x8_debounce.c ****             break;
 128:/Users/imashio/Electronics/ARM/_Library/u8x8_debounce.c ****     }
 129:/Users/imashio/Electronics/ARM/_Library/u8x8_debounce.c ****     return 0;
ARM GAS  /var/folders/v3/wysfpd052nz8jkbx04pk0ym80000gn/T//cc2CqxCI.s 			page 6


 130:/Users/imashio/Electronics/ARM/_Library/u8x8_debounce.c **** }
 131:/Users/imashio/Electronics/ARM/_Library/u8x8_debounce.c **** 
 132:/Users/imashio/Electronics/ARM/_Library/u8x8_debounce.c **** 
 133:/Users/imashio/Electronics/ARM/_Library/u8x8_debounce.c **** #else  /* __unix__ */
 134:/Users/imashio/Electronics/ARM/_Library/u8x8_debounce.c **** 
 135:/Users/imashio/Electronics/ARM/_Library/u8x8_debounce.c **** 
 136:/Users/imashio/Electronics/ARM/_Library/u8x8_debounce.c **** #define U8X8_DEBOUNCE_WAIT 2
 137:/Users/imashio/Electronics/ARM/_Library/u8x8_debounce.c **** /* do debounce and return a GPIO msg which indicates the event */
 138:/Users/imashio/Electronics/ARM/_Library/u8x8_debounce.c **** /* returns 0, if there is no event */
 139:/Users/imashio/Electronics/ARM/_Library/u8x8_debounce.c **** #if defined(__GNUC__) && !defined(__CYGWIN__)
 140:/Users/imashio/Electronics/ARM/_Library/u8x8_debounce.c **** # pragma weak  u8x8_GetMenuEvent
 141:/Users/imashio/Electronics/ARM/_Library/u8x8_debounce.c **** #endif
 142:/Users/imashio/Electronics/ARM/_Library/u8x8_debounce.c **** uint8_t u8x8_GetMenuEvent(u8x8_t *u8x8)
 143:/Users/imashio/Electronics/ARM/_Library/u8x8_debounce.c **** {
 151              		.loc 1 143 0
 152              		.cfi_startproc
 153              		@ args = 0, pretend = 0, frame = 0
 154              		@ frame_needed = 0, uses_anonymous_args = 0
 155              	.LVL19:
 156 0000 10B5     		push	{r4, lr}
 157              	.LCFI3:
 158              		.cfi_def_cfa_offset 8
 159              		.cfi_offset 4, -8
 160              		.cfi_offset 14, -4
 161 0002 0446     		mov	r4, r0
 162              	.LVL20:
 144:/Users/imashio/Electronics/ARM/_Library/u8x8_debounce.c ****   uint8_t pin_state;
 145:/Users/imashio/Electronics/ARM/_Library/u8x8_debounce.c ****   uint8_t result_msg = 0;	/* invalid message, no event */
 146:/Users/imashio/Electronics/ARM/_Library/u8x8_debounce.c ****   
 147:/Users/imashio/Electronics/ARM/_Library/u8x8_debounce.c ****   pin_state = u8x8_read_pin_state(u8x8);
 163              		.loc 1 147 0
 164 0004 FFF7FEFF 		bl	u8x8_read_pin_state
 165              	.LVL21:
 148:/Users/imashio/Electronics/ARM/_Library/u8x8_debounce.c ****   
 149:/Users/imashio/Electronics/ARM/_Library/u8x8_debounce.c ****   /* States A, B, C & D are encoded in the upper 4 bit*/
 150:/Users/imashio/Electronics/ARM/_Library/u8x8_debounce.c ****   switch(u8x8->debounce_state)
 166              		.loc 1 150 0
 167 0008 94F82730 		ldrb	r3, [r4, #39]	@ zero_extendqisi2
 168 000c 102B     		cmp	r3, #16
 169 000e 14D0     		beq	.L11
 170 0010 09D9     		bls	.L22
 171 0012 202B     		cmp	r3, #32
 172 0014 20D0     		beq	.L14
 173 0016 302B     		cmp	r3, #48
 174 0018 36D1     		bne	.L10
 151:/Users/imashio/Electronics/ARM/_Library/u8x8_debounce.c ****   {
 152:/Users/imashio/Electronics/ARM/_Library/u8x8_debounce.c ****     case 0x00:	/* State A, default state */
 153:/Users/imashio/Electronics/ARM/_Library/u8x8_debounce.c ****       if ( u8x8->debounce_default_pin_state != pin_state )
 154:/Users/imashio/Electronics/ARM/_Library/u8x8_debounce.c ****       {
 155:/Users/imashio/Electronics/ARM/_Library/u8x8_debounce.c **** 	//u8x8->debounce_last_pin_state = pin_state;
 156:/Users/imashio/Electronics/ARM/_Library/u8x8_debounce.c **** 	u8x8->debounce_state = 0x010 + U8X8_DEBOUNCE_WAIT;
 157:/Users/imashio/Electronics/ARM/_Library/u8x8_debounce.c ****       }
 158:/Users/imashio/Electronics/ARM/_Library/u8x8_debounce.c ****       break;
 159:/Users/imashio/Electronics/ARM/_Library/u8x8_debounce.c ****     case 0x10:	/* State B */
 160:/Users/imashio/Electronics/ARM/_Library/u8x8_debounce.c ****       //if ( u8x8->debounce_last_pin_state != pin_state )
 161:/Users/imashio/Electronics/ARM/_Library/u8x8_debounce.c ****       if ( u8x8->debounce_default_pin_state == pin_state )
 162:/Users/imashio/Electronics/ARM/_Library/u8x8_debounce.c ****       {
ARM GAS  /var/folders/v3/wysfpd052nz8jkbx04pk0ym80000gn/T//cc2CqxCI.s 			page 7


 163:/Users/imashio/Electronics/ARM/_Library/u8x8_debounce.c **** 	u8x8->debounce_state = 0x00;	/* back to state A */
 164:/Users/imashio/Electronics/ARM/_Library/u8x8_debounce.c ****       }
 165:/Users/imashio/Electronics/ARM/_Library/u8x8_debounce.c ****       else
 166:/Users/imashio/Electronics/ARM/_Library/u8x8_debounce.c ****       {
 167:/Users/imashio/Electronics/ARM/_Library/u8x8_debounce.c **** 	/* keypress detected */
 168:/Users/imashio/Electronics/ARM/_Library/u8x8_debounce.c **** 	u8x8->debounce_last_pin_state = pin_state;
 169:/Users/imashio/Electronics/ARM/_Library/u8x8_debounce.c **** 	//result_msg = U8X8_MSG_GPIO_MENU_NEXT;
 170:/Users/imashio/Electronics/ARM/_Library/u8x8_debounce.c **** 	u8x8->debounce_state = 0x020 + U8X8_DEBOUNCE_WAIT;	/* got to state C */	
 171:/Users/imashio/Electronics/ARM/_Library/u8x8_debounce.c ****       }
 172:/Users/imashio/Electronics/ARM/_Library/u8x8_debounce.c ****       break;
 173:/Users/imashio/Electronics/ARM/_Library/u8x8_debounce.c ****       
 174:/Users/imashio/Electronics/ARM/_Library/u8x8_debounce.c ****     case 0x20:	/* State C */
 175:/Users/imashio/Electronics/ARM/_Library/u8x8_debounce.c ****       if ( u8x8->debounce_last_pin_state != pin_state )
 176:/Users/imashio/Electronics/ARM/_Library/u8x8_debounce.c ****       {
 177:/Users/imashio/Electronics/ARM/_Library/u8x8_debounce.c **** 	u8x8->debounce_state = 0x00;	/* back to state A */
 178:/Users/imashio/Electronics/ARM/_Library/u8x8_debounce.c ****       }
 179:/Users/imashio/Electronics/ARM/_Library/u8x8_debounce.c ****       else
 180:/Users/imashio/Electronics/ARM/_Library/u8x8_debounce.c ****       {
 181:/Users/imashio/Electronics/ARM/_Library/u8x8_debounce.c **** 	u8x8->debounce_state = 0x030;	/* got to state D */	
 182:/Users/imashio/Electronics/ARM/_Library/u8x8_debounce.c ****       }
 183:/Users/imashio/Electronics/ARM/_Library/u8x8_debounce.c ****       break;
 184:/Users/imashio/Electronics/ARM/_Library/u8x8_debounce.c ****       
 185:/Users/imashio/Electronics/ARM/_Library/u8x8_debounce.c ****     case 0x30:	/* State D */
 186:/Users/imashio/Electronics/ARM/_Library/u8x8_debounce.c ****       /* wait until key release */
 187:/Users/imashio/Electronics/ARM/_Library/u8x8_debounce.c ****       if ( u8x8->debounce_default_pin_state == pin_state )
 175              		.loc 1 187 0
 176 001a 94F82530 		ldrb	r3, [r4, #37]	@ zero_extendqisi2
 177 001e 8342     		cmp	r3, r0
 178 0020 27D0     		beq	.L23
 145:/Users/imashio/Electronics/ARM/_Library/u8x8_debounce.c ****   
 179              		.loc 1 145 0
 180 0022 0020     		movs	r0, #0
 181              	.LVL22:
 182 0024 34E0     		b	.L16
 183              	.LVL23:
 184              	.L22:
 150:/Users/imashio/Electronics/ARM/_Library/u8x8_debounce.c ****   {
 185              		.loc 1 150 0
 186 0026 7BBB     		cbnz	r3, .L10
 153:/Users/imashio/Electronics/ARM/_Library/u8x8_debounce.c ****       {
 187              		.loc 1 153 0
 188 0028 94F82530 		ldrb	r3, [r4, #37]	@ zero_extendqisi2
 189 002c 8342     		cmp	r3, r0
 190 002e 30D0     		beq	.L19
 156:/Users/imashio/Electronics/ARM/_Library/u8x8_debounce.c ****       }
 191              		.loc 1 156 0
 192 0030 1223     		movs	r3, #18
 193 0032 84F82730 		strb	r3, [r4, #39]
 145:/Users/imashio/Electronics/ARM/_Library/u8x8_debounce.c ****   
 194              		.loc 1 145 0
 195 0036 0020     		movs	r0, #0
 196              	.LVL24:
 197 0038 2AE0     		b	.L16
 198              	.LVL25:
 199              	.L11:
 161:/Users/imashio/Electronics/ARM/_Library/u8x8_debounce.c ****       {
 200              		.loc 1 161 0
ARM GAS  /var/folders/v3/wysfpd052nz8jkbx04pk0ym80000gn/T//cc2CqxCI.s 			page 8


 201 003a 94F82530 		ldrb	r3, [r4, #37]	@ zero_extendqisi2
 202 003e 8342     		cmp	r3, r0
 203 0040 06D0     		beq	.L24
 168:/Users/imashio/Electronics/ARM/_Library/u8x8_debounce.c **** 	//result_msg = U8X8_MSG_GPIO_MENU_NEXT;
 204              		.loc 1 168 0
 205 0042 84F82600 		strb	r0, [r4, #38]
 170:/Users/imashio/Electronics/ARM/_Library/u8x8_debounce.c ****       }
 206              		.loc 1 170 0
 207 0046 2223     		movs	r3, #34
 208 0048 84F82730 		strb	r3, [r4, #39]
 145:/Users/imashio/Electronics/ARM/_Library/u8x8_debounce.c ****   
 209              		.loc 1 145 0
 210 004c 0020     		movs	r0, #0
 211              	.LVL26:
 212 004e 1FE0     		b	.L16
 213              	.LVL27:
 214              	.L24:
 163:/Users/imashio/Electronics/ARM/_Library/u8x8_debounce.c ****       }
 215              		.loc 1 163 0
 216 0050 0020     		movs	r0, #0
 217              	.LVL28:
 218 0052 84F82700 		strb	r0, [r4, #39]
 219 0056 1BE0     		b	.L16
 220              	.LVL29:
 221              	.L14:
 175:/Users/imashio/Electronics/ARM/_Library/u8x8_debounce.c ****       {
 222              		.loc 1 175 0
 223 0058 94F82630 		ldrb	r3, [r4, #38]	@ zero_extendqisi2
 224 005c 8342     		cmp	r3, r0
 225 005e 03D0     		beq	.L18
 177:/Users/imashio/Electronics/ARM/_Library/u8x8_debounce.c ****       }
 226              		.loc 1 177 0
 227 0060 0020     		movs	r0, #0
 228              	.LVL30:
 229 0062 84F82700 		strb	r0, [r4, #39]
 230 0066 13E0     		b	.L16
 231              	.LVL31:
 232              	.L18:
 181:/Users/imashio/Electronics/ARM/_Library/u8x8_debounce.c ****       }
 233              		.loc 1 181 0
 234 0068 3023     		movs	r3, #48
 235 006a 84F82730 		strb	r3, [r4, #39]
 145:/Users/imashio/Electronics/ARM/_Library/u8x8_debounce.c ****   
 236              		.loc 1 145 0
 237 006e 0020     		movs	r0, #0
 238              	.LVL32:
 239 0070 0EE0     		b	.L16
 240              	.LVL33:
 241              	.L23:
 188:/Users/imashio/Electronics/ARM/_Library/u8x8_debounce.c ****       {
 189:/Users/imashio/Electronics/ARM/_Library/u8x8_debounce.c **** 	u8x8->debounce_state = 0x00;	/* back to state A */
 242              		.loc 1 189 0
 243 0072 0022     		movs	r2, #0
 244 0074 84F82720 		strb	r2, [r4, #39]
 190:/Users/imashio/Electronics/ARM/_Library/u8x8_debounce.c **** 	result_msg = U8X8_MSG_GPIO(u8x8_find_first_diff(u8x8->debounce_default_pin_state, u8x8->debounce_l
 245              		.loc 1 190 0
 246 0078 94F82610 		ldrb	r1, [r4, #38]	@ zero_extendqisi2
ARM GAS  /var/folders/v3/wysfpd052nz8jkbx04pk0ym80000gn/T//cc2CqxCI.s 			page 9


 247 007c 1846     		mov	r0, r3
 248              	.LVL34:
 249 007e FFF7FEFF 		bl	u8x8_find_first_diff
 250              	.LVL35:
 251 0082 5030     		adds	r0, r0, #80
 252 0084 C0B2     		uxtb	r0, r0
 253              	.LVL36:
 254 0086 03E0     		b	.L16
 255              	.LVL37:
 256              	.L10:
 191:/Users/imashio/Electronics/ARM/_Library/u8x8_debounce.c ****       }
 192:/Users/imashio/Electronics/ARM/_Library/u8x8_debounce.c ****       else
 193:/Users/imashio/Electronics/ARM/_Library/u8x8_debounce.c ****       {
 194:/Users/imashio/Electronics/ARM/_Library/u8x8_debounce.c **** 	//result_msg = U8X8_MSG_GPIO_MENU_NEXT;
 195:/Users/imashio/Electronics/ARM/_Library/u8x8_debounce.c **** 	// maybe implement autorepeat here 
 196:/Users/imashio/Electronics/ARM/_Library/u8x8_debounce.c ****       }
 197:/Users/imashio/Electronics/ARM/_Library/u8x8_debounce.c ****       break;
 198:/Users/imashio/Electronics/ARM/_Library/u8x8_debounce.c ****     default:
 199:/Users/imashio/Electronics/ARM/_Library/u8x8_debounce.c ****       u8x8->debounce_state--;	/* count down, until there is a valid state */
 257              		.loc 1 199 0
 258 0088 013B     		subs	r3, r3, #1
 259 008a 84F82730 		strb	r3, [r4, #39]
 145:/Users/imashio/Electronics/ARM/_Library/u8x8_debounce.c ****   
 260              		.loc 1 145 0
 261 008e 0020     		movs	r0, #0
 262              	.LVL38:
 263              	.L16:
 200:/Users/imashio/Electronics/ARM/_Library/u8x8_debounce.c ****       break;
 201:/Users/imashio/Electronics/ARM/_Library/u8x8_debounce.c ****   }
 202:/Users/imashio/Electronics/ARM/_Library/u8x8_debounce.c ****   return result_msg;
 203:/Users/imashio/Electronics/ARM/_Library/u8x8_debounce.c **** }
 264              		.loc 1 203 0
 265 0090 10BD     		pop	{r4, pc}
 266              	.LVL39:
 267              	.L19:
 145:/Users/imashio/Electronics/ARM/_Library/u8x8_debounce.c ****   
 268              		.loc 1 145 0
 269 0092 0020     		movs	r0, #0
 270              	.LVL40:
 271 0094 FCE7     		b	.L16
 272              		.cfi_endproc
 273              	.LFE2:
 275              		.text
 276              	.Letext0:
 277              		.file 2 "/usr/local/gcc-arm-none-eabi-7-2018-q2-update/arm-none-eabi/include/machine/_default_type
 278              		.file 3 "/usr/local/gcc-arm-none-eabi-7-2018-q2-update/arm-none-eabi/include/sys/_stdint.h"
 279              		.file 4 "/Users/imashio/Electronics/ARM/_Library/u8x8.h"
ARM GAS  /var/folders/v3/wysfpd052nz8jkbx04pk0ym80000gn/T//cc2CqxCI.s 			page 10


DEFINED SYMBOLS
                            *ABS*:0000000000000000 u8x8_debounce.c
/var/folders/v3/wysfpd052nz8jkbx04pk0ym80000gn/T//cc2CqxCI.s:18     .text.u8x8_find_first_diff:0000000000000000 $t
/var/folders/v3/wysfpd052nz8jkbx04pk0ym80000gn/T//cc2CqxCI.s:24     .text.u8x8_find_first_diff:0000000000000000 u8x8_find_first_diff
/var/folders/v3/wysfpd052nz8jkbx04pk0ym80000gn/T//cc2CqxCI.s:77     .text.u8x8_read_pin_state:0000000000000000 $t
/var/folders/v3/wysfpd052nz8jkbx04pk0ym80000gn/T//cc2CqxCI.s:83     .text.u8x8_read_pin_state:0000000000000000 u8x8_read_pin_state
/var/folders/v3/wysfpd052nz8jkbx04pk0ym80000gn/T//cc2CqxCI.s:142    .text.u8x8_GetMenuEvent:0000000000000000 $t
/var/folders/v3/wysfpd052nz8jkbx04pk0ym80000gn/T//cc2CqxCI.s:149    .text.u8x8_GetMenuEvent:0000000000000000 u8x8_GetMenuEvent

UNDEFINED SYMBOLS
u8x8_gpio_call
