ARM GAS  /var/folders/v3/wysfpd052nz8jkbx04pk0ym80000gn/T//ccUTSTXk.s 			page 1


   1              		.cpu cortex-m4
   2              		.eabi_attribute 27, 1
   3              		.eabi_attribute 28, 1
   4              		.eabi_attribute 20, 1
   5              		.eabi_attribute 21, 1
   6              		.eabi_attribute 23, 3
   7              		.eabi_attribute 24, 1
   8              		.eabi_attribute 25, 1
   9              		.eabi_attribute 26, 1
  10              		.eabi_attribute 30, 2
  11              		.eabi_attribute 34, 1
  12              		.eabi_attribute 18, 4
  13              		.file	"u8x8_d_ssd1606_172x72.c"
  14              		.text
  15              	.Ltext0:
  16              		.cfi_sections	.debug_frame
  17              		.section	.text.u8x8_d_ssd1606_draw_tile,"ax",%progbits
  18              		.align	1
  19              		.p2align 2,,3
  20              		.syntax unified
  21              		.thumb
  22              		.thumb_func
  23              		.fpu fpv4-sp-d16
  25              	u8x8_d_ssd1606_draw_tile:
  26              	.LFB1:
  27              		.file 1 "/Users/imashio/Electronics/ARM/_Library/u8x8_d_ssd1606_172x72.c"
   1:/Users/imashio/Electronics/ARM/_Library/u8x8_d_ssd1606_172x72.c **** /*
   2:/Users/imashio/Electronics/ARM/_Library/u8x8_d_ssd1606_172x72.c **** 
   3:/Users/imashio/Electronics/ARM/_Library/u8x8_d_ssd1606_172x72.c ****   u8x8_d_ssd1606_172x72.c
   4:/Users/imashio/Electronics/ARM/_Library/u8x8_d_ssd1606_172x72.c **** 
   5:/Users/imashio/Electronics/ARM/_Library/u8x8_d_ssd1606_172x72.c ****   Universal 8bit Graphics Library (https://github.com/olikraus/u8g2/)
   6:/Users/imashio/Electronics/ARM/_Library/u8x8_d_ssd1606_172x72.c **** 
   7:/Users/imashio/Electronics/ARM/_Library/u8x8_d_ssd1606_172x72.c ****   Copyright (c) 2016, olikraus@gmail.com
   8:/Users/imashio/Electronics/ARM/_Library/u8x8_d_ssd1606_172x72.c ****   All rights reserved.
   9:/Users/imashio/Electronics/ARM/_Library/u8x8_d_ssd1606_172x72.c **** 
  10:/Users/imashio/Electronics/ARM/_Library/u8x8_d_ssd1606_172x72.c ****   Redistribution and use in source and binary forms, with or without modification, 
  11:/Users/imashio/Electronics/ARM/_Library/u8x8_d_ssd1606_172x72.c ****   are permitted provided that the following conditions are met:
  12:/Users/imashio/Electronics/ARM/_Library/u8x8_d_ssd1606_172x72.c **** 
  13:/Users/imashio/Electronics/ARM/_Library/u8x8_d_ssd1606_172x72.c ****   * Redistributions of source code must retain the above copyright notice, this list 
  14:/Users/imashio/Electronics/ARM/_Library/u8x8_d_ssd1606_172x72.c ****     of conditions and the following disclaimer.
  15:/Users/imashio/Electronics/ARM/_Library/u8x8_d_ssd1606_172x72.c ****     
  16:/Users/imashio/Electronics/ARM/_Library/u8x8_d_ssd1606_172x72.c ****   * Redistributions in binary form must reproduce the above copyright notice, this 
  17:/Users/imashio/Electronics/ARM/_Library/u8x8_d_ssd1606_172x72.c ****     list of conditions and the following disclaimer in the documentation and/or other 
  18:/Users/imashio/Electronics/ARM/_Library/u8x8_d_ssd1606_172x72.c ****     materials provided with the distribution.
  19:/Users/imashio/Electronics/ARM/_Library/u8x8_d_ssd1606_172x72.c **** 
  20:/Users/imashio/Electronics/ARM/_Library/u8x8_d_ssd1606_172x72.c ****   THIS SOFTWARE IS PROVIDED BY THE COPYRIGHT HOLDERS AND 
  21:/Users/imashio/Electronics/ARM/_Library/u8x8_d_ssd1606_172x72.c ****   CONTRIBUTORS "AS IS" AND ANY EXPRESS OR IMPLIED WARRANTIES, 
  22:/Users/imashio/Electronics/ARM/_Library/u8x8_d_ssd1606_172x72.c ****   INCLUDING, BUT NOT LIMITED TO, THE IMPLIED WARRANTIES OF 
  23:/Users/imashio/Electronics/ARM/_Library/u8x8_d_ssd1606_172x72.c ****   MERCHANTABILITY AND FITNESS FOR A PARTICULAR PURPOSE ARE 
  24:/Users/imashio/Electronics/ARM/_Library/u8x8_d_ssd1606_172x72.c ****   DISCLAIMED. IN NO EVENT SHALL THE COPYRIGHT HOLDER OR 
  25:/Users/imashio/Electronics/ARM/_Library/u8x8_d_ssd1606_172x72.c ****   CONTRIBUTORS BE LIABLE FOR ANY DIRECT, INDIRECT, INCIDENTAL, 
  26:/Users/imashio/Electronics/ARM/_Library/u8x8_d_ssd1606_172x72.c ****   SPECIAL, EXEMPLARY, OR CONSEQUENTIAL DAMAGES (INCLUDING, BUT 
  27:/Users/imashio/Electronics/ARM/_Library/u8x8_d_ssd1606_172x72.c ****   NOT LIMITED TO, PROCUREMENT OF SUBSTITUTE GOODS OR SERVICES; 
  28:/Users/imashio/Electronics/ARM/_Library/u8x8_d_ssd1606_172x72.c ****   LOSS OF USE, DATA, OR PROFITS; OR BUSINESS INTERRUPTION) HOWEVER 
  29:/Users/imashio/Electronics/ARM/_Library/u8x8_d_ssd1606_172x72.c ****   CAUSED AND ON ANY THEORY OF LIABILITY, WHETHER IN CONTRACT, 
  30:/Users/imashio/Electronics/ARM/_Library/u8x8_d_ssd1606_172x72.c ****   STRICT LIABILITY, OR TORT (INCLUDING NEGLIGENCE OR OTHERWISE) 
  31:/Users/imashio/Electronics/ARM/_Library/u8x8_d_ssd1606_172x72.c ****   ARISING IN ANY WAY OUT OF THE USE OF THIS SOFTWARE, EVEN IF 
ARM GAS  /var/folders/v3/wysfpd052nz8jkbx04pk0ym80000gn/T//ccUTSTXk.s 			page 2


  32:/Users/imashio/Electronics/ARM/_Library/u8x8_d_ssd1606_172x72.c ****   ADVISED OF THE POSSIBILITY OF SUCH DAMAGE.  
  33:/Users/imashio/Electronics/ARM/_Library/u8x8_d_ssd1606_172x72.c ****   
  34:/Users/imashio/Electronics/ARM/_Library/u8x8_d_ssd1606_172x72.c ****   SSD1606: 128x180x2 
  35:/Users/imashio/Electronics/ARM/_Library/u8x8_d_ssd1606_172x72.c ****   two-bit, four graylevels
  36:/Users/imashio/Electronics/ARM/_Library/u8x8_d_ssd1606_172x72.c ****   command 
  37:/Users/imashio/Electronics/ARM/_Library/u8x8_d_ssd1606_172x72.c ****     0x22: assign actions
  38:/Users/imashio/Electronics/ARM/_Library/u8x8_d_ssd1606_172x72.c ****     0x20: execute actions
  39:/Users/imashio/Electronics/ARM/_Library/u8x8_d_ssd1606_172x72.c ****   
  40:/Users/imashio/Electronics/ARM/_Library/u8x8_d_ssd1606_172x72.c ****   action for command 0x022 are (more or less guessed)
  41:/Users/imashio/Electronics/ARM/_Library/u8x8_d_ssd1606_172x72.c ****     bit 7:	Enable Clock
  42:/Users/imashio/Electronics/ARM/_Library/u8x8_d_ssd1606_172x72.c ****     bit 6:	Enable Charge Pump
  43:/Users/imashio/Electronics/ARM/_Library/u8x8_d_ssd1606_172x72.c ****     bit 5:	Load Temparture Value (???)
  44:/Users/imashio/Electronics/ARM/_Library/u8x8_d_ssd1606_172x72.c ****     bit 4:	Load LUT (???)
  45:/Users/imashio/Electronics/ARM/_Library/u8x8_d_ssd1606_172x72.c ****     bit 3:	Initial Display (???)
  46:/Users/imashio/Electronics/ARM/_Library/u8x8_d_ssd1606_172x72.c ****     bit 2:	Pattern Display --> Requires about 945ms with the LUT from below
  47:/Users/imashio/Electronics/ARM/_Library/u8x8_d_ssd1606_172x72.c ****     bit 1:	Disable Charge Pump
  48:/Users/imashio/Electronics/ARM/_Library/u8x8_d_ssd1606_172x72.c ****     bit 0:	Disable Clock
  49:/Users/imashio/Electronics/ARM/_Library/u8x8_d_ssd1606_172x72.c ****     
  50:/Users/imashio/Electronics/ARM/_Library/u8x8_d_ssd1606_172x72.c ****     Disable Charge Pump and Clock require about 267ms
  51:/Users/imashio/Electronics/ARM/_Library/u8x8_d_ssd1606_172x72.c ****     Enable Charge Pump and Clock require about 10ms
  52:/Users/imashio/Electronics/ARM/_Library/u8x8_d_ssd1606_172x72.c **** 
  53:/Users/imashio/Electronics/ARM/_Library/u8x8_d_ssd1606_172x72.c ****   Notes:
  54:/Users/imashio/Electronics/ARM/_Library/u8x8_d_ssd1606_172x72.c ****     - Introduced a refresh display message, which copies RAM to display
  55:/Users/imashio/Electronics/ARM/_Library/u8x8_d_ssd1606_172x72.c ****     - Charge pump and clock are only enabled for the transfer RAM to display
  56:/Users/imashio/Electronics/ARM/_Library/u8x8_d_ssd1606_172x72.c ****     - U8x8 will not really work because of the two buffers in the SSD1606, however U8g2 should be o
  57:/Users/imashio/Electronics/ARM/_Library/u8x8_d_ssd1606_172x72.c **** 
  58:/Users/imashio/Electronics/ARM/_Library/u8x8_d_ssd1606_172x72.c **** */
  59:/Users/imashio/Electronics/ARM/_Library/u8x8_d_ssd1606_172x72.c **** 
  60:/Users/imashio/Electronics/ARM/_Library/u8x8_d_ssd1606_172x72.c **** 
  61:/Users/imashio/Electronics/ARM/_Library/u8x8_d_ssd1606_172x72.c **** #include "u8x8.h"
  62:/Users/imashio/Electronics/ARM/_Library/u8x8_d_ssd1606_172x72.c **** 
  63:/Users/imashio/Electronics/ARM/_Library/u8x8_d_ssd1606_172x72.c **** 
  64:/Users/imashio/Electronics/ARM/_Library/u8x8_d_ssd1606_172x72.c **** #define L(a,b,c,d) (((a)<<6)|((b)<<4)|((c)<<2)|(d))
  65:/Users/imashio/Electronics/ARM/_Library/u8x8_d_ssd1606_172x72.c **** 
  66:/Users/imashio/Electronics/ARM/_Library/u8x8_d_ssd1606_172x72.c **** 
  67:/Users/imashio/Electronics/ARM/_Library/u8x8_d_ssd1606_172x72.c **** /* GDE021A1, 2.1" EPD */
  68:/Users/imashio/Electronics/ARM/_Library/u8x8_d_ssd1606_172x72.c **** static const uint8_t u8x8_d_ssd1606_172x72_gde021a1_init_seq[] = {
  69:/Users/imashio/Electronics/ARM/_Library/u8x8_d_ssd1606_172x72.c ****     
  70:/Users/imashio/Electronics/ARM/_Library/u8x8_d_ssd1606_172x72.c ****   U8X8_START_TRANSFER(),             	/* enable chip, delay is part of the transfer start */
  71:/Users/imashio/Electronics/ARM/_Library/u8x8_d_ssd1606_172x72.c **** 
  72:/Users/imashio/Electronics/ARM/_Library/u8x8_d_ssd1606_172x72.c ****   U8X8_CA(0x10, 0x00),	/* Deep Sleep mode Control: Disable */
  73:/Users/imashio/Electronics/ARM/_Library/u8x8_d_ssd1606_172x72.c ****   U8X8_CA(0x11, 0x03),	/* Define data entry mode, x&y inc, x first */
  74:/Users/imashio/Electronics/ARM/_Library/u8x8_d_ssd1606_172x72.c ****   U8X8_CAA(0x44, 0, 31),	/* RAM x start & end, each byte has 4 pixel, 32*4=128 */
  75:/Users/imashio/Electronics/ARM/_Library/u8x8_d_ssd1606_172x72.c ****   U8X8_CAA(0x45, 0, 179),	/* RAM y start & end, 179 MAX */
  76:/Users/imashio/Electronics/ARM/_Library/u8x8_d_ssd1606_172x72.c ****   
  77:/Users/imashio/Electronics/ARM/_Library/u8x8_d_ssd1606_172x72.c ****   U8X8_CA(0x4e, 0),	/* set x pos, 0..31 */
  78:/Users/imashio/Electronics/ARM/_Library/u8x8_d_ssd1606_172x72.c ****   U8X8_CA(0x4f, 0),	/* set y pos, 0...179 */
  79:/Users/imashio/Electronics/ARM/_Library/u8x8_d_ssd1606_172x72.c **** 
  80:/Users/imashio/Electronics/ARM/_Library/u8x8_d_ssd1606_172x72.c ****   U8X8_CA(0xf0, 0x1f),	/* set booster feedback to internal */
  81:/Users/imashio/Electronics/ARM/_Library/u8x8_d_ssd1606_172x72.c ****   U8X8_CA(0x22, 0xc0),	/* display update seq. option: enable clk, enable CP, .... todo: this is nev
  82:/Users/imashio/Electronics/ARM/_Library/u8x8_d_ssd1606_172x72.c ****   
  83:/Users/imashio/Electronics/ARM/_Library/u8x8_d_ssd1606_172x72.c ****   U8X8_C(0x32),	/* write LUT register*/
  84:/Users/imashio/Electronics/ARM/_Library/u8x8_d_ssd1606_172x72.c **** 
  85:/Users/imashio/Electronics/ARM/_Library/u8x8_d_ssd1606_172x72.c **** #ifdef ORIGINAL_LUT
  86:/Users/imashio/Electronics/ARM/_Library/u8x8_d_ssd1606_172x72.c ****   
  87:/Users/imashio/Electronics/ARM/_Library/u8x8_d_ssd1606_172x72.c ****   /* wavefrom part of the LUT: absolute LUT... this will always force the destination color */
  88:/Users/imashio/Electronics/ARM/_Library/u8x8_d_ssd1606_172x72.c ****   U8X8_A4(0x00,0x00,0x00,0x55),  /* step 0 */
ARM GAS  /var/folders/v3/wysfpd052nz8jkbx04pk0ym80000gn/T//ccUTSTXk.s 			page 3


  89:/Users/imashio/Electronics/ARM/_Library/u8x8_d_ssd1606_172x72.c ****   U8X8_A4(0x00,0x00,0x55,0x55),	/* step 1 */
  90:/Users/imashio/Electronics/ARM/_Library/u8x8_d_ssd1606_172x72.c ****   U8X8_A4(0x00,0x55,0x55,0x55),
  91:/Users/imashio/Electronics/ARM/_Library/u8x8_d_ssd1606_172x72.c ****   U8X8_A4(0xAA,0xAA,0xAA,0xAA),
  92:/Users/imashio/Electronics/ARM/_Library/u8x8_d_ssd1606_172x72.c ****   U8X8_A4(0x15,0x15,0x15,0x15),
  93:/Users/imashio/Electronics/ARM/_Library/u8x8_d_ssd1606_172x72.c ****   U8X8_A4(0x05,0x05,0x05,0x05),
  94:/Users/imashio/Electronics/ARM/_Library/u8x8_d_ssd1606_172x72.c ****   U8X8_A4(0x01,0x01,0x01,0x01),
  95:/Users/imashio/Electronics/ARM/_Library/u8x8_d_ssd1606_172x72.c ****   U8X8_A4(0x00,0x00,0x00,0x00),
  96:/Users/imashio/Electronics/ARM/_Library/u8x8_d_ssd1606_172x72.c ****   U8X8_A4(0x00,0x00,0x00,0x00),
  97:/Users/imashio/Electronics/ARM/_Library/u8x8_d_ssd1606_172x72.c ****   U8X8_A4(0x00,0x00,0x00,0x00),
  98:/Users/imashio/Electronics/ARM/_Library/u8x8_d_ssd1606_172x72.c ****   U8X8_A4(0x00,0x00,0x00,0x00),
  99:/Users/imashio/Electronics/ARM/_Library/u8x8_d_ssd1606_172x72.c ****   U8X8_A4(0x00,0x00,0x00,0x00),
 100:/Users/imashio/Electronics/ARM/_Library/u8x8_d_ssd1606_172x72.c ****   U8X8_A4(0x00,0x00,0x00,0x00),
 101:/Users/imashio/Electronics/ARM/_Library/u8x8_d_ssd1606_172x72.c ****   U8X8_A4(0x00,0x00,0x00,0x00),
 102:/Users/imashio/Electronics/ARM/_Library/u8x8_d_ssd1606_172x72.c ****   U8X8_A4(0x00,0x00,0x00,0x00),
 103:/Users/imashio/Electronics/ARM/_Library/u8x8_d_ssd1606_172x72.c ****   U8X8_A4(0x00,0x00,0x00,0x00),
 104:/Users/imashio/Electronics/ARM/_Library/u8x8_d_ssd1606_172x72.c ****   U8X8_A4(0x00,0x00,0x00,0x00),
 105:/Users/imashio/Electronics/ARM/_Library/u8x8_d_ssd1606_172x72.c ****   U8X8_A4(0x00,0x00,0x00,0x00),
 106:/Users/imashio/Electronics/ARM/_Library/u8x8_d_ssd1606_172x72.c ****   U8X8_A4(0x00,0x00,0x00,0x00),
 107:/Users/imashio/Electronics/ARM/_Library/u8x8_d_ssd1606_172x72.c ****   U8X8_A4(0x00,0x00,0x00,0x00),	/* step 19 */
 108:/Users/imashio/Electronics/ARM/_Library/u8x8_d_ssd1606_172x72.c ****   
 109:/Users/imashio/Electronics/ARM/_Library/u8x8_d_ssd1606_172x72.c ****   /* timing part of the LUT */
 110:/Users/imashio/Electronics/ARM/_Library/u8x8_d_ssd1606_172x72.c ****   U8X8_A8(0x22,0xFB,0x22,0x1B,0x00,0x00,0x00,0x00),
 111:/Users/imashio/Electronics/ARM/_Library/u8x8_d_ssd1606_172x72.c ****   U8X8_A(0x00),U8X8_A(0x00),
 112:/Users/imashio/Electronics/ARM/_Library/u8x8_d_ssd1606_172x72.c **** 
 113:/Users/imashio/Electronics/ARM/_Library/u8x8_d_ssd1606_172x72.c **** #else
 114:/Users/imashio/Electronics/ARM/_Library/u8x8_d_ssd1606_172x72.c **** 
 115:/Users/imashio/Electronics/ARM/_Library/u8x8_d_ssd1606_172x72.c ****   /* the following LUT will not change anything if the old and the new values are the same */
 116:/Users/imashio/Electronics/ARM/_Library/u8x8_d_ssd1606_172x72.c ****   /* 03 02 01 00	13 12 11 10 	23 22 21 20	33 32 31 30 				original */
 117:/Users/imashio/Electronics/ARM/_Library/u8x8_d_ssd1606_172x72.c ****   U8X8_A4(L(0, 0, 0, 0), 	L(0, 0, 0, 0), 	L(0, 0, 0, 0), 	L(0, 1, 1, 1)),		// 0x00,0x00,0x00,0x55,	
 118:/Users/imashio/Electronics/ARM/_Library/u8x8_d_ssd1606_172x72.c ****   U8X8_A4(L(0, 0, 0, 0), 	L(0, 0, 0, 0), 	L(1, 0, 1, 1), 	L(0, 1, 1, 1)),		// 0x00,0x00,0x55,0x55,	
 119:/Users/imashio/Electronics/ARM/_Library/u8x8_d_ssd1606_172x72.c ****   U8X8_A4(L(0, 0, 0, 0), 	L(1, 1, 0, 1), 	L(1, 0, 1, 1), 	L(0, 1, 1, 1)),		// 0x00,0x55,0x55,0x55,	
 120:/Users/imashio/Electronics/ARM/_Library/u8x8_d_ssd1606_172x72.c ****   U8X8_A4(L(2, 2, 2, 0), 	L(2, 2, 0, 2), 	L(2, 0, 2, 2), 	L(0, 2, 2, 2)),		// 0xAA,0xAA,0xAA,0xAA,	
 121:/Users/imashio/Electronics/ARM/_Library/u8x8_d_ssd1606_172x72.c ****   U8X8_A4(L(0, 1, 1, 0), 	L(0, 1, 0, 1), 	L(0, 0, 1, 1), 	L(0, 1, 1, 1)),		// 0x15,0x15,0x15,0x15,	
 122:/Users/imashio/Electronics/ARM/_Library/u8x8_d_ssd1606_172x72.c ****   U8X8_A4(L(0, 0, 1, 0), 	L(0, 0, 0, 1), 	L(0, 0, 1, 1), 	L(0, 0, 1, 1)),		// 0x05,0x05,0x05,0x05,	
 123:/Users/imashio/Electronics/ARM/_Library/u8x8_d_ssd1606_172x72.c ****   U8X8_A4(L(0, 0, 0, 0), 	L(0, 0, 0, 1), 	L(0, 0, 0, 1), 	L(0, 0, 0, 1)),		// 0x01,0x01,0x01,0x01,	
 124:/Users/imashio/Electronics/ARM/_Library/u8x8_d_ssd1606_172x72.c ****   U8X8_A4(0x00,0x00,0x00,0x00),
 125:/Users/imashio/Electronics/ARM/_Library/u8x8_d_ssd1606_172x72.c ****   U8X8_A4(0x00,0x00,0x00,0x00),
 126:/Users/imashio/Electronics/ARM/_Library/u8x8_d_ssd1606_172x72.c ****   U8X8_A4(0x00,0x00,0x00,0x00),
 127:/Users/imashio/Electronics/ARM/_Library/u8x8_d_ssd1606_172x72.c ****   U8X8_A4(0x00,0x00,0x00,0x00),
 128:/Users/imashio/Electronics/ARM/_Library/u8x8_d_ssd1606_172x72.c ****   U8X8_A4(0x00,0x00,0x00,0x00),
 129:/Users/imashio/Electronics/ARM/_Library/u8x8_d_ssd1606_172x72.c ****   U8X8_A4(0x00,0x00,0x00,0x00),
 130:/Users/imashio/Electronics/ARM/_Library/u8x8_d_ssd1606_172x72.c ****   U8X8_A4(0x00,0x00,0x00,0x00),
 131:/Users/imashio/Electronics/ARM/_Library/u8x8_d_ssd1606_172x72.c ****   U8X8_A4(0x00,0x00,0x00,0x00),
 132:/Users/imashio/Electronics/ARM/_Library/u8x8_d_ssd1606_172x72.c ****   U8X8_A4(0x00,0x00,0x00,0x00),
 133:/Users/imashio/Electronics/ARM/_Library/u8x8_d_ssd1606_172x72.c ****   U8X8_A4(0x00,0x00,0x00,0x00),
 134:/Users/imashio/Electronics/ARM/_Library/u8x8_d_ssd1606_172x72.c ****   U8X8_A4(0x00,0x00,0x00,0x00),
 135:/Users/imashio/Electronics/ARM/_Library/u8x8_d_ssd1606_172x72.c ****   U8X8_A4(0x00,0x00,0x00,0x00),
 136:/Users/imashio/Electronics/ARM/_Library/u8x8_d_ssd1606_172x72.c ****   U8X8_A4(0x00,0x00,0x00,0x00),	/* step 19 */
 137:/Users/imashio/Electronics/ARM/_Library/u8x8_d_ssd1606_172x72.c ****   
 138:/Users/imashio/Electronics/ARM/_Library/u8x8_d_ssd1606_172x72.c ****   /* timing part of the LUT */
 139:/Users/imashio/Electronics/ARM/_Library/u8x8_d_ssd1606_172x72.c ****   U8X8_A8(0x22,0xFB,0x22,0x1B,0x00,0x00,0x00,0x00),
 140:/Users/imashio/Electronics/ARM/_Library/u8x8_d_ssd1606_172x72.c ****   U8X8_A(0x00),U8X8_A(0x00),
 141:/Users/imashio/Electronics/ARM/_Library/u8x8_d_ssd1606_172x72.c **** 
 142:/Users/imashio/Electronics/ARM/_Library/u8x8_d_ssd1606_172x72.c **** #endif
 143:/Users/imashio/Electronics/ARM/_Library/u8x8_d_ssd1606_172x72.c ****   
 144:/Users/imashio/Electronics/ARM/_Library/u8x8_d_ssd1606_172x72.c ****   U8X8_CA(0x2c, 0xa0),	/* write vcom value*/
 145:/Users/imashio/Electronics/ARM/_Library/u8x8_d_ssd1606_172x72.c ****   U8X8_CA(0x3c, 0x63),	/* select boarder waveform */
ARM GAS  /var/folders/v3/wysfpd052nz8jkbx04pk0ym80000gn/T//ccUTSTXk.s 			page 4


 146:/Users/imashio/Electronics/ARM/_Library/u8x8_d_ssd1606_172x72.c ****   U8X8_CA(0x22, 0xc4),	/* display update seq. option: clk -> CP -> LUT -> initial display -> patter
 147:/Users/imashio/Electronics/ARM/_Library/u8x8_d_ssd1606_172x72.c ****     /* 0x0c4 is mentioned in chapter 9.2 of the GDE021A1 data sheet */
 148:/Users/imashio/Electronics/ARM/_Library/u8x8_d_ssd1606_172x72.c ****   
 149:/Users/imashio/Electronics/ARM/_Library/u8x8_d_ssd1606_172x72.c ****   U8X8_END_TRANSFER(),             	/* disable chip */
 150:/Users/imashio/Electronics/ARM/_Library/u8x8_d_ssd1606_172x72.c ****   U8X8_END()             			/* end of sequence */
 151:/Users/imashio/Electronics/ARM/_Library/u8x8_d_ssd1606_172x72.c **** };
 152:/Users/imashio/Electronics/ARM/_Library/u8x8_d_ssd1606_172x72.c **** 
 153:/Users/imashio/Electronics/ARM/_Library/u8x8_d_ssd1606_172x72.c **** static const uint8_t u8x8_d_ssd1606_to_display_seq[] = {
 154:/Users/imashio/Electronics/ARM/_Library/u8x8_d_ssd1606_172x72.c ****   U8X8_START_TRANSFER(),             	/* enable chip, delay is part of the transfer start */
 155:/Users/imashio/Electronics/ARM/_Library/u8x8_d_ssd1606_172x72.c ****   
 156:/Users/imashio/Electronics/ARM/_Library/u8x8_d_ssd1606_172x72.c ****   
 157:/Users/imashio/Electronics/ARM/_Library/u8x8_d_ssd1606_172x72.c ****   //U8X8_CA(0x22, 0xc0),	/* display update seq. option: Enable clock and charge pump */
 158:/Users/imashio/Electronics/ARM/_Library/u8x8_d_ssd1606_172x72.c ****   //U8X8_C(0x20),	/* execute sequence */
 159:/Users/imashio/Electronics/ARM/_Library/u8x8_d_ssd1606_172x72.c ****   //U8X8_DLY(10),
 160:/Users/imashio/Electronics/ARM/_Library/u8x8_d_ssd1606_172x72.c ****   /* strange, splitting 0x0c0 does not work reliable */
 161:/Users/imashio/Electronics/ARM/_Library/u8x8_d_ssd1606_172x72.c ****   
 162:/Users/imashio/Electronics/ARM/_Library/u8x8_d_ssd1606_172x72.c ****   U8X8_CA(0x22, 0xc4),	/* display update seq. option: clk -> CP -> LUT -> initial display -> patter
 163:/Users/imashio/Electronics/ARM/_Library/u8x8_d_ssd1606_172x72.c ****   U8X8_C(0x20),	/* execute sequence */
 164:/Users/imashio/Electronics/ARM/_Library/u8x8_d_ssd1606_172x72.c ****   U8X8_DLY(250),	/* the sequence above requires about 970ms */
 165:/Users/imashio/Electronics/ARM/_Library/u8x8_d_ssd1606_172x72.c ****   U8X8_DLY(250),
 166:/Users/imashio/Electronics/ARM/_Library/u8x8_d_ssd1606_172x72.c ****   U8X8_DLY(250),
 167:/Users/imashio/Electronics/ARM/_Library/u8x8_d_ssd1606_172x72.c ****   U8X8_DLY(230),
 168:/Users/imashio/Electronics/ARM/_Library/u8x8_d_ssd1606_172x72.c ****   
 169:/Users/imashio/Electronics/ARM/_Library/u8x8_d_ssd1606_172x72.c ****   U8X8_CA(0x22, 0x03),	/* disable clock and charge pump */
 170:/Users/imashio/Electronics/ARM/_Library/u8x8_d_ssd1606_172x72.c ****   U8X8_DLY(200),		/* this requres about 270ms */
 171:/Users/imashio/Electronics/ARM/_Library/u8x8_d_ssd1606_172x72.c ****   U8X8_DLY(90),  
 172:/Users/imashio/Electronics/ARM/_Library/u8x8_d_ssd1606_172x72.c ****   
 173:/Users/imashio/Electronics/ARM/_Library/u8x8_d_ssd1606_172x72.c ****   //U8X8_CA(0x10, 0x01), /* deep sleep mode */
 174:/Users/imashio/Electronics/ARM/_Library/u8x8_d_ssd1606_172x72.c ****   //U8X8_C(0x20), 		/* execute sequence */
 175:/Users/imashio/Electronics/ARM/_Library/u8x8_d_ssd1606_172x72.c ****   U8X8_DLY(50),  
 176:/Users/imashio/Electronics/ARM/_Library/u8x8_d_ssd1606_172x72.c ****   
 177:/Users/imashio/Electronics/ARM/_Library/u8x8_d_ssd1606_172x72.c ****   U8X8_END_TRANSFER(),             	/* disable chip */
 178:/Users/imashio/Electronics/ARM/_Library/u8x8_d_ssd1606_172x72.c ****   U8X8_END()             			/* end of sequence */
 179:/Users/imashio/Electronics/ARM/_Library/u8x8_d_ssd1606_172x72.c **** };
 180:/Users/imashio/Electronics/ARM/_Library/u8x8_d_ssd1606_172x72.c **** 
 181:/Users/imashio/Electronics/ARM/_Library/u8x8_d_ssd1606_172x72.c **** static const uint8_t u8x8_d_ssd1606_172x72_powersave0_seq[] = {
 182:/Users/imashio/Electronics/ARM/_Library/u8x8_d_ssd1606_172x72.c ****   U8X8_START_TRANSFER(),             	/* enable chip, delay is part of the transfer start */
 183:/Users/imashio/Electronics/ARM/_Library/u8x8_d_ssd1606_172x72.c ****   U8X8_END_TRANSFER(),             	/* disable chip */
 184:/Users/imashio/Electronics/ARM/_Library/u8x8_d_ssd1606_172x72.c ****   U8X8_END()             			/* end of sequence */
 185:/Users/imashio/Electronics/ARM/_Library/u8x8_d_ssd1606_172x72.c **** };
 186:/Users/imashio/Electronics/ARM/_Library/u8x8_d_ssd1606_172x72.c **** 
 187:/Users/imashio/Electronics/ARM/_Library/u8x8_d_ssd1606_172x72.c **** static const uint8_t u8x8_d_ssd1606_172x72_powersave1_seq[] = {
 188:/Users/imashio/Electronics/ARM/_Library/u8x8_d_ssd1606_172x72.c ****   U8X8_START_TRANSFER(),             	/* enable chip, delay is part of the transfer start */
 189:/Users/imashio/Electronics/ARM/_Library/u8x8_d_ssd1606_172x72.c ****   U8X8_END_TRANSFER(),             	/* disable chip */
 190:/Users/imashio/Electronics/ARM/_Library/u8x8_d_ssd1606_172x72.c ****   U8X8_END()             			/* end of sequence */
 191:/Users/imashio/Electronics/ARM/_Library/u8x8_d_ssd1606_172x72.c **** };
 192:/Users/imashio/Electronics/ARM/_Library/u8x8_d_ssd1606_172x72.c **** 
 193:/Users/imashio/Electronics/ARM/_Library/u8x8_d_ssd1606_172x72.c **** static const uint8_t u8x8_d_ssd1606_172x72_flip0_seq[] = {
 194:/Users/imashio/Electronics/ARM/_Library/u8x8_d_ssd1606_172x72.c ****   U8X8_START_TRANSFER(),             	/* enable chip, delay is part of the transfer start */
 195:/Users/imashio/Electronics/ARM/_Library/u8x8_d_ssd1606_172x72.c ****   U8X8_END_TRANSFER(),             	/* disable chip */
 196:/Users/imashio/Electronics/ARM/_Library/u8x8_d_ssd1606_172x72.c ****   U8X8_END()             			/* end of sequence */
 197:/Users/imashio/Electronics/ARM/_Library/u8x8_d_ssd1606_172x72.c **** };
 198:/Users/imashio/Electronics/ARM/_Library/u8x8_d_ssd1606_172x72.c **** 
 199:/Users/imashio/Electronics/ARM/_Library/u8x8_d_ssd1606_172x72.c **** static const uint8_t u8x8_d_ssd1606_172x72_flip1_seq[] = {
 200:/Users/imashio/Electronics/ARM/_Library/u8x8_d_ssd1606_172x72.c ****   U8X8_START_TRANSFER(),             	/* enable chip, delay is part of the transfer start */
 201:/Users/imashio/Electronics/ARM/_Library/u8x8_d_ssd1606_172x72.c ****   U8X8_END_TRANSFER(),             	/* disable chip */
 202:/Users/imashio/Electronics/ARM/_Library/u8x8_d_ssd1606_172x72.c ****   U8X8_END()             			/* end of sequence */
ARM GAS  /var/folders/v3/wysfpd052nz8jkbx04pk0ym80000gn/T//ccUTSTXk.s 			page 5


 203:/Users/imashio/Electronics/ARM/_Library/u8x8_d_ssd1606_172x72.c **** };
 204:/Users/imashio/Electronics/ARM/_Library/u8x8_d_ssd1606_172x72.c **** 
 205:/Users/imashio/Electronics/ARM/_Library/u8x8_d_ssd1606_172x72.c **** 
 206:/Users/imashio/Electronics/ARM/_Library/u8x8_d_ssd1606_172x72.c **** static uint8_t *u8x8_convert_tile_for_ssd1606(uint8_t *t)
 207:/Users/imashio/Electronics/ARM/_Library/u8x8_d_ssd1606_172x72.c **** {
 208:/Users/imashio/Electronics/ARM/_Library/u8x8_d_ssd1606_172x72.c ****   uint8_t i;
 209:/Users/imashio/Electronics/ARM/_Library/u8x8_d_ssd1606_172x72.c ****   uint16_t r;
 210:/Users/imashio/Electronics/ARM/_Library/u8x8_d_ssd1606_172x72.c ****   static uint8_t buf[16];
 211:/Users/imashio/Electronics/ARM/_Library/u8x8_d_ssd1606_172x72.c ****   uint8_t *pbuf = buf;
 212:/Users/imashio/Electronics/ARM/_Library/u8x8_d_ssd1606_172x72.c **** 
 213:/Users/imashio/Electronics/ARM/_Library/u8x8_d_ssd1606_172x72.c ****   for( i = 0; i < 8; i++ )
 214:/Users/imashio/Electronics/ARM/_Library/u8x8_d_ssd1606_172x72.c ****   {
 215:/Users/imashio/Electronics/ARM/_Library/u8x8_d_ssd1606_172x72.c ****     r = u8x8_upscale_byte(~(*t++));
 216:/Users/imashio/Electronics/ARM/_Library/u8x8_d_ssd1606_172x72.c ****     *pbuf++ = (r>>8) & 255;
 217:/Users/imashio/Electronics/ARM/_Library/u8x8_d_ssd1606_172x72.c ****     *pbuf++ = r & 255;
 218:/Users/imashio/Electronics/ARM/_Library/u8x8_d_ssd1606_172x72.c ****   }
 219:/Users/imashio/Electronics/ARM/_Library/u8x8_d_ssd1606_172x72.c ****   return buf;
 220:/Users/imashio/Electronics/ARM/_Library/u8x8_d_ssd1606_172x72.c **** }
 221:/Users/imashio/Electronics/ARM/_Library/u8x8_d_ssd1606_172x72.c **** 
 222:/Users/imashio/Electronics/ARM/_Library/u8x8_d_ssd1606_172x72.c **** static void u8x8_d_ssd1606_draw_tile(u8x8_t *u8x8, uint8_t arg_int, void *arg_ptr) U8X8_NOINLINE;
 223:/Users/imashio/Electronics/ARM/_Library/u8x8_d_ssd1606_172x72.c **** static void u8x8_d_ssd1606_draw_tile(u8x8_t *u8x8, uint8_t arg_int, void *arg_ptr)
 224:/Users/imashio/Electronics/ARM/_Library/u8x8_d_ssd1606_172x72.c **** {
  28              		.loc 1 224 0
  29              		.cfi_startproc
  30              		@ args = 0, pretend = 0, frame = 0
  31              		@ frame_needed = 0, uses_anonymous_args = 0
  32              	.LVL0:
  33 0000 2DE9F84F 		push	{r3, r4, r5, r6, r7, r8, r9, r10, fp, lr}
  34              	.LCFI0:
  35              		.cfi_def_cfa_offset 40
  36              		.cfi_offset 3, -40
  37              		.cfi_offset 4, -36
  38              		.cfi_offset 5, -32
  39              		.cfi_offset 6, -28
  40              		.cfi_offset 7, -24
  41              		.cfi_offset 8, -20
  42              		.cfi_offset 9, -16
  43              		.cfi_offset 10, -12
  44              		.cfi_offset 11, -8
  45              		.cfi_offset 14, -4
  46              		.loc 1 224 0
  47 0004 0746     		mov	r7, r0
  48 0006 9246     		mov	r10, r2
  49 0008 8946     		mov	r9, r1
 225:/Users/imashio/Electronics/ARM/_Library/u8x8_d_ssd1606_172x72.c ****   uint8_t x, c, page;
 226:/Users/imashio/Electronics/ARM/_Library/u8x8_d_ssd1606_172x72.c ****   uint8_t *ptr;
 227:/Users/imashio/Electronics/ARM/_Library/u8x8_d_ssd1606_172x72.c ****   u8x8_cad_StartTransfer(u8x8);
  50              		.loc 1 227 0
  51 000a FFF7FEFF 		bl	u8x8_cad_StartTransfer
  52              	.LVL1:
 228:/Users/imashio/Electronics/ARM/_Library/u8x8_d_ssd1606_172x72.c **** 
 229:/Users/imashio/Electronics/ARM/_Library/u8x8_d_ssd1606_172x72.c ****   page = u8x8->display_info->tile_height;
  53              		.loc 1 229 0
  54 000e 3A68     		ldr	r2, [r7]
 230:/Users/imashio/Electronics/ARM/_Library/u8x8_d_ssd1606_172x72.c ****   page --;
 231:/Users/imashio/Electronics/ARM/_Library/u8x8_d_ssd1606_172x72.c ****   page -= (((u8x8_tile_t *)arg_ptr)->y_pos);
  55              		.loc 1 231 0
ARM GAS  /var/folders/v3/wysfpd052nz8jkbx04pk0ym80000gn/T//ccUTSTXk.s 			page 6


  56 0010 9AF80630 		ldrb	r3, [r10, #6]	@ zero_extendqisi2
 229:/Users/imashio/Electronics/ARM/_Library/u8x8_d_ssd1606_172x72.c ****   page --;
  57              		.loc 1 229 0
  58 0014 547C     		ldrb	r4, [r2, #17]	@ zero_extendqisi2
  59              	.LVL2:
 232:/Users/imashio/Electronics/ARM/_Library/u8x8_d_ssd1606_172x72.c ****   page *= 2;
 233:/Users/imashio/Electronics/ARM/_Library/u8x8_d_ssd1606_172x72.c **** 
 234:/Users/imashio/Electronics/ARM/_Library/u8x8_d_ssd1606_172x72.c **** 
 235:/Users/imashio/Electronics/ARM/_Library/u8x8_d_ssd1606_172x72.c ****   x = ((u8x8_tile_t *)arg_ptr)->x_pos;
 236:/Users/imashio/Electronics/ARM/_Library/u8x8_d_ssd1606_172x72.c ****   x *= 8;
 237:/Users/imashio/Electronics/ARM/_Library/u8x8_d_ssd1606_172x72.c ****   x += u8x8->x_offset;
  60              		.loc 1 237 0
  61 0016 BD7F     		ldrb	r5, [r7, #30]	@ zero_extendqisi2
 235:/Users/imashio/Electronics/ARM/_Library/u8x8_d_ssd1606_172x72.c ****   x *= 8;
  62              		.loc 1 235 0
  63 0018 9AF80520 		ldrb	r2, [r10, #5]	@ zero_extendqisi2
 238:/Users/imashio/Electronics/ARM/_Library/u8x8_d_ssd1606_172x72.c **** 
 239:/Users/imashio/Electronics/ARM/_Library/u8x8_d_ssd1606_172x72.c ****   u8x8_cad_SendCmd(u8x8, 0x00f );	/* scan start */
 240:/Users/imashio/Electronics/ARM/_Library/u8x8_d_ssd1606_172x72.c ****   u8x8_cad_SendArg(u8x8, 0);
 241:/Users/imashio/Electronics/ARM/_Library/u8x8_d_ssd1606_172x72.c **** 
 242:/Users/imashio/Electronics/ARM/_Library/u8x8_d_ssd1606_172x72.c ****   u8x8_cad_SendCmd(u8x8, 0x011 );	/* cursor increment mode */
 243:/Users/imashio/Electronics/ARM/_Library/u8x8_d_ssd1606_172x72.c ****   u8x8_cad_SendArg(u8x8, 3);
 244:/Users/imashio/Electronics/ARM/_Library/u8x8_d_ssd1606_172x72.c **** 
 245:/Users/imashio/Electronics/ARM/_Library/u8x8_d_ssd1606_172x72.c ****   u8x8_cad_SendCmd(u8x8, 0x045 );	/* window start column */
 246:/Users/imashio/Electronics/ARM/_Library/u8x8_d_ssd1606_172x72.c ****   u8x8_cad_SendArg(u8x8, 0);
 247:/Users/imashio/Electronics/ARM/_Library/u8x8_d_ssd1606_172x72.c ****   u8x8_cad_SendArg(u8x8, 179);		/* end of display */
 248:/Users/imashio/Electronics/ARM/_Library/u8x8_d_ssd1606_172x72.c **** 
 249:/Users/imashio/Electronics/ARM/_Library/u8x8_d_ssd1606_172x72.c ****   u8x8_cad_SendCmd(u8x8, 0x044 );	/* window end page */
 250:/Users/imashio/Electronics/ARM/_Library/u8x8_d_ssd1606_172x72.c ****   u8x8_cad_SendArg(u8x8, page);
 251:/Users/imashio/Electronics/ARM/_Library/u8x8_d_ssd1606_172x72.c ****   u8x8_cad_SendArg(u8x8, page+1);
 252:/Users/imashio/Electronics/ARM/_Library/u8x8_d_ssd1606_172x72.c **** 
 253:/Users/imashio/Electronics/ARM/_Library/u8x8_d_ssd1606_172x72.c ****   u8x8_cad_SendCmd(u8x8, 0x04f );	/* window column */
 254:/Users/imashio/Electronics/ARM/_Library/u8x8_d_ssd1606_172x72.c ****   u8x8_cad_SendArg(u8x8, x);
 255:/Users/imashio/Electronics/ARM/_Library/u8x8_d_ssd1606_172x72.c **** 
 256:/Users/imashio/Electronics/ARM/_Library/u8x8_d_ssd1606_172x72.c ****   u8x8_cad_SendCmd(u8x8, 0x04e );	/* window row */
 257:/Users/imashio/Electronics/ARM/_Library/u8x8_d_ssd1606_172x72.c ****   u8x8_cad_SendArg(u8x8, page);
 258:/Users/imashio/Electronics/ARM/_Library/u8x8_d_ssd1606_172x72.c **** 
 259:/Users/imashio/Electronics/ARM/_Library/u8x8_d_ssd1606_172x72.c ****   u8x8_cad_SendCmd(u8x8, 0x024 );
 260:/Users/imashio/Electronics/ARM/_Library/u8x8_d_ssd1606_172x72.c ****   
 261:/Users/imashio/Electronics/ARM/_Library/u8x8_d_ssd1606_172x72.c ****   do
 262:/Users/imashio/Electronics/ARM/_Library/u8x8_d_ssd1606_172x72.c ****   {
 263:/Users/imashio/Electronics/ARM/_Library/u8x8_d_ssd1606_172x72.c ****     c = ((u8x8_tile_t *)arg_ptr)->cnt;
 264:/Users/imashio/Electronics/ARM/_Library/u8x8_d_ssd1606_172x72.c ****     ptr = ((u8x8_tile_t *)arg_ptr)->tile_ptr;
 265:/Users/imashio/Electronics/ARM/_Library/u8x8_d_ssd1606_172x72.c ****     do
 266:/Users/imashio/Electronics/ARM/_Library/u8x8_d_ssd1606_172x72.c ****     {
 267:/Users/imashio/Electronics/ARM/_Library/u8x8_d_ssd1606_172x72.c ****       u8x8_cad_SendData(u8x8, 16, u8x8_convert_tile_for_ssd1606(ptr));
  64              		.loc 1 267 0
  65 001c DFF8EC80 		ldr	r8, .L10+4
 231:/Users/imashio/Electronics/ARM/_Library/u8x8_d_ssd1606_172x72.c ****   page *= 2;
  66              		.loc 1 231 0
  67 0020 DB43     		mvns	r3, r3
 239:/Users/imashio/Electronics/ARM/_Library/u8x8_d_ssd1606_172x72.c ****   u8x8_cad_SendArg(u8x8, 0);
  68              		.loc 1 239 0
  69 0022 0F21     		movs	r1, #15
  70 0024 3846     		mov	r0, r7
 231:/Users/imashio/Electronics/ARM/_Library/u8x8_d_ssd1606_172x72.c ****   page *= 2;
  71              		.loc 1 231 0
ARM GAS  /var/folders/v3/wysfpd052nz8jkbx04pk0ym80000gn/T//ccUTSTXk.s 			page 7


  72 0026 1C44     		add	r4, r4, r3
  73              	.LVL3:
 237:/Users/imashio/Electronics/ARM/_Library/u8x8_d_ssd1606_172x72.c **** 
  74              		.loc 1 237 0
  75 0028 05EBC205 		add	r5, r5, r2, lsl #3
 239:/Users/imashio/Electronics/ARM/_Library/u8x8_d_ssd1606_172x72.c ****   u8x8_cad_SendArg(u8x8, 0);
  76              		.loc 1 239 0
  77 002c FFF7FEFF 		bl	u8x8_cad_SendCmd
  78              	.LVL4:
 240:/Users/imashio/Electronics/ARM/_Library/u8x8_d_ssd1606_172x72.c **** 
  79              		.loc 1 240 0
  80 0030 0021     		movs	r1, #0
  81 0032 3846     		mov	r0, r7
  82 0034 FFF7FEFF 		bl	u8x8_cad_SendArg
  83              	.LVL5:
 242:/Users/imashio/Electronics/ARM/_Library/u8x8_d_ssd1606_172x72.c ****   u8x8_cad_SendArg(u8x8, 3);
  84              		.loc 1 242 0
  85 0038 1121     		movs	r1, #17
  86 003a 3846     		mov	r0, r7
  87 003c FFF7FEFF 		bl	u8x8_cad_SendCmd
  88              	.LVL6:
 243:/Users/imashio/Electronics/ARM/_Library/u8x8_d_ssd1606_172x72.c **** 
  89              		.loc 1 243 0
  90 0040 0321     		movs	r1, #3
  91 0042 3846     		mov	r0, r7
  92 0044 FFF7FEFF 		bl	u8x8_cad_SendArg
  93              	.LVL7:
 245:/Users/imashio/Electronics/ARM/_Library/u8x8_d_ssd1606_172x72.c ****   u8x8_cad_SendArg(u8x8, 0);
  94              		.loc 1 245 0
  95 0048 4521     		movs	r1, #69
  96 004a 3846     		mov	r0, r7
  97 004c FFF7FEFF 		bl	u8x8_cad_SendCmd
  98              	.LVL8:
 246:/Users/imashio/Electronics/ARM/_Library/u8x8_d_ssd1606_172x72.c ****   u8x8_cad_SendArg(u8x8, 179);		/* end of display */
  99              		.loc 1 246 0
 100 0050 0021     		movs	r1, #0
 101 0052 3846     		mov	r0, r7
 102 0054 FFF7FEFF 		bl	u8x8_cad_SendArg
 103              	.LVL9:
 232:/Users/imashio/Electronics/ARM/_Library/u8x8_d_ssd1606_172x72.c **** 
 104              		.loc 1 232 0
 105 0058 6400     		lsls	r4, r4, #1
 106              	.LVL10:
 247:/Users/imashio/Electronics/ARM/_Library/u8x8_d_ssd1606_172x72.c **** 
 107              		.loc 1 247 0
 108 005a B321     		movs	r1, #179
 109 005c 3846     		mov	r0, r7
 232:/Users/imashio/Electronics/ARM/_Library/u8x8_d_ssd1606_172x72.c **** 
 110              		.loc 1 232 0
 111 005e 04F0FE04 		and	r4, r4, #254
 112              	.LVL11:
 247:/Users/imashio/Electronics/ARM/_Library/u8x8_d_ssd1606_172x72.c **** 
 113              		.loc 1 247 0
 114 0062 FFF7FEFF 		bl	u8x8_cad_SendArg
 115              	.LVL12:
 249:/Users/imashio/Electronics/ARM/_Library/u8x8_d_ssd1606_172x72.c ****   u8x8_cad_SendArg(u8x8, page);
 116              		.loc 1 249 0
ARM GAS  /var/folders/v3/wysfpd052nz8jkbx04pk0ym80000gn/T//ccUTSTXk.s 			page 8


 117 0066 4421     		movs	r1, #68
 118 0068 3846     		mov	r0, r7
 119 006a FFF7FEFF 		bl	u8x8_cad_SendCmd
 120              	.LVL13:
 250:/Users/imashio/Electronics/ARM/_Library/u8x8_d_ssd1606_172x72.c ****   u8x8_cad_SendArg(u8x8, page+1);
 121              		.loc 1 250 0
 122 006e 2146     		mov	r1, r4
 123 0070 3846     		mov	r0, r7
 124 0072 FFF7FEFF 		bl	u8x8_cad_SendArg
 125              	.LVL14:
 251:/Users/imashio/Electronics/ARM/_Library/u8x8_d_ssd1606_172x72.c **** 
 126              		.loc 1 251 0
 127 0076 611C     		adds	r1, r4, #1
 128 0078 C9B2     		uxtb	r1, r1
 129 007a 3846     		mov	r0, r7
 130 007c FFF7FEFF 		bl	u8x8_cad_SendArg
 131              	.LVL15:
 237:/Users/imashio/Electronics/ARM/_Library/u8x8_d_ssd1606_172x72.c **** 
 132              		.loc 1 237 0
 133 0080 05F0FF05 		and	r5, r5, #255
 134              	.LVL16:
 253:/Users/imashio/Electronics/ARM/_Library/u8x8_d_ssd1606_172x72.c ****   u8x8_cad_SendArg(u8x8, x);
 135              		.loc 1 253 0
 136 0084 4F21     		movs	r1, #79
 137 0086 3846     		mov	r0, r7
 138 0088 FFF7FEFF 		bl	u8x8_cad_SendCmd
 139              	.LVL17:
 254:/Users/imashio/Electronics/ARM/_Library/u8x8_d_ssd1606_172x72.c **** 
 140              		.loc 1 254 0
 141 008c 2946     		mov	r1, r5
 142 008e 3846     		mov	r0, r7
 143 0090 FFF7FEFF 		bl	u8x8_cad_SendArg
 144              	.LVL18:
 256:/Users/imashio/Electronics/ARM/_Library/u8x8_d_ssd1606_172x72.c ****   u8x8_cad_SendArg(u8x8, page);
 145              		.loc 1 256 0
 146 0094 4E21     		movs	r1, #78
 147 0096 3846     		mov	r0, r7
 148 0098 FFF7FEFF 		bl	u8x8_cad_SendCmd
 149              	.LVL19:
 257:/Users/imashio/Electronics/ARM/_Library/u8x8_d_ssd1606_172x72.c **** 
 150              		.loc 1 257 0
 151 009c 2146     		mov	r1, r4
 152 009e 3846     		mov	r0, r7
 153 00a0 FFF7FEFF 		bl	u8x8_cad_SendArg
 154              	.LVL20:
 259:/Users/imashio/Electronics/ARM/_Library/u8x8_d_ssd1606_172x72.c ****   
 155              		.loc 1 259 0
 156 00a4 3846     		mov	r0, r7
 157 00a6 2421     		movs	r1, #36
 158 00a8 FFF7FEFF 		bl	u8x8_cad_SendCmd
 159              	.LVL21:
 160              	.L4:
 161 00ac 9AF80460 		ldrb	r6, [r10, #4]	@ zero_extendqisi2
 264:/Users/imashio/Electronics/ARM/_Library/u8x8_d_ssd1606_172x72.c ****     do
 162              		.loc 1 264 0
 163 00b0 DAF800B0 		ldr	fp, [r10]
 164              	.LVL22:
ARM GAS  /var/folders/v3/wysfpd052nz8jkbx04pk0ym80000gn/T//ccUTSTXk.s 			page 9


 165 00b4 013E     		subs	r6, r6, #1
 166 00b6 F6B2     		uxtb	r6, r6
 167 00b8 0136     		adds	r6, r6, #1
 168 00ba 0BEBC606 		add	r6, fp, r6, lsl #3
 169              	.LVL23:
 170              	.L3:
 171 00be 124C     		ldr	r4, .L10
 172 00c0 0BF10805 		add	r5, fp, #8
 173              	.LVL24:
 174              	.L2:
 175              	.LBB4:
 176              	.LBB5:
 215:/Users/imashio/Electronics/ARM/_Library/u8x8_d_ssd1606_172x72.c ****     *pbuf++ = (r>>8) & 255;
 177              		.loc 1 215 0
 178 00c4 1BF8010B 		ldrb	r0, [fp], #1	@ zero_extendqisi2
 179              	.LVL25:
 180 00c8 C043     		mvns	r0, r0
 181 00ca C0B2     		uxtb	r0, r0
 182 00cc FFF7FEFF 		bl	u8x8_upscale_byte
 183              	.LVL26:
 213:/Users/imashio/Electronics/ARM/_Library/u8x8_d_ssd1606_172x72.c ****   {
 184              		.loc 1 213 0
 185 00d0 AB45     		cmp	fp, r5
 216:/Users/imashio/Electronics/ARM/_Library/u8x8_d_ssd1606_172x72.c ****     *pbuf++ = r & 255;
 186              		.loc 1 216 0
 187 00d2 4FEA1023 		lsr	r3, r0, #8
 217:/Users/imashio/Electronics/ARM/_Library/u8x8_d_ssd1606_172x72.c ****   }
 188              		.loc 1 217 0
 189 00d6 04F8010C 		strb	r0, [r4, #-1]
 216:/Users/imashio/Electronics/ARM/_Library/u8x8_d_ssd1606_172x72.c ****     *pbuf++ = r & 255;
 190              		.loc 1 216 0
 191 00da 04F8023C 		strb	r3, [r4, #-2]
 192              	.LVL27:
 193 00de 04F10204 		add	r4, r4, #2
 194              	.LVL28:
 213:/Users/imashio/Electronics/ARM/_Library/u8x8_d_ssd1606_172x72.c ****   {
 195              		.loc 1 213 0
 196 00e2 EFD1     		bne	.L2
 197              	.LVL29:
 198              	.LBE5:
 199              	.LBE4:
 200              		.loc 1 267 0
 201 00e4 4246     		mov	r2, r8
 202 00e6 1021     		movs	r1, #16
 203 00e8 3846     		mov	r0, r7
 204 00ea FFF7FEFF 		bl	u8x8_cad_SendData
 205              	.LVL30:
 268:/Users/imashio/Electronics/ARM/_Library/u8x8_d_ssd1606_172x72.c ****       ptr += 8;
 269:/Users/imashio/Electronics/ARM/_Library/u8x8_d_ssd1606_172x72.c ****       x += 8;
 270:/Users/imashio/Electronics/ARM/_Library/u8x8_d_ssd1606_172x72.c ****       c--;
 271:/Users/imashio/Electronics/ARM/_Library/u8x8_d_ssd1606_172x72.c ****     } while( c > 0 );
 206              		.loc 1 271 0
 207 00ee B345     		cmp	fp, r6
 208 00f0 E5D1     		bne	.L3
 272:/Users/imashio/Electronics/ARM/_Library/u8x8_d_ssd1606_172x72.c ****     
 273:/Users/imashio/Electronics/ARM/_Library/u8x8_d_ssd1606_172x72.c ****     arg_int--;
 209              		.loc 1 273 0
ARM GAS  /var/folders/v3/wysfpd052nz8jkbx04pk0ym80000gn/T//ccUTSTXk.s 			page 10


 210 00f2 09F1FF39 		add	r9, r9, #-1
 211              	.LVL31:
 274:/Users/imashio/Electronics/ARM/_Library/u8x8_d_ssd1606_172x72.c ****   } while( arg_int > 0 );
 212              		.loc 1 274 0
 213 00f6 19F0FF09 		ands	r9, r9, #255
 214              	.LVL32:
 215 00fa D7D1     		bne	.L4
 275:/Users/imashio/Electronics/ARM/_Library/u8x8_d_ssd1606_172x72.c ****   
 276:/Users/imashio/Electronics/ARM/_Library/u8x8_d_ssd1606_172x72.c ****   u8x8_cad_EndTransfer(u8x8);
 216              		.loc 1 276 0
 217 00fc 3846     		mov	r0, r7
 277:/Users/imashio/Electronics/ARM/_Library/u8x8_d_ssd1606_172x72.c **** }
 218              		.loc 1 277 0
 219 00fe BDE8F84F 		pop	{r3, r4, r5, r6, r7, r8, r9, r10, fp, lr}
 220              	.LCFI1:
 221              		.cfi_restore 14
 222              		.cfi_restore 11
 223              		.cfi_restore 10
 224              		.cfi_restore 9
 225              		.cfi_restore 8
 226              		.cfi_restore 7
 227              		.cfi_restore 6
 228              		.cfi_restore 5
 229              		.cfi_restore 4
 230              		.cfi_restore 3
 231              		.cfi_def_cfa_offset 0
 232              	.LVL33:
 276:/Users/imashio/Electronics/ARM/_Library/u8x8_d_ssd1606_172x72.c **** }
 233              		.loc 1 276 0
 234 0102 FFF7FEBF 		b	u8x8_cad_EndTransfer
 235              	.LVL34:
 236              	.L11:
 237 0106 00BF     		.align	2
 238              	.L10:
 239 0108 02000000 		.word	.LANCHOR0+2
 240 010c 00000000 		.word	.LANCHOR0
 241              		.cfi_endproc
 242              	.LFE1:
 244              		.section	.text.u8x8_d_ssd1606_172x72,"ax",%progbits
 245              		.align	1
 246              		.p2align 2,,3
 247              		.global	u8x8_d_ssd1606_172x72
 248              		.syntax unified
 249              		.thumb
 250              		.thumb_func
 251              		.fpu fpv4-sp-d16
 253              	u8x8_d_ssd1606_172x72:
 254              	.LFB3:
 278:/Users/imashio/Electronics/ARM/_Library/u8x8_d_ssd1606_172x72.c **** 
 279:/Users/imashio/Electronics/ARM/_Library/u8x8_d_ssd1606_172x72.c **** 
 280:/Users/imashio/Electronics/ARM/_Library/u8x8_d_ssd1606_172x72.c **** static uint8_t u8x8_d_ssd1606_172x72_generic(u8x8_t *u8x8, uint8_t msg, uint8_t arg_int, void *arg_
 281:/Users/imashio/Electronics/ARM/_Library/u8x8_d_ssd1606_172x72.c **** {
 282:/Users/imashio/Electronics/ARM/_Library/u8x8_d_ssd1606_172x72.c ****   switch(msg)
 283:/Users/imashio/Electronics/ARM/_Library/u8x8_d_ssd1606_172x72.c ****   {
 284:/Users/imashio/Electronics/ARM/_Library/u8x8_d_ssd1606_172x72.c ****     /* handled by the calling function
 285:/Users/imashio/Electronics/ARM/_Library/u8x8_d_ssd1606_172x72.c ****     case U8X8_MSG_DISPLAY_SETUP_MEMORY:
 286:/Users/imashio/Electronics/ARM/_Library/u8x8_d_ssd1606_172x72.c ****       u8x8_d_helper_display_setup_memory(u8x8, &u8x8_ssd1606_172x72_display_info);
ARM GAS  /var/folders/v3/wysfpd052nz8jkbx04pk0ym80000gn/T//ccUTSTXk.s 			page 11


 287:/Users/imashio/Electronics/ARM/_Library/u8x8_d_ssd1606_172x72.c ****       break;
 288:/Users/imashio/Electronics/ARM/_Library/u8x8_d_ssd1606_172x72.c ****     */
 289:/Users/imashio/Electronics/ARM/_Library/u8x8_d_ssd1606_172x72.c ****     case U8X8_MSG_DISPLAY_INIT:
 290:/Users/imashio/Electronics/ARM/_Library/u8x8_d_ssd1606_172x72.c **** 
 291:/Users/imashio/Electronics/ARM/_Library/u8x8_d_ssd1606_172x72.c ****       u8x8_d_helper_display_init(u8x8);
 292:/Users/imashio/Electronics/ARM/_Library/u8x8_d_ssd1606_172x72.c ****       u8x8_cad_SendSequence(u8x8, u8x8_d_ssd1606_172x72_gde021a1_init_seq);    
 293:/Users/imashio/Electronics/ARM/_Library/u8x8_d_ssd1606_172x72.c ****     
 294:/Users/imashio/Electronics/ARM/_Library/u8x8_d_ssd1606_172x72.c ****       /* special code for the SSD1606... */
 295:/Users/imashio/Electronics/ARM/_Library/u8x8_d_ssd1606_172x72.c ****       /* ensure that the initial buffer is clear and all eInk is set to white */
 296:/Users/imashio/Electronics/ARM/_Library/u8x8_d_ssd1606_172x72.c ****       /* this is done here, because the LUT will be of that kind, that it uses the previous color *
 297:/Users/imashio/Electronics/ARM/_Library/u8x8_d_ssd1606_172x72.c ****       /* make everything black */
 298:/Users/imashio/Electronics/ARM/_Library/u8x8_d_ssd1606_172x72.c ****       u8x8_FillDisplay(u8x8);		
 299:/Users/imashio/Electronics/ARM/_Library/u8x8_d_ssd1606_172x72.c ****       /* write content to the display */
 300:/Users/imashio/Electronics/ARM/_Library/u8x8_d_ssd1606_172x72.c ****       u8x8_RefreshDisplay(u8x8);
 301:/Users/imashio/Electronics/ARM/_Library/u8x8_d_ssd1606_172x72.c ****       /* now make everything clear */
 302:/Users/imashio/Electronics/ARM/_Library/u8x8_d_ssd1606_172x72.c ****       u8x8_FillDisplay(u8x8);		
 303:/Users/imashio/Electronics/ARM/_Library/u8x8_d_ssd1606_172x72.c ****       /* write content to the display */
 304:/Users/imashio/Electronics/ARM/_Library/u8x8_d_ssd1606_172x72.c ****       u8x8_RefreshDisplay(u8x8);
 305:/Users/imashio/Electronics/ARM/_Library/u8x8_d_ssd1606_172x72.c ****       /* now make everything clear */
 306:/Users/imashio/Electronics/ARM/_Library/u8x8_d_ssd1606_172x72.c ****       u8x8_ClearDisplay(u8x8);		
 307:/Users/imashio/Electronics/ARM/_Library/u8x8_d_ssd1606_172x72.c ****       /* write content to the display */
 308:/Users/imashio/Electronics/ARM/_Library/u8x8_d_ssd1606_172x72.c ****       u8x8_RefreshDisplay(u8x8);
 309:/Users/imashio/Electronics/ARM/_Library/u8x8_d_ssd1606_172x72.c **** 
 310:/Users/imashio/Electronics/ARM/_Library/u8x8_d_ssd1606_172x72.c ****       u8x8_ClearDisplay(u8x8);		
 311:/Users/imashio/Electronics/ARM/_Library/u8x8_d_ssd1606_172x72.c ****       /* write content to the display */
 312:/Users/imashio/Electronics/ARM/_Library/u8x8_d_ssd1606_172x72.c ****       u8x8_RefreshDisplay(u8x8);
 313:/Users/imashio/Electronics/ARM/_Library/u8x8_d_ssd1606_172x72.c ****     
 314:/Users/imashio/Electronics/ARM/_Library/u8x8_d_ssd1606_172x72.c ****       break;
 315:/Users/imashio/Electronics/ARM/_Library/u8x8_d_ssd1606_172x72.c ****     case U8X8_MSG_DISPLAY_SET_POWER_SAVE:
 316:/Users/imashio/Electronics/ARM/_Library/u8x8_d_ssd1606_172x72.c **** /*
 317:/Users/imashio/Electronics/ARM/_Library/u8x8_d_ssd1606_172x72.c ****       if ( arg_int == 0 )
 318:/Users/imashio/Electronics/ARM/_Library/u8x8_d_ssd1606_172x72.c **** 	u8x8_cad_SendSequence(u8x8, u8x8_d_ssd1606_172x72_powersave0_seq);
 319:/Users/imashio/Electronics/ARM/_Library/u8x8_d_ssd1606_172x72.c ****       else
 320:/Users/imashio/Electronics/ARM/_Library/u8x8_d_ssd1606_172x72.c **** 	u8x8_cad_SendSequence(u8x8, u8x8_d_ssd1606_172x72_powersave1_seq);
 321:/Users/imashio/Electronics/ARM/_Library/u8x8_d_ssd1606_172x72.c **** */
 322:/Users/imashio/Electronics/ARM/_Library/u8x8_d_ssd1606_172x72.c ****       break;
 323:/Users/imashio/Electronics/ARM/_Library/u8x8_d_ssd1606_172x72.c ****     case U8X8_MSG_DISPLAY_SET_FLIP_MODE:
 324:/Users/imashio/Electronics/ARM/_Library/u8x8_d_ssd1606_172x72.c **** /*
 325:/Users/imashio/Electronics/ARM/_Library/u8x8_d_ssd1606_172x72.c ****       if ( arg_int == 0 )
 326:/Users/imashio/Electronics/ARM/_Library/u8x8_d_ssd1606_172x72.c ****       {
 327:/Users/imashio/Electronics/ARM/_Library/u8x8_d_ssd1606_172x72.c **** 	u8x8_cad_SendSequence(u8x8, u8x8_d_ssd1606_172x72_flip0_seq);
 328:/Users/imashio/Electronics/ARM/_Library/u8x8_d_ssd1606_172x72.c **** 	u8x8->x_offset = u8x8->display_info->default_x_offset;
 329:/Users/imashio/Electronics/ARM/_Library/u8x8_d_ssd1606_172x72.c ****       }
 330:/Users/imashio/Electronics/ARM/_Library/u8x8_d_ssd1606_172x72.c ****       else
 331:/Users/imashio/Electronics/ARM/_Library/u8x8_d_ssd1606_172x72.c ****       {
 332:/Users/imashio/Electronics/ARM/_Library/u8x8_d_ssd1606_172x72.c **** 	u8x8_cad_SendSequence(u8x8, u8x8_d_ssd1606_172x72_flip1_seq);
 333:/Users/imashio/Electronics/ARM/_Library/u8x8_d_ssd1606_172x72.c **** 	u8x8->x_offset = u8x8->display_info->flipmode_x_offset;
 334:/Users/imashio/Electronics/ARM/_Library/u8x8_d_ssd1606_172x72.c ****       }
 335:/Users/imashio/Electronics/ARM/_Library/u8x8_d_ssd1606_172x72.c **** */
 336:/Users/imashio/Electronics/ARM/_Library/u8x8_d_ssd1606_172x72.c ****       break;
 337:/Users/imashio/Electronics/ARM/_Library/u8x8_d_ssd1606_172x72.c **** #ifdef U8X8_WITH_SET_CONTRAST
 338:/Users/imashio/Electronics/ARM/_Library/u8x8_d_ssd1606_172x72.c ****     case U8X8_MSG_DISPLAY_SET_CONTRAST:
 339:/Users/imashio/Electronics/ARM/_Library/u8x8_d_ssd1606_172x72.c **** /*
 340:/Users/imashio/Electronics/ARM/_Library/u8x8_d_ssd1606_172x72.c ****       u8x8_cad_StartTransfer(u8x8);
 341:/Users/imashio/Electronics/ARM/_Library/u8x8_d_ssd1606_172x72.c ****       u8x8_cad_EndTransfer(u8x8);
 342:/Users/imashio/Electronics/ARM/_Library/u8x8_d_ssd1606_172x72.c **** */
 343:/Users/imashio/Electronics/ARM/_Library/u8x8_d_ssd1606_172x72.c ****       break;
ARM GAS  /var/folders/v3/wysfpd052nz8jkbx04pk0ym80000gn/T//ccUTSTXk.s 			page 12


 344:/Users/imashio/Electronics/ARM/_Library/u8x8_d_ssd1606_172x72.c **** #endif
 345:/Users/imashio/Electronics/ARM/_Library/u8x8_d_ssd1606_172x72.c ****     case U8X8_MSG_DISPLAY_DRAW_TILE:
 346:/Users/imashio/Electronics/ARM/_Library/u8x8_d_ssd1606_172x72.c ****       u8x8_d_ssd1606_draw_tile(u8x8, arg_int, arg_ptr);
 347:/Users/imashio/Electronics/ARM/_Library/u8x8_d_ssd1606_172x72.c ****       break;
 348:/Users/imashio/Electronics/ARM/_Library/u8x8_d_ssd1606_172x72.c ****     case U8X8_MSG_DISPLAY_REFRESH:
 349:/Users/imashio/Electronics/ARM/_Library/u8x8_d_ssd1606_172x72.c ****       u8x8_cad_SendSequence(u8x8, u8x8_d_ssd1606_to_display_seq);    
 350:/Users/imashio/Electronics/ARM/_Library/u8x8_d_ssd1606_172x72.c ****       break;
 351:/Users/imashio/Electronics/ARM/_Library/u8x8_d_ssd1606_172x72.c ****     default:
 352:/Users/imashio/Electronics/ARM/_Library/u8x8_d_ssd1606_172x72.c ****       return 0;
 353:/Users/imashio/Electronics/ARM/_Library/u8x8_d_ssd1606_172x72.c ****   }
 354:/Users/imashio/Electronics/ARM/_Library/u8x8_d_ssd1606_172x72.c ****   return 1;
 355:/Users/imashio/Electronics/ARM/_Library/u8x8_d_ssd1606_172x72.c **** }
 356:/Users/imashio/Electronics/ARM/_Library/u8x8_d_ssd1606_172x72.c **** 
 357:/Users/imashio/Electronics/ARM/_Library/u8x8_d_ssd1606_172x72.c **** 
 358:/Users/imashio/Electronics/ARM/_Library/u8x8_d_ssd1606_172x72.c **** static const u8x8_display_info_t u8x8_ssd1606_172x72_display_info =
 359:/Users/imashio/Electronics/ARM/_Library/u8x8_d_ssd1606_172x72.c **** {
 360:/Users/imashio/Electronics/ARM/_Library/u8x8_d_ssd1606_172x72.c ****   /* chip_enable_level = */ 0,
 361:/Users/imashio/Electronics/ARM/_Library/u8x8_d_ssd1606_172x72.c ****   /* chip_disable_level = */ 1,
 362:/Users/imashio/Electronics/ARM/_Library/u8x8_d_ssd1606_172x72.c ****   
 363:/Users/imashio/Electronics/ARM/_Library/u8x8_d_ssd1606_172x72.c ****   /* post_chip_enable_wait_ns = */ 120,
 364:/Users/imashio/Electronics/ARM/_Library/u8x8_d_ssd1606_172x72.c ****   /* pre_chip_disable_wait_ns = */ 60,
 365:/Users/imashio/Electronics/ARM/_Library/u8x8_d_ssd1606_172x72.c ****   /* reset_pulse_width_ms = */ 100, 	
 366:/Users/imashio/Electronics/ARM/_Library/u8x8_d_ssd1606_172x72.c ****   /* post_reset_wait_ms = */ 100, 
 367:/Users/imashio/Electronics/ARM/_Library/u8x8_d_ssd1606_172x72.c ****   /* sda_setup_time_ns = */ 50,		/* SSD1606: */
 368:/Users/imashio/Electronics/ARM/_Library/u8x8_d_ssd1606_172x72.c ****   /* sck_pulse_width_ns = */ 100,	/* SSD1606: 100ns */
 369:/Users/imashio/Electronics/ARM/_Library/u8x8_d_ssd1606_172x72.c ****   /* sck_clock_hz = */ 4000000UL,	/* since Arduino 1.6.0, the SPI bus speed in Hz. Should be  10000
 370:/Users/imashio/Electronics/ARM/_Library/u8x8_d_ssd1606_172x72.c ****   /* spi_mode = */ 0,		/* active high, rising edge */
 371:/Users/imashio/Electronics/ARM/_Library/u8x8_d_ssd1606_172x72.c ****   /* i2c_bus_clock_100kHz = */ 4,
 372:/Users/imashio/Electronics/ARM/_Library/u8x8_d_ssd1606_172x72.c ****   /* data_setup_time_ns = */ 40,
 373:/Users/imashio/Electronics/ARM/_Library/u8x8_d_ssd1606_172x72.c ****   /* write_pulse_width_ns = */ 150,	
 374:/Users/imashio/Electronics/ARM/_Library/u8x8_d_ssd1606_172x72.c ****   /* tile_width = */ 22,		/* 22*8 = 176 */
 375:/Users/imashio/Electronics/ARM/_Library/u8x8_d_ssd1606_172x72.c ****   /* tile_hight = */ 9,		/* 9*8 = 72 */
 376:/Users/imashio/Electronics/ARM/_Library/u8x8_d_ssd1606_172x72.c ****   /* default_x_offset = */ 0,
 377:/Users/imashio/Electronics/ARM/_Library/u8x8_d_ssd1606_172x72.c ****   /* flipmode_x_offset = */ 0,
 378:/Users/imashio/Electronics/ARM/_Library/u8x8_d_ssd1606_172x72.c ****   /* pixel_width = */ 172,
 379:/Users/imashio/Electronics/ARM/_Library/u8x8_d_ssd1606_172x72.c ****   /* pixel_height = */ 72		
 380:/Users/imashio/Electronics/ARM/_Library/u8x8_d_ssd1606_172x72.c **** };
 381:/Users/imashio/Electronics/ARM/_Library/u8x8_d_ssd1606_172x72.c **** 
 382:/Users/imashio/Electronics/ARM/_Library/u8x8_d_ssd1606_172x72.c **** uint8_t u8x8_d_ssd1606_172x72(u8x8_t *u8x8, uint8_t msg, uint8_t arg_int, void *arg_ptr)
 383:/Users/imashio/Electronics/ARM/_Library/u8x8_d_ssd1606_172x72.c **** {
 255              		.loc 1 383 0
 256              		.cfi_startproc
 257              		@ args = 0, pretend = 0, frame = 0
 258              		@ frame_needed = 0, uses_anonymous_args = 0
 259              	.LVL35:
 384:/Users/imashio/Electronics/ARM/_Library/u8x8_d_ssd1606_172x72.c ****     if ( msg == U8X8_MSG_DISPLAY_SETUP_MEMORY )
 260              		.loc 1 384 0
 261 0000 0929     		cmp	r1, #9
 383:/Users/imashio/Electronics/ARM/_Library/u8x8_d_ssd1606_172x72.c ****     if ( msg == U8X8_MSG_DISPLAY_SETUP_MEMORY )
 262              		.loc 1 383 0
 263 0002 38B5     		push	{r3, r4, r5, lr}
 264              	.LCFI2:
 265              		.cfi_def_cfa_offset 16
 266              		.cfi_offset 3, -16
 267              		.cfi_offset 4, -12
 268              		.cfi_offset 5, -8
 269              		.cfi_offset 14, -4
ARM GAS  /var/folders/v3/wysfpd052nz8jkbx04pk0ym80000gn/T//ccUTSTXk.s 			page 13


 270              		.loc 1 384 0
 271 0004 12D0     		beq	.L23
 272 0006 0446     		mov	r4, r0
 273              	.LVL36:
 274              	.LBB8:
 275              	.LBB9:
 282:/Users/imashio/Electronics/ARM/_Library/u8x8_d_ssd1606_172x72.c ****   {
 276              		.loc 1 282 0
 277 0008 A1F10A00 		sub	r0, r1, #10
 278              	.LVL37:
 279 000c 1546     		mov	r5, r2
 280              	.LVL38:
 281 000e 0628     		cmp	r0, #6
 282 0010 38D8     		bhi	.L20
 283 0012 DFE800F0 		tbb	[pc, r0]
 284              	.LVL39:
 285              	.L16:
 286 0016 10       		.byte	(.L15-.L16)/2
 287 0017 09       		.byte	(.L22-.L16)/2
 288 0018 37       		.byte	(.L20-.L16)/2
 289 0019 09       		.byte	(.L22-.L16)/2
 290 001a 09       		.byte	(.L22-.L16)/2
 291 001b 04       		.byte	(.L18-.L16)/2
 292 001c 31       		.byte	(.L19-.L16)/2
 293 001d 00       		.p2align 1
 294              	.L18:
 346:/Users/imashio/Electronics/ARM/_Library/u8x8_d_ssd1606_172x72.c ****       break;
 295              		.loc 1 346 0
 296 001e 1A46     		mov	r2, r3
 297 0020 2946     		mov	r1, r5
 298              	.LVL40:
 299 0022 2046     		mov	r0, r4
 300 0024 FFF7FEFF 		bl	u8x8_d_ssd1606_draw_tile
 301              	.LVL41:
 302              	.L22:
 354:/Users/imashio/Electronics/ARM/_Library/u8x8_d_ssd1606_172x72.c **** }
 303              		.loc 1 354 0
 304 0028 0120     		movs	r0, #1
 305              	.LBE9:
 306              	.LBE8:
 385:/Users/imashio/Electronics/ARM/_Library/u8x8_d_ssd1606_172x72.c ****     {
 386:/Users/imashio/Electronics/ARM/_Library/u8x8_d_ssd1606_172x72.c ****       u8x8_d_helper_display_setup_memory(u8x8, &u8x8_ssd1606_172x72_display_info);
 387:/Users/imashio/Electronics/ARM/_Library/u8x8_d_ssd1606_172x72.c ****       return 1;
 388:/Users/imashio/Electronics/ARM/_Library/u8x8_d_ssd1606_172x72.c ****     }
 389:/Users/imashio/Electronics/ARM/_Library/u8x8_d_ssd1606_172x72.c ****     return u8x8_d_ssd1606_172x72_generic(u8x8, msg, arg_int, arg_ptr);
 390:/Users/imashio/Electronics/ARM/_Library/u8x8_d_ssd1606_172x72.c **** }
 307              		.loc 1 390 0
 308 002a 38BD     		pop	{r3, r4, r5, pc}
 309              	.LVL42:
 310              	.L23:
 386:/Users/imashio/Electronics/ARM/_Library/u8x8_d_ssd1606_172x72.c ****       return 1;
 311              		.loc 1 386 0
 312 002c 1649     		ldr	r1, .L24
 313              	.LVL43:
 314 002e FFF7FEFF 		bl	u8x8_d_helper_display_setup_memory
 315              	.LVL44:
 387:/Users/imashio/Electronics/ARM/_Library/u8x8_d_ssd1606_172x72.c ****     }
ARM GAS  /var/folders/v3/wysfpd052nz8jkbx04pk0ym80000gn/T//ccUTSTXk.s 			page 14


 316              		.loc 1 387 0
 317 0032 0120     		movs	r0, #1
 318              		.loc 1 390 0
 319 0034 38BD     		pop	{r3, r4, r5, pc}
 320              	.LVL45:
 321              	.L15:
 322              	.LBB13:
 323              	.LBB10:
 291:/Users/imashio/Electronics/ARM/_Library/u8x8_d_ssd1606_172x72.c ****       u8x8_cad_SendSequence(u8x8, u8x8_d_ssd1606_172x72_gde021a1_init_seq);    
 324              		.loc 1 291 0
 325 0036 2046     		mov	r0, r4
 326 0038 FFF7FEFF 		bl	u8x8_d_helper_display_init
 327              	.LVL46:
 292:/Users/imashio/Electronics/ARM/_Library/u8x8_d_ssd1606_172x72.c ****     
 328              		.loc 1 292 0
 329 003c 1349     		ldr	r1, .L24+4
 330 003e 2046     		mov	r0, r4
 331 0040 FFF7FEFF 		bl	u8x8_cad_SendSequence
 332              	.LVL47:
 298:/Users/imashio/Electronics/ARM/_Library/u8x8_d_ssd1606_172x72.c ****       /* write content to the display */
 333              		.loc 1 298 0
 334 0044 2046     		mov	r0, r4
 335 0046 FFF7FEFF 		bl	u8x8_FillDisplay
 336              	.LVL48:
 300:/Users/imashio/Electronics/ARM/_Library/u8x8_d_ssd1606_172x72.c ****       /* now make everything clear */
 337              		.loc 1 300 0
 338 004a 2046     		mov	r0, r4
 339 004c FFF7FEFF 		bl	u8x8_RefreshDisplay
 340              	.LVL49:
 302:/Users/imashio/Electronics/ARM/_Library/u8x8_d_ssd1606_172x72.c ****       /* write content to the display */
 341              		.loc 1 302 0
 342 0050 2046     		mov	r0, r4
 343 0052 FFF7FEFF 		bl	u8x8_FillDisplay
 344              	.LVL50:
 304:/Users/imashio/Electronics/ARM/_Library/u8x8_d_ssd1606_172x72.c ****       /* now make everything clear */
 345              		.loc 1 304 0
 346 0056 2046     		mov	r0, r4
 347 0058 FFF7FEFF 		bl	u8x8_RefreshDisplay
 348              	.LVL51:
 306:/Users/imashio/Electronics/ARM/_Library/u8x8_d_ssd1606_172x72.c ****       /* write content to the display */
 349              		.loc 1 306 0
 350 005c 2046     		mov	r0, r4
 351 005e FFF7FEFF 		bl	u8x8_ClearDisplay
 352              	.LVL52:
 308:/Users/imashio/Electronics/ARM/_Library/u8x8_d_ssd1606_172x72.c **** 
 353              		.loc 1 308 0
 354 0062 2046     		mov	r0, r4
 355 0064 FFF7FEFF 		bl	u8x8_RefreshDisplay
 356              	.LVL53:
 310:/Users/imashio/Electronics/ARM/_Library/u8x8_d_ssd1606_172x72.c ****       /* write content to the display */
 357              		.loc 1 310 0
 358 0068 2046     		mov	r0, r4
 359 006a FFF7FEFF 		bl	u8x8_ClearDisplay
 360              	.LVL54:
 312:/Users/imashio/Electronics/ARM/_Library/u8x8_d_ssd1606_172x72.c ****     
 361              		.loc 1 312 0
 362 006e 2046     		mov	r0, r4
ARM GAS  /var/folders/v3/wysfpd052nz8jkbx04pk0ym80000gn/T//ccUTSTXk.s 			page 15


 363 0070 FFF7FEFF 		bl	u8x8_RefreshDisplay
 364              	.LVL55:
 354:/Users/imashio/Electronics/ARM/_Library/u8x8_d_ssd1606_172x72.c **** }
 365              		.loc 1 354 0
 366 0074 0120     		movs	r0, #1
 367              	.LBE10:
 368              	.LBE13:
 369              		.loc 1 390 0
 370 0076 38BD     		pop	{r3, r4, r5, pc}
 371              	.LVL56:
 372              	.L19:
 373              	.LBB14:
 374              	.LBB11:
 349:/Users/imashio/Electronics/ARM/_Library/u8x8_d_ssd1606_172x72.c ****       break;
 375              		.loc 1 349 0
 376 0078 2046     		mov	r0, r4
 377 007a 0549     		ldr	r1, .L24+8
 378              	.LVL57:
 379 007c FFF7FEFF 		bl	u8x8_cad_SendSequence
 380              	.LVL58:
 354:/Users/imashio/Electronics/ARM/_Library/u8x8_d_ssd1606_172x72.c **** }
 381              		.loc 1 354 0
 382 0080 0120     		movs	r0, #1
 383              	.LBE11:
 384              	.LBE14:
 385              		.loc 1 390 0
 386 0082 38BD     		pop	{r3, r4, r5, pc}
 387              	.LVL59:
 388              	.L20:
 389              	.LBB15:
 390              	.LBB12:
 352:/Users/imashio/Electronics/ARM/_Library/u8x8_d_ssd1606_172x72.c ****   }
 391              		.loc 1 352 0
 392 0084 0020     		movs	r0, #0
 393              	.LBE12:
 394              	.LBE15:
 395              		.loc 1 390 0
 396 0086 38BD     		pop	{r3, r4, r5, pc}
 397              	.LVL60:
 398              	.L25:
 399              		.align	2
 400              	.L24:
 401 0088 00000000 		.word	.LANCHOR1
 402 008c 00000000 		.word	.LANCHOR2
 403 0090 00000000 		.word	.LANCHOR3
 404              		.cfi_endproc
 405              	.LFE3:
 407              		.section	.bss.buf.6264,"aw",%nobits
 408              		.align	2
 409              		.set	.LANCHOR0,. + 0
 412              	buf.6264:
 413 0000 00000000 		.space	16
 413      00000000 
 413      00000000 
 413      00000000 
 414              		.section	.rodata.u8x8_d_ssd1606_172x72_gde021a1_init_seq,"a",%progbits
 415              		.align	2
ARM GAS  /var/folders/v3/wysfpd052nz8jkbx04pk0ym80000gn/T//ccUTSTXk.s 			page 16


 416              		.set	.LANCHOR2,. + 0
 419              	u8x8_d_ssd1606_172x72_gde021a1_init_seq:
 420 0000 18       		.byte	24
 421 0001 15       		.byte	21
 422 0002 10       		.byte	16
 423 0003 16       		.byte	22
 424 0004 00       		.byte	0
 425 0005 15       		.byte	21
 426 0006 11       		.byte	17
 427 0007 16       		.byte	22
 428 0008 03       		.byte	3
 429 0009 15       		.byte	21
 430 000a 44       		.byte	68
 431 000b 16       		.byte	22
 432 000c 00       		.byte	0
 433 000d 16       		.byte	22
 434 000e 1F       		.byte	31
 435 000f 15       		.byte	21
 436 0010 45       		.byte	69
 437 0011 16       		.byte	22
 438 0012 00       		.byte	0
 439 0013 16       		.byte	22
 440 0014 B3       		.byte	-77
 441 0015 15       		.byte	21
 442 0016 4E       		.byte	78
 443 0017 16       		.byte	22
 444 0018 00       		.byte	0
 445 0019 15       		.byte	21
 446 001a 4F       		.byte	79
 447 001b 16       		.byte	22
 448 001c 00       		.byte	0
 449 001d 15       		.byte	21
 450 001e F0       		.byte	-16
 451 001f 16       		.byte	22
 452 0020 1F       		.byte	31
 453 0021 15       		.byte	21
 454 0022 22       		.byte	34
 455 0023 16       		.byte	22
 456 0024 C0       		.byte	-64
 457 0025 15       		.byte	21
 458 0026 32       		.byte	50
 459 0027 16       		.byte	22
 460 0028 00       		.byte	0
 461 0029 16       		.byte	22
 462 002a 00       		.byte	0
 463 002b 16       		.byte	22
 464 002c 00       		.byte	0
 465 002d 16       		.byte	22
 466 002e 15       		.byte	21
 467 002f 16       		.byte	22
 468 0030 00       		.byte	0
 469 0031 16       		.byte	22
 470 0032 00       		.byte	0
 471 0033 16       		.byte	22
 472 0034 45       		.byte	69
 473 0035 16       		.byte	22
 474 0036 15       		.byte	21
ARM GAS  /var/folders/v3/wysfpd052nz8jkbx04pk0ym80000gn/T//ccUTSTXk.s 			page 17


 475 0037 16       		.byte	22
 476 0038 00       		.byte	0
 477 0039 16       		.byte	22
 478 003a 51       		.byte	81
 479 003b 16       		.byte	22
 480 003c 45       		.byte	69
 481 003d 16       		.byte	22
 482 003e 15       		.byte	21
 483 003f 16       		.byte	22
 484 0040 A8       		.byte	-88
 485 0041 16       		.byte	22
 486 0042 A2       		.byte	-94
 487 0043 16       		.byte	22
 488 0044 8A       		.byte	-118
 489 0045 16       		.byte	22
 490 0046 2A       		.byte	42
 491 0047 16       		.byte	22
 492 0048 14       		.byte	20
 493 0049 16       		.byte	22
 494 004a 11       		.byte	17
 495 004b 16       		.byte	22
 496 004c 05       		.byte	5
 497 004d 16       		.byte	22
 498 004e 15       		.byte	21
 499 004f 16       		.byte	22
 500 0050 04       		.byte	4
 501 0051 16       		.byte	22
 502 0052 01       		.byte	1
 503 0053 16       		.byte	22
 504 0054 05       		.byte	5
 505 0055 16       		.byte	22
 506 0056 05       		.byte	5
 507 0057 16       		.byte	22
 508 0058 00       		.byte	0
 509 0059 16       		.byte	22
 510 005a 01       		.byte	1
 511 005b 16       		.byte	22
 512 005c 01       		.byte	1
 513 005d 16       		.byte	22
 514 005e 01       		.byte	1
 515 005f 16       		.byte	22
 516 0060 00       		.byte	0
 517 0061 16       		.byte	22
 518 0062 00       		.byte	0
 519 0063 16       		.byte	22
 520 0064 00       		.byte	0
 521 0065 16       		.byte	22
 522 0066 00       		.byte	0
 523 0067 16       		.byte	22
 524 0068 00       		.byte	0
 525 0069 16       		.byte	22
 526 006a 00       		.byte	0
 527 006b 16       		.byte	22
 528 006c 00       		.byte	0
 529 006d 16       		.byte	22
 530 006e 00       		.byte	0
 531 006f 16       		.byte	22
ARM GAS  /var/folders/v3/wysfpd052nz8jkbx04pk0ym80000gn/T//ccUTSTXk.s 			page 18


 532 0070 00       		.byte	0
 533 0071 16       		.byte	22
 534 0072 00       		.byte	0
 535 0073 16       		.byte	22
 536 0074 00       		.byte	0
 537 0075 16       		.byte	22
 538 0076 00       		.byte	0
 539 0077 16       		.byte	22
 540 0078 00       		.byte	0
 541 0079 16       		.byte	22
 542 007a 00       		.byte	0
 543 007b 16       		.byte	22
 544 007c 00       		.byte	0
 545 007d 16       		.byte	22
 546 007e 00       		.byte	0
 547 007f 16       		.byte	22
 548 0080 00       		.byte	0
 549 0081 16       		.byte	22
 550 0082 00       		.byte	0
 551 0083 16       		.byte	22
 552 0084 00       		.byte	0
 553 0085 16       		.byte	22
 554 0086 00       		.byte	0
 555 0087 16       		.byte	22
 556 0088 00       		.byte	0
 557 0089 16       		.byte	22
 558 008a 00       		.byte	0
 559 008b 16       		.byte	22
 560 008c 00       		.byte	0
 561 008d 16       		.byte	22
 562 008e 00       		.byte	0
 563 008f 16       		.byte	22
 564 0090 00       		.byte	0
 565 0091 16       		.byte	22
 566 0092 00       		.byte	0
 567 0093 16       		.byte	22
 568 0094 00       		.byte	0
 569 0095 16       		.byte	22
 570 0096 00       		.byte	0
 571 0097 16       		.byte	22
 572 0098 00       		.byte	0
 573 0099 16       		.byte	22
 574 009a 00       		.byte	0
 575 009b 16       		.byte	22
 576 009c 00       		.byte	0
 577 009d 16       		.byte	22
 578 009e 00       		.byte	0
 579 009f 16       		.byte	22
 580 00a0 00       		.byte	0
 581 00a1 16       		.byte	22
 582 00a2 00       		.byte	0
 583 00a3 16       		.byte	22
 584 00a4 00       		.byte	0
 585 00a5 16       		.byte	22
 586 00a6 00       		.byte	0
 587 00a7 16       		.byte	22
 588 00a8 00       		.byte	0
ARM GAS  /var/folders/v3/wysfpd052nz8jkbx04pk0ym80000gn/T//ccUTSTXk.s 			page 19


 589 00a9 16       		.byte	22
 590 00aa 00       		.byte	0
 591 00ab 16       		.byte	22
 592 00ac 00       		.byte	0
 593 00ad 16       		.byte	22
 594 00ae 00       		.byte	0
 595 00af 16       		.byte	22
 596 00b0 00       		.byte	0
 597 00b1 16       		.byte	22
 598 00b2 00       		.byte	0
 599 00b3 16       		.byte	22
 600 00b4 00       		.byte	0
 601 00b5 16       		.byte	22
 602 00b6 00       		.byte	0
 603 00b7 16       		.byte	22
 604 00b8 00       		.byte	0
 605 00b9 16       		.byte	22
 606 00ba 00       		.byte	0
 607 00bb 16       		.byte	22
 608 00bc 00       		.byte	0
 609 00bd 16       		.byte	22
 610 00be 00       		.byte	0
 611 00bf 16       		.byte	22
 612 00c0 00       		.byte	0
 613 00c1 16       		.byte	22
 614 00c2 00       		.byte	0
 615 00c3 16       		.byte	22
 616 00c4 00       		.byte	0
 617 00c5 16       		.byte	22
 618 00c6 00       		.byte	0
 619 00c7 16       		.byte	22
 620 00c8 22       		.byte	34
 621 00c9 16       		.byte	22
 622 00ca FB       		.byte	-5
 623 00cb 16       		.byte	22
 624 00cc 22       		.byte	34
 625 00cd 16       		.byte	22
 626 00ce 1B       		.byte	27
 627 00cf 16       		.byte	22
 628 00d0 00       		.byte	0
 629 00d1 16       		.byte	22
 630 00d2 00       		.byte	0
 631 00d3 16       		.byte	22
 632 00d4 00       		.byte	0
 633 00d5 16       		.byte	22
 634 00d6 00       		.byte	0
 635 00d7 16       		.byte	22
 636 00d8 00       		.byte	0
 637 00d9 16       		.byte	22
 638 00da 00       		.byte	0
 639 00db 15       		.byte	21
 640 00dc 2C       		.byte	44
 641 00dd 16       		.byte	22
 642 00de A0       		.byte	-96
 643 00df 15       		.byte	21
 644 00e0 3C       		.byte	60
 645 00e1 16       		.byte	22
ARM GAS  /var/folders/v3/wysfpd052nz8jkbx04pk0ym80000gn/T//ccUTSTXk.s 			page 20


 646 00e2 63       		.byte	99
 647 00e3 15       		.byte	21
 648 00e4 22       		.byte	34
 649 00e5 16       		.byte	22
 650 00e6 C4       		.byte	-60
 651 00e7 19       		.byte	25
 652 00e8 FF       		.byte	-1
 653              		.section	.rodata.u8x8_d_ssd1606_to_display_seq,"a",%progbits
 654              		.align	2
 655              		.set	.LANCHOR3,. + 0
 658              	u8x8_d_ssd1606_to_display_seq:
 659 0000 18       		.byte	24
 660 0001 15       		.byte	21
 661 0002 22       		.byte	34
 662 0003 16       		.byte	22
 663 0004 C4       		.byte	-60
 664 0005 15       		.byte	21
 665 0006 20       		.byte	32
 666 0007 FE       		.byte	-2
 667 0008 FA       		.byte	-6
 668 0009 FE       		.byte	-2
 669 000a FA       		.byte	-6
 670 000b FE       		.byte	-2
 671 000c FA       		.byte	-6
 672 000d FE       		.byte	-2
 673 000e E6       		.byte	-26
 674 000f 15       		.byte	21
 675 0010 22       		.byte	34
 676 0011 16       		.byte	22
 677 0012 03       		.byte	3
 678 0013 FE       		.byte	-2
 679 0014 C8       		.byte	-56
 680 0015 FE       		.byte	-2
 681 0016 5A       		.byte	90
 682 0017 FE       		.byte	-2
 683 0018 32       		.byte	50
 684 0019 19       		.byte	25
 685 001a FF       		.byte	-1
 686              		.section	.rodata.u8x8_ssd1606_172x72_display_info,"a",%progbits
 687              		.align	2
 688              		.set	.LANCHOR1,. + 0
 691              	u8x8_ssd1606_172x72_display_info:
 692 0000 00       		.byte	0
 693 0001 01       		.byte	1
 694 0002 78       		.byte	120
 695 0003 3C       		.byte	60
 696 0004 64       		.byte	100
 697 0005 64       		.byte	100
 698 0006 32       		.byte	50
 699 0007 64       		.byte	100
 700 0008 00093D00 		.word	4000000
 701 000c 00       		.byte	0
 702 000d 04       		.byte	4
 703 000e 28       		.byte	40
 704 000f 96       		.byte	-106
 705 0010 16       		.byte	22
 706 0011 09       		.byte	9
ARM GAS  /var/folders/v3/wysfpd052nz8jkbx04pk0ym80000gn/T//ccUTSTXk.s 			page 21


 707 0012 00       		.byte	0
 708 0013 00       		.byte	0
 709 0014 AC00     		.short	172
 710 0016 4800     		.short	72
 711              		.text
 712              	.Letext0:
 713              		.file 2 "/usr/local/gcc-arm-none-eabi-7-2018-q2-update/arm-none-eabi/include/machine/_default_type
 714              		.file 3 "/usr/local/gcc-arm-none-eabi-7-2018-q2-update/arm-none-eabi/include/sys/_stdint.h"
 715              		.file 4 "/Users/imashio/Electronics/ARM/_Library/u8x8.h"
ARM GAS  /var/folders/v3/wysfpd052nz8jkbx04pk0ym80000gn/T//ccUTSTXk.s 			page 22


DEFINED SYMBOLS
                            *ABS*:0000000000000000 u8x8_d_ssd1606_172x72.c
/var/folders/v3/wysfpd052nz8jkbx04pk0ym80000gn/T//ccUTSTXk.s:18     .text.u8x8_d_ssd1606_draw_tile:0000000000000000 $t
/var/folders/v3/wysfpd052nz8jkbx04pk0ym80000gn/T//ccUTSTXk.s:25     .text.u8x8_d_ssd1606_draw_tile:0000000000000000 u8x8_d_ssd1606_draw_tile
/var/folders/v3/wysfpd052nz8jkbx04pk0ym80000gn/T//ccUTSTXk.s:239    .text.u8x8_d_ssd1606_draw_tile:0000000000000108 $d
/var/folders/v3/wysfpd052nz8jkbx04pk0ym80000gn/T//ccUTSTXk.s:245    .text.u8x8_d_ssd1606_172x72:0000000000000000 $t
/var/folders/v3/wysfpd052nz8jkbx04pk0ym80000gn/T//ccUTSTXk.s:253    .text.u8x8_d_ssd1606_172x72:0000000000000000 u8x8_d_ssd1606_172x72
/var/folders/v3/wysfpd052nz8jkbx04pk0ym80000gn/T//ccUTSTXk.s:286    .text.u8x8_d_ssd1606_172x72:0000000000000016 $d
/var/folders/v3/wysfpd052nz8jkbx04pk0ym80000gn/T//ccUTSTXk.s:401    .text.u8x8_d_ssd1606_172x72:0000000000000088 $d
/var/folders/v3/wysfpd052nz8jkbx04pk0ym80000gn/T//ccUTSTXk.s:408    .bss.buf.6264:0000000000000000 $d
/var/folders/v3/wysfpd052nz8jkbx04pk0ym80000gn/T//ccUTSTXk.s:412    .bss.buf.6264:0000000000000000 buf.6264
/var/folders/v3/wysfpd052nz8jkbx04pk0ym80000gn/T//ccUTSTXk.s:415    .rodata.u8x8_d_ssd1606_172x72_gde021a1_init_seq:0000000000000000 $d
/var/folders/v3/wysfpd052nz8jkbx04pk0ym80000gn/T//ccUTSTXk.s:419    .rodata.u8x8_d_ssd1606_172x72_gde021a1_init_seq:0000000000000000 u8x8_d_ssd1606_172x72_gde021a1_init_seq
/var/folders/v3/wysfpd052nz8jkbx04pk0ym80000gn/T//ccUTSTXk.s:654    .rodata.u8x8_d_ssd1606_to_display_seq:0000000000000000 $d
/var/folders/v3/wysfpd052nz8jkbx04pk0ym80000gn/T//ccUTSTXk.s:658    .rodata.u8x8_d_ssd1606_to_display_seq:0000000000000000 u8x8_d_ssd1606_to_display_seq
/var/folders/v3/wysfpd052nz8jkbx04pk0ym80000gn/T//ccUTSTXk.s:687    .rodata.u8x8_ssd1606_172x72_display_info:0000000000000000 $d
/var/folders/v3/wysfpd052nz8jkbx04pk0ym80000gn/T//ccUTSTXk.s:691    .rodata.u8x8_ssd1606_172x72_display_info:0000000000000000 u8x8_ssd1606_172x72_display_info
/var/folders/v3/wysfpd052nz8jkbx04pk0ym80000gn/T//ccUTSTXk.s:293    .text.u8x8_d_ssd1606_172x72:000000000000001d $d
/var/folders/v3/wysfpd052nz8jkbx04pk0ym80000gn/T//ccUTSTXk.s:293    .text.u8x8_d_ssd1606_172x72:000000000000001e $t

UNDEFINED SYMBOLS
u8x8_cad_StartTransfer
u8x8_cad_SendCmd
u8x8_cad_SendArg
u8x8_upscale_byte
u8x8_cad_SendData
u8x8_cad_EndTransfer
u8x8_d_helper_display_setup_memory
u8x8_d_helper_display_init
u8x8_cad_SendSequence
u8x8_FillDisplay
u8x8_RefreshDisplay
u8x8_ClearDisplay
