ARM GAS  /var/folders/v3/wysfpd052nz8jkbx04pk0ym80000gn/T//cczlQ9mM.s 			page 1


   1              		.cpu cortex-m4
   2              		.eabi_attribute 27, 1
   3              		.eabi_attribute 28, 1
   4              		.eabi_attribute 20, 1
   5              		.eabi_attribute 21, 1
   6              		.eabi_attribute 23, 3
   7              		.eabi_attribute 24, 1
   8              		.eabi_attribute 25, 1
   9              		.eabi_attribute 26, 1
  10              		.eabi_attribute 30, 2
  11              		.eabi_attribute 34, 1
  12              		.eabi_attribute 18, 4
  13              		.file	"u8x8_cad.c"
  14              		.text
  15              	.Ltext0:
  16              		.cfi_sections	.debug_frame
  17              		.section	.text.u8x8_i2c_data_transfer,"ax",%progbits
  18              		.align	1
  19              		.p2align 2,,3
  20              		.syntax unified
  21              		.thumb
  22              		.thumb_func
  23              		.fpu fpv4-sp-d16
  25              	u8x8_i2c_data_transfer:
  26              	.LFB13:
  27              		.file 1 "/Users/imashio/Electronics/ARM/_Library/u8x8_cad.c"
   1:/Users/imashio/Electronics/ARM/_Library/u8x8_cad.c **** /*
   2:/Users/imashio/Electronics/ARM/_Library/u8x8_cad.c ****   
   3:/Users/imashio/Electronics/ARM/_Library/u8x8_cad.c ****   u8x8_cad.c
   4:/Users/imashio/Electronics/ARM/_Library/u8x8_cad.c ****   
   5:/Users/imashio/Electronics/ARM/_Library/u8x8_cad.c ****   "command arg data" interface to the graphics controller
   6:/Users/imashio/Electronics/ARM/_Library/u8x8_cad.c **** 
   7:/Users/imashio/Electronics/ARM/_Library/u8x8_cad.c ****   Universal 8bit Graphics Library (https://github.com/olikraus/u8g2/)
   8:/Users/imashio/Electronics/ARM/_Library/u8x8_cad.c **** 
   9:/Users/imashio/Electronics/ARM/_Library/u8x8_cad.c ****   Copyright (c) 2016, olikraus@gmail.com
  10:/Users/imashio/Electronics/ARM/_Library/u8x8_cad.c ****   All rights reserved.
  11:/Users/imashio/Electronics/ARM/_Library/u8x8_cad.c **** 
  12:/Users/imashio/Electronics/ARM/_Library/u8x8_cad.c ****   Redistribution and use in source and binary forms, with or without modification, 
  13:/Users/imashio/Electronics/ARM/_Library/u8x8_cad.c ****   are permitted provided that the following conditions are met:
  14:/Users/imashio/Electronics/ARM/_Library/u8x8_cad.c **** 
  15:/Users/imashio/Electronics/ARM/_Library/u8x8_cad.c ****   * Redistributions of source code must retain the above copyright notice, this list 
  16:/Users/imashio/Electronics/ARM/_Library/u8x8_cad.c ****     of conditions and the following disclaimer.
  17:/Users/imashio/Electronics/ARM/_Library/u8x8_cad.c ****     
  18:/Users/imashio/Electronics/ARM/_Library/u8x8_cad.c ****   * Redistributions in binary form must reproduce the above copyright notice, this 
  19:/Users/imashio/Electronics/ARM/_Library/u8x8_cad.c ****     list of conditions and the following disclaimer in the documentation and/or other 
  20:/Users/imashio/Electronics/ARM/_Library/u8x8_cad.c ****     materials provided with the distribution.
  21:/Users/imashio/Electronics/ARM/_Library/u8x8_cad.c **** 
  22:/Users/imashio/Electronics/ARM/_Library/u8x8_cad.c ****   THIS SOFTWARE IS PROVIDED BY THE COPYRIGHT HOLDERS AND 
  23:/Users/imashio/Electronics/ARM/_Library/u8x8_cad.c ****   CONTRIBUTORS "AS IS" AND ANY EXPRESS OR IMPLIED WARRANTIES, 
  24:/Users/imashio/Electronics/ARM/_Library/u8x8_cad.c ****   INCLUDING, BUT NOT LIMITED TO, THE IMPLIED WARRANTIES OF 
  25:/Users/imashio/Electronics/ARM/_Library/u8x8_cad.c ****   MERCHANTABILITY AND FITNESS FOR A PARTICULAR PURPOSE ARE 
  26:/Users/imashio/Electronics/ARM/_Library/u8x8_cad.c ****   DISCLAIMED. IN NO EVENT SHALL THE COPYRIGHT HOLDER OR 
  27:/Users/imashio/Electronics/ARM/_Library/u8x8_cad.c ****   CONTRIBUTORS BE LIABLE FOR ANY DIRECT, INDIRECT, INCIDENTAL, 
  28:/Users/imashio/Electronics/ARM/_Library/u8x8_cad.c ****   SPECIAL, EXEMPLARY, OR CONSEQUENTIAL DAMAGES (INCLUDING, BUT 
  29:/Users/imashio/Electronics/ARM/_Library/u8x8_cad.c ****   NOT LIMITED TO, PROCUREMENT OF SUBSTITUTE GOODS OR SERVICES; 
  30:/Users/imashio/Electronics/ARM/_Library/u8x8_cad.c ****   LOSS OF USE, DATA, OR PROFITS; OR BUSINESS INTERRUPTION) HOWEVER 
  31:/Users/imashio/Electronics/ARM/_Library/u8x8_cad.c ****   CAUSED AND ON ANY THEORY OF LIABILITY, WHETHER IN CONTRACT, 
ARM GAS  /var/folders/v3/wysfpd052nz8jkbx04pk0ym80000gn/T//cczlQ9mM.s 			page 2


  32:/Users/imashio/Electronics/ARM/_Library/u8x8_cad.c ****   STRICT LIABILITY, OR TORT (INCLUDING NEGLIGENCE OR OTHERWISE) 
  33:/Users/imashio/Electronics/ARM/_Library/u8x8_cad.c ****   ARISING IN ANY WAY OUT OF THE USE OF THIS SOFTWARE, EVEN IF 
  34:/Users/imashio/Electronics/ARM/_Library/u8x8_cad.c ****   ADVISED OF THE POSSIBILITY OF SUCH DAMAGE.  
  35:/Users/imashio/Electronics/ARM/_Library/u8x8_cad.c **** 
  36:/Users/imashio/Electronics/ARM/_Library/u8x8_cad.c **** 
  37:/Users/imashio/Electronics/ARM/_Library/u8x8_cad.c ****   The following sequence must be used for any data, which is set to the display:
  38:/Users/imashio/Electronics/ARM/_Library/u8x8_cad.c ****   
  39:/Users/imashio/Electronics/ARM/_Library/u8x8_cad.c ****   
  40:/Users/imashio/Electronics/ARM/_Library/u8x8_cad.c ****   uint8_t u8x8_cad_StartTransfer(u8x8_t *u8x8)
  41:/Users/imashio/Electronics/ARM/_Library/u8x8_cad.c **** 
  42:/Users/imashio/Electronics/ARM/_Library/u8x8_cad.c ****   any of the following calls
  43:/Users/imashio/Electronics/ARM/_Library/u8x8_cad.c ****     uint8_t u8x8_cad_SendCmd(u8x8_t *u8x8, uint8_t cmd)
  44:/Users/imashio/Electronics/ARM/_Library/u8x8_cad.c ****     uint8_t u8x8_cad_SendArg(u8x8_t *u8x8, uint8_t arg)
  45:/Users/imashio/Electronics/ARM/_Library/u8x8_cad.c ****     uint8_t u8x8_cad_SendData(u8x8_t *u8x8, uint8_t cnt, uint8_t *data)
  46:/Users/imashio/Electronics/ARM/_Library/u8x8_cad.c ****   
  47:/Users/imashio/Electronics/ARM/_Library/u8x8_cad.c ****   uint8_t u8x8_cad_EndTransfer(u8x8_t *u8x8)
  48:/Users/imashio/Electronics/ARM/_Library/u8x8_cad.c **** 
  49:/Users/imashio/Electronics/ARM/_Library/u8x8_cad.c **** 
  50:/Users/imashio/Electronics/ARM/_Library/u8x8_cad.c **** 
  51:/Users/imashio/Electronics/ARM/_Library/u8x8_cad.c **** */
  52:/Users/imashio/Electronics/ARM/_Library/u8x8_cad.c **** /*
  53:/Users/imashio/Electronics/ARM/_Library/u8x8_cad.c **** uint8_t u8x8_cad_template(u8x8_t *u8x8, uint8_t msg, uint16_t arg_int, void *arg_ptr)
  54:/Users/imashio/Electronics/ARM/_Library/u8x8_cad.c **** {
  55:/Users/imashio/Electronics/ARM/_Library/u8x8_cad.c ****   uint8_t i;
  56:/Users/imashio/Electronics/ARM/_Library/u8x8_cad.c ****   
  57:/Users/imashio/Electronics/ARM/_Library/u8x8_cad.c ****   switch(msg)
  58:/Users/imashio/Electronics/ARM/_Library/u8x8_cad.c ****   {
  59:/Users/imashio/Electronics/ARM/_Library/u8x8_cad.c ****     case U8X8_MSG_CAD_SEND_CMD:
  60:/Users/imashio/Electronics/ARM/_Library/u8x8_cad.c ****       u8x8_mcd_byte_SetDC(mcd->next, 1);
  61:/Users/imashio/Electronics/ARM/_Library/u8x8_cad.c ****       u8x8_mcd_byte_Send(mcd->next, arg_int);
  62:/Users/imashio/Electronics/ARM/_Library/u8x8_cad.c ****       break;
  63:/Users/imashio/Electronics/ARM/_Library/u8x8_cad.c ****     case U8X8_MSG_CAD_SEND_ARG:
  64:/Users/imashio/Electronics/ARM/_Library/u8x8_cad.c ****       u8x8_mcd_byte_SetDC(mcd->next, 1);
  65:/Users/imashio/Electronics/ARM/_Library/u8x8_cad.c ****       u8x8_mcd_byte_Send(mcd->next, arg_int);
  66:/Users/imashio/Electronics/ARM/_Library/u8x8_cad.c ****       break;
  67:/Users/imashio/Electronics/ARM/_Library/u8x8_cad.c ****     case U8X8_MSG_CAD_SEND_DATA:
  68:/Users/imashio/Electronics/ARM/_Library/u8x8_cad.c ****       u8x8_mcd_byte_SetDC(mcd->next, 0);
  69:/Users/imashio/Electronics/ARM/_Library/u8x8_cad.c ****       for( i = 0; i < 8; i++ )
  70:/Users/imashio/Electronics/ARM/_Library/u8x8_cad.c **** 	u8x8_mcd_byte_Send(mcd->next, ((uint8_t *)arg_ptr)[i]);
  71:/Users/imashio/Electronics/ARM/_Library/u8x8_cad.c ****       break;
  72:/Users/imashio/Electronics/ARM/_Library/u8x8_cad.c ****     case U8X8_MSG_CAD_RESET:
  73:/Users/imashio/Electronics/ARM/_Library/u8x8_cad.c ****       return mcd->next->cb(mcd->next, msg, arg_int, arg_ptr);
  74:/Users/imashio/Electronics/ARM/_Library/u8x8_cad.c ****     case U8X8_MSG_CAD_START_TRANSFER:
  75:/Users/imashio/Electronics/ARM/_Library/u8x8_cad.c ****       return mcd->next->cb(mcd->next, msg, arg_int, arg_ptr);
  76:/Users/imashio/Electronics/ARM/_Library/u8x8_cad.c ****     case U8X8_MSG_CAD_END_TRANSFER:
  77:/Users/imashio/Electronics/ARM/_Library/u8x8_cad.c ****       return mcd->next->cb(mcd->next, msg, arg_int, arg_ptr);
  78:/Users/imashio/Electronics/ARM/_Library/u8x8_cad.c ****     default:
  79:/Users/imashio/Electronics/ARM/_Library/u8x8_cad.c ****       break;
  80:/Users/imashio/Electronics/ARM/_Library/u8x8_cad.c ****   }
  81:/Users/imashio/Electronics/ARM/_Library/u8x8_cad.c ****   return 1;
  82:/Users/imashio/Electronics/ARM/_Library/u8x8_cad.c **** }
  83:/Users/imashio/Electronics/ARM/_Library/u8x8_cad.c **** 
  84:/Users/imashio/Electronics/ARM/_Library/u8x8_cad.c **** */
  85:/Users/imashio/Electronics/ARM/_Library/u8x8_cad.c **** 
  86:/Users/imashio/Electronics/ARM/_Library/u8x8_cad.c **** #include "u8x8.h"
  87:/Users/imashio/Electronics/ARM/_Library/u8x8_cad.c **** 
  88:/Users/imashio/Electronics/ARM/_Library/u8x8_cad.c **** uint8_t u8x8_cad_SendCmd(u8x8_t *u8x8, uint8_t cmd)
ARM GAS  /var/folders/v3/wysfpd052nz8jkbx04pk0ym80000gn/T//cczlQ9mM.s 			page 3


  89:/Users/imashio/Electronics/ARM/_Library/u8x8_cad.c **** {
  90:/Users/imashio/Electronics/ARM/_Library/u8x8_cad.c ****   return u8x8->cad_cb(u8x8, U8X8_MSG_CAD_SEND_CMD, cmd, NULL);
  91:/Users/imashio/Electronics/ARM/_Library/u8x8_cad.c **** }
  92:/Users/imashio/Electronics/ARM/_Library/u8x8_cad.c **** 
  93:/Users/imashio/Electronics/ARM/_Library/u8x8_cad.c **** uint8_t u8x8_cad_SendArg(u8x8_t *u8x8, uint8_t arg)
  94:/Users/imashio/Electronics/ARM/_Library/u8x8_cad.c **** {
  95:/Users/imashio/Electronics/ARM/_Library/u8x8_cad.c ****   return u8x8->cad_cb(u8x8, U8X8_MSG_CAD_SEND_ARG, arg, NULL);
  96:/Users/imashio/Electronics/ARM/_Library/u8x8_cad.c **** }
  97:/Users/imashio/Electronics/ARM/_Library/u8x8_cad.c **** 
  98:/Users/imashio/Electronics/ARM/_Library/u8x8_cad.c **** uint8_t u8x8_cad_SendMultipleArg(u8x8_t *u8x8, uint8_t cnt, uint8_t arg)
  99:/Users/imashio/Electronics/ARM/_Library/u8x8_cad.c **** {
 100:/Users/imashio/Electronics/ARM/_Library/u8x8_cad.c ****   while( cnt > 0 )
 101:/Users/imashio/Electronics/ARM/_Library/u8x8_cad.c ****   {
 102:/Users/imashio/Electronics/ARM/_Library/u8x8_cad.c ****     u8x8->cad_cb(u8x8, U8X8_MSG_CAD_SEND_ARG, arg, NULL);
 103:/Users/imashio/Electronics/ARM/_Library/u8x8_cad.c ****     cnt--;
 104:/Users/imashio/Electronics/ARM/_Library/u8x8_cad.c ****   }
 105:/Users/imashio/Electronics/ARM/_Library/u8x8_cad.c ****   return 1;
 106:/Users/imashio/Electronics/ARM/_Library/u8x8_cad.c **** }
 107:/Users/imashio/Electronics/ARM/_Library/u8x8_cad.c **** 
 108:/Users/imashio/Electronics/ARM/_Library/u8x8_cad.c **** uint8_t u8x8_cad_SendData(u8x8_t *u8x8, uint8_t cnt, uint8_t *data)
 109:/Users/imashio/Electronics/ARM/_Library/u8x8_cad.c **** {
 110:/Users/imashio/Electronics/ARM/_Library/u8x8_cad.c ****   return u8x8->cad_cb(u8x8, U8X8_MSG_CAD_SEND_DATA, cnt, data);
 111:/Users/imashio/Electronics/ARM/_Library/u8x8_cad.c **** }
 112:/Users/imashio/Electronics/ARM/_Library/u8x8_cad.c **** 
 113:/Users/imashio/Electronics/ARM/_Library/u8x8_cad.c **** uint8_t u8x8_cad_StartTransfer(u8x8_t *u8x8)
 114:/Users/imashio/Electronics/ARM/_Library/u8x8_cad.c **** {
 115:/Users/imashio/Electronics/ARM/_Library/u8x8_cad.c ****   return u8x8->cad_cb(u8x8, U8X8_MSG_CAD_START_TRANSFER, 0, NULL);
 116:/Users/imashio/Electronics/ARM/_Library/u8x8_cad.c **** }
 117:/Users/imashio/Electronics/ARM/_Library/u8x8_cad.c **** 
 118:/Users/imashio/Electronics/ARM/_Library/u8x8_cad.c **** uint8_t u8x8_cad_EndTransfer(u8x8_t *u8x8)
 119:/Users/imashio/Electronics/ARM/_Library/u8x8_cad.c **** {
 120:/Users/imashio/Electronics/ARM/_Library/u8x8_cad.c ****   return u8x8->cad_cb(u8x8, U8X8_MSG_CAD_END_TRANSFER, 0, NULL);
 121:/Users/imashio/Electronics/ARM/_Library/u8x8_cad.c **** }
 122:/Users/imashio/Electronics/ARM/_Library/u8x8_cad.c **** 
 123:/Users/imashio/Electronics/ARM/_Library/u8x8_cad.c **** /*
 124:/Users/imashio/Electronics/ARM/_Library/u8x8_cad.c ****   21 c		send command c
 125:/Users/imashio/Electronics/ARM/_Library/u8x8_cad.c ****   22 a		send arg a
 126:/Users/imashio/Electronics/ARM/_Library/u8x8_cad.c ****   23 d		send data d
 127:/Users/imashio/Electronics/ARM/_Library/u8x8_cad.c ****   24			CS on
 128:/Users/imashio/Electronics/ARM/_Library/u8x8_cad.c ****   25			CS off
 129:/Users/imashio/Electronics/ARM/_Library/u8x8_cad.c ****   254 milli	delay by milliseconds
 130:/Users/imashio/Electronics/ARM/_Library/u8x8_cad.c ****   255		end of sequence
 131:/Users/imashio/Electronics/ARM/_Library/u8x8_cad.c **** */
 132:/Users/imashio/Electronics/ARM/_Library/u8x8_cad.c **** 
 133:/Users/imashio/Electronics/ARM/_Library/u8x8_cad.c **** void u8x8_cad_SendSequence(u8x8_t *u8x8, uint8_t const *data)
 134:/Users/imashio/Electronics/ARM/_Library/u8x8_cad.c **** {
 135:/Users/imashio/Electronics/ARM/_Library/u8x8_cad.c ****   uint8_t cmd;
 136:/Users/imashio/Electronics/ARM/_Library/u8x8_cad.c ****   uint8_t v;
 137:/Users/imashio/Electronics/ARM/_Library/u8x8_cad.c **** 
 138:/Users/imashio/Electronics/ARM/_Library/u8x8_cad.c ****   for(;;)
 139:/Users/imashio/Electronics/ARM/_Library/u8x8_cad.c ****   {
 140:/Users/imashio/Electronics/ARM/_Library/u8x8_cad.c ****     cmd = *data;
 141:/Users/imashio/Electronics/ARM/_Library/u8x8_cad.c ****     data++;
 142:/Users/imashio/Electronics/ARM/_Library/u8x8_cad.c ****     switch( cmd )
 143:/Users/imashio/Electronics/ARM/_Library/u8x8_cad.c ****     {
 144:/Users/imashio/Electronics/ARM/_Library/u8x8_cad.c ****       case U8X8_MSG_CAD_SEND_CMD:
 145:/Users/imashio/Electronics/ARM/_Library/u8x8_cad.c ****       case U8X8_MSG_CAD_SEND_ARG:
ARM GAS  /var/folders/v3/wysfpd052nz8jkbx04pk0ym80000gn/T//cczlQ9mM.s 			page 4


 146:/Users/imashio/Electronics/ARM/_Library/u8x8_cad.c **** 	  v = *data;
 147:/Users/imashio/Electronics/ARM/_Library/u8x8_cad.c **** 	  u8x8->cad_cb(u8x8, cmd, v, NULL);
 148:/Users/imashio/Electronics/ARM/_Library/u8x8_cad.c **** 	  data++;
 149:/Users/imashio/Electronics/ARM/_Library/u8x8_cad.c **** 	  break;
 150:/Users/imashio/Electronics/ARM/_Library/u8x8_cad.c ****       case U8X8_MSG_CAD_SEND_DATA:
 151:/Users/imashio/Electronics/ARM/_Library/u8x8_cad.c **** 	  v = *data;
 152:/Users/imashio/Electronics/ARM/_Library/u8x8_cad.c **** 	  u8x8_cad_SendData(u8x8, 1, &v);
 153:/Users/imashio/Electronics/ARM/_Library/u8x8_cad.c **** 	  data++;
 154:/Users/imashio/Electronics/ARM/_Library/u8x8_cad.c **** 	  break;
 155:/Users/imashio/Electronics/ARM/_Library/u8x8_cad.c ****       case U8X8_MSG_CAD_START_TRANSFER:
 156:/Users/imashio/Electronics/ARM/_Library/u8x8_cad.c ****       case U8X8_MSG_CAD_END_TRANSFER:
 157:/Users/imashio/Electronics/ARM/_Library/u8x8_cad.c **** 	  u8x8->cad_cb(u8x8, cmd, 0, NULL);
 158:/Users/imashio/Electronics/ARM/_Library/u8x8_cad.c **** 	  break;
 159:/Users/imashio/Electronics/ARM/_Library/u8x8_cad.c ****       case 0x0fe:
 160:/Users/imashio/Electronics/ARM/_Library/u8x8_cad.c **** 	  v = *data;
 161:/Users/imashio/Electronics/ARM/_Library/u8x8_cad.c **** 	  u8x8_gpio_Delay(u8x8, U8X8_MSG_DELAY_MILLI, v);	    
 162:/Users/imashio/Electronics/ARM/_Library/u8x8_cad.c **** 	  data++;
 163:/Users/imashio/Electronics/ARM/_Library/u8x8_cad.c **** 	  break;
 164:/Users/imashio/Electronics/ARM/_Library/u8x8_cad.c ****       default:
 165:/Users/imashio/Electronics/ARM/_Library/u8x8_cad.c **** 	return;
 166:/Users/imashio/Electronics/ARM/_Library/u8x8_cad.c ****     }
 167:/Users/imashio/Electronics/ARM/_Library/u8x8_cad.c ****   }
 168:/Users/imashio/Electronics/ARM/_Library/u8x8_cad.c **** }
 169:/Users/imashio/Electronics/ARM/_Library/u8x8_cad.c **** 
 170:/Users/imashio/Electronics/ARM/_Library/u8x8_cad.c **** 
 171:/Users/imashio/Electronics/ARM/_Library/u8x8_cad.c **** uint8_t u8x8_cad_empty(u8x8_t *u8x8, uint8_t msg, uint8_t arg_int, void *arg_ptr)
 172:/Users/imashio/Electronics/ARM/_Library/u8x8_cad.c **** {
 173:/Users/imashio/Electronics/ARM/_Library/u8x8_cad.c ****   switch(msg)
 174:/Users/imashio/Electronics/ARM/_Library/u8x8_cad.c ****   {
 175:/Users/imashio/Electronics/ARM/_Library/u8x8_cad.c ****     case U8X8_MSG_CAD_SEND_CMD:
 176:/Users/imashio/Electronics/ARM/_Library/u8x8_cad.c ****       u8x8_byte_SendByte(u8x8, arg_int);
 177:/Users/imashio/Electronics/ARM/_Library/u8x8_cad.c ****       break;
 178:/Users/imashio/Electronics/ARM/_Library/u8x8_cad.c ****     case U8X8_MSG_CAD_SEND_ARG:
 179:/Users/imashio/Electronics/ARM/_Library/u8x8_cad.c ****       u8x8_byte_SendByte(u8x8, arg_int);
 180:/Users/imashio/Electronics/ARM/_Library/u8x8_cad.c ****       break;
 181:/Users/imashio/Electronics/ARM/_Library/u8x8_cad.c ****     case U8X8_MSG_CAD_SEND_DATA:
 182:/Users/imashio/Electronics/ARM/_Library/u8x8_cad.c ****     case U8X8_MSG_CAD_INIT:
 183:/Users/imashio/Electronics/ARM/_Library/u8x8_cad.c ****     case U8X8_MSG_CAD_START_TRANSFER:
 184:/Users/imashio/Electronics/ARM/_Library/u8x8_cad.c ****     case U8X8_MSG_CAD_END_TRANSFER:
 185:/Users/imashio/Electronics/ARM/_Library/u8x8_cad.c ****       return u8x8->byte_cb(u8x8, msg, arg_int, arg_ptr);
 186:/Users/imashio/Electronics/ARM/_Library/u8x8_cad.c ****     default:
 187:/Users/imashio/Electronics/ARM/_Library/u8x8_cad.c ****       return 0;
 188:/Users/imashio/Electronics/ARM/_Library/u8x8_cad.c ****   }
 189:/Users/imashio/Electronics/ARM/_Library/u8x8_cad.c ****   return 1;
 190:/Users/imashio/Electronics/ARM/_Library/u8x8_cad.c **** }
 191:/Users/imashio/Electronics/ARM/_Library/u8x8_cad.c **** 
 192:/Users/imashio/Electronics/ARM/_Library/u8x8_cad.c **** 
 193:/Users/imashio/Electronics/ARM/_Library/u8x8_cad.c **** /*
 194:/Users/imashio/Electronics/ARM/_Library/u8x8_cad.c ****   convert to bytes by using 
 195:/Users/imashio/Electronics/ARM/_Library/u8x8_cad.c ****     dc = 1 for commands and args and
 196:/Users/imashio/Electronics/ARM/_Library/u8x8_cad.c ****     dc = 0 for data
 197:/Users/imashio/Electronics/ARM/_Library/u8x8_cad.c **** */
 198:/Users/imashio/Electronics/ARM/_Library/u8x8_cad.c **** uint8_t u8x8_cad_110(u8x8_t *u8x8, uint8_t msg, uint8_t arg_int, void *arg_ptr)
 199:/Users/imashio/Electronics/ARM/_Library/u8x8_cad.c **** {
 200:/Users/imashio/Electronics/ARM/_Library/u8x8_cad.c ****   switch(msg)
 201:/Users/imashio/Electronics/ARM/_Library/u8x8_cad.c ****   {
 202:/Users/imashio/Electronics/ARM/_Library/u8x8_cad.c ****     case U8X8_MSG_CAD_SEND_CMD:
ARM GAS  /var/folders/v3/wysfpd052nz8jkbx04pk0ym80000gn/T//cczlQ9mM.s 			page 5


 203:/Users/imashio/Electronics/ARM/_Library/u8x8_cad.c ****       u8x8_byte_SetDC(u8x8, 1);
 204:/Users/imashio/Electronics/ARM/_Library/u8x8_cad.c ****       u8x8_byte_SendByte(u8x8, arg_int);
 205:/Users/imashio/Electronics/ARM/_Library/u8x8_cad.c ****       break;
 206:/Users/imashio/Electronics/ARM/_Library/u8x8_cad.c ****     case U8X8_MSG_CAD_SEND_ARG:
 207:/Users/imashio/Electronics/ARM/_Library/u8x8_cad.c ****       u8x8_byte_SetDC(u8x8, 1);
 208:/Users/imashio/Electronics/ARM/_Library/u8x8_cad.c ****       u8x8_byte_SendByte(u8x8, arg_int);
 209:/Users/imashio/Electronics/ARM/_Library/u8x8_cad.c ****       break;
 210:/Users/imashio/Electronics/ARM/_Library/u8x8_cad.c ****     case U8X8_MSG_CAD_SEND_DATA:
 211:/Users/imashio/Electronics/ARM/_Library/u8x8_cad.c ****       u8x8_byte_SetDC(u8x8, 0);
 212:/Users/imashio/Electronics/ARM/_Library/u8x8_cad.c ****       //u8x8_byte_SendBytes(u8x8, arg_int, arg_ptr);
 213:/Users/imashio/Electronics/ARM/_Library/u8x8_cad.c ****       //break;
 214:/Users/imashio/Electronics/ARM/_Library/u8x8_cad.c ****       /* fall through */
 215:/Users/imashio/Electronics/ARM/_Library/u8x8_cad.c ****     case U8X8_MSG_CAD_INIT:
 216:/Users/imashio/Electronics/ARM/_Library/u8x8_cad.c ****     case U8X8_MSG_CAD_START_TRANSFER:
 217:/Users/imashio/Electronics/ARM/_Library/u8x8_cad.c ****     case U8X8_MSG_CAD_END_TRANSFER:
 218:/Users/imashio/Electronics/ARM/_Library/u8x8_cad.c ****       return u8x8->byte_cb(u8x8, msg, arg_int, arg_ptr);
 219:/Users/imashio/Electronics/ARM/_Library/u8x8_cad.c ****     default:
 220:/Users/imashio/Electronics/ARM/_Library/u8x8_cad.c ****       return 0;
 221:/Users/imashio/Electronics/ARM/_Library/u8x8_cad.c ****   }
 222:/Users/imashio/Electronics/ARM/_Library/u8x8_cad.c ****   return 1;
 223:/Users/imashio/Electronics/ARM/_Library/u8x8_cad.c **** }
 224:/Users/imashio/Electronics/ARM/_Library/u8x8_cad.c **** 
 225:/Users/imashio/Electronics/ARM/_Library/u8x8_cad.c **** /*
 226:/Users/imashio/Electronics/ARM/_Library/u8x8_cad.c ****   convert to bytes by using 
 227:/Users/imashio/Electronics/ARM/_Library/u8x8_cad.c ****     dc = 1 for commands and args and
 228:/Users/imashio/Electronics/ARM/_Library/u8x8_cad.c ****     dc = 0 for data
 229:/Users/imashio/Electronics/ARM/_Library/u8x8_cad.c ****     t6963
 230:/Users/imashio/Electronics/ARM/_Library/u8x8_cad.c **** */
 231:/Users/imashio/Electronics/ARM/_Library/u8x8_cad.c **** uint8_t u8x8_cad_100(u8x8_t *u8x8, uint8_t msg, uint8_t arg_int, void *arg_ptr)
 232:/Users/imashio/Electronics/ARM/_Library/u8x8_cad.c **** {
 233:/Users/imashio/Electronics/ARM/_Library/u8x8_cad.c ****   switch(msg)
 234:/Users/imashio/Electronics/ARM/_Library/u8x8_cad.c ****   {
 235:/Users/imashio/Electronics/ARM/_Library/u8x8_cad.c ****     case U8X8_MSG_CAD_SEND_CMD:
 236:/Users/imashio/Electronics/ARM/_Library/u8x8_cad.c ****       u8x8_byte_SetDC(u8x8, 1);
 237:/Users/imashio/Electronics/ARM/_Library/u8x8_cad.c ****       u8x8_byte_SendByte(u8x8, arg_int);
 238:/Users/imashio/Electronics/ARM/_Library/u8x8_cad.c ****       break;
 239:/Users/imashio/Electronics/ARM/_Library/u8x8_cad.c ****     case U8X8_MSG_CAD_SEND_ARG:
 240:/Users/imashio/Electronics/ARM/_Library/u8x8_cad.c ****       u8x8_byte_SetDC(u8x8, 0);
 241:/Users/imashio/Electronics/ARM/_Library/u8x8_cad.c ****       u8x8_byte_SendByte(u8x8, arg_int);
 242:/Users/imashio/Electronics/ARM/_Library/u8x8_cad.c ****       break;
 243:/Users/imashio/Electronics/ARM/_Library/u8x8_cad.c ****     case U8X8_MSG_CAD_SEND_DATA:
 244:/Users/imashio/Electronics/ARM/_Library/u8x8_cad.c ****       u8x8_byte_SetDC(u8x8, 0);
 245:/Users/imashio/Electronics/ARM/_Library/u8x8_cad.c ****       //u8x8_byte_SendBytes(u8x8, arg_int, arg_ptr);
 246:/Users/imashio/Electronics/ARM/_Library/u8x8_cad.c ****       //break;
 247:/Users/imashio/Electronics/ARM/_Library/u8x8_cad.c ****       /* fall through */
 248:/Users/imashio/Electronics/ARM/_Library/u8x8_cad.c ****     case U8X8_MSG_CAD_INIT:
 249:/Users/imashio/Electronics/ARM/_Library/u8x8_cad.c ****     case U8X8_MSG_CAD_START_TRANSFER:
 250:/Users/imashio/Electronics/ARM/_Library/u8x8_cad.c ****     case U8X8_MSG_CAD_END_TRANSFER:
 251:/Users/imashio/Electronics/ARM/_Library/u8x8_cad.c ****       return u8x8->byte_cb(u8x8, msg, arg_int, arg_ptr);
 252:/Users/imashio/Electronics/ARM/_Library/u8x8_cad.c ****     default:
 253:/Users/imashio/Electronics/ARM/_Library/u8x8_cad.c ****       return 0;
 254:/Users/imashio/Electronics/ARM/_Library/u8x8_cad.c ****   }
 255:/Users/imashio/Electronics/ARM/_Library/u8x8_cad.c ****   return 1;
 256:/Users/imashio/Electronics/ARM/_Library/u8x8_cad.c **** }
 257:/Users/imashio/Electronics/ARM/_Library/u8x8_cad.c **** 
 258:/Users/imashio/Electronics/ARM/_Library/u8x8_cad.c **** /*
 259:/Users/imashio/Electronics/ARM/_Library/u8x8_cad.c ****   convert to bytes by using 
ARM GAS  /var/folders/v3/wysfpd052nz8jkbx04pk0ym80000gn/T//cczlQ9mM.s 			page 6


 260:/Users/imashio/Electronics/ARM/_Library/u8x8_cad.c ****     dc = 0 for commands and args and
 261:/Users/imashio/Electronics/ARM/_Library/u8x8_cad.c ****     dc = 1 for data
 262:/Users/imashio/Electronics/ARM/_Library/u8x8_cad.c **** */
 263:/Users/imashio/Electronics/ARM/_Library/u8x8_cad.c **** uint8_t u8x8_cad_001(u8x8_t *u8x8, uint8_t msg, uint8_t arg_int, void *arg_ptr)
 264:/Users/imashio/Electronics/ARM/_Library/u8x8_cad.c **** {
 265:/Users/imashio/Electronics/ARM/_Library/u8x8_cad.c ****   switch(msg)
 266:/Users/imashio/Electronics/ARM/_Library/u8x8_cad.c ****   {
 267:/Users/imashio/Electronics/ARM/_Library/u8x8_cad.c ****     case U8X8_MSG_CAD_SEND_CMD:
 268:/Users/imashio/Electronics/ARM/_Library/u8x8_cad.c ****       u8x8_byte_SetDC(u8x8, 0);
 269:/Users/imashio/Electronics/ARM/_Library/u8x8_cad.c ****       u8x8_byte_SendByte(u8x8, arg_int);
 270:/Users/imashio/Electronics/ARM/_Library/u8x8_cad.c ****       break;
 271:/Users/imashio/Electronics/ARM/_Library/u8x8_cad.c ****     case U8X8_MSG_CAD_SEND_ARG:
 272:/Users/imashio/Electronics/ARM/_Library/u8x8_cad.c ****       u8x8_byte_SetDC(u8x8, 0);
 273:/Users/imashio/Electronics/ARM/_Library/u8x8_cad.c ****       u8x8_byte_SendByte(u8x8, arg_int);
 274:/Users/imashio/Electronics/ARM/_Library/u8x8_cad.c ****       break;
 275:/Users/imashio/Electronics/ARM/_Library/u8x8_cad.c ****     case U8X8_MSG_CAD_SEND_DATA:
 276:/Users/imashio/Electronics/ARM/_Library/u8x8_cad.c ****       u8x8_byte_SetDC(u8x8, 1);
 277:/Users/imashio/Electronics/ARM/_Library/u8x8_cad.c ****       //u8x8_byte_SendBytes(u8x8, arg_int, arg_ptr);
 278:/Users/imashio/Electronics/ARM/_Library/u8x8_cad.c ****       //break;
 279:/Users/imashio/Electronics/ARM/_Library/u8x8_cad.c ****       /* fall through */
 280:/Users/imashio/Electronics/ARM/_Library/u8x8_cad.c ****     case U8X8_MSG_CAD_INIT:
 281:/Users/imashio/Electronics/ARM/_Library/u8x8_cad.c ****     case U8X8_MSG_CAD_START_TRANSFER:
 282:/Users/imashio/Electronics/ARM/_Library/u8x8_cad.c ****     case U8X8_MSG_CAD_END_TRANSFER:
 283:/Users/imashio/Electronics/ARM/_Library/u8x8_cad.c ****       return u8x8->byte_cb(u8x8, msg, arg_int, arg_ptr);
 284:/Users/imashio/Electronics/ARM/_Library/u8x8_cad.c ****     default:
 285:/Users/imashio/Electronics/ARM/_Library/u8x8_cad.c ****       return 0;
 286:/Users/imashio/Electronics/ARM/_Library/u8x8_cad.c ****   }
 287:/Users/imashio/Electronics/ARM/_Library/u8x8_cad.c ****   return 1;
 288:/Users/imashio/Electronics/ARM/_Library/u8x8_cad.c **** }
 289:/Users/imashio/Electronics/ARM/_Library/u8x8_cad.c **** 
 290:/Users/imashio/Electronics/ARM/_Library/u8x8_cad.c **** /*
 291:/Users/imashio/Electronics/ARM/_Library/u8x8_cad.c ****   convert to bytes by using 
 292:/Users/imashio/Electronics/ARM/_Library/u8x8_cad.c ****     dc = 0 for commands 
 293:/Users/imashio/Electronics/ARM/_Library/u8x8_cad.c ****     dc = 1 for args and data
 294:/Users/imashio/Electronics/ARM/_Library/u8x8_cad.c **** */
 295:/Users/imashio/Electronics/ARM/_Library/u8x8_cad.c **** uint8_t u8x8_cad_011(u8x8_t *u8x8, uint8_t msg, uint8_t arg_int, void *arg_ptr)
 296:/Users/imashio/Electronics/ARM/_Library/u8x8_cad.c **** {
 297:/Users/imashio/Electronics/ARM/_Library/u8x8_cad.c ****   switch(msg)
 298:/Users/imashio/Electronics/ARM/_Library/u8x8_cad.c ****   {
 299:/Users/imashio/Electronics/ARM/_Library/u8x8_cad.c ****     case U8X8_MSG_CAD_SEND_CMD:
 300:/Users/imashio/Electronics/ARM/_Library/u8x8_cad.c ****       u8x8_byte_SetDC(u8x8, 0);
 301:/Users/imashio/Electronics/ARM/_Library/u8x8_cad.c ****       u8x8_byte_SendByte(u8x8, arg_int);
 302:/Users/imashio/Electronics/ARM/_Library/u8x8_cad.c ****       break;
 303:/Users/imashio/Electronics/ARM/_Library/u8x8_cad.c ****     case U8X8_MSG_CAD_SEND_ARG:
 304:/Users/imashio/Electronics/ARM/_Library/u8x8_cad.c ****       u8x8_byte_SetDC(u8x8, 1);
 305:/Users/imashio/Electronics/ARM/_Library/u8x8_cad.c ****       u8x8_byte_SendByte(u8x8, arg_int);
 306:/Users/imashio/Electronics/ARM/_Library/u8x8_cad.c ****       break;
 307:/Users/imashio/Electronics/ARM/_Library/u8x8_cad.c ****     case U8X8_MSG_CAD_SEND_DATA:
 308:/Users/imashio/Electronics/ARM/_Library/u8x8_cad.c ****       u8x8_byte_SetDC(u8x8, 1);
 309:/Users/imashio/Electronics/ARM/_Library/u8x8_cad.c ****       //u8x8_byte_SendBytes(u8x8, arg_int, arg_ptr);
 310:/Users/imashio/Electronics/ARM/_Library/u8x8_cad.c ****       //break;
 311:/Users/imashio/Electronics/ARM/_Library/u8x8_cad.c ****       /* fall through */
 312:/Users/imashio/Electronics/ARM/_Library/u8x8_cad.c ****     case U8X8_MSG_CAD_INIT:
 313:/Users/imashio/Electronics/ARM/_Library/u8x8_cad.c ****     case U8X8_MSG_CAD_START_TRANSFER:
 314:/Users/imashio/Electronics/ARM/_Library/u8x8_cad.c ****     case U8X8_MSG_CAD_END_TRANSFER:
 315:/Users/imashio/Electronics/ARM/_Library/u8x8_cad.c ****       return u8x8->byte_cb(u8x8, msg, arg_int, arg_ptr);
 316:/Users/imashio/Electronics/ARM/_Library/u8x8_cad.c ****     default:
ARM GAS  /var/folders/v3/wysfpd052nz8jkbx04pk0ym80000gn/T//cczlQ9mM.s 			page 7


 317:/Users/imashio/Electronics/ARM/_Library/u8x8_cad.c ****       return 0;
 318:/Users/imashio/Electronics/ARM/_Library/u8x8_cad.c ****   }
 319:/Users/imashio/Electronics/ARM/_Library/u8x8_cad.c ****   return 1;
 320:/Users/imashio/Electronics/ARM/_Library/u8x8_cad.c **** }
 321:/Users/imashio/Electronics/ARM/_Library/u8x8_cad.c **** 
 322:/Users/imashio/Electronics/ARM/_Library/u8x8_cad.c **** /* cad procedure for the ST7920 in SPI mode */
 323:/Users/imashio/Electronics/ARM/_Library/u8x8_cad.c **** /* u8x8_byte_SetDC is not used */
 324:/Users/imashio/Electronics/ARM/_Library/u8x8_cad.c **** uint8_t u8x8_cad_st7920_spi(u8x8_t *u8x8, uint8_t msg, uint8_t arg_int, void *arg_ptr)
 325:/Users/imashio/Electronics/ARM/_Library/u8x8_cad.c **** {
 326:/Users/imashio/Electronics/ARM/_Library/u8x8_cad.c ****   uint8_t *data;
 327:/Users/imashio/Electronics/ARM/_Library/u8x8_cad.c ****   uint8_t b;
 328:/Users/imashio/Electronics/ARM/_Library/u8x8_cad.c ****   uint8_t i;
 329:/Users/imashio/Electronics/ARM/_Library/u8x8_cad.c ****   static uint8_t buf[16];
 330:/Users/imashio/Electronics/ARM/_Library/u8x8_cad.c ****   uint8_t *ptr;
 331:/Users/imashio/Electronics/ARM/_Library/u8x8_cad.c ****   
 332:/Users/imashio/Electronics/ARM/_Library/u8x8_cad.c ****   switch(msg)
 333:/Users/imashio/Electronics/ARM/_Library/u8x8_cad.c ****   {
 334:/Users/imashio/Electronics/ARM/_Library/u8x8_cad.c ****     case U8X8_MSG_CAD_SEND_CMD:
 335:/Users/imashio/Electronics/ARM/_Library/u8x8_cad.c ****       u8x8_byte_SendByte(u8x8, 0x0f8);
 336:/Users/imashio/Electronics/ARM/_Library/u8x8_cad.c ****       u8x8_gpio_Delay(u8x8, U8X8_MSG_DELAY_NANO, 1);
 337:/Users/imashio/Electronics/ARM/_Library/u8x8_cad.c ****       u8x8_byte_SendByte(u8x8, arg_int & 0x0f0);
 338:/Users/imashio/Electronics/ARM/_Library/u8x8_cad.c ****       u8x8_gpio_Delay(u8x8, U8X8_MSG_DELAY_NANO, 1);
 339:/Users/imashio/Electronics/ARM/_Library/u8x8_cad.c ****       u8x8_byte_SendByte(u8x8, arg_int << 4);
 340:/Users/imashio/Electronics/ARM/_Library/u8x8_cad.c ****       u8x8_gpio_Delay(u8x8, U8X8_MSG_DELAY_NANO, 1);
 341:/Users/imashio/Electronics/ARM/_Library/u8x8_cad.c ****       break;
 342:/Users/imashio/Electronics/ARM/_Library/u8x8_cad.c ****     case U8X8_MSG_CAD_SEND_ARG:
 343:/Users/imashio/Electronics/ARM/_Library/u8x8_cad.c ****       u8x8_byte_SendByte(u8x8, 0x0f8);
 344:/Users/imashio/Electronics/ARM/_Library/u8x8_cad.c ****       u8x8_byte_SendByte(u8x8, arg_int & 0x0f0);
 345:/Users/imashio/Electronics/ARM/_Library/u8x8_cad.c ****       u8x8_byte_SendByte(u8x8, arg_int << 4);
 346:/Users/imashio/Electronics/ARM/_Library/u8x8_cad.c ****       break;
 347:/Users/imashio/Electronics/ARM/_Library/u8x8_cad.c ****     case U8X8_MSG_CAD_SEND_DATA:
 348:/Users/imashio/Electronics/ARM/_Library/u8x8_cad.c ****     
 349:/Users/imashio/Electronics/ARM/_Library/u8x8_cad.c ****       u8x8_byte_SendByte(u8x8, 0x0fa);
 350:/Users/imashio/Electronics/ARM/_Library/u8x8_cad.c ****       u8x8_gpio_Delay(u8x8, U8X8_MSG_DELAY_NANO, 1);
 351:/Users/imashio/Electronics/ARM/_Library/u8x8_cad.c **** 
 352:/Users/imashio/Electronics/ARM/_Library/u8x8_cad.c ****       /* this loop should be optimized: multiple bytes should be sent */
 353:/Users/imashio/Electronics/ARM/_Library/u8x8_cad.c ****       /* u8x8_byte_SendBytes(u8x8, arg_int, arg_ptr); */
 354:/Users/imashio/Electronics/ARM/_Library/u8x8_cad.c ****       data = (uint8_t *)arg_ptr;
 355:/Users/imashio/Electronics/ARM/_Library/u8x8_cad.c ****     
 356:/Users/imashio/Electronics/ARM/_Library/u8x8_cad.c ****       /* the following loop increases speed by 20% */
 357:/Users/imashio/Electronics/ARM/_Library/u8x8_cad.c ****       while( arg_int >= 8 )
 358:/Users/imashio/Electronics/ARM/_Library/u8x8_cad.c ****       {
 359:/Users/imashio/Electronics/ARM/_Library/u8x8_cad.c **** 	i = 8;
 360:/Users/imashio/Electronics/ARM/_Library/u8x8_cad.c **** 	ptr = buf;
 361:/Users/imashio/Electronics/ARM/_Library/u8x8_cad.c **** 	do
 362:/Users/imashio/Electronics/ARM/_Library/u8x8_cad.c **** 	{
 363:/Users/imashio/Electronics/ARM/_Library/u8x8_cad.c **** 	  b = *data++;
 364:/Users/imashio/Electronics/ARM/_Library/u8x8_cad.c **** 	  *ptr++= b & 0x0f0;
 365:/Users/imashio/Electronics/ARM/_Library/u8x8_cad.c **** 	  b <<= 4;
 366:/Users/imashio/Electronics/ARM/_Library/u8x8_cad.c **** 	  *ptr++= b;
 367:/Users/imashio/Electronics/ARM/_Library/u8x8_cad.c **** 	  i--;
 368:/Users/imashio/Electronics/ARM/_Library/u8x8_cad.c **** 	} while( i > 0 );
 369:/Users/imashio/Electronics/ARM/_Library/u8x8_cad.c **** 	arg_int -= 8;
 370:/Users/imashio/Electronics/ARM/_Library/u8x8_cad.c **** 	u8x8_byte_SendBytes(u8x8, 16, buf); 
 371:/Users/imashio/Electronics/ARM/_Library/u8x8_cad.c ****       }
 372:/Users/imashio/Electronics/ARM/_Library/u8x8_cad.c ****       
 373:/Users/imashio/Electronics/ARM/_Library/u8x8_cad.c ****     
ARM GAS  /var/folders/v3/wysfpd052nz8jkbx04pk0ym80000gn/T//cczlQ9mM.s 			page 8


 374:/Users/imashio/Electronics/ARM/_Library/u8x8_cad.c ****       while( arg_int > 0 )
 375:/Users/imashio/Electronics/ARM/_Library/u8x8_cad.c ****       {
 376:/Users/imashio/Electronics/ARM/_Library/u8x8_cad.c **** 	b = *data;
 377:/Users/imashio/Electronics/ARM/_Library/u8x8_cad.c **** 	u8x8_byte_SendByte(u8x8, b & 0x0f0);
 378:/Users/imashio/Electronics/ARM/_Library/u8x8_cad.c **** 	u8x8_byte_SendByte(u8x8, b << 4);
 379:/Users/imashio/Electronics/ARM/_Library/u8x8_cad.c **** 	data++;
 380:/Users/imashio/Electronics/ARM/_Library/u8x8_cad.c **** 	arg_int--;
 381:/Users/imashio/Electronics/ARM/_Library/u8x8_cad.c ****       }
 382:/Users/imashio/Electronics/ARM/_Library/u8x8_cad.c ****       u8x8_gpio_Delay(u8x8, U8X8_MSG_DELAY_NANO, 1);
 383:/Users/imashio/Electronics/ARM/_Library/u8x8_cad.c ****       break;
 384:/Users/imashio/Electronics/ARM/_Library/u8x8_cad.c ****     case U8X8_MSG_CAD_INIT:
 385:/Users/imashio/Electronics/ARM/_Library/u8x8_cad.c ****     case U8X8_MSG_CAD_START_TRANSFER:
 386:/Users/imashio/Electronics/ARM/_Library/u8x8_cad.c ****     case U8X8_MSG_CAD_END_TRANSFER:
 387:/Users/imashio/Electronics/ARM/_Library/u8x8_cad.c ****       return u8x8->byte_cb(u8x8, msg, arg_int, arg_ptr);
 388:/Users/imashio/Electronics/ARM/_Library/u8x8_cad.c ****     default:
 389:/Users/imashio/Electronics/ARM/_Library/u8x8_cad.c ****       return 0;
 390:/Users/imashio/Electronics/ARM/_Library/u8x8_cad.c ****   }
 391:/Users/imashio/Electronics/ARM/_Library/u8x8_cad.c ****   return 1;
 392:/Users/imashio/Electronics/ARM/_Library/u8x8_cad.c **** }
 393:/Users/imashio/Electronics/ARM/_Library/u8x8_cad.c **** 
 394:/Users/imashio/Electronics/ARM/_Library/u8x8_cad.c **** 
 395:/Users/imashio/Electronics/ARM/_Library/u8x8_cad.c **** /* cad procedure for the SSD13xx family in I2C mode */
 396:/Users/imashio/Electronics/ARM/_Library/u8x8_cad.c **** /* this procedure is also used by the ST7588 */
 397:/Users/imashio/Electronics/ARM/_Library/u8x8_cad.c **** /* u8x8_byte_SetDC is not used */
 398:/Users/imashio/Electronics/ARM/_Library/u8x8_cad.c **** /* U8X8_MSG_BYTE_START_TRANSFER starts i2c transfer, U8X8_MSG_BYTE_END_TRANSFER stops transfer */
 399:/Users/imashio/Electronics/ARM/_Library/u8x8_cad.c **** /* After transfer start, a full byte indicates command or data mode */
 400:/Users/imashio/Electronics/ARM/_Library/u8x8_cad.c **** 
 401:/Users/imashio/Electronics/ARM/_Library/u8x8_cad.c **** static void u8x8_i2c_data_transfer(u8x8_t *u8x8, uint8_t arg_int, void *arg_ptr) U8X8_NOINLINE;
 402:/Users/imashio/Electronics/ARM/_Library/u8x8_cad.c **** static void u8x8_i2c_data_transfer(u8x8_t *u8x8, uint8_t arg_int, void *arg_ptr)
 403:/Users/imashio/Electronics/ARM/_Library/u8x8_cad.c **** {
  28              		.loc 1 403 0
  29              		.cfi_startproc
  30              		@ args = 0, pretend = 0, frame = 0
  31              		@ frame_needed = 0, uses_anonymous_args = 0
  32              	.LVL0:
  33 0000 70B5     		push	{r4, r5, r6, lr}
  34              	.LCFI0:
  35              		.cfi_def_cfa_offset 16
  36              		.cfi_offset 4, -16
  37              		.cfi_offset 5, -12
  38              		.cfi_offset 6, -8
  39              		.cfi_offset 14, -4
  40              		.loc 1 403 0
  41 0002 0446     		mov	r4, r0
  42 0004 1646     		mov	r6, r2
  43 0006 0D46     		mov	r5, r1
 404:/Users/imashio/Electronics/ARM/_Library/u8x8_cad.c ****     u8x8_byte_StartTransfer(u8x8);    
  44              		.loc 1 404 0
  45 0008 FFF7FEFF 		bl	u8x8_byte_StartTransfer
  46              	.LVL1:
 405:/Users/imashio/Electronics/ARM/_Library/u8x8_cad.c ****     u8x8_byte_SendByte(u8x8, 0x040);
  47              		.loc 1 405 0
  48 000c 2046     		mov	r0, r4
  49 000e 4021     		movs	r1, #64
  50 0010 FFF7FEFF 		bl	u8x8_byte_SendByte
  51              	.LVL2:
 406:/Users/imashio/Electronics/ARM/_Library/u8x8_cad.c ****     u8x8->byte_cb(u8x8, U8X8_MSG_CAD_SEND_DATA, arg_int, arg_ptr);
ARM GAS  /var/folders/v3/wysfpd052nz8jkbx04pk0ym80000gn/T//cczlQ9mM.s 			page 9


  52              		.loc 1 406 0
  53 0014 3346     		mov	r3, r6
  54 0016 2A46     		mov	r2, r5
  55 0018 2046     		mov	r0, r4
  56 001a 2569     		ldr	r5, [r4, #16]
  57 001c 1721     		movs	r1, #23
  58 001e A847     		blx	r5
  59              	.LVL3:
 407:/Users/imashio/Electronics/ARM/_Library/u8x8_cad.c ****     u8x8_byte_EndTransfer(u8x8);
  60              		.loc 1 407 0
  61 0020 2046     		mov	r0, r4
 408:/Users/imashio/Electronics/ARM/_Library/u8x8_cad.c **** }
  62              		.loc 1 408 0
  63 0022 BDE87040 		pop	{r4, r5, r6, lr}
  64              	.LCFI1:
  65              		.cfi_restore 14
  66              		.cfi_restore 6
  67              		.cfi_restore 5
  68              		.cfi_restore 4
  69              		.cfi_def_cfa_offset 0
  70              	.LVL4:
 407:/Users/imashio/Electronics/ARM/_Library/u8x8_cad.c ****     u8x8_byte_EndTransfer(u8x8);
  71              		.loc 1 407 0
  72 0026 FFF7FEBF 		b	u8x8_byte_EndTransfer
  73              	.LVL5:
  74              		.cfi_endproc
  75              	.LFE13:
  77 002a 00BF     		.section	.text.u8x8_cad_SendCmd,"ax",%progbits
  78              		.align	1
  79              		.p2align 2,,3
  80              		.global	u8x8_cad_SendCmd
  81              		.syntax unified
  82              		.thumb
  83              		.thumb_func
  84              		.fpu fpv4-sp-d16
  86              	u8x8_cad_SendCmd:
  87              	.LFB0:
  89:/Users/imashio/Electronics/ARM/_Library/u8x8_cad.c ****   return u8x8->cad_cb(u8x8, U8X8_MSG_CAD_SEND_CMD, cmd, NULL);
  88              		.loc 1 89 0
  89              		.cfi_startproc
  90              		@ args = 0, pretend = 0, frame = 0
  91              		@ frame_needed = 0, uses_anonymous_args = 0
  92              		@ link register save eliminated.
  93              	.LVL6:
  94 0000 10B4     		push	{r4}
  95              	.LCFI2:
  96              		.cfi_def_cfa_offset 4
  97              		.cfi_offset 4, -4
  90:/Users/imashio/Electronics/ARM/_Library/u8x8_cad.c **** }
  98              		.loc 1 90 0
  99 0002 C468     		ldr	r4, [r0, #12]
 100 0004 0A46     		mov	r2, r1
 101 0006 A446     		mov	ip, r4
 102 0008 0023     		movs	r3, #0
 103 000a 1521     		movs	r1, #21
 104              	.LVL7:
  91:/Users/imashio/Electronics/ARM/_Library/u8x8_cad.c **** 
ARM GAS  /var/folders/v3/wysfpd052nz8jkbx04pk0ym80000gn/T//cczlQ9mM.s 			page 10


 105              		.loc 1 91 0
 106 000c 5DF8044B 		ldr	r4, [sp], #4
 107              	.LCFI3:
 108              		.cfi_restore 4
 109              		.cfi_def_cfa_offset 0
  90:/Users/imashio/Electronics/ARM/_Library/u8x8_cad.c **** }
 110              		.loc 1 90 0
 111 0010 6047     		bx	ip
 112              	.LVL8:
 113              		.cfi_endproc
 114              	.LFE0:
 116 0012 00BF     		.section	.text.u8x8_cad_SendArg,"ax",%progbits
 117              		.align	1
 118              		.p2align 2,,3
 119              		.global	u8x8_cad_SendArg
 120              		.syntax unified
 121              		.thumb
 122              		.thumb_func
 123              		.fpu fpv4-sp-d16
 125              	u8x8_cad_SendArg:
 126              	.LFB1:
  94:/Users/imashio/Electronics/ARM/_Library/u8x8_cad.c ****   return u8x8->cad_cb(u8x8, U8X8_MSG_CAD_SEND_ARG, arg, NULL);
 127              		.loc 1 94 0
 128              		.cfi_startproc
 129              		@ args = 0, pretend = 0, frame = 0
 130              		@ frame_needed = 0, uses_anonymous_args = 0
 131              		@ link register save eliminated.
 132              	.LVL9:
 133 0000 10B4     		push	{r4}
 134              	.LCFI4:
 135              		.cfi_def_cfa_offset 4
 136              		.cfi_offset 4, -4
  95:/Users/imashio/Electronics/ARM/_Library/u8x8_cad.c **** }
 137              		.loc 1 95 0
 138 0002 C468     		ldr	r4, [r0, #12]
 139 0004 0A46     		mov	r2, r1
 140 0006 A446     		mov	ip, r4
 141 0008 0023     		movs	r3, #0
 142 000a 1621     		movs	r1, #22
 143              	.LVL10:
  96:/Users/imashio/Electronics/ARM/_Library/u8x8_cad.c **** 
 144              		.loc 1 96 0
 145 000c 5DF8044B 		ldr	r4, [sp], #4
 146              	.LCFI5:
 147              		.cfi_restore 4
 148              		.cfi_def_cfa_offset 0
  95:/Users/imashio/Electronics/ARM/_Library/u8x8_cad.c **** }
 149              		.loc 1 95 0
 150 0010 6047     		bx	ip
 151              	.LVL11:
 152              		.cfi_endproc
 153              	.LFE1:
 155 0012 00BF     		.section	.text.u8x8_cad_SendMultipleArg,"ax",%progbits
 156              		.align	1
 157              		.p2align 2,,3
 158              		.global	u8x8_cad_SendMultipleArg
 159              		.syntax unified
ARM GAS  /var/folders/v3/wysfpd052nz8jkbx04pk0ym80000gn/T//cczlQ9mM.s 			page 11


 160              		.thumb
 161              		.thumb_func
 162              		.fpu fpv4-sp-d16
 164              	u8x8_cad_SendMultipleArg:
 165              	.LFB2:
  99:/Users/imashio/Electronics/ARM/_Library/u8x8_cad.c ****   while( cnt > 0 )
 166              		.loc 1 99 0
 167              		.cfi_startproc
 168              		@ args = 0, pretend = 0, frame = 0
 169              		@ frame_needed = 0, uses_anonymous_args = 0
 170              	.LVL12:
 100:/Users/imashio/Electronics/ARM/_Library/u8x8_cad.c ****   {
 171              		.loc 1 100 0
 172 0000 79B1     		cbz	r1, .L16
  99:/Users/imashio/Electronics/ARM/_Library/u8x8_cad.c ****   while( cnt > 0 )
 173              		.loc 1 99 0
 174 0002 F8B5     		push	{r3, r4, r5, r6, r7, lr}
 175              	.LCFI6:
 176              		.cfi_def_cfa_offset 24
 177              		.cfi_offset 3, -24
 178              		.cfi_offset 4, -20
 179              		.cfi_offset 5, -16
 180              		.cfi_offset 6, -12
 181              		.cfi_offset 7, -8
 182              		.cfi_offset 14, -4
 183 0004 0546     		mov	r5, r0
 184 0006 1746     		mov	r7, r2
 185 0008 0C46     		mov	r4, r1
 186              	.LVL13:
 187              	.L10:
 102:/Users/imashio/Electronics/ARM/_Library/u8x8_cad.c ****     cnt--;
 188              		.loc 1 102 0
 189 000a 1621     		movs	r1, #22
 190 000c EE68     		ldr	r6, [r5, #12]
 191 000e 0023     		movs	r3, #0
 192 0010 3A46     		mov	r2, r7
 193 0012 2846     		mov	r0, r5
 194 0014 B047     		blx	r6
 195              	.LVL14:
 103:/Users/imashio/Electronics/ARM/_Library/u8x8_cad.c ****   }
 196              		.loc 1 103 0
 197 0016 611E     		subs	r1, r4, #1
 198              	.LVL15:
 100:/Users/imashio/Electronics/ARM/_Library/u8x8_cad.c ****   {
 199              		.loc 1 100 0
 200 0018 11F0FF04 		ands	r4, r1, #255
 201 001c F5D1     		bne	.L10
 106:/Users/imashio/Electronics/ARM/_Library/u8x8_cad.c **** 
 202              		.loc 1 106 0
 203 001e 0120     		movs	r0, #1
 204 0020 F8BD     		pop	{r3, r4, r5, r6, r7, pc}
 205              	.LVL16:
 206              	.L16:
 207              	.LCFI7:
 208              		.cfi_def_cfa_offset 0
 209              		.cfi_restore 3
 210              		.cfi_restore 4
ARM GAS  /var/folders/v3/wysfpd052nz8jkbx04pk0ym80000gn/T//cczlQ9mM.s 			page 12


 211              		.cfi_restore 5
 212              		.cfi_restore 6
 213              		.cfi_restore 7
 214              		.cfi_restore 14
 215 0022 0120     		movs	r0, #1
 216              	.LVL17:
 217 0024 7047     		bx	lr
 218              		.cfi_endproc
 219              	.LFE2:
 221 0026 00BF     		.section	.text.u8x8_cad_SendData,"ax",%progbits
 222              		.align	1
 223              		.p2align 2,,3
 224              		.global	u8x8_cad_SendData
 225              		.syntax unified
 226              		.thumb
 227              		.thumb_func
 228              		.fpu fpv4-sp-d16
 230              	u8x8_cad_SendData:
 231              	.LFB3:
 109:/Users/imashio/Electronics/ARM/_Library/u8x8_cad.c ****   return u8x8->cad_cb(u8x8, U8X8_MSG_CAD_SEND_DATA, cnt, data);
 232              		.loc 1 109 0
 233              		.cfi_startproc
 234              		@ args = 0, pretend = 0, frame = 0
 235              		@ frame_needed = 0, uses_anonymous_args = 0
 236              		@ link register save eliminated.
 237              	.LVL18:
 238 0000 10B4     		push	{r4}
 239              	.LCFI8:
 240              		.cfi_def_cfa_offset 4
 241              		.cfi_offset 4, -4
 110:/Users/imashio/Electronics/ARM/_Library/u8x8_cad.c **** }
 242              		.loc 1 110 0
 243 0002 C468     		ldr	r4, [r0, #12]
 244 0004 1346     		mov	r3, r2
 245 0006 A446     		mov	ip, r4
 246 0008 0A46     		mov	r2, r1
 247              	.LVL19:
 111:/Users/imashio/Electronics/ARM/_Library/u8x8_cad.c **** 
 248              		.loc 1 111 0
 249 000a 5DF8044B 		ldr	r4, [sp], #4
 250              	.LCFI9:
 251              		.cfi_restore 4
 252              		.cfi_def_cfa_offset 0
 110:/Users/imashio/Electronics/ARM/_Library/u8x8_cad.c **** }
 253              		.loc 1 110 0
 254 000e 1721     		movs	r1, #23
 255              	.LVL20:
 256 0010 6047     		bx	ip
 257              	.LVL21:
 258              		.cfi_endproc
 259              	.LFE3:
 261 0012 00BF     		.section	.text.u8x8_cad_StartTransfer,"ax",%progbits
 262              		.align	1
 263              		.p2align 2,,3
 264              		.global	u8x8_cad_StartTransfer
 265              		.syntax unified
 266              		.thumb
ARM GAS  /var/folders/v3/wysfpd052nz8jkbx04pk0ym80000gn/T//cczlQ9mM.s 			page 13


 267              		.thumb_func
 268              		.fpu fpv4-sp-d16
 270              	u8x8_cad_StartTransfer:
 271              	.LFB4:
 114:/Users/imashio/Electronics/ARM/_Library/u8x8_cad.c ****   return u8x8->cad_cb(u8x8, U8X8_MSG_CAD_START_TRANSFER, 0, NULL);
 272              		.loc 1 114 0
 273              		.cfi_startproc
 274              		@ args = 0, pretend = 0, frame = 0
 275              		@ frame_needed = 0, uses_anonymous_args = 0
 276              		@ link register save eliminated.
 277              	.LVL22:
 278 0000 10B4     		push	{r4}
 279              	.LCFI10:
 280              		.cfi_def_cfa_offset 4
 281              		.cfi_offset 4, -4
 115:/Users/imashio/Electronics/ARM/_Library/u8x8_cad.c **** }
 282              		.loc 1 115 0
 283 0002 C468     		ldr	r4, [r0, #12]
 284 0004 0023     		movs	r3, #0
 285 0006 A446     		mov	ip, r4
 286 0008 1A46     		mov	r2, r3
 287 000a 1821     		movs	r1, #24
 116:/Users/imashio/Electronics/ARM/_Library/u8x8_cad.c **** 
 288              		.loc 1 116 0
 289 000c 5DF8044B 		ldr	r4, [sp], #4
 290              	.LCFI11:
 291              		.cfi_restore 4
 292              		.cfi_def_cfa_offset 0
 115:/Users/imashio/Electronics/ARM/_Library/u8x8_cad.c **** }
 293              		.loc 1 115 0
 294 0010 6047     		bx	ip
 295              	.LVL23:
 296              		.cfi_endproc
 297              	.LFE4:
 299 0012 00BF     		.section	.text.u8x8_cad_EndTransfer,"ax",%progbits
 300              		.align	1
 301              		.p2align 2,,3
 302              		.global	u8x8_cad_EndTransfer
 303              		.syntax unified
 304              		.thumb
 305              		.thumb_func
 306              		.fpu fpv4-sp-d16
 308              	u8x8_cad_EndTransfer:
 309              	.LFB5:
 119:/Users/imashio/Electronics/ARM/_Library/u8x8_cad.c ****   return u8x8->cad_cb(u8x8, U8X8_MSG_CAD_END_TRANSFER, 0, NULL);
 310              		.loc 1 119 0
 311              		.cfi_startproc
 312              		@ args = 0, pretend = 0, frame = 0
 313              		@ frame_needed = 0, uses_anonymous_args = 0
 314              		@ link register save eliminated.
 315              	.LVL24:
 316 0000 10B4     		push	{r4}
 317              	.LCFI12:
 318              		.cfi_def_cfa_offset 4
 319              		.cfi_offset 4, -4
 120:/Users/imashio/Electronics/ARM/_Library/u8x8_cad.c **** }
 320              		.loc 1 120 0
ARM GAS  /var/folders/v3/wysfpd052nz8jkbx04pk0ym80000gn/T//cczlQ9mM.s 			page 14


 321 0002 C468     		ldr	r4, [r0, #12]
 322 0004 0023     		movs	r3, #0
 323 0006 A446     		mov	ip, r4
 324 0008 1A46     		mov	r2, r3
 325 000a 1921     		movs	r1, #25
 121:/Users/imashio/Electronics/ARM/_Library/u8x8_cad.c **** 
 326              		.loc 1 121 0
 327 000c 5DF8044B 		ldr	r4, [sp], #4
 328              	.LCFI13:
 329              		.cfi_restore 4
 330              		.cfi_def_cfa_offset 0
 120:/Users/imashio/Electronics/ARM/_Library/u8x8_cad.c **** }
 331              		.loc 1 120 0
 332 0010 6047     		bx	ip
 333              	.LVL25:
 334              		.cfi_endproc
 335              	.LFE5:
 337 0012 00BF     		.section	.text.u8x8_cad_SendSequence,"ax",%progbits
 338              		.align	1
 339              		.p2align 2,,3
 340              		.global	u8x8_cad_SendSequence
 341              		.syntax unified
 342              		.thumb
 343              		.thumb_func
 344              		.fpu fpv4-sp-d16
 346              	u8x8_cad_SendSequence:
 347              	.LFB6:
 134:/Users/imashio/Electronics/ARM/_Library/u8x8_cad.c ****   uint8_t cmd;
 348              		.loc 1 134 0
 349              		.cfi_startproc
 350              		@ args = 0, pretend = 0, frame = 8
 351              		@ frame_needed = 0, uses_anonymous_args = 0
 352              	.LVL26:
 353 0000 70B5     		push	{r4, r5, r6, lr}
 354              	.LCFI14:
 355              		.cfi_def_cfa_offset 16
 356              		.cfi_offset 4, -16
 357              		.cfi_offset 5, -12
 358              		.cfi_offset 6, -8
 359              		.cfi_offset 14, -4
 360 0002 0646     		mov	r6, r0
 361 0004 82B0     		sub	sp, sp, #8
 362              	.LCFI15:
 363              		.cfi_def_cfa_offset 24
 134:/Users/imashio/Electronics/ARM/_Library/u8x8_cad.c ****   uint8_t cmd;
 364              		.loc 1 134 0
 365 0006 0D46     		mov	r5, r1
 366              	.LVL27:
 367              	.L26:
 140:/Users/imashio/Electronics/ARM/_Library/u8x8_cad.c ****     data++;
 368              		.loc 1 140 0
 369 0008 2C78     		ldrb	r4, [r5]	@ zero_extendqisi2
 370              	.LVL28:
 142:/Users/imashio/Electronics/ARM/_Library/u8x8_cad.c ****     {
 371              		.loc 1 142 0
 372 000a 172C     		cmp	r4, #23
 373 000c 13D0     		beq	.L28
ARM GAS  /var/folders/v3/wysfpd052nz8jkbx04pk0ym80000gn/T//cczlQ9mM.s 			page 15


 374              	.LVL29:
 375              	.L37:
 376 000e 1DD9     		bls	.L36
 157:/Users/imashio/Electronics/ARM/_Library/u8x8_cad.c **** 	  break;
 377              		.loc 1 157 0
 378 0010 0023     		movs	r3, #0
 142:/Users/imashio/Electronics/ARM/_Library/u8x8_cad.c ****     {
 379              		.loc 1 142 0
 380 0012 192C     		cmp	r4, #25
 157:/Users/imashio/Electronics/ARM/_Library/u8x8_cad.c **** 	  break;
 381              		.loc 1 157 0
 382 0014 1A46     		mov	r2, r3
 383 0016 2146     		mov	r1, r4
 384 0018 3046     		mov	r0, r6
 142:/Users/imashio/Electronics/ARM/_Library/u8x8_cad.c ****     {
 385              		.loc 1 142 0
 386 001a 26D9     		bls	.L31
 387              	.LVL30:
 388 001c FE2C     		cmp	r4, #254
 161:/Users/imashio/Electronics/ARM/_Library/u8x8_cad.c **** 	  data++;
 389              		.loc 1 161 0
 390 001e 4FF02901 		mov	r1, #41
 142:/Users/imashio/Electronics/ARM/_Library/u8x8_cad.c ****     {
 391              		.loc 1 142 0
 392 0022 20D1     		bne	.L25
 160:/Users/imashio/Electronics/ARM/_Library/u8x8_cad.c **** 	  u8x8_gpio_Delay(u8x8, U8X8_MSG_DELAY_MILLI, v);	    
 393              		.loc 1 160 0
 394 0024 6A78     		ldrb	r2, [r5, #1]	@ zero_extendqisi2
 395 0026 8DF80720 		strb	r2, [sp, #7]
 162:/Users/imashio/Electronics/ARM/_Library/u8x8_cad.c **** 	  break;
 396              		.loc 1 162 0
 397 002a 0235     		adds	r5, r5, #2
 161:/Users/imashio/Electronics/ARM/_Library/u8x8_cad.c **** 	  data++;
 398              		.loc 1 161 0
 399 002c FFF7FEFF 		bl	u8x8_gpio_call
 400              	.LVL31:
 140:/Users/imashio/Electronics/ARM/_Library/u8x8_cad.c ****     data++;
 401              		.loc 1 140 0
 402 0030 2C78     		ldrb	r4, [r5]	@ zero_extendqisi2
 403              	.LVL32:
 142:/Users/imashio/Electronics/ARM/_Library/u8x8_cad.c ****     {
 404              		.loc 1 142 0
 405 0032 172C     		cmp	r4, #23
 406 0034 EBD1     		bne	.L37
 407              	.LVL33:
 408              	.L28:
 151:/Users/imashio/Electronics/ARM/_Library/u8x8_cad.c **** 	  u8x8_cad_SendData(u8x8, 1, &v);
 409              		.loc 1 151 0
 410 0036 6B78     		ldrb	r3, [r5, #1]	@ zero_extendqisi2
 411 0038 8DF80730 		strb	r3, [sp, #7]
 152:/Users/imashio/Electronics/ARM/_Library/u8x8_cad.c **** 	  data++;
 412              		.loc 1 152 0
 413 003c 0DF10702 		add	r2, sp, #7
 414 0040 0121     		movs	r1, #1
 415 0042 3046     		mov	r0, r6
 153:/Users/imashio/Electronics/ARM/_Library/u8x8_cad.c **** 	  break;
 416              		.loc 1 153 0
ARM GAS  /var/folders/v3/wysfpd052nz8jkbx04pk0ym80000gn/T//cczlQ9mM.s 			page 16


 417 0044 0235     		adds	r5, r5, #2
 152:/Users/imashio/Electronics/ARM/_Library/u8x8_cad.c **** 	  data++;
 418              		.loc 1 152 0
 419 0046 FFF7FEFF 		bl	u8x8_cad_SendData
 420              	.LVL34:
 154:/Users/imashio/Electronics/ARM/_Library/u8x8_cad.c ****       case U8X8_MSG_CAD_START_TRANSFER:
 421              		.loc 1 154 0
 422 004a DDE7     		b	.L26
 423              	.LVL35:
 424              	.L36:
 142:/Users/imashio/Electronics/ARM/_Library/u8x8_cad.c ****     {
 425              		.loc 1 142 0
 426 004c 152C     		cmp	r4, #21
 147:/Users/imashio/Electronics/ARM/_Library/u8x8_cad.c **** 	  data++;
 427              		.loc 1 147 0
 428 004e 4FF00003 		mov	r3, #0
 429 0052 2146     		mov	r1, r4
 430 0054 3046     		mov	r0, r6
 142:/Users/imashio/Electronics/ARM/_Library/u8x8_cad.c ****     {
 431              		.loc 1 142 0
 432 0056 06D3     		bcc	.L25
 433              	.LVL36:
 146:/Users/imashio/Electronics/ARM/_Library/u8x8_cad.c **** 	  u8x8->cad_cb(u8x8, cmd, v, NULL);
 434              		.loc 1 146 0
 435 0058 6A78     		ldrb	r2, [r5, #1]	@ zero_extendqisi2
 436 005a 8DF80720 		strb	r2, [sp, #7]
 147:/Users/imashio/Electronics/ARM/_Library/u8x8_cad.c **** 	  data++;
 437              		.loc 1 147 0
 438 005e F468     		ldr	r4, [r6, #12]
 439              	.LVL37:
 148:/Users/imashio/Electronics/ARM/_Library/u8x8_cad.c **** 	  break;
 440              		.loc 1 148 0
 441 0060 0235     		adds	r5, r5, #2
 147:/Users/imashio/Electronics/ARM/_Library/u8x8_cad.c **** 	  data++;
 442              		.loc 1 147 0
 443 0062 A047     		blx	r4
 444              	.LVL38:
 149:/Users/imashio/Electronics/ARM/_Library/u8x8_cad.c ****       case U8X8_MSG_CAD_SEND_DATA:
 445              		.loc 1 149 0
 446 0064 D0E7     		b	.L26
 447              	.LVL39:
 448              	.L25:
 168:/Users/imashio/Electronics/ARM/_Library/u8x8_cad.c **** 
 449              		.loc 1 168 0
 450 0066 02B0     		add	sp, sp, #8
 451              	.LCFI16:
 452              		.cfi_remember_state
 453              		.cfi_def_cfa_offset 16
 454              		@ sp needed
 455 0068 70BD     		pop	{r4, r5, r6, pc}
 456              	.LVL40:
 457              	.L31:
 458              	.LCFI17:
 459              		.cfi_restore_state
 157:/Users/imashio/Electronics/ARM/_Library/u8x8_cad.c **** 	  break;
 460              		.loc 1 157 0
 461 006a F468     		ldr	r4, [r6, #12]
ARM GAS  /var/folders/v3/wysfpd052nz8jkbx04pk0ym80000gn/T//cczlQ9mM.s 			page 17


 462              	.LVL41:
 141:/Users/imashio/Electronics/ARM/_Library/u8x8_cad.c ****     switch( cmd )
 463              		.loc 1 141 0
 464 006c 0135     		adds	r5, r5, #1
 157:/Users/imashio/Electronics/ARM/_Library/u8x8_cad.c **** 	  break;
 465              		.loc 1 157 0
 466 006e A047     		blx	r4
 467              	.LVL42:
 158:/Users/imashio/Electronics/ARM/_Library/u8x8_cad.c ****       case 0x0fe:
 468              		.loc 1 158 0
 469 0070 CAE7     		b	.L26
 470              		.cfi_endproc
 471              	.LFE6:
 473              		.section	.text.u8x8_cad_empty,"ax",%progbits
 474              		.align	1
 475              		.p2align 2,,3
 476              		.global	u8x8_cad_empty
 477              		.syntax unified
 478              		.thumb
 479              		.thumb_func
 480              		.fpu fpv4-sp-d16
 482              	u8x8_cad_empty:
 483              	.LFB7:
 172:/Users/imashio/Electronics/ARM/_Library/u8x8_cad.c ****   switch(msg)
 484              		.loc 1 172 0
 485              		.cfi_startproc
 486              		@ args = 0, pretend = 0, frame = 0
 487              		@ frame_needed = 0, uses_anonymous_args = 0
 488              	.LVL43:
 489 0000 10B5     		push	{r4, lr}
 490              	.LCFI18:
 491              		.cfi_def_cfa_offset 8
 492              		.cfi_offset 4, -8
 493              		.cfi_offset 14, -4
 173:/Users/imashio/Electronics/ARM/_Library/u8x8_cad.c ****   {
 494              		.loc 1 173 0
 495 0002 A1F11404 		sub	r4, r1, #20
 496 0006 052C     		cmp	r4, #5
 497 0008 0ED8     		bhi	.L43
 498 000a DFE804F0 		tbb	[pc, r4]
 499              	.L41:
 500 000e 08       		.byte	(.L40-.L41)/2
 501 000f 03       		.byte	(.L42-.L41)/2
 502 0010 03       		.byte	(.L42-.L41)/2
 503 0011 08       		.byte	(.L40-.L41)/2
 504 0012 08       		.byte	(.L40-.L41)/2
 505 0013 08       		.byte	(.L40-.L41)/2
 506              		.p2align 1
 507              	.L42:
 508 0014 1146     		mov	r1, r2
 509              	.LVL44:
 176:/Users/imashio/Electronics/ARM/_Library/u8x8_cad.c ****       break;
 510              		.loc 1 176 0
 511 0016 FFF7FEFF 		bl	u8x8_byte_SendByte
 512              	.LVL45:
 189:/Users/imashio/Electronics/ARM/_Library/u8x8_cad.c **** }
 513              		.loc 1 189 0
ARM GAS  /var/folders/v3/wysfpd052nz8jkbx04pk0ym80000gn/T//cczlQ9mM.s 			page 18


 514 001a 0120     		movs	r0, #1
 190:/Users/imashio/Electronics/ARM/_Library/u8x8_cad.c **** 
 515              		.loc 1 190 0
 516 001c 10BD     		pop	{r4, pc}
 517              	.LVL46:
 518              	.L40:
 185:/Users/imashio/Electronics/ARM/_Library/u8x8_cad.c ****     default:
 519              		.loc 1 185 0
 520 001e 0469     		ldr	r4, [r0, #16]
 521 0020 A446     		mov	ip, r4
 190:/Users/imashio/Electronics/ARM/_Library/u8x8_cad.c **** 
 522              		.loc 1 190 0
 523 0022 BDE81040 		pop	{r4, lr}
 524              	.LCFI19:
 525              		.cfi_restore 14
 526              		.cfi_restore 4
 527              		.cfi_def_cfa_offset 0
 185:/Users/imashio/Electronics/ARM/_Library/u8x8_cad.c ****     default:
 528              		.loc 1 185 0
 529 0026 6047     		bx	ip
 530              	.LVL47:
 531              	.L43:
 187:/Users/imashio/Electronics/ARM/_Library/u8x8_cad.c ****   }
 532              		.loc 1 187 0
 533 0028 0020     		movs	r0, #0
 534              	.LVL48:
 190:/Users/imashio/Electronics/ARM/_Library/u8x8_cad.c **** 
 535              		.loc 1 190 0
 536 002a 10BD     		pop	{r4, pc}
 537              		.cfi_endproc
 538              	.LFE7:
 540              		.section	.text.u8x8_cad_110,"ax",%progbits
 541              		.align	1
 542              		.p2align 2,,3
 543              		.global	u8x8_cad_110
 544              		.syntax unified
 545              		.thumb
 546              		.thumb_func
 547              		.fpu fpv4-sp-d16
 549              	u8x8_cad_110:
 550              	.LFB8:
 199:/Users/imashio/Electronics/ARM/_Library/u8x8_cad.c ****   switch(msg)
 551              		.loc 1 199 0
 552              		.cfi_startproc
 553              		@ args = 0, pretend = 0, frame = 8
 554              		@ frame_needed = 0, uses_anonymous_args = 0
 555              	.LVL49:
 556 0000 70B5     		push	{r4, r5, r6, lr}
 557              	.LCFI20:
 558              		.cfi_def_cfa_offset 16
 559              		.cfi_offset 4, -16
 560              		.cfi_offset 5, -12
 561              		.cfi_offset 6, -8
 562              		.cfi_offset 14, -4
 563 0002 0D46     		mov	r5, r1
 200:/Users/imashio/Electronics/ARM/_Library/u8x8_cad.c ****   {
 564              		.loc 1 200 0
ARM GAS  /var/folders/v3/wysfpd052nz8jkbx04pk0ym80000gn/T//cczlQ9mM.s 			page 19


 565 0004 1439     		subs	r1, r1, #20
 566              	.LVL50:
 199:/Users/imashio/Electronics/ARM/_Library/u8x8_cad.c ****   switch(msg)
 567              		.loc 1 199 0
 568 0006 82B0     		sub	sp, sp, #8
 569              	.LCFI21:
 570              		.cfi_def_cfa_offset 24
 199:/Users/imashio/Electronics/ARM/_Library/u8x8_cad.c ****   switch(msg)
 571              		.loc 1 199 0
 572 0008 0446     		mov	r4, r0
 573 000a 1646     		mov	r6, r2
 200:/Users/imashio/Electronics/ARM/_Library/u8x8_cad.c ****   {
 574              		.loc 1 200 0
 575 000c 0529     		cmp	r1, #5
 576 000e 1CD8     		bhi	.L51
 577 0010 DFE801F0 		tbb	[pc, r1]
 578              	.LVL51:
 579              	.L48:
 580 0014 12       		.byte	(.L47-.L48)/2
 581 0015 03       		.byte	(.L49-.L48)/2
 582 0016 03       		.byte	(.L49-.L48)/2
 583 0017 0D       		.byte	(.L50-.L48)/2
 584 0018 12       		.byte	(.L47-.L48)/2
 585 0019 12       		.byte	(.L47-.L48)/2
 586              		.p2align 1
 587              	.L49:
 203:/Users/imashio/Electronics/ARM/_Library/u8x8_cad.c ****       u8x8_byte_SendByte(u8x8, arg_int);
 588              		.loc 1 203 0
 589 001a 0121     		movs	r1, #1
 590 001c FFF7FEFF 		bl	u8x8_byte_SetDC
 591              	.LVL52:
 204:/Users/imashio/Electronics/ARM/_Library/u8x8_cad.c ****       break;
 592              		.loc 1 204 0
 593 0020 3146     		mov	r1, r6
 594 0022 2046     		mov	r0, r4
 595 0024 FFF7FEFF 		bl	u8x8_byte_SendByte
 596              	.LVL53:
 222:/Users/imashio/Electronics/ARM/_Library/u8x8_cad.c **** }
 597              		.loc 1 222 0
 598 0028 0120     		movs	r0, #1
 599              	.L46:
 223:/Users/imashio/Electronics/ARM/_Library/u8x8_cad.c **** 
 600              		.loc 1 223 0
 601 002a 02B0     		add	sp, sp, #8
 602              	.LCFI22:
 603              		.cfi_remember_state
 604              		.cfi_def_cfa_offset 16
 605              		@ sp needed
 606 002c 70BD     		pop	{r4, r5, r6, pc}
 607              	.LVL54:
 608              	.L50:
 609              	.LCFI23:
 610              		.cfi_restore_state
 211:/Users/imashio/Electronics/ARM/_Library/u8x8_cad.c ****       //u8x8_byte_SendBytes(u8x8, arg_int, arg_ptr);
 611              		.loc 1 211 0
 612 002e 0021     		movs	r1, #0
 613 0030 0193     		str	r3, [sp, #4]
ARM GAS  /var/folders/v3/wysfpd052nz8jkbx04pk0ym80000gn/T//cczlQ9mM.s 			page 20


 614 0032 FFF7FEFF 		bl	u8x8_byte_SetDC
 615              	.LVL55:
 616 0036 019B     		ldr	r3, [sp, #4]
 617              	.LVL56:
 618              	.L47:
 218:/Users/imashio/Electronics/ARM/_Library/u8x8_cad.c ****     default:
 619              		.loc 1 218 0
 620 0038 2946     		mov	r1, r5
 621 003a 2569     		ldr	r5, [r4, #16]
 622 003c 3246     		mov	r2, r6
 623 003e 2046     		mov	r0, r4
 624 0040 AC46     		mov	ip, r5
 223:/Users/imashio/Electronics/ARM/_Library/u8x8_cad.c **** 
 625              		.loc 1 223 0
 626 0042 02B0     		add	sp, sp, #8
 627              	.LCFI24:
 628              		.cfi_def_cfa_offset 16
 629              		@ sp needed
 630 0044 BDE87040 		pop	{r4, r5, r6, lr}
 631              	.LCFI25:
 632              		.cfi_restore 14
 633              		.cfi_restore 6
 634              		.cfi_restore 5
 635              		.cfi_restore 4
 636              		.cfi_def_cfa_offset 0
 637              	.LVL57:
 218:/Users/imashio/Electronics/ARM/_Library/u8x8_cad.c ****     default:
 638              		.loc 1 218 0
 639 0048 6047     		bx	ip
 640              	.LVL58:
 641              	.L51:
 220:/Users/imashio/Electronics/ARM/_Library/u8x8_cad.c ****   }
 642              		.loc 1 220 0
 643 004a 0020     		movs	r0, #0
 644              	.LVL59:
 645 004c EDE7     		b	.L46
 646              		.cfi_endproc
 647              	.LFE8:
 649 004e 00BF     		.section	.text.u8x8_cad_100,"ax",%progbits
 650              		.align	1
 651              		.p2align 2,,3
 652              		.global	u8x8_cad_100
 653              		.syntax unified
 654              		.thumb
 655              		.thumb_func
 656              		.fpu fpv4-sp-d16
 658              	u8x8_cad_100:
 659              	.LFB9:
 232:/Users/imashio/Electronics/ARM/_Library/u8x8_cad.c ****   switch(msg)
 660              		.loc 1 232 0
 661              		.cfi_startproc
 662              		@ args = 0, pretend = 0, frame = 8
 663              		@ frame_needed = 0, uses_anonymous_args = 0
 664              	.LVL60:
 665 0000 70B5     		push	{r4, r5, r6, lr}
 666              	.LCFI26:
 667              		.cfi_def_cfa_offset 16
ARM GAS  /var/folders/v3/wysfpd052nz8jkbx04pk0ym80000gn/T//cczlQ9mM.s 			page 21


 668              		.cfi_offset 4, -16
 669              		.cfi_offset 5, -12
 670              		.cfi_offset 6, -8
 671              		.cfi_offset 14, -4
 672 0002 0D46     		mov	r5, r1
 233:/Users/imashio/Electronics/ARM/_Library/u8x8_cad.c ****   {
 673              		.loc 1 233 0
 674 0004 1439     		subs	r1, r1, #20
 675              	.LVL61:
 232:/Users/imashio/Electronics/ARM/_Library/u8x8_cad.c ****   switch(msg)
 676              		.loc 1 232 0
 677 0006 82B0     		sub	sp, sp, #8
 678              	.LCFI27:
 679              		.cfi_def_cfa_offset 24
 232:/Users/imashio/Electronics/ARM/_Library/u8x8_cad.c ****   switch(msg)
 680              		.loc 1 232 0
 681 0008 0446     		mov	r4, r0
 682 000a 1646     		mov	r6, r2
 233:/Users/imashio/Electronics/ARM/_Library/u8x8_cad.c ****   {
 683              		.loc 1 233 0
 684 000c 0529     		cmp	r1, #5
 685 000e 1FD8     		bhi	.L60
 686 0010 DFE801F0 		tbb	[pc, r1]
 687              	.LVL62:
 688              	.L56:
 689 0014 08       		.byte	(.L55-.L56)/2
 690 0015 1C       		.byte	(.L57-.L56)/2
 691 0016 11       		.byte	(.L58-.L56)/2
 692 0017 03       		.byte	(.L59-.L56)/2
 693 0018 08       		.byte	(.L55-.L56)/2
 694 0019 08       		.byte	(.L55-.L56)/2
 695              		.p2align 1
 696              	.L59:
 244:/Users/imashio/Electronics/ARM/_Library/u8x8_cad.c ****       //u8x8_byte_SendBytes(u8x8, arg_int, arg_ptr);
 697              		.loc 1 244 0
 698 001a 0021     		movs	r1, #0
 699 001c 0193     		str	r3, [sp, #4]
 700 001e FFF7FEFF 		bl	u8x8_byte_SetDC
 701              	.LVL63:
 702 0022 019B     		ldr	r3, [sp, #4]
 703              	.LVL64:
 704              	.L55:
 251:/Users/imashio/Electronics/ARM/_Library/u8x8_cad.c ****     default:
 705              		.loc 1 251 0
 706 0024 2946     		mov	r1, r5
 707 0026 2569     		ldr	r5, [r4, #16]
 708 0028 3246     		mov	r2, r6
 709 002a 2046     		mov	r0, r4
 710 002c AC46     		mov	ip, r5
 256:/Users/imashio/Electronics/ARM/_Library/u8x8_cad.c **** 
 711              		.loc 1 256 0
 712 002e 02B0     		add	sp, sp, #8
 713              	.LCFI28:
 714              		.cfi_remember_state
 715              		.cfi_def_cfa_offset 16
 716              		@ sp needed
 717 0030 BDE87040 		pop	{r4, r5, r6, lr}
ARM GAS  /var/folders/v3/wysfpd052nz8jkbx04pk0ym80000gn/T//cczlQ9mM.s 			page 22


 718              	.LCFI29:
 719              		.cfi_restore 14
 720              		.cfi_restore 6
 721              		.cfi_restore 5
 722              		.cfi_restore 4
 723              		.cfi_def_cfa_offset 0
 724              	.LVL65:
 251:/Users/imashio/Electronics/ARM/_Library/u8x8_cad.c ****     default:
 725              		.loc 1 251 0
 726 0034 6047     		bx	ip
 727              	.LVL66:
 728              	.L58:
 729              	.LCFI30:
 730              		.cfi_restore_state
 240:/Users/imashio/Electronics/ARM/_Library/u8x8_cad.c ****       u8x8_byte_SendByte(u8x8, arg_int);
 731              		.loc 1 240 0
 732 0036 0021     		movs	r1, #0
 733              	.L62:
 734 0038 2046     		mov	r0, r4
 735              	.LVL67:
 736 003a FFF7FEFF 		bl	u8x8_byte_SetDC
 737              	.LVL68:
 241:/Users/imashio/Electronics/ARM/_Library/u8x8_cad.c ****       break;
 738              		.loc 1 241 0
 739 003e 3146     		mov	r1, r6
 740 0040 2046     		mov	r0, r4
 741 0042 FFF7FEFF 		bl	u8x8_byte_SendByte
 742              	.LVL69:
 255:/Users/imashio/Electronics/ARM/_Library/u8x8_cad.c **** }
 743              		.loc 1 255 0
 744 0046 0120     		movs	r0, #1
 745              	.L54:
 256:/Users/imashio/Electronics/ARM/_Library/u8x8_cad.c **** 
 746              		.loc 1 256 0
 747 0048 02B0     		add	sp, sp, #8
 748              	.LCFI31:
 749              		.cfi_remember_state
 750              		.cfi_def_cfa_offset 16
 751              		@ sp needed
 752 004a 70BD     		pop	{r4, r5, r6, pc}
 753              	.LVL70:
 754              	.L57:
 755              	.LCFI32:
 756              		.cfi_restore_state
 236:/Users/imashio/Electronics/ARM/_Library/u8x8_cad.c ****       u8x8_byte_SendByte(u8x8, arg_int);
 757              		.loc 1 236 0
 758 004c 0121     		movs	r1, #1
 759 004e F3E7     		b	.L62
 760              	.L60:
 253:/Users/imashio/Electronics/ARM/_Library/u8x8_cad.c ****   }
 761              		.loc 1 253 0
 762 0050 0020     		movs	r0, #0
 763              	.LVL71:
 764 0052 F9E7     		b	.L54
 765              		.cfi_endproc
 766              	.LFE9:
 768              		.section	.text.u8x8_cad_001,"ax",%progbits
ARM GAS  /var/folders/v3/wysfpd052nz8jkbx04pk0ym80000gn/T//cczlQ9mM.s 			page 23


 769              		.align	1
 770              		.p2align 2,,3
 771              		.global	u8x8_cad_001
 772              		.syntax unified
 773              		.thumb
 774              		.thumb_func
 775              		.fpu fpv4-sp-d16
 777              	u8x8_cad_001:
 778              	.LFB10:
 264:/Users/imashio/Electronics/ARM/_Library/u8x8_cad.c ****   switch(msg)
 779              		.loc 1 264 0
 780              		.cfi_startproc
 781              		@ args = 0, pretend = 0, frame = 8
 782              		@ frame_needed = 0, uses_anonymous_args = 0
 783              	.LVL72:
 784 0000 70B5     		push	{r4, r5, r6, lr}
 785              	.LCFI33:
 786              		.cfi_def_cfa_offset 16
 787              		.cfi_offset 4, -16
 788              		.cfi_offset 5, -12
 789              		.cfi_offset 6, -8
 790              		.cfi_offset 14, -4
 791 0002 0D46     		mov	r5, r1
 265:/Users/imashio/Electronics/ARM/_Library/u8x8_cad.c ****   {
 792              		.loc 1 265 0
 793 0004 1439     		subs	r1, r1, #20
 794              	.LVL73:
 264:/Users/imashio/Electronics/ARM/_Library/u8x8_cad.c ****   switch(msg)
 795              		.loc 1 264 0
 796 0006 82B0     		sub	sp, sp, #8
 797              	.LCFI34:
 798              		.cfi_def_cfa_offset 24
 264:/Users/imashio/Electronics/ARM/_Library/u8x8_cad.c ****   switch(msg)
 799              		.loc 1 264 0
 800 0008 0446     		mov	r4, r0
 801 000a 1646     		mov	r6, r2
 265:/Users/imashio/Electronics/ARM/_Library/u8x8_cad.c ****   {
 802              		.loc 1 265 0
 803 000c 0529     		cmp	r1, #5
 804 000e 1CD8     		bhi	.L69
 805 0010 DFE801F0 		tbb	[pc, r1]
 806              	.LVL74:
 807              	.L66:
 808 0014 12       		.byte	(.L65-.L66)/2
 809 0015 03       		.byte	(.L67-.L66)/2
 810 0016 03       		.byte	(.L67-.L66)/2
 811 0017 0D       		.byte	(.L68-.L66)/2
 812 0018 12       		.byte	(.L65-.L66)/2
 813 0019 12       		.byte	(.L65-.L66)/2
 814              		.p2align 1
 815              	.L67:
 268:/Users/imashio/Electronics/ARM/_Library/u8x8_cad.c ****       u8x8_byte_SendByte(u8x8, arg_int);
 816              		.loc 1 268 0
 817 001a 0021     		movs	r1, #0
 818 001c FFF7FEFF 		bl	u8x8_byte_SetDC
 819              	.LVL75:
 269:/Users/imashio/Electronics/ARM/_Library/u8x8_cad.c ****       break;
ARM GAS  /var/folders/v3/wysfpd052nz8jkbx04pk0ym80000gn/T//cczlQ9mM.s 			page 24


 820              		.loc 1 269 0
 821 0020 3146     		mov	r1, r6
 822 0022 2046     		mov	r0, r4
 823 0024 FFF7FEFF 		bl	u8x8_byte_SendByte
 824              	.LVL76:
 287:/Users/imashio/Electronics/ARM/_Library/u8x8_cad.c **** }
 825              		.loc 1 287 0
 826 0028 0120     		movs	r0, #1
 827              	.L64:
 288:/Users/imashio/Electronics/ARM/_Library/u8x8_cad.c **** 
 828              		.loc 1 288 0
 829 002a 02B0     		add	sp, sp, #8
 830              	.LCFI35:
 831              		.cfi_remember_state
 832              		.cfi_def_cfa_offset 16
 833              		@ sp needed
 834 002c 70BD     		pop	{r4, r5, r6, pc}
 835              	.LVL77:
 836              	.L68:
 837              	.LCFI36:
 838              		.cfi_restore_state
 276:/Users/imashio/Electronics/ARM/_Library/u8x8_cad.c ****       //u8x8_byte_SendBytes(u8x8, arg_int, arg_ptr);
 839              		.loc 1 276 0
 840 002e 0121     		movs	r1, #1
 841 0030 0193     		str	r3, [sp, #4]
 842 0032 FFF7FEFF 		bl	u8x8_byte_SetDC
 843              	.LVL78:
 844 0036 019B     		ldr	r3, [sp, #4]
 845              	.LVL79:
 846              	.L65:
 283:/Users/imashio/Electronics/ARM/_Library/u8x8_cad.c ****     default:
 847              		.loc 1 283 0
 848 0038 2946     		mov	r1, r5
 849 003a 2569     		ldr	r5, [r4, #16]
 850 003c 3246     		mov	r2, r6
 851 003e 2046     		mov	r0, r4
 852 0040 AC46     		mov	ip, r5
 288:/Users/imashio/Electronics/ARM/_Library/u8x8_cad.c **** 
 853              		.loc 1 288 0
 854 0042 02B0     		add	sp, sp, #8
 855              	.LCFI37:
 856              		.cfi_def_cfa_offset 16
 857              		@ sp needed
 858 0044 BDE87040 		pop	{r4, r5, r6, lr}
 859              	.LCFI38:
 860              		.cfi_restore 14
 861              		.cfi_restore 6
 862              		.cfi_restore 5
 863              		.cfi_restore 4
 864              		.cfi_def_cfa_offset 0
 865              	.LVL80:
 283:/Users/imashio/Electronics/ARM/_Library/u8x8_cad.c ****     default:
 866              		.loc 1 283 0
 867 0048 6047     		bx	ip
 868              	.LVL81:
 869              	.L69:
 285:/Users/imashio/Electronics/ARM/_Library/u8x8_cad.c ****   }
ARM GAS  /var/folders/v3/wysfpd052nz8jkbx04pk0ym80000gn/T//cczlQ9mM.s 			page 25


 870              		.loc 1 285 0
 871 004a 0020     		movs	r0, #0
 872              	.LVL82:
 873 004c EDE7     		b	.L64
 874              		.cfi_endproc
 875              	.LFE10:
 877 004e 00BF     		.section	.text.u8x8_cad_011,"ax",%progbits
 878              		.align	1
 879              		.p2align 2,,3
 880              		.global	u8x8_cad_011
 881              		.syntax unified
 882              		.thumb
 883              		.thumb_func
 884              		.fpu fpv4-sp-d16
 886              	u8x8_cad_011:
 887              	.LFB11:
 296:/Users/imashio/Electronics/ARM/_Library/u8x8_cad.c ****   switch(msg)
 888              		.loc 1 296 0
 889              		.cfi_startproc
 890              		@ args = 0, pretend = 0, frame = 8
 891              		@ frame_needed = 0, uses_anonymous_args = 0
 892              	.LVL83:
 893 0000 70B5     		push	{r4, r5, r6, lr}
 894              	.LCFI39:
 895              		.cfi_def_cfa_offset 16
 896              		.cfi_offset 4, -16
 897              		.cfi_offset 5, -12
 898              		.cfi_offset 6, -8
 899              		.cfi_offset 14, -4
 900 0002 0D46     		mov	r5, r1
 297:/Users/imashio/Electronics/ARM/_Library/u8x8_cad.c ****   {
 901              		.loc 1 297 0
 902 0004 1439     		subs	r1, r1, #20
 903              	.LVL84:
 296:/Users/imashio/Electronics/ARM/_Library/u8x8_cad.c ****   switch(msg)
 904              		.loc 1 296 0
 905 0006 82B0     		sub	sp, sp, #8
 906              	.LCFI40:
 907              		.cfi_def_cfa_offset 24
 296:/Users/imashio/Electronics/ARM/_Library/u8x8_cad.c ****   switch(msg)
 908              		.loc 1 296 0
 909 0008 0446     		mov	r4, r0
 910 000a 1646     		mov	r6, r2
 297:/Users/imashio/Electronics/ARM/_Library/u8x8_cad.c ****   {
 911              		.loc 1 297 0
 912 000c 0529     		cmp	r1, #5
 913 000e 1FD8     		bhi	.L78
 914 0010 DFE801F0 		tbb	[pc, r1]
 915              	.LVL85:
 916              	.L74:
 917 0014 08       		.byte	(.L73-.L74)/2
 918 0015 1C       		.byte	(.L75-.L74)/2
 919 0016 11       		.byte	(.L76-.L74)/2
 920 0017 03       		.byte	(.L77-.L74)/2
 921 0018 08       		.byte	(.L73-.L74)/2
 922 0019 08       		.byte	(.L73-.L74)/2
 923              		.p2align 1
ARM GAS  /var/folders/v3/wysfpd052nz8jkbx04pk0ym80000gn/T//cczlQ9mM.s 			page 26


 924              	.L77:
 308:/Users/imashio/Electronics/ARM/_Library/u8x8_cad.c ****       //u8x8_byte_SendBytes(u8x8, arg_int, arg_ptr);
 925              		.loc 1 308 0
 926 001a 0121     		movs	r1, #1
 927 001c 0193     		str	r3, [sp, #4]
 928 001e FFF7FEFF 		bl	u8x8_byte_SetDC
 929              	.LVL86:
 930 0022 019B     		ldr	r3, [sp, #4]
 931              	.LVL87:
 932              	.L73:
 315:/Users/imashio/Electronics/ARM/_Library/u8x8_cad.c ****     default:
 933              		.loc 1 315 0
 934 0024 2946     		mov	r1, r5
 935 0026 2569     		ldr	r5, [r4, #16]
 936 0028 3246     		mov	r2, r6
 937 002a 2046     		mov	r0, r4
 938 002c AC46     		mov	ip, r5
 320:/Users/imashio/Electronics/ARM/_Library/u8x8_cad.c **** 
 939              		.loc 1 320 0
 940 002e 02B0     		add	sp, sp, #8
 941              	.LCFI41:
 942              		.cfi_remember_state
 943              		.cfi_def_cfa_offset 16
 944              		@ sp needed
 945 0030 BDE87040 		pop	{r4, r5, r6, lr}
 946              	.LCFI42:
 947              		.cfi_restore 14
 948              		.cfi_restore 6
 949              		.cfi_restore 5
 950              		.cfi_restore 4
 951              		.cfi_def_cfa_offset 0
 952              	.LVL88:
 315:/Users/imashio/Electronics/ARM/_Library/u8x8_cad.c ****     default:
 953              		.loc 1 315 0
 954 0034 6047     		bx	ip
 955              	.LVL89:
 956              	.L76:
 957              	.LCFI43:
 958              		.cfi_restore_state
 304:/Users/imashio/Electronics/ARM/_Library/u8x8_cad.c ****       u8x8_byte_SendByte(u8x8, arg_int);
 959              		.loc 1 304 0
 960 0036 0121     		movs	r1, #1
 961              	.L80:
 962 0038 2046     		mov	r0, r4
 963              	.LVL90:
 964 003a FFF7FEFF 		bl	u8x8_byte_SetDC
 965              	.LVL91:
 305:/Users/imashio/Electronics/ARM/_Library/u8x8_cad.c ****       break;
 966              		.loc 1 305 0
 967 003e 3146     		mov	r1, r6
 968 0040 2046     		mov	r0, r4
 969 0042 FFF7FEFF 		bl	u8x8_byte_SendByte
 970              	.LVL92:
 319:/Users/imashio/Electronics/ARM/_Library/u8x8_cad.c **** }
 971              		.loc 1 319 0
 972 0046 0120     		movs	r0, #1
 973              	.L72:
ARM GAS  /var/folders/v3/wysfpd052nz8jkbx04pk0ym80000gn/T//cczlQ9mM.s 			page 27


 320:/Users/imashio/Electronics/ARM/_Library/u8x8_cad.c **** 
 974              		.loc 1 320 0
 975 0048 02B0     		add	sp, sp, #8
 976              	.LCFI44:
 977              		.cfi_remember_state
 978              		.cfi_def_cfa_offset 16
 979              		@ sp needed
 980 004a 70BD     		pop	{r4, r5, r6, pc}
 981              	.LVL93:
 982              	.L75:
 983              	.LCFI45:
 984              		.cfi_restore_state
 300:/Users/imashio/Electronics/ARM/_Library/u8x8_cad.c ****       u8x8_byte_SendByte(u8x8, arg_int);
 985              		.loc 1 300 0
 986 004c 0021     		movs	r1, #0
 987 004e F3E7     		b	.L80
 988              	.L78:
 317:/Users/imashio/Electronics/ARM/_Library/u8x8_cad.c ****   }
 989              		.loc 1 317 0
 990 0050 0020     		movs	r0, #0
 991              	.LVL94:
 992 0052 F9E7     		b	.L72
 993              		.cfi_endproc
 994              	.LFE11:
 996              		.section	.text.u8x8_cad_st7920_spi,"ax",%progbits
 997              		.align	1
 998              		.p2align 2,,3
 999              		.global	u8x8_cad_st7920_spi
 1000              		.syntax unified
 1001              		.thumb
 1002              		.thumb_func
 1003              		.fpu fpv4-sp-d16
 1005              	u8x8_cad_st7920_spi:
 1006              	.LFB12:
 325:/Users/imashio/Electronics/ARM/_Library/u8x8_cad.c ****   uint8_t *data;
 1007              		.loc 1 325 0
 1008              		.cfi_startproc
 1009              		@ args = 0, pretend = 0, frame = 0
 1010              		@ frame_needed = 0, uses_anonymous_args = 0
 1011              	.LVL95:
 1012 0000 2DE9F041 		push	{r4, r5, r6, r7, r8, lr}
 1013              	.LCFI46:
 1014              		.cfi_def_cfa_offset 24
 1015              		.cfi_offset 4, -24
 1016              		.cfi_offset 5, -20
 1017              		.cfi_offset 6, -16
 1018              		.cfi_offset 7, -12
 1019              		.cfi_offset 8, -8
 1020              		.cfi_offset 14, -4
 332:/Users/imashio/Electronics/ARM/_Library/u8x8_cad.c ****   {
 1021              		.loc 1 332 0
 1022 0004 A1F11406 		sub	r6, r1, #20
 325:/Users/imashio/Electronics/ARM/_Library/u8x8_cad.c ****   uint8_t *data;
 1023              		.loc 1 325 0
 1024 0008 0446     		mov	r4, r0
 1025 000a 1546     		mov	r5, r2
 1026 000c 9846     		mov	r8, r3
ARM GAS  /var/folders/v3/wysfpd052nz8jkbx04pk0ym80000gn/T//cczlQ9mM.s 			page 28


 332:/Users/imashio/Electronics/ARM/_Library/u8x8_cad.c ****   {
 1027              		.loc 1 332 0
 1028 000e 052E     		cmp	r6, #5
 1029 0010 7ED8     		bhi	.L93
 1030 0012 DFE806F0 		tbb	[pc, r6]
 1031              	.LVL96:
 1032              	.L84:
 1033 0016 57       		.byte	(.L83-.L84)/2
 1034 0017 5D       		.byte	(.L85-.L84)/2
 1035 0018 46       		.byte	(.L86-.L84)/2
 1036 0019 03       		.byte	(.L87-.L84)/2
 1037 001a 57       		.byte	(.L83-.L84)/2
 1038 001b 57       		.byte	(.L83-.L84)/2
 1039              		.p2align 1
 1040              	.L87:
 349:/Users/imashio/Electronics/ARM/_Library/u8x8_cad.c ****       u8x8_gpio_Delay(u8x8, U8X8_MSG_DELAY_NANO, 1);
 1041              		.loc 1 349 0
 1042 001c FA21     		movs	r1, #250
 1043              	.LVL97:
 1044 001e FFF7FEFF 		bl	u8x8_byte_SendByte
 1045              	.LVL98:
 350:/Users/imashio/Electronics/ARM/_Library/u8x8_cad.c **** 
 1046              		.loc 1 350 0
 1047 0022 0122     		movs	r2, #1
 1048 0024 2C21     		movs	r1, #44
 1049 0026 2046     		mov	r0, r4
 1050 0028 FFF7FEFF 		bl	u8x8_gpio_call
 1051              	.LVL99:
 357:/Users/imashio/Electronics/ARM/_Library/u8x8_cad.c ****       {
 1052              		.loc 1 357 0
 1053 002c 072D     		cmp	r5, #7
 1054 002e 22D9     		bls	.L88
 1055 0030 A5F10806 		sub	r6, r5, #8
 1056 0034 06F0F806 		and	r6, r6, #248
 1057 0038 0836     		adds	r6, r6, #8
 370:/Users/imashio/Electronics/ARM/_Library/u8x8_cad.c ****       }
 1058              		.loc 1 370 0
 1059 003a 364F     		ldr	r7, .L101
 1060 003c 4644     		add	r6, r6, r8
 1061              	.LVL100:
 1062              	.L90:
 1063 003e 3649     		ldr	r1, .L101+4
 1064 0040 08F1080C 		add	ip, r8, #8
 325:/Users/imashio/Electronics/ARM/_Library/u8x8_cad.c ****   uint8_t *data;
 1065              		.loc 1 325 0
 1066 0044 4346     		mov	r3, r8
 1067              	.LVL101:
 1068              	.L89:
 363:/Users/imashio/Electronics/ARM/_Library/u8x8_cad.c **** 	  *ptr++= b & 0x0f0;
 1069              		.loc 1 363 0 discriminator 1
 1070 0046 13F8012B 		ldrb	r2, [r3], #1	@ zero_extendqisi2
 1071              	.LVL102:
 364:/Users/imashio/Electronics/ARM/_Library/u8x8_cad.c **** 	  b <<= 4;
 1072              		.loc 1 364 0 discriminator 1
 1073 004a 22F00F00 		bic	r0, r2, #15
 368:/Users/imashio/Electronics/ARM/_Library/u8x8_cad.c **** 	arg_int -= 8;
 1074              		.loc 1 368 0 discriminator 1
ARM GAS  /var/folders/v3/wysfpd052nz8jkbx04pk0ym80000gn/T//cczlQ9mM.s 			page 29


 1075 004e 6345     		cmp	r3, ip
 365:/Users/imashio/Electronics/ARM/_Library/u8x8_cad.c **** 	  *ptr++= b;
 1076              		.loc 1 365 0 discriminator 1
 1077 0050 4FEA0212 		lsl	r2, r2, #4
 1078              	.LVL103:
 364:/Users/imashio/Electronics/ARM/_Library/u8x8_cad.c **** 	  b <<= 4;
 1079              		.loc 1 364 0 discriminator 1
 1080 0054 01F8020C 		strb	r0, [r1, #-2]
 1081              	.LVL104:
 366:/Users/imashio/Electronics/ARM/_Library/u8x8_cad.c **** 	  i--;
 1082              		.loc 1 366 0 discriminator 1
 1083 0058 01F8012C 		strb	r2, [r1, #-1]
 1084              	.LVL105:
 1085 005c 01F10201 		add	r1, r1, #2
 1086              	.LVL106:
 368:/Users/imashio/Electronics/ARM/_Library/u8x8_cad.c **** 	arg_int -= 8;
 1087              		.loc 1 368 0 discriminator 1
 1088 0060 F1D1     		bne	.L89
 1089              	.LVL107:
 1090 0062 9846     		mov	r8, r3
 370:/Users/imashio/Electronics/ARM/_Library/u8x8_cad.c ****       }
 1091              		.loc 1 370 0
 1092 0064 3A46     		mov	r2, r7
 1093 0066 1021     		movs	r1, #16
 1094              	.LVL108:
 1095 0068 2046     		mov	r0, r4
 1096 006a FFF7FEFF 		bl	u8x8_byte_SendBytes
 1097              	.LVL109:
 357:/Users/imashio/Electronics/ARM/_Library/u8x8_cad.c ****       {
 1098              		.loc 1 357 0
 1099 006e B045     		cmp	r8, r6
 1100 0070 E5D1     		bne	.L90
 1101              	.LVL110:
 1102 0072 05F00705 		and	r5, r5, #7
 1103              	.LVL111:
 1104              	.L88:
 374:/Users/imashio/Electronics/ARM/_Library/u8x8_cad.c ****       {
 1105              		.loc 1 374 0
 1106 0076 002D     		cmp	r5, #0
 1107 0078 42D0     		beq	.L91
 1108 007a 6E1E     		subs	r6, r5, #1
 1109 007c F6B2     		uxtb	r6, r6
 1110 007e 0136     		adds	r6, r6, #1
 1111 0080 4644     		add	r6, r6, r8
 1112              	.LVL112:
 1113              	.L92:
 376:/Users/imashio/Electronics/ARM/_Library/u8x8_cad.c **** 	u8x8_byte_SendByte(u8x8, b & 0x0f0);
 1114              		.loc 1 376 0
 1115 0082 18F8015B 		ldrb	r5, [r8], #1	@ zero_extendqisi2
 1116              	.LVL113:
 377:/Users/imashio/Electronics/ARM/_Library/u8x8_cad.c **** 	u8x8_byte_SendByte(u8x8, b << 4);
 1117              		.loc 1 377 0
 1118 0086 2046     		mov	r0, r4
 1119 0088 05F0F001 		and	r1, r5, #240
 1120 008c FFF7FEFF 		bl	u8x8_byte_SendByte
 1121              	.LVL114:
 378:/Users/imashio/Electronics/ARM/_Library/u8x8_cad.c **** 	data++;
ARM GAS  /var/folders/v3/wysfpd052nz8jkbx04pk0ym80000gn/T//cczlQ9mM.s 			page 30


 1122              		.loc 1 378 0
 1123 0090 2901     		lsls	r1, r5, #4
 1124 0092 01F0F001 		and	r1, r1, #240
 1125 0096 2046     		mov	r0, r4
 1126 0098 FFF7FEFF 		bl	u8x8_byte_SendByte
 1127              	.LVL115:
 374:/Users/imashio/Electronics/ARM/_Library/u8x8_cad.c ****       {
 1128              		.loc 1 374 0
 1129 009c B045     		cmp	r8, r6
 1130 009e F0D1     		bne	.L92
 1131 00a0 2EE0     		b	.L91
 1132              	.LVL116:
 1133              	.L86:
 343:/Users/imashio/Electronics/ARM/_Library/u8x8_cad.c ****       u8x8_byte_SendByte(u8x8, arg_int & 0x0f0);
 1134              		.loc 1 343 0
 1135 00a2 F821     		movs	r1, #248
 1136              	.LVL117:
 1137 00a4 FFF7FEFF 		bl	u8x8_byte_SendByte
 1138              	.LVL118:
 344:/Users/imashio/Electronics/ARM/_Library/u8x8_cad.c ****       u8x8_byte_SendByte(u8x8, arg_int << 4);
 1139              		.loc 1 344 0
 1140 00a8 05F0F001 		and	r1, r5, #240
 1141 00ac 2046     		mov	r0, r4
 1142 00ae FFF7FEFF 		bl	u8x8_byte_SendByte
 1143              	.LVL119:
 345:/Users/imashio/Electronics/ARM/_Library/u8x8_cad.c ****       break;
 1144              		.loc 1 345 0
 1145 00b2 2901     		lsls	r1, r5, #4
 1146 00b4 01F0F001 		and	r1, r1, #240
 1147 00b8 2046     		mov	r0, r4
 1148 00ba FFF7FEFF 		bl	u8x8_byte_SendByte
 1149              	.LVL120:
 391:/Users/imashio/Electronics/ARM/_Library/u8x8_cad.c **** }
 1150              		.loc 1 391 0
 1151 00be 0120     		movs	r0, #1
 1152              	.L82:
 392:/Users/imashio/Electronics/ARM/_Library/u8x8_cad.c **** 
 1153              		.loc 1 392 0
 1154 00c0 BDE8F081 		pop	{r4, r5, r6, r7, r8, pc}
 1155              	.LVL121:
 1156              	.L83:
 387:/Users/imashio/Electronics/ARM/_Library/u8x8_cad.c ****     default:
 1157              		.loc 1 387 0
 1158 00c4 0569     		ldr	r5, [r0, #16]
 1159 00c6 4346     		mov	r3, r8
 1160 00c8 AC46     		mov	ip, r5
 392:/Users/imashio/Electronics/ARM/_Library/u8x8_cad.c **** 
 1161              		.loc 1 392 0
 1162 00ca BDE8F041 		pop	{r4, r5, r6, r7, r8, lr}
 1163              	.LCFI47:
 1164              		.cfi_remember_state
 1165              		.cfi_restore 14
 1166              		.cfi_restore 8
 1167              		.cfi_restore 7
 1168              		.cfi_restore 6
 1169              		.cfi_restore 5
 1170              		.cfi_restore 4
ARM GAS  /var/folders/v3/wysfpd052nz8jkbx04pk0ym80000gn/T//cczlQ9mM.s 			page 31


 1171              		.cfi_def_cfa_offset 0
 1172              	.LVL122:
 387:/Users/imashio/Electronics/ARM/_Library/u8x8_cad.c ****     default:
 1173              		.loc 1 387 0
 1174 00ce 6047     		bx	ip
 1175              	.LVL123:
 1176              	.L85:
 1177              	.LCFI48:
 1178              		.cfi_restore_state
 335:/Users/imashio/Electronics/ARM/_Library/u8x8_cad.c ****       u8x8_gpio_Delay(u8x8, U8X8_MSG_DELAY_NANO, 1);
 1179              		.loc 1 335 0
 1180 00d0 F821     		movs	r1, #248
 1181              	.LVL124:
 1182 00d2 FFF7FEFF 		bl	u8x8_byte_SendByte
 1183              	.LVL125:
 336:/Users/imashio/Electronics/ARM/_Library/u8x8_cad.c ****       u8x8_byte_SendByte(u8x8, arg_int & 0x0f0);
 1184              		.loc 1 336 0
 1185 00d6 0122     		movs	r2, #1
 1186 00d8 2C21     		movs	r1, #44
 1187 00da 2046     		mov	r0, r4
 1188 00dc FFF7FEFF 		bl	u8x8_gpio_call
 1189              	.LVL126:
 337:/Users/imashio/Electronics/ARM/_Library/u8x8_cad.c ****       u8x8_gpio_Delay(u8x8, U8X8_MSG_DELAY_NANO, 1);
 1190              		.loc 1 337 0
 1191 00e0 05F0F001 		and	r1, r5, #240
 1192 00e4 2046     		mov	r0, r4
 1193 00e6 FFF7FEFF 		bl	u8x8_byte_SendByte
 1194              	.LVL127:
 338:/Users/imashio/Electronics/ARM/_Library/u8x8_cad.c ****       u8x8_byte_SendByte(u8x8, arg_int << 4);
 1195              		.loc 1 338 0
 1196 00ea 2C21     		movs	r1, #44
 1197 00ec 2046     		mov	r0, r4
 1198 00ee 0122     		movs	r2, #1
 1199 00f0 FFF7FEFF 		bl	u8x8_gpio_call
 1200              	.LVL128:
 339:/Users/imashio/Electronics/ARM/_Library/u8x8_cad.c ****       u8x8_gpio_Delay(u8x8, U8X8_MSG_DELAY_NANO, 1);
 1201              		.loc 1 339 0
 1202 00f4 2901     		lsls	r1, r5, #4
 1203 00f6 01F0F001 		and	r1, r1, #240
 1204 00fa 2046     		mov	r0, r4
 1205 00fc FFF7FEFF 		bl	u8x8_byte_SendByte
 1206              	.LVL129:
 1207              	.L91:
 382:/Users/imashio/Electronics/ARM/_Library/u8x8_cad.c ****       break;
 1208              		.loc 1 382 0
 1209 0100 2046     		mov	r0, r4
 1210 0102 0122     		movs	r2, #1
 1211 0104 2C21     		movs	r1, #44
 1212 0106 FFF7FEFF 		bl	u8x8_gpio_call
 1213              	.LVL130:
 391:/Users/imashio/Electronics/ARM/_Library/u8x8_cad.c **** }
 1214              		.loc 1 391 0
 1215 010a 0120     		movs	r0, #1
 392:/Users/imashio/Electronics/ARM/_Library/u8x8_cad.c **** 
 1216              		.loc 1 392 0
 1217 010c BDE8F081 		pop	{r4, r5, r6, r7, r8, pc}
 1218              	.LVL131:
ARM GAS  /var/folders/v3/wysfpd052nz8jkbx04pk0ym80000gn/T//cczlQ9mM.s 			page 32


 1219              	.L93:
 389:/Users/imashio/Electronics/ARM/_Library/u8x8_cad.c ****   }
 1220              		.loc 1 389 0
 1221 0110 0020     		movs	r0, #0
 1222              	.LVL132:
 1223 0112 D5E7     		b	.L82
 1224              	.L102:
 1225              		.align	2
 1226              	.L101:
 1227 0114 00000000 		.word	.LANCHOR0
 1228 0118 02000000 		.word	.LANCHOR0+2
 1229              		.cfi_endproc
 1230              	.LFE12:
 1232              		.section	.text.u8x8_cad_ssd13xx_i2c,"ax",%progbits
 1233              		.align	1
 1234              		.p2align 2,,3
 1235              		.global	u8x8_cad_ssd13xx_i2c
 1236              		.syntax unified
 1237              		.thumb
 1238              		.thumb_func
 1239              		.fpu fpv4-sp-d16
 1241              	u8x8_cad_ssd13xx_i2c:
 1242              	.LFB14:
 409:/Users/imashio/Electronics/ARM/_Library/u8x8_cad.c **** 
 410:/Users/imashio/Electronics/ARM/_Library/u8x8_cad.c **** uint8_t u8x8_cad_ssd13xx_i2c(u8x8_t *u8x8, uint8_t msg, uint8_t arg_int, void *arg_ptr)
 411:/Users/imashio/Electronics/ARM/_Library/u8x8_cad.c **** {
 1243              		.loc 1 411 0
 1244              		.cfi_startproc
 1245              		@ args = 0, pretend = 0, frame = 0
 1246              		@ frame_needed = 0, uses_anonymous_args = 0
 1247              	.LVL133:
 412:/Users/imashio/Electronics/ARM/_Library/u8x8_cad.c ****   uint8_t *p;
 413:/Users/imashio/Electronics/ARM/_Library/u8x8_cad.c ****   switch(msg)
 1248              		.loc 1 413 0
 1249 0000 1439     		subs	r1, r1, #20
 1250              	.LVL134:
 411:/Users/imashio/Electronics/ARM/_Library/u8x8_cad.c ****   uint8_t *p;
 1251              		.loc 1 411 0
 1252 0002 70B5     		push	{r4, r5, r6, lr}
 1253              	.LCFI49:
 1254              		.cfi_def_cfa_offset 16
 1255              		.cfi_offset 4, -16
 1256              		.cfi_offset 5, -12
 1257              		.cfi_offset 6, -8
 1258              		.cfi_offset 14, -4
 411:/Users/imashio/Electronics/ARM/_Library/u8x8_cad.c ****   uint8_t *p;
 1259              		.loc 1 411 0
 1260 0004 0646     		mov	r6, r0
 1261 0006 1446     		mov	r4, r2
 1262 0008 1D46     		mov	r5, r3
 1263              		.loc 1 413 0
 1264 000a 0529     		cmp	r1, #5
 1265 000c 31D8     		bhi	.L113
 1266 000e DFE801F0 		tbb	[pc, r1]
 1267              	.LVL135:
 1268              	.L106:
 1269 0012 22       		.byte	(.L105-.L106)/2
ARM GAS  /var/folders/v3/wysfpd052nz8jkbx04pk0ym80000gn/T//cczlQ9mM.s 			page 33


 1270 0013 13       		.byte	(.L107-.L106)/2
 1271 0014 13       		.byte	(.L107-.L106)/2
 1272 0015 0A       		.byte	(.L117-.L106)/2
 1273 0016 20       		.byte	(.L118-.L106)/2
 1274 0017 20       		.byte	(.L118-.L106)/2
 1275              		.p2align 1
 1276              	.L110:
 414:/Users/imashio/Electronics/ARM/_Library/u8x8_cad.c ****   {
 415:/Users/imashio/Electronics/ARM/_Library/u8x8_cad.c ****     case U8X8_MSG_CAD_SEND_CMD:
 416:/Users/imashio/Electronics/ARM/_Library/u8x8_cad.c ****     case U8X8_MSG_CAD_SEND_ARG:
 417:/Users/imashio/Electronics/ARM/_Library/u8x8_cad.c ****       /* 7 Nov 2016: Can this be improved?  */
 418:/Users/imashio/Electronics/ARM/_Library/u8x8_cad.c ****       //u8x8_byte_SetDC(u8x8, 0);
 419:/Users/imashio/Electronics/ARM/_Library/u8x8_cad.c ****       u8x8_byte_StartTransfer(u8x8);
 420:/Users/imashio/Electronics/ARM/_Library/u8x8_cad.c ****       //u8x8_byte_SendByte(u8x8, u8x8_GetI2CAddress(u8x8));
 421:/Users/imashio/Electronics/ARM/_Library/u8x8_cad.c ****       u8x8_byte_SendByte(u8x8, 0x000);
 422:/Users/imashio/Electronics/ARM/_Library/u8x8_cad.c ****       u8x8_byte_SendByte(u8x8, arg_int);
 423:/Users/imashio/Electronics/ARM/_Library/u8x8_cad.c ****       u8x8_byte_EndTransfer(u8x8);      
 424:/Users/imashio/Electronics/ARM/_Library/u8x8_cad.c ****       break;
 425:/Users/imashio/Electronics/ARM/_Library/u8x8_cad.c ****     case U8X8_MSG_CAD_SEND_DATA:
 426:/Users/imashio/Electronics/ARM/_Library/u8x8_cad.c ****       //u8x8_byte_SetDC(u8x8, 1);
 427:/Users/imashio/Electronics/ARM/_Library/u8x8_cad.c ****     
 428:/Users/imashio/Electronics/ARM/_Library/u8x8_cad.c ****       /* the FeatherWing OLED with the 32u4 transfer of long byte */
 429:/Users/imashio/Electronics/ARM/_Library/u8x8_cad.c ****       /* streams was not possible. This is broken down to */
 430:/Users/imashio/Electronics/ARM/_Library/u8x8_cad.c ****       /* smaller streams, 32 seems to be the limit... */
 431:/Users/imashio/Electronics/ARM/_Library/u8x8_cad.c ****       /* I guess this is related to the size of the Wire buffers in Arduino */
 432:/Users/imashio/Electronics/ARM/_Library/u8x8_cad.c ****       /* Unfortunately, this can not be handled in the byte level drivers, */
 433:/Users/imashio/Electronics/ARM/_Library/u8x8_cad.c ****       /* so this is done here. Even further, only 24 bytes will be sent, */
 434:/Users/imashio/Electronics/ARM/_Library/u8x8_cad.c ****       /* because there will be another byte (DC) required during the transfer */
 435:/Users/imashio/Electronics/ARM/_Library/u8x8_cad.c ****       p = arg_ptr;
 436:/Users/imashio/Electronics/ARM/_Library/u8x8_cad.c ****        while( arg_int > 24 )
 437:/Users/imashio/Electronics/ARM/_Library/u8x8_cad.c ****       {
 438:/Users/imashio/Electronics/ARM/_Library/u8x8_cad.c **** 	u8x8_i2c_data_transfer(u8x8, 24, p);
 1277              		.loc 1 438 0
 1278 0018 1821     		movs	r1, #24
 1279 001a 3046     		mov	r0, r6
 1280 001c FFF7FEFF 		bl	u8x8_i2c_data_transfer
 1281              	.LVL136:
 439:/Users/imashio/Electronics/ARM/_Library/u8x8_cad.c **** 	arg_int-=24;
 1282              		.loc 1 439 0
 1283 0020 183C     		subs	r4, r4, #24
 1284              	.LVL137:
 1285 0022 E4B2     		uxtb	r4, r4
 1286              	.LVL138:
 440:/Users/imashio/Electronics/ARM/_Library/u8x8_cad.c **** 	p+=24;
 1287              		.loc 1 440 0
 1288 0024 1835     		adds	r5, r5, #24
 1289              	.LVL139:
 1290              	.L117:
 436:/Users/imashio/Electronics/ARM/_Library/u8x8_cad.c ****       {
 1291              		.loc 1 436 0
 1292 0026 182C     		cmp	r4, #24
 438:/Users/imashio/Electronics/ARM/_Library/u8x8_cad.c **** 	arg_int-=24;
 1293              		.loc 1 438 0
 1294 0028 2A46     		mov	r2, r5
 436:/Users/imashio/Electronics/ARM/_Library/u8x8_cad.c ****       {
 1295              		.loc 1 436 0
 1296 002a F5D8     		bhi	.L110
ARM GAS  /var/folders/v3/wysfpd052nz8jkbx04pk0ym80000gn/T//cczlQ9mM.s 			page 34


 441:/Users/imashio/Electronics/ARM/_Library/u8x8_cad.c ****       }
 442:/Users/imashio/Electronics/ARM/_Library/u8x8_cad.c ****       u8x8_i2c_data_transfer(u8x8, arg_int, p);
 1297              		.loc 1 442 0
 1298 002c 3046     		mov	r0, r6
 1299 002e 2146     		mov	r1, r4
 1300 0030 FFF7FEFF 		bl	u8x8_i2c_data_transfer
 1301              	.LVL140:
 443:/Users/imashio/Electronics/ARM/_Library/u8x8_cad.c ****       break;
 444:/Users/imashio/Electronics/ARM/_Library/u8x8_cad.c ****     case U8X8_MSG_CAD_INIT:
 445:/Users/imashio/Electronics/ARM/_Library/u8x8_cad.c ****       /* apply default i2c adr if required so that the start transfer msg can use this */
 446:/Users/imashio/Electronics/ARM/_Library/u8x8_cad.c ****       if ( u8x8->i2c_address == 255 )
 447:/Users/imashio/Electronics/ARM/_Library/u8x8_cad.c **** 	u8x8->i2c_address = 0x078;
 448:/Users/imashio/Electronics/ARM/_Library/u8x8_cad.c ****       return u8x8->byte_cb(u8x8, msg, arg_int, arg_ptr);
 449:/Users/imashio/Electronics/ARM/_Library/u8x8_cad.c ****     case U8X8_MSG_CAD_START_TRANSFER:
 450:/Users/imashio/Electronics/ARM/_Library/u8x8_cad.c ****     case U8X8_MSG_CAD_END_TRANSFER:
 451:/Users/imashio/Electronics/ARM/_Library/u8x8_cad.c ****       /* cad transfer commands are ignored */
 452:/Users/imashio/Electronics/ARM/_Library/u8x8_cad.c ****       break;
 453:/Users/imashio/Electronics/ARM/_Library/u8x8_cad.c ****     default:
 454:/Users/imashio/Electronics/ARM/_Library/u8x8_cad.c ****       return 0;
 455:/Users/imashio/Electronics/ARM/_Library/u8x8_cad.c ****   }
 456:/Users/imashio/Electronics/ARM/_Library/u8x8_cad.c ****   return 1;
 1302              		.loc 1 456 0
 1303 0034 0120     		movs	r0, #1
 457:/Users/imashio/Electronics/ARM/_Library/u8x8_cad.c **** }
 1304              		.loc 1 457 0
 1305 0036 70BD     		pop	{r4, r5, r6, pc}
 1306              	.LVL141:
 1307              	.L107:
 419:/Users/imashio/Electronics/ARM/_Library/u8x8_cad.c ****       //u8x8_byte_SendByte(u8x8, u8x8_GetI2CAddress(u8x8));
 1308              		.loc 1 419 0
 1309 0038 FFF7FEFF 		bl	u8x8_byte_StartTransfer
 1310              	.LVL142:
 421:/Users/imashio/Electronics/ARM/_Library/u8x8_cad.c ****       u8x8_byte_SendByte(u8x8, arg_int);
 1311              		.loc 1 421 0
 1312 003c 0021     		movs	r1, #0
 1313 003e 3046     		mov	r0, r6
 1314 0040 FFF7FEFF 		bl	u8x8_byte_SendByte
 1315              	.LVL143:
 422:/Users/imashio/Electronics/ARM/_Library/u8x8_cad.c ****       u8x8_byte_EndTransfer(u8x8);      
 1316              		.loc 1 422 0
 1317 0044 2146     		mov	r1, r4
 1318 0046 3046     		mov	r0, r6
 1319 0048 FFF7FEFF 		bl	u8x8_byte_SendByte
 1320              	.LVL144:
 423:/Users/imashio/Electronics/ARM/_Library/u8x8_cad.c ****       break;
 1321              		.loc 1 423 0
 1322 004c 3046     		mov	r0, r6
 1323 004e FFF7FEFF 		bl	u8x8_byte_EndTransfer
 1324              	.LVL145:
 1325              	.L118:
 456:/Users/imashio/Electronics/ARM/_Library/u8x8_cad.c **** }
 1326              		.loc 1 456 0
 1327 0052 0120     		movs	r0, #1
 1328              		.loc 1 457 0
 1329 0054 70BD     		pop	{r4, r5, r6, pc}
 1330              	.LVL146:
 1331              	.L105:
ARM GAS  /var/folders/v3/wysfpd052nz8jkbx04pk0ym80000gn/T//cczlQ9mM.s 			page 35


 446:/Users/imashio/Electronics/ARM/_Library/u8x8_cad.c **** 	u8x8->i2c_address = 0x078;
 1332              		.loc 1 446 0
 1333 0056 90F82030 		ldrb	r3, [r0, #32]	@ zero_extendqisi2
 448:/Users/imashio/Electronics/ARM/_Library/u8x8_cad.c ****     case U8X8_MSG_CAD_START_TRANSFER:
 1334              		.loc 1 448 0
 1335 005a 0469     		ldr	r4, [r0, #16]
 446:/Users/imashio/Electronics/ARM/_Library/u8x8_cad.c **** 	u8x8->i2c_address = 0x078;
 1336              		.loc 1 446 0
 1337 005c FF2B     		cmp	r3, #255
 447:/Users/imashio/Electronics/ARM/_Library/u8x8_cad.c ****       return u8x8->byte_cb(u8x8, msg, arg_int, arg_ptr);
 1338              		.loc 1 447 0
 1339 005e 04BF     		itt	eq
 1340 0060 7823     		moveq	r3, #120
 1341 0062 80F82030 		strbeq	r3, [r0, #32]
 448:/Users/imashio/Electronics/ARM/_Library/u8x8_cad.c ****     case U8X8_MSG_CAD_START_TRANSFER:
 1342              		.loc 1 448 0
 1343 0066 A446     		mov	ip, r4
 1344 0068 2B46     		mov	r3, r5
 1345 006a 1421     		movs	r1, #20
 1346              		.loc 1 457 0
 1347 006c BDE87040 		pop	{r4, r5, r6, lr}
 1348              	.LCFI50:
 1349              		.cfi_restore 14
 1350              		.cfi_restore 6
 1351              		.cfi_restore 5
 1352              		.cfi_restore 4
 1353              		.cfi_def_cfa_offset 0
 1354              	.LVL147:
 448:/Users/imashio/Electronics/ARM/_Library/u8x8_cad.c ****     case U8X8_MSG_CAD_START_TRANSFER:
 1355              		.loc 1 448 0
 1356 0070 6047     		bx	ip
 1357              	.LVL148:
 1358              	.L113:
 454:/Users/imashio/Electronics/ARM/_Library/u8x8_cad.c ****   }
 1359              		.loc 1 454 0
 1360 0072 0020     		movs	r0, #0
 1361              	.LVL149:
 1362              		.loc 1 457 0
 1363 0074 70BD     		pop	{r4, r5, r6, pc}
 1364              		.cfi_endproc
 1365              	.LFE14:
 1367 0076 00BF     		.section	.text.u8x8_cad_st75256_i2c,"ax",%progbits
 1368              		.align	1
 1369              		.p2align 2,,3
 1370              		.global	u8x8_cad_st75256_i2c
 1371              		.syntax unified
 1372              		.thumb
 1373              		.thumb_func
 1374              		.fpu fpv4-sp-d16
 1376              	u8x8_cad_st75256_i2c:
 1377              	.LFB15:
 458:/Users/imashio/Electronics/ARM/_Library/u8x8_cad.c **** 
 459:/Users/imashio/Electronics/ARM/_Library/u8x8_cad.c **** /* the st75256 i2c driver is a copy of the ssd13xx driver, but with arg=1 */
 460:/Users/imashio/Electronics/ARM/_Library/u8x8_cad.c **** /* modified from cad001 (ssd13xx) to cad011 */
 461:/Users/imashio/Electronics/ARM/_Library/u8x8_cad.c **** uint8_t u8x8_cad_st75256_i2c(u8x8_t *u8x8, uint8_t msg, uint8_t arg_int, void *arg_ptr)
 462:/Users/imashio/Electronics/ARM/_Library/u8x8_cad.c **** {
 1378              		.loc 1 462 0
ARM GAS  /var/folders/v3/wysfpd052nz8jkbx04pk0ym80000gn/T//cczlQ9mM.s 			page 36


 1379              		.cfi_startproc
 1380              		@ args = 0, pretend = 0, frame = 0
 1381              		@ frame_needed = 0, uses_anonymous_args = 0
 1382              	.LVL150:
 463:/Users/imashio/Electronics/ARM/_Library/u8x8_cad.c ****   uint8_t *p;
 464:/Users/imashio/Electronics/ARM/_Library/u8x8_cad.c ****   switch(msg)
 1383              		.loc 1 464 0
 1384 0000 1439     		subs	r1, r1, #20
 1385              	.LVL151:
 462:/Users/imashio/Electronics/ARM/_Library/u8x8_cad.c ****   uint8_t *p;
 1386              		.loc 1 462 0
 1387 0002 70B5     		push	{r4, r5, r6, lr}
 1388              	.LCFI51:
 1389              		.cfi_def_cfa_offset 16
 1390              		.cfi_offset 4, -16
 1391              		.cfi_offset 5, -12
 1392              		.cfi_offset 6, -8
 1393              		.cfi_offset 14, -4
 462:/Users/imashio/Electronics/ARM/_Library/u8x8_cad.c ****   uint8_t *p;
 1394              		.loc 1 462 0
 1395 0004 0646     		mov	r6, r0
 1396 0006 1446     		mov	r4, r2
 1397 0008 1D46     		mov	r5, r3
 1398              		.loc 1 464 0
 1399 000a 0529     		cmp	r1, #5
 1400 000c 35D8     		bhi	.L130
 1401 000e DFE801F0 		tbb	[pc, r1]
 1402              	.LVL152:
 1403              	.L122:
 1404 0012 22       		.byte	(.L121-.L122)/2
 1405 0013 30       		.byte	(.L123-.L122)/2
 1406 0014 13       		.byte	(.L124-.L122)/2
 1407 0015 0A       		.byte	(.L134-.L122)/2
 1408 0016 20       		.byte	(.L136-.L122)/2
 1409 0017 20       		.byte	(.L136-.L122)/2
 1410              		.p2align 1
 1411              	.L127:
 465:/Users/imashio/Electronics/ARM/_Library/u8x8_cad.c ****   {
 466:/Users/imashio/Electronics/ARM/_Library/u8x8_cad.c ****     case U8X8_MSG_CAD_SEND_CMD:
 467:/Users/imashio/Electronics/ARM/_Library/u8x8_cad.c ****       u8x8_byte_StartTransfer(u8x8);
 468:/Users/imashio/Electronics/ARM/_Library/u8x8_cad.c ****       u8x8_byte_SendByte(u8x8, 0x000);
 469:/Users/imashio/Electronics/ARM/_Library/u8x8_cad.c ****       u8x8_byte_SendByte(u8x8, arg_int);
 470:/Users/imashio/Electronics/ARM/_Library/u8x8_cad.c ****       u8x8_byte_EndTransfer(u8x8);      
 471:/Users/imashio/Electronics/ARM/_Library/u8x8_cad.c ****       break;
 472:/Users/imashio/Electronics/ARM/_Library/u8x8_cad.c ****     case U8X8_MSG_CAD_SEND_ARG:
 473:/Users/imashio/Electronics/ARM/_Library/u8x8_cad.c ****       u8x8_byte_StartTransfer(u8x8);
 474:/Users/imashio/Electronics/ARM/_Library/u8x8_cad.c ****       u8x8_byte_SendByte(u8x8, 0x040);
 475:/Users/imashio/Electronics/ARM/_Library/u8x8_cad.c ****       u8x8_byte_SendByte(u8x8, arg_int);
 476:/Users/imashio/Electronics/ARM/_Library/u8x8_cad.c ****       u8x8_byte_EndTransfer(u8x8);
 477:/Users/imashio/Electronics/ARM/_Library/u8x8_cad.c ****       break;
 478:/Users/imashio/Electronics/ARM/_Library/u8x8_cad.c ****     case U8X8_MSG_CAD_SEND_DATA:
 479:/Users/imashio/Electronics/ARM/_Library/u8x8_cad.c ****       /* see ssd13xx driver */
 480:/Users/imashio/Electronics/ARM/_Library/u8x8_cad.c ****       p = arg_ptr;
 481:/Users/imashio/Electronics/ARM/_Library/u8x8_cad.c ****        while( arg_int > 24 )
 482:/Users/imashio/Electronics/ARM/_Library/u8x8_cad.c ****       {
 483:/Users/imashio/Electronics/ARM/_Library/u8x8_cad.c **** 	u8x8_i2c_data_transfer(u8x8, 24, p);
 1412              		.loc 1 483 0
ARM GAS  /var/folders/v3/wysfpd052nz8jkbx04pk0ym80000gn/T//cczlQ9mM.s 			page 37


 1413 0018 1821     		movs	r1, #24
 1414 001a 3046     		mov	r0, r6
 1415 001c FFF7FEFF 		bl	u8x8_i2c_data_transfer
 1416              	.LVL153:
 484:/Users/imashio/Electronics/ARM/_Library/u8x8_cad.c **** 	arg_int-=24;
 1417              		.loc 1 484 0
 1418 0020 183C     		subs	r4, r4, #24
 1419              	.LVL154:
 1420 0022 E4B2     		uxtb	r4, r4
 1421              	.LVL155:
 485:/Users/imashio/Electronics/ARM/_Library/u8x8_cad.c **** 	p+=24;
 1422              		.loc 1 485 0
 1423 0024 1835     		adds	r5, r5, #24
 1424              	.LVL156:
 1425              	.L134:
 481:/Users/imashio/Electronics/ARM/_Library/u8x8_cad.c ****       {
 1426              		.loc 1 481 0
 1427 0026 182C     		cmp	r4, #24
 483:/Users/imashio/Electronics/ARM/_Library/u8x8_cad.c **** 	arg_int-=24;
 1428              		.loc 1 483 0
 1429 0028 2A46     		mov	r2, r5
 481:/Users/imashio/Electronics/ARM/_Library/u8x8_cad.c ****       {
 1430              		.loc 1 481 0
 1431 002a F5D8     		bhi	.L127
 486:/Users/imashio/Electronics/ARM/_Library/u8x8_cad.c ****       }
 487:/Users/imashio/Electronics/ARM/_Library/u8x8_cad.c ****       u8x8_i2c_data_transfer(u8x8, arg_int, p);
 1432              		.loc 1 487 0
 1433 002c 3046     		mov	r0, r6
 1434 002e 2146     		mov	r1, r4
 1435 0030 FFF7FEFF 		bl	u8x8_i2c_data_transfer
 1436              	.LVL157:
 488:/Users/imashio/Electronics/ARM/_Library/u8x8_cad.c ****       break;
 489:/Users/imashio/Electronics/ARM/_Library/u8x8_cad.c ****     case U8X8_MSG_CAD_INIT:
 490:/Users/imashio/Electronics/ARM/_Library/u8x8_cad.c ****       /* apply default i2c adr if required so that the start transfer msg can use this */
 491:/Users/imashio/Electronics/ARM/_Library/u8x8_cad.c ****       if ( u8x8->i2c_address == 255 )
 492:/Users/imashio/Electronics/ARM/_Library/u8x8_cad.c **** 	u8x8->i2c_address = 0x078;	/* ST75256, often this is 0x07e */
 493:/Users/imashio/Electronics/ARM/_Library/u8x8_cad.c ****       return u8x8->byte_cb(u8x8, msg, arg_int, arg_ptr);
 494:/Users/imashio/Electronics/ARM/_Library/u8x8_cad.c ****     case U8X8_MSG_CAD_START_TRANSFER:
 495:/Users/imashio/Electronics/ARM/_Library/u8x8_cad.c ****     case U8X8_MSG_CAD_END_TRANSFER:
 496:/Users/imashio/Electronics/ARM/_Library/u8x8_cad.c ****       /* cad transfer commands are ignored */
 497:/Users/imashio/Electronics/ARM/_Library/u8x8_cad.c ****       break;
 498:/Users/imashio/Electronics/ARM/_Library/u8x8_cad.c ****     default:
 499:/Users/imashio/Electronics/ARM/_Library/u8x8_cad.c ****       return 0;
 500:/Users/imashio/Electronics/ARM/_Library/u8x8_cad.c ****   }
 501:/Users/imashio/Electronics/ARM/_Library/u8x8_cad.c ****   return 1;
 1437              		.loc 1 501 0
 1438 0034 0120     		movs	r0, #1
 502:/Users/imashio/Electronics/ARM/_Library/u8x8_cad.c **** }
 1439              		.loc 1 502 0
 1440 0036 70BD     		pop	{r4, r5, r6, pc}
 1441              	.LVL158:
 1442              	.L124:
 473:/Users/imashio/Electronics/ARM/_Library/u8x8_cad.c ****       u8x8_byte_SendByte(u8x8, 0x040);
 1443              		.loc 1 473 0
 1444 0038 FFF7FEFF 		bl	u8x8_byte_StartTransfer
 1445              	.LVL159:
 474:/Users/imashio/Electronics/ARM/_Library/u8x8_cad.c ****       u8x8_byte_SendByte(u8x8, arg_int);
ARM GAS  /var/folders/v3/wysfpd052nz8jkbx04pk0ym80000gn/T//cczlQ9mM.s 			page 38


 1446              		.loc 1 474 0
 1447 003c 4021     		movs	r1, #64
 1448              	.L135:
 1449 003e 3046     		mov	r0, r6
 1450 0040 FFF7FEFF 		bl	u8x8_byte_SendByte
 1451              	.LVL160:
 475:/Users/imashio/Electronics/ARM/_Library/u8x8_cad.c ****       u8x8_byte_EndTransfer(u8x8);
 1452              		.loc 1 475 0
 1453 0044 2146     		mov	r1, r4
 1454 0046 3046     		mov	r0, r6
 1455 0048 FFF7FEFF 		bl	u8x8_byte_SendByte
 1456              	.LVL161:
 476:/Users/imashio/Electronics/ARM/_Library/u8x8_cad.c ****       break;
 1457              		.loc 1 476 0
 1458 004c 3046     		mov	r0, r6
 1459 004e FFF7FEFF 		bl	u8x8_byte_EndTransfer
 1460              	.LVL162:
 1461              	.L136:
 501:/Users/imashio/Electronics/ARM/_Library/u8x8_cad.c **** }
 1462              		.loc 1 501 0
 1463 0052 0120     		movs	r0, #1
 1464              		.loc 1 502 0
 1465 0054 70BD     		pop	{r4, r5, r6, pc}
 1466              	.LVL163:
 1467              	.L121:
 491:/Users/imashio/Electronics/ARM/_Library/u8x8_cad.c **** 	u8x8->i2c_address = 0x078;	/* ST75256, often this is 0x07e */
 1468              		.loc 1 491 0
 1469 0056 90F82030 		ldrb	r3, [r0, #32]	@ zero_extendqisi2
 493:/Users/imashio/Electronics/ARM/_Library/u8x8_cad.c ****     case U8X8_MSG_CAD_START_TRANSFER:
 1470              		.loc 1 493 0
 1471 005a 0469     		ldr	r4, [r0, #16]
 491:/Users/imashio/Electronics/ARM/_Library/u8x8_cad.c **** 	u8x8->i2c_address = 0x078;	/* ST75256, often this is 0x07e */
 1472              		.loc 1 491 0
 1473 005c FF2B     		cmp	r3, #255
 492:/Users/imashio/Electronics/ARM/_Library/u8x8_cad.c ****       return u8x8->byte_cb(u8x8, msg, arg_int, arg_ptr);
 1474              		.loc 1 492 0
 1475 005e 04BF     		itt	eq
 1476 0060 7823     		moveq	r3, #120
 1477 0062 80F82030 		strbeq	r3, [r0, #32]
 493:/Users/imashio/Electronics/ARM/_Library/u8x8_cad.c ****     case U8X8_MSG_CAD_START_TRANSFER:
 1478              		.loc 1 493 0
 1479 0066 A446     		mov	ip, r4
 1480 0068 2B46     		mov	r3, r5
 1481 006a 1421     		movs	r1, #20
 1482              		.loc 1 502 0
 1483 006c BDE87040 		pop	{r4, r5, r6, lr}
 1484              	.LCFI52:
 1485              		.cfi_remember_state
 1486              		.cfi_restore 14
 1487              		.cfi_restore 6
 1488              		.cfi_restore 5
 1489              		.cfi_restore 4
 1490              		.cfi_def_cfa_offset 0
 1491              	.LVL164:
 493:/Users/imashio/Electronics/ARM/_Library/u8x8_cad.c ****     case U8X8_MSG_CAD_START_TRANSFER:
 1492              		.loc 1 493 0
 1493 0070 6047     		bx	ip
ARM GAS  /var/folders/v3/wysfpd052nz8jkbx04pk0ym80000gn/T//cczlQ9mM.s 			page 39


 1494              	.LVL165:
 1495              	.L123:
 1496              	.LCFI53:
 1497              		.cfi_restore_state
 467:/Users/imashio/Electronics/ARM/_Library/u8x8_cad.c ****       u8x8_byte_SendByte(u8x8, 0x000);
 1498              		.loc 1 467 0
 1499 0072 FFF7FEFF 		bl	u8x8_byte_StartTransfer
 1500              	.LVL166:
 468:/Users/imashio/Electronics/ARM/_Library/u8x8_cad.c ****       u8x8_byte_SendByte(u8x8, arg_int);
 1501              		.loc 1 468 0
 1502 0076 0021     		movs	r1, #0
 1503 0078 E1E7     		b	.L135
 1504              	.LVL167:
 1505              	.L130:
 499:/Users/imashio/Electronics/ARM/_Library/u8x8_cad.c ****   }
 1506              		.loc 1 499 0
 1507 007a 0020     		movs	r0, #0
 1508              	.LVL168:
 1509              		.loc 1 502 0
 1510 007c 70BD     		pop	{r4, r5, r6, pc}
 1511              		.cfi_endproc
 1512              	.LFE15:
 1514 007e 00BF     		.section	.text.u8x8_cad_ld7032_i2c,"ax",%progbits
 1515              		.align	1
 1516              		.p2align 2,,3
 1517              		.global	u8x8_cad_ld7032_i2c
 1518              		.syntax unified
 1519              		.thumb
 1520              		.thumb_func
 1521              		.fpu fpv4-sp-d16
 1523              	u8x8_cad_ld7032_i2c:
 1524              	.LFB16:
 503:/Users/imashio/Electronics/ARM/_Library/u8x8_cad.c **** 
 504:/Users/imashio/Electronics/ARM/_Library/u8x8_cad.c **** /* cad i2c procedure for the ld7032 controller */
 505:/Users/imashio/Electronics/ARM/_Library/u8x8_cad.c **** uint8_t u8x8_cad_ld7032_i2c(u8x8_t *u8x8, uint8_t msg, uint8_t arg_int, void *arg_ptr)
 506:/Users/imashio/Electronics/ARM/_Library/u8x8_cad.c **** {
 1525              		.loc 1 506 0
 1526              		.cfi_startproc
 1527              		@ args = 0, pretend = 0, frame = 0
 1528              		@ frame_needed = 0, uses_anonymous_args = 0
 1529              	.LVL169:
 507:/Users/imashio/Electronics/ARM/_Library/u8x8_cad.c ****   static uint8_t in_transfer = 0;
 508:/Users/imashio/Electronics/ARM/_Library/u8x8_cad.c ****   uint8_t *p;
 509:/Users/imashio/Electronics/ARM/_Library/u8x8_cad.c ****   switch(msg)
 1530              		.loc 1 509 0
 1531 0000 1439     		subs	r1, r1, #20
 1532              	.LVL170:
 506:/Users/imashio/Electronics/ARM/_Library/u8x8_cad.c ****   static uint8_t in_transfer = 0;
 1533              		.loc 1 506 0
 1534 0002 2DE9F041 		push	{r4, r5, r6, r7, r8, lr}
 1535              	.LCFI54:
 1536              		.cfi_def_cfa_offset 24
 1537              		.cfi_offset 4, -24
 1538              		.cfi_offset 5, -20
 1539              		.cfi_offset 6, -16
 1540              		.cfi_offset 7, -12
 1541              		.cfi_offset 8, -8
ARM GAS  /var/folders/v3/wysfpd052nz8jkbx04pk0ym80000gn/T//cczlQ9mM.s 			page 40


 1542              		.cfi_offset 14, -4
 506:/Users/imashio/Electronics/ARM/_Library/u8x8_cad.c ****   static uint8_t in_transfer = 0;
 1543              		.loc 1 506 0
 1544 0006 0446     		mov	r4, r0
 1545 0008 1546     		mov	r5, r2
 1546 000a 1E46     		mov	r6, r3
 1547              		.loc 1 509 0
 1548 000c 0529     		cmp	r1, #5
 1549 000e 56D8     		bhi	.L150
 1550 0010 DFE801F0 		tbb	[pc, r1]
 1551              	.LVL171:
 1552              	.L140:
 1553 0014 27       		.byte	(.L139-.L140)/2
 1554 0015 41       		.byte	(.L141-.L140)/2
 1555 0016 35       		.byte	(.L142-.L140)/2
 1556 0017 16       		.byte	(.L158-.L140)/2
 1557 0018 3B       		.byte	(.L144-.L140)/2
 1558 0019 21       		.byte	(.L145-.L140)/2
 1559              		.p2align 1
 1560              	.L146:
 510:/Users/imashio/Electronics/ARM/_Library/u8x8_cad.c ****   {
 511:/Users/imashio/Electronics/ARM/_Library/u8x8_cad.c ****     case U8X8_MSG_CAD_SEND_CMD:
 512:/Users/imashio/Electronics/ARM/_Library/u8x8_cad.c ****       if ( in_transfer != 0 )
 513:/Users/imashio/Electronics/ARM/_Library/u8x8_cad.c **** 	u8x8_byte_EndTransfer(u8x8); 
 514:/Users/imashio/Electronics/ARM/_Library/u8x8_cad.c ****       u8x8_byte_StartTransfer(u8x8);
 515:/Users/imashio/Electronics/ARM/_Library/u8x8_cad.c ****       u8x8_byte_SendByte(u8x8, arg_int);
 516:/Users/imashio/Electronics/ARM/_Library/u8x8_cad.c ****       in_transfer = 1;
 517:/Users/imashio/Electronics/ARM/_Library/u8x8_cad.c ****       break;
 518:/Users/imashio/Electronics/ARM/_Library/u8x8_cad.c ****     case U8X8_MSG_CAD_SEND_ARG:
 519:/Users/imashio/Electronics/ARM/_Library/u8x8_cad.c ****       u8x8_byte_SendByte(u8x8, arg_int);
 520:/Users/imashio/Electronics/ARM/_Library/u8x8_cad.c ****       break;
 521:/Users/imashio/Electronics/ARM/_Library/u8x8_cad.c ****     case U8X8_MSG_CAD_SEND_DATA:
 522:/Users/imashio/Electronics/ARM/_Library/u8x8_cad.c ****       //u8x8_byte_SetDC(u8x8, 1);
 523:/Users/imashio/Electronics/ARM/_Library/u8x8_cad.c ****     
 524:/Users/imashio/Electronics/ARM/_Library/u8x8_cad.c ****       /* the FeatherWing OLED with the 32u4 transfer of long byte */
 525:/Users/imashio/Electronics/ARM/_Library/u8x8_cad.c ****       /* streams was not possible. This is broken down to */
 526:/Users/imashio/Electronics/ARM/_Library/u8x8_cad.c ****       /* smaller streams, 32 seems to be the limit... */
 527:/Users/imashio/Electronics/ARM/_Library/u8x8_cad.c ****       /* I guess this is related to the size of the Wire buffers in Arduino */
 528:/Users/imashio/Electronics/ARM/_Library/u8x8_cad.c ****       /* Unfortunately, this can not be handled in the byte level drivers, */
 529:/Users/imashio/Electronics/ARM/_Library/u8x8_cad.c ****       /* so this is done here. Even further, only 24 bytes will be sent, */
 530:/Users/imashio/Electronics/ARM/_Library/u8x8_cad.c ****       /* because there will be another byte (DC) required during the transfer */
 531:/Users/imashio/Electronics/ARM/_Library/u8x8_cad.c ****       p = arg_ptr;
 532:/Users/imashio/Electronics/ARM/_Library/u8x8_cad.c ****        while( arg_int > 24 )
 533:/Users/imashio/Electronics/ARM/_Library/u8x8_cad.c ****       {
 534:/Users/imashio/Electronics/ARM/_Library/u8x8_cad.c **** 	u8x8->byte_cb(u8x8, U8X8_MSG_CAD_SEND_DATA, 24, p);
 1561              		.loc 1 534 0
 1562 001a 3346     		mov	r3, r6
 1563 001c 1721     		movs	r1, #23
 1564 001e 1822     		movs	r2, #24
 1565 0020 2769     		ldr	r7, [r4, #16]
 1566 0022 2046     		mov	r0, r4
 1567 0024 B847     		blx	r7
 1568              	.LVL172:
 535:/Users/imashio/Electronics/ARM/_Library/u8x8_cad.c **** 	arg_int-=24;
 536:/Users/imashio/Electronics/ARM/_Library/u8x8_cad.c **** 	p+=24;
 537:/Users/imashio/Electronics/ARM/_Library/u8x8_cad.c **** 	u8x8_byte_EndTransfer(u8x8); 
 1569              		.loc 1 537 0
ARM GAS  /var/folders/v3/wysfpd052nz8jkbx04pk0ym80000gn/T//cczlQ9mM.s 			page 41


 1570 0026 2046     		mov	r0, r4
 1571 0028 FFF7FEFF 		bl	u8x8_byte_EndTransfer
 1572              	.LVL173:
 538:/Users/imashio/Electronics/ARM/_Library/u8x8_cad.c **** 	u8x8_byte_StartTransfer(u8x8);
 1573              		.loc 1 538 0
 1574 002c 2046     		mov	r0, r4
 1575 002e FFF7FEFF 		bl	u8x8_byte_StartTransfer
 1576              	.LVL174:
 535:/Users/imashio/Electronics/ARM/_Library/u8x8_cad.c **** 	arg_int-=24;
 1577              		.loc 1 535 0
 1578 0032 183D     		subs	r5, r5, #24
 1579              	.LVL175:
 539:/Users/imashio/Electronics/ARM/_Library/u8x8_cad.c **** 	u8x8_byte_SendByte(u8x8, 0x08);	/* data write for LD7032 */
 1580              		.loc 1 539 0
 1581 0034 0821     		movs	r1, #8
 1582 0036 2046     		mov	r0, r4
 535:/Users/imashio/Electronics/ARM/_Library/u8x8_cad.c **** 	arg_int-=24;
 1583              		.loc 1 535 0
 1584 0038 EDB2     		uxtb	r5, r5
 1585              	.LVL176:
 536:/Users/imashio/Electronics/ARM/_Library/u8x8_cad.c **** 	u8x8_byte_EndTransfer(u8x8); 
 1586              		.loc 1 536 0
 1587 003a 1836     		adds	r6, r6, #24
 1588              	.LVL177:
 1589              		.loc 1 539 0
 1590 003c FFF7FEFF 		bl	u8x8_byte_SendByte
 1591              	.LVL178:
 1592              	.L158:
 532:/Users/imashio/Electronics/ARM/_Library/u8x8_cad.c ****       {
 1593              		.loc 1 532 0
 1594 0040 182D     		cmp	r5, #24
 1595 0042 EAD8     		bhi	.L146
 540:/Users/imashio/Electronics/ARM/_Library/u8x8_cad.c ****       }
 541:/Users/imashio/Electronics/ARM/_Library/u8x8_cad.c ****       u8x8->byte_cb(u8x8, U8X8_MSG_CAD_SEND_DATA, arg_int, p);
 1596              		.loc 1 541 0
 1597 0044 2A46     		mov	r2, r5
 1598 0046 3346     		mov	r3, r6
 1599 0048 2569     		ldr	r5, [r4, #16]
 1600              	.LVL179:
 1601 004a 2046     		mov	r0, r4
 1602 004c 1721     		movs	r1, #23
 1603 004e A847     		blx	r5
 1604              	.LVL180:
 542:/Users/imashio/Electronics/ARM/_Library/u8x8_cad.c ****       break;
 543:/Users/imashio/Electronics/ARM/_Library/u8x8_cad.c ****     case U8X8_MSG_CAD_INIT:
 544:/Users/imashio/Electronics/ARM/_Library/u8x8_cad.c ****       /* apply default i2c adr if required so that the start transfer msg can use this */
 545:/Users/imashio/Electronics/ARM/_Library/u8x8_cad.c ****       if ( u8x8->i2c_address == 255 )
 546:/Users/imashio/Electronics/ARM/_Library/u8x8_cad.c **** 	u8x8->i2c_address = 0x060;
 547:/Users/imashio/Electronics/ARM/_Library/u8x8_cad.c ****       return u8x8->byte_cb(u8x8, msg, arg_int, arg_ptr);
 548:/Users/imashio/Electronics/ARM/_Library/u8x8_cad.c ****     case U8X8_MSG_CAD_START_TRANSFER:
 549:/Users/imashio/Electronics/ARM/_Library/u8x8_cad.c ****       in_transfer = 0;
 550:/Users/imashio/Electronics/ARM/_Library/u8x8_cad.c ****       break;
 551:/Users/imashio/Electronics/ARM/_Library/u8x8_cad.c ****     case U8X8_MSG_CAD_END_TRANSFER:
 552:/Users/imashio/Electronics/ARM/_Library/u8x8_cad.c ****       if ( in_transfer != 0 )
 553:/Users/imashio/Electronics/ARM/_Library/u8x8_cad.c **** 	u8x8_byte_EndTransfer(u8x8); 
 554:/Users/imashio/Electronics/ARM/_Library/u8x8_cad.c ****       break;
 555:/Users/imashio/Electronics/ARM/_Library/u8x8_cad.c ****     default:
ARM GAS  /var/folders/v3/wysfpd052nz8jkbx04pk0ym80000gn/T//cczlQ9mM.s 			page 42


 556:/Users/imashio/Electronics/ARM/_Library/u8x8_cad.c ****       return 0;
 557:/Users/imashio/Electronics/ARM/_Library/u8x8_cad.c ****   }
 558:/Users/imashio/Electronics/ARM/_Library/u8x8_cad.c ****   return 1;
 1605              		.loc 1 558 0
 1606 0050 0120     		movs	r0, #1
 559:/Users/imashio/Electronics/ARM/_Library/u8x8_cad.c **** }
 1607              		.loc 1 559 0
 1608 0052 BDE8F081 		pop	{r4, r5, r6, r7, r8, pc}
 1609              	.LVL181:
 1610              	.L145:
 552:/Users/imashio/Electronics/ARM/_Library/u8x8_cad.c **** 	u8x8_byte_EndTransfer(u8x8); 
 1611              		.loc 1 552 0
 1612 0056 1B4B     		ldr	r3, .L160
 1613 0058 1B78     		ldrb	r3, [r3]	@ zero_extendqisi2
 1614 005a 63BB     		cbnz	r3, .L159
 558:/Users/imashio/Electronics/ARM/_Library/u8x8_cad.c **** }
 1615              		.loc 1 558 0
 1616 005c 0120     		movs	r0, #1
 1617              	.LVL182:
 1618              	.L138:
 1619              		.loc 1 559 0
 1620 005e BDE8F081 		pop	{r4, r5, r6, r7, r8, pc}
 1621              	.LVL183:
 1622              	.L139:
 545:/Users/imashio/Electronics/ARM/_Library/u8x8_cad.c **** 	u8x8->i2c_address = 0x060;
 1623              		.loc 1 545 0
 1624 0062 90F82030 		ldrb	r3, [r0, #32]	@ zero_extendqisi2
 547:/Users/imashio/Electronics/ARM/_Library/u8x8_cad.c ****     case U8X8_MSG_CAD_START_TRANSFER:
 1625              		.loc 1 547 0
 1626 0066 0569     		ldr	r5, [r0, #16]
 545:/Users/imashio/Electronics/ARM/_Library/u8x8_cad.c **** 	u8x8->i2c_address = 0x060;
 1627              		.loc 1 545 0
 1628 0068 FF2B     		cmp	r3, #255
 546:/Users/imashio/Electronics/ARM/_Library/u8x8_cad.c ****       return u8x8->byte_cb(u8x8, msg, arg_int, arg_ptr);
 1629              		.loc 1 546 0
 1630 006a 04BF     		itt	eq
 1631 006c 6023     		moveq	r3, #96
 1632 006e 80F82030 		strbeq	r3, [r0, #32]
 547:/Users/imashio/Electronics/ARM/_Library/u8x8_cad.c ****     case U8X8_MSG_CAD_START_TRANSFER:
 1633              		.loc 1 547 0
 1634 0072 AC46     		mov	ip, r5
 1635 0074 3346     		mov	r3, r6
 1636 0076 1421     		movs	r1, #20
 1637              		.loc 1 559 0
 1638 0078 BDE8F041 		pop	{r4, r5, r6, r7, r8, lr}
 1639              	.LCFI55:
 1640              		.cfi_remember_state
 1641              		.cfi_restore 14
 1642              		.cfi_restore 8
 1643              		.cfi_restore 7
 1644              		.cfi_restore 6
 1645              		.cfi_restore 5
 1646              		.cfi_restore 4
 1647              		.cfi_def_cfa_offset 0
 1648              	.LVL184:
 547:/Users/imashio/Electronics/ARM/_Library/u8x8_cad.c ****     case U8X8_MSG_CAD_START_TRANSFER:
 1649              		.loc 1 547 0
ARM GAS  /var/folders/v3/wysfpd052nz8jkbx04pk0ym80000gn/T//cczlQ9mM.s 			page 43


 1650 007c 6047     		bx	ip
 1651              	.LVL185:
 1652              	.L142:
 1653              	.LCFI56:
 1654              		.cfi_restore_state
 519:/Users/imashio/Electronics/ARM/_Library/u8x8_cad.c ****       break;
 1655              		.loc 1 519 0
 1656 007e 1146     		mov	r1, r2
 1657 0080 FFF7FEFF 		bl	u8x8_byte_SendByte
 1658              	.LVL186:
 558:/Users/imashio/Electronics/ARM/_Library/u8x8_cad.c **** }
 1659              		.loc 1 558 0
 1660 0084 0120     		movs	r0, #1
 1661              		.loc 1 559 0
 1662 0086 BDE8F081 		pop	{r4, r5, r6, r7, r8, pc}
 1663              	.LVL187:
 1664              	.L144:
 549:/Users/imashio/Electronics/ARM/_Library/u8x8_cad.c ****       break;
 1665              		.loc 1 549 0
 1666 008a 0E4B     		ldr	r3, .L160
 1667 008c 0022     		movs	r2, #0
 1668              	.LVL188:
 1669 008e 1A70     		strb	r2, [r3]
 558:/Users/imashio/Electronics/ARM/_Library/u8x8_cad.c **** }
 1670              		.loc 1 558 0
 1671 0090 0120     		movs	r0, #1
 1672              	.LVL189:
 1673              		.loc 1 559 0
 1674 0092 BDE8F081 		pop	{r4, r5, r6, r7, r8, pc}
 1675              	.LVL190:
 1676              	.L141:
 512:/Users/imashio/Electronics/ARM/_Library/u8x8_cad.c **** 	u8x8_byte_EndTransfer(u8x8); 
 1677              		.loc 1 512 0
 1678 0096 0B4E     		ldr	r6, .L160
 1679              	.LVL191:
 1680 0098 3378     		ldrb	r3, [r6]	@ zero_extendqisi2
 1681 009a 0BB1     		cbz	r3, .L148
 513:/Users/imashio/Electronics/ARM/_Library/u8x8_cad.c ****       u8x8_byte_StartTransfer(u8x8);
 1682              		.loc 1 513 0
 1683 009c FFF7FEFF 		bl	u8x8_byte_EndTransfer
 1684              	.LVL192:
 1685              	.L148:
 514:/Users/imashio/Electronics/ARM/_Library/u8x8_cad.c ****       u8x8_byte_SendByte(u8x8, arg_int);
 1686              		.loc 1 514 0
 1687 00a0 2046     		mov	r0, r4
 1688 00a2 FFF7FEFF 		bl	u8x8_byte_StartTransfer
 1689              	.LVL193:
 515:/Users/imashio/Electronics/ARM/_Library/u8x8_cad.c ****       in_transfer = 1;
 1690              		.loc 1 515 0
 1691 00a6 2946     		mov	r1, r5
 1692 00a8 2046     		mov	r0, r4
 1693 00aa FFF7FEFF 		bl	u8x8_byte_SendByte
 1694              	.LVL194:
 516:/Users/imashio/Electronics/ARM/_Library/u8x8_cad.c ****       break;
 1695              		.loc 1 516 0
 1696 00ae 0120     		movs	r0, #1
 1697 00b0 3070     		strb	r0, [r6]
ARM GAS  /var/folders/v3/wysfpd052nz8jkbx04pk0ym80000gn/T//cczlQ9mM.s 			page 44


 1698              		.loc 1 559 0
 1699 00b2 BDE8F081 		pop	{r4, r5, r6, r7, r8, pc}
 1700              	.LVL195:
 1701              	.L159:
 553:/Users/imashio/Electronics/ARM/_Library/u8x8_cad.c ****       break;
 1702              		.loc 1 553 0
 1703 00b6 FFF7FEFF 		bl	u8x8_byte_EndTransfer
 1704              	.LVL196:
 558:/Users/imashio/Electronics/ARM/_Library/u8x8_cad.c **** }
 1705              		.loc 1 558 0
 1706 00ba 0120     		movs	r0, #1
 1707 00bc CFE7     		b	.L138
 1708              	.LVL197:
 1709              	.L150:
 556:/Users/imashio/Electronics/ARM/_Library/u8x8_cad.c ****   }
 1710              		.loc 1 556 0
 1711 00be 0020     		movs	r0, #0
 1712              	.LVL198:
 1713 00c0 CDE7     		b	.L138
 1714              	.L161:
 1715 00c2 00BF     		.align	2
 1716              	.L160:
 1717 00c4 00000000 		.word	.LANCHOR1
 1718              		.cfi_endproc
 1719              	.LFE16:
 1721              		.section	.text.u8x8_cad_uc16xx_i2c,"ax",%progbits
 1722              		.align	1
 1723              		.p2align 2,,3
 1724              		.global	u8x8_cad_uc16xx_i2c
 1725              		.syntax unified
 1726              		.thumb
 1727              		.thumb_func
 1728              		.fpu fpv4-sp-d16
 1730              	u8x8_cad_uc16xx_i2c:
 1731              	.LFB17:
 560:/Users/imashio/Electronics/ARM/_Library/u8x8_cad.c **** 
 561:/Users/imashio/Electronics/ARM/_Library/u8x8_cad.c **** /* cad procedure for the UC16xx family in I2C mode */
 562:/Users/imashio/Electronics/ARM/_Library/u8x8_cad.c **** /* u8x8_byte_SetDC is not used */
 563:/Users/imashio/Electronics/ARM/_Library/u8x8_cad.c **** /* DC bit is encoded into the adr byte */
 564:/Users/imashio/Electronics/ARM/_Library/u8x8_cad.c **** uint8_t u8x8_cad_uc16xx_i2c(u8x8_t *u8x8, uint8_t msg, uint8_t arg_int, void *arg_ptr)
 565:/Users/imashio/Electronics/ARM/_Library/u8x8_cad.c **** {
 1732              		.loc 1 565 0
 1733              		.cfi_startproc
 1734              		@ args = 0, pretend = 0, frame = 0
 1735              		@ frame_needed = 0, uses_anonymous_args = 0
 1736              	.LVL199:
 566:/Users/imashio/Electronics/ARM/_Library/u8x8_cad.c ****   static uint8_t in_transfer = 0;	
 567:/Users/imashio/Electronics/ARM/_Library/u8x8_cad.c ****   static uint8_t is_data = 0;
 568:/Users/imashio/Electronics/ARM/_Library/u8x8_cad.c ****   uint8_t *p;
 569:/Users/imashio/Electronics/ARM/_Library/u8x8_cad.c ****   switch(msg)
 1737              		.loc 1 569 0
 1738 0000 1439     		subs	r1, r1, #20
 1739              	.LVL200:
 565:/Users/imashio/Electronics/ARM/_Library/u8x8_cad.c ****   static uint8_t in_transfer = 0;	
 1740              		.loc 1 565 0
 1741 0002 2DE9F041 		push	{r4, r5, r6, r7, r8, lr}
 1742              	.LCFI57:
ARM GAS  /var/folders/v3/wysfpd052nz8jkbx04pk0ym80000gn/T//cczlQ9mM.s 			page 45


 1743              		.cfi_def_cfa_offset 24
 1744              		.cfi_offset 4, -24
 1745              		.cfi_offset 5, -20
 1746              		.cfi_offset 6, -16
 1747              		.cfi_offset 7, -12
 1748              		.cfi_offset 8, -8
 1749              		.cfi_offset 14, -4
 565:/Users/imashio/Electronics/ARM/_Library/u8x8_cad.c ****   static uint8_t in_transfer = 0;	
 1750              		.loc 1 565 0
 1751 0006 0546     		mov	r5, r0
 1752 0008 1446     		mov	r4, r2
 1753 000a 1E46     		mov	r6, r3
 1754              		.loc 1 569 0
 1755 000c 0529     		cmp	r1, #5
 1756 000e 67D8     		bhi	.L177
 1757 0010 DFE801F0 		tbb	[pc, r1]
 1758              	.LVL201:
 1759              	.L165:
 1760 0014 0C       		.byte	(.L164-.L165)/2
 1761 0015 4F       		.byte	(.L166-.L165)/2
 1762 0016 4F       		.byte	(.L166-.L165)/2
 1763 0017 1A       		.byte	(.L167-.L165)/2
 1764 0018 49       		.byte	(.L168-.L165)/2
 1765 0019 03       		.byte	(.L169-.L165)/2
 1766              		.p2align 1
 1767              	.L169:
 570:/Users/imashio/Electronics/ARM/_Library/u8x8_cad.c ****   {
 571:/Users/imashio/Electronics/ARM/_Library/u8x8_cad.c ****     case U8X8_MSG_CAD_SEND_CMD:
 572:/Users/imashio/Electronics/ARM/_Library/u8x8_cad.c ****     case U8X8_MSG_CAD_SEND_ARG:
 573:/Users/imashio/Electronics/ARM/_Library/u8x8_cad.c ****       if ( in_transfer != 0 )
 574:/Users/imashio/Electronics/ARM/_Library/u8x8_cad.c ****       {
 575:/Users/imashio/Electronics/ARM/_Library/u8x8_cad.c **** 	if ( is_data != 0 )
 576:/Users/imashio/Electronics/ARM/_Library/u8x8_cad.c **** 	{
 577:/Users/imashio/Electronics/ARM/_Library/u8x8_cad.c **** 	  /* transfer mode is active, but data transfer */
 578:/Users/imashio/Electronics/ARM/_Library/u8x8_cad.c **** 	  u8x8_byte_EndTransfer(u8x8); 
 579:/Users/imashio/Electronics/ARM/_Library/u8x8_cad.c **** 	  /* clear the lowest two bits of the adr */
 580:/Users/imashio/Electronics/ARM/_Library/u8x8_cad.c **** 	  u8x8_SetI2CAddress( u8x8, u8x8_GetI2CAddress(u8x8)&0x0fc );
 581:/Users/imashio/Electronics/ARM/_Library/u8x8_cad.c **** 	  u8x8_byte_StartTransfer(u8x8); 
 582:/Users/imashio/Electronics/ARM/_Library/u8x8_cad.c **** 	}
 583:/Users/imashio/Electronics/ARM/_Library/u8x8_cad.c ****       }
 584:/Users/imashio/Electronics/ARM/_Library/u8x8_cad.c ****       else
 585:/Users/imashio/Electronics/ARM/_Library/u8x8_cad.c ****       {
 586:/Users/imashio/Electronics/ARM/_Library/u8x8_cad.c **** 	/* clear the lowest two bits of the adr */
 587:/Users/imashio/Electronics/ARM/_Library/u8x8_cad.c **** 	u8x8_SetI2CAddress( u8x8, u8x8_GetI2CAddress(u8x8)&0x0fc );
 588:/Users/imashio/Electronics/ARM/_Library/u8x8_cad.c **** 	u8x8_byte_StartTransfer(u8x8);
 589:/Users/imashio/Electronics/ARM/_Library/u8x8_cad.c ****       }
 590:/Users/imashio/Electronics/ARM/_Library/u8x8_cad.c ****       u8x8_byte_SendByte(u8x8, arg_int);
 591:/Users/imashio/Electronics/ARM/_Library/u8x8_cad.c ****       in_transfer = 1;
 592:/Users/imashio/Electronics/ARM/_Library/u8x8_cad.c ****       break;
 593:/Users/imashio/Electronics/ARM/_Library/u8x8_cad.c ****     case U8X8_MSG_CAD_SEND_DATA:
 594:/Users/imashio/Electronics/ARM/_Library/u8x8_cad.c ****       if ( in_transfer != 0 )
 595:/Users/imashio/Electronics/ARM/_Library/u8x8_cad.c ****       {
 596:/Users/imashio/Electronics/ARM/_Library/u8x8_cad.c **** 	if ( is_data == 0 )
 597:/Users/imashio/Electronics/ARM/_Library/u8x8_cad.c **** 	{
 598:/Users/imashio/Electronics/ARM/_Library/u8x8_cad.c **** 	  /* transfer mode is active, but data transfer */
 599:/Users/imashio/Electronics/ARM/_Library/u8x8_cad.c **** 	  u8x8_byte_EndTransfer(u8x8); 
 600:/Users/imashio/Electronics/ARM/_Library/u8x8_cad.c **** 	  /* clear the lowest two bits of the adr */
ARM GAS  /var/folders/v3/wysfpd052nz8jkbx04pk0ym80000gn/T//cczlQ9mM.s 			page 46


 601:/Users/imashio/Electronics/ARM/_Library/u8x8_cad.c **** 	  u8x8_SetI2CAddress( u8x8, (u8x8_GetI2CAddress(u8x8)&0x0fc)|2 );
 602:/Users/imashio/Electronics/ARM/_Library/u8x8_cad.c **** 	  u8x8_byte_StartTransfer(u8x8); 
 603:/Users/imashio/Electronics/ARM/_Library/u8x8_cad.c **** 	}
 604:/Users/imashio/Electronics/ARM/_Library/u8x8_cad.c ****       }
 605:/Users/imashio/Electronics/ARM/_Library/u8x8_cad.c ****       else
 606:/Users/imashio/Electronics/ARM/_Library/u8x8_cad.c ****       {
 607:/Users/imashio/Electronics/ARM/_Library/u8x8_cad.c **** 	/* clear the lowest two bits of the adr */
 608:/Users/imashio/Electronics/ARM/_Library/u8x8_cad.c **** 	u8x8_SetI2CAddress( u8x8, (u8x8_GetI2CAddress(u8x8)&0x0fc)|2 );
 609:/Users/imashio/Electronics/ARM/_Library/u8x8_cad.c **** 	u8x8_byte_StartTransfer(u8x8);
 610:/Users/imashio/Electronics/ARM/_Library/u8x8_cad.c ****       }
 611:/Users/imashio/Electronics/ARM/_Library/u8x8_cad.c ****       in_transfer = 1;
 612:/Users/imashio/Electronics/ARM/_Library/u8x8_cad.c ****       
 613:/Users/imashio/Electronics/ARM/_Library/u8x8_cad.c ****       p = arg_ptr;
 614:/Users/imashio/Electronics/ARM/_Library/u8x8_cad.c ****       while( arg_int > 24 )
 615:/Users/imashio/Electronics/ARM/_Library/u8x8_cad.c ****       {
 616:/Users/imashio/Electronics/ARM/_Library/u8x8_cad.c **** 	u8x8->byte_cb(u8x8, U8X8_MSG_CAD_SEND_DATA, 24, p);
 617:/Users/imashio/Electronics/ARM/_Library/u8x8_cad.c **** 	arg_int-=24;
 618:/Users/imashio/Electronics/ARM/_Library/u8x8_cad.c **** 	p+=24;
 619:/Users/imashio/Electronics/ARM/_Library/u8x8_cad.c **** 	u8x8_byte_EndTransfer(u8x8); 
 620:/Users/imashio/Electronics/ARM/_Library/u8x8_cad.c **** 	u8x8_byte_StartTransfer(u8x8);
 621:/Users/imashio/Electronics/ARM/_Library/u8x8_cad.c ****       }
 622:/Users/imashio/Electronics/ARM/_Library/u8x8_cad.c ****       u8x8->byte_cb(u8x8, U8X8_MSG_CAD_SEND_DATA, arg_int, p);
 623:/Users/imashio/Electronics/ARM/_Library/u8x8_cad.c ****       
 624:/Users/imashio/Electronics/ARM/_Library/u8x8_cad.c ****       break;
 625:/Users/imashio/Electronics/ARM/_Library/u8x8_cad.c ****     case U8X8_MSG_CAD_INIT:
 626:/Users/imashio/Electronics/ARM/_Library/u8x8_cad.c ****       /* apply default i2c adr if required so that the start transfer msg can use this */
 627:/Users/imashio/Electronics/ARM/_Library/u8x8_cad.c ****       if ( u8x8->i2c_address == 255 )
 628:/Users/imashio/Electronics/ARM/_Library/u8x8_cad.c **** 	u8x8->i2c_address = 0x070;
 629:/Users/imashio/Electronics/ARM/_Library/u8x8_cad.c ****       return u8x8->byte_cb(u8x8, msg, arg_int, arg_ptr);
 630:/Users/imashio/Electronics/ARM/_Library/u8x8_cad.c ****     case U8X8_MSG_CAD_START_TRANSFER:
 631:/Users/imashio/Electronics/ARM/_Library/u8x8_cad.c ****       in_transfer = 0;    
 632:/Users/imashio/Electronics/ARM/_Library/u8x8_cad.c ****       /* actual start is delayed, because we do not whether this is data or cmd transfer */
 633:/Users/imashio/Electronics/ARM/_Library/u8x8_cad.c ****       break;
 634:/Users/imashio/Electronics/ARM/_Library/u8x8_cad.c ****     case U8X8_MSG_CAD_END_TRANSFER:
 635:/Users/imashio/Electronics/ARM/_Library/u8x8_cad.c ****       if ( in_transfer != 0 )
 1768              		.loc 1 635 0
 1769 001a 324F     		ldr	r7, .L185
 1770 001c 3B78     		ldrb	r3, [r7]	@ zero_extendqisi2
 1771 001e 002B     		cmp	r3, #0
 1772 0020 52D1     		bne	.L183
 1773              	.LVL202:
 1774              	.L176:
 636:/Users/imashio/Electronics/ARM/_Library/u8x8_cad.c **** 	u8x8_byte_EndTransfer(u8x8);
 637:/Users/imashio/Electronics/ARM/_Library/u8x8_cad.c ****       in_transfer = 0;
 1775              		.loc 1 637 0
 1776 0022 0023     		movs	r3, #0
 1777 0024 3B70     		strb	r3, [r7]
 638:/Users/imashio/Electronics/ARM/_Library/u8x8_cad.c ****       break;
 639:/Users/imashio/Electronics/ARM/_Library/u8x8_cad.c ****     default:
 640:/Users/imashio/Electronics/ARM/_Library/u8x8_cad.c ****       return 0;
 641:/Users/imashio/Electronics/ARM/_Library/u8x8_cad.c ****   }
 642:/Users/imashio/Electronics/ARM/_Library/u8x8_cad.c ****   return 1;
 1778              		.loc 1 642 0
 1779 0026 0120     		movs	r0, #1
 1780              	.L163:
 643:/Users/imashio/Electronics/ARM/_Library/u8x8_cad.c **** }
 1781              		.loc 1 643 0
ARM GAS  /var/folders/v3/wysfpd052nz8jkbx04pk0ym80000gn/T//cczlQ9mM.s 			page 47


 1782 0028 BDE8F081 		pop	{r4, r5, r6, r7, r8, pc}
 1783              	.LVL203:
 1784              	.L164:
 627:/Users/imashio/Electronics/ARM/_Library/u8x8_cad.c **** 	u8x8->i2c_address = 0x070;
 1785              		.loc 1 627 0
 1786 002c 90F82030 		ldrb	r3, [r0, #32]	@ zero_extendqisi2
 629:/Users/imashio/Electronics/ARM/_Library/u8x8_cad.c ****     case U8X8_MSG_CAD_START_TRANSFER:
 1787              		.loc 1 629 0
 1788 0030 0469     		ldr	r4, [r0, #16]
 627:/Users/imashio/Electronics/ARM/_Library/u8x8_cad.c **** 	u8x8->i2c_address = 0x070;
 1789              		.loc 1 627 0
 1790 0032 FF2B     		cmp	r3, #255
 628:/Users/imashio/Electronics/ARM/_Library/u8x8_cad.c ****       return u8x8->byte_cb(u8x8, msg, arg_int, arg_ptr);
 1791              		.loc 1 628 0
 1792 0034 04BF     		itt	eq
 1793 0036 7023     		moveq	r3, #112
 1794 0038 80F82030 		strbeq	r3, [r0, #32]
 629:/Users/imashio/Electronics/ARM/_Library/u8x8_cad.c ****     case U8X8_MSG_CAD_START_TRANSFER:
 1795              		.loc 1 629 0
 1796 003c A446     		mov	ip, r4
 1797 003e 3346     		mov	r3, r6
 1798 0040 1421     		movs	r1, #20
 1799              		.loc 1 643 0
 1800 0042 BDE8F041 		pop	{r4, r5, r6, r7, r8, lr}
 1801              	.LCFI58:
 1802              		.cfi_remember_state
 1803              		.cfi_restore 14
 1804              		.cfi_restore 8
 1805              		.cfi_restore 7
 1806              		.cfi_restore 6
 1807              		.cfi_restore 5
 1808              		.cfi_restore 4
 1809              		.cfi_def_cfa_offset 0
 1810              	.LVL204:
 629:/Users/imashio/Electronics/ARM/_Library/u8x8_cad.c ****     case U8X8_MSG_CAD_START_TRANSFER:
 1811              		.loc 1 629 0
 1812 0046 6047     		bx	ip
 1813              	.LVL205:
 1814              	.L167:
 1815              	.LCFI59:
 1816              		.cfi_restore_state
 594:/Users/imashio/Electronics/ARM/_Library/u8x8_cad.c ****       {
 1817              		.loc 1 594 0
 1818 0048 264F     		ldr	r7, .L185
 1819 004a 3B78     		ldrb	r3, [r7]	@ zero_extendqisi2
 1820 004c 0BB1     		cbz	r3, .L171
 599:/Users/imashio/Electronics/ARM/_Library/u8x8_cad.c **** 	  /* clear the lowest two bits of the adr */
 1821              		.loc 1 599 0
 1822 004e FFF7FEFF 		bl	u8x8_byte_EndTransfer
 1823              	.LVL206:
 1824              	.L171:
 608:/Users/imashio/Electronics/ARM/_Library/u8x8_cad.c **** 	u8x8_byte_StartTransfer(u8x8);
 1825              		.loc 1 608 0
 1826 0052 95F82030 		ldrb	r3, [r5, #32]	@ zero_extendqisi2
 1827 0056 23F00303 		bic	r3, r3, #3
 1828 005a 43F00203 		orr	r3, r3, #2
 1829 005e 85F82030 		strb	r3, [r5, #32]
ARM GAS  /var/folders/v3/wysfpd052nz8jkbx04pk0ym80000gn/T//cczlQ9mM.s 			page 48


 609:/Users/imashio/Electronics/ARM/_Library/u8x8_cad.c ****       }
 1830              		.loc 1 609 0
 1831 0062 2846     		mov	r0, r5
 1832 0064 FFF7FEFF 		bl	u8x8_byte_StartTransfer
 1833              	.LVL207:
 611:/Users/imashio/Electronics/ARM/_Library/u8x8_cad.c ****       
 1834              		.loc 1 611 0
 1835 0068 0123     		movs	r3, #1
 614:/Users/imashio/Electronics/ARM/_Library/u8x8_cad.c ****       {
 1836              		.loc 1 614 0
 1837 006a 182C     		cmp	r4, #24
 611:/Users/imashio/Electronics/ARM/_Library/u8x8_cad.c ****       
 1838              		.loc 1 611 0
 1839 006c 3B70     		strb	r3, [r7]
 1840              	.LVL208:
 614:/Users/imashio/Electronics/ARM/_Library/u8x8_cad.c ****       {
 1841              		.loc 1 614 0
 1842 006e 11D9     		bls	.L173
 1843              	.LVL209:
 1844              	.L174:
 616:/Users/imashio/Electronics/ARM/_Library/u8x8_cad.c **** 	arg_int-=24;
 1845              		.loc 1 616 0
 1846 0070 3346     		mov	r3, r6
 1847 0072 1822     		movs	r2, #24
 1848 0074 1721     		movs	r1, #23
 1849 0076 2F69     		ldr	r7, [r5, #16]
 1850 0078 2846     		mov	r0, r5
 1851 007a B847     		blx	r7
 1852              	.LVL210:
 617:/Users/imashio/Electronics/ARM/_Library/u8x8_cad.c **** 	p+=24;
 1853              		.loc 1 617 0
 1854 007c 183C     		subs	r4, r4, #24
 1855              	.LVL211:
 619:/Users/imashio/Electronics/ARM/_Library/u8x8_cad.c **** 	u8x8_byte_StartTransfer(u8x8);
 1856              		.loc 1 619 0
 1857 007e 2846     		mov	r0, r5
 1858 0080 FFF7FEFF 		bl	u8x8_byte_EndTransfer
 1859              	.LVL212:
 617:/Users/imashio/Electronics/ARM/_Library/u8x8_cad.c **** 	p+=24;
 1860              		.loc 1 617 0
 1861 0084 E4B2     		uxtb	r4, r4
 1862              	.LVL213:
 620:/Users/imashio/Electronics/ARM/_Library/u8x8_cad.c ****       }
 1863              		.loc 1 620 0
 1864 0086 2846     		mov	r0, r5
 1865 0088 FFF7FEFF 		bl	u8x8_byte_StartTransfer
 1866              	.LVL214:
 614:/Users/imashio/Electronics/ARM/_Library/u8x8_cad.c ****       {
 1867              		.loc 1 614 0
 1868 008c 182C     		cmp	r4, #24
 618:/Users/imashio/Electronics/ARM/_Library/u8x8_cad.c **** 	u8x8_byte_EndTransfer(u8x8); 
 1869              		.loc 1 618 0
 1870 008e 06F11806 		add	r6, r6, #24
 1871              	.LVL215:
 614:/Users/imashio/Electronics/ARM/_Library/u8x8_cad.c ****       {
 1872              		.loc 1 614 0
 1873 0092 EDD8     		bhi	.L174
ARM GAS  /var/folders/v3/wysfpd052nz8jkbx04pk0ym80000gn/T//cczlQ9mM.s 			page 49


 1874              	.L173:
 622:/Users/imashio/Electronics/ARM/_Library/u8x8_cad.c ****       
 1875              		.loc 1 622 0
 1876 0094 2246     		mov	r2, r4
 1877 0096 3346     		mov	r3, r6
 1878 0098 2C69     		ldr	r4, [r5, #16]
 1879              	.LVL216:
 1880 009a 2846     		mov	r0, r5
 1881 009c 1721     		movs	r1, #23
 1882 009e A047     		blx	r4
 1883              	.LVL217:
 642:/Users/imashio/Electronics/ARM/_Library/u8x8_cad.c **** }
 1884              		.loc 1 642 0
 1885 00a0 0120     		movs	r0, #1
 1886              		.loc 1 643 0
 1887 00a2 BDE8F081 		pop	{r4, r5, r6, r7, r8, pc}
 1888              	.LVL218:
 1889              	.L168:
 631:/Users/imashio/Electronics/ARM/_Library/u8x8_cad.c ****       /* actual start is delayed, because we do not whether this is data or cmd transfer */
 1890              		.loc 1 631 0
 1891 00a6 0F4B     		ldr	r3, .L185
 1892 00a8 0022     		movs	r2, #0
 1893              	.LVL219:
 1894 00aa 1A70     		strb	r2, [r3]
 642:/Users/imashio/Electronics/ARM/_Library/u8x8_cad.c **** }
 1895              		.loc 1 642 0
 1896 00ac 0120     		movs	r0, #1
 1897              	.LVL220:
 1898              		.loc 1 643 0
 1899 00ae BDE8F081 		pop	{r4, r5, r6, r7, r8, pc}
 1900              	.LVL221:
 1901              	.L166:
 573:/Users/imashio/Electronics/ARM/_Library/u8x8_cad.c ****       {
 1902              		.loc 1 573 0
 1903 00b2 0C4F     		ldr	r7, .L185
 1904 00b4 3B78     		ldrb	r3, [r7]	@ zero_extendqisi2
 1905 00b6 53B1     		cbz	r3, .L184
 1906              	.LVL222:
 1907              	.L170:
 590:/Users/imashio/Electronics/ARM/_Library/u8x8_cad.c ****       in_transfer = 1;
 1908              		.loc 1 590 0
 1909 00b8 2146     		mov	r1, r4
 1910 00ba 2846     		mov	r0, r5
 1911 00bc FFF7FEFF 		bl	u8x8_byte_SendByte
 1912              	.LVL223:
 591:/Users/imashio/Electronics/ARM/_Library/u8x8_cad.c ****       break;
 1913              		.loc 1 591 0
 1914 00c0 0120     		movs	r0, #1
 1915 00c2 3870     		strb	r0, [r7]
 1916              		.loc 1 643 0
 1917 00c4 BDE8F081 		pop	{r4, r5, r6, r7, r8, pc}
 1918              	.LVL224:
 1919              	.L183:
 636:/Users/imashio/Electronics/ARM/_Library/u8x8_cad.c ****       in_transfer = 0;
 1920              		.loc 1 636 0
 1921 00c8 FFF7FEFF 		bl	u8x8_byte_EndTransfer
 1922              	.LVL225:
ARM GAS  /var/folders/v3/wysfpd052nz8jkbx04pk0ym80000gn/T//cczlQ9mM.s 			page 50


 1923 00cc A9E7     		b	.L176
 1924              	.LVL226:
 1925              	.L184:
 587:/Users/imashio/Electronics/ARM/_Library/u8x8_cad.c **** 	u8x8_byte_StartTransfer(u8x8);
 1926              		.loc 1 587 0
 1927 00ce 90F82030 		ldrb	r3, [r0, #32]	@ zero_extendqisi2
 1928 00d2 23F00303 		bic	r3, r3, #3
 1929 00d6 80F82030 		strb	r3, [r0, #32]
 588:/Users/imashio/Electronics/ARM/_Library/u8x8_cad.c ****       }
 1930              		.loc 1 588 0
 1931 00da FFF7FEFF 		bl	u8x8_byte_StartTransfer
 1932              	.LVL227:
 1933 00de EBE7     		b	.L170
 1934              	.LVL228:
 1935              	.L177:
 640:/Users/imashio/Electronics/ARM/_Library/u8x8_cad.c ****   }
 1936              		.loc 1 640 0
 1937 00e0 0020     		movs	r0, #0
 1938              	.LVL229:
 1939 00e2 A1E7     		b	.L163
 1940              	.L186:
 1941              		.align	2
 1942              	.L185:
 1943 00e4 00000000 		.word	.LANCHOR2
 1944              		.cfi_endproc
 1945              	.LFE17:
 1947              		.section	.bss.buf.6374,"aw",%nobits
 1948              		.align	2
 1949              		.set	.LANCHOR0,. + 0
 1952              	buf.6374:
 1953 0000 00000000 		.space	16
 1953      00000000 
 1953      00000000 
 1953      00000000 
 1954              		.section	.bss.in_transfer.6443,"aw",%nobits
 1955              		.set	.LANCHOR1,. + 0
 1958              	in_transfer.6443:
 1959 0000 00       		.space	1
 1960              		.section	.bss.in_transfer.6462,"aw",%nobits
 1961              		.set	.LANCHOR2,. + 0
 1964              	in_transfer.6462:
 1965 0000 00       		.space	1
 1966              		.text
 1967              	.Letext0:
 1968              		.file 2 "/usr/local/gcc-arm-none-eabi-7-2018-q2-update/arm-none-eabi/include/machine/_default_type
 1969              		.file 3 "/usr/local/gcc-arm-none-eabi-7-2018-q2-update/arm-none-eabi/include/sys/_stdint.h"
 1970              		.file 4 "/Users/imashio/Electronics/ARM/_Library/u8x8.h"
ARM GAS  /var/folders/v3/wysfpd052nz8jkbx04pk0ym80000gn/T//cczlQ9mM.s 			page 51

