ARM GAS  /var/folders/v3/wysfpd052nz8jkbx04pk0ym80000gn/T//ccwccXsI.s 			page 1


   1              		.cpu cortex-m4
   2              		.eabi_attribute 27, 1
   3              		.eabi_attribute 28, 1
   4              		.eabi_attribute 20, 1
   5              		.eabi_attribute 21, 1
   6              		.eabi_attribute 23, 3
   7              		.eabi_attribute 24, 1
   8              		.eabi_attribute 25, 1
   9              		.eabi_attribute 26, 1
  10              		.eabi_attribute 30, 2
  11              		.eabi_attribute 34, 1
  12              		.eabi_attribute 18, 4
  13              		.file	"u8x8_d_ssd1329.c"
  14              		.text
  15              	.Ltext0:
  16              		.cfi_sections	.debug_frame
  17              		.section	.text.u8x8_d_ssd1329_128x96_noname,"ax",%progbits
  18              		.align	1
  19              		.p2align 2,,3
  20              		.global	u8x8_d_ssd1329_128x96_noname
  21              		.syntax unified
  22              		.thumb
  23              		.thumb_func
  24              		.fpu fpv4-sp-d16
  26              	u8x8_d_ssd1329_128x96_noname:
  27              	.LFB2:
  28              		.file 1 "/Users/imashio/Electronics/ARM/_Library/u8x8_d_ssd1329.c"
   1:/Users/imashio/Electronics/ARM/_Library/u8x8_d_ssd1329.c **** /*
   2:/Users/imashio/Electronics/ARM/_Library/u8x8_d_ssd1329.c **** 
   3:/Users/imashio/Electronics/ARM/_Library/u8x8_d_ssd1329.c ****   u8x8_d_ssd1329.c
   4:/Users/imashio/Electronics/ARM/_Library/u8x8_d_ssd1329.c **** 
   5:/Users/imashio/Electronics/ARM/_Library/u8x8_d_ssd1329.c ****   Universal 8bit Graphics Library (https://github.com/olikraus/u8g2/)
   6:/Users/imashio/Electronics/ARM/_Library/u8x8_d_ssd1329.c **** 
   7:/Users/imashio/Electronics/ARM/_Library/u8x8_d_ssd1329.c ****   Copyright (c) 2016, olikraus@gmail.com
   8:/Users/imashio/Electronics/ARM/_Library/u8x8_d_ssd1329.c ****   All rights reserved.
   9:/Users/imashio/Electronics/ARM/_Library/u8x8_d_ssd1329.c **** 
  10:/Users/imashio/Electronics/ARM/_Library/u8x8_d_ssd1329.c ****   Redistribution and use in source and binary forms, with or without modification, 
  11:/Users/imashio/Electronics/ARM/_Library/u8x8_d_ssd1329.c ****   are permitted provided that the following conditions are met:
  12:/Users/imashio/Electronics/ARM/_Library/u8x8_d_ssd1329.c **** 
  13:/Users/imashio/Electronics/ARM/_Library/u8x8_d_ssd1329.c ****   * Redistributions of source code must retain the above copyright notice, this list 
  14:/Users/imashio/Electronics/ARM/_Library/u8x8_d_ssd1329.c ****     of conditions and the following disclaimer.
  15:/Users/imashio/Electronics/ARM/_Library/u8x8_d_ssd1329.c ****     
  16:/Users/imashio/Electronics/ARM/_Library/u8x8_d_ssd1329.c ****   * Redistributions in binary form must reproduce the above copyright notice, this 
  17:/Users/imashio/Electronics/ARM/_Library/u8x8_d_ssd1329.c ****     list of conditions and the following disclaimer in the documentation and/or other 
  18:/Users/imashio/Electronics/ARM/_Library/u8x8_d_ssd1329.c ****     materials provided with the distribution.
  19:/Users/imashio/Electronics/ARM/_Library/u8x8_d_ssd1329.c **** 
  20:/Users/imashio/Electronics/ARM/_Library/u8x8_d_ssd1329.c ****   THIS SOFTWARE IS PROVIDED BY THE COPYRIGHT HOLDERS AND 
  21:/Users/imashio/Electronics/ARM/_Library/u8x8_d_ssd1329.c ****   CONTRIBUTORS "AS IS" AND ANY EXPRESS OR IMPLIED WARRANTIES, 
  22:/Users/imashio/Electronics/ARM/_Library/u8x8_d_ssd1329.c ****   INCLUDING, BUT NOT LIMITED TO, THE IMPLIED WARRANTIES OF 
  23:/Users/imashio/Electronics/ARM/_Library/u8x8_d_ssd1329.c ****   MERCHANTABILITY AND FITNESS FOR A PARTICULAR PURPOSE ARE 
  24:/Users/imashio/Electronics/ARM/_Library/u8x8_d_ssd1329.c ****   DISCLAIMED. IN NO EVENT SHALL THE COPYRIGHT HOLDER OR 
  25:/Users/imashio/Electronics/ARM/_Library/u8x8_d_ssd1329.c ****   CONTRIBUTORS BE LIABLE FOR ANY DIRECT, INDIRECT, INCIDENTAL, 
  26:/Users/imashio/Electronics/ARM/_Library/u8x8_d_ssd1329.c ****   SPECIAL, EXEMPLARY, OR CONSEQUENTIAL DAMAGES (INCLUDING, BUT 
  27:/Users/imashio/Electronics/ARM/_Library/u8x8_d_ssd1329.c ****   NOT LIMITED TO, PROCUREMENT OF SUBSTITUTE GOODS OR SERVICES; 
  28:/Users/imashio/Electronics/ARM/_Library/u8x8_d_ssd1329.c ****   LOSS OF USE, DATA, OR PROFITS; OR BUSINESS INTERRUPTION) HOWEVER 
  29:/Users/imashio/Electronics/ARM/_Library/u8x8_d_ssd1329.c ****   CAUSED AND ON ANY THEORY OF LIABILITY, WHETHER IN CONTRACT, 
  30:/Users/imashio/Electronics/ARM/_Library/u8x8_d_ssd1329.c ****   STRICT LIABILITY, OR TORT (INCLUDING NEGLIGENCE OR OTHERWISE) 
ARM GAS  /var/folders/v3/wysfpd052nz8jkbx04pk0ym80000gn/T//ccwccXsI.s 			page 2


  31:/Users/imashio/Electronics/ARM/_Library/u8x8_d_ssd1329.c ****   ARISING IN ANY WAY OUT OF THE USE OF THIS SOFTWARE, EVEN IF 
  32:/Users/imashio/Electronics/ARM/_Library/u8x8_d_ssd1329.c ****   ADVISED OF THE POSSIBILITY OF SUCH DAMAGE.  
  33:/Users/imashio/Electronics/ARM/_Library/u8x8_d_ssd1329.c ****   
  34:/Users/imashio/Electronics/ARM/_Library/u8x8_d_ssd1329.c **** */
  35:/Users/imashio/Electronics/ARM/_Library/u8x8_d_ssd1329.c **** 
  36:/Users/imashio/Electronics/ARM/_Library/u8x8_d_ssd1329.c **** 
  37:/Users/imashio/Electronics/ARM/_Library/u8x8_d_ssd1329.c **** #include "u8x8.h"
  38:/Users/imashio/Electronics/ARM/_Library/u8x8_d_ssd1329.c **** 
  39:/Users/imashio/Electronics/ARM/_Library/u8x8_d_ssd1329.c **** 
  40:/Users/imashio/Electronics/ARM/_Library/u8x8_d_ssd1329.c **** 
  41:/Users/imashio/Electronics/ARM/_Library/u8x8_d_ssd1329.c **** static const uint8_t u8x8_d_ssd1329_128x96_noname_init_seq[] = {
  42:/Users/imashio/Electronics/ARM/_Library/u8x8_d_ssd1329.c ****     
  43:/Users/imashio/Electronics/ARM/_Library/u8x8_d_ssd1329.c ****   U8X8_START_TRANSFER(),             	/* enable chip, delay is part of the transfer start */
  44:/Users/imashio/Electronics/ARM/_Library/u8x8_d_ssd1329.c ****   
  45:/Users/imashio/Electronics/ARM/_Library/u8x8_d_ssd1329.c ****   
  46:/Users/imashio/Electronics/ARM/_Library/u8x8_d_ssd1329.c ****   U8X8_C(0x0ae),		                /* display off */
  47:/Users/imashio/Electronics/ARM/_Library/u8x8_d_ssd1329.c ****   U8X8_CA(0x0b3, 0x091),		/* set display clock divide ratio/oscillator frequency (set clock as 135 
  48:/Users/imashio/Electronics/ARM/_Library/u8x8_d_ssd1329.c ****   U8X8_CA(0x0a8, 0x05f),		/* multiplex ratio: 0x03f * 1/64 duty - changed by CREESOO, acc. to datas
  49:/Users/imashio/Electronics/ARM/_Library/u8x8_d_ssd1329.c ****   U8X8_CA(0x0a2, 0x000),		/* display offset, shift mapping ram counter */
  50:/Users/imashio/Electronics/ARM/_Library/u8x8_d_ssd1329.c ****   U8X8_CA(0x0a1, 0x000),		/* display start line */
  51:/Users/imashio/Electronics/ARM/_Library/u8x8_d_ssd1329.c ****   U8X8_CA(0x0ad, 0x002),		/* master configuration: disable embedded DC-DC, enable internal VCOMH */
  52:/Users/imashio/Electronics/ARM/_Library/u8x8_d_ssd1329.c ****   U8X8_CA(0x0a0, 0x052),		/* remap configuration, horizontal address increment (bit 2 = 0), enable 
  53:/Users/imashio/Electronics/ARM/_Library/u8x8_d_ssd1329.c ****   U8X8_C(0x086),				/* full current range (0x084, 0x085, 0x086) */
  54:/Users/imashio/Electronics/ARM/_Library/u8x8_d_ssd1329.c **** #ifdef removed
  55:/Users/imashio/Electronics/ARM/_Library/u8x8_d_ssd1329.c ****   U8X8_C(0x0b8),				/* set gray scale table */
  56:/Users/imashio/Electronics/ARM/_Library/u8x8_d_ssd1329.c ****     U8X8_A(1),				/* */
  57:/Users/imashio/Electronics/ARM/_Library/u8x8_d_ssd1329.c ****     U8X8_A(5),				/* */
  58:/Users/imashio/Electronics/ARM/_Library/u8x8_d_ssd1329.c ****     U8X8_A(10),				/* */
  59:/Users/imashio/Electronics/ARM/_Library/u8x8_d_ssd1329.c ****     U8X8_A(14),				/* */
  60:/Users/imashio/Electronics/ARM/_Library/u8x8_d_ssd1329.c ****     U8X8_A(19),				/* */
  61:/Users/imashio/Electronics/ARM/_Library/u8x8_d_ssd1329.c ****     U8X8_A(23),				/* */
  62:/Users/imashio/Electronics/ARM/_Library/u8x8_d_ssd1329.c ****     U8X8_A(28),				/* */
  63:/Users/imashio/Electronics/ARM/_Library/u8x8_d_ssd1329.c ****     U8X8_A(32),				/* */
  64:/Users/imashio/Electronics/ARM/_Library/u8x8_d_ssd1329.c ****     U8X8_A(37),				/* */
  65:/Users/imashio/Electronics/ARM/_Library/u8x8_d_ssd1329.c ****     U8X8_A(41),				/* */
  66:/Users/imashio/Electronics/ARM/_Library/u8x8_d_ssd1329.c ****     U8X8_A(46),				/* */
  67:/Users/imashio/Electronics/ARM/_Library/u8x8_d_ssd1329.c ****     U8X8_A(50),				/* */
  68:/Users/imashio/Electronics/ARM/_Library/u8x8_d_ssd1329.c ****     U8X8_A(55),				/* */
  69:/Users/imashio/Electronics/ARM/_Library/u8x8_d_ssd1329.c ****     U8X8_A(59),				/* */
  70:/Users/imashio/Electronics/ARM/_Library/u8x8_d_ssd1329.c ****     U8X8_A(63),				/* */
  71:/Users/imashio/Electronics/ARM/_Library/u8x8_d_ssd1329.c **** #endif 
  72:/Users/imashio/Electronics/ARM/_Library/u8x8_d_ssd1329.c **** 
  73:/Users/imashio/Electronics/ARM/_Library/u8x8_d_ssd1329.c ****   U8X8_C(0x0b7),				/* set default gray scale table */
  74:/Users/imashio/Electronics/ARM/_Library/u8x8_d_ssd1329.c ****     
  75:/Users/imashio/Electronics/ARM/_Library/u8x8_d_ssd1329.c ****   U8X8_CA(0x081, 0x070),		/* contrast, brightness, 0..128 */
  76:/Users/imashio/Electronics/ARM/_Library/u8x8_d_ssd1329.c ****   U8X8_CA(0x0b2, 0x051),		/* frame frequency (row period) */
  77:/Users/imashio/Electronics/ARM/_Library/u8x8_d_ssd1329.c ****   U8X8_CA(0x0b1, 0x055),                    /* phase length */
  78:/Users/imashio/Electronics/ARM/_Library/u8x8_d_ssd1329.c ****   U8X8_CA(0x0bc, 0x010),                    /* pre-charge voltage level */
  79:/Users/imashio/Electronics/ARM/_Library/u8x8_d_ssd1329.c ****   U8X8_CA(0x0b4, 0x002),                    /* set pre-charge compensation level (not documented in
  80:/Users/imashio/Electronics/ARM/_Library/u8x8_d_ssd1329.c ****   U8X8_CA(0x0b0, 0x028),                    /* enable pre-charge compensation (not documented in th
  81:/Users/imashio/Electronics/ARM/_Library/u8x8_d_ssd1329.c ****   U8X8_CA(0x0be, 0x01c),                     /* VCOMH voltage */
  82:/Users/imashio/Electronics/ARM/_Library/u8x8_d_ssd1329.c ****   U8X8_CA(0x0bf, 0x002|0x00d),           /* VSL voltage level (not documented in the SDD1325 datash
  83:/Users/imashio/Electronics/ARM/_Library/u8x8_d_ssd1329.c ****   U8X8_C(0x0a4),				/* normal display mode */
  84:/Users/imashio/Electronics/ARM/_Library/u8x8_d_ssd1329.c ****     
  85:/Users/imashio/Electronics/ARM/_Library/u8x8_d_ssd1329.c ****   U8X8_CA(0x023, 0x003),		/* graphics accelleration: fill pixel */
  86:/Users/imashio/Electronics/ARM/_Library/u8x8_d_ssd1329.c ****     
  87:/Users/imashio/Electronics/ARM/_Library/u8x8_d_ssd1329.c ****   U8X8_END_TRANSFER(),             	/* disable chip */
ARM GAS  /var/folders/v3/wysfpd052nz8jkbx04pk0ym80000gn/T//ccwccXsI.s 			page 3


  88:/Users/imashio/Electronics/ARM/_Library/u8x8_d_ssd1329.c ****   U8X8_END()             			/* end of sequence */
  89:/Users/imashio/Electronics/ARM/_Library/u8x8_d_ssd1329.c **** };
  90:/Users/imashio/Electronics/ARM/_Library/u8x8_d_ssd1329.c **** 
  91:/Users/imashio/Electronics/ARM/_Library/u8x8_d_ssd1329.c **** static const uint8_t u8x8_d_ssd1329_128x96_nhd_powersave0_seq[] = {
  92:/Users/imashio/Electronics/ARM/_Library/u8x8_d_ssd1329.c ****   U8X8_START_TRANSFER(),             	/* enable chip, delay is part of the transfer start */
  93:/Users/imashio/Electronics/ARM/_Library/u8x8_d_ssd1329.c ****   U8X8_C(0x0af),		                /* display on */
  94:/Users/imashio/Electronics/ARM/_Library/u8x8_d_ssd1329.c ****   U8X8_END_TRANSFER(),             	/* disable chip */
  95:/Users/imashio/Electronics/ARM/_Library/u8x8_d_ssd1329.c ****   U8X8_END()             			/* end of sequence */
  96:/Users/imashio/Electronics/ARM/_Library/u8x8_d_ssd1329.c **** };
  97:/Users/imashio/Electronics/ARM/_Library/u8x8_d_ssd1329.c **** 
  98:/Users/imashio/Electronics/ARM/_Library/u8x8_d_ssd1329.c **** static const uint8_t u8x8_d_ssd1329_128x96_nhd_powersave1_seq[] = {
  99:/Users/imashio/Electronics/ARM/_Library/u8x8_d_ssd1329.c ****   U8X8_START_TRANSFER(),             	/* enable chip, delay is part of the transfer start */
 100:/Users/imashio/Electronics/ARM/_Library/u8x8_d_ssd1329.c ****   U8X8_C(0x0ae),		                /* display off */
 101:/Users/imashio/Electronics/ARM/_Library/u8x8_d_ssd1329.c ****   U8X8_END_TRANSFER(),             	/* disable chip */
 102:/Users/imashio/Electronics/ARM/_Library/u8x8_d_ssd1329.c ****   U8X8_END()             			/* end of sequence */
 103:/Users/imashio/Electronics/ARM/_Library/u8x8_d_ssd1329.c **** };
 104:/Users/imashio/Electronics/ARM/_Library/u8x8_d_ssd1329.c **** 
 105:/Users/imashio/Electronics/ARM/_Library/u8x8_d_ssd1329.c **** static const uint8_t u8x8_d_ssd1329_128x96_nhd_flip0_seq[] = {
 106:/Users/imashio/Electronics/ARM/_Library/u8x8_d_ssd1329.c ****   U8X8_START_TRANSFER(),             	/* enable chip, delay is part of the transfer start */
 107:/Users/imashio/Electronics/ARM/_Library/u8x8_d_ssd1329.c ****   U8X8_CA(0x0a0, 0x052),		/* remap */
 108:/Users/imashio/Electronics/ARM/_Library/u8x8_d_ssd1329.c ****   U8X8_END_TRANSFER(),             	/* disable chip */
 109:/Users/imashio/Electronics/ARM/_Library/u8x8_d_ssd1329.c ****   U8X8_END()             			/* end of sequence */
 110:/Users/imashio/Electronics/ARM/_Library/u8x8_d_ssd1329.c **** };
 111:/Users/imashio/Electronics/ARM/_Library/u8x8_d_ssd1329.c **** 
 112:/Users/imashio/Electronics/ARM/_Library/u8x8_d_ssd1329.c **** static const uint8_t u8x8_d_ssd1329_128x96_nhd_flip1_seq[] = {
 113:/Users/imashio/Electronics/ARM/_Library/u8x8_d_ssd1329.c ****   U8X8_START_TRANSFER(),             	/* enable chip, delay is part of the transfer start */
 114:/Users/imashio/Electronics/ARM/_Library/u8x8_d_ssd1329.c ****   U8X8_CA(0x0a0, 0x041),		/* remap */
 115:/Users/imashio/Electronics/ARM/_Library/u8x8_d_ssd1329.c ****   U8X8_END_TRANSFER(),             	/* disable chip */
 116:/Users/imashio/Electronics/ARM/_Library/u8x8_d_ssd1329.c ****   U8X8_END()             			/* end of sequence */
 117:/Users/imashio/Electronics/ARM/_Library/u8x8_d_ssd1329.c **** };
 118:/Users/imashio/Electronics/ARM/_Library/u8x8_d_ssd1329.c **** 
 119:/Users/imashio/Electronics/ARM/_Library/u8x8_d_ssd1329.c **** 
 120:/Users/imashio/Electronics/ARM/_Library/u8x8_d_ssd1329.c **** /*
 121:/Users/imashio/Electronics/ARM/_Library/u8x8_d_ssd1329.c ****   input:
 122:/Users/imashio/Electronics/ARM/_Library/u8x8_d_ssd1329.c ****     one tile (8 Bytes)
 123:/Users/imashio/Electronics/ARM/_Library/u8x8_d_ssd1329.c ****   output:
 124:/Users/imashio/Electronics/ARM/_Library/u8x8_d_ssd1329.c ****     Tile for ssd1329 (32 Bytes)
 125:/Users/imashio/Electronics/ARM/_Library/u8x8_d_ssd1329.c **** */
 126:/Users/imashio/Electronics/ARM/_Library/u8x8_d_ssd1329.c **** 
 127:/Users/imashio/Electronics/ARM/_Library/u8x8_d_ssd1329.c **** static uint8_t u8x8_ssd1329_8to32_dest_buf[32];
 128:/Users/imashio/Electronics/ARM/_Library/u8x8_d_ssd1329.c **** 
 129:/Users/imashio/Electronics/ARM/_Library/u8x8_d_ssd1329.c **** static uint8_t *u8x8_ssd1329_8to32(U8X8_UNUSED u8x8_t *u8x8, uint8_t *ptr)
 130:/Users/imashio/Electronics/ARM/_Library/u8x8_d_ssd1329.c **** {
 131:/Users/imashio/Electronics/ARM/_Library/u8x8_d_ssd1329.c ****   uint8_t v;
 132:/Users/imashio/Electronics/ARM/_Library/u8x8_d_ssd1329.c ****   uint8_t a,b;
 133:/Users/imashio/Electronics/ARM/_Library/u8x8_d_ssd1329.c ****   uint8_t i, j;
 134:/Users/imashio/Electronics/ARM/_Library/u8x8_d_ssd1329.c ****   uint8_t *dest;
 135:/Users/imashio/Electronics/ARM/_Library/u8x8_d_ssd1329.c ****   
 136:/Users/imashio/Electronics/ARM/_Library/u8x8_d_ssd1329.c ****   for( j = 0; j < 4; j++ )
 137:/Users/imashio/Electronics/ARM/_Library/u8x8_d_ssd1329.c ****   {
 138:/Users/imashio/Electronics/ARM/_Library/u8x8_d_ssd1329.c ****     dest = u8x8_ssd1329_8to32_dest_buf;
 139:/Users/imashio/Electronics/ARM/_Library/u8x8_d_ssd1329.c ****     dest += j;
 140:/Users/imashio/Electronics/ARM/_Library/u8x8_d_ssd1329.c ****     a =*ptr;
 141:/Users/imashio/Electronics/ARM/_Library/u8x8_d_ssd1329.c ****     ptr++;
 142:/Users/imashio/Electronics/ARM/_Library/u8x8_d_ssd1329.c ****     b = *ptr;
 143:/Users/imashio/Electronics/ARM/_Library/u8x8_d_ssd1329.c ****     ptr++;
 144:/Users/imashio/Electronics/ARM/_Library/u8x8_d_ssd1329.c ****     for( i = 0; i < 8; i++ )
ARM GAS  /var/folders/v3/wysfpd052nz8jkbx04pk0ym80000gn/T//ccwccXsI.s 			page 4


 145:/Users/imashio/Electronics/ARM/_Library/u8x8_d_ssd1329.c ****     {
 146:/Users/imashio/Electronics/ARM/_Library/u8x8_d_ssd1329.c ****       v = 0;
 147:/Users/imashio/Electronics/ARM/_Library/u8x8_d_ssd1329.c ****       if ( a&1 ) v |= 0xf0;
 148:/Users/imashio/Electronics/ARM/_Library/u8x8_d_ssd1329.c ****       if ( b&1 ) v |= 0x0f;
 149:/Users/imashio/Electronics/ARM/_Library/u8x8_d_ssd1329.c ****       *dest = v;
 150:/Users/imashio/Electronics/ARM/_Library/u8x8_d_ssd1329.c ****       dest+=4;
 151:/Users/imashio/Electronics/ARM/_Library/u8x8_d_ssd1329.c ****       a >>= 1;
 152:/Users/imashio/Electronics/ARM/_Library/u8x8_d_ssd1329.c ****       b >>= 1;
 153:/Users/imashio/Electronics/ARM/_Library/u8x8_d_ssd1329.c ****     }
 154:/Users/imashio/Electronics/ARM/_Library/u8x8_d_ssd1329.c ****   }
 155:/Users/imashio/Electronics/ARM/_Library/u8x8_d_ssd1329.c ****   
 156:/Users/imashio/Electronics/ARM/_Library/u8x8_d_ssd1329.c ****   return u8x8_ssd1329_8to32_dest_buf;
 157:/Users/imashio/Electronics/ARM/_Library/u8x8_d_ssd1329.c **** }
 158:/Users/imashio/Electronics/ARM/_Library/u8x8_d_ssd1329.c **** 
 159:/Users/imashio/Electronics/ARM/_Library/u8x8_d_ssd1329.c **** 
 160:/Users/imashio/Electronics/ARM/_Library/u8x8_d_ssd1329.c **** 
 161:/Users/imashio/Electronics/ARM/_Library/u8x8_d_ssd1329.c **** 
 162:/Users/imashio/Electronics/ARM/_Library/u8x8_d_ssd1329.c **** static uint8_t u8x8_d_ssd1329_128x96_generic(u8x8_t *u8x8, uint8_t msg, uint8_t arg_int, void *arg_
 163:/Users/imashio/Electronics/ARM/_Library/u8x8_d_ssd1329.c **** {
 164:/Users/imashio/Electronics/ARM/_Library/u8x8_d_ssd1329.c ****   uint8_t x, y, c;
 165:/Users/imashio/Electronics/ARM/_Library/u8x8_d_ssd1329.c ****   uint8_t *ptr;
 166:/Users/imashio/Electronics/ARM/_Library/u8x8_d_ssd1329.c ****   switch(msg)
 167:/Users/imashio/Electronics/ARM/_Library/u8x8_d_ssd1329.c ****   {
 168:/Users/imashio/Electronics/ARM/_Library/u8x8_d_ssd1329.c ****     /* handled by the calling function
 169:/Users/imashio/Electronics/ARM/_Library/u8x8_d_ssd1329.c ****     case U8X8_MSG_DISPLAY_SETUP_MEMORY:
 170:/Users/imashio/Electronics/ARM/_Library/u8x8_d_ssd1329.c ****       u8x8_d_helper_display_setup_memory(u8x8, &u8x8_ssd1329_128x96_nhd_display_info);
 171:/Users/imashio/Electronics/ARM/_Library/u8x8_d_ssd1329.c ****       break;
 172:/Users/imashio/Electronics/ARM/_Library/u8x8_d_ssd1329.c ****     */
 173:/Users/imashio/Electronics/ARM/_Library/u8x8_d_ssd1329.c ****     case U8X8_MSG_DISPLAY_INIT:
 174:/Users/imashio/Electronics/ARM/_Library/u8x8_d_ssd1329.c ****       u8x8_d_helper_display_init(u8x8);
 175:/Users/imashio/Electronics/ARM/_Library/u8x8_d_ssd1329.c ****       u8x8_cad_SendSequence(u8x8, u8x8_d_ssd1329_128x96_noname_init_seq);    
 176:/Users/imashio/Electronics/ARM/_Library/u8x8_d_ssd1329.c ****       break;
 177:/Users/imashio/Electronics/ARM/_Library/u8x8_d_ssd1329.c ****     case U8X8_MSG_DISPLAY_SET_POWER_SAVE:
 178:/Users/imashio/Electronics/ARM/_Library/u8x8_d_ssd1329.c ****       if ( arg_int == 0 )
 179:/Users/imashio/Electronics/ARM/_Library/u8x8_d_ssd1329.c **** 	u8x8_cad_SendSequence(u8x8, u8x8_d_ssd1329_128x96_nhd_powersave0_seq);
 180:/Users/imashio/Electronics/ARM/_Library/u8x8_d_ssd1329.c ****       else
 181:/Users/imashio/Electronics/ARM/_Library/u8x8_d_ssd1329.c **** 	u8x8_cad_SendSequence(u8x8, u8x8_d_ssd1329_128x96_nhd_powersave1_seq);
 182:/Users/imashio/Electronics/ARM/_Library/u8x8_d_ssd1329.c ****       break;
 183:/Users/imashio/Electronics/ARM/_Library/u8x8_d_ssd1329.c ****     case U8X8_MSG_DISPLAY_SET_FLIP_MODE:
 184:/Users/imashio/Electronics/ARM/_Library/u8x8_d_ssd1329.c ****       if ( arg_int == 0 )
 185:/Users/imashio/Electronics/ARM/_Library/u8x8_d_ssd1329.c ****       {
 186:/Users/imashio/Electronics/ARM/_Library/u8x8_d_ssd1329.c **** 	u8x8_cad_SendSequence(u8x8, u8x8_d_ssd1329_128x96_nhd_flip0_seq);
 187:/Users/imashio/Electronics/ARM/_Library/u8x8_d_ssd1329.c **** 	u8x8->x_offset = u8x8->display_info->default_x_offset;
 188:/Users/imashio/Electronics/ARM/_Library/u8x8_d_ssd1329.c ****       }
 189:/Users/imashio/Electronics/ARM/_Library/u8x8_d_ssd1329.c ****       else
 190:/Users/imashio/Electronics/ARM/_Library/u8x8_d_ssd1329.c ****       {
 191:/Users/imashio/Electronics/ARM/_Library/u8x8_d_ssd1329.c **** 	u8x8_cad_SendSequence(u8x8, u8x8_d_ssd1329_128x96_nhd_flip1_seq);
 192:/Users/imashio/Electronics/ARM/_Library/u8x8_d_ssd1329.c **** 	u8x8->x_offset = u8x8->display_info->flipmode_x_offset;
 193:/Users/imashio/Electronics/ARM/_Library/u8x8_d_ssd1329.c ****       }
 194:/Users/imashio/Electronics/ARM/_Library/u8x8_d_ssd1329.c ****       break;
 195:/Users/imashio/Electronics/ARM/_Library/u8x8_d_ssd1329.c **** #ifdef U8X8_WITH_SET_CONTRAST
 196:/Users/imashio/Electronics/ARM/_Library/u8x8_d_ssd1329.c ****     case U8X8_MSG_DISPLAY_SET_CONTRAST:
 197:/Users/imashio/Electronics/ARM/_Library/u8x8_d_ssd1329.c ****       u8x8_cad_StartTransfer(u8x8);
 198:/Users/imashio/Electronics/ARM/_Library/u8x8_d_ssd1329.c ****       u8x8_cad_SendCmd(u8x8, 0x081 );
 199:/Users/imashio/Electronics/ARM/_Library/u8x8_d_ssd1329.c ****       u8x8_cad_SendArg(u8x8, arg_int );	/* ssd1329 has range from 0 to 255 */
 200:/Users/imashio/Electronics/ARM/_Library/u8x8_d_ssd1329.c ****       u8x8_cad_EndTransfer(u8x8);
 201:/Users/imashio/Electronics/ARM/_Library/u8x8_d_ssd1329.c ****       break;
ARM GAS  /var/folders/v3/wysfpd052nz8jkbx04pk0ym80000gn/T//ccwccXsI.s 			page 5


 202:/Users/imashio/Electronics/ARM/_Library/u8x8_d_ssd1329.c **** #endif
 203:/Users/imashio/Electronics/ARM/_Library/u8x8_d_ssd1329.c ****     case U8X8_MSG_DISPLAY_DRAW_TILE:
 204:/Users/imashio/Electronics/ARM/_Library/u8x8_d_ssd1329.c ****       u8x8_cad_StartTransfer(u8x8);
 205:/Users/imashio/Electronics/ARM/_Library/u8x8_d_ssd1329.c ****       x = ((u8x8_tile_t *)arg_ptr)->x_pos;
 206:/Users/imashio/Electronics/ARM/_Library/u8x8_d_ssd1329.c ****       x *= 4;
 207:/Users/imashio/Electronics/ARM/_Library/u8x8_d_ssd1329.c ****       
 208:/Users/imashio/Electronics/ARM/_Library/u8x8_d_ssd1329.c ****       y = (((u8x8_tile_t *)arg_ptr)->y_pos);
 209:/Users/imashio/Electronics/ARM/_Library/u8x8_d_ssd1329.c ****       
 210:/Users/imashio/Electronics/ARM/_Library/u8x8_d_ssd1329.c ****       y *= 8;
 211:/Users/imashio/Electronics/ARM/_Library/u8x8_d_ssd1329.c ****       y += u8x8->x_offset;		/* x_offset is used as y offset for the ssd1329 */
 212:/Users/imashio/Electronics/ARM/_Library/u8x8_d_ssd1329.c ****     
 213:/Users/imashio/Electronics/ARM/_Library/u8x8_d_ssd1329.c ****       
 214:/Users/imashio/Electronics/ARM/_Library/u8x8_d_ssd1329.c ****       do
 215:/Users/imashio/Electronics/ARM/_Library/u8x8_d_ssd1329.c ****       {
 216:/Users/imashio/Electronics/ARM/_Library/u8x8_d_ssd1329.c **** 	c = ((u8x8_tile_t *)arg_ptr)->cnt;
 217:/Users/imashio/Electronics/ARM/_Library/u8x8_d_ssd1329.c **** 	ptr = ((u8x8_tile_t *)arg_ptr)->tile_ptr;
 218:/Users/imashio/Electronics/ARM/_Library/u8x8_d_ssd1329.c **** 
 219:/Users/imashio/Electronics/ARM/_Library/u8x8_d_ssd1329.c **** 	do
 220:/Users/imashio/Electronics/ARM/_Library/u8x8_d_ssd1329.c **** 	{
 221:/Users/imashio/Electronics/ARM/_Library/u8x8_d_ssd1329.c **** 	  if ( ptr[0] | ptr[1] | ptr[2] | ptr[3] | ptr[4] | ptr[5] | ptr[6] | ptr[7] )
 222:/Users/imashio/Electronics/ARM/_Library/u8x8_d_ssd1329.c **** 	  {
 223:/Users/imashio/Electronics/ARM/_Library/u8x8_d_ssd1329.c **** 	    /* draw the tile if pattern is not zero for all bytes */
 224:/Users/imashio/Electronics/ARM/_Library/u8x8_d_ssd1329.c **** 	    u8x8_cad_SendCmd(u8x8, 0x015 );	/* set column address */
 225:/Users/imashio/Electronics/ARM/_Library/u8x8_d_ssd1329.c **** 	    u8x8_cad_SendArg(u8x8, x );	/* start */
 226:/Users/imashio/Electronics/ARM/_Library/u8x8_d_ssd1329.c **** 	    u8x8_cad_SendArg(u8x8, x+3 );	/* end */
 227:/Users/imashio/Electronics/ARM/_Library/u8x8_d_ssd1329.c **** 
 228:/Users/imashio/Electronics/ARM/_Library/u8x8_d_ssd1329.c **** 	    u8x8_cad_SendCmd(u8x8, 0x075 );	/* set row address */
 229:/Users/imashio/Electronics/ARM/_Library/u8x8_d_ssd1329.c **** 	    u8x8_cad_SendArg(u8x8, y);
 230:/Users/imashio/Electronics/ARM/_Library/u8x8_d_ssd1329.c **** 	    u8x8_cad_SendArg(u8x8, y+7);
 231:/Users/imashio/Electronics/ARM/_Library/u8x8_d_ssd1329.c **** 	    
 232:/Users/imashio/Electronics/ARM/_Library/u8x8_d_ssd1329.c **** 	    
 233:/Users/imashio/Electronics/ARM/_Library/u8x8_d_ssd1329.c **** 	    u8x8_cad_SendData(u8x8, 32, u8x8_ssd1329_8to32(u8x8, ptr));
 234:/Users/imashio/Electronics/ARM/_Library/u8x8_d_ssd1329.c **** 	  }
 235:/Users/imashio/Electronics/ARM/_Library/u8x8_d_ssd1329.c **** 	  else
 236:/Users/imashio/Electronics/ARM/_Library/u8x8_d_ssd1329.c **** 	  {
 237:/Users/imashio/Electronics/ARM/_Library/u8x8_d_ssd1329.c **** 	    /* tile is empty, use the graphics acceleration command */
 238:/Users/imashio/Electronics/ARM/_Library/u8x8_d_ssd1329.c **** 	    /* are this really available on the SSD1329??? */
 239:/Users/imashio/Electronics/ARM/_Library/u8x8_d_ssd1329.c **** 	    u8x8_cad_SendCmd(u8x8, 0x024 );	// draw rectangle
 240:/Users/imashio/Electronics/ARM/_Library/u8x8_d_ssd1329.c **** 	    u8x8_cad_SendArg(u8x8, x );	
 241:/Users/imashio/Electronics/ARM/_Library/u8x8_d_ssd1329.c **** 	    u8x8_cad_SendArg(u8x8, y );	
 242:/Users/imashio/Electronics/ARM/_Library/u8x8_d_ssd1329.c **** 	    u8x8_cad_SendArg(u8x8, x+3 );	
 243:/Users/imashio/Electronics/ARM/_Library/u8x8_d_ssd1329.c **** 	    u8x8_cad_SendArg(u8x8, y+7 );	
 244:/Users/imashio/Electronics/ARM/_Library/u8x8_d_ssd1329.c **** 	    u8x8_cad_SendArg(u8x8, 0 );	// clear	    
 245:/Users/imashio/Electronics/ARM/_Library/u8x8_d_ssd1329.c **** 	  }
 246:/Users/imashio/Electronics/ARM/_Library/u8x8_d_ssd1329.c **** 	  ptr += 8;
 247:/Users/imashio/Electronics/ARM/_Library/u8x8_d_ssd1329.c **** 	  x += 4;
 248:/Users/imashio/Electronics/ARM/_Library/u8x8_d_ssd1329.c **** 	  c--;
 249:/Users/imashio/Electronics/ARM/_Library/u8x8_d_ssd1329.c **** 	} while( c > 0 );
 250:/Users/imashio/Electronics/ARM/_Library/u8x8_d_ssd1329.c **** 	
 251:/Users/imashio/Electronics/ARM/_Library/u8x8_d_ssd1329.c **** 	//x += 4;
 252:/Users/imashio/Electronics/ARM/_Library/u8x8_d_ssd1329.c **** 	arg_int--;
 253:/Users/imashio/Electronics/ARM/_Library/u8x8_d_ssd1329.c ****       } while( arg_int > 0 );
 254:/Users/imashio/Electronics/ARM/_Library/u8x8_d_ssd1329.c ****       
 255:/Users/imashio/Electronics/ARM/_Library/u8x8_d_ssd1329.c ****       u8x8_cad_EndTransfer(u8x8);
 256:/Users/imashio/Electronics/ARM/_Library/u8x8_d_ssd1329.c ****       break;
 257:/Users/imashio/Electronics/ARM/_Library/u8x8_d_ssd1329.c ****     default:
 258:/Users/imashio/Electronics/ARM/_Library/u8x8_d_ssd1329.c ****       return 0;
ARM GAS  /var/folders/v3/wysfpd052nz8jkbx04pk0ym80000gn/T//ccwccXsI.s 			page 6


 259:/Users/imashio/Electronics/ARM/_Library/u8x8_d_ssd1329.c ****   }
 260:/Users/imashio/Electronics/ARM/_Library/u8x8_d_ssd1329.c ****   return 1;
 261:/Users/imashio/Electronics/ARM/_Library/u8x8_d_ssd1329.c **** }
 262:/Users/imashio/Electronics/ARM/_Library/u8x8_d_ssd1329.c **** 
 263:/Users/imashio/Electronics/ARM/_Library/u8x8_d_ssd1329.c **** 
 264:/Users/imashio/Electronics/ARM/_Library/u8x8_d_ssd1329.c **** static const u8x8_display_info_t u8x8_ssd1329_128x96_display_info =
 265:/Users/imashio/Electronics/ARM/_Library/u8x8_d_ssd1329.c **** {
 266:/Users/imashio/Electronics/ARM/_Library/u8x8_d_ssd1329.c ****   /* chip_enable_level = */ 0,
 267:/Users/imashio/Electronics/ARM/_Library/u8x8_d_ssd1329.c ****   /* chip_disable_level = */ 1,
 268:/Users/imashio/Electronics/ARM/_Library/u8x8_d_ssd1329.c ****   
 269:/Users/imashio/Electronics/ARM/_Library/u8x8_d_ssd1329.c ****   /* post_chip_enable_wait_ns = */ 20,
 270:/Users/imashio/Electronics/ARM/_Library/u8x8_d_ssd1329.c ****   /* pre_chip_disable_wait_ns = */ 15,
 271:/Users/imashio/Electronics/ARM/_Library/u8x8_d_ssd1329.c ****   /* reset_pulse_width_ms = */ 100, 	
 272:/Users/imashio/Electronics/ARM/_Library/u8x8_d_ssd1329.c ****   /* post_reset_wait_ms = */ 100, 		/**/
 273:/Users/imashio/Electronics/ARM/_Library/u8x8_d_ssd1329.c ****   /* sda_setup_time_ns = */ 100,		/* ssd1329  */
 274:/Users/imashio/Electronics/ARM/_Library/u8x8_d_ssd1329.c ****   /* sck_pulse_width_ns = */ 100,	/* ssd1329  */
 275:/Users/imashio/Electronics/ARM/_Library/u8x8_d_ssd1329.c ****   /* sck_clock_hz = */ 4000000UL,	/* since Arduino 1.6.0, the SPI bus speed in Hz. Should be  10000
 276:/Users/imashio/Electronics/ARM/_Library/u8x8_d_ssd1329.c ****   /* spi_mode = */ 0,		/* active high, rising edge */
 277:/Users/imashio/Electronics/ARM/_Library/u8x8_d_ssd1329.c ****   /* i2c_bus_clock_100kHz = */ 4,
 278:/Users/imashio/Electronics/ARM/_Library/u8x8_d_ssd1329.c ****   /* data_setup_time_ns = */ 40,
 279:/Users/imashio/Electronics/ARM/_Library/u8x8_d_ssd1329.c ****   /* write_pulse_width_ns = */ 60,	/* ssd1329 */
 280:/Users/imashio/Electronics/ARM/_Library/u8x8_d_ssd1329.c ****   /* tile_width = */ 16,
 281:/Users/imashio/Electronics/ARM/_Library/u8x8_d_ssd1329.c ****   /* tile_hight = */ 12,
 282:/Users/imashio/Electronics/ARM/_Library/u8x8_d_ssd1329.c ****   /* default_x_offset = */ 0,		/* x_offset is used as y offset for the ssd1329 */
 283:/Users/imashio/Electronics/ARM/_Library/u8x8_d_ssd1329.c ****   /* flipmode_x_offset = */ 0,		/* x_offset is used as y offset for the ssd1329 */
 284:/Users/imashio/Electronics/ARM/_Library/u8x8_d_ssd1329.c ****   /* pixel_width = */ 128,
 285:/Users/imashio/Electronics/ARM/_Library/u8x8_d_ssd1329.c ****   /* pixel_height = */ 96
 286:/Users/imashio/Electronics/ARM/_Library/u8x8_d_ssd1329.c **** };
 287:/Users/imashio/Electronics/ARM/_Library/u8x8_d_ssd1329.c **** 
 288:/Users/imashio/Electronics/ARM/_Library/u8x8_d_ssd1329.c **** uint8_t u8x8_d_ssd1329_128x96_noname(u8x8_t *u8x8, uint8_t msg, uint8_t arg_int, void *arg_ptr)
 289:/Users/imashio/Electronics/ARM/_Library/u8x8_d_ssd1329.c **** {
  29              		.loc 1 289 0
  30              		.cfi_startproc
  31              		@ args = 0, pretend = 0, frame = 16
  32              		@ frame_needed = 0, uses_anonymous_args = 0
  33              	.LVL0:
  34 0000 2DE9F04F 		push	{r4, r5, r6, r7, r8, r9, r10, fp, lr}
  35              	.LCFI0:
  36              		.cfi_def_cfa_offset 36
  37              		.cfi_offset 4, -36
  38              		.cfi_offset 5, -32
  39              		.cfi_offset 6, -28
  40              		.cfi_offset 7, -24
  41              		.cfi_offset 8, -20
  42              		.cfi_offset 9, -16
  43              		.cfi_offset 10, -12
  44              		.cfi_offset 11, -8
  45              		.cfi_offset 14, -4
  46 0004 85B0     		sub	sp, sp, #20
  47              	.LCFI1:
  48              		.cfi_def_cfa_offset 56
 290:/Users/imashio/Electronics/ARM/_Library/u8x8_d_ssd1329.c ****     if ( msg == U8X8_MSG_DISPLAY_SETUP_MEMORY )
  49              		.loc 1 290 0
  50 0006 0929     		cmp	r1, #9
 289:/Users/imashio/Electronics/ARM/_Library/u8x8_d_ssd1329.c ****     if ( msg == U8X8_MSG_DISPLAY_SETUP_MEMORY )
  51              		.loc 1 289 0
  52 0008 0092     		str	r2, [sp]
ARM GAS  /var/folders/v3/wysfpd052nz8jkbx04pk0ym80000gn/T//ccwccXsI.s 			page 7


  53 000a 0293     		str	r3, [sp, #8]
  54              		.loc 1 290 0
  55 000c 09D0     		beq	.L31
  56              	.LBB6:
  57              	.LBB7:
 166:/Users/imashio/Electronics/ARM/_Library/u8x8_d_ssd1329.c ****   {
  58              		.loc 1 166 0
  59 000e 0A39     		subs	r1, r1, #10
  60              	.LVL1:
  61 0010 0446     		mov	r4, r0
  62              	.LVL2:
  63 0012 0529     		cmp	r1, #5
  64 0014 00F2CF80 		bhi	.L20
  65 0018 DFE801F0 		tbb	[pc, r1]
  66              	.LVL3:
  67              	.L5:
  68 001c A0       		.byte	(.L4-.L5)/2
  69 001d AA       		.byte	(.L6-.L5)/2
  70 001e CD       		.byte	(.L20-.L5)/2
  71 001f B2       		.byte	(.L7-.L5)/2
  72 0020 BC       		.byte	(.L8-.L5)/2
  73 0021 0A       		.byte	(.L9-.L5)/2
  74              		.p2align 1
  75              	.L31:
  76              	.LBE7:
  77              	.LBE6:
 291:/Users/imashio/Electronics/ARM/_Library/u8x8_d_ssd1329.c ****     {
 292:/Users/imashio/Electronics/ARM/_Library/u8x8_d_ssd1329.c ****       u8x8_d_helper_display_setup_memory(u8x8, &u8x8_ssd1329_128x96_display_info);
  78              		.loc 1 292 0
  79 0022 7949     		ldr	r1, .L32
  80              	.LVL4:
  81 0024 FFF7FEFF 		bl	u8x8_d_helper_display_setup_memory
  82              	.LVL5:
 293:/Users/imashio/Electronics/ARM/_Library/u8x8_d_ssd1329.c ****       return 1;
  83              		.loc 1 293 0
  84 0028 0120     		movs	r0, #1
  85              	.L3:
 294:/Users/imashio/Electronics/ARM/_Library/u8x8_d_ssd1329.c ****     }
 295:/Users/imashio/Electronics/ARM/_Library/u8x8_d_ssd1329.c ****     return u8x8_d_ssd1329_128x96_generic(u8x8, msg, arg_int, arg_ptr);
 296:/Users/imashio/Electronics/ARM/_Library/u8x8_d_ssd1329.c **** }
  86              		.loc 1 296 0
  87 002a 05B0     		add	sp, sp, #20
  88              	.LCFI2:
  89              		.cfi_remember_state
  90              		.cfi_def_cfa_offset 36
  91              		@ sp needed
  92 002c BDE8F08F 		pop	{r4, r5, r6, r7, r8, r9, r10, fp, pc}
  93              	.LVL6:
  94              	.L9:
  95              	.LCFI3:
  96              		.cfi_restore_state
  97              	.LBB14:
  98              	.LBB10:
 204:/Users/imashio/Electronics/ARM/_Library/u8x8_d_ssd1329.c ****       x = ((u8x8_tile_t *)arg_ptr)->x_pos;
  99              		.loc 1 204 0
 100 0030 FFF7FEFF 		bl	u8x8_cad_StartTransfer
 101              	.LVL7:
ARM GAS  /var/folders/v3/wysfpd052nz8jkbx04pk0ym80000gn/T//ccwccXsI.s 			page 8


 208:/Users/imashio/Electronics/ARM/_Library/u8x8_d_ssd1329.c ****       
 102              		.loc 1 208 0
 103 0034 029B     		ldr	r3, [sp, #8]
 211:/Users/imashio/Electronics/ARM/_Library/u8x8_d_ssd1329.c ****     
 104              		.loc 1 211 0
 105 0036 A77F     		ldrb	r7, [r4, #30]	@ zero_extendqisi2
 208:/Users/imashio/Electronics/ARM/_Library/u8x8_d_ssd1329.c ****       
 106              		.loc 1 208 0
 107 0038 9A79     		ldrb	r2, [r3, #6]	@ zero_extendqisi2
 205:/Users/imashio/Electronics/ARM/_Library/u8x8_d_ssd1329.c ****       x *= 4;
 108              		.loc 1 205 0
 109 003a 5B79     		ldrb	r3, [r3, #5]	@ zero_extendqisi2
 110              	.LVL8:
 211:/Users/imashio/Electronics/ARM/_Library/u8x8_d_ssd1329.c ****     
 111              		.loc 1 211 0
 112 003c 07EBC207 		add	r7, r7, r2, lsl #3
 113 0040 07F0FF07 		and	r7, r7, #255
 206:/Users/imashio/Electronics/ARM/_Library/u8x8_d_ssd1329.c ****       
 114              		.loc 1 206 0
 115 0044 9B00     		lsls	r3, r3, #2
 116              	.LVL9:
 117 0046 07F10708 		add	r8, r7, #7
 118 004a DBB2     		uxtb	r3, r3
 119 004c 5FFA88F8 		uxtb	r8, r8
 120 0050 0193     		str	r3, [sp, #4]
 121              	.LVL10:
 122              	.L19:
 216:/Users/imashio/Electronics/ARM/_Library/u8x8_d_ssd1329.c **** 	ptr = ((u8x8_tile_t *)arg_ptr)->tile_ptr;
 123              		.loc 1 216 0
 124 0052 029B     		ldr	r3, [sp, #8]
 217:/Users/imashio/Electronics/ARM/_Library/u8x8_d_ssd1329.c **** 
 125              		.loc 1 217 0
 126 0054 019D     		ldr	r5, [sp, #4]
 216:/Users/imashio/Electronics/ARM/_Library/u8x8_d_ssd1329.c **** 	ptr = ((u8x8_tile_t *)arg_ptr)->tile_ptr;
 127              		.loc 1 216 0
 128 0056 1A79     		ldrb	r2, [r3, #4]	@ zero_extendqisi2
 129 0058 1B68     		ldr	r3, [r3]
 130 005a 0392     		str	r2, [sp, #12]
 131              	.LVL11:
 132 005c 561E     		subs	r6, r2, #1
 133 005e F6B2     		uxtb	r6, r6
 134 0060 03F11202 		add	r2, r3, #18
 135              	.LVL12:
 136 0064 0821     		movs	r1, #8
 137 0066 11FB0626 		smlabb	r6, r1, r6, r2
 138 006a 03F10A0B 		add	fp, r3, #10
 139              	.LVL13:
 140              	.L18:
 221:/Users/imashio/Electronics/ARM/_Library/u8x8_d_ssd1329.c **** 	  {
 141              		.loc 1 221 0
 142 006e 1BF8091C 		ldrb	r1, [fp, #-9]	@ zero_extendqisi2
 143 0072 1BF80A3C 		ldrb	r3, [fp, #-10]	@ zero_extendqisi2
 144 0076 1BF8082C 		ldrb	r2, [fp, #-8]	@ zero_extendqisi2
 145 007a 1BF8070C 		ldrb	r0, [fp, #-7]	@ zero_extendqisi2
 146 007e 1BF8039C 		ldrb	r9, [fp, #-3]	@ zero_extendqisi2
 147 0082 0B43     		orrs	r3, r3, r1
 148 0084 1343     		orrs	r3, r3, r2
ARM GAS  /var/folders/v3/wysfpd052nz8jkbx04pk0ym80000gn/T//ccwccXsI.s 			page 9


 149 0086 1BF8062C 		ldrb	r2, [fp, #-6]	@ zero_extendqisi2
 150 008a 1BF8051C 		ldrb	r1, [fp, #-5]	@ zero_extendqisi2
 151 008e 0343     		orrs	r3, r3, r0
 152 0090 1343     		orrs	r3, r3, r2
 153 0092 1BF8042C 		ldrb	r2, [fp, #-4]	@ zero_extendqisi2
 154 0096 0B43     		orrs	r3, r3, r1
 155 0098 1343     		orrs	r3, r3, r2
 156 009a E91C     		adds	r1, r5, #3
 157 009c 53EA0909 		orrs	r9, r3, r9
 158 00a0 5FFA81FA 		uxtb	r10, r1
 159 00a4 00F08980 		beq	.L12
 224:/Users/imashio/Electronics/ARM/_Library/u8x8_d_ssd1329.c **** 	    u8x8_cad_SendArg(u8x8, x );	/* start */
 160              		.loc 1 224 0
 161 00a8 1521     		movs	r1, #21
 162 00aa 2046     		mov	r0, r4
 163 00ac FFF7FEFF 		bl	u8x8_cad_SendCmd
 164              	.LVL14:
 225:/Users/imashio/Electronics/ARM/_Library/u8x8_d_ssd1329.c **** 	    u8x8_cad_SendArg(u8x8, x+3 );	/* end */
 165              		.loc 1 225 0
 166 00b0 2946     		mov	r1, r5
 167 00b2 2046     		mov	r0, r4
 168 00b4 FFF7FEFF 		bl	u8x8_cad_SendArg
 169              	.LVL15:
 226:/Users/imashio/Electronics/ARM/_Library/u8x8_d_ssd1329.c **** 
 170              		.loc 1 226 0
 171 00b8 5146     		mov	r1, r10
 172 00ba 2046     		mov	r0, r4
 173 00bc FFF7FEFF 		bl	u8x8_cad_SendArg
 174              	.LVL16:
 228:/Users/imashio/Electronics/ARM/_Library/u8x8_d_ssd1329.c **** 	    u8x8_cad_SendArg(u8x8, y);
 175              		.loc 1 228 0
 176 00c0 7521     		movs	r1, #117
 177 00c2 2046     		mov	r0, r4
 178 00c4 FFF7FEFF 		bl	u8x8_cad_SendCmd
 179              	.LVL17:
 229:/Users/imashio/Electronics/ARM/_Library/u8x8_d_ssd1329.c **** 	    u8x8_cad_SendArg(u8x8, y+7);
 180              		.loc 1 229 0
 181 00c8 3946     		mov	r1, r7
 182 00ca 2046     		mov	r0, r4
 183 00cc FFF7FEFF 		bl	u8x8_cad_SendArg
 184              	.LVL18:
 230:/Users/imashio/Electronics/ARM/_Library/u8x8_d_ssd1329.c **** 	    
 185              		.loc 1 230 0
 186 00d0 4146     		mov	r1, r8
 187 00d2 2046     		mov	r0, r4
 188 00d4 FFF7FEFF 		bl	u8x8_cad_SendArg
 189              	.LVL19:
 190 00d8 DFF848C1 		ldr	ip, .L32+28
 191 00dc ABF1080E 		sub	lr, fp, #8
 192              	.LVL20:
 193              	.L16:
 194              	.LBB8:
 195              	.LBB9:
 140:/Users/imashio/Electronics/ARM/_Library/u8x8_d_ssd1329.c ****     ptr++;
 196              		.loc 1 140 0
 197 00e0 1EF8021C 		ldrb	r1, [lr, #-2]	@ zero_extendqisi2
 198              	.LVL21:
ARM GAS  /var/folders/v3/wysfpd052nz8jkbx04pk0ym80000gn/T//ccwccXsI.s 			page 10


 142:/Users/imashio/Electronics/ARM/_Library/u8x8_d_ssd1329.c ****     ptr++;
 199              		.loc 1 142 0
 200 00e4 1EF8012C 		ldrb	r2, [lr, #-1]	@ zero_extendqisi2
 201              	.LVL22:
 202 00e8 ACF12003 		sub	r3, ip, #32
 203              	.LVL23:
 204              	.L15:
 146:/Users/imashio/Electronics/ARM/_Library/u8x8_d_ssd1329.c ****       if ( a&1 ) v |= 0xf0;
 205              		.loc 1 146 0
 206 00ec 11F0010F 		tst	r1, #1
 207 00f0 14BF     		ite	ne
 208 00f2 F020     		movne	r0, #240
 209 00f4 0020     		moveq	r0, #0
 210              	.LVL24:
 148:/Users/imashio/Electronics/ARM/_Library/u8x8_d_ssd1329.c ****       *dest = v;
 211              		.loc 1 148 0
 212 00f6 12F0010F 		tst	r2, #1
 213 00fa 18BF     		it	ne
 214 00fc 40F00F00 		orrne	r0, r0, #15
 215              	.LVL25:
 149:/Users/imashio/Electronics/ARM/_Library/u8x8_d_ssd1329.c ****       dest+=4;
 216              		.loc 1 149 0
 217 0100 03F8040C 		strb	r0, [r3, #-4]
 218              	.LVL26:
 219 0104 0433     		adds	r3, r3, #4
 220              	.LVL27:
 144:/Users/imashio/Electronics/ARM/_Library/u8x8_d_ssd1329.c ****     {
 221              		.loc 1 144 0
 222 0106 9C45     		cmp	ip, r3
 151:/Users/imashio/Electronics/ARM/_Library/u8x8_d_ssd1329.c ****       b >>= 1;
 223              		.loc 1 151 0
 224 0108 4FEA5101 		lsr	r1, r1, #1
 225              	.LVL28:
 152:/Users/imashio/Electronics/ARM/_Library/u8x8_d_ssd1329.c ****     }
 226              		.loc 1 152 0
 227 010c 4FEA5202 		lsr	r2, r2, #1
 228              	.LVL29:
 144:/Users/imashio/Electronics/ARM/_Library/u8x8_d_ssd1329.c ****     {
 229              		.loc 1 144 0
 230 0110 ECD1     		bne	.L15
 231              	.LVL30:
 232 0112 0EF1020E 		add	lr, lr, #2
 233              	.LVL31:
 136:/Users/imashio/Electronics/ARM/_Library/u8x8_d_ssd1329.c ****   {
 234              		.loc 1 136 0
 235 0116 F345     		cmp	fp, lr
 236 0118 0CF1010C 		add	ip, ip, #1
 237              	.LVL32:
 238 011c E0D1     		bne	.L16
 239              	.LVL33:
 240              	.LBE9:
 241              	.LBE8:
 233:/Users/imashio/Electronics/ARM/_Library/u8x8_d_ssd1329.c **** 	  }
 242              		.loc 1 233 0
 243 011e 3B4A     		ldr	r2, .L32+4
 244 0120 2021     		movs	r1, #32
 245 0122 2046     		mov	r0, r4
ARM GAS  /var/folders/v3/wysfpd052nz8jkbx04pk0ym80000gn/T//ccwccXsI.s 			page 11


 246 0124 FFF7FEFF 		bl	u8x8_cad_SendData
 247              	.LVL34:
 248              	.L17:
 249 0128 0BF1080B 		add	fp, fp, #8
 250              	.LVL35:
 247:/Users/imashio/Electronics/ARM/_Library/u8x8_d_ssd1329.c **** 	  c--;
 251              		.loc 1 247 0
 252 012c 0435     		adds	r5, r5, #4
 253              	.LVL36:
 249:/Users/imashio/Electronics/ARM/_Library/u8x8_d_ssd1329.c **** 	
 254              		.loc 1 249 0
 255 012e 5E45     		cmp	r6, fp
 247:/Users/imashio/Electronics/ARM/_Library/u8x8_d_ssd1329.c **** 	  c--;
 256              		.loc 1 247 0
 257 0130 EDB2     		uxtb	r5, r5
 258              	.LVL37:
 249:/Users/imashio/Electronics/ARM/_Library/u8x8_d_ssd1329.c **** 	
 259              		.loc 1 249 0
 260 0132 9CD1     		bne	.L18
 261 0134 019B     		ldr	r3, [sp, #4]
 262 0136 039A     		ldr	r2, [sp, #12]
 263 0138 03EB8209 		add	r9, r3, r2, lsl #2
 252:/Users/imashio/Electronics/ARM/_Library/u8x8_d_ssd1329.c ****       } while( arg_int > 0 );
 264              		.loc 1 252 0
 265 013c 009B     		ldr	r3, [sp]
 266 013e 013B     		subs	r3, r3, #1
 267              	.LVL38:
 268 0140 5FFA89F2 		uxtb	r2, r9
 253:/Users/imashio/Electronics/ARM/_Library/u8x8_d_ssd1329.c ****       
 269              		.loc 1 253 0
 270 0144 13F0FF03 		ands	r3, r3, #255
 271              	.LVL39:
 272 0148 0192     		str	r2, [sp, #4]
 273 014a 0093     		str	r3, [sp]
 274              	.LVL40:
 275 014c 81D1     		bne	.L19
 255:/Users/imashio/Electronics/ARM/_Library/u8x8_d_ssd1329.c ****       break;
 276              		.loc 1 255 0
 277 014e 2046     		mov	r0, r4
 278 0150 FFF7FEFF 		bl	u8x8_cad_EndTransfer
 279              	.LVL41:
 260:/Users/imashio/Electronics/ARM/_Library/u8x8_d_ssd1329.c **** }
 280              		.loc 1 260 0
 281 0154 0120     		movs	r0, #1
 282              	.LBE10:
 283              	.LBE14:
 284              		.loc 1 296 0
 285 0156 05B0     		add	sp, sp, #20
 286              	.LCFI4:
 287              		.cfi_remember_state
 288              		.cfi_def_cfa_offset 36
 289              		@ sp needed
 290 0158 BDE8F08F 		pop	{r4, r5, r6, r7, r8, r9, r10, fp, pc}
 291              	.LVL42:
 292              	.L4:
 293              	.LCFI5:
 294              		.cfi_restore_state
ARM GAS  /var/folders/v3/wysfpd052nz8jkbx04pk0ym80000gn/T//ccwccXsI.s 			page 12


 295              	.LBB15:
 296              	.LBB11:
 174:/Users/imashio/Electronics/ARM/_Library/u8x8_d_ssd1329.c ****       u8x8_cad_SendSequence(u8x8, u8x8_d_ssd1329_128x96_noname_init_seq);    
 297              		.loc 1 174 0
 298 015c FFF7FEFF 		bl	u8x8_d_helper_display_init
 299              	.LVL43:
 175:/Users/imashio/Electronics/ARM/_Library/u8x8_d_ssd1329.c ****       break;
 300              		.loc 1 175 0
 301 0160 2046     		mov	r0, r4
 302 0162 2B49     		ldr	r1, .L32+8
 303 0164 FFF7FEFF 		bl	u8x8_cad_SendSequence
 304              	.LVL44:
 260:/Users/imashio/Electronics/ARM/_Library/u8x8_d_ssd1329.c **** }
 305              		.loc 1 260 0
 306 0168 0120     		movs	r0, #1
 307              	.LBE11:
 308              	.LBE15:
 309              		.loc 1 296 0
 310 016a 05B0     		add	sp, sp, #20
 311              	.LCFI6:
 312              		.cfi_remember_state
 313              		.cfi_def_cfa_offset 36
 314              	.LVL45:
 315              		@ sp needed
 316 016c BDE8F08F 		pop	{r4, r5, r6, r7, r8, r9, r10, fp, pc}
 317              	.LVL46:
 318              	.L6:
 319              	.LCFI7:
 320              		.cfi_restore_state
 321              	.LBB16:
 322              	.LBB12:
 178:/Users/imashio/Electronics/ARM/_Library/u8x8_d_ssd1329.c **** 	u8x8_cad_SendSequence(u8x8, u8x8_d_ssd1329_128x96_nhd_powersave0_seq);
 323              		.loc 1 178 0
 324 0170 009B     		ldr	r3, [sp]
 325 0172 002B     		cmp	r3, #0
 326 0174 3AD1     		bne	.L10
 179:/Users/imashio/Electronics/ARM/_Library/u8x8_d_ssd1329.c ****       else
 327              		.loc 1 179 0
 328 0176 2749     		ldr	r1, .L32+12
 329 0178 FFF7FEFF 		bl	u8x8_cad_SendSequence
 330              	.LVL47:
 260:/Users/imashio/Electronics/ARM/_Library/u8x8_d_ssd1329.c **** }
 331              		.loc 1 260 0
 332 017c 0120     		movs	r0, #1
 333 017e 54E7     		b	.L3
 334              	.LVL48:
 335              	.L7:
 184:/Users/imashio/Electronics/ARM/_Library/u8x8_d_ssd1329.c ****       {
 336              		.loc 1 184 0
 337 0180 009B     		ldr	r3, [sp]
 338 0182 C3BB     		cbnz	r3, .L11
 186:/Users/imashio/Electronics/ARM/_Library/u8x8_d_ssd1329.c **** 	u8x8->x_offset = u8x8->display_info->default_x_offset;
 339              		.loc 1 186 0
 340 0184 2449     		ldr	r1, .L32+16
 341 0186 FFF7FEFF 		bl	u8x8_cad_SendSequence
 342              	.LVL49:
 187:/Users/imashio/Electronics/ARM/_Library/u8x8_d_ssd1329.c ****       }
ARM GAS  /var/folders/v3/wysfpd052nz8jkbx04pk0ym80000gn/T//ccwccXsI.s 			page 13


 343              		.loc 1 187 0
 344 018a 2368     		ldr	r3, [r4]
 345 018c 9B7C     		ldrb	r3, [r3, #18]	@ zero_extendqisi2
 346 018e A377     		strb	r3, [r4, #30]
 260:/Users/imashio/Electronics/ARM/_Library/u8x8_d_ssd1329.c **** }
 347              		.loc 1 260 0
 348 0190 0120     		movs	r0, #1
 349 0192 4AE7     		b	.L3
 350              	.LVL50:
 351              	.L8:
 197:/Users/imashio/Electronics/ARM/_Library/u8x8_d_ssd1329.c ****       u8x8_cad_SendCmd(u8x8, 0x081 );
 352              		.loc 1 197 0
 353 0194 FFF7FEFF 		bl	u8x8_cad_StartTransfer
 354              	.LVL51:
 198:/Users/imashio/Electronics/ARM/_Library/u8x8_d_ssd1329.c ****       u8x8_cad_SendArg(u8x8, arg_int );	/* ssd1329 has range from 0 to 255 */
 355              		.loc 1 198 0
 356 0198 8121     		movs	r1, #129
 357 019a 2046     		mov	r0, r4
 358 019c FFF7FEFF 		bl	u8x8_cad_SendCmd
 359              	.LVL52:
 199:/Users/imashio/Electronics/ARM/_Library/u8x8_d_ssd1329.c ****       u8x8_cad_EndTransfer(u8x8);
 360              		.loc 1 199 0
 361 01a0 0099     		ldr	r1, [sp]
 362 01a2 2046     		mov	r0, r4
 363 01a4 FFF7FEFF 		bl	u8x8_cad_SendArg
 364              	.LVL53:
 200:/Users/imashio/Electronics/ARM/_Library/u8x8_d_ssd1329.c ****       break;
 365              		.loc 1 200 0
 366 01a8 2046     		mov	r0, r4
 367 01aa FFF7FEFF 		bl	u8x8_cad_EndTransfer
 368              	.LVL54:
 260:/Users/imashio/Electronics/ARM/_Library/u8x8_d_ssd1329.c **** }
 369              		.loc 1 260 0
 370 01ae 0120     		movs	r0, #1
 371              	.LBE12:
 372              	.LBE16:
 373              		.loc 1 296 0
 374 01b0 05B0     		add	sp, sp, #20
 375              	.LCFI8:
 376              		.cfi_remember_state
 377              		.cfi_def_cfa_offset 36
 378              	.LVL55:
 379              		@ sp needed
 380 01b2 BDE8F08F 		pop	{r4, r5, r6, r7, r8, r9, r10, fp, pc}
 381              	.LVL56:
 382              	.L20:
 383              	.LCFI9:
 384              		.cfi_restore_state
 385              	.LBB17:
 386              	.LBB13:
 258:/Users/imashio/Electronics/ARM/_Library/u8x8_d_ssd1329.c ****   }
 387              		.loc 1 258 0
 388 01b6 0020     		movs	r0, #0
 389              	.LVL57:
 390 01b8 37E7     		b	.L3
 391              	.LVL58:
 392              	.L12:
ARM GAS  /var/folders/v3/wysfpd052nz8jkbx04pk0ym80000gn/T//ccwccXsI.s 			page 14


 239:/Users/imashio/Electronics/ARM/_Library/u8x8_d_ssd1329.c **** 	    u8x8_cad_SendArg(u8x8, x );	
 393              		.loc 1 239 0
 394 01ba 2421     		movs	r1, #36
 395 01bc 2046     		mov	r0, r4
 396 01be FFF7FEFF 		bl	u8x8_cad_SendCmd
 397              	.LVL59:
 240:/Users/imashio/Electronics/ARM/_Library/u8x8_d_ssd1329.c **** 	    u8x8_cad_SendArg(u8x8, y );	
 398              		.loc 1 240 0
 399 01c2 2946     		mov	r1, r5
 400 01c4 2046     		mov	r0, r4
 401 01c6 FFF7FEFF 		bl	u8x8_cad_SendArg
 402              	.LVL60:
 241:/Users/imashio/Electronics/ARM/_Library/u8x8_d_ssd1329.c **** 	    u8x8_cad_SendArg(u8x8, x+3 );	
 403              		.loc 1 241 0
 404 01ca 3946     		mov	r1, r7
 405 01cc 2046     		mov	r0, r4
 406 01ce FFF7FEFF 		bl	u8x8_cad_SendArg
 407              	.LVL61:
 242:/Users/imashio/Electronics/ARM/_Library/u8x8_d_ssd1329.c **** 	    u8x8_cad_SendArg(u8x8, y+7 );	
 408              		.loc 1 242 0
 409 01d2 5146     		mov	r1, r10
 410 01d4 2046     		mov	r0, r4
 411 01d6 FFF7FEFF 		bl	u8x8_cad_SendArg
 412              	.LVL62:
 243:/Users/imashio/Electronics/ARM/_Library/u8x8_d_ssd1329.c **** 	    u8x8_cad_SendArg(u8x8, 0 );	// clear	    
 413              		.loc 1 243 0
 414 01da 4146     		mov	r1, r8
 415 01dc 2046     		mov	r0, r4
 416 01de FFF7FEFF 		bl	u8x8_cad_SendArg
 417              	.LVL63:
 244:/Users/imashio/Electronics/ARM/_Library/u8x8_d_ssd1329.c **** 	  }
 418              		.loc 1 244 0
 419 01e2 4946     		mov	r1, r9
 420 01e4 2046     		mov	r0, r4
 421 01e6 FFF7FEFF 		bl	u8x8_cad_SendArg
 422              	.LVL64:
 423 01ea 9DE7     		b	.L17
 424              	.LVL65:
 425              	.L10:
 181:/Users/imashio/Electronics/ARM/_Library/u8x8_d_ssd1329.c ****       break;
 426              		.loc 1 181 0
 427 01ec 0B49     		ldr	r1, .L32+20
 428 01ee FFF7FEFF 		bl	u8x8_cad_SendSequence
 429              	.LVL66:
 260:/Users/imashio/Electronics/ARM/_Library/u8x8_d_ssd1329.c **** }
 430              		.loc 1 260 0
 431 01f2 0120     		movs	r0, #1
 432 01f4 19E7     		b	.L3
 433              	.LVL67:
 434              	.L11:
 191:/Users/imashio/Electronics/ARM/_Library/u8x8_d_ssd1329.c **** 	u8x8->x_offset = u8x8->display_info->flipmode_x_offset;
 435              		.loc 1 191 0
 436 01f6 0A49     		ldr	r1, .L32+24
 437 01f8 FFF7FEFF 		bl	u8x8_cad_SendSequence
 438              	.LVL68:
 192:/Users/imashio/Electronics/ARM/_Library/u8x8_d_ssd1329.c ****       }
 439              		.loc 1 192 0
ARM GAS  /var/folders/v3/wysfpd052nz8jkbx04pk0ym80000gn/T//ccwccXsI.s 			page 15


 440 01fc 2368     		ldr	r3, [r4]
 441 01fe DB7C     		ldrb	r3, [r3, #19]	@ zero_extendqisi2
 442 0200 A377     		strb	r3, [r4, #30]
 260:/Users/imashio/Electronics/ARM/_Library/u8x8_d_ssd1329.c **** }
 443              		.loc 1 260 0
 444 0202 0120     		movs	r0, #1
 445 0204 11E7     		b	.L3
 446              	.L33:
 447 0206 00BF     		.align	2
 448              	.L32:
 449 0208 00000000 		.word	.LANCHOR0
 450 020c 00000000 		.word	.LANCHOR6
 451 0210 00000000 		.word	.LANCHOR1
 452 0214 00000000 		.word	.LANCHOR2
 453 0218 00000000 		.word	.LANCHOR4
 454 021c 00000000 		.word	.LANCHOR3
 455 0220 00000000 		.word	.LANCHOR5
 456 0224 24000000 		.word	.LANCHOR6+36
 457              	.LBE13:
 458              	.LBE17:
 459              		.cfi_endproc
 460              	.LFE2:
 462              		.section	.bss.u8x8_ssd1329_8to32_dest_buf,"aw",%nobits
 463              		.align	2
 464              		.set	.LANCHOR6,. + 0
 467              	u8x8_ssd1329_8to32_dest_buf:
 468 0000 00000000 		.space	32
 468      00000000 
 468      00000000 
 468      00000000 
 468      00000000 
 469              		.section	.rodata.u8x8_d_ssd1329_128x96_nhd_flip0_seq,"a",%progbits
 470              		.align	2
 471              		.set	.LANCHOR4,. + 0
 474              	u8x8_d_ssd1329_128x96_nhd_flip0_seq:
 475 0000 18       		.byte	24
 476 0001 15       		.byte	21
 477 0002 A0       		.byte	-96
 478 0003 16       		.byte	22
 479 0004 52       		.byte	82
 480 0005 19       		.byte	25
 481 0006 FF       		.byte	-1
 482              		.section	.rodata.u8x8_d_ssd1329_128x96_nhd_flip1_seq,"a",%progbits
 483              		.align	2
 484              		.set	.LANCHOR5,. + 0
 487              	u8x8_d_ssd1329_128x96_nhd_flip1_seq:
 488 0000 18       		.byte	24
 489 0001 15       		.byte	21
 490 0002 A0       		.byte	-96
 491 0003 16       		.byte	22
 492 0004 41       		.byte	65
 493 0005 19       		.byte	25
 494 0006 FF       		.byte	-1
 495              		.section	.rodata.u8x8_d_ssd1329_128x96_nhd_powersave0_seq,"a",%progbits
 496              		.align	2
 497              		.set	.LANCHOR2,. + 0
 500              	u8x8_d_ssd1329_128x96_nhd_powersave0_seq:
ARM GAS  /var/folders/v3/wysfpd052nz8jkbx04pk0ym80000gn/T//ccwccXsI.s 			page 16


 501 0000 18       		.byte	24
 502 0001 15       		.byte	21
 503 0002 AF       		.byte	-81
 504 0003 19       		.byte	25
 505 0004 FF       		.byte	-1
 506              		.section	.rodata.u8x8_d_ssd1329_128x96_nhd_powersave1_seq,"a",%progbits
 507              		.align	2
 508              		.set	.LANCHOR3,. + 0
 511              	u8x8_d_ssd1329_128x96_nhd_powersave1_seq:
 512 0000 18       		.byte	24
 513 0001 15       		.byte	21
 514 0002 AE       		.byte	-82
 515 0003 19       		.byte	25
 516 0004 FF       		.byte	-1
 517              		.section	.rodata.u8x8_d_ssd1329_128x96_noname_init_seq,"a",%progbits
 518              		.align	2
 519              		.set	.LANCHOR1,. + 0
 522              	u8x8_d_ssd1329_128x96_noname_init_seq:
 523 0000 18       		.byte	24
 524 0001 15       		.byte	21
 525 0002 AE       		.byte	-82
 526 0003 15       		.byte	21
 527 0004 B3       		.byte	-77
 528 0005 16       		.byte	22
 529 0006 91       		.byte	-111
 530 0007 15       		.byte	21
 531 0008 A8       		.byte	-88
 532 0009 16       		.byte	22
 533 000a 5F       		.byte	95
 534 000b 15       		.byte	21
 535 000c A2       		.byte	-94
 536 000d 16       		.byte	22
 537 000e 00       		.byte	0
 538 000f 15       		.byte	21
 539 0010 A1       		.byte	-95
 540 0011 16       		.byte	22
 541 0012 00       		.byte	0
 542 0013 15       		.byte	21
 543 0014 AD       		.byte	-83
 544 0015 16       		.byte	22
 545 0016 02       		.byte	2
 546 0017 15       		.byte	21
 547 0018 A0       		.byte	-96
 548 0019 16       		.byte	22
 549 001a 52       		.byte	82
 550 001b 15       		.byte	21
 551 001c 86       		.byte	-122
 552 001d 15       		.byte	21
 553 001e B7       		.byte	-73
 554 001f 15       		.byte	21
 555 0020 81       		.byte	-127
 556 0021 16       		.byte	22
 557 0022 70       		.byte	112
 558 0023 15       		.byte	21
 559 0024 B2       		.byte	-78
 560 0025 16       		.byte	22
 561 0026 51       		.byte	81
ARM GAS  /var/folders/v3/wysfpd052nz8jkbx04pk0ym80000gn/T//ccwccXsI.s 			page 17


 562 0027 15       		.byte	21
 563 0028 B1       		.byte	-79
 564 0029 16       		.byte	22
 565 002a 55       		.byte	85
 566 002b 15       		.byte	21
 567 002c BC       		.byte	-68
 568 002d 16       		.byte	22
 569 002e 10       		.byte	16
 570 002f 15       		.byte	21
 571 0030 B4       		.byte	-76
 572 0031 16       		.byte	22
 573 0032 02       		.byte	2
 574 0033 15       		.byte	21
 575 0034 B0       		.byte	-80
 576 0035 16       		.byte	22
 577 0036 28       		.byte	40
 578 0037 15       		.byte	21
 579 0038 BE       		.byte	-66
 580 0039 16       		.byte	22
 581 003a 1C       		.byte	28
 582 003b 15       		.byte	21
 583 003c BF       		.byte	-65
 584 003d 16       		.byte	22
 585 003e 0F       		.byte	15
 586 003f 15       		.byte	21
 587 0040 A4       		.byte	-92
 588 0041 15       		.byte	21
 589 0042 23       		.byte	35
 590 0043 16       		.byte	22
 591 0044 03       		.byte	3
 592 0045 19       		.byte	25
 593 0046 FF       		.byte	-1
 594              		.section	.rodata.u8x8_ssd1329_128x96_display_info,"a",%progbits
 595              		.align	2
 596              		.set	.LANCHOR0,. + 0
 599              	u8x8_ssd1329_128x96_display_info:
 600 0000 00       		.byte	0
 601 0001 01       		.byte	1
 602 0002 14       		.byte	20
 603 0003 0F       		.byte	15
 604 0004 64       		.byte	100
 605 0005 64       		.byte	100
 606 0006 64       		.byte	100
 607 0007 64       		.byte	100
 608 0008 00093D00 		.word	4000000
 609 000c 00       		.byte	0
 610 000d 04       		.byte	4
 611 000e 28       		.byte	40
 612 000f 3C       		.byte	60
 613 0010 10       		.byte	16
 614 0011 0C       		.byte	12
 615 0012 00       		.byte	0
 616 0013 00       		.byte	0
 617 0014 8000     		.short	128
 618 0016 6000     		.short	96
 619              		.text
 620              	.Letext0:
ARM GAS  /var/folders/v3/wysfpd052nz8jkbx04pk0ym80000gn/T//ccwccXsI.s 			page 18


 621              		.file 2 "/usr/local/gcc-arm-none-eabi-7-2018-q2-update/arm-none-eabi/include/machine/_default_type
 622              		.file 3 "/usr/local/gcc-arm-none-eabi-7-2018-q2-update/arm-none-eabi/include/sys/_stdint.h"
 623              		.file 4 "/Users/imashio/Electronics/ARM/_Library/u8x8.h"
ARM GAS  /var/folders/v3/wysfpd052nz8jkbx04pk0ym80000gn/T//ccwccXsI.s 			page 19


DEFINED SYMBOLS
                            *ABS*:0000000000000000 u8x8_d_ssd1329.c
/var/folders/v3/wysfpd052nz8jkbx04pk0ym80000gn/T//ccwccXsI.s:18     .text.u8x8_d_ssd1329_128x96_noname:0000000000000000 $t
/var/folders/v3/wysfpd052nz8jkbx04pk0ym80000gn/T//ccwccXsI.s:26     .text.u8x8_d_ssd1329_128x96_noname:0000000000000000 u8x8_d_ssd1329_128x96_noname
/var/folders/v3/wysfpd052nz8jkbx04pk0ym80000gn/T//ccwccXsI.s:68     .text.u8x8_d_ssd1329_128x96_noname:000000000000001c $d
/var/folders/v3/wysfpd052nz8jkbx04pk0ym80000gn/T//ccwccXsI.s:74     .text.u8x8_d_ssd1329_128x96_noname:0000000000000022 $t
/var/folders/v3/wysfpd052nz8jkbx04pk0ym80000gn/T//ccwccXsI.s:449    .text.u8x8_d_ssd1329_128x96_noname:0000000000000208 $d
/var/folders/v3/wysfpd052nz8jkbx04pk0ym80000gn/T//ccwccXsI.s:463    .bss.u8x8_ssd1329_8to32_dest_buf:0000000000000000 $d
/var/folders/v3/wysfpd052nz8jkbx04pk0ym80000gn/T//ccwccXsI.s:467    .bss.u8x8_ssd1329_8to32_dest_buf:0000000000000000 u8x8_ssd1329_8to32_dest_buf
/var/folders/v3/wysfpd052nz8jkbx04pk0ym80000gn/T//ccwccXsI.s:470    .rodata.u8x8_d_ssd1329_128x96_nhd_flip0_seq:0000000000000000 $d
/var/folders/v3/wysfpd052nz8jkbx04pk0ym80000gn/T//ccwccXsI.s:474    .rodata.u8x8_d_ssd1329_128x96_nhd_flip0_seq:0000000000000000 u8x8_d_ssd1329_128x96_nhd_flip0_seq
/var/folders/v3/wysfpd052nz8jkbx04pk0ym80000gn/T//ccwccXsI.s:483    .rodata.u8x8_d_ssd1329_128x96_nhd_flip1_seq:0000000000000000 $d
/var/folders/v3/wysfpd052nz8jkbx04pk0ym80000gn/T//ccwccXsI.s:487    .rodata.u8x8_d_ssd1329_128x96_nhd_flip1_seq:0000000000000000 u8x8_d_ssd1329_128x96_nhd_flip1_seq
/var/folders/v3/wysfpd052nz8jkbx04pk0ym80000gn/T//ccwccXsI.s:496    .rodata.u8x8_d_ssd1329_128x96_nhd_powersave0_seq:0000000000000000 $d
/var/folders/v3/wysfpd052nz8jkbx04pk0ym80000gn/T//ccwccXsI.s:500    .rodata.u8x8_d_ssd1329_128x96_nhd_powersave0_seq:0000000000000000 u8x8_d_ssd1329_128x96_nhd_powersave0_seq
/var/folders/v3/wysfpd052nz8jkbx04pk0ym80000gn/T//ccwccXsI.s:507    .rodata.u8x8_d_ssd1329_128x96_nhd_powersave1_seq:0000000000000000 $d
/var/folders/v3/wysfpd052nz8jkbx04pk0ym80000gn/T//ccwccXsI.s:511    .rodata.u8x8_d_ssd1329_128x96_nhd_powersave1_seq:0000000000000000 u8x8_d_ssd1329_128x96_nhd_powersave1_seq
/var/folders/v3/wysfpd052nz8jkbx04pk0ym80000gn/T//ccwccXsI.s:518    .rodata.u8x8_d_ssd1329_128x96_noname_init_seq:0000000000000000 $d
/var/folders/v3/wysfpd052nz8jkbx04pk0ym80000gn/T//ccwccXsI.s:522    .rodata.u8x8_d_ssd1329_128x96_noname_init_seq:0000000000000000 u8x8_d_ssd1329_128x96_noname_init_seq
/var/folders/v3/wysfpd052nz8jkbx04pk0ym80000gn/T//ccwccXsI.s:595    .rodata.u8x8_ssd1329_128x96_display_info:0000000000000000 $d
/var/folders/v3/wysfpd052nz8jkbx04pk0ym80000gn/T//ccwccXsI.s:599    .rodata.u8x8_ssd1329_128x96_display_info:0000000000000000 u8x8_ssd1329_128x96_display_info

UNDEFINED SYMBOLS
u8x8_d_helper_display_setup_memory
u8x8_cad_StartTransfer
u8x8_cad_SendCmd
u8x8_cad_SendArg
u8x8_cad_SendData
u8x8_cad_EndTransfer
u8x8_d_helper_display_init
u8x8_cad_SendSequence
