ARM GAS  /var/folders/v3/wysfpd052nz8jkbx04pk0ym80000gn/T//ccsUtHhW.s 			page 1


   1              		.cpu cortex-m4
   2              		.eabi_attribute 27, 1
   3              		.eabi_attribute 28, 1
   4              		.eabi_attribute 20, 1
   5              		.eabi_attribute 21, 1
   6              		.eabi_attribute 23, 3
   7              		.eabi_attribute 24, 1
   8              		.eabi_attribute 25, 1
   9              		.eabi_attribute 26, 1
  10              		.eabi_attribute 30, 2
  11              		.eabi_attribute 34, 1
  12              		.eabi_attribute 18, 4
  13              		.file	"u8x8_d_ssd1322.c"
  14              		.text
  15              	.Ltext0:
  16              		.cfi_sections	.debug_frame
  17              		.section	.text.u8x8_write_byte_to_16gr_device,"ax",%progbits
  18              		.align	1
  19              		.p2align 2,,3
  20              		.global	u8x8_write_byte_to_16gr_device
  21              		.syntax unified
  22              		.thumb
  23              		.thumb_func
  24              		.fpu fpv4-sp-d16
  26              	u8x8_write_byte_to_16gr_device:
  27              	.LFB0:
  28              		.file 1 "/Users/imashio/Electronics/ARM/_Library/u8x8_d_ssd1322.c"
   1:/Users/imashio/Electronics/ARM/_Library/u8x8_d_ssd1322.c **** /*
   2:/Users/imashio/Electronics/ARM/_Library/u8x8_d_ssd1322.c **** 
   3:/Users/imashio/Electronics/ARM/_Library/u8x8_d_ssd1322.c ****   u8x8_d_ssd1322.c
   4:/Users/imashio/Electronics/ARM/_Library/u8x8_d_ssd1322.c ****   
   5:/Users/imashio/Electronics/ARM/_Library/u8x8_d_ssd1322.c ****   Universal 8bit Graphics Library (https://github.com/olikraus/u8g2/)
   6:/Users/imashio/Electronics/ARM/_Library/u8x8_d_ssd1322.c **** 
   7:/Users/imashio/Electronics/ARM/_Library/u8x8_d_ssd1322.c ****   Copyright (c) 2016, olikraus@gmail.com
   8:/Users/imashio/Electronics/ARM/_Library/u8x8_d_ssd1322.c ****   All rights reserved.
   9:/Users/imashio/Electronics/ARM/_Library/u8x8_d_ssd1322.c **** 
  10:/Users/imashio/Electronics/ARM/_Library/u8x8_d_ssd1322.c ****   Redistribution and use in source and binary forms, with or without modification, 
  11:/Users/imashio/Electronics/ARM/_Library/u8x8_d_ssd1322.c ****   are permitted provided that the following conditions are met:
  12:/Users/imashio/Electronics/ARM/_Library/u8x8_d_ssd1322.c **** 
  13:/Users/imashio/Electronics/ARM/_Library/u8x8_d_ssd1322.c ****   * Redistributions of source code must retain the above copyright notice, this list 
  14:/Users/imashio/Electronics/ARM/_Library/u8x8_d_ssd1322.c ****     of conditions and the following disclaimer.
  15:/Users/imashio/Electronics/ARM/_Library/u8x8_d_ssd1322.c ****     
  16:/Users/imashio/Electronics/ARM/_Library/u8x8_d_ssd1322.c ****   * Redistributions in binary form must reproduce the above copyright notice, this 
  17:/Users/imashio/Electronics/ARM/_Library/u8x8_d_ssd1322.c ****     list of conditions and the following disclaimer in the documentation and/or other 
  18:/Users/imashio/Electronics/ARM/_Library/u8x8_d_ssd1322.c ****     materials provided with the distribution.
  19:/Users/imashio/Electronics/ARM/_Library/u8x8_d_ssd1322.c **** 
  20:/Users/imashio/Electronics/ARM/_Library/u8x8_d_ssd1322.c ****   THIS SOFTWARE IS PROVIDED BY THE COPYRIGHT HOLDERS AND 
  21:/Users/imashio/Electronics/ARM/_Library/u8x8_d_ssd1322.c ****   CONTRIBUTORS "AS IS" AND ANY EXPRESS OR IMPLIED WARRANTIES, 
  22:/Users/imashio/Electronics/ARM/_Library/u8x8_d_ssd1322.c ****   INCLUDING, BUT NOT LIMITED TO, THE IMPLIED WARRANTIES OF 
  23:/Users/imashio/Electronics/ARM/_Library/u8x8_d_ssd1322.c ****   MERCHANTABILITY AND FITNESS FOR A PARTICULAR PURPOSE ARE 
  24:/Users/imashio/Electronics/ARM/_Library/u8x8_d_ssd1322.c ****   DISCLAIMED. IN NO EVENT SHALL THE COPYRIGHT HOLDER OR 
  25:/Users/imashio/Electronics/ARM/_Library/u8x8_d_ssd1322.c ****   CONTRIBUTORS BE LIABLE FOR ANY DIRECT, INDIRECT, INCIDENTAL, 
  26:/Users/imashio/Electronics/ARM/_Library/u8x8_d_ssd1322.c ****   SPECIAL, EXEMPLARY, OR CONSEQUENTIAL DAMAGES (INCLUDING, BUT 
  27:/Users/imashio/Electronics/ARM/_Library/u8x8_d_ssd1322.c ****   NOT LIMITED TO, PROCUREMENT OF SUBSTITUTE GOODS OR SERVICES; 
  28:/Users/imashio/Electronics/ARM/_Library/u8x8_d_ssd1322.c ****   LOSS OF USE, DATA, OR PROFITS; OR BUSINESS INTERRUPTION) HOWEVER 
  29:/Users/imashio/Electronics/ARM/_Library/u8x8_d_ssd1322.c ****   CAUSED AND ON ANY THEORY OF LIABILITY, WHETHER IN CONTRACT, 
  30:/Users/imashio/Electronics/ARM/_Library/u8x8_d_ssd1322.c ****   STRICT LIABILITY, OR TORT (INCLUDING NEGLIGENCE OR OTHERWISE) 
ARM GAS  /var/folders/v3/wysfpd052nz8jkbx04pk0ym80000gn/T//ccsUtHhW.s 			page 2


  31:/Users/imashio/Electronics/ARM/_Library/u8x8_d_ssd1322.c ****   ARISING IN ANY WAY OUT OF THE USE OF THIS SOFTWARE, EVEN IF 
  32:/Users/imashio/Electronics/ARM/_Library/u8x8_d_ssd1322.c ****   ADVISED OF THE POSSIBILITY OF SUCH DAMAGE.  
  33:/Users/imashio/Electronics/ARM/_Library/u8x8_d_ssd1322.c **** 
  34:/Users/imashio/Electronics/ARM/_Library/u8x8_d_ssd1322.c **** 
  35:/Users/imashio/Electronics/ARM/_Library/u8x8_d_ssd1322.c ****   
  36:/Users/imashio/Electronics/ARM/_Library/u8x8_d_ssd1322.c ****   
  37:/Users/imashio/Electronics/ARM/_Library/u8x8_d_ssd1322.c **** */
  38:/Users/imashio/Electronics/ARM/_Library/u8x8_d_ssd1322.c **** #include "u8x8.h"
  39:/Users/imashio/Electronics/ARM/_Library/u8x8_d_ssd1322.c **** 
  40:/Users/imashio/Electronics/ARM/_Library/u8x8_d_ssd1322.c **** 
  41:/Users/imashio/Electronics/ARM/_Library/u8x8_d_ssd1322.c **** 
  42:/Users/imashio/Electronics/ARM/_Library/u8x8_d_ssd1322.c **** 
  43:/Users/imashio/Electronics/ARM/_Library/u8x8_d_ssd1322.c **** static const uint8_t u8x8_d_ssd1322_powersave0_seq[] = {
  44:/Users/imashio/Electronics/ARM/_Library/u8x8_d_ssd1322.c ****   U8X8_START_TRANSFER(),             	/* enable chip, delay is part of the transfer start */
  45:/Users/imashio/Electronics/ARM/_Library/u8x8_d_ssd1322.c ****   U8X8_C(0x0af),		                /* ssd1322: display on */
  46:/Users/imashio/Electronics/ARM/_Library/u8x8_d_ssd1322.c ****   U8X8_END_TRANSFER(),             	/* disable chip */
  47:/Users/imashio/Electronics/ARM/_Library/u8x8_d_ssd1322.c ****   U8X8_END()             			/* end of sequence */
  48:/Users/imashio/Electronics/ARM/_Library/u8x8_d_ssd1322.c **** };
  49:/Users/imashio/Electronics/ARM/_Library/u8x8_d_ssd1322.c **** 
  50:/Users/imashio/Electronics/ARM/_Library/u8x8_d_ssd1322.c **** static const uint8_t u8x8_d_ssd1322_powersave1_seq[] = {
  51:/Users/imashio/Electronics/ARM/_Library/u8x8_d_ssd1322.c ****   U8X8_START_TRANSFER(),             	/* enable chip, delay is part of the transfer start */
  52:/Users/imashio/Electronics/ARM/_Library/u8x8_d_ssd1322.c ****   U8X8_C(0x0ae),		                /* ssd1322: display off */
  53:/Users/imashio/Electronics/ARM/_Library/u8x8_d_ssd1322.c ****   U8X8_END_TRANSFER(),             	/* disable chip */
  54:/Users/imashio/Electronics/ARM/_Library/u8x8_d_ssd1322.c ****   U8X8_END()             			/* end of sequence */
  55:/Users/imashio/Electronics/ARM/_Library/u8x8_d_ssd1322.c **** };
  56:/Users/imashio/Electronics/ARM/_Library/u8x8_d_ssd1322.c **** 
  57:/Users/imashio/Electronics/ARM/_Library/u8x8_d_ssd1322.c **** 
  58:/Users/imashio/Electronics/ARM/_Library/u8x8_d_ssd1322.c **** 
  59:/Users/imashio/Electronics/ARM/_Library/u8x8_d_ssd1322.c **** /* interpret b as a monochrome bit pattern, write value 15 for high bit and value 0 for a low bit *
  60:/Users/imashio/Electronics/ARM/_Library/u8x8_d_ssd1322.c **** /* topbit (msb) is sent last */
  61:/Users/imashio/Electronics/ARM/_Library/u8x8_d_ssd1322.c **** /* example: b = 0x083 will send 0xff, 0x00, 0x00, 0xf0 */
  62:/Users/imashio/Electronics/ARM/_Library/u8x8_d_ssd1322.c **** 
  63:/Users/imashio/Electronics/ARM/_Library/u8x8_d_ssd1322.c **** /* 4 Jan 2017: I think this procedure not required any more. Delete? */
  64:/Users/imashio/Electronics/ARM/_Library/u8x8_d_ssd1322.c **** uint8_t u8x8_write_byte_to_16gr_device(u8x8_t *u8x8, uint8_t b)
  65:/Users/imashio/Electronics/ARM/_Library/u8x8_d_ssd1322.c **** {
  29              		.loc 1 65 0
  30              		.cfi_startproc
  31              		@ args = 0, pretend = 0, frame = 0
  32              		@ frame_needed = 0, uses_anonymous_args = 0
  33              		@ link register save eliminated.
  34              	.LVL0:
  35 0000 70B4     		push	{r4, r5, r6}
  36              	.LCFI0:
  37              		.cfi_def_cfa_offset 12
  38              		.cfi_offset 4, -12
  39              		.cfi_offset 5, -8
  40              		.cfi_offset 6, -4
  66:/Users/imashio/Electronics/ARM/_Library/u8x8_d_ssd1322.c ****   static uint8_t buf[4];
  67:/Users/imashio/Electronics/ARM/_Library/u8x8_d_ssd1322.c ****   static uint8_t map[4] = { 0, 0x00f, 0x0f0, 0x0ff };
  68:/Users/imashio/Electronics/ARM/_Library/u8x8_d_ssd1322.c ****   buf [3] = map[b & 3];
  41              		.loc 1 68 0
  42 0002 0B4A     		ldr	r2, .L4
  43 0004 0B4B     		ldr	r3, .L4+4
  44 0006 01F00304 		and	r4, r1, #3
  69:/Users/imashio/Electronics/ARM/_Library/u8x8_d_ssd1322.c ****   b>>=2;
  70:/Users/imashio/Electronics/ARM/_Library/u8x8_d_ssd1322.c ****   buf [2] = map[b & 3];
  45              		.loc 1 70 0
ARM GAS  /var/folders/v3/wysfpd052nz8jkbx04pk0ym80000gn/T//ccsUtHhW.s 			page 3


  46 000a C1F38105 		ubfx	r5, r1, #2, #2
  68:/Users/imashio/Electronics/ARM/_Library/u8x8_d_ssd1322.c ****   b>>=2;
  47              		.loc 1 68 0
  48 000e 145D     		ldrb	r4, [r2, r4]	@ zero_extendqisi2
  49 0010 DC70     		strb	r4, [r3, #3]
  50              	.LVL1:
  71:/Users/imashio/Electronics/ARM/_Library/u8x8_d_ssd1322.c ****   b>>=2;
  72:/Users/imashio/Electronics/ARM/_Library/u8x8_d_ssd1322.c ****   buf [1] = map[b & 3];
  51              		.loc 1 72 0
  52 0012 C1F30114 		ubfx	r4, r1, #4, #2
  73:/Users/imashio/Electronics/ARM/_Library/u8x8_d_ssd1322.c ****   b>>=2;
  74:/Users/imashio/Electronics/ARM/_Library/u8x8_d_ssd1322.c ****   buf [0] = map[b & 3];
  53              		.loc 1 74 0
  54 0016 8909     		lsrs	r1, r1, #6
  55              	.LVL2:
  70:/Users/imashio/Electronics/ARM/_Library/u8x8_d_ssd1322.c ****   b>>=2;
  56              		.loc 1 70 0
  57 0018 565D     		ldrb	r6, [r2, r5]	@ zero_extendqisi2
  72:/Users/imashio/Electronics/ARM/_Library/u8x8_d_ssd1322.c ****   b>>=2;
  58              		.loc 1 72 0
  59 001a 155D     		ldrb	r5, [r2, r4]	@ zero_extendqisi2
  60              		.loc 1 74 0
  61 001c 545C     		ldrb	r4, [r2, r1]	@ zero_extendqisi2
  70:/Users/imashio/Electronics/ARM/_Library/u8x8_d_ssd1322.c ****   b>>=2;
  62              		.loc 1 70 0
  63 001e 9E70     		strb	r6, [r3, #2]
  64              	.LVL3:
  72:/Users/imashio/Electronics/ARM/_Library/u8x8_d_ssd1322.c ****   b>>=2;
  65              		.loc 1 72 0
  66 0020 5D70     		strb	r5, [r3, #1]
  67              		.loc 1 74 0
  68 0022 1C70     		strb	r4, [r3]
  75:/Users/imashio/Electronics/ARM/_Library/u8x8_d_ssd1322.c ****   return u8x8_cad_SendData(u8x8, 4, buf);
  69              		.loc 1 75 0
  70 0024 1A46     		mov	r2, r3
  71 0026 0421     		movs	r1, #4
  76:/Users/imashio/Electronics/ARM/_Library/u8x8_d_ssd1322.c **** }
  72              		.loc 1 76 0
  73 0028 70BC     		pop	{r4, r5, r6}
  74              	.LCFI1:
  75              		.cfi_restore 6
  76              		.cfi_restore 5
  77              		.cfi_restore 4
  78              		.cfi_def_cfa_offset 0
  75:/Users/imashio/Electronics/ARM/_Library/u8x8_d_ssd1322.c ****   return u8x8_cad_SendData(u8x8, 4, buf);
  79              		.loc 1 75 0
  80 002a FFF7FEBF 		b	u8x8_cad_SendData
  81              	.LVL4:
  82              	.L5:
  83 002e 00BF     		.align	2
  84              	.L4:
  85 0030 00000000 		.word	.LANCHOR1
  86 0034 00000000 		.word	.LANCHOR0
  87              		.cfi_endproc
  88              	.LFE0:
  90              		.section	.text.u8x8_d_ssd1322_common,"ax",%progbits
  91              		.align	1
ARM GAS  /var/folders/v3/wysfpd052nz8jkbx04pk0ym80000gn/T//ccsUtHhW.s 			page 4


  92              		.p2align 2,,3
  93              		.global	u8x8_d_ssd1322_common
  94              		.syntax unified
  95              		.thumb
  96              		.thumb_func
  97              		.fpu fpv4-sp-d16
  99              	u8x8_d_ssd1322_common:
 100              	.LFB3:
  77:/Users/imashio/Electronics/ARM/_Library/u8x8_d_ssd1322.c **** 
  78:/Users/imashio/Electronics/ARM/_Library/u8x8_d_ssd1322.c **** 
  79:/Users/imashio/Electronics/ARM/_Library/u8x8_d_ssd1322.c **** /*
  80:/Users/imashio/Electronics/ARM/_Library/u8x8_d_ssd1322.c ****   input:
  81:/Users/imashio/Electronics/ARM/_Library/u8x8_d_ssd1322.c ****     one tile (8 Bytes)
  82:/Users/imashio/Electronics/ARM/_Library/u8x8_d_ssd1322.c ****   output:
  83:/Users/imashio/Electronics/ARM/_Library/u8x8_d_ssd1322.c ****     Tile for SSD1325 (32 Bytes)
  84:/Users/imashio/Electronics/ARM/_Library/u8x8_d_ssd1322.c **** */
  85:/Users/imashio/Electronics/ARM/_Library/u8x8_d_ssd1322.c **** 
  86:/Users/imashio/Electronics/ARM/_Library/u8x8_d_ssd1322.c **** static uint8_t u8x8_ssd1322_to32_dest_buf[32];
  87:/Users/imashio/Electronics/ARM/_Library/u8x8_d_ssd1322.c **** 
  88:/Users/imashio/Electronics/ARM/_Library/u8x8_d_ssd1322.c **** static uint8_t *u8x8_ssd1322_8to32(U8X8_UNUSED u8x8_t *u8x8, uint8_t *ptr)
  89:/Users/imashio/Electronics/ARM/_Library/u8x8_d_ssd1322.c **** {
  90:/Users/imashio/Electronics/ARM/_Library/u8x8_d_ssd1322.c ****   uint8_t v;
  91:/Users/imashio/Electronics/ARM/_Library/u8x8_d_ssd1322.c ****   uint8_t a,b;
  92:/Users/imashio/Electronics/ARM/_Library/u8x8_d_ssd1322.c ****   uint8_t i, j;
  93:/Users/imashio/Electronics/ARM/_Library/u8x8_d_ssd1322.c ****   uint8_t *dest;
  94:/Users/imashio/Electronics/ARM/_Library/u8x8_d_ssd1322.c ****   
  95:/Users/imashio/Electronics/ARM/_Library/u8x8_d_ssd1322.c ****   for( j = 0; j < 4; j++ )
  96:/Users/imashio/Electronics/ARM/_Library/u8x8_d_ssd1322.c ****   {
  97:/Users/imashio/Electronics/ARM/_Library/u8x8_d_ssd1322.c ****     dest = u8x8_ssd1322_to32_dest_buf;
  98:/Users/imashio/Electronics/ARM/_Library/u8x8_d_ssd1322.c ****     dest += j;
  99:/Users/imashio/Electronics/ARM/_Library/u8x8_d_ssd1322.c ****     a =*ptr;
 100:/Users/imashio/Electronics/ARM/_Library/u8x8_d_ssd1322.c ****     ptr++;
 101:/Users/imashio/Electronics/ARM/_Library/u8x8_d_ssd1322.c ****     b = *ptr;
 102:/Users/imashio/Electronics/ARM/_Library/u8x8_d_ssd1322.c ****     ptr++;
 103:/Users/imashio/Electronics/ARM/_Library/u8x8_d_ssd1322.c ****     for( i = 0; i < 8; i++ )
 104:/Users/imashio/Electronics/ARM/_Library/u8x8_d_ssd1322.c ****     {
 105:/Users/imashio/Electronics/ARM/_Library/u8x8_d_ssd1322.c ****       v = 0;
 106:/Users/imashio/Electronics/ARM/_Library/u8x8_d_ssd1322.c ****       if ( a&1 ) v |= 0xf0;
 107:/Users/imashio/Electronics/ARM/_Library/u8x8_d_ssd1322.c ****       if ( b&1 ) v |= 0x0f;
 108:/Users/imashio/Electronics/ARM/_Library/u8x8_d_ssd1322.c ****       *dest = v;
 109:/Users/imashio/Electronics/ARM/_Library/u8x8_d_ssd1322.c ****       dest+=4;
 110:/Users/imashio/Electronics/ARM/_Library/u8x8_d_ssd1322.c ****       a >>= 1;
 111:/Users/imashio/Electronics/ARM/_Library/u8x8_d_ssd1322.c ****       b >>= 1;
 112:/Users/imashio/Electronics/ARM/_Library/u8x8_d_ssd1322.c ****     }
 113:/Users/imashio/Electronics/ARM/_Library/u8x8_d_ssd1322.c ****   }
 114:/Users/imashio/Electronics/ARM/_Library/u8x8_d_ssd1322.c ****   
 115:/Users/imashio/Electronics/ARM/_Library/u8x8_d_ssd1322.c ****   return u8x8_ssd1322_to32_dest_buf;
 116:/Users/imashio/Electronics/ARM/_Library/u8x8_d_ssd1322.c **** }
 117:/Users/imashio/Electronics/ARM/_Library/u8x8_d_ssd1322.c **** 
 118:/Users/imashio/Electronics/ARM/_Library/u8x8_d_ssd1322.c **** static uint8_t *u8x8_ssd1322_4to32(U8X8_UNUSED u8x8_t *u8x8, uint8_t *ptr)
 119:/Users/imashio/Electronics/ARM/_Library/u8x8_d_ssd1322.c **** {
 120:/Users/imashio/Electronics/ARM/_Library/u8x8_d_ssd1322.c ****   uint8_t v;
 121:/Users/imashio/Electronics/ARM/_Library/u8x8_d_ssd1322.c ****   uint8_t a;
 122:/Users/imashio/Electronics/ARM/_Library/u8x8_d_ssd1322.c ****   uint8_t i, j;
 123:/Users/imashio/Electronics/ARM/_Library/u8x8_d_ssd1322.c ****   uint8_t *dest;
 124:/Users/imashio/Electronics/ARM/_Library/u8x8_d_ssd1322.c ****   
 125:/Users/imashio/Electronics/ARM/_Library/u8x8_d_ssd1322.c ****   for( j = 0; j < 4; j++ )
ARM GAS  /var/folders/v3/wysfpd052nz8jkbx04pk0ym80000gn/T//ccsUtHhW.s 			page 5


 126:/Users/imashio/Electronics/ARM/_Library/u8x8_d_ssd1322.c ****   {
 127:/Users/imashio/Electronics/ARM/_Library/u8x8_d_ssd1322.c ****     dest = u8x8_ssd1322_to32_dest_buf;
 128:/Users/imashio/Electronics/ARM/_Library/u8x8_d_ssd1322.c ****     dest += j;
 129:/Users/imashio/Electronics/ARM/_Library/u8x8_d_ssd1322.c ****     a =*ptr;
 130:/Users/imashio/Electronics/ARM/_Library/u8x8_d_ssd1322.c ****     ptr++;
 131:/Users/imashio/Electronics/ARM/_Library/u8x8_d_ssd1322.c ****     for( i = 0; i < 8; i++ )
 132:/Users/imashio/Electronics/ARM/_Library/u8x8_d_ssd1322.c ****     {
 133:/Users/imashio/Electronics/ARM/_Library/u8x8_d_ssd1322.c ****       v = 0;
 134:/Users/imashio/Electronics/ARM/_Library/u8x8_d_ssd1322.c ****       if ( a&1 ) v = 0xff;
 135:/Users/imashio/Electronics/ARM/_Library/u8x8_d_ssd1322.c ****       *dest = v;
 136:/Users/imashio/Electronics/ARM/_Library/u8x8_d_ssd1322.c ****       dest+=4;
 137:/Users/imashio/Electronics/ARM/_Library/u8x8_d_ssd1322.c ****       a >>= 1;
 138:/Users/imashio/Electronics/ARM/_Library/u8x8_d_ssd1322.c ****     }
 139:/Users/imashio/Electronics/ARM/_Library/u8x8_d_ssd1322.c ****   }
 140:/Users/imashio/Electronics/ARM/_Library/u8x8_d_ssd1322.c ****   
 141:/Users/imashio/Electronics/ARM/_Library/u8x8_d_ssd1322.c ****   return u8x8_ssd1322_to32_dest_buf;
 142:/Users/imashio/Electronics/ARM/_Library/u8x8_d_ssd1322.c **** }
 143:/Users/imashio/Electronics/ARM/_Library/u8x8_d_ssd1322.c **** 
 144:/Users/imashio/Electronics/ARM/_Library/u8x8_d_ssd1322.c **** 
 145:/Users/imashio/Electronics/ARM/_Library/u8x8_d_ssd1322.c **** uint8_t u8x8_d_ssd1322_common(u8x8_t *u8x8, uint8_t msg, uint8_t arg_int, void *arg_ptr)
 146:/Users/imashio/Electronics/ARM/_Library/u8x8_d_ssd1322.c **** {
 101              		.loc 1 146 0
 102              		.cfi_startproc
 103              		@ args = 0, pretend = 0, frame = 8
 104              		@ frame_needed = 0, uses_anonymous_args = 0
 105              	.LVL5:
 106 0000 2DE9F04F 		push	{r4, r5, r6, r7, r8, r9, r10, fp, lr}
 107              	.LCFI2:
 108              		.cfi_def_cfa_offset 36
 109              		.cfi_offset 4, -36
 110              		.cfi_offset 5, -32
 111              		.cfi_offset 6, -28
 112              		.cfi_offset 7, -24
 113              		.cfi_offset 8, -20
 114              		.cfi_offset 9, -16
 115              		.cfi_offset 10, -12
 116              		.cfi_offset 11, -8
 117              		.cfi_offset 14, -4
 118 0004 83B0     		sub	sp, sp, #12
 119              	.LCFI3:
 120              		.cfi_def_cfa_offset 48
 147:/Users/imashio/Electronics/ARM/_Library/u8x8_d_ssd1322.c ****   uint8_t x; 
 148:/Users/imashio/Electronics/ARM/_Library/u8x8_d_ssd1322.c ****   uint8_t y, c;
 149:/Users/imashio/Electronics/ARM/_Library/u8x8_d_ssd1322.c ****   uint8_t *ptr;
 150:/Users/imashio/Electronics/ARM/_Library/u8x8_d_ssd1322.c ****   switch(msg)
 121              		.loc 1 150 0
 122 0006 0E29     		cmp	r1, #14
 146:/Users/imashio/Electronics/ARM/_Library/u8x8_d_ssd1322.c ****   uint8_t x; 
 123              		.loc 1 146 0
 124 0008 0092     		str	r2, [sp]
 125 000a 0546     		mov	r5, r0
 126              		.loc 1 150 0
 127 000c 00F09080 		beq	.L8
 128 0010 0F29     		cmp	r1, #15
 129 0012 0FD0     		beq	.L9
 130 0014 0B29     		cmp	r1, #11
 131 0016 03D0     		beq	.L29
ARM GAS  /var/folders/v3/wysfpd052nz8jkbx04pk0ym80000gn/T//ccsUtHhW.s 			page 6


 151:/Users/imashio/Electronics/ARM/_Library/u8x8_d_ssd1322.c ****   {
 152:/Users/imashio/Electronics/ARM/_Library/u8x8_d_ssd1322.c ****     /* U8X8_MSG_DISPLAY_SETUP_MEMORY is handled by the calling function */
 153:/Users/imashio/Electronics/ARM/_Library/u8x8_d_ssd1322.c ****     /*
 154:/Users/imashio/Electronics/ARM/_Library/u8x8_d_ssd1322.c ****     case U8X8_MSG_DISPLAY_SETUP_MEMORY:
 155:/Users/imashio/Electronics/ARM/_Library/u8x8_d_ssd1322.c ****       break;
 156:/Users/imashio/Electronics/ARM/_Library/u8x8_d_ssd1322.c ****     case U8X8_MSG_DISPLAY_INIT:
 157:/Users/imashio/Electronics/ARM/_Library/u8x8_d_ssd1322.c ****       u8x8_d_helper_display_init(u8x8);
 158:/Users/imashio/Electronics/ARM/_Library/u8x8_d_ssd1322.c ****       u8x8_cad_SendSequence(u8x8, u8x8_d_ssd1322_256x64_init_seq);
 159:/Users/imashio/Electronics/ARM/_Library/u8x8_d_ssd1322.c ****       break;
 160:/Users/imashio/Electronics/ARM/_Library/u8x8_d_ssd1322.c ****     */
 161:/Users/imashio/Electronics/ARM/_Library/u8x8_d_ssd1322.c ****     case U8X8_MSG_DISPLAY_SET_POWER_SAVE:
 162:/Users/imashio/Electronics/ARM/_Library/u8x8_d_ssd1322.c ****       if ( arg_int == 0 )
 163:/Users/imashio/Electronics/ARM/_Library/u8x8_d_ssd1322.c **** 	u8x8_cad_SendSequence(u8x8, u8x8_d_ssd1322_powersave0_seq);
 164:/Users/imashio/Electronics/ARM/_Library/u8x8_d_ssd1322.c ****       else
 165:/Users/imashio/Electronics/ARM/_Library/u8x8_d_ssd1322.c **** 	u8x8_cad_SendSequence(u8x8, u8x8_d_ssd1322_powersave1_seq);
 166:/Users/imashio/Electronics/ARM/_Library/u8x8_d_ssd1322.c ****       break;
 167:/Users/imashio/Electronics/ARM/_Library/u8x8_d_ssd1322.c **** #ifdef U8X8_WITH_SET_CONTRAST
 168:/Users/imashio/Electronics/ARM/_Library/u8x8_d_ssd1322.c ****     case U8X8_MSG_DISPLAY_SET_CONTRAST:
 169:/Users/imashio/Electronics/ARM/_Library/u8x8_d_ssd1322.c ****       u8x8_cad_StartTransfer(u8x8);
 170:/Users/imashio/Electronics/ARM/_Library/u8x8_d_ssd1322.c ****       u8x8_cad_SendCmd(u8x8, 0x0C1 );
 171:/Users/imashio/Electronics/ARM/_Library/u8x8_d_ssd1322.c ****       u8x8_cad_SendArg(u8x8, arg_int );	/* ssd1322 has range from 0 to 255 */
 172:/Users/imashio/Electronics/ARM/_Library/u8x8_d_ssd1322.c ****       u8x8_cad_EndTransfer(u8x8);
 173:/Users/imashio/Electronics/ARM/_Library/u8x8_d_ssd1322.c ****       break;
 174:/Users/imashio/Electronics/ARM/_Library/u8x8_d_ssd1322.c **** #endif
 175:/Users/imashio/Electronics/ARM/_Library/u8x8_d_ssd1322.c ****     case U8X8_MSG_DISPLAY_DRAW_TILE:
 176:/Users/imashio/Electronics/ARM/_Library/u8x8_d_ssd1322.c ****       u8x8_cad_StartTransfer(u8x8);
 177:/Users/imashio/Electronics/ARM/_Library/u8x8_d_ssd1322.c ****       x = ((u8x8_tile_t *)arg_ptr)->x_pos;    
 178:/Users/imashio/Electronics/ARM/_Library/u8x8_d_ssd1322.c ****       x *= 2;		// only every 4th col can be addressed
 179:/Users/imashio/Electronics/ARM/_Library/u8x8_d_ssd1322.c ****       x += u8x8->x_offset;		
 180:/Users/imashio/Electronics/ARM/_Library/u8x8_d_ssd1322.c ****     
 181:/Users/imashio/Electronics/ARM/_Library/u8x8_d_ssd1322.c ****       y = (((u8x8_tile_t *)arg_ptr)->y_pos);
 182:/Users/imashio/Electronics/ARM/_Library/u8x8_d_ssd1322.c ****       y *= 8;
 183:/Users/imashio/Electronics/ARM/_Library/u8x8_d_ssd1322.c ****     
 184:/Users/imashio/Electronics/ARM/_Library/u8x8_d_ssd1322.c ****       
 185:/Users/imashio/Electronics/ARM/_Library/u8x8_d_ssd1322.c ****       u8x8_cad_SendCmd(u8x8, 0x075 );	/* set row address, moved out of the loop (issue 302) */
 186:/Users/imashio/Electronics/ARM/_Library/u8x8_d_ssd1322.c ****       u8x8_cad_SendArg(u8x8, y);
 187:/Users/imashio/Electronics/ARM/_Library/u8x8_d_ssd1322.c ****       u8x8_cad_SendArg(u8x8, y+7);
 188:/Users/imashio/Electronics/ARM/_Library/u8x8_d_ssd1322.c ****       
 189:/Users/imashio/Electronics/ARM/_Library/u8x8_d_ssd1322.c ****       do
 190:/Users/imashio/Electronics/ARM/_Library/u8x8_d_ssd1322.c ****       {
 191:/Users/imashio/Electronics/ARM/_Library/u8x8_d_ssd1322.c **** 	c = ((u8x8_tile_t *)arg_ptr)->cnt;
 192:/Users/imashio/Electronics/ARM/_Library/u8x8_d_ssd1322.c **** 	ptr = ((u8x8_tile_t *)arg_ptr)->tile_ptr;
 193:/Users/imashio/Electronics/ARM/_Library/u8x8_d_ssd1322.c **** 
 194:/Users/imashio/Electronics/ARM/_Library/u8x8_d_ssd1322.c **** 	do
 195:/Users/imashio/Electronics/ARM/_Library/u8x8_d_ssd1322.c **** 	{
 196:/Users/imashio/Electronics/ARM/_Library/u8x8_d_ssd1322.c **** 	  u8x8_cad_SendCmd(u8x8, 0x015 );	/* set column address */
 197:/Users/imashio/Electronics/ARM/_Library/u8x8_d_ssd1322.c **** 	  u8x8_cad_SendArg(u8x8, x );	/* start */
 198:/Users/imashio/Electronics/ARM/_Library/u8x8_d_ssd1322.c **** 	  u8x8_cad_SendArg(u8x8, x+1 );	/* end */
 199:/Users/imashio/Electronics/ARM/_Library/u8x8_d_ssd1322.c **** 
 200:/Users/imashio/Electronics/ARM/_Library/u8x8_d_ssd1322.c **** 	  u8x8_cad_SendCmd(u8x8, 0x05c );	/* write to ram */
 201:/Users/imashio/Electronics/ARM/_Library/u8x8_d_ssd1322.c **** 	  
 202:/Users/imashio/Electronics/ARM/_Library/u8x8_d_ssd1322.c **** 	  u8x8_cad_SendData(u8x8, 32, u8x8_ssd1322_8to32(u8x8, ptr));
 203:/Users/imashio/Electronics/ARM/_Library/u8x8_d_ssd1322.c **** 	  
 204:/Users/imashio/Electronics/ARM/_Library/u8x8_d_ssd1322.c **** 	  ptr += 8;
 205:/Users/imashio/Electronics/ARM/_Library/u8x8_d_ssd1322.c **** 	  x += 2;
 206:/Users/imashio/Electronics/ARM/_Library/u8x8_d_ssd1322.c **** 	  c--;
 207:/Users/imashio/Electronics/ARM/_Library/u8x8_d_ssd1322.c **** 	} while( c > 0 );
ARM GAS  /var/folders/v3/wysfpd052nz8jkbx04pk0ym80000gn/T//ccsUtHhW.s 			page 7


 208:/Users/imashio/Electronics/ARM/_Library/u8x8_d_ssd1322.c **** 	
 209:/Users/imashio/Electronics/ARM/_Library/u8x8_d_ssd1322.c **** 	//x += 2;
 210:/Users/imashio/Electronics/ARM/_Library/u8x8_d_ssd1322.c **** 	arg_int--;
 211:/Users/imashio/Electronics/ARM/_Library/u8x8_d_ssd1322.c ****       } while( arg_int > 0 );
 212:/Users/imashio/Electronics/ARM/_Library/u8x8_d_ssd1322.c ****       
 213:/Users/imashio/Electronics/ARM/_Library/u8x8_d_ssd1322.c ****       u8x8_cad_EndTransfer(u8x8);
 214:/Users/imashio/Electronics/ARM/_Library/u8x8_d_ssd1322.c ****       break;
 215:/Users/imashio/Electronics/ARM/_Library/u8x8_d_ssd1322.c ****     default:
 216:/Users/imashio/Electronics/ARM/_Library/u8x8_d_ssd1322.c ****       return 0;
 132              		.loc 1 216 0
 133 0018 0020     		movs	r0, #0
 134              	.LVL6:
 217:/Users/imashio/Electronics/ARM/_Library/u8x8_d_ssd1322.c ****   }
 218:/Users/imashio/Electronics/ARM/_Library/u8x8_d_ssd1322.c ****   return 1;
 219:/Users/imashio/Electronics/ARM/_Library/u8x8_d_ssd1322.c **** }
 135              		.loc 1 219 0
 136 001a 03B0     		add	sp, sp, #12
 137              	.LCFI4:
 138              		.cfi_remember_state
 139              		.cfi_def_cfa_offset 36
 140              		@ sp needed
 141 001c BDE8F08F 		pop	{r4, r5, r6, r7, r8, r9, r10, fp, pc}
 142              	.LVL7:
 143              	.L29:
 144              	.LCFI5:
 145              		.cfi_restore_state
 162:/Users/imashio/Electronics/ARM/_Library/u8x8_d_ssd1322.c **** 	u8x8_cad_SendSequence(u8x8, u8x8_d_ssd1322_powersave0_seq);
 146              		.loc 1 162 0
 147 0020 002A     		cmp	r2, #0
 148 0022 40F09680 		bne	.L11
 163:/Users/imashio/Electronics/ARM/_Library/u8x8_d_ssd1322.c ****       else
 149              		.loc 1 163 0
 150 0026 4E49     		ldr	r1, .L30
 151              	.LVL8:
 152 0028 FFF7FEFF 		bl	u8x8_cad_SendSequence
 153              	.LVL9:
 218:/Users/imashio/Electronics/ARM/_Library/u8x8_d_ssd1322.c **** }
 154              		.loc 1 218 0
 155 002c 0120     		movs	r0, #1
 156              		.loc 1 219 0
 157 002e 03B0     		add	sp, sp, #12
 158              	.LCFI6:
 159              		.cfi_remember_state
 160              		.cfi_def_cfa_offset 36
 161              		@ sp needed
 162 0030 BDE8F08F 		pop	{r4, r5, r6, r7, r8, r9, r10, fp, pc}
 163              	.LVL10:
 164              	.L9:
 165              	.LCFI7:
 166              		.cfi_restore_state
 167 0034 9A46     		mov	r10, r3
 168              	.LVL11:
 169              	.LBB14:
 170              	.LBB15:
 176:/Users/imashio/Electronics/ARM/_Library/u8x8_d_ssd1322.c ****       x = ((u8x8_tile_t *)arg_ptr)->x_pos;    
 171              		.loc 1 176 0
 172 0036 FFF7FEFF 		bl	u8x8_cad_StartTransfer
ARM GAS  /var/folders/v3/wysfpd052nz8jkbx04pk0ym80000gn/T//ccsUtHhW.s 			page 8


 173              	.LVL12:
 181:/Users/imashio/Electronics/ARM/_Library/u8x8_d_ssd1322.c ****       y *= 8;
 174              		.loc 1 181 0
 175 003a 9AF80640 		ldrb	r4, [r10, #6]	@ zero_extendqisi2
 177:/Users/imashio/Electronics/ARM/_Library/u8x8_d_ssd1322.c ****       x *= 2;		// only every 4th col can be addressed
 176              		.loc 1 177 0
 177 003e 9AF80520 		ldrb	r2, [r10, #5]	@ zero_extendqisi2
 178              	.LVL13:
 179:/Users/imashio/Electronics/ARM/_Library/u8x8_d_ssd1322.c ****     
 179              		.loc 1 179 0
 180 0042 AB7F     		ldrb	r3, [r5, #30]	@ zero_extendqisi2
 181 0044 474F     		ldr	r7, .L30+4
 182:/Users/imashio/Electronics/ARM/_Library/u8x8_d_ssd1322.c ****     
 182              		.loc 1 182 0
 183 0046 E400     		lsls	r4, r4, #3
 179:/Users/imashio/Electronics/ARM/_Library/u8x8_d_ssd1322.c ****     
 184              		.loc 1 179 0
 185 0048 03EB4203 		add	r3, r3, r2, lsl #1
 182:/Users/imashio/Electronics/ARM/_Library/u8x8_d_ssd1322.c ****     
 186              		.loc 1 182 0
 187 004c E4B2     		uxtb	r4, r4
 185:/Users/imashio/Electronics/ARM/_Library/u8x8_d_ssd1322.c ****       u8x8_cad_SendArg(u8x8, y);
 188              		.loc 1 185 0
 189 004e 7521     		movs	r1, #117
 190 0050 2846     		mov	r0, r5
 179:/Users/imashio/Electronics/ARM/_Library/u8x8_d_ssd1322.c ****     
 191              		.loc 1 179 0
 192 0052 03F0FF09 		and	r9, r3, #255
 193              	.LVL14:
 185:/Users/imashio/Electronics/ARM/_Library/u8x8_d_ssd1322.c ****       u8x8_cad_SendArg(u8x8, y);
 194              		.loc 1 185 0
 195 0056 FFF7FEFF 		bl	u8x8_cad_SendCmd
 196              	.LVL15:
 186:/Users/imashio/Electronics/ARM/_Library/u8x8_d_ssd1322.c ****       u8x8_cad_SendArg(u8x8, y+7);
 197              		.loc 1 186 0
 198 005a 2146     		mov	r1, r4
 199 005c 2846     		mov	r0, r5
 200 005e FFF7FEFF 		bl	u8x8_cad_SendArg
 201              	.LVL16:
 187:/Users/imashio/Electronics/ARM/_Library/u8x8_d_ssd1322.c ****       
 202              		.loc 1 187 0
 203 0062 E11D     		adds	r1, r4, #7
 204 0064 C9B2     		uxtb	r1, r1
 205 0066 2846     		mov	r0, r5
 206 0068 FFF7FEFF 		bl	u8x8_cad_SendArg
 207              	.LVL17:
 202:/Users/imashio/Electronics/ARM/_Library/u8x8_d_ssd1322.c **** 	  
 208              		.loc 1 202 0
 209 006c A7F12408 		sub	r8, r7, #36
 210              	.LVL18:
 211              	.L17:
 191:/Users/imashio/Electronics/ARM/_Library/u8x8_d_ssd1322.c **** 	ptr = ((u8x8_tile_t *)arg_ptr)->tile_ptr;
 212              		.loc 1 191 0
 213 0070 9AF80430 		ldrb	r3, [r10, #4]	@ zero_extendqisi2
 214 0074 0193     		str	r3, [sp, #4]
 215 0076 1A46     		mov	r2, r3
 216              	.LVL19:
ARM GAS  /var/folders/v3/wysfpd052nz8jkbx04pk0ym80000gn/T//ccsUtHhW.s 			page 9


 217 0078 DAF80030 		ldr	r3, [r10]
 218 007c 561E     		subs	r6, r2, #1
 219 007e F6B2     		uxtb	r6, r6
 220 0080 03F11202 		add	r2, r3, #18
 221              	.LVL20:
 222 0084 0821     		movs	r1, #8
 223 0086 11FB0626 		smlabb	r6, r1, r6, r2
 224 008a 03F10A0B 		add	fp, r3, #10
 192:/Users/imashio/Electronics/ARM/_Library/u8x8_d_ssd1322.c **** 
 225              		.loc 1 192 0
 226 008e 4C46     		mov	r4, r9
 227              	.LVL21:
 228              	.L16:
 196:/Users/imashio/Electronics/ARM/_Library/u8x8_d_ssd1322.c **** 	  u8x8_cad_SendArg(u8x8, x );	/* start */
 229              		.loc 1 196 0
 230 0090 1521     		movs	r1, #21
 231 0092 2846     		mov	r0, r5
 232 0094 FFF7FEFF 		bl	u8x8_cad_SendCmd
 233              	.LVL22:
 197:/Users/imashio/Electronics/ARM/_Library/u8x8_d_ssd1322.c **** 	  u8x8_cad_SendArg(u8x8, x+1 );	/* end */
 234              		.loc 1 197 0
 235 0098 2146     		mov	r1, r4
 236 009a 2846     		mov	r0, r5
 237 009c FFF7FEFF 		bl	u8x8_cad_SendArg
 238              	.LVL23:
 198:/Users/imashio/Electronics/ARM/_Library/u8x8_d_ssd1322.c **** 
 239              		.loc 1 198 0
 240 00a0 611C     		adds	r1, r4, #1
 241 00a2 C9B2     		uxtb	r1, r1
 242 00a4 2846     		mov	r0, r5
 243 00a6 FFF7FEFF 		bl	u8x8_cad_SendArg
 244              	.LVL24:
 200:/Users/imashio/Electronics/ARM/_Library/u8x8_d_ssd1322.c **** 	  
 245              		.loc 1 200 0
 246 00aa 5C21     		movs	r1, #92
 247 00ac 2846     		mov	r0, r5
 248 00ae FFF7FEFF 		bl	u8x8_cad_SendCmd
 249              	.LVL25:
 250 00b2 ABF1080E 		sub	lr, fp, #8
 251 00b6 BC46     		mov	ip, r7
 252              	.LVL26:
 253              	.L15:
 254              	.LBB16:
 255              	.LBB17:
  99:/Users/imashio/Electronics/ARM/_Library/u8x8_d_ssd1322.c ****     ptr++;
 256              		.loc 1 99 0
 257 00b8 1EF8021C 		ldrb	r1, [lr, #-2]	@ zero_extendqisi2
 258              	.LVL27:
 101:/Users/imashio/Electronics/ARM/_Library/u8x8_d_ssd1322.c ****     ptr++;
 259              		.loc 1 101 0
 260 00bc 1EF8012C 		ldrb	r2, [lr, #-1]	@ zero_extendqisi2
 261              	.LVL28:
 262 00c0 ACF12003 		sub	r3, ip, #32
 263              	.LVL29:
 264              	.L14:
 106:/Users/imashio/Electronics/ARM/_Library/u8x8_d_ssd1322.c ****       if ( b&1 ) v |= 0x0f;
 265              		.loc 1 106 0
ARM GAS  /var/folders/v3/wysfpd052nz8jkbx04pk0ym80000gn/T//ccsUtHhW.s 			page 10


 266 00c4 11F0010F 		tst	r1, #1
 267 00c8 14BF     		ite	ne
 268 00ca F020     		movne	r0, #240
 269 00cc 0020     		moveq	r0, #0
 270              	.LVL30:
 107:/Users/imashio/Electronics/ARM/_Library/u8x8_d_ssd1322.c ****       *dest = v;
 271              		.loc 1 107 0
 272 00ce 12F0010F 		tst	r2, #1
 273 00d2 18BF     		it	ne
 274 00d4 40F00F00 		orrne	r0, r0, #15
 275              	.LVL31:
 108:/Users/imashio/Electronics/ARM/_Library/u8x8_d_ssd1322.c ****       dest+=4;
 276              		.loc 1 108 0
 277 00d8 03F8040C 		strb	r0, [r3, #-4]
 278              	.LVL32:
 279 00dc 0433     		adds	r3, r3, #4
 280              	.LVL33:
 103:/Users/imashio/Electronics/ARM/_Library/u8x8_d_ssd1322.c ****     {
 281              		.loc 1 103 0
 282 00de 6345     		cmp	r3, ip
 110:/Users/imashio/Electronics/ARM/_Library/u8x8_d_ssd1322.c ****       b >>= 1;
 283              		.loc 1 110 0
 284 00e0 4FEA5101 		lsr	r1, r1, #1
 285              	.LVL34:
 111:/Users/imashio/Electronics/ARM/_Library/u8x8_d_ssd1322.c ****     }
 286              		.loc 1 111 0
 287 00e4 4FEA5202 		lsr	r2, r2, #1
 288              	.LVL35:
 103:/Users/imashio/Electronics/ARM/_Library/u8x8_d_ssd1322.c ****     {
 289              		.loc 1 103 0
 290 00e8 ECD1     		bne	.L14
 291              	.LVL36:
 292 00ea 0EF1020E 		add	lr, lr, #2
 293              	.LVL37:
  95:/Users/imashio/Electronics/ARM/_Library/u8x8_d_ssd1322.c ****   {
 294              		.loc 1 95 0
 295 00ee F345     		cmp	fp, lr
 296 00f0 03F1010C 		add	ip, r3, #1
 297 00f4 E0D1     		bne	.L15
 298              	.LVL38:
 299              	.LBE17:
 300              	.LBE16:
 202:/Users/imashio/Electronics/ARM/_Library/u8x8_d_ssd1322.c **** 	  
 301              		.loc 1 202 0
 302 00f6 4246     		mov	r2, r8
 303 00f8 2021     		movs	r1, #32
 304 00fa 2846     		mov	r0, r5
 305 00fc 0BF1080B 		add	fp, fp, #8
 306              	.LVL39:
 307 0100 FFF7FEFF 		bl	u8x8_cad_SendData
 308              	.LVL40:
 205:/Users/imashio/Electronics/ARM/_Library/u8x8_d_ssd1322.c **** 	  c--;
 309              		.loc 1 205 0
 310 0104 0234     		adds	r4, r4, #2
 311              	.LVL41:
 207:/Users/imashio/Electronics/ARM/_Library/u8x8_d_ssd1322.c **** 	
 312              		.loc 1 207 0
ARM GAS  /var/folders/v3/wysfpd052nz8jkbx04pk0ym80000gn/T//ccsUtHhW.s 			page 11


 313 0106 B345     		cmp	fp, r6
 205:/Users/imashio/Electronics/ARM/_Library/u8x8_d_ssd1322.c **** 	  c--;
 314              		.loc 1 205 0
 315 0108 E4B2     		uxtb	r4, r4
 316              	.LVL42:
 207:/Users/imashio/Electronics/ARM/_Library/u8x8_d_ssd1322.c **** 	
 317              		.loc 1 207 0
 318 010a C1D1     		bne	.L16
 319 010c 019B     		ldr	r3, [sp, #4]
 320 010e 09EB4309 		add	r9, r9, r3, lsl #1
 210:/Users/imashio/Electronics/ARM/_Library/u8x8_d_ssd1322.c ****       } while( arg_int > 0 );
 321              		.loc 1 210 0
 322 0112 009B     		ldr	r3, [sp]
 323 0114 013B     		subs	r3, r3, #1
 324              	.LVL43:
 211:/Users/imashio/Electronics/ARM/_Library/u8x8_d_ssd1322.c ****       
 325              		.loc 1 211 0
 326 0116 13F0FF03 		ands	r3, r3, #255
 327              	.LVL44:
 328 011a 5FFA89F9 		uxtb	r9, r9
 329 011e 0093     		str	r3, [sp]
 330              	.LVL45:
 331 0120 A6D1     		bne	.L17
 213:/Users/imashio/Electronics/ARM/_Library/u8x8_d_ssd1322.c ****       break;
 332              		.loc 1 213 0
 333 0122 2846     		mov	r0, r5
 334 0124 FFF7FEFF 		bl	u8x8_cad_EndTransfer
 335              	.LVL46:
 336 0128 0120     		movs	r0, #1
 337              	.LBE15:
 338              	.LBE14:
 339              		.loc 1 219 0
 340 012a 03B0     		add	sp, sp, #12
 341              	.LCFI8:
 342              		.cfi_remember_state
 343              		.cfi_def_cfa_offset 36
 344              		@ sp needed
 345 012c BDE8F08F 		pop	{r4, r5, r6, r7, r8, r9, r10, fp, pc}
 346              	.LVL47:
 347              	.L8:
 348              	.LCFI9:
 349              		.cfi_restore_state
 169:/Users/imashio/Electronics/ARM/_Library/u8x8_d_ssd1322.c ****       u8x8_cad_SendCmd(u8x8, 0x0C1 );
 350              		.loc 1 169 0
 351 0130 FFF7FEFF 		bl	u8x8_cad_StartTransfer
 352              	.LVL48:
 170:/Users/imashio/Electronics/ARM/_Library/u8x8_d_ssd1322.c ****       u8x8_cad_SendArg(u8x8, arg_int );	/* ssd1322 has range from 0 to 255 */
 353              		.loc 1 170 0
 354 0134 C121     		movs	r1, #193
 355 0136 2846     		mov	r0, r5
 356 0138 FFF7FEFF 		bl	u8x8_cad_SendCmd
 357              	.LVL49:
 171:/Users/imashio/Electronics/ARM/_Library/u8x8_d_ssd1322.c ****       u8x8_cad_EndTransfer(u8x8);
 358              		.loc 1 171 0
 359 013c 0099     		ldr	r1, [sp]
 360 013e 2846     		mov	r0, r5
 361 0140 FFF7FEFF 		bl	u8x8_cad_SendArg
ARM GAS  /var/folders/v3/wysfpd052nz8jkbx04pk0ym80000gn/T//ccsUtHhW.s 			page 12


 362              	.LVL50:
 172:/Users/imashio/Electronics/ARM/_Library/u8x8_d_ssd1322.c ****       break;
 363              		.loc 1 172 0
 364 0144 2846     		mov	r0, r5
 365 0146 FFF7FEFF 		bl	u8x8_cad_EndTransfer
 366              	.LVL51:
 218:/Users/imashio/Electronics/ARM/_Library/u8x8_d_ssd1322.c **** }
 367              		.loc 1 218 0
 368 014a 0120     		movs	r0, #1
 369              		.loc 1 219 0
 370 014c 03B0     		add	sp, sp, #12
 371              	.LCFI10:
 372              		.cfi_remember_state
 373              		.cfi_def_cfa_offset 36
 374              		@ sp needed
 375 014e BDE8F08F 		pop	{r4, r5, r6, r7, r8, r9, r10, fp, pc}
 376              	.LVL52:
 377              	.L11:
 378              	.LCFI11:
 379              		.cfi_restore_state
 165:/Users/imashio/Electronics/ARM/_Library/u8x8_d_ssd1322.c ****       break;
 380              		.loc 1 165 0
 381 0152 0549     		ldr	r1, .L30+8
 382              	.LVL53:
 383 0154 FFF7FEFF 		bl	u8x8_cad_SendSequence
 384              	.LVL54:
 218:/Users/imashio/Electronics/ARM/_Library/u8x8_d_ssd1322.c **** }
 385              		.loc 1 218 0
 386 0158 0120     		movs	r0, #1
 387              		.loc 1 219 0
 388 015a 03B0     		add	sp, sp, #12
 389              	.LCFI12:
 390              		.cfi_def_cfa_offset 36
 391              		@ sp needed
 392 015c BDE8F08F 		pop	{r4, r5, r6, r7, r8, r9, r10, fp, pc}
 393              	.LVL55:
 394              	.L31:
 395              		.align	2
 396              	.L30:
 397 0160 00000000 		.word	.LANCHOR2
 398 0164 24000000 		.word	.LANCHOR4+36
 399 0168 00000000 		.word	.LANCHOR3
 400              		.cfi_endproc
 401              	.LFE3:
 403              		.section	.text.u8x8_d_ssd1322_nhd_256x64,"ax",%progbits
 404              		.align	1
 405              		.p2align 2,,3
 406              		.global	u8x8_d_ssd1322_nhd_256x64
 407              		.syntax unified
 408              		.thumb
 409              		.thumb_func
 410              		.fpu fpv4-sp-d16
 412              	u8x8_d_ssd1322_nhd_256x64:
 413              	.LFB4:
 220:/Users/imashio/Electronics/ARM/_Library/u8x8_d_ssd1322.c **** 
 221:/Users/imashio/Electronics/ARM/_Library/u8x8_d_ssd1322.c **** /*=========================================================*/
 222:/Users/imashio/Electronics/ARM/_Library/u8x8_d_ssd1322.c **** 
ARM GAS  /var/folders/v3/wysfpd052nz8jkbx04pk0ym80000gn/T//ccsUtHhW.s 			page 13


 223:/Users/imashio/Electronics/ARM/_Library/u8x8_d_ssd1322.c **** static const uint8_t u8x8_d_ssd1322_256x64_flip0_seq[] = {
 224:/Users/imashio/Electronics/ARM/_Library/u8x8_d_ssd1322.c ****   U8X8_START_TRANSFER(),             	/* enable chip, delay is part of the transfer start */
 225:/Users/imashio/Electronics/ARM/_Library/u8x8_d_ssd1322.c ****   U8X8_CAA(0x0a0, 0x006, 0x011),		/* remap */
 226:/Users/imashio/Electronics/ARM/_Library/u8x8_d_ssd1322.c ****   U8X8_END_TRANSFER(),             	/* disable chip */
 227:/Users/imashio/Electronics/ARM/_Library/u8x8_d_ssd1322.c ****   U8X8_END()             			/* end of sequence */
 228:/Users/imashio/Electronics/ARM/_Library/u8x8_d_ssd1322.c **** };
 229:/Users/imashio/Electronics/ARM/_Library/u8x8_d_ssd1322.c **** 
 230:/Users/imashio/Electronics/ARM/_Library/u8x8_d_ssd1322.c **** static const uint8_t u8x8_d_ssd1322_256x64_flip1_seq[] = {
 231:/Users/imashio/Electronics/ARM/_Library/u8x8_d_ssd1322.c ****   U8X8_START_TRANSFER(),             	/* enable chip, delay is part of the transfer start */
 232:/Users/imashio/Electronics/ARM/_Library/u8x8_d_ssd1322.c ****   U8X8_CAA(0x0a0, 0x014, 0x011),		/* remap */
 233:/Users/imashio/Electronics/ARM/_Library/u8x8_d_ssd1322.c ****   U8X8_END_TRANSFER(),             	/* disable chip */
 234:/Users/imashio/Electronics/ARM/_Library/u8x8_d_ssd1322.c ****   U8X8_END()             			/* end of sequence */
 235:/Users/imashio/Electronics/ARM/_Library/u8x8_d_ssd1322.c **** };
 236:/Users/imashio/Electronics/ARM/_Library/u8x8_d_ssd1322.c **** 
 237:/Users/imashio/Electronics/ARM/_Library/u8x8_d_ssd1322.c **** static const u8x8_display_info_t u8x8_ssd1322_256x64_display_info =
 238:/Users/imashio/Electronics/ARM/_Library/u8x8_d_ssd1322.c **** {
 239:/Users/imashio/Electronics/ARM/_Library/u8x8_d_ssd1322.c ****   /* chip_enable_level = */ 0,
 240:/Users/imashio/Electronics/ARM/_Library/u8x8_d_ssd1322.c ****   /* chip_disable_level = */ 1,
 241:/Users/imashio/Electronics/ARM/_Library/u8x8_d_ssd1322.c ****   
 242:/Users/imashio/Electronics/ARM/_Library/u8x8_d_ssd1322.c ****   /* post_chip_enable_wait_ns = */ 20,
 243:/Users/imashio/Electronics/ARM/_Library/u8x8_d_ssd1322.c ****   /* pre_chip_disable_wait_ns = */ 10,
 244:/Users/imashio/Electronics/ARM/_Library/u8x8_d_ssd1322.c ****   /* reset_pulse_width_ms = */ 100, 	/* SSD1322: 2 us */
 245:/Users/imashio/Electronics/ARM/_Library/u8x8_d_ssd1322.c ****   /* post_reset_wait_ms = */ 100, /* far east OLEDs need much longer setup time */
 246:/Users/imashio/Electronics/ARM/_Library/u8x8_d_ssd1322.c ****   /* sda_setup_time_ns = */ 50,		/* SSD1322: 15ns, but cycle time is 100ns, so use 100/2 */
 247:/Users/imashio/Electronics/ARM/_Library/u8x8_d_ssd1322.c ****   /* sck_pulse_width_ns = */ 50,	/* SSD1322: 20ns, but cycle time is 100ns, so use 100/2, AVR: belo
 248:/Users/imashio/Electronics/ARM/_Library/u8x8_d_ssd1322.c ****   /* sck_clock_hz = */ 10000000UL,	/* since Arduino 1.6.0, the SPI bus speed in Hz. Should be  1000
 249:/Users/imashio/Electronics/ARM/_Library/u8x8_d_ssd1322.c ****   /* spi_mode = */ 0,		/* active high, rising edge */
 250:/Users/imashio/Electronics/ARM/_Library/u8x8_d_ssd1322.c ****   /* i2c_bus_clock_100kHz = */ 4,
 251:/Users/imashio/Electronics/ARM/_Library/u8x8_d_ssd1322.c ****   /* data_setup_time_ns = */ 10,
 252:/Users/imashio/Electronics/ARM/_Library/u8x8_d_ssd1322.c ****   /* write_pulse_width_ns = */ 150,	/* SSD1322: cycle time is 300ns, so use 300/2 = 150 */
 253:/Users/imashio/Electronics/ARM/_Library/u8x8_d_ssd1322.c ****   /* tile_width = */ 32,		/* 256 pixel, so we require 32 bytes for this */
 254:/Users/imashio/Electronics/ARM/_Library/u8x8_d_ssd1322.c ****   /* tile_hight = */ 8,
 255:/Users/imashio/Electronics/ARM/_Library/u8x8_d_ssd1322.c ****   /* default_x_offset = */ 0x01c,	/* this is the byte offset (there are two pixel per byte with 4 b
 256:/Users/imashio/Electronics/ARM/_Library/u8x8_d_ssd1322.c ****   /* flipmode_x_offset = */ 0x01c,
 257:/Users/imashio/Electronics/ARM/_Library/u8x8_d_ssd1322.c ****   /* pixel_width = */ 256,
 258:/Users/imashio/Electronics/ARM/_Library/u8x8_d_ssd1322.c ****   /* pixel_height = */ 64
 259:/Users/imashio/Electronics/ARM/_Library/u8x8_d_ssd1322.c **** };
 260:/Users/imashio/Electronics/ARM/_Library/u8x8_d_ssd1322.c **** 
 261:/Users/imashio/Electronics/ARM/_Library/u8x8_d_ssd1322.c **** 
 262:/Users/imashio/Electronics/ARM/_Library/u8x8_d_ssd1322.c **** static const uint8_t u8x8_d_ssd1322_256x64_init_seq[] = {
 263:/Users/imashio/Electronics/ARM/_Library/u8x8_d_ssd1322.c ****     
 264:/Users/imashio/Electronics/ARM/_Library/u8x8_d_ssd1322.c ****   U8X8_DLY(1),
 265:/Users/imashio/Electronics/ARM/_Library/u8x8_d_ssd1322.c ****   U8X8_START_TRANSFER(),             	/* enable chip, delay is part of the transfer start */
 266:/Users/imashio/Electronics/ARM/_Library/u8x8_d_ssd1322.c ****   U8X8_DLY(1),
 267:/Users/imashio/Electronics/ARM/_Library/u8x8_d_ssd1322.c ****   
 268:/Users/imashio/Electronics/ARM/_Library/u8x8_d_ssd1322.c ****   U8X8_CA(0xfd, 0x12),            	/* unlock */
 269:/Users/imashio/Electronics/ARM/_Library/u8x8_d_ssd1322.c ****   U8X8_C(0xae),		                /* display off */
 270:/Users/imashio/Electronics/ARM/_Library/u8x8_d_ssd1322.c ****   U8X8_CA(0xb3, 0x91),			/* set display clock divide ratio/oscillator frequency (set clock as 80 fr
 271:/Users/imashio/Electronics/ARM/_Library/u8x8_d_ssd1322.c ****   U8X8_CA(0xca, 0x3f),			/* multiplex ratio 1/64 Duty (0x0F~0x3F) */  
 272:/Users/imashio/Electronics/ARM/_Library/u8x8_d_ssd1322.c ****   U8X8_CA(0xa2, 0x00),			/* display offset, shift mapping ram counter */  
 273:/Users/imashio/Electronics/ARM/_Library/u8x8_d_ssd1322.c ****   U8X8_CA(0xa1, 0x00),			/* display start line */  
 274:/Users/imashio/Electronics/ARM/_Library/u8x8_d_ssd1322.c ****   //U8X8_CAA(0xa0, 0x14, 0x11),	/* Set Re-Map / Dual COM Line Mode */  
 275:/Users/imashio/Electronics/ARM/_Library/u8x8_d_ssd1322.c ****   U8X8_CAA(0xa0, 0x06, 0x011),	/* Set Re-Map / Dual COM Line Mode */  
 276:/Users/imashio/Electronics/ARM/_Library/u8x8_d_ssd1322.c ****   U8X8_CA(0xab, 0x01),			/* Enable Internal VDD Regulator */  
 277:/Users/imashio/Electronics/ARM/_Library/u8x8_d_ssd1322.c ****   U8X8_CAA(0xb4, 0xa0, 0x005|0x0fd),	/* Display Enhancement A */  
 278:/Users/imashio/Electronics/ARM/_Library/u8x8_d_ssd1322.c ****   U8X8_CA(0xc1, 0x9f),			/* contrast */  
 279:/Users/imashio/Electronics/ARM/_Library/u8x8_d_ssd1322.c ****   U8X8_CA(0xc7, 0x0f),			/* Set Scale Factor of Segment Output Current Control */  
ARM GAS  /var/folders/v3/wysfpd052nz8jkbx04pk0ym80000gn/T//ccsUtHhW.s 			page 14


 280:/Users/imashio/Electronics/ARM/_Library/u8x8_d_ssd1322.c ****   U8X8_C(0xb9),		                /* linear grayscale */
 281:/Users/imashio/Electronics/ARM/_Library/u8x8_d_ssd1322.c ****   U8X8_CA(0xb1, 0xe2),			/* Phase 1 (Reset) & Phase 2 (Pre-Charge) Period Adjustment */  
 282:/Users/imashio/Electronics/ARM/_Library/u8x8_d_ssd1322.c ****   U8X8_CAA(0xd1, 0x082|0x020, 0x020),	/* Display Enhancement B */  
 283:/Users/imashio/Electronics/ARM/_Library/u8x8_d_ssd1322.c ****   U8X8_CA(0xbb, 0x1f),			/* precharge  voltage */  
 284:/Users/imashio/Electronics/ARM/_Library/u8x8_d_ssd1322.c ****   U8X8_CA(0xb6, 0x08),			/* precharge  period */  
 285:/Users/imashio/Electronics/ARM/_Library/u8x8_d_ssd1322.c ****   U8X8_CA(0xbe, 0x07),			/* vcomh */  
 286:/Users/imashio/Electronics/ARM/_Library/u8x8_d_ssd1322.c ****   U8X8_C(0xa6),		                /* normal display */
 287:/Users/imashio/Electronics/ARM/_Library/u8x8_d_ssd1322.c ****   U8X8_C(0xa9),		                /* exit partial display */
 288:/Users/imashio/Electronics/ARM/_Library/u8x8_d_ssd1322.c **** 
 289:/Users/imashio/Electronics/ARM/_Library/u8x8_d_ssd1322.c **** 
 290:/Users/imashio/Electronics/ARM/_Library/u8x8_d_ssd1322.c ****   U8X8_DLY(1),					/* delay 2ms */
 291:/Users/imashio/Electronics/ARM/_Library/u8x8_d_ssd1322.c **** 
 292:/Users/imashio/Electronics/ARM/_Library/u8x8_d_ssd1322.c ****   
 293:/Users/imashio/Electronics/ARM/_Library/u8x8_d_ssd1322.c ****   U8X8_END_TRANSFER(),             	/* disable chip */
 294:/Users/imashio/Electronics/ARM/_Library/u8x8_d_ssd1322.c ****   U8X8_END()             			/* end of sequence */
 295:/Users/imashio/Electronics/ARM/_Library/u8x8_d_ssd1322.c **** };
 296:/Users/imashio/Electronics/ARM/_Library/u8x8_d_ssd1322.c **** 
 297:/Users/imashio/Electronics/ARM/_Library/u8x8_d_ssd1322.c **** 
 298:/Users/imashio/Electronics/ARM/_Library/u8x8_d_ssd1322.c **** uint8_t u8x8_d_ssd1322_nhd_256x64(u8x8_t *u8x8, uint8_t msg, uint8_t arg_int, void *arg_ptr)
 299:/Users/imashio/Electronics/ARM/_Library/u8x8_d_ssd1322.c **** {
 414              		.loc 1 299 0
 415              		.cfi_startproc
 416              		@ args = 0, pretend = 0, frame = 0
 417              		@ frame_needed = 0, uses_anonymous_args = 0
 418              	.LVL56:
 300:/Users/imashio/Electronics/ARM/_Library/u8x8_d_ssd1322.c ****   switch(msg)
 419              		.loc 1 300 0
 420 0000 0A29     		cmp	r1, #10
 299:/Users/imashio/Electronics/ARM/_Library/u8x8_d_ssd1322.c ****   switch(msg)
 421              		.loc 1 299 0
 422 0002 70B5     		push	{r4, r5, r6, lr}
 423              	.LCFI13:
 424              		.cfi_def_cfa_offset 16
 425              		.cfi_offset 4, -16
 426              		.cfi_offset 5, -12
 427              		.cfi_offset 6, -8
 428              		.cfi_offset 14, -4
 299:/Users/imashio/Electronics/ARM/_Library/u8x8_d_ssd1322.c ****   switch(msg)
 429              		.loc 1 299 0
 430 0004 0546     		mov	r5, r0
 431              		.loc 1 300 0
 432 0006 15D0     		beq	.L34
 433 0008 0D29     		cmp	r1, #13
 434 000a 0AD0     		beq	.L35
 435 000c 0929     		cmp	r1, #9
 436 000e 03D0     		beq	.L41
 301:/Users/imashio/Electronics/ARM/_Library/u8x8_d_ssd1322.c ****   {
 302:/Users/imashio/Electronics/ARM/_Library/u8x8_d_ssd1322.c ****     case U8X8_MSG_DISPLAY_SETUP_MEMORY:
 303:/Users/imashio/Electronics/ARM/_Library/u8x8_d_ssd1322.c ****       u8x8_d_helper_display_setup_memory(u8x8, &u8x8_ssd1322_256x64_display_info);
 304:/Users/imashio/Electronics/ARM/_Library/u8x8_d_ssd1322.c ****       break;
 305:/Users/imashio/Electronics/ARM/_Library/u8x8_d_ssd1322.c ****     case U8X8_MSG_DISPLAY_INIT:
 306:/Users/imashio/Electronics/ARM/_Library/u8x8_d_ssd1322.c ****       u8x8_d_helper_display_init(u8x8);
 307:/Users/imashio/Electronics/ARM/_Library/u8x8_d_ssd1322.c ****       u8x8_cad_SendSequence(u8x8, u8x8_d_ssd1322_256x64_init_seq);
 308:/Users/imashio/Electronics/ARM/_Library/u8x8_d_ssd1322.c ****       break;
 309:/Users/imashio/Electronics/ARM/_Library/u8x8_d_ssd1322.c ****     case U8X8_MSG_DISPLAY_SET_FLIP_MODE:
 310:/Users/imashio/Electronics/ARM/_Library/u8x8_d_ssd1322.c ****       if ( arg_int == 0 )
 311:/Users/imashio/Electronics/ARM/_Library/u8x8_d_ssd1322.c ****       {
ARM GAS  /var/folders/v3/wysfpd052nz8jkbx04pk0ym80000gn/T//ccsUtHhW.s 			page 15


 312:/Users/imashio/Electronics/ARM/_Library/u8x8_d_ssd1322.c **** 	u8x8_cad_SendSequence(u8x8, u8x8_d_ssd1322_256x64_flip0_seq);
 313:/Users/imashio/Electronics/ARM/_Library/u8x8_d_ssd1322.c **** 	u8x8->x_offset = u8x8->display_info->default_x_offset;
 314:/Users/imashio/Electronics/ARM/_Library/u8x8_d_ssd1322.c ****       }
 315:/Users/imashio/Electronics/ARM/_Library/u8x8_d_ssd1322.c ****       else
 316:/Users/imashio/Electronics/ARM/_Library/u8x8_d_ssd1322.c ****       {
 317:/Users/imashio/Electronics/ARM/_Library/u8x8_d_ssd1322.c **** 	u8x8_cad_SendSequence(u8x8, u8x8_d_ssd1322_256x64_flip1_seq);
 318:/Users/imashio/Electronics/ARM/_Library/u8x8_d_ssd1322.c **** 	u8x8->x_offset = u8x8->display_info->flipmode_x_offset;
 319:/Users/imashio/Electronics/ARM/_Library/u8x8_d_ssd1322.c ****       }
 320:/Users/imashio/Electronics/ARM/_Library/u8x8_d_ssd1322.c ****       break;
 321:/Users/imashio/Electronics/ARM/_Library/u8x8_d_ssd1322.c ****     
 322:/Users/imashio/Electronics/ARM/_Library/u8x8_d_ssd1322.c ****     default:
 323:/Users/imashio/Electronics/ARM/_Library/u8x8_d_ssd1322.c ****       return u8x8_d_ssd1322_common(u8x8, msg, arg_int, arg_ptr);
 324:/Users/imashio/Electronics/ARM/_Library/u8x8_d_ssd1322.c ****   }
 325:/Users/imashio/Electronics/ARM/_Library/u8x8_d_ssd1322.c ****   return 1;
 326:/Users/imashio/Electronics/ARM/_Library/u8x8_d_ssd1322.c **** }
 437              		.loc 1 326 0
 438 0010 BDE87040 		pop	{r4, r5, r6, lr}
 439              	.LCFI14:
 440              		.cfi_remember_state
 441              		.cfi_restore 14
 442              		.cfi_restore 6
 443              		.cfi_restore 5
 444              		.cfi_restore 4
 445              		.cfi_def_cfa_offset 0
 323:/Users/imashio/Electronics/ARM/_Library/u8x8_d_ssd1322.c ****   }
 446              		.loc 1 323 0
 447 0014 FFF7FEBF 		b	u8x8_d_ssd1322_common
 448              	.LVL57:
 449              	.L41:
 450              	.LCFI15:
 451              		.cfi_restore_state
 303:/Users/imashio/Electronics/ARM/_Library/u8x8_d_ssd1322.c ****       break;
 452              		.loc 1 303 0
 453 0018 0E49     		ldr	r1, .L42
 454              	.LVL58:
 455 001a FFF7FEFF 		bl	u8x8_d_helper_display_setup_memory
 456              	.LVL59:
 457              		.loc 1 326 0
 458 001e 0120     		movs	r0, #1
 459 0020 70BD     		pop	{r4, r5, r6, pc}
 460              	.LVL60:
 461              	.L35:
 310:/Users/imashio/Electronics/ARM/_Library/u8x8_d_ssd1322.c ****       {
 462              		.loc 1 310 0
 463 0022 7AB9     		cbnz	r2, .L38
 312:/Users/imashio/Electronics/ARM/_Library/u8x8_d_ssd1322.c **** 	u8x8->x_offset = u8x8->display_info->default_x_offset;
 464              		.loc 1 312 0
 465 0024 0C49     		ldr	r1, .L42+4
 466              	.LVL61:
 467 0026 FFF7FEFF 		bl	u8x8_cad_SendSequence
 468              	.LVL62:
 313:/Users/imashio/Electronics/ARM/_Library/u8x8_d_ssd1322.c ****       }
 469              		.loc 1 313 0
 470 002a 2B68     		ldr	r3, [r5]
 471 002c 9B7C     		ldrb	r3, [r3, #18]	@ zero_extendqisi2
 472 002e AB77     		strb	r3, [r5, #30]
 473              		.loc 1 326 0
ARM GAS  /var/folders/v3/wysfpd052nz8jkbx04pk0ym80000gn/T//ccsUtHhW.s 			page 16


 474 0030 0120     		movs	r0, #1
 475 0032 70BD     		pop	{r4, r5, r6, pc}
 476              	.LVL63:
 477              	.L34:
 306:/Users/imashio/Electronics/ARM/_Library/u8x8_d_ssd1322.c ****       u8x8_cad_SendSequence(u8x8, u8x8_d_ssd1322_256x64_init_seq);
 478              		.loc 1 306 0
 479 0034 FFF7FEFF 		bl	u8x8_d_helper_display_init
 480              	.LVL64:
 307:/Users/imashio/Electronics/ARM/_Library/u8x8_d_ssd1322.c ****       break;
 481              		.loc 1 307 0
 482 0038 2846     		mov	r0, r5
 483 003a 0849     		ldr	r1, .L42+8
 484 003c FFF7FEFF 		bl	u8x8_cad_SendSequence
 485              	.LVL65:
 486              		.loc 1 326 0
 487 0040 0120     		movs	r0, #1
 488 0042 70BD     		pop	{r4, r5, r6, pc}
 489              	.LVL66:
 490              	.L38:
 317:/Users/imashio/Electronics/ARM/_Library/u8x8_d_ssd1322.c **** 	u8x8->x_offset = u8x8->display_info->flipmode_x_offset;
 491              		.loc 1 317 0
 492 0044 0649     		ldr	r1, .L42+12
 493              	.LVL67:
 494 0046 FFF7FEFF 		bl	u8x8_cad_SendSequence
 495              	.LVL68:
 318:/Users/imashio/Electronics/ARM/_Library/u8x8_d_ssd1322.c ****       }
 496              		.loc 1 318 0
 497 004a 2B68     		ldr	r3, [r5]
 498 004c DB7C     		ldrb	r3, [r3, #19]	@ zero_extendqisi2
 499 004e AB77     		strb	r3, [r5, #30]
 500              		.loc 1 326 0
 501 0050 0120     		movs	r0, #1
 502 0052 70BD     		pop	{r4, r5, r6, pc}
 503              	.LVL69:
 504              	.L43:
 505              		.align	2
 506              	.L42:
 507 0054 00000000 		.word	.LANCHOR5
 508 0058 00000000 		.word	.LANCHOR7
 509 005c 00000000 		.word	.LANCHOR6
 510 0060 00000000 		.word	.LANCHOR8
 511              		.cfi_endproc
 512              	.LFE4:
 514              		.section	.text.u8x8_d_ssd1322_common2,"ax",%progbits
 515              		.align	1
 516              		.p2align 2,,3
 517              		.global	u8x8_d_ssd1322_common2
 518              		.syntax unified
 519              		.thumb
 520              		.thumb_func
 521              		.fpu fpv4-sp-d16
 523              	u8x8_d_ssd1322_common2:
 524              	.LFB5:
 327:/Users/imashio/Electronics/ARM/_Library/u8x8_d_ssd1322.c **** 
 328:/Users/imashio/Electronics/ARM/_Library/u8x8_d_ssd1322.c **** /*=========================================================*/
 329:/Users/imashio/Electronics/ARM/_Library/u8x8_d_ssd1322.c **** /* 
 330:/Users/imashio/Electronics/ARM/_Library/u8x8_d_ssd1322.c ****   NHD-2.7-12864WDW3-M 
ARM GAS  /var/folders/v3/wysfpd052nz8jkbx04pk0ym80000gn/T//ccsUtHhW.s 			page 17


 331:/Users/imashio/Electronics/ARM/_Library/u8x8_d_ssd1322.c ****   http://www.newhavendisplay.com/nhd2712864wdw3m-p-9546.html
 332:/Users/imashio/Electronics/ARM/_Library/u8x8_d_ssd1322.c ****   http://www.newhavendisplay.com/specs/NHD-2.7-12864WDW3-M.pdf
 333:/Users/imashio/Electronics/ARM/_Library/u8x8_d_ssd1322.c **** 
 334:/Users/imashio/Electronics/ARM/_Library/u8x8_d_ssd1322.c ****   It looks like that only every second pixel is connected to the OLED
 335:/Users/imashio/Electronics/ARM/_Library/u8x8_d_ssd1322.c **** */
 336:/Users/imashio/Electronics/ARM/_Library/u8x8_d_ssd1322.c **** 
 337:/Users/imashio/Electronics/ARM/_Library/u8x8_d_ssd1322.c **** uint8_t u8x8_d_ssd1322_common2(u8x8_t *u8x8, uint8_t msg, uint8_t arg_int, void *arg_ptr)
 338:/Users/imashio/Electronics/ARM/_Library/u8x8_d_ssd1322.c **** {
 525              		.loc 1 338 0
 526              		.cfi_startproc
 527              		@ args = 0, pretend = 0, frame = 16
 528              		@ frame_needed = 0, uses_anonymous_args = 0
 529              	.LVL70:
 530 0000 2DE9F04F 		push	{r4, r5, r6, r7, r8, r9, r10, fp, lr}
 531              	.LCFI16:
 532              		.cfi_def_cfa_offset 36
 533              		.cfi_offset 4, -36
 534              		.cfi_offset 5, -32
 535              		.cfi_offset 6, -28
 536              		.cfi_offset 7, -24
 537              		.cfi_offset 8, -20
 538              		.cfi_offset 9, -16
 539              		.cfi_offset 10, -12
 540              		.cfi_offset 11, -8
 541              		.cfi_offset 14, -4
 542 0004 85B0     		sub	sp, sp, #20
 543              	.LCFI17:
 544              		.cfi_def_cfa_offset 56
 339:/Users/imashio/Electronics/ARM/_Library/u8x8_d_ssd1322.c ****   uint8_t x; 
 340:/Users/imashio/Electronics/ARM/_Library/u8x8_d_ssd1322.c ****   uint8_t y, c;
 341:/Users/imashio/Electronics/ARM/_Library/u8x8_d_ssd1322.c ****   uint8_t *ptr;
 342:/Users/imashio/Electronics/ARM/_Library/u8x8_d_ssd1322.c ****   switch(msg)
 545              		.loc 1 342 0
 546 0006 0E29     		cmp	r1, #14
 338:/Users/imashio/Electronics/ARM/_Library/u8x8_d_ssd1322.c ****   uint8_t x; 
 547              		.loc 1 338 0
 548 0008 0292     		str	r2, [sp, #8]
 549 000a 0646     		mov	r6, r0
 550              		.loc 1 342 0
 551 000c 00F0B080 		beq	.L46
 552 0010 0F29     		cmp	r1, #15
 553 0012 0FD0     		beq	.L47
 554 0014 0B29     		cmp	r1, #11
 555 0016 03D0     		beq	.L65
 343:/Users/imashio/Electronics/ARM/_Library/u8x8_d_ssd1322.c ****   {
 344:/Users/imashio/Electronics/ARM/_Library/u8x8_d_ssd1322.c ****     /* U8X8_MSG_DISPLAY_SETUP_MEMORY is handled by the calling function */
 345:/Users/imashio/Electronics/ARM/_Library/u8x8_d_ssd1322.c ****     /*
 346:/Users/imashio/Electronics/ARM/_Library/u8x8_d_ssd1322.c ****     case U8X8_MSG_DISPLAY_SETUP_MEMORY:
 347:/Users/imashio/Electronics/ARM/_Library/u8x8_d_ssd1322.c ****       break;
 348:/Users/imashio/Electronics/ARM/_Library/u8x8_d_ssd1322.c ****     case U8X8_MSG_DISPLAY_INIT:
 349:/Users/imashio/Electronics/ARM/_Library/u8x8_d_ssd1322.c ****       u8x8_d_helper_display_init(u8x8);
 350:/Users/imashio/Electronics/ARM/_Library/u8x8_d_ssd1322.c ****       u8x8_cad_SendSequence(u8x8, u8x8_d_ssd1322_256x64_init_seq);
 351:/Users/imashio/Electronics/ARM/_Library/u8x8_d_ssd1322.c ****       break;
 352:/Users/imashio/Electronics/ARM/_Library/u8x8_d_ssd1322.c ****     */
 353:/Users/imashio/Electronics/ARM/_Library/u8x8_d_ssd1322.c ****     case U8X8_MSG_DISPLAY_SET_POWER_SAVE:
 354:/Users/imashio/Electronics/ARM/_Library/u8x8_d_ssd1322.c ****       if ( arg_int == 0 )
 355:/Users/imashio/Electronics/ARM/_Library/u8x8_d_ssd1322.c **** 	u8x8_cad_SendSequence(u8x8, u8x8_d_ssd1322_powersave0_seq);
ARM GAS  /var/folders/v3/wysfpd052nz8jkbx04pk0ym80000gn/T//ccsUtHhW.s 			page 18


 356:/Users/imashio/Electronics/ARM/_Library/u8x8_d_ssd1322.c ****       else
 357:/Users/imashio/Electronics/ARM/_Library/u8x8_d_ssd1322.c **** 	u8x8_cad_SendSequence(u8x8, u8x8_d_ssd1322_powersave1_seq);
 358:/Users/imashio/Electronics/ARM/_Library/u8x8_d_ssd1322.c ****       break;
 359:/Users/imashio/Electronics/ARM/_Library/u8x8_d_ssd1322.c **** #ifdef U8X8_WITH_SET_CONTRAST
 360:/Users/imashio/Electronics/ARM/_Library/u8x8_d_ssd1322.c ****     case U8X8_MSG_DISPLAY_SET_CONTRAST:
 361:/Users/imashio/Electronics/ARM/_Library/u8x8_d_ssd1322.c ****       u8x8_cad_StartTransfer(u8x8);
 362:/Users/imashio/Electronics/ARM/_Library/u8x8_d_ssd1322.c ****       u8x8_cad_SendCmd(u8x8, 0x0C1 );
 363:/Users/imashio/Electronics/ARM/_Library/u8x8_d_ssd1322.c ****       u8x8_cad_SendArg(u8x8, arg_int );	/* ssd1322 has range from 0 to 255 */
 364:/Users/imashio/Electronics/ARM/_Library/u8x8_d_ssd1322.c ****       u8x8_cad_EndTransfer(u8x8);
 365:/Users/imashio/Electronics/ARM/_Library/u8x8_d_ssd1322.c ****       break;
 366:/Users/imashio/Electronics/ARM/_Library/u8x8_d_ssd1322.c **** #endif
 367:/Users/imashio/Electronics/ARM/_Library/u8x8_d_ssd1322.c ****     case U8X8_MSG_DISPLAY_DRAW_TILE:
 368:/Users/imashio/Electronics/ARM/_Library/u8x8_d_ssd1322.c ****       u8x8_cad_StartTransfer(u8x8);
 369:/Users/imashio/Electronics/ARM/_Library/u8x8_d_ssd1322.c ****       x = ((u8x8_tile_t *)arg_ptr)->x_pos;    
 370:/Users/imashio/Electronics/ARM/_Library/u8x8_d_ssd1322.c ****       x *= 2;		// only every 4th col can be addressed
 371:/Users/imashio/Electronics/ARM/_Library/u8x8_d_ssd1322.c ****       x *= 2;		// only every second pixel is used in the 128x64 NHD OLED 
 372:/Users/imashio/Electronics/ARM/_Library/u8x8_d_ssd1322.c ****     
 373:/Users/imashio/Electronics/ARM/_Library/u8x8_d_ssd1322.c ****       x += u8x8->x_offset;
 374:/Users/imashio/Electronics/ARM/_Library/u8x8_d_ssd1322.c ****     
 375:/Users/imashio/Electronics/ARM/_Library/u8x8_d_ssd1322.c ****       y = (((u8x8_tile_t *)arg_ptr)->y_pos);
 376:/Users/imashio/Electronics/ARM/_Library/u8x8_d_ssd1322.c ****       y *= 8;
 377:/Users/imashio/Electronics/ARM/_Library/u8x8_d_ssd1322.c ****           
 378:/Users/imashio/Electronics/ARM/_Library/u8x8_d_ssd1322.c ****       u8x8_cad_SendCmd(u8x8, 0x075 );	/* set row address, moved out of the loop (issue 302) */
 379:/Users/imashio/Electronics/ARM/_Library/u8x8_d_ssd1322.c ****       u8x8_cad_SendArg(u8x8, y);
 380:/Users/imashio/Electronics/ARM/_Library/u8x8_d_ssd1322.c ****       u8x8_cad_SendArg(u8x8, y+7);
 381:/Users/imashio/Electronics/ARM/_Library/u8x8_d_ssd1322.c ****       
 382:/Users/imashio/Electronics/ARM/_Library/u8x8_d_ssd1322.c ****       do
 383:/Users/imashio/Electronics/ARM/_Library/u8x8_d_ssd1322.c ****       {
 384:/Users/imashio/Electronics/ARM/_Library/u8x8_d_ssd1322.c **** 	c = ((u8x8_tile_t *)arg_ptr)->cnt;
 385:/Users/imashio/Electronics/ARM/_Library/u8x8_d_ssd1322.c **** 	ptr = ((u8x8_tile_t *)arg_ptr)->tile_ptr;
 386:/Users/imashio/Electronics/ARM/_Library/u8x8_d_ssd1322.c **** 
 387:/Users/imashio/Electronics/ARM/_Library/u8x8_d_ssd1322.c **** 	do
 388:/Users/imashio/Electronics/ARM/_Library/u8x8_d_ssd1322.c **** 	{
 389:/Users/imashio/Electronics/ARM/_Library/u8x8_d_ssd1322.c **** 	  u8x8_cad_SendCmd(u8x8, 0x015 );	/* set column address */
 390:/Users/imashio/Electronics/ARM/_Library/u8x8_d_ssd1322.c **** 	  u8x8_cad_SendArg(u8x8, x );	/* start */
 391:/Users/imashio/Electronics/ARM/_Library/u8x8_d_ssd1322.c **** 	  u8x8_cad_SendArg(u8x8, x+1 );	/* end */
 392:/Users/imashio/Electronics/ARM/_Library/u8x8_d_ssd1322.c **** 	  u8x8_cad_SendCmd(u8x8, 0x05c );	/* write to ram */	  
 393:/Users/imashio/Electronics/ARM/_Library/u8x8_d_ssd1322.c **** 	  u8x8_cad_SendData(u8x8, 32, u8x8_ssd1322_4to32(u8x8, ptr));	  
 394:/Users/imashio/Electronics/ARM/_Library/u8x8_d_ssd1322.c **** 	  ptr += 4;
 395:/Users/imashio/Electronics/ARM/_Library/u8x8_d_ssd1322.c **** 	  x += 2;
 396:/Users/imashio/Electronics/ARM/_Library/u8x8_d_ssd1322.c **** 	  
 397:/Users/imashio/Electronics/ARM/_Library/u8x8_d_ssd1322.c **** 	  u8x8_cad_SendCmd(u8x8, 0x015 );	/* set column address */
 398:/Users/imashio/Electronics/ARM/_Library/u8x8_d_ssd1322.c **** 	  u8x8_cad_SendArg(u8x8, x );	/* start */
 399:/Users/imashio/Electronics/ARM/_Library/u8x8_d_ssd1322.c **** 	  u8x8_cad_SendArg(u8x8, x+1 );	/* end */
 400:/Users/imashio/Electronics/ARM/_Library/u8x8_d_ssd1322.c **** 	  u8x8_cad_SendCmd(u8x8, 0x05c );	/* write to ram */	  
 401:/Users/imashio/Electronics/ARM/_Library/u8x8_d_ssd1322.c **** 	  u8x8_cad_SendData(u8x8, 32, u8x8_ssd1322_4to32(u8x8, ptr));	  
 402:/Users/imashio/Electronics/ARM/_Library/u8x8_d_ssd1322.c **** 	  ptr += 4;
 403:/Users/imashio/Electronics/ARM/_Library/u8x8_d_ssd1322.c **** 	  x += 2;
 404:/Users/imashio/Electronics/ARM/_Library/u8x8_d_ssd1322.c **** 	  
 405:/Users/imashio/Electronics/ARM/_Library/u8x8_d_ssd1322.c **** 	  c--;
 406:/Users/imashio/Electronics/ARM/_Library/u8x8_d_ssd1322.c **** 	} while( c > 0 );
 407:/Users/imashio/Electronics/ARM/_Library/u8x8_d_ssd1322.c **** 	
 408:/Users/imashio/Electronics/ARM/_Library/u8x8_d_ssd1322.c **** 	//x += 2;
 409:/Users/imashio/Electronics/ARM/_Library/u8x8_d_ssd1322.c **** 	arg_int--;
 410:/Users/imashio/Electronics/ARM/_Library/u8x8_d_ssd1322.c ****       } while( arg_int > 0 );
 411:/Users/imashio/Electronics/ARM/_Library/u8x8_d_ssd1322.c ****       
 412:/Users/imashio/Electronics/ARM/_Library/u8x8_d_ssd1322.c ****       u8x8_cad_EndTransfer(u8x8);
ARM GAS  /var/folders/v3/wysfpd052nz8jkbx04pk0ym80000gn/T//ccsUtHhW.s 			page 19


 413:/Users/imashio/Electronics/ARM/_Library/u8x8_d_ssd1322.c ****       break;
 414:/Users/imashio/Electronics/ARM/_Library/u8x8_d_ssd1322.c ****     default:
 415:/Users/imashio/Electronics/ARM/_Library/u8x8_d_ssd1322.c ****       return 0;
 556              		.loc 1 415 0
 557 0018 0020     		movs	r0, #0
 558              	.LVL71:
 416:/Users/imashio/Electronics/ARM/_Library/u8x8_d_ssd1322.c ****   }
 417:/Users/imashio/Electronics/ARM/_Library/u8x8_d_ssd1322.c ****   return 1;
 418:/Users/imashio/Electronics/ARM/_Library/u8x8_d_ssd1322.c **** }
 559              		.loc 1 418 0
 560 001a 05B0     		add	sp, sp, #20
 561              	.LCFI18:
 562              		.cfi_remember_state
 563              		.cfi_def_cfa_offset 36
 564              		@ sp needed
 565 001c BDE8F08F 		pop	{r4, r5, r6, r7, r8, r9, r10, fp, pc}
 566              	.LVL72:
 567              	.L65:
 568              	.LCFI19:
 569              		.cfi_restore_state
 354:/Users/imashio/Electronics/ARM/_Library/u8x8_d_ssd1322.c **** 	u8x8_cad_SendSequence(u8x8, u8x8_d_ssd1322_powersave0_seq);
 570              		.loc 1 354 0
 571 0020 002A     		cmp	r2, #0
 572 0022 40F0B680 		bne	.L49
 355:/Users/imashio/Electronics/ARM/_Library/u8x8_d_ssd1322.c ****       else
 573              		.loc 1 355 0
 574 0026 5E49     		ldr	r1, .L66
 575              	.LVL73:
 576 0028 FFF7FEFF 		bl	u8x8_cad_SendSequence
 577              	.LVL74:
 417:/Users/imashio/Electronics/ARM/_Library/u8x8_d_ssd1322.c **** }
 578              		.loc 1 417 0
 579 002c 0120     		movs	r0, #1
 580              		.loc 1 418 0
 581 002e 05B0     		add	sp, sp, #20
 582              	.LCFI20:
 583              		.cfi_remember_state
 584              		.cfi_def_cfa_offset 36
 585              		@ sp needed
 586 0030 BDE8F08F 		pop	{r4, r5, r6, r7, r8, r9, r10, fp, pc}
 587              	.LVL75:
 588              	.L47:
 589              	.LCFI21:
 590              		.cfi_restore_state
 591 0034 9B46     		mov	fp, r3
 592              	.LVL76:
 593              	.LBB24:
 594              	.LBB25:
 368:/Users/imashio/Electronics/ARM/_Library/u8x8_d_ssd1322.c ****       x = ((u8x8_tile_t *)arg_ptr)->x_pos;    
 595              		.loc 1 368 0
 596 0036 FFF7FEFF 		bl	u8x8_cad_StartTransfer
 597              	.LVL77:
 369:/Users/imashio/Electronics/ARM/_Library/u8x8_d_ssd1322.c ****       x *= 2;		// only every 4th col can be addressed
 598              		.loc 1 369 0
 599 003a 9BF80520 		ldrb	r2, [fp, #5]	@ zero_extendqisi2
 600              	.LVL78:
 375:/Users/imashio/Electronics/ARM/_Library/u8x8_d_ssd1322.c ****       y *= 8;
ARM GAS  /var/folders/v3/wysfpd052nz8jkbx04pk0ym80000gn/T//ccsUtHhW.s 			page 20


 601              		.loc 1 375 0
 602 003e 9BF80640 		ldrb	r4, [fp, #6]	@ zero_extendqisi2
 373:/Users/imashio/Electronics/ARM/_Library/u8x8_d_ssd1322.c ****     
 603              		.loc 1 373 0
 604 0042 B37F     		ldrb	r3, [r6, #30]	@ zero_extendqisi2
 393:/Users/imashio/Electronics/ARM/_Library/u8x8_d_ssd1322.c **** 	  ptr += 4;
 605              		.loc 1 393 0
 606 0044 DFF86481 		ldr	r8, .L66+12
 373:/Users/imashio/Electronics/ARM/_Library/u8x8_d_ssd1322.c ****     
 607              		.loc 1 373 0
 608 0048 03EB8203 		add	r3, r3, r2, lsl #2
 376:/Users/imashio/Electronics/ARM/_Library/u8x8_d_ssd1322.c ****           
 609              		.loc 1 376 0
 610 004c E400     		lsls	r4, r4, #3
 373:/Users/imashio/Electronics/ARM/_Library/u8x8_d_ssd1322.c ****     
 611              		.loc 1 373 0
 612 004e 03F0FF03 		and	r3, r3, #255
 376:/Users/imashio/Electronics/ARM/_Library/u8x8_d_ssd1322.c ****           
 613              		.loc 1 376 0
 614 0052 E4B2     		uxtb	r4, r4
 378:/Users/imashio/Electronics/ARM/_Library/u8x8_d_ssd1322.c ****       u8x8_cad_SendArg(u8x8, y);
 615              		.loc 1 378 0
 616 0054 7521     		movs	r1, #117
 617 0056 3046     		mov	r0, r6
 373:/Users/imashio/Electronics/ARM/_Library/u8x8_d_ssd1322.c ****     
 618              		.loc 1 373 0
 619 0058 0193     		str	r3, [sp, #4]
 620              	.LVL79:
 378:/Users/imashio/Electronics/ARM/_Library/u8x8_d_ssd1322.c ****       u8x8_cad_SendArg(u8x8, y);
 621              		.loc 1 378 0
 622 005a FFF7FEFF 		bl	u8x8_cad_SendCmd
 623              	.LVL80:
 379:/Users/imashio/Electronics/ARM/_Library/u8x8_d_ssd1322.c ****       u8x8_cad_SendArg(u8x8, y+7);
 624              		.loc 1 379 0
 625 005e 2146     		mov	r1, r4
 626 0060 3046     		mov	r0, r6
 627 0062 FFF7FEFF 		bl	u8x8_cad_SendArg
 628              	.LVL81:
 380:/Users/imashio/Electronics/ARM/_Library/u8x8_d_ssd1322.c ****       
 629              		.loc 1 380 0
 630 0066 E11D     		adds	r1, r4, #7
 631 0068 C9B2     		uxtb	r1, r1
 632 006a 3046     		mov	r0, r6
 633 006c FFF7FEFF 		bl	u8x8_cad_SendArg
 634              	.LVL82:
 635              	.L55:
 384:/Users/imashio/Electronics/ARM/_Library/u8x8_d_ssd1322.c **** 	ptr = ((u8x8_tile_t *)arg_ptr)->tile_ptr;
 636              		.loc 1 384 0
 637 0070 9BF80430 		ldrb	r3, [fp, #4]	@ zero_extendqisi2
 638 0074 0393     		str	r3, [sp, #12]
 639 0076 1A46     		mov	r2, r3
 640              	.LVL83:
 385:/Users/imashio/Electronics/ARM/_Library/u8x8_d_ssd1322.c **** 
 641              		.loc 1 385 0
 642 0078 DBF80030 		ldr	r3, [fp]
 643              	.LVL84:
 644 007c 019F     		ldr	r7, [sp, #4]
ARM GAS  /var/folders/v3/wysfpd052nz8jkbx04pk0ym80000gn/T//ccsUtHhW.s 			page 21


 645 007e 02F1FF39 		add	r9, r2, #-1
 646 0082 5FFA89F9 		uxtb	r9, r9
 647 0086 03F10C02 		add	r2, r3, #12
 648              	.LVL85:
 649 008a 0821     		movs	r1, #8
 650 008c 11FB0929 		smlabb	r9, r1, r9, r2
 651 0090 03F1040A 		add	r10, r3, #4
 652              	.LVL86:
 653              	.L54:
 389:/Users/imashio/Electronics/ARM/_Library/u8x8_d_ssd1322.c **** 	  u8x8_cad_SendArg(u8x8, x );	/* start */
 654              		.loc 1 389 0
 655 0094 1521     		movs	r1, #21
 656 0096 3046     		mov	r0, r6
 657 0098 FFF7FEFF 		bl	u8x8_cad_SendCmd
 658              	.LVL87:
 390:/Users/imashio/Electronics/ARM/_Library/u8x8_d_ssd1322.c **** 	  u8x8_cad_SendArg(u8x8, x+1 );	/* end */
 659              		.loc 1 390 0
 660 009c 3946     		mov	r1, r7
 661 009e 3046     		mov	r0, r6
 662 00a0 FFF7FEFF 		bl	u8x8_cad_SendArg
 663              	.LVL88:
 391:/Users/imashio/Electronics/ARM/_Library/u8x8_d_ssd1322.c **** 	  u8x8_cad_SendCmd(u8x8, 0x05c );	/* write to ram */	  
 664              		.loc 1 391 0
 665 00a4 791C     		adds	r1, r7, #1
 666 00a6 C9B2     		uxtb	r1, r1
 667 00a8 3046     		mov	r0, r6
 668 00aa 3E4C     		ldr	r4, .L66+4
 669 00ac FFF7FEFF 		bl	u8x8_cad_SendArg
 670              	.LVL89:
 392:/Users/imashio/Electronics/ARM/_Library/u8x8_d_ssd1322.c **** 	  u8x8_cad_SendData(u8x8, 32, u8x8_ssd1322_4to32(u8x8, ptr));	  
 671              		.loc 1 392 0
 672 00b0 5C21     		movs	r1, #92
 673 00b2 3046     		mov	r0, r6
 674 00b4 FFF7FEFF 		bl	u8x8_cad_SendCmd
 675              	.LVL90:
 676 00b8 AAF10405 		sub	r5, r10, #4
 677              	.LVL91:
 678 00bc 2046     		mov	r0, r4
 679              	.LVL92:
 680              	.L51:
 681              	.LBB26:
 682              	.LBB27:
 129:/Users/imashio/Electronics/ARM/_Library/u8x8_d_ssd1322.c ****     ptr++;
 683              		.loc 1 129 0
 684 00be 15F8012B 		ldrb	r2, [r5], #1	@ zero_extendqisi2
 685              	.LVL93:
 686 00c2 A0F12003 		sub	r3, r0, #32
 687              	.LVL94:
 688              	.L50:
 134:/Users/imashio/Electronics/ARM/_Library/u8x8_d_ssd1322.c ****       *dest = v;
 689              		.loc 1 134 0
 690 00c6 42F30001 		sbfx	r1, r2, #0, #1
 135:/Users/imashio/Electronics/ARM/_Library/u8x8_d_ssd1322.c ****       dest+=4;
 691              		.loc 1 135 0
 692 00ca 03F8041C 		strb	r1, [r3, #-4]
 693              	.LVL95:
 694 00ce 0433     		adds	r3, r3, #4
ARM GAS  /var/folders/v3/wysfpd052nz8jkbx04pk0ym80000gn/T//ccsUtHhW.s 			page 22


 695              	.LVL96:
 131:/Users/imashio/Electronics/ARM/_Library/u8x8_d_ssd1322.c ****     {
 696              		.loc 1 131 0
 697 00d0 9842     		cmp	r0, r3
 137:/Users/imashio/Electronics/ARM/_Library/u8x8_d_ssd1322.c ****     }
 698              		.loc 1 137 0
 699 00d2 4FEA5202 		lsr	r2, r2, #1
 700              	.LVL97:
 131:/Users/imashio/Electronics/ARM/_Library/u8x8_d_ssd1322.c ****     {
 701              		.loc 1 131 0
 702 00d6 F6D1     		bne	.L50
 125:/Users/imashio/Electronics/ARM/_Library/u8x8_d_ssd1322.c ****   {
 703              		.loc 1 125 0
 704 00d8 5545     		cmp	r5, r10
 705 00da 00F10100 		add	r0, r0, #1
 706 00de EED1     		bne	.L51
 707              	.LVL98:
 708              	.LBE27:
 709              	.LBE26:
 393:/Users/imashio/Electronics/ARM/_Library/u8x8_d_ssd1322.c **** 	  ptr += 4;
 710              		.loc 1 393 0
 711 00e0 4246     		mov	r2, r8
 712 00e2 2021     		movs	r1, #32
 713 00e4 3046     		mov	r0, r6
 714 00e6 FFF7FEFF 		bl	u8x8_cad_SendData
 715              	.LVL99:
 397:/Users/imashio/Electronics/ARM/_Library/u8x8_d_ssd1322.c **** 	  u8x8_cad_SendArg(u8x8, x );	/* start */
 716              		.loc 1 397 0
 717 00ea 1521     		movs	r1, #21
 718 00ec 3046     		mov	r0, r6
 719 00ee FFF7FEFF 		bl	u8x8_cad_SendCmd
 720              	.LVL100:
 395:/Users/imashio/Electronics/ARM/_Library/u8x8_d_ssd1322.c **** 	  
 721              		.loc 1 395 0
 722 00f2 B91C     		adds	r1, r7, #2
 398:/Users/imashio/Electronics/ARM/_Library/u8x8_d_ssd1322.c **** 	  u8x8_cad_SendArg(u8x8, x+1 );	/* end */
 723              		.loc 1 398 0
 724 00f4 C9B2     		uxtb	r1, r1
 725 00f6 3046     		mov	r0, r6
 726 00f8 FFF7FEFF 		bl	u8x8_cad_SendArg
 727              	.LVL101:
 399:/Users/imashio/Electronics/ARM/_Library/u8x8_d_ssd1322.c **** 	  u8x8_cad_SendCmd(u8x8, 0x05c );	/* write to ram */	  
 728              		.loc 1 399 0
 729 00fc F91C     		adds	r1, r7, #3
 730 00fe C9B2     		uxtb	r1, r1
 731 0100 3046     		mov	r0, r6
 732 0102 FFF7FEFF 		bl	u8x8_cad_SendArg
 733              	.LVL102:
 400:/Users/imashio/Electronics/ARM/_Library/u8x8_d_ssd1322.c **** 	  u8x8_cad_SendData(u8x8, 32, u8x8_ssd1322_4to32(u8x8, ptr));	  
 734              		.loc 1 400 0
 735 0106 5C21     		movs	r1, #92
 736 0108 3046     		mov	r0, r6
 737 010a FFF7FEFF 		bl	u8x8_cad_SendCmd
 738              	.LVL103:
 739 010e 281D     		adds	r0, r5, #4
 740              	.LVL104:
 741              	.L53:
ARM GAS  /var/folders/v3/wysfpd052nz8jkbx04pk0ym80000gn/T//ccsUtHhW.s 			page 23


 742              	.LBB28:
 743              	.LBB29:
 129:/Users/imashio/Electronics/ARM/_Library/u8x8_d_ssd1322.c ****     ptr++;
 744              		.loc 1 129 0
 745 0110 15F8012B 		ldrb	r2, [r5], #1	@ zero_extendqisi2
 746              	.LVL105:
 747 0114 A4F12003 		sub	r3, r4, #32
 748              	.LVL106:
 749              	.L52:
 134:/Users/imashio/Electronics/ARM/_Library/u8x8_d_ssd1322.c ****       *dest = v;
 750              		.loc 1 134 0
 751 0118 42F30001 		sbfx	r1, r2, #0, #1
 135:/Users/imashio/Electronics/ARM/_Library/u8x8_d_ssd1322.c ****       dest+=4;
 752              		.loc 1 135 0
 753 011c 03F8041C 		strb	r1, [r3, #-4]
 754              	.LVL107:
 755 0120 0433     		adds	r3, r3, #4
 756              	.LVL108:
 131:/Users/imashio/Electronics/ARM/_Library/u8x8_d_ssd1322.c ****     {
 757              		.loc 1 131 0
 758 0122 9C42     		cmp	r4, r3
 137:/Users/imashio/Electronics/ARM/_Library/u8x8_d_ssd1322.c ****     }
 759              		.loc 1 137 0
 760 0124 4FEA5202 		lsr	r2, r2, #1
 761              	.LVL109:
 131:/Users/imashio/Electronics/ARM/_Library/u8x8_d_ssd1322.c ****     {
 762              		.loc 1 131 0
 763 0128 F6D1     		bne	.L52
 125:/Users/imashio/Electronics/ARM/_Library/u8x8_d_ssd1322.c ****   {
 764              		.loc 1 125 0
 765 012a 8542     		cmp	r5, r0
 766 012c 04F10104 		add	r4, r4, #1
 767 0130 EED1     		bne	.L53
 768              	.LVL110:
 769              	.LBE29:
 770              	.LBE28:
 401:/Users/imashio/Electronics/ARM/_Library/u8x8_d_ssd1322.c **** 	  ptr += 4;
 771              		.loc 1 401 0
 772 0132 4246     		mov	r2, r8
 773 0134 2021     		movs	r1, #32
 774 0136 3046     		mov	r0, r6
 775              	.LVL111:
 776 0138 0AF1080A 		add	r10, r10, #8
 777 013c FFF7FEFF 		bl	u8x8_cad_SendData
 778              	.LVL112:
 403:/Users/imashio/Electronics/ARM/_Library/u8x8_d_ssd1322.c **** 	  
 779              		.loc 1 403 0
 780 0140 0437     		adds	r7, r7, #4
 781              	.LVL113:
 406:/Users/imashio/Electronics/ARM/_Library/u8x8_d_ssd1322.c **** 	
 782              		.loc 1 406 0
 783 0142 CA45     		cmp	r10, r9
 403:/Users/imashio/Electronics/ARM/_Library/u8x8_d_ssd1322.c **** 	  
 784              		.loc 1 403 0
 785 0144 FFB2     		uxtb	r7, r7
 786              	.LVL114:
 406:/Users/imashio/Electronics/ARM/_Library/u8x8_d_ssd1322.c **** 	
ARM GAS  /var/folders/v3/wysfpd052nz8jkbx04pk0ym80000gn/T//ccsUtHhW.s 			page 24


 787              		.loc 1 406 0
 788 0146 A5D1     		bne	.L54
 789 0148 019B     		ldr	r3, [sp, #4]
 790 014a 039A     		ldr	r2, [sp, #12]
 791 014c 03EB820A 		add	r10, r3, r2, lsl #2
 409:/Users/imashio/Electronics/ARM/_Library/u8x8_d_ssd1322.c ****       } while( arg_int > 0 );
 792              		.loc 1 409 0
 793 0150 029B     		ldr	r3, [sp, #8]
 794 0152 013B     		subs	r3, r3, #1
 795              	.LVL115:
 796 0154 5FFA8AF2 		uxtb	r2, r10
 410:/Users/imashio/Electronics/ARM/_Library/u8x8_d_ssd1322.c ****       
 797              		.loc 1 410 0
 798 0158 13F0FF03 		ands	r3, r3, #255
 799              	.LVL116:
 800 015c 0192     		str	r2, [sp, #4]
 801 015e 0293     		str	r3, [sp, #8]
 802              	.LVL117:
 803 0160 86D1     		bne	.L55
 412:/Users/imashio/Electronics/ARM/_Library/u8x8_d_ssd1322.c ****       break;
 804              		.loc 1 412 0
 805 0162 3046     		mov	r0, r6
 806 0164 FFF7FEFF 		bl	u8x8_cad_EndTransfer
 807              	.LVL118:
 808 0168 0120     		movs	r0, #1
 809              	.LBE25:
 810              	.LBE24:
 811              		.loc 1 418 0
 812 016a 05B0     		add	sp, sp, #20
 813              	.LCFI22:
 814              		.cfi_remember_state
 815              		.cfi_def_cfa_offset 36
 816              		@ sp needed
 817 016c BDE8F08F 		pop	{r4, r5, r6, r7, r8, r9, r10, fp, pc}
 818              	.LVL119:
 819              	.L46:
 820              	.LCFI23:
 821              		.cfi_restore_state
 361:/Users/imashio/Electronics/ARM/_Library/u8x8_d_ssd1322.c ****       u8x8_cad_SendCmd(u8x8, 0x0C1 );
 822              		.loc 1 361 0
 823 0170 FFF7FEFF 		bl	u8x8_cad_StartTransfer
 824              	.LVL120:
 362:/Users/imashio/Electronics/ARM/_Library/u8x8_d_ssd1322.c ****       u8x8_cad_SendArg(u8x8, arg_int );	/* ssd1322 has range from 0 to 255 */
 825              		.loc 1 362 0
 826 0174 C121     		movs	r1, #193
 827 0176 3046     		mov	r0, r6
 828 0178 FFF7FEFF 		bl	u8x8_cad_SendCmd
 829              	.LVL121:
 363:/Users/imashio/Electronics/ARM/_Library/u8x8_d_ssd1322.c ****       u8x8_cad_EndTransfer(u8x8);
 830              		.loc 1 363 0
 831 017c 0299     		ldr	r1, [sp, #8]
 832 017e 3046     		mov	r0, r6
 833 0180 FFF7FEFF 		bl	u8x8_cad_SendArg
 834              	.LVL122:
 364:/Users/imashio/Electronics/ARM/_Library/u8x8_d_ssd1322.c ****       break;
 835              		.loc 1 364 0
 836 0184 3046     		mov	r0, r6
ARM GAS  /var/folders/v3/wysfpd052nz8jkbx04pk0ym80000gn/T//ccsUtHhW.s 			page 25


 837 0186 FFF7FEFF 		bl	u8x8_cad_EndTransfer
 838              	.LVL123:
 417:/Users/imashio/Electronics/ARM/_Library/u8x8_d_ssd1322.c **** }
 839              		.loc 1 417 0
 840 018a 0120     		movs	r0, #1
 841              		.loc 1 418 0
 842 018c 05B0     		add	sp, sp, #20
 843              	.LCFI24:
 844              		.cfi_remember_state
 845              		.cfi_def_cfa_offset 36
 846              		@ sp needed
 847 018e BDE8F08F 		pop	{r4, r5, r6, r7, r8, r9, r10, fp, pc}
 848              	.LVL124:
 849              	.L49:
 850              	.LCFI25:
 851              		.cfi_restore_state
 357:/Users/imashio/Electronics/ARM/_Library/u8x8_d_ssd1322.c ****       break;
 852              		.loc 1 357 0
 853 0192 0549     		ldr	r1, .L66+8
 854              	.LVL125:
 855 0194 FFF7FEFF 		bl	u8x8_cad_SendSequence
 856              	.LVL126:
 417:/Users/imashio/Electronics/ARM/_Library/u8x8_d_ssd1322.c **** }
 857              		.loc 1 417 0
 858 0198 0120     		movs	r0, #1
 859              		.loc 1 418 0
 860 019a 05B0     		add	sp, sp, #20
 861              	.LCFI26:
 862              		.cfi_def_cfa_offset 36
 863              		@ sp needed
 864 019c BDE8F08F 		pop	{r4, r5, r6, r7, r8, r9, r10, fp, pc}
 865              	.LVL127:
 866              	.L67:
 867              		.align	2
 868              	.L66:
 869 01a0 00000000 		.word	.LANCHOR2
 870 01a4 24000000 		.word	.LANCHOR4+36
 871 01a8 00000000 		.word	.LANCHOR3
 872 01ac 00000000 		.word	.LANCHOR4
 873              		.cfi_endproc
 874              	.LFE5:
 876              		.section	.text.u8x8_d_ssd1322_nhd_128x64,"ax",%progbits
 877              		.align	1
 878              		.p2align 2,,3
 879              		.global	u8x8_d_ssd1322_nhd_128x64
 880              		.syntax unified
 881              		.thumb
 882              		.thumb_func
 883              		.fpu fpv4-sp-d16
 885              	u8x8_d_ssd1322_nhd_128x64:
 886              	.LFB6:
 419:/Users/imashio/Electronics/ARM/_Library/u8x8_d_ssd1322.c **** 
 420:/Users/imashio/Electronics/ARM/_Library/u8x8_d_ssd1322.c **** 
 421:/Users/imashio/Electronics/ARM/_Library/u8x8_d_ssd1322.c **** static const uint8_t u8x8_d_ssd1322_128x64_flip0_seq[] = {
 422:/Users/imashio/Electronics/ARM/_Library/u8x8_d_ssd1322.c ****   U8X8_START_TRANSFER(),             	/* enable chip, delay is part of the transfer start */
 423:/Users/imashio/Electronics/ARM/_Library/u8x8_d_ssd1322.c ****   U8X8_CAA(0x0a0, 0x016, 0x011),		/* remap */
 424:/Users/imashio/Electronics/ARM/_Library/u8x8_d_ssd1322.c ****   U8X8_END_TRANSFER(),             	/* disable chip */
ARM GAS  /var/folders/v3/wysfpd052nz8jkbx04pk0ym80000gn/T//ccsUtHhW.s 			page 26


 425:/Users/imashio/Electronics/ARM/_Library/u8x8_d_ssd1322.c ****   U8X8_END()             			/* end of sequence */
 426:/Users/imashio/Electronics/ARM/_Library/u8x8_d_ssd1322.c **** };
 427:/Users/imashio/Electronics/ARM/_Library/u8x8_d_ssd1322.c **** 
 428:/Users/imashio/Electronics/ARM/_Library/u8x8_d_ssd1322.c **** static const uint8_t u8x8_d_ssd1322_128x64_flip1_seq[] = {
 429:/Users/imashio/Electronics/ARM/_Library/u8x8_d_ssd1322.c ****   U8X8_START_TRANSFER(),             	/* enable chip, delay is part of the transfer start */
 430:/Users/imashio/Electronics/ARM/_Library/u8x8_d_ssd1322.c ****   U8X8_CAA(0x0a0, 0x004, 0x011),		/* remap */
 431:/Users/imashio/Electronics/ARM/_Library/u8x8_d_ssd1322.c ****   U8X8_END_TRANSFER(),             	/* disable chip */
 432:/Users/imashio/Electronics/ARM/_Library/u8x8_d_ssd1322.c ****   U8X8_END()             			/* end of sequence */
 433:/Users/imashio/Electronics/ARM/_Library/u8x8_d_ssd1322.c **** };
 434:/Users/imashio/Electronics/ARM/_Library/u8x8_d_ssd1322.c **** 
 435:/Users/imashio/Electronics/ARM/_Library/u8x8_d_ssd1322.c **** static const u8x8_display_info_t u8x8_ssd1322_128x64_display_info =
 436:/Users/imashio/Electronics/ARM/_Library/u8x8_d_ssd1322.c **** {
 437:/Users/imashio/Electronics/ARM/_Library/u8x8_d_ssd1322.c ****   /* chip_enable_level = */ 0,
 438:/Users/imashio/Electronics/ARM/_Library/u8x8_d_ssd1322.c ****   /* chip_disable_level = */ 1,
 439:/Users/imashio/Electronics/ARM/_Library/u8x8_d_ssd1322.c ****   
 440:/Users/imashio/Electronics/ARM/_Library/u8x8_d_ssd1322.c ****   /* post_chip_enable_wait_ns = */ 20,
 441:/Users/imashio/Electronics/ARM/_Library/u8x8_d_ssd1322.c ****   /* pre_chip_disable_wait_ns = */ 10,
 442:/Users/imashio/Electronics/ARM/_Library/u8x8_d_ssd1322.c ****   /* reset_pulse_width_ms = */ 100, 	/* SSD1322: 2 us */
 443:/Users/imashio/Electronics/ARM/_Library/u8x8_d_ssd1322.c ****   /* post_reset_wait_ms = */ 100, /* far east OLEDs need much longer setup time */
 444:/Users/imashio/Electronics/ARM/_Library/u8x8_d_ssd1322.c ****   /* sda_setup_time_ns = */ 50,		/* SSD1322: 15ns, but cycle time is 100ns, so use 100/2 */
 445:/Users/imashio/Electronics/ARM/_Library/u8x8_d_ssd1322.c ****   /* sck_pulse_width_ns = */ 50,	/* SSD1322: 20ns, but cycle time is 100ns, so use 100/2, AVR: belo
 446:/Users/imashio/Electronics/ARM/_Library/u8x8_d_ssd1322.c ****   /* sck_clock_hz = */ 10000000UL,	/* since Arduino 1.6.0, the SPI bus speed in Hz. Should be  1000
 447:/Users/imashio/Electronics/ARM/_Library/u8x8_d_ssd1322.c ****   /* spi_mode = */ 0,		/* active high, rising edge */
 448:/Users/imashio/Electronics/ARM/_Library/u8x8_d_ssd1322.c ****   /* i2c_bus_clock_100kHz = */ 4,
 449:/Users/imashio/Electronics/ARM/_Library/u8x8_d_ssd1322.c ****   /* data_setup_time_ns = */ 10,
 450:/Users/imashio/Electronics/ARM/_Library/u8x8_d_ssd1322.c ****   /* write_pulse_width_ns = */ 150,	/* SSD1322: cycle time is 300ns, so use 300/2 = 150 */
 451:/Users/imashio/Electronics/ARM/_Library/u8x8_d_ssd1322.c ****   /* tile_width = */ 16,		/* 128 pixel */
 452:/Users/imashio/Electronics/ARM/_Library/u8x8_d_ssd1322.c ****   /* tile_hight = */ 8,
 453:/Users/imashio/Electronics/ARM/_Library/u8x8_d_ssd1322.c ****   /* default_x_offset = */ 28,	/* this is the byte offset (there are two pixel per byte with 4 bit 
 454:/Users/imashio/Electronics/ARM/_Library/u8x8_d_ssd1322.c ****   /* flipmode_x_offset = */ 28,
 455:/Users/imashio/Electronics/ARM/_Library/u8x8_d_ssd1322.c ****   /* pixel_width = */ 128,
 456:/Users/imashio/Electronics/ARM/_Library/u8x8_d_ssd1322.c ****   /* pixel_height = */ 64
 457:/Users/imashio/Electronics/ARM/_Library/u8x8_d_ssd1322.c **** };
 458:/Users/imashio/Electronics/ARM/_Library/u8x8_d_ssd1322.c **** 
 459:/Users/imashio/Electronics/ARM/_Library/u8x8_d_ssd1322.c **** 
 460:/Users/imashio/Electronics/ARM/_Library/u8x8_d_ssd1322.c **** static const uint8_t u8x8_d_ssd1322_128x64_init_seq[] = {
 461:/Users/imashio/Electronics/ARM/_Library/u8x8_d_ssd1322.c ****     
 462:/Users/imashio/Electronics/ARM/_Library/u8x8_d_ssd1322.c ****   U8X8_DLY(1),
 463:/Users/imashio/Electronics/ARM/_Library/u8x8_d_ssd1322.c ****   U8X8_START_TRANSFER(),             	/* enable chip, delay is part of the transfer start */
 464:/Users/imashio/Electronics/ARM/_Library/u8x8_d_ssd1322.c ****   U8X8_DLY(1),
 465:/Users/imashio/Electronics/ARM/_Library/u8x8_d_ssd1322.c ****   
 466:/Users/imashio/Electronics/ARM/_Library/u8x8_d_ssd1322.c ****   U8X8_CA(0xfd, 0x12),            	/* unlock */
 467:/Users/imashio/Electronics/ARM/_Library/u8x8_d_ssd1322.c ****   U8X8_C(0xae),		                /* display off */
 468:/Users/imashio/Electronics/ARM/_Library/u8x8_d_ssd1322.c ****   U8X8_CA(0xb3, 0x91),			/* set display clock divide ratio/oscillator frequency (set clock as 80 fr
 469:/Users/imashio/Electronics/ARM/_Library/u8x8_d_ssd1322.c ****   U8X8_CA(0xca, 0x3f),			/* multiplex ratio 1/64 Duty (0x0F~0x3F) */  
 470:/Users/imashio/Electronics/ARM/_Library/u8x8_d_ssd1322.c ****   U8X8_CA(0xa2, 0x00),			/* display offset, shift mapping ram counter */  
 471:/Users/imashio/Electronics/ARM/_Library/u8x8_d_ssd1322.c **** 
 472:/Users/imashio/Electronics/ARM/_Library/u8x8_d_ssd1322.c ****   U8X8_CA(0xa1, 0x00),			/* display start line */  
 473:/Users/imashio/Electronics/ARM/_Library/u8x8_d_ssd1322.c ****   U8X8_CA(0xab, 0x01),			/* Enable Internal VDD Regulator */  
 474:/Users/imashio/Electronics/ARM/_Library/u8x8_d_ssd1322.c ****   //U8X8_CAA(0xa0, 0x14, 0x11),	/* Set Re-Map / Dual COM Line Mode */  
 475:/Users/imashio/Electronics/ARM/_Library/u8x8_d_ssd1322.c ****   //U8X8_CAA(0xa0, 0x06, 0x011),	/* Set Re-Map / Dual COM Line Mode */  
 476:/Users/imashio/Electronics/ARM/_Library/u8x8_d_ssd1322.c ****   U8X8_CAA(0xa0, 0x16, 0x011),	/* Set Re-Map / Dual COM Line Mode (NHD-2.7-12864WDW3-M datasheet) *
 477:/Users/imashio/Electronics/ARM/_Library/u8x8_d_ssd1322.c ****   U8X8_CA(0xc7, 0x0f),			/* Set Scale Factor of Segment Output Current Control */  
 478:/Users/imashio/Electronics/ARM/_Library/u8x8_d_ssd1322.c ****   U8X8_CA(0xc1, 0x9f),			/* contrast */  
 479:/Users/imashio/Electronics/ARM/_Library/u8x8_d_ssd1322.c ****   //U8X8_CA(0xb1, 0xe2),			/* Phase 1 (Reset) & Phase 2 (Pre-Charge) Period Adjustment */  
 480:/Users/imashio/Electronics/ARM/_Library/u8x8_d_ssd1322.c ****   U8X8_CA(0xb1, 0xf2),			/* Phase 1 (Reset) & Phase 2 (Pre-Charge) Period Adjustment (NHD-2.7-12864
 481:/Users/imashio/Electronics/ARM/_Library/u8x8_d_ssd1322.c ****   U8X8_CA(0xbb, 0x1f),			/* precharge  voltage */    
ARM GAS  /var/folders/v3/wysfpd052nz8jkbx04pk0ym80000gn/T//ccsUtHhW.s 			page 27


 482:/Users/imashio/Electronics/ARM/_Library/u8x8_d_ssd1322.c ****   //U8X8_CAA(0xb4, 0xa0, 0x005|0x0fd),	/* Display Enhancement A */  
 483:/Users/imashio/Electronics/ARM/_Library/u8x8_d_ssd1322.c ****   U8X8_CAA(0xb4, 0xa0, 0x0fd),	/* Display Enhancement A (NHD-2.7-12864WDW3-M datasheet) */  
 484:/Users/imashio/Electronics/ARM/_Library/u8x8_d_ssd1322.c ****   U8X8_CA(0xbe, 0x04),			/* vcomh (NHD-2.7-12864WDW3-M datasheet) */  
 485:/Users/imashio/Electronics/ARM/_Library/u8x8_d_ssd1322.c ****   U8X8_C(0xb9),		                /* linear grayscale */
 486:/Users/imashio/Electronics/ARM/_Library/u8x8_d_ssd1322.c ****   //U8X8_CAA(0xd1, 0x082|0x020, 0x020),	/* Display Enhancement B */  
 487:/Users/imashio/Electronics/ARM/_Library/u8x8_d_ssd1322.c ****   //U8X8_CA(0xb6, 0x08),			/* precharge  period */  
 488:/Users/imashio/Electronics/ARM/_Library/u8x8_d_ssd1322.c ****   U8X8_C(0xa6),		                /* normal display */
 489:/Users/imashio/Electronics/ARM/_Library/u8x8_d_ssd1322.c ****   U8X8_C(0xa9),		                /* exit partial display */
 490:/Users/imashio/Electronics/ARM/_Library/u8x8_d_ssd1322.c **** 
 491:/Users/imashio/Electronics/ARM/_Library/u8x8_d_ssd1322.c **** 
 492:/Users/imashio/Electronics/ARM/_Library/u8x8_d_ssd1322.c ****   U8X8_DLY(1),					/* delay 2ms */
 493:/Users/imashio/Electronics/ARM/_Library/u8x8_d_ssd1322.c **** 
 494:/Users/imashio/Electronics/ARM/_Library/u8x8_d_ssd1322.c ****   
 495:/Users/imashio/Electronics/ARM/_Library/u8x8_d_ssd1322.c ****   U8X8_END_TRANSFER(),             	/* disable chip */
 496:/Users/imashio/Electronics/ARM/_Library/u8x8_d_ssd1322.c ****   U8X8_END()             			/* end of sequence */
 497:/Users/imashio/Electronics/ARM/_Library/u8x8_d_ssd1322.c **** };
 498:/Users/imashio/Electronics/ARM/_Library/u8x8_d_ssd1322.c **** 
 499:/Users/imashio/Electronics/ARM/_Library/u8x8_d_ssd1322.c **** uint8_t u8x8_d_ssd1322_nhd_128x64(u8x8_t *u8x8, uint8_t msg, uint8_t arg_int, void *arg_ptr)
 500:/Users/imashio/Electronics/ARM/_Library/u8x8_d_ssd1322.c **** {
 887              		.loc 1 500 0
 888              		.cfi_startproc
 889              		@ args = 0, pretend = 0, frame = 0
 890              		@ frame_needed = 0, uses_anonymous_args = 0
 891              	.LVL128:
 501:/Users/imashio/Electronics/ARM/_Library/u8x8_d_ssd1322.c ****   switch(msg)
 892              		.loc 1 501 0
 893 0000 0A29     		cmp	r1, #10
 500:/Users/imashio/Electronics/ARM/_Library/u8x8_d_ssd1322.c ****   switch(msg)
 894              		.loc 1 500 0
 895 0002 70B5     		push	{r4, r5, r6, lr}
 896              	.LCFI27:
 897              		.cfi_def_cfa_offset 16
 898              		.cfi_offset 4, -16
 899              		.cfi_offset 5, -12
 900              		.cfi_offset 6, -8
 901              		.cfi_offset 14, -4
 500:/Users/imashio/Electronics/ARM/_Library/u8x8_d_ssd1322.c ****   switch(msg)
 902              		.loc 1 500 0
 903 0004 0546     		mov	r5, r0
 904              		.loc 1 501 0
 905 0006 15D0     		beq	.L70
 906 0008 0D29     		cmp	r1, #13
 907 000a 0AD0     		beq	.L71
 908 000c 0929     		cmp	r1, #9
 909 000e 03D0     		beq	.L77
 502:/Users/imashio/Electronics/ARM/_Library/u8x8_d_ssd1322.c ****   {
 503:/Users/imashio/Electronics/ARM/_Library/u8x8_d_ssd1322.c ****     case U8X8_MSG_DISPLAY_SETUP_MEMORY:
 504:/Users/imashio/Electronics/ARM/_Library/u8x8_d_ssd1322.c ****       u8x8_d_helper_display_setup_memory(u8x8, &u8x8_ssd1322_128x64_display_info);
 505:/Users/imashio/Electronics/ARM/_Library/u8x8_d_ssd1322.c ****       break;
 506:/Users/imashio/Electronics/ARM/_Library/u8x8_d_ssd1322.c ****     case U8X8_MSG_DISPLAY_INIT:
 507:/Users/imashio/Electronics/ARM/_Library/u8x8_d_ssd1322.c ****       u8x8_d_helper_display_init(u8x8);
 508:/Users/imashio/Electronics/ARM/_Library/u8x8_d_ssd1322.c ****       u8x8_cad_SendSequence(u8x8, u8x8_d_ssd1322_128x64_init_seq);
 509:/Users/imashio/Electronics/ARM/_Library/u8x8_d_ssd1322.c ****       break;
 510:/Users/imashio/Electronics/ARM/_Library/u8x8_d_ssd1322.c ****     case U8X8_MSG_DISPLAY_SET_FLIP_MODE:
 511:/Users/imashio/Electronics/ARM/_Library/u8x8_d_ssd1322.c ****       if ( arg_int == 0 )
 512:/Users/imashio/Electronics/ARM/_Library/u8x8_d_ssd1322.c ****       {
 513:/Users/imashio/Electronics/ARM/_Library/u8x8_d_ssd1322.c **** 	u8x8_cad_SendSequence(u8x8, u8x8_d_ssd1322_128x64_flip0_seq);
ARM GAS  /var/folders/v3/wysfpd052nz8jkbx04pk0ym80000gn/T//ccsUtHhW.s 			page 28


 514:/Users/imashio/Electronics/ARM/_Library/u8x8_d_ssd1322.c **** 	u8x8->x_offset = u8x8->display_info->default_x_offset;
 515:/Users/imashio/Electronics/ARM/_Library/u8x8_d_ssd1322.c ****       }
 516:/Users/imashio/Electronics/ARM/_Library/u8x8_d_ssd1322.c ****       else
 517:/Users/imashio/Electronics/ARM/_Library/u8x8_d_ssd1322.c ****       {
 518:/Users/imashio/Electronics/ARM/_Library/u8x8_d_ssd1322.c **** 	u8x8_cad_SendSequence(u8x8, u8x8_d_ssd1322_128x64_flip1_seq);
 519:/Users/imashio/Electronics/ARM/_Library/u8x8_d_ssd1322.c **** 	u8x8->x_offset = u8x8->display_info->flipmode_x_offset;
 520:/Users/imashio/Electronics/ARM/_Library/u8x8_d_ssd1322.c ****       }
 521:/Users/imashio/Electronics/ARM/_Library/u8x8_d_ssd1322.c ****       break;
 522:/Users/imashio/Electronics/ARM/_Library/u8x8_d_ssd1322.c ****     
 523:/Users/imashio/Electronics/ARM/_Library/u8x8_d_ssd1322.c ****     default:
 524:/Users/imashio/Electronics/ARM/_Library/u8x8_d_ssd1322.c ****       return u8x8_d_ssd1322_common2(u8x8, msg, arg_int, arg_ptr);
 525:/Users/imashio/Electronics/ARM/_Library/u8x8_d_ssd1322.c ****   }
 526:/Users/imashio/Electronics/ARM/_Library/u8x8_d_ssd1322.c ****   return 1;
 527:/Users/imashio/Electronics/ARM/_Library/u8x8_d_ssd1322.c **** }
 910              		.loc 1 527 0
 911 0010 BDE87040 		pop	{r4, r5, r6, lr}
 912              	.LCFI28:
 913              		.cfi_remember_state
 914              		.cfi_restore 14
 915              		.cfi_restore 6
 916              		.cfi_restore 5
 917              		.cfi_restore 4
 918              		.cfi_def_cfa_offset 0
 524:/Users/imashio/Electronics/ARM/_Library/u8x8_d_ssd1322.c ****   }
 919              		.loc 1 524 0
 920 0014 FFF7FEBF 		b	u8x8_d_ssd1322_common2
 921              	.LVL129:
 922              	.L77:
 923              	.LCFI29:
 924              		.cfi_restore_state
 504:/Users/imashio/Electronics/ARM/_Library/u8x8_d_ssd1322.c ****       break;
 925              		.loc 1 504 0
 926 0018 0E49     		ldr	r1, .L78
 927              	.LVL130:
 928 001a FFF7FEFF 		bl	u8x8_d_helper_display_setup_memory
 929              	.LVL131:
 930              		.loc 1 527 0
 931 001e 0120     		movs	r0, #1
 932 0020 70BD     		pop	{r4, r5, r6, pc}
 933              	.LVL132:
 934              	.L71:
 511:/Users/imashio/Electronics/ARM/_Library/u8x8_d_ssd1322.c ****       {
 935              		.loc 1 511 0
 936 0022 7AB9     		cbnz	r2, .L74
 513:/Users/imashio/Electronics/ARM/_Library/u8x8_d_ssd1322.c **** 	u8x8->x_offset = u8x8->display_info->default_x_offset;
 937              		.loc 1 513 0
 938 0024 0C49     		ldr	r1, .L78+4
 939              	.LVL133:
 940 0026 FFF7FEFF 		bl	u8x8_cad_SendSequence
 941              	.LVL134:
 514:/Users/imashio/Electronics/ARM/_Library/u8x8_d_ssd1322.c ****       }
 942              		.loc 1 514 0
 943 002a 2B68     		ldr	r3, [r5]
 944 002c 9B7C     		ldrb	r3, [r3, #18]	@ zero_extendqisi2
 945 002e AB77     		strb	r3, [r5, #30]
 946              		.loc 1 527 0
 947 0030 0120     		movs	r0, #1
ARM GAS  /var/folders/v3/wysfpd052nz8jkbx04pk0ym80000gn/T//ccsUtHhW.s 			page 29


 948 0032 70BD     		pop	{r4, r5, r6, pc}
 949              	.LVL135:
 950              	.L70:
 507:/Users/imashio/Electronics/ARM/_Library/u8x8_d_ssd1322.c ****       u8x8_cad_SendSequence(u8x8, u8x8_d_ssd1322_128x64_init_seq);
 951              		.loc 1 507 0
 952 0034 FFF7FEFF 		bl	u8x8_d_helper_display_init
 953              	.LVL136:
 508:/Users/imashio/Electronics/ARM/_Library/u8x8_d_ssd1322.c ****       break;
 954              		.loc 1 508 0
 955 0038 2846     		mov	r0, r5
 956 003a 0849     		ldr	r1, .L78+8
 957 003c FFF7FEFF 		bl	u8x8_cad_SendSequence
 958              	.LVL137:
 959              		.loc 1 527 0
 960 0040 0120     		movs	r0, #1
 961 0042 70BD     		pop	{r4, r5, r6, pc}
 962              	.LVL138:
 963              	.L74:
 518:/Users/imashio/Electronics/ARM/_Library/u8x8_d_ssd1322.c **** 	u8x8->x_offset = u8x8->display_info->flipmode_x_offset;
 964              		.loc 1 518 0
 965 0044 0649     		ldr	r1, .L78+12
 966              	.LVL139:
 967 0046 FFF7FEFF 		bl	u8x8_cad_SendSequence
 968              	.LVL140:
 519:/Users/imashio/Electronics/ARM/_Library/u8x8_d_ssd1322.c ****       }
 969              		.loc 1 519 0
 970 004a 2B68     		ldr	r3, [r5]
 971 004c DB7C     		ldrb	r3, [r3, #19]	@ zero_extendqisi2
 972 004e AB77     		strb	r3, [r5, #30]
 973              		.loc 1 527 0
 974 0050 0120     		movs	r0, #1
 975 0052 70BD     		pop	{r4, r5, r6, pc}
 976              	.LVL141:
 977              	.L79:
 978              		.align	2
 979              	.L78:
 980 0054 00000000 		.word	.LANCHOR9
 981 0058 00000000 		.word	.LANCHOR11
 982 005c 00000000 		.word	.LANCHOR10
 983 0060 00000000 		.word	.LANCHOR12
 984              		.cfi_endproc
 985              	.LFE6:
 987              		.section	.bss.buf.6259,"aw",%nobits
 988              		.align	2
 989              		.set	.LANCHOR0,. + 0
 992              	buf.6259:
 993 0000 00000000 		.space	4
 994              		.section	.bss.u8x8_ssd1322_to32_dest_buf,"aw",%nobits
 995              		.align	2
 996              		.set	.LANCHOR4,. + 0
 999              	u8x8_ssd1322_to32_dest_buf:
 1000 0000 00000000 		.space	32
 1000      00000000 
 1000      00000000 
 1000      00000000 
 1000      00000000 
 1001              		.section	.rodata.map.6260,"a",%progbits
ARM GAS  /var/folders/v3/wysfpd052nz8jkbx04pk0ym80000gn/T//ccsUtHhW.s 			page 30


 1002              		.align	2
 1003              		.set	.LANCHOR1,. + 0
 1006              	map.6260:
 1007 0000 00       		.byte	0
 1008 0001 0F       		.byte	15
 1009 0002 F0       		.byte	-16
 1010 0003 FF       		.byte	-1
 1011              		.section	.rodata.u8x8_d_ssd1322_128x64_flip0_seq,"a",%progbits
 1012              		.align	2
 1013              		.set	.LANCHOR11,. + 0
 1016              	u8x8_d_ssd1322_128x64_flip0_seq:
 1017 0000 18       		.byte	24
 1018 0001 15       		.byte	21
 1019 0002 A0       		.byte	-96
 1020 0003 16       		.byte	22
 1021 0004 16       		.byte	22
 1022 0005 16       		.byte	22
 1023 0006 11       		.byte	17
 1024 0007 19       		.byte	25
 1025 0008 FF       		.byte	-1
 1026              		.section	.rodata.u8x8_d_ssd1322_128x64_flip1_seq,"a",%progbits
 1027              		.align	2
 1028              		.set	.LANCHOR12,. + 0
 1031              	u8x8_d_ssd1322_128x64_flip1_seq:
 1032 0000 18       		.byte	24
 1033 0001 15       		.byte	21
 1034 0002 A0       		.byte	-96
 1035 0003 16       		.byte	22
 1036 0004 04       		.byte	4
 1037 0005 16       		.byte	22
 1038 0006 11       		.byte	17
 1039 0007 19       		.byte	25
 1040 0008 FF       		.byte	-1
 1041              		.section	.rodata.u8x8_d_ssd1322_128x64_init_seq,"a",%progbits
 1042              		.align	2
 1043              		.set	.LANCHOR10,. + 0
 1046              	u8x8_d_ssd1322_128x64_init_seq:
 1047 0000 FE       		.byte	-2
 1048 0001 01       		.byte	1
 1049 0002 18       		.byte	24
 1050 0003 FE       		.byte	-2
 1051 0004 01       		.byte	1
 1052 0005 15       		.byte	21
 1053 0006 FD       		.byte	-3
 1054 0007 16       		.byte	22
 1055 0008 12       		.byte	18
 1056 0009 15       		.byte	21
 1057 000a AE       		.byte	-82
 1058 000b 15       		.byte	21
 1059 000c B3       		.byte	-77
 1060 000d 16       		.byte	22
 1061 000e 91       		.byte	-111
 1062 000f 15       		.byte	21
 1063 0010 CA       		.byte	-54
 1064 0011 16       		.byte	22
 1065 0012 3F       		.byte	63
 1066 0013 15       		.byte	21
ARM GAS  /var/folders/v3/wysfpd052nz8jkbx04pk0ym80000gn/T//ccsUtHhW.s 			page 31


 1067 0014 A2       		.byte	-94
 1068 0015 16       		.byte	22
 1069 0016 00       		.byte	0
 1070 0017 15       		.byte	21
 1071 0018 A1       		.byte	-95
 1072 0019 16       		.byte	22
 1073 001a 00       		.byte	0
 1074 001b 15       		.byte	21
 1075 001c AB       		.byte	-85
 1076 001d 16       		.byte	22
 1077 001e 01       		.byte	1
 1078 001f 15       		.byte	21
 1079 0020 A0       		.byte	-96
 1080 0021 16       		.byte	22
 1081 0022 16       		.byte	22
 1082 0023 16       		.byte	22
 1083 0024 11       		.byte	17
 1084 0025 15       		.byte	21
 1085 0026 C7       		.byte	-57
 1086 0027 16       		.byte	22
 1087 0028 0F       		.byte	15
 1088 0029 15       		.byte	21
 1089 002a C1       		.byte	-63
 1090 002b 16       		.byte	22
 1091 002c 9F       		.byte	-97
 1092 002d 15       		.byte	21
 1093 002e B1       		.byte	-79
 1094 002f 16       		.byte	22
 1095 0030 F2       		.byte	-14
 1096 0031 15       		.byte	21
 1097 0032 BB       		.byte	-69
 1098 0033 16       		.byte	22
 1099 0034 1F       		.byte	31
 1100 0035 15       		.byte	21
 1101 0036 B4       		.byte	-76
 1102 0037 16       		.byte	22
 1103 0038 A0       		.byte	-96
 1104 0039 16       		.byte	22
 1105 003a FD       		.byte	-3
 1106 003b 15       		.byte	21
 1107 003c BE       		.byte	-66
 1108 003d 16       		.byte	22
 1109 003e 04       		.byte	4
 1110 003f 15       		.byte	21
 1111 0040 B9       		.byte	-71
 1112 0041 15       		.byte	21
 1113 0042 A6       		.byte	-90
 1114 0043 15       		.byte	21
 1115 0044 A9       		.byte	-87
 1116 0045 FE       		.byte	-2
 1117 0046 01       		.byte	1
 1118 0047 19       		.byte	25
 1119 0048 FF       		.byte	-1
 1120              		.section	.rodata.u8x8_d_ssd1322_256x64_flip0_seq,"a",%progbits
 1121              		.align	2
 1122              		.set	.LANCHOR7,. + 0
 1125              	u8x8_d_ssd1322_256x64_flip0_seq:
ARM GAS  /var/folders/v3/wysfpd052nz8jkbx04pk0ym80000gn/T//ccsUtHhW.s 			page 32


 1126 0000 18       		.byte	24
 1127 0001 15       		.byte	21
 1128 0002 A0       		.byte	-96
 1129 0003 16       		.byte	22
 1130 0004 06       		.byte	6
 1131 0005 16       		.byte	22
 1132 0006 11       		.byte	17
 1133 0007 19       		.byte	25
 1134 0008 FF       		.byte	-1
 1135              		.section	.rodata.u8x8_d_ssd1322_256x64_flip1_seq,"a",%progbits
 1136              		.align	2
 1137              		.set	.LANCHOR8,. + 0
 1140              	u8x8_d_ssd1322_256x64_flip1_seq:
 1141 0000 18       		.byte	24
 1142 0001 15       		.byte	21
 1143 0002 A0       		.byte	-96
 1144 0003 16       		.byte	22
 1145 0004 14       		.byte	20
 1146 0005 16       		.byte	22
 1147 0006 11       		.byte	17
 1148 0007 19       		.byte	25
 1149 0008 FF       		.byte	-1
 1150              		.section	.rodata.u8x8_d_ssd1322_256x64_init_seq,"a",%progbits
 1151              		.align	2
 1152              		.set	.LANCHOR6,. + 0
 1155              	u8x8_d_ssd1322_256x64_init_seq:
 1156 0000 FE       		.byte	-2
 1157 0001 01       		.byte	1
 1158 0002 18       		.byte	24
 1159 0003 FE       		.byte	-2
 1160 0004 01       		.byte	1
 1161 0005 15       		.byte	21
 1162 0006 FD       		.byte	-3
 1163 0007 16       		.byte	22
 1164 0008 12       		.byte	18
 1165 0009 15       		.byte	21
 1166 000a AE       		.byte	-82
 1167 000b 15       		.byte	21
 1168 000c B3       		.byte	-77
 1169 000d 16       		.byte	22
 1170 000e 91       		.byte	-111
 1171 000f 15       		.byte	21
 1172 0010 CA       		.byte	-54
 1173 0011 16       		.byte	22
 1174 0012 3F       		.byte	63
 1175 0013 15       		.byte	21
 1176 0014 A2       		.byte	-94
 1177 0015 16       		.byte	22
 1178 0016 00       		.byte	0
 1179 0017 15       		.byte	21
 1180 0018 A1       		.byte	-95
 1181 0019 16       		.byte	22
 1182 001a 00       		.byte	0
 1183 001b 15       		.byte	21
 1184 001c A0       		.byte	-96
 1185 001d 16       		.byte	22
 1186 001e 06       		.byte	6
ARM GAS  /var/folders/v3/wysfpd052nz8jkbx04pk0ym80000gn/T//ccsUtHhW.s 			page 33


 1187 001f 16       		.byte	22
 1188 0020 11       		.byte	17
 1189 0021 15       		.byte	21
 1190 0022 AB       		.byte	-85
 1191 0023 16       		.byte	22
 1192 0024 01       		.byte	1
 1193 0025 15       		.byte	21
 1194 0026 B4       		.byte	-76
 1195 0027 16       		.byte	22
 1196 0028 A0       		.byte	-96
 1197 0029 16       		.byte	22
 1198 002a FD       		.byte	-3
 1199 002b 15       		.byte	21
 1200 002c C1       		.byte	-63
 1201 002d 16       		.byte	22
 1202 002e 9F       		.byte	-97
 1203 002f 15       		.byte	21
 1204 0030 C7       		.byte	-57
 1205 0031 16       		.byte	22
 1206 0032 0F       		.byte	15
 1207 0033 15       		.byte	21
 1208 0034 B9       		.byte	-71
 1209 0035 15       		.byte	21
 1210 0036 B1       		.byte	-79
 1211 0037 16       		.byte	22
 1212 0038 E2       		.byte	-30
 1213 0039 15       		.byte	21
 1214 003a D1       		.byte	-47
 1215 003b 16       		.byte	22
 1216 003c A2       		.byte	-94
 1217 003d 16       		.byte	22
 1218 003e 20       		.byte	32
 1219 003f 15       		.byte	21
 1220 0040 BB       		.byte	-69
 1221 0041 16       		.byte	22
 1222 0042 1F       		.byte	31
 1223 0043 15       		.byte	21
 1224 0044 B6       		.byte	-74
 1225 0045 16       		.byte	22
 1226 0046 08       		.byte	8
 1227 0047 15       		.byte	21
 1228 0048 BE       		.byte	-66
 1229 0049 16       		.byte	22
 1230 004a 07       		.byte	7
 1231 004b 15       		.byte	21
 1232 004c A6       		.byte	-90
 1233 004d 15       		.byte	21
 1234 004e A9       		.byte	-87
 1235 004f FE       		.byte	-2
 1236 0050 01       		.byte	1
 1237 0051 19       		.byte	25
 1238 0052 FF       		.byte	-1
 1239              		.section	.rodata.u8x8_d_ssd1322_powersave0_seq,"a",%progbits
 1240              		.align	2
 1241              		.set	.LANCHOR2,. + 0
 1244              	u8x8_d_ssd1322_powersave0_seq:
 1245 0000 18       		.byte	24
ARM GAS  /var/folders/v3/wysfpd052nz8jkbx04pk0ym80000gn/T//ccsUtHhW.s 			page 34


 1246 0001 15       		.byte	21
 1247 0002 AF       		.byte	-81
 1248 0003 19       		.byte	25
 1249 0004 FF       		.byte	-1
 1250              		.section	.rodata.u8x8_d_ssd1322_powersave1_seq,"a",%progbits
 1251              		.align	2
 1252              		.set	.LANCHOR3,. + 0
 1255              	u8x8_d_ssd1322_powersave1_seq:
 1256 0000 18       		.byte	24
 1257 0001 15       		.byte	21
 1258 0002 AE       		.byte	-82
 1259 0003 19       		.byte	25
 1260 0004 FF       		.byte	-1
 1261              		.section	.rodata.u8x8_ssd1322_128x64_display_info,"a",%progbits
 1262              		.align	2
 1263              		.set	.LANCHOR9,. + 0
 1266              	u8x8_ssd1322_128x64_display_info:
 1267 0000 00       		.byte	0
 1268 0001 01       		.byte	1
 1269 0002 14       		.byte	20
 1270 0003 0A       		.byte	10
 1271 0004 64       		.byte	100
 1272 0005 64       		.byte	100
 1273 0006 32       		.byte	50
 1274 0007 32       		.byte	50
 1275 0008 80969800 		.word	10000000
 1276 000c 00       		.byte	0
 1277 000d 04       		.byte	4
 1278 000e 0A       		.byte	10
 1279 000f 96       		.byte	-106
 1280 0010 10       		.byte	16
 1281 0011 08       		.byte	8
 1282 0012 1C       		.byte	28
 1283 0013 1C       		.byte	28
 1284 0014 8000     		.short	128
 1285 0016 4000     		.short	64
 1286              		.section	.rodata.u8x8_ssd1322_256x64_display_info,"a",%progbits
 1287              		.align	2
 1288              		.set	.LANCHOR5,. + 0
 1291              	u8x8_ssd1322_256x64_display_info:
 1292 0000 00       		.byte	0
 1293 0001 01       		.byte	1
 1294 0002 14       		.byte	20
 1295 0003 0A       		.byte	10
 1296 0004 64       		.byte	100
 1297 0005 64       		.byte	100
 1298 0006 32       		.byte	50
 1299 0007 32       		.byte	50
 1300 0008 80969800 		.word	10000000
 1301 000c 00       		.byte	0
 1302 000d 04       		.byte	4
 1303 000e 0A       		.byte	10
 1304 000f 96       		.byte	-106
 1305 0010 20       		.byte	32
 1306 0011 08       		.byte	8
 1307 0012 1C       		.byte	28
 1308 0013 1C       		.byte	28
ARM GAS  /var/folders/v3/wysfpd052nz8jkbx04pk0ym80000gn/T//ccsUtHhW.s 			page 35


 1309 0014 0001     		.short	256
 1310 0016 4000     		.short	64
 1311              		.text
 1312              	.Letext0:
 1313              		.file 2 "/usr/local/gcc-arm-none-eabi-7-2018-q2-update/arm-none-eabi/include/machine/_default_type
 1314              		.file 3 "/usr/local/gcc-arm-none-eabi-7-2018-q2-update/arm-none-eabi/include/sys/_stdint.h"
 1315              		.file 4 "/Users/imashio/Electronics/ARM/_Library/u8x8.h"
ARM GAS  /var/folders/v3/wysfpd052nz8jkbx04pk0ym80000gn/T//ccsUtHhW.s 			page 36


DEFINED SYMBOLS
                            *ABS*:0000000000000000 u8x8_d_ssd1322.c
/var/folders/v3/wysfpd052nz8jkbx04pk0ym80000gn/T//ccsUtHhW.s:18     .text.u8x8_write_byte_to_16gr_device:0000000000000000 $t
/var/folders/v3/wysfpd052nz8jkbx04pk0ym80000gn/T//ccsUtHhW.s:26     .text.u8x8_write_byte_to_16gr_device:0000000000000000 u8x8_write_byte_to_16gr_device
/var/folders/v3/wysfpd052nz8jkbx04pk0ym80000gn/T//ccsUtHhW.s:85     .text.u8x8_write_byte_to_16gr_device:0000000000000030 $d
/var/folders/v3/wysfpd052nz8jkbx04pk0ym80000gn/T//ccsUtHhW.s:91     .text.u8x8_d_ssd1322_common:0000000000000000 $t
/var/folders/v3/wysfpd052nz8jkbx04pk0ym80000gn/T//ccsUtHhW.s:99     .text.u8x8_d_ssd1322_common:0000000000000000 u8x8_d_ssd1322_common
/var/folders/v3/wysfpd052nz8jkbx04pk0ym80000gn/T//ccsUtHhW.s:397    .text.u8x8_d_ssd1322_common:0000000000000160 $d
/var/folders/v3/wysfpd052nz8jkbx04pk0ym80000gn/T//ccsUtHhW.s:404    .text.u8x8_d_ssd1322_nhd_256x64:0000000000000000 $t
/var/folders/v3/wysfpd052nz8jkbx04pk0ym80000gn/T//ccsUtHhW.s:412    .text.u8x8_d_ssd1322_nhd_256x64:0000000000000000 u8x8_d_ssd1322_nhd_256x64
/var/folders/v3/wysfpd052nz8jkbx04pk0ym80000gn/T//ccsUtHhW.s:507    .text.u8x8_d_ssd1322_nhd_256x64:0000000000000054 $d
/var/folders/v3/wysfpd052nz8jkbx04pk0ym80000gn/T//ccsUtHhW.s:515    .text.u8x8_d_ssd1322_common2:0000000000000000 $t
/var/folders/v3/wysfpd052nz8jkbx04pk0ym80000gn/T//ccsUtHhW.s:523    .text.u8x8_d_ssd1322_common2:0000000000000000 u8x8_d_ssd1322_common2
/var/folders/v3/wysfpd052nz8jkbx04pk0ym80000gn/T//ccsUtHhW.s:869    .text.u8x8_d_ssd1322_common2:00000000000001a0 $d
/var/folders/v3/wysfpd052nz8jkbx04pk0ym80000gn/T//ccsUtHhW.s:877    .text.u8x8_d_ssd1322_nhd_128x64:0000000000000000 $t
/var/folders/v3/wysfpd052nz8jkbx04pk0ym80000gn/T//ccsUtHhW.s:885    .text.u8x8_d_ssd1322_nhd_128x64:0000000000000000 u8x8_d_ssd1322_nhd_128x64
/var/folders/v3/wysfpd052nz8jkbx04pk0ym80000gn/T//ccsUtHhW.s:980    .text.u8x8_d_ssd1322_nhd_128x64:0000000000000054 $d
/var/folders/v3/wysfpd052nz8jkbx04pk0ym80000gn/T//ccsUtHhW.s:988    .bss.buf.6259:0000000000000000 $d
/var/folders/v3/wysfpd052nz8jkbx04pk0ym80000gn/T//ccsUtHhW.s:992    .bss.buf.6259:0000000000000000 buf.6259
/var/folders/v3/wysfpd052nz8jkbx04pk0ym80000gn/T//ccsUtHhW.s:995    .bss.u8x8_ssd1322_to32_dest_buf:0000000000000000 $d
/var/folders/v3/wysfpd052nz8jkbx04pk0ym80000gn/T//ccsUtHhW.s:999    .bss.u8x8_ssd1322_to32_dest_buf:0000000000000000 u8x8_ssd1322_to32_dest_buf
/var/folders/v3/wysfpd052nz8jkbx04pk0ym80000gn/T//ccsUtHhW.s:1002   .rodata.map.6260:0000000000000000 $d
/var/folders/v3/wysfpd052nz8jkbx04pk0ym80000gn/T//ccsUtHhW.s:1006   .rodata.map.6260:0000000000000000 map.6260
/var/folders/v3/wysfpd052nz8jkbx04pk0ym80000gn/T//ccsUtHhW.s:1012   .rodata.u8x8_d_ssd1322_128x64_flip0_seq:0000000000000000 $d
/var/folders/v3/wysfpd052nz8jkbx04pk0ym80000gn/T//ccsUtHhW.s:1016   .rodata.u8x8_d_ssd1322_128x64_flip0_seq:0000000000000000 u8x8_d_ssd1322_128x64_flip0_seq
/var/folders/v3/wysfpd052nz8jkbx04pk0ym80000gn/T//ccsUtHhW.s:1027   .rodata.u8x8_d_ssd1322_128x64_flip1_seq:0000000000000000 $d
/var/folders/v3/wysfpd052nz8jkbx04pk0ym80000gn/T//ccsUtHhW.s:1031   .rodata.u8x8_d_ssd1322_128x64_flip1_seq:0000000000000000 u8x8_d_ssd1322_128x64_flip1_seq
/var/folders/v3/wysfpd052nz8jkbx04pk0ym80000gn/T//ccsUtHhW.s:1042   .rodata.u8x8_d_ssd1322_128x64_init_seq:0000000000000000 $d
/var/folders/v3/wysfpd052nz8jkbx04pk0ym80000gn/T//ccsUtHhW.s:1046   .rodata.u8x8_d_ssd1322_128x64_init_seq:0000000000000000 u8x8_d_ssd1322_128x64_init_seq
/var/folders/v3/wysfpd052nz8jkbx04pk0ym80000gn/T//ccsUtHhW.s:1121   .rodata.u8x8_d_ssd1322_256x64_flip0_seq:0000000000000000 $d
/var/folders/v3/wysfpd052nz8jkbx04pk0ym80000gn/T//ccsUtHhW.s:1125   .rodata.u8x8_d_ssd1322_256x64_flip0_seq:0000000000000000 u8x8_d_ssd1322_256x64_flip0_seq
/var/folders/v3/wysfpd052nz8jkbx04pk0ym80000gn/T//ccsUtHhW.s:1136   .rodata.u8x8_d_ssd1322_256x64_flip1_seq:0000000000000000 $d
/var/folders/v3/wysfpd052nz8jkbx04pk0ym80000gn/T//ccsUtHhW.s:1140   .rodata.u8x8_d_ssd1322_256x64_flip1_seq:0000000000000000 u8x8_d_ssd1322_256x64_flip1_seq
/var/folders/v3/wysfpd052nz8jkbx04pk0ym80000gn/T//ccsUtHhW.s:1151   .rodata.u8x8_d_ssd1322_256x64_init_seq:0000000000000000 $d
/var/folders/v3/wysfpd052nz8jkbx04pk0ym80000gn/T//ccsUtHhW.s:1155   .rodata.u8x8_d_ssd1322_256x64_init_seq:0000000000000000 u8x8_d_ssd1322_256x64_init_seq
/var/folders/v3/wysfpd052nz8jkbx04pk0ym80000gn/T//ccsUtHhW.s:1240   .rodata.u8x8_d_ssd1322_powersave0_seq:0000000000000000 $d
/var/folders/v3/wysfpd052nz8jkbx04pk0ym80000gn/T//ccsUtHhW.s:1244   .rodata.u8x8_d_ssd1322_powersave0_seq:0000000000000000 u8x8_d_ssd1322_powersave0_seq
/var/folders/v3/wysfpd052nz8jkbx04pk0ym80000gn/T//ccsUtHhW.s:1251   .rodata.u8x8_d_ssd1322_powersave1_seq:0000000000000000 $d
/var/folders/v3/wysfpd052nz8jkbx04pk0ym80000gn/T//ccsUtHhW.s:1255   .rodata.u8x8_d_ssd1322_powersave1_seq:0000000000000000 u8x8_d_ssd1322_powersave1_seq
/var/folders/v3/wysfpd052nz8jkbx04pk0ym80000gn/T//ccsUtHhW.s:1262   .rodata.u8x8_ssd1322_128x64_display_info:0000000000000000 $d
/var/folders/v3/wysfpd052nz8jkbx04pk0ym80000gn/T//ccsUtHhW.s:1266   .rodata.u8x8_ssd1322_128x64_display_info:0000000000000000 u8x8_ssd1322_128x64_display_info
/var/folders/v3/wysfpd052nz8jkbx04pk0ym80000gn/T//ccsUtHhW.s:1287   .rodata.u8x8_ssd1322_256x64_display_info:0000000000000000 $d
/var/folders/v3/wysfpd052nz8jkbx04pk0ym80000gn/T//ccsUtHhW.s:1291   .rodata.u8x8_ssd1322_256x64_display_info:0000000000000000 u8x8_ssd1322_256x64_display_info

UNDEFINED SYMBOLS
u8x8_cad_SendData
u8x8_cad_SendSequence
u8x8_cad_StartTransfer
u8x8_cad_SendCmd
u8x8_cad_SendArg
u8x8_cad_EndTransfer
u8x8_d_helper_display_setup_memory
u8x8_d_helper_display_init
