ARM GAS  /var/folders/v3/wysfpd052nz8jkbx04pk0ym80000gn/T//ccEvjYRK.s 			page 1


   1              		.cpu cortex-m4
   2              		.eabi_attribute 27, 1
   3              		.eabi_attribute 28, 1
   4              		.eabi_attribute 20, 1
   5              		.eabi_attribute 21, 1
   6              		.eabi_attribute 23, 3
   7              		.eabi_attribute 24, 1
   8              		.eabi_attribute 25, 1
   9              		.eabi_attribute 26, 1
  10              		.eabi_attribute 30, 2
  11              		.eabi_attribute 34, 1
  12              		.eabi_attribute 18, 4
  13              		.file	"u8x8_d_ssd1305.c"
  14              		.text
  15              	.Ltext0:
  16              		.cfi_sections	.debug_frame
  17              		.section	.text.u8x8_d_ssd1305_128x32_noname,"ax",%progbits
  18              		.align	1
  19              		.p2align 2,,3
  20              		.global	u8x8_d_ssd1305_128x32_noname
  21              		.syntax unified
  22              		.thumb
  23              		.thumb_func
  24              		.fpu fpv4-sp-d16
  26              	u8x8_d_ssd1305_128x32_noname:
  27              	.LFB1:
  28              		.file 1 "/Users/imashio/Electronics/ARM/_Library/u8x8_d_ssd1305.c"
   1:/Users/imashio/Electronics/ARM/_Library/u8x8_d_ssd1305.c **** /*
   2:/Users/imashio/Electronics/ARM/_Library/u8x8_d_ssd1305.c **** 
   3:/Users/imashio/Electronics/ARM/_Library/u8x8_d_ssd1305.c ****   u8x8_d_ssd1305.c
   4:/Users/imashio/Electronics/ARM/_Library/u8x8_d_ssd1305.c **** 
   5:/Users/imashio/Electronics/ARM/_Library/u8x8_d_ssd1305.c ****   Universal 8bit Graphics Library (https://github.com/olikraus/u8g2/)
   6:/Users/imashio/Electronics/ARM/_Library/u8x8_d_ssd1305.c **** 
   7:/Users/imashio/Electronics/ARM/_Library/u8x8_d_ssd1305.c ****   Copyright (c) 2017, olikraus@gmail.com
   8:/Users/imashio/Electronics/ARM/_Library/u8x8_d_ssd1305.c ****   All rights reserved.
   9:/Users/imashio/Electronics/ARM/_Library/u8x8_d_ssd1305.c **** 
  10:/Users/imashio/Electronics/ARM/_Library/u8x8_d_ssd1305.c ****   Redistribution and use in source and binary forms, with or without modification, 
  11:/Users/imashio/Electronics/ARM/_Library/u8x8_d_ssd1305.c ****   are permitted provided that the following conditions are met:
  12:/Users/imashio/Electronics/ARM/_Library/u8x8_d_ssd1305.c **** 
  13:/Users/imashio/Electronics/ARM/_Library/u8x8_d_ssd1305.c ****   * Redistributions of source code must retain the above copyright notice, this list 
  14:/Users/imashio/Electronics/ARM/_Library/u8x8_d_ssd1305.c ****     of conditions and the following disclaimer.
  15:/Users/imashio/Electronics/ARM/_Library/u8x8_d_ssd1305.c ****     
  16:/Users/imashio/Electronics/ARM/_Library/u8x8_d_ssd1305.c ****   * Redistributions in binary form must reproduce the above copyright notice, this 
  17:/Users/imashio/Electronics/ARM/_Library/u8x8_d_ssd1305.c ****     list of conditions and the following disclaimer in the documentation and/or other 
  18:/Users/imashio/Electronics/ARM/_Library/u8x8_d_ssd1305.c ****     materials provided with the distribution.
  19:/Users/imashio/Electronics/ARM/_Library/u8x8_d_ssd1305.c **** 
  20:/Users/imashio/Electronics/ARM/_Library/u8x8_d_ssd1305.c ****   THIS SOFTWARE IS PROVIDED BY THE COPYRIGHT HOLDERS AND 
  21:/Users/imashio/Electronics/ARM/_Library/u8x8_d_ssd1305.c ****   CONTRIBUTORS "AS IS" AND ANY EXPRESS OR IMPLIED WARRANTIES, 
  22:/Users/imashio/Electronics/ARM/_Library/u8x8_d_ssd1305.c ****   INCLUDING, BUT NOT LIMITED TO, THE IMPLIED WARRANTIES OF 
  23:/Users/imashio/Electronics/ARM/_Library/u8x8_d_ssd1305.c ****   MERCHANTABILITY AND FITNESS FOR A PARTICULAR PURPOSE ARE 
  24:/Users/imashio/Electronics/ARM/_Library/u8x8_d_ssd1305.c ****   DISCLAIMED. IN NO EVENT SHALL THE COPYRIGHT HOLDER OR 
  25:/Users/imashio/Electronics/ARM/_Library/u8x8_d_ssd1305.c ****   CONTRIBUTORS BE LIABLE FOR ANY DIRECT, INDIRECT, INCIDENTAL, 
  26:/Users/imashio/Electronics/ARM/_Library/u8x8_d_ssd1305.c ****   SPECIAL, EXEMPLARY, OR CONSEQUENTIAL DAMAGES (INCLUDING, BUT 
  27:/Users/imashio/Electronics/ARM/_Library/u8x8_d_ssd1305.c ****   NOT LIMITED TO, PROCUREMENT OF SUBSTITUTE GOODS OR SERVICES; 
  28:/Users/imashio/Electronics/ARM/_Library/u8x8_d_ssd1305.c ****   LOSS OF USE, DATA, OR PROFITS; OR BUSINESS INTERRUPTION) HOWEVER 
  29:/Users/imashio/Electronics/ARM/_Library/u8x8_d_ssd1305.c ****   CAUSED AND ON ANY THEORY OF LIABILITY, WHETHER IN CONTRACT, 
  30:/Users/imashio/Electronics/ARM/_Library/u8x8_d_ssd1305.c ****   STRICT LIABILITY, OR TORT (INCLUDING NEGLIGENCE OR OTHERWISE) 
ARM GAS  /var/folders/v3/wysfpd052nz8jkbx04pk0ym80000gn/T//ccEvjYRK.s 			page 2


  31:/Users/imashio/Electronics/ARM/_Library/u8x8_d_ssd1305.c ****   ARISING IN ANY WAY OUT OF THE USE OF THIS SOFTWARE, EVEN IF 
  32:/Users/imashio/Electronics/ARM/_Library/u8x8_d_ssd1305.c ****   ADVISED OF THE POSSIBILITY OF SUCH DAMAGE.  
  33:/Users/imashio/Electronics/ARM/_Library/u8x8_d_ssd1305.c ****   
  34:/Users/imashio/Electronics/ARM/_Library/u8x8_d_ssd1305.c **** */
  35:/Users/imashio/Electronics/ARM/_Library/u8x8_d_ssd1305.c **** 
  36:/Users/imashio/Electronics/ARM/_Library/u8x8_d_ssd1305.c **** 
  37:/Users/imashio/Electronics/ARM/_Library/u8x8_d_ssd1305.c **** #include "u8x8.h"
  38:/Users/imashio/Electronics/ARM/_Library/u8x8_d_ssd1305.c **** 
  39:/Users/imashio/Electronics/ARM/_Library/u8x8_d_ssd1305.c **** 
  40:/Users/imashio/Electronics/ARM/_Library/u8x8_d_ssd1305.c **** 
  41:/Users/imashio/Electronics/ARM/_Library/u8x8_d_ssd1305.c **** 
  42:/Users/imashio/Electronics/ARM/_Library/u8x8_d_ssd1305.c **** static const uint8_t u8x8_d_ssd1305_powersave0_seq[] = {
  43:/Users/imashio/Electronics/ARM/_Library/u8x8_d_ssd1305.c ****   U8X8_START_TRANSFER(),             	/* enable chip, delay is part of the transfer start */
  44:/Users/imashio/Electronics/ARM/_Library/u8x8_d_ssd1305.c ****   U8X8_C(0x0af),		                /* display on */
  45:/Users/imashio/Electronics/ARM/_Library/u8x8_d_ssd1305.c ****   U8X8_END_TRANSFER(),             	/* disable chip */
  46:/Users/imashio/Electronics/ARM/_Library/u8x8_d_ssd1305.c ****   U8X8_END()             			/* end of sequence */
  47:/Users/imashio/Electronics/ARM/_Library/u8x8_d_ssd1305.c **** };
  48:/Users/imashio/Electronics/ARM/_Library/u8x8_d_ssd1305.c **** 
  49:/Users/imashio/Electronics/ARM/_Library/u8x8_d_ssd1305.c **** static const uint8_t u8x8_d_ssd1305_powersave1_seq[] = {
  50:/Users/imashio/Electronics/ARM/_Library/u8x8_d_ssd1305.c ****   U8X8_START_TRANSFER(),             	/* enable chip, delay is part of the transfer start */
  51:/Users/imashio/Electronics/ARM/_Library/u8x8_d_ssd1305.c ****   U8X8_C(0x0ae),		                /* display off */
  52:/Users/imashio/Electronics/ARM/_Library/u8x8_d_ssd1305.c ****   U8X8_END_TRANSFER(),             	/* disable chip */
  53:/Users/imashio/Electronics/ARM/_Library/u8x8_d_ssd1305.c ****   U8X8_END()             			/* end of sequence */
  54:/Users/imashio/Electronics/ARM/_Library/u8x8_d_ssd1305.c **** };
  55:/Users/imashio/Electronics/ARM/_Library/u8x8_d_ssd1305.c **** 
  56:/Users/imashio/Electronics/ARM/_Library/u8x8_d_ssd1305.c **** static const uint8_t u8x8_d_ssd1305_128x32_flip0_seq[] = {
  57:/Users/imashio/Electronics/ARM/_Library/u8x8_d_ssd1305.c ****   U8X8_START_TRANSFER(),             	/* enable chip, delay is part of the transfer start */
  58:/Users/imashio/Electronics/ARM/_Library/u8x8_d_ssd1305.c ****   U8X8_CA(0x0d3, 32),			/* display offset to 32 */
  59:/Users/imashio/Electronics/ARM/_Library/u8x8_d_ssd1305.c ****   U8X8_C(0x0a1),				/* segment remap a0/a1*/
  60:/Users/imashio/Electronics/ARM/_Library/u8x8_d_ssd1305.c ****   U8X8_C(0x0c8),				/* c0: scan dir normal, c8: reverse */
  61:/Users/imashio/Electronics/ARM/_Library/u8x8_d_ssd1305.c ****   U8X8_END_TRANSFER(),             	/* disable chip */
  62:/Users/imashio/Electronics/ARM/_Library/u8x8_d_ssd1305.c ****   U8X8_END()             			/* end of sequence */
  63:/Users/imashio/Electronics/ARM/_Library/u8x8_d_ssd1305.c **** };
  64:/Users/imashio/Electronics/ARM/_Library/u8x8_d_ssd1305.c **** 
  65:/Users/imashio/Electronics/ARM/_Library/u8x8_d_ssd1305.c **** static const uint8_t u8x8_d_ssd1305_128x32_flip1_seq[] = {
  66:/Users/imashio/Electronics/ARM/_Library/u8x8_d_ssd1305.c ****   U8X8_START_TRANSFER(),             	/* enable chip, delay is part of the transfer start */
  67:/Users/imashio/Electronics/ARM/_Library/u8x8_d_ssd1305.c ****   U8X8_CA(0x0d3, 0),			/* display offset to  */
  68:/Users/imashio/Electronics/ARM/_Library/u8x8_d_ssd1305.c ****   U8X8_C(0x0a0),				/* segment remap a0/a1*/
  69:/Users/imashio/Electronics/ARM/_Library/u8x8_d_ssd1305.c ****   U8X8_C(0x0c0),				/* c0: scan dir normal, c8: reverse */
  70:/Users/imashio/Electronics/ARM/_Library/u8x8_d_ssd1305.c ****   U8X8_END_TRANSFER(),             	/* disable chip */
  71:/Users/imashio/Electronics/ARM/_Library/u8x8_d_ssd1305.c ****   U8X8_END()             			/* end of sequence */
  72:/Users/imashio/Electronics/ARM/_Library/u8x8_d_ssd1305.c **** };
  73:/Users/imashio/Electronics/ARM/_Library/u8x8_d_ssd1305.c **** 
  74:/Users/imashio/Electronics/ARM/_Library/u8x8_d_ssd1305.c **** 
  75:/Users/imashio/Electronics/ARM/_Library/u8x8_d_ssd1305.c **** 
  76:/Users/imashio/Electronics/ARM/_Library/u8x8_d_ssd1305.c **** static uint8_t u8x8_d_ssd1305_generic(u8x8_t *u8x8, uint8_t msg, uint8_t arg_int, void *arg_ptr)
  77:/Users/imashio/Electronics/ARM/_Library/u8x8_d_ssd1305.c **** {
  78:/Users/imashio/Electronics/ARM/_Library/u8x8_d_ssd1305.c ****   uint8_t x, c;
  79:/Users/imashio/Electronics/ARM/_Library/u8x8_d_ssd1305.c ****   uint8_t *ptr;
  80:/Users/imashio/Electronics/ARM/_Library/u8x8_d_ssd1305.c ****   switch(msg)
  81:/Users/imashio/Electronics/ARM/_Library/u8x8_d_ssd1305.c ****   {
  82:/Users/imashio/Electronics/ARM/_Library/u8x8_d_ssd1305.c ****     case U8X8_MSG_DISPLAY_DRAW_TILE:
  83:/Users/imashio/Electronics/ARM/_Library/u8x8_d_ssd1305.c ****       u8x8_cad_StartTransfer(u8x8);
  84:/Users/imashio/Electronics/ARM/_Library/u8x8_d_ssd1305.c ****       x = ((u8x8_tile_t *)arg_ptr)->x_pos;    
  85:/Users/imashio/Electronics/ARM/_Library/u8x8_d_ssd1305.c ****       x *= 8;
  86:/Users/imashio/Electronics/ARM/_Library/u8x8_d_ssd1305.c ****       x += u8x8->x_offset;
  87:/Users/imashio/Electronics/ARM/_Library/u8x8_d_ssd1305.c ****     
ARM GAS  /var/folders/v3/wysfpd052nz8jkbx04pk0ym80000gn/T//ccEvjYRK.s 			page 3


  88:/Users/imashio/Electronics/ARM/_Library/u8x8_d_ssd1305.c ****       u8x8_cad_SendCmd(u8x8, 0x040 );	/* set line offset to 0 */
  89:/Users/imashio/Electronics/ARM/_Library/u8x8_d_ssd1305.c ****     
  90:/Users/imashio/Electronics/ARM/_Library/u8x8_d_ssd1305.c ****       u8x8_cad_SendCmd(u8x8, 0x010 | (x>>4) );
  91:/Users/imashio/Electronics/ARM/_Library/u8x8_d_ssd1305.c ****       u8x8_cad_SendArg(u8x8, 0x000 | ((x&15)));
  92:/Users/imashio/Electronics/ARM/_Library/u8x8_d_ssd1305.c ****       u8x8_cad_SendArg(u8x8, 0x0b0 | (((u8x8_tile_t *)arg_ptr)->y_pos)   );
  93:/Users/imashio/Electronics/ARM/_Library/u8x8_d_ssd1305.c **** 
  94:/Users/imashio/Electronics/ARM/_Library/u8x8_d_ssd1305.c ****     
  95:/Users/imashio/Electronics/ARM/_Library/u8x8_d_ssd1305.c ****       do
  96:/Users/imashio/Electronics/ARM/_Library/u8x8_d_ssd1305.c ****       {
  97:/Users/imashio/Electronics/ARM/_Library/u8x8_d_ssd1305.c **** 	c = ((u8x8_tile_t *)arg_ptr)->cnt;
  98:/Users/imashio/Electronics/ARM/_Library/u8x8_d_ssd1305.c **** 	ptr = ((u8x8_tile_t *)arg_ptr)->tile_ptr;
  99:/Users/imashio/Electronics/ARM/_Library/u8x8_d_ssd1305.c **** 	u8x8_cad_SendData(u8x8, c*8, ptr); 	/* note: SendData can not handle more than 255 bytes */
 100:/Users/imashio/Electronics/ARM/_Library/u8x8_d_ssd1305.c **** 	/*
 101:/Users/imashio/Electronics/ARM/_Library/u8x8_d_ssd1305.c **** 	do
 102:/Users/imashio/Electronics/ARM/_Library/u8x8_d_ssd1305.c **** 	{
 103:/Users/imashio/Electronics/ARM/_Library/u8x8_d_ssd1305.c **** 	  u8x8_cad_SendData(u8x8, 8, ptr);
 104:/Users/imashio/Electronics/ARM/_Library/u8x8_d_ssd1305.c **** 	  ptr += 8;
 105:/Users/imashio/Electronics/ARM/_Library/u8x8_d_ssd1305.c **** 	  c--;
 106:/Users/imashio/Electronics/ARM/_Library/u8x8_d_ssd1305.c **** 	} while( c > 0 );
 107:/Users/imashio/Electronics/ARM/_Library/u8x8_d_ssd1305.c **** 	*/
 108:/Users/imashio/Electronics/ARM/_Library/u8x8_d_ssd1305.c **** 	arg_int--;
 109:/Users/imashio/Electronics/ARM/_Library/u8x8_d_ssd1305.c ****       } while( arg_int > 0 );
 110:/Users/imashio/Electronics/ARM/_Library/u8x8_d_ssd1305.c ****       
 111:/Users/imashio/Electronics/ARM/_Library/u8x8_d_ssd1305.c ****       u8x8_cad_EndTransfer(u8x8);
 112:/Users/imashio/Electronics/ARM/_Library/u8x8_d_ssd1305.c ****       break;
 113:/Users/imashio/Electronics/ARM/_Library/u8x8_d_ssd1305.c ****     case U8X8_MSG_DISPLAY_SET_POWER_SAVE:
 114:/Users/imashio/Electronics/ARM/_Library/u8x8_d_ssd1305.c ****       if ( arg_int == 0 )
 115:/Users/imashio/Electronics/ARM/_Library/u8x8_d_ssd1305.c **** 	u8x8_cad_SendSequence(u8x8, u8x8_d_ssd1305_powersave0_seq);
 116:/Users/imashio/Electronics/ARM/_Library/u8x8_d_ssd1305.c ****       else
 117:/Users/imashio/Electronics/ARM/_Library/u8x8_d_ssd1305.c **** 	u8x8_cad_SendSequence(u8x8, u8x8_d_ssd1305_powersave1_seq);
 118:/Users/imashio/Electronics/ARM/_Library/u8x8_d_ssd1305.c ****       break;
 119:/Users/imashio/Electronics/ARM/_Library/u8x8_d_ssd1305.c **** #ifdef U8X8_WITH_SET_CONTRAST
 120:/Users/imashio/Electronics/ARM/_Library/u8x8_d_ssd1305.c ****     case U8X8_MSG_DISPLAY_SET_CONTRAST:
 121:/Users/imashio/Electronics/ARM/_Library/u8x8_d_ssd1305.c ****       u8x8_cad_StartTransfer(u8x8);
 122:/Users/imashio/Electronics/ARM/_Library/u8x8_d_ssd1305.c ****       u8x8_cad_SendCmd(u8x8, 0x081 );
 123:/Users/imashio/Electronics/ARM/_Library/u8x8_d_ssd1305.c ****       u8x8_cad_SendArg(u8x8, arg_int );	/* ssd1305 has range from 0 to 255 */
 124:/Users/imashio/Electronics/ARM/_Library/u8x8_d_ssd1305.c ****       u8x8_cad_EndTransfer(u8x8);
 125:/Users/imashio/Electronics/ARM/_Library/u8x8_d_ssd1305.c ****       break;
 126:/Users/imashio/Electronics/ARM/_Library/u8x8_d_ssd1305.c **** #endif
 127:/Users/imashio/Electronics/ARM/_Library/u8x8_d_ssd1305.c ****     default:
 128:/Users/imashio/Electronics/ARM/_Library/u8x8_d_ssd1305.c ****       return 0;
 129:/Users/imashio/Electronics/ARM/_Library/u8x8_d_ssd1305.c ****   }
 130:/Users/imashio/Electronics/ARM/_Library/u8x8_d_ssd1305.c ****   return 1;
 131:/Users/imashio/Electronics/ARM/_Library/u8x8_d_ssd1305.c **** }
 132:/Users/imashio/Electronics/ARM/_Library/u8x8_d_ssd1305.c **** 
 133:/Users/imashio/Electronics/ARM/_Library/u8x8_d_ssd1305.c **** /* timing from SSD1306 */
 134:/Users/imashio/Electronics/ARM/_Library/u8x8_d_ssd1305.c **** static const u8x8_display_info_t u8x8_ssd1305_128x32_noname_display_info =
 135:/Users/imashio/Electronics/ARM/_Library/u8x8_d_ssd1305.c **** {
 136:/Users/imashio/Electronics/ARM/_Library/u8x8_d_ssd1305.c ****   /* chip_enable_level = */ 0,
 137:/Users/imashio/Electronics/ARM/_Library/u8x8_d_ssd1305.c ****   /* chip_disable_level = */ 1,
 138:/Users/imashio/Electronics/ARM/_Library/u8x8_d_ssd1305.c ****   
 139:/Users/imashio/Electronics/ARM/_Library/u8x8_d_ssd1305.c ****   /* post_chip_enable_wait_ns = */ 20,
 140:/Users/imashio/Electronics/ARM/_Library/u8x8_d_ssd1305.c ****   /* pre_chip_disable_wait_ns = */ 10,
 141:/Users/imashio/Electronics/ARM/_Library/u8x8_d_ssd1305.c ****   /* reset_pulse_width_ms = */ 100, 	/* SSD1306: 3 us */
 142:/Users/imashio/Electronics/ARM/_Library/u8x8_d_ssd1305.c ****   /* post_reset_wait_ms = */ 100, /* far east OLEDs need much longer setup time */
 143:/Users/imashio/Electronics/ARM/_Library/u8x8_d_ssd1305.c ****   /* sda_setup_time_ns = */ 50,		/* SSD1306: 15ns, but cycle time is 100ns, so use 100/2 */
 144:/Users/imashio/Electronics/ARM/_Library/u8x8_d_ssd1305.c ****   /* sck_pulse_width_ns = */ 50,	/* SSD1306: 20ns, but cycle time is 100ns, so use 100/2, AVR: belo
ARM GAS  /var/folders/v3/wysfpd052nz8jkbx04pk0ym80000gn/T//ccEvjYRK.s 			page 4


 145:/Users/imashio/Electronics/ARM/_Library/u8x8_d_ssd1305.c ****   /* sck_clock_hz = */ 4000000UL,	/* since Arduino 1.6.0, the SPI bus speed in Hz. Should be  10000
 146:/Users/imashio/Electronics/ARM/_Library/u8x8_d_ssd1305.c ****   /* spi_mode = */ 0,		/* active high, rising edge */
 147:/Users/imashio/Electronics/ARM/_Library/u8x8_d_ssd1305.c ****   /* i2c_bus_clock_100kHz = */ 4,
 148:/Users/imashio/Electronics/ARM/_Library/u8x8_d_ssd1305.c ****   /* data_setup_time_ns = */ 40,
 149:/Users/imashio/Electronics/ARM/_Library/u8x8_d_ssd1305.c ****   /* write_pulse_width_ns = */ 150,	/* SSD1306: cycle time is 300ns, so use 300/2 = 150 */
 150:/Users/imashio/Electronics/ARM/_Library/u8x8_d_ssd1305.c ****   /* tile_width = */ 16,
 151:/Users/imashio/Electronics/ARM/_Library/u8x8_d_ssd1305.c ****   /* tile_hight = */ 4,
 152:/Users/imashio/Electronics/ARM/_Library/u8x8_d_ssd1305.c ****   /* default_x_offset = */ 2,
 153:/Users/imashio/Electronics/ARM/_Library/u8x8_d_ssd1305.c ****   /* flipmode_x_offset = */ 2,
 154:/Users/imashio/Electronics/ARM/_Library/u8x8_d_ssd1305.c ****   /* pixel_width = */ 128,
 155:/Users/imashio/Electronics/ARM/_Library/u8x8_d_ssd1305.c ****   /* pixel_height = */ 32
 156:/Users/imashio/Electronics/ARM/_Library/u8x8_d_ssd1305.c **** };
 157:/Users/imashio/Electronics/ARM/_Library/u8x8_d_ssd1305.c **** 
 158:/Users/imashio/Electronics/ARM/_Library/u8x8_d_ssd1305.c **** 
 159:/Users/imashio/Electronics/ARM/_Library/u8x8_d_ssd1305.c **** static const uint8_t u8x8_d_ssd1305_128x32_noname_init_seq[] = {
 160:/Users/imashio/Electronics/ARM/_Library/u8x8_d_ssd1305.c ****     
 161:/Users/imashio/Electronics/ARM/_Library/u8x8_d_ssd1305.c ****   U8X8_START_TRANSFER(),             	/* enable chip, delay is part of the transfer start */
 162:/Users/imashio/Electronics/ARM/_Library/u8x8_d_ssd1305.c ****   
 163:/Users/imashio/Electronics/ARM/_Library/u8x8_d_ssd1305.c ****   
 164:/Users/imashio/Electronics/ARM/_Library/u8x8_d_ssd1305.c ****   U8X8_C(0x0ae),		                /* display off */
 165:/Users/imashio/Electronics/ARM/_Library/u8x8_d_ssd1305.c ****   U8X8_CA(0x0d5, 0x080),		/* clock divide ratio (0x00=1) and oscillator frequency (0x8) */
 166:/Users/imashio/Electronics/ARM/_Library/u8x8_d_ssd1305.c ****   U8X8_CA(0x0a8, 0x03f),		/* multiplex ratio */
 167:/Users/imashio/Electronics/ARM/_Library/u8x8_d_ssd1305.c ****   U8X8_CA(0x0d3, 32),			/* display offset to 32 */
 168:/Users/imashio/Electronics/ARM/_Library/u8x8_d_ssd1305.c ****   U8X8_C(0x040),		        	/* set display start line to 0 */
 169:/Users/imashio/Electronics/ARM/_Library/u8x8_d_ssd1305.c ****   U8X8_CA(0x020, 0x000),		/* page addressing mode */
 170:/Users/imashio/Electronics/ARM/_Library/u8x8_d_ssd1305.c ****   
 171:/Users/imashio/Electronics/ARM/_Library/u8x8_d_ssd1305.c ****   U8X8_C(0x0a1),				/* segment remap a0/a1*/
 172:/Users/imashio/Electronics/ARM/_Library/u8x8_d_ssd1305.c ****   U8X8_C(0x0c8),				/* c0: scan dir normal, c8: reverse */
 173:/Users/imashio/Electronics/ARM/_Library/u8x8_d_ssd1305.c ****   // Flipmode
 174:/Users/imashio/Electronics/ARM/_Library/u8x8_d_ssd1305.c ****   // U8X8_C(0x0a0),				/* segment remap a0/a1*/
 175:/Users/imashio/Electronics/ARM/_Library/u8x8_d_ssd1305.c ****   // U8X8_C(0x0c0),				/* c0: scan dir normal, c8: reverse */
 176:/Users/imashio/Electronics/ARM/_Library/u8x8_d_ssd1305.c ****   
 177:/Users/imashio/Electronics/ARM/_Library/u8x8_d_ssd1305.c ****   U8X8_CA(0x0da, 0x012),		/* com pin HW config, sequential com pin config (bit 4), disable left/rig
 178:/Users/imashio/Electronics/ARM/_Library/u8x8_d_ssd1305.c **** 
 179:/Users/imashio/Electronics/ARM/_Library/u8x8_d_ssd1305.c ****   U8X8_CA(0x081, 0x0cf), 		/* [2] set contrast control */
 180:/Users/imashio/Electronics/ARM/_Library/u8x8_d_ssd1305.c ****   U8X8_CA(0x0d9, 0x0f1), 		/* [2] pre-charge period 0x022/f1*/
 181:/Users/imashio/Electronics/ARM/_Library/u8x8_d_ssd1305.c ****   U8X8_CA(0x0db, 0x040), 		/* vcomh deselect level */  
 182:/Users/imashio/Electronics/ARM/_Library/u8x8_d_ssd1305.c ****   // if vcomh is 0, then this will give the biggest range for contrast control issue #98
 183:/Users/imashio/Electronics/ARM/_Library/u8x8_d_ssd1305.c ****   // restored the old values for the noname constructor, because vcomh=0 will not work for all OLED
 184:/Users/imashio/Electronics/ARM/_Library/u8x8_d_ssd1305.c ****   
 185:/Users/imashio/Electronics/ARM/_Library/u8x8_d_ssd1305.c ****   U8X8_C(0x02e),				/* Deactivate scroll */ 
 186:/Users/imashio/Electronics/ARM/_Library/u8x8_d_ssd1305.c ****   U8X8_C(0x0a4),				/* output ram to display */
 187:/Users/imashio/Electronics/ARM/_Library/u8x8_d_ssd1305.c ****   U8X8_C(0x0a6),				/* none inverted normal display mode */
 188:/Users/imashio/Electronics/ARM/_Library/u8x8_d_ssd1305.c ****     
 189:/Users/imashio/Electronics/ARM/_Library/u8x8_d_ssd1305.c ****   U8X8_END_TRANSFER(),             	/* disable chip */
 190:/Users/imashio/Electronics/ARM/_Library/u8x8_d_ssd1305.c ****   U8X8_END()             			/* end of sequence */
 191:/Users/imashio/Electronics/ARM/_Library/u8x8_d_ssd1305.c **** };
 192:/Users/imashio/Electronics/ARM/_Library/u8x8_d_ssd1305.c **** 
 193:/Users/imashio/Electronics/ARM/_Library/u8x8_d_ssd1305.c **** 
 194:/Users/imashio/Electronics/ARM/_Library/u8x8_d_ssd1305.c **** uint8_t u8x8_d_ssd1305_128x32_noname(u8x8_t *u8x8, uint8_t msg, uint8_t arg_int, void *arg_ptr)
 195:/Users/imashio/Electronics/ARM/_Library/u8x8_d_ssd1305.c **** {
  29              		.loc 1 195 0
  30              		.cfi_startproc
  31              		@ args = 0, pretend = 0, frame = 0
  32              		@ frame_needed = 0, uses_anonymous_args = 0
  33              	.LVL0:
  34              	.LBB4:
ARM GAS  /var/folders/v3/wysfpd052nz8jkbx04pk0ym80000gn/T//ccEvjYRK.s 			page 5


  35              	.LBB5:
  80:/Users/imashio/Electronics/ARM/_Library/u8x8_d_ssd1305.c ****   {
  36              		.loc 1 80 0
  37 0000 0E29     		cmp	r1, #14
  38              	.LBE5:
  39              	.LBE4:
  40              		.loc 1 195 0
  41 0002 F8B5     		push	{r3, r4, r5, r6, r7, lr}
  42              	.LCFI0:
  43              		.cfi_def_cfa_offset 24
  44              		.cfi_offset 3, -24
  45              		.cfi_offset 4, -20
  46              		.cfi_offset 5, -16
  47              		.cfi_offset 6, -12
  48              		.cfi_offset 7, -8
  49              		.cfi_offset 14, -4
  50              		.loc 1 195 0
  51 0004 1446     		mov	r4, r2
  52 0006 0546     		mov	r5, r0
  53              	.LVL1:
  54              	.LBB11:
  55              	.LBB6:
  80:/Users/imashio/Electronics/ARM/_Library/u8x8_d_ssd1305.c ****   {
  56              		.loc 1 80 0
  57 0008 41D0     		beq	.L3
  58 000a 0F29     		cmp	r1, #15
  59 000c 10D0     		beq	.L4
  60 000e 0B29     		cmp	r1, #11
  61 0010 07D0     		beq	.L5
  62              	.LVL2:
  63              	.LBE6:
  64              	.LBE11:
 196:/Users/imashio/Electronics/ARM/_Library/u8x8_d_ssd1305.c ****     
 197:/Users/imashio/Electronics/ARM/_Library/u8x8_d_ssd1305.c ****   if ( u8x8_d_ssd1305_generic(u8x8, msg, arg_int, arg_ptr) != 0 )
 198:/Users/imashio/Electronics/ARM/_Library/u8x8_d_ssd1305.c ****     return 1;
 199:/Users/imashio/Electronics/ARM/_Library/u8x8_d_ssd1305.c ****   
 200:/Users/imashio/Electronics/ARM/_Library/u8x8_d_ssd1305.c ****   switch(msg)
  65              		.loc 1 200 0
  66 0012 0A29     		cmp	r1, #10
  67 0014 5DD0     		beq	.L7
  68 0016 0D29     		cmp	r1, #13
  69 0018 52D0     		beq	.L8
  70 001a 0929     		cmp	r1, #9
  71 001c 4BD0     		beq	.L19
 201:/Users/imashio/Electronics/ARM/_Library/u8x8_d_ssd1305.c ****   {
 202:/Users/imashio/Electronics/ARM/_Library/u8x8_d_ssd1305.c ****     case U8X8_MSG_DISPLAY_SET_FLIP_MODE:
 203:/Users/imashio/Electronics/ARM/_Library/u8x8_d_ssd1305.c ****       if ( arg_int == 0 )
 204:/Users/imashio/Electronics/ARM/_Library/u8x8_d_ssd1305.c ****       {
 205:/Users/imashio/Electronics/ARM/_Library/u8x8_d_ssd1305.c **** 	u8x8_cad_SendSequence(u8x8, u8x8_d_ssd1305_128x32_flip0_seq);
 206:/Users/imashio/Electronics/ARM/_Library/u8x8_d_ssd1305.c **** 	u8x8->x_offset = u8x8->display_info->default_x_offset;
 207:/Users/imashio/Electronics/ARM/_Library/u8x8_d_ssd1305.c ****       }
 208:/Users/imashio/Electronics/ARM/_Library/u8x8_d_ssd1305.c ****       else
 209:/Users/imashio/Electronics/ARM/_Library/u8x8_d_ssd1305.c ****       {
 210:/Users/imashio/Electronics/ARM/_Library/u8x8_d_ssd1305.c **** 	u8x8_cad_SendSequence(u8x8, u8x8_d_ssd1305_128x32_flip1_seq);
 211:/Users/imashio/Electronics/ARM/_Library/u8x8_d_ssd1305.c **** 	u8x8->x_offset = u8x8->display_info->flipmode_x_offset;
 212:/Users/imashio/Electronics/ARM/_Library/u8x8_d_ssd1305.c ****       }
 213:/Users/imashio/Electronics/ARM/_Library/u8x8_d_ssd1305.c ****       break;
ARM GAS  /var/folders/v3/wysfpd052nz8jkbx04pk0ym80000gn/T//ccEvjYRK.s 			page 6


 214:/Users/imashio/Electronics/ARM/_Library/u8x8_d_ssd1305.c ****     case U8X8_MSG_DISPLAY_INIT:
 215:/Users/imashio/Electronics/ARM/_Library/u8x8_d_ssd1305.c ****       u8x8_d_helper_display_init(u8x8);
 216:/Users/imashio/Electronics/ARM/_Library/u8x8_d_ssd1305.c ****       u8x8_cad_SendSequence(u8x8, u8x8_d_ssd1305_128x32_noname_init_seq);    
 217:/Users/imashio/Electronics/ARM/_Library/u8x8_d_ssd1305.c ****       break;
 218:/Users/imashio/Electronics/ARM/_Library/u8x8_d_ssd1305.c ****     case U8X8_MSG_DISPLAY_SETUP_MEMORY:
 219:/Users/imashio/Electronics/ARM/_Library/u8x8_d_ssd1305.c ****       u8x8_d_helper_display_setup_memory(u8x8, &u8x8_ssd1305_128x32_noname_display_info);
 220:/Users/imashio/Electronics/ARM/_Library/u8x8_d_ssd1305.c ****       break;
 221:/Users/imashio/Electronics/ARM/_Library/u8x8_d_ssd1305.c ****     default:
 222:/Users/imashio/Electronics/ARM/_Library/u8x8_d_ssd1305.c ****       return 0;
  72              		.loc 1 222 0
  73 001e 0020     		movs	r0, #0
  74              	.LVL3:
  75              	.L6:
 223:/Users/imashio/Electronics/ARM/_Library/u8x8_d_ssd1305.c ****   }
 224:/Users/imashio/Electronics/ARM/_Library/u8x8_d_ssd1305.c ****   return 1;
 225:/Users/imashio/Electronics/ARM/_Library/u8x8_d_ssd1305.c **** }
  76              		.loc 1 225 0
  77 0020 F8BD     		pop	{r3, r4, r5, r6, r7, pc}
  78              	.LVL4:
  79              	.L5:
  80              	.LBB12:
  81              	.LBB7:
 114:/Users/imashio/Electronics/ARM/_Library/u8x8_d_ssd1305.c **** 	u8x8_cad_SendSequence(u8x8, u8x8_d_ssd1305_powersave0_seq);
  82              		.loc 1 114 0
  83 0022 002A     		cmp	r2, #0
  84 0024 42D1     		bne	.L11
 115:/Users/imashio/Electronics/ARM/_Library/u8x8_d_ssd1305.c ****       else
  85              		.loc 1 115 0
  86 0026 3349     		ldr	r1, .L21
  87              	.LVL5:
  88 0028 FFF7FEFF 		bl	u8x8_cad_SendSequence
  89              	.LVL6:
  90              	.LBE7:
  91              	.LBE12:
 198:/Users/imashio/Electronics/ARM/_Library/u8x8_d_ssd1305.c ****   
  92              		.loc 1 198 0
  93 002c 0120     		movs	r0, #1
  94              		.loc 1 225 0
  95 002e F8BD     		pop	{r3, r4, r5, r6, r7, pc}
  96              	.LVL7:
  97              	.L4:
  98 0030 1E46     		mov	r6, r3
  99              	.LBB13:
 100              	.LBB8:
  83:/Users/imashio/Electronics/ARM/_Library/u8x8_d_ssd1305.c ****       x = ((u8x8_tile_t *)arg_ptr)->x_pos;    
 101              		.loc 1 83 0
 102 0032 FFF7FEFF 		bl	u8x8_cad_StartTransfer
 103              	.LVL8:
  84:/Users/imashio/Electronics/ARM/_Library/u8x8_d_ssd1305.c ****       x *= 8;
 104              		.loc 1 84 0
 105 0036 7379     		ldrb	r3, [r6, #5]	@ zero_extendqisi2
 106              	.LVL9:
  86:/Users/imashio/Electronics/ARM/_Library/u8x8_d_ssd1305.c ****     
 107              		.loc 1 86 0
 108 0038 AF7F     		ldrb	r7, [r5, #30]	@ zero_extendqisi2
 109 003a 07EBC307 		add	r7, r7, r3, lsl #3
 110 003e 07F0FF07 		and	r7, r7, #255
ARM GAS  /var/folders/v3/wysfpd052nz8jkbx04pk0ym80000gn/T//ccEvjYRK.s 			page 7


 111              	.LVL10:
  88:/Users/imashio/Electronics/ARM/_Library/u8x8_d_ssd1305.c ****     
 112              		.loc 1 88 0
 113 0042 4021     		movs	r1, #64
 114 0044 2846     		mov	r0, r5
 115 0046 FFF7FEFF 		bl	u8x8_cad_SendCmd
 116              	.LVL11:
  90:/Users/imashio/Electronics/ARM/_Library/u8x8_d_ssd1305.c ****       u8x8_cad_SendArg(u8x8, 0x000 | ((x&15)));
 117              		.loc 1 90 0
 118 004a 3909     		lsrs	r1, r7, #4
 119 004c 41F01001 		orr	r1, r1, #16
 120 0050 2846     		mov	r0, r5
 121 0052 FFF7FEFF 		bl	u8x8_cad_SendCmd
 122              	.LVL12:
  91:/Users/imashio/Electronics/ARM/_Library/u8x8_d_ssd1305.c ****       u8x8_cad_SendArg(u8x8, 0x0b0 | (((u8x8_tile_t *)arg_ptr)->y_pos)   );
 123              		.loc 1 91 0
 124 0056 07F00F01 		and	r1, r7, #15
 125 005a 2846     		mov	r0, r5
 126 005c FFF7FEFF 		bl	u8x8_cad_SendArg
 127              	.LVL13:
  92:/Users/imashio/Electronics/ARM/_Library/u8x8_d_ssd1305.c **** 
 128              		.loc 1 92 0
 129 0060 B179     		ldrb	r1, [r6, #6]	@ zero_extendqisi2
 130 0062 2846     		mov	r0, r5
 131 0064 41F0B001 		orr	r1, r1, #176
 132 0068 FFF7FEFF 		bl	u8x8_cad_SendArg
 133              	.LVL14:
 134              	.L10:
  99:/Users/imashio/Electronics/ARM/_Library/u8x8_d_ssd1305.c **** 	/*
 135              		.loc 1 99 0
 136 006c 3179     		ldrb	r1, [r6, #4]	@ zero_extendqisi2
 137 006e 3268     		ldr	r2, [r6]
 138 0070 C900     		lsls	r1, r1, #3
 139 0072 01F0F801 		and	r1, r1, #248
 140 0076 2846     		mov	r0, r5
 141 0078 FFF7FEFF 		bl	u8x8_cad_SendData
 142              	.LVL15:
 108:/Users/imashio/Electronics/ARM/_Library/u8x8_d_ssd1305.c ****       } while( arg_int > 0 );
 143              		.loc 1 108 0
 144 007c 621E     		subs	r2, r4, #1
 145              	.LVL16:
 109:/Users/imashio/Electronics/ARM/_Library/u8x8_d_ssd1305.c ****       
 146              		.loc 1 109 0
 147 007e 12F0FF04 		ands	r4, r2, #255
 148 0082 F3D1     		bne	.L10
 124:/Users/imashio/Electronics/ARM/_Library/u8x8_d_ssd1305.c ****       break;
 149              		.loc 1 124 0
 150 0084 2846     		mov	r0, r5
 151 0086 FFF7FEFF 		bl	u8x8_cad_EndTransfer
 152              	.LVL17:
 153              	.LBE8:
 154              	.LBE13:
 198:/Users/imashio/Electronics/ARM/_Library/u8x8_d_ssd1305.c ****   
 155              		.loc 1 198 0
 156 008a 0120     		movs	r0, #1
 157              	.LVL18:
 158              	.L20:
ARM GAS  /var/folders/v3/wysfpd052nz8jkbx04pk0ym80000gn/T//ccEvjYRK.s 			page 8


 159              		.loc 1 225 0
 160 008c F8BD     		pop	{r3, r4, r5, r6, r7, pc}
 161              	.LVL19:
 162              	.L3:
 163              	.LBB14:
 164              	.LBB9:
 121:/Users/imashio/Electronics/ARM/_Library/u8x8_d_ssd1305.c ****       u8x8_cad_SendCmd(u8x8, 0x081 );
 165              		.loc 1 121 0
 166 008e FFF7FEFF 		bl	u8x8_cad_StartTransfer
 167              	.LVL20:
 122:/Users/imashio/Electronics/ARM/_Library/u8x8_d_ssd1305.c ****       u8x8_cad_SendArg(u8x8, arg_int );	/* ssd1305 has range from 0 to 255 */
 168              		.loc 1 122 0
 169 0092 8121     		movs	r1, #129
 170 0094 2846     		mov	r0, r5
 171 0096 FFF7FEFF 		bl	u8x8_cad_SendCmd
 172              	.LVL21:
 123:/Users/imashio/Electronics/ARM/_Library/u8x8_d_ssd1305.c ****       u8x8_cad_EndTransfer(u8x8);
 173              		.loc 1 123 0
 174 009a 2146     		mov	r1, r4
 175 009c 2846     		mov	r0, r5
 176 009e FFF7FEFF 		bl	u8x8_cad_SendArg
 177              	.LVL22:
 124:/Users/imashio/Electronics/ARM/_Library/u8x8_d_ssd1305.c ****       break;
 178              		.loc 1 124 0
 179 00a2 2846     		mov	r0, r5
 180 00a4 FFF7FEFF 		bl	u8x8_cad_EndTransfer
 181              	.LVL23:
 182              	.LBE9:
 183              	.LBE14:
 198:/Users/imashio/Electronics/ARM/_Library/u8x8_d_ssd1305.c ****   
 184              		.loc 1 198 0
 185 00a8 0120     		movs	r0, #1
 186 00aa EFE7     		b	.L20
 187              	.LVL24:
 188              	.L11:
 189              	.LBB15:
 190              	.LBB10:
 117:/Users/imashio/Electronics/ARM/_Library/u8x8_d_ssd1305.c ****       break;
 191              		.loc 1 117 0
 192 00ac 1249     		ldr	r1, .L21+4
 193              	.LVL25:
 194 00ae FFF7FEFF 		bl	u8x8_cad_SendSequence
 195              	.LVL26:
 196              	.LBE10:
 197              	.LBE15:
 198:/Users/imashio/Electronics/ARM/_Library/u8x8_d_ssd1305.c ****   
 198              		.loc 1 198 0
 199 00b2 0120     		movs	r0, #1
 200              		.loc 1 225 0
 201 00b4 F8BD     		pop	{r3, r4, r5, r6, r7, pc}
 202              	.LVL27:
 203              	.L19:
 219:/Users/imashio/Electronics/ARM/_Library/u8x8_d_ssd1305.c ****       break;
 204              		.loc 1 219 0
 205 00b6 1149     		ldr	r1, .L21+8
 206              	.LVL28:
 207 00b8 FFF7FEFF 		bl	u8x8_d_helper_display_setup_memory
ARM GAS  /var/folders/v3/wysfpd052nz8jkbx04pk0ym80000gn/T//ccEvjYRK.s 			page 9


 208              	.LVL29:
 224:/Users/imashio/Electronics/ARM/_Library/u8x8_d_ssd1305.c **** }
 209              		.loc 1 224 0
 210 00bc 0120     		movs	r0, #1
 211              		.loc 1 225 0
 212 00be F8BD     		pop	{r3, r4, r5, r6, r7, pc}
 213              	.LVL30:
 214              	.L8:
 203:/Users/imashio/Electronics/ARM/_Library/u8x8_d_ssd1305.c ****       {
 215              		.loc 1 203 0
 216 00c0 7AB9     		cbnz	r2, .L12
 205:/Users/imashio/Electronics/ARM/_Library/u8x8_d_ssd1305.c **** 	u8x8->x_offset = u8x8->display_info->default_x_offset;
 217              		.loc 1 205 0
 218 00c2 0F49     		ldr	r1, .L21+12
 219              	.LVL31:
 220 00c4 FFF7FEFF 		bl	u8x8_cad_SendSequence
 221              	.LVL32:
 206:/Users/imashio/Electronics/ARM/_Library/u8x8_d_ssd1305.c ****       }
 222              		.loc 1 206 0
 223 00c8 2B68     		ldr	r3, [r5]
 224 00ca 9B7C     		ldrb	r3, [r3, #18]	@ zero_extendqisi2
 225 00cc AB77     		strb	r3, [r5, #30]
 224:/Users/imashio/Electronics/ARM/_Library/u8x8_d_ssd1305.c **** }
 226              		.loc 1 224 0
 227 00ce 0120     		movs	r0, #1
 228              		.loc 1 225 0
 229 00d0 F8BD     		pop	{r3, r4, r5, r6, r7, pc}
 230              	.LVL33:
 231              	.L7:
 215:/Users/imashio/Electronics/ARM/_Library/u8x8_d_ssd1305.c ****       u8x8_cad_SendSequence(u8x8, u8x8_d_ssd1305_128x32_noname_init_seq);    
 232              		.loc 1 215 0
 233 00d2 FFF7FEFF 		bl	u8x8_d_helper_display_init
 234              	.LVL34:
 216:/Users/imashio/Electronics/ARM/_Library/u8x8_d_ssd1305.c ****       break;
 235              		.loc 1 216 0
 236 00d6 2846     		mov	r0, r5
 237 00d8 0A49     		ldr	r1, .L21+16
 238 00da FFF7FEFF 		bl	u8x8_cad_SendSequence
 239              	.LVL35:
 224:/Users/imashio/Electronics/ARM/_Library/u8x8_d_ssd1305.c **** }
 240              		.loc 1 224 0
 241 00de 0120     		movs	r0, #1
 242              		.loc 1 225 0
 243 00e0 F8BD     		pop	{r3, r4, r5, r6, r7, pc}
 244              	.LVL36:
 245              	.L12:
 210:/Users/imashio/Electronics/ARM/_Library/u8x8_d_ssd1305.c **** 	u8x8->x_offset = u8x8->display_info->flipmode_x_offset;
 246              		.loc 1 210 0
 247 00e2 0949     		ldr	r1, .L21+20
 248              	.LVL37:
 249 00e4 FFF7FEFF 		bl	u8x8_cad_SendSequence
 250              	.LVL38:
 211:/Users/imashio/Electronics/ARM/_Library/u8x8_d_ssd1305.c ****       }
 251              		.loc 1 211 0
 252 00e8 2B68     		ldr	r3, [r5]
 253 00ea DB7C     		ldrb	r3, [r3, #19]	@ zero_extendqisi2
 254 00ec AB77     		strb	r3, [r5, #30]
ARM GAS  /var/folders/v3/wysfpd052nz8jkbx04pk0ym80000gn/T//ccEvjYRK.s 			page 10


 224:/Users/imashio/Electronics/ARM/_Library/u8x8_d_ssd1305.c **** }
 255              		.loc 1 224 0
 256 00ee 0120     		movs	r0, #1
 257 00f0 96E7     		b	.L6
 258              	.L22:
 259 00f2 00BF     		.align	2
 260              	.L21:
 261 00f4 00000000 		.word	.LANCHOR0
 262 00f8 00000000 		.word	.LANCHOR1
 263 00fc 00000000 		.word	.LANCHOR5
 264 0100 00000000 		.word	.LANCHOR2
 265 0104 00000000 		.word	.LANCHOR4
 266 0108 00000000 		.word	.LANCHOR3
 267              		.cfi_endproc
 268              	.LFE1:
 270              		.section	.rodata.u8x8_d_ssd1305_128x32_flip0_seq,"a",%progbits
 271              		.align	2
 272              		.set	.LANCHOR2,. + 0
 275              	u8x8_d_ssd1305_128x32_flip0_seq:
 276 0000 18       		.byte	24
 277 0001 15       		.byte	21
 278 0002 D3       		.byte	-45
 279 0003 16       		.byte	22
 280 0004 20       		.byte	32
 281 0005 15       		.byte	21
 282 0006 A1       		.byte	-95
 283 0007 15       		.byte	21
 284 0008 C8       		.byte	-56
 285 0009 19       		.byte	25
 286 000a FF       		.byte	-1
 287              		.section	.rodata.u8x8_d_ssd1305_128x32_flip1_seq,"a",%progbits
 288              		.align	2
 289              		.set	.LANCHOR3,. + 0
 292              	u8x8_d_ssd1305_128x32_flip1_seq:
 293 0000 18       		.byte	24
 294 0001 15       		.byte	21
 295 0002 D3       		.byte	-45
 296 0003 16       		.byte	22
 297 0004 00       		.byte	0
 298 0005 15       		.byte	21
 299 0006 A0       		.byte	-96
 300 0007 15       		.byte	21
 301 0008 C0       		.byte	-64
 302 0009 19       		.byte	25
 303 000a FF       		.byte	-1
 304              		.section	.rodata.u8x8_d_ssd1305_128x32_noname_init_seq,"a",%progbits
 305              		.align	2
 306              		.set	.LANCHOR4,. + 0
 309              	u8x8_d_ssd1305_128x32_noname_init_seq:
 310 0000 18       		.byte	24
 311 0001 15       		.byte	21
 312 0002 AE       		.byte	-82
 313 0003 15       		.byte	21
 314 0004 D5       		.byte	-43
 315 0005 16       		.byte	22
 316 0006 80       		.byte	-128
 317 0007 15       		.byte	21
ARM GAS  /var/folders/v3/wysfpd052nz8jkbx04pk0ym80000gn/T//ccEvjYRK.s 			page 11


 318 0008 A8       		.byte	-88
 319 0009 16       		.byte	22
 320 000a 3F       		.byte	63
 321 000b 15       		.byte	21
 322 000c D3       		.byte	-45
 323 000d 16       		.byte	22
 324 000e 20       		.byte	32
 325 000f 15       		.byte	21
 326 0010 40       		.byte	64
 327 0011 15       		.byte	21
 328 0012 20       		.byte	32
 329 0013 16       		.byte	22
 330 0014 00       		.byte	0
 331 0015 15       		.byte	21
 332 0016 A1       		.byte	-95
 333 0017 15       		.byte	21
 334 0018 C8       		.byte	-56
 335 0019 15       		.byte	21
 336 001a DA       		.byte	-38
 337 001b 16       		.byte	22
 338 001c 12       		.byte	18
 339 001d 15       		.byte	21
 340 001e 81       		.byte	-127
 341 001f 16       		.byte	22
 342 0020 CF       		.byte	-49
 343 0021 15       		.byte	21
 344 0022 D9       		.byte	-39
 345 0023 16       		.byte	22
 346 0024 F1       		.byte	-15
 347 0025 15       		.byte	21
 348 0026 DB       		.byte	-37
 349 0027 16       		.byte	22
 350 0028 40       		.byte	64
 351 0029 15       		.byte	21
 352 002a 2E       		.byte	46
 353 002b 15       		.byte	21
 354 002c A4       		.byte	-92
 355 002d 15       		.byte	21
 356 002e A6       		.byte	-90
 357 002f 19       		.byte	25
 358 0030 FF       		.byte	-1
 359              		.section	.rodata.u8x8_d_ssd1305_powersave0_seq,"a",%progbits
 360              		.align	2
 361              		.set	.LANCHOR0,. + 0
 364              	u8x8_d_ssd1305_powersave0_seq:
 365 0000 18       		.byte	24
 366 0001 15       		.byte	21
 367 0002 AF       		.byte	-81
 368 0003 19       		.byte	25
 369 0004 FF       		.byte	-1
 370              		.section	.rodata.u8x8_d_ssd1305_powersave1_seq,"a",%progbits
 371              		.align	2
 372              		.set	.LANCHOR1,. + 0
 375              	u8x8_d_ssd1305_powersave1_seq:
 376 0000 18       		.byte	24
 377 0001 15       		.byte	21
 378 0002 AE       		.byte	-82
ARM GAS  /var/folders/v3/wysfpd052nz8jkbx04pk0ym80000gn/T//ccEvjYRK.s 			page 12


 379 0003 19       		.byte	25
 380 0004 FF       		.byte	-1
 381              		.section	.rodata.u8x8_ssd1305_128x32_noname_display_info,"a",%progbits
 382              		.align	2
 383              		.set	.LANCHOR5,. + 0
 386              	u8x8_ssd1305_128x32_noname_display_info:
 387 0000 00       		.byte	0
 388 0001 01       		.byte	1
 389 0002 14       		.byte	20
 390 0003 0A       		.byte	10
 391 0004 64       		.byte	100
 392 0005 64       		.byte	100
 393 0006 32       		.byte	50
 394 0007 32       		.byte	50
 395 0008 00093D00 		.word	4000000
 396 000c 00       		.byte	0
 397 000d 04       		.byte	4
 398 000e 28       		.byte	40
 399 000f 96       		.byte	-106
 400 0010 10       		.byte	16
 401 0011 04       		.byte	4
 402 0012 02       		.byte	2
 403 0013 02       		.byte	2
 404 0014 8000     		.short	128
 405 0016 2000     		.short	32
 406              		.text
 407              	.Letext0:
 408              		.file 2 "/usr/local/gcc-arm-none-eabi-7-2018-q2-update/arm-none-eabi/include/machine/_default_type
 409              		.file 3 "/usr/local/gcc-arm-none-eabi-7-2018-q2-update/arm-none-eabi/include/sys/_stdint.h"
 410              		.file 4 "/Users/imashio/Electronics/ARM/_Library/u8x8.h"
ARM GAS  /var/folders/v3/wysfpd052nz8jkbx04pk0ym80000gn/T//ccEvjYRK.s 			page 13

