ARM GAS  /var/folders/v3/wysfpd052nz8jkbx04pk0ym80000gn/T//ccaGGHDY.s 			page 1


   1              		.cpu cortex-m4
   2              		.eabi_attribute 27, 1
   3              		.eabi_attribute 28, 1
   4              		.eabi_attribute 20, 1
   5              		.eabi_attribute 21, 1
   6              		.eabi_attribute 23, 3
   7              		.eabi_attribute 24, 1
   8              		.eabi_attribute 25, 1
   9              		.eabi_attribute 26, 1
  10              		.eabi_attribute 30, 2
  11              		.eabi_attribute 34, 1
  12              		.eabi_attribute 18, 4
  13              		.file	"u8x8_d_ssd1326.c"
  14              		.text
  15              	.Ltext0:
  16              		.cfi_sections	.debug_frame
  17              		.section	.text.u8x8_d_ssd1326_er_256x32,"ax",%progbits
  18              		.align	1
  19              		.p2align 2,,3
  20              		.global	u8x8_d_ssd1326_er_256x32
  21              		.syntax unified
  22              		.thumb
  23              		.thumb_func
  24              		.fpu fpv4-sp-d16
  26              	u8x8_d_ssd1326_er_256x32:
  27              	.LFB2:
  28              		.file 1 "/Users/imashio/Electronics/ARM/_Library/u8x8_d_ssd1326.c"
   1:/Users/imashio/Electronics/ARM/_Library/u8x8_d_ssd1326.c **** /*
   2:/Users/imashio/Electronics/ARM/_Library/u8x8_d_ssd1326.c **** 
   3:/Users/imashio/Electronics/ARM/_Library/u8x8_d_ssd1326.c ****   u8x8_d_ssd1326.c
   4:/Users/imashio/Electronics/ARM/_Library/u8x8_d_ssd1326.c **** 
   5:/Users/imashio/Electronics/ARM/_Library/u8x8_d_ssd1326.c ****   Universal 8bit Graphics Library (https://github.com/olikraus/u8g2/)
   6:/Users/imashio/Electronics/ARM/_Library/u8x8_d_ssd1326.c **** 
   7:/Users/imashio/Electronics/ARM/_Library/u8x8_d_ssd1326.c ****   Copyright (c) 2016, olikraus@gmail.com
   8:/Users/imashio/Electronics/ARM/_Library/u8x8_d_ssd1326.c ****   All rights reserved.
   9:/Users/imashio/Electronics/ARM/_Library/u8x8_d_ssd1326.c **** 
  10:/Users/imashio/Electronics/ARM/_Library/u8x8_d_ssd1326.c ****   Redistribution and use in source and binary forms, with or without modification, 
  11:/Users/imashio/Electronics/ARM/_Library/u8x8_d_ssd1326.c ****   are permitted provided that the following conditions are met:
  12:/Users/imashio/Electronics/ARM/_Library/u8x8_d_ssd1326.c **** 
  13:/Users/imashio/Electronics/ARM/_Library/u8x8_d_ssd1326.c ****   * Redistributions of source code must retain the above copyright notice, this list 
  14:/Users/imashio/Electronics/ARM/_Library/u8x8_d_ssd1326.c ****     of conditions and the following disclaimer.
  15:/Users/imashio/Electronics/ARM/_Library/u8x8_d_ssd1326.c ****     
  16:/Users/imashio/Electronics/ARM/_Library/u8x8_d_ssd1326.c ****   * Redistributions in binary form must reproduce the above copyright notice, this 
  17:/Users/imashio/Electronics/ARM/_Library/u8x8_d_ssd1326.c ****     list of conditions and the following disclaimer in the documentation and/or other 
  18:/Users/imashio/Electronics/ARM/_Library/u8x8_d_ssd1326.c ****     materials provided with the distribution.
  19:/Users/imashio/Electronics/ARM/_Library/u8x8_d_ssd1326.c **** 
  20:/Users/imashio/Electronics/ARM/_Library/u8x8_d_ssd1326.c ****   THIS SOFTWARE IS PROVIDED BY THE COPYRIGHT HOLDERS AND 
  21:/Users/imashio/Electronics/ARM/_Library/u8x8_d_ssd1326.c ****   CONTRIBUTORS "AS IS" AND ANY EXPRESS OR IMPLIED WARRANTIES, 
  22:/Users/imashio/Electronics/ARM/_Library/u8x8_d_ssd1326.c ****   INCLUDING, BUT NOT LIMITED TO, THE IMPLIED WARRANTIES OF 
  23:/Users/imashio/Electronics/ARM/_Library/u8x8_d_ssd1326.c ****   MERCHANTABILITY AND FITNESS FOR A PARTICULAR PURPOSE ARE 
  24:/Users/imashio/Electronics/ARM/_Library/u8x8_d_ssd1326.c ****   DISCLAIMED. IN NO EVENT SHALL THE COPYRIGHT HOLDER OR 
  25:/Users/imashio/Electronics/ARM/_Library/u8x8_d_ssd1326.c ****   CONTRIBUTORS BE LIABLE FOR ANY DIRECT, INDIRECT, INCIDENTAL, 
  26:/Users/imashio/Electronics/ARM/_Library/u8x8_d_ssd1326.c ****   SPECIAL, EXEMPLARY, OR CONSEQUENTIAL DAMAGES (INCLUDING, BUT 
  27:/Users/imashio/Electronics/ARM/_Library/u8x8_d_ssd1326.c ****   NOT LIMITED TO, PROCUREMENT OF SUBSTITUTE GOODS OR SERVICES; 
  28:/Users/imashio/Electronics/ARM/_Library/u8x8_d_ssd1326.c ****   LOSS OF USE, DATA, OR PROFITS; OR BUSINESS INTERRUPTION) HOWEVER 
  29:/Users/imashio/Electronics/ARM/_Library/u8x8_d_ssd1326.c ****   CAUSED AND ON ANY THEORY OF LIABILITY, WHETHER IN CONTRACT, 
  30:/Users/imashio/Electronics/ARM/_Library/u8x8_d_ssd1326.c ****   STRICT LIABILITY, OR TORT (INCLUDING NEGLIGENCE OR OTHERWISE) 
ARM GAS  /var/folders/v3/wysfpd052nz8jkbx04pk0ym80000gn/T//ccaGGHDY.s 			page 2


  31:/Users/imashio/Electronics/ARM/_Library/u8x8_d_ssd1326.c ****   ARISING IN ANY WAY OUT OF THE USE OF THIS SOFTWARE, EVEN IF 
  32:/Users/imashio/Electronics/ARM/_Library/u8x8_d_ssd1326.c ****   ADVISED OF THE POSSIBILITY OF SUCH DAMAGE.  
  33:/Users/imashio/Electronics/ARM/_Library/u8x8_d_ssd1326.c ****   
  34:/Users/imashio/Electronics/ARM/_Library/u8x8_d_ssd1326.c **** */
  35:/Users/imashio/Electronics/ARM/_Library/u8x8_d_ssd1326.c **** 
  36:/Users/imashio/Electronics/ARM/_Library/u8x8_d_ssd1326.c **** 
  37:/Users/imashio/Electronics/ARM/_Library/u8x8_d_ssd1326.c **** #include "u8x8.h"
  38:/Users/imashio/Electronics/ARM/_Library/u8x8_d_ssd1326.c **** 
  39:/Users/imashio/Electronics/ARM/_Library/u8x8_d_ssd1326.c **** 
  40:/Users/imashio/Electronics/ARM/_Library/u8x8_d_ssd1326.c **** /* ER OLED */
  41:/Users/imashio/Electronics/ARM/_Library/u8x8_d_ssd1326.c **** static const uint8_t u8x8_d_ssd1326_er_256x32_init_seq[] = {
  42:/Users/imashio/Electronics/ARM/_Library/u8x8_d_ssd1326.c ****     
  43:/Users/imashio/Electronics/ARM/_Library/u8x8_d_ssd1326.c ****   U8X8_START_TRANSFER(),             	/* enable chip, delay is part of the transfer start */
  44:/Users/imashio/Electronics/ARM/_Library/u8x8_d_ssd1326.c **** 
  45:/Users/imashio/Electronics/ARM/_Library/u8x8_d_ssd1326.c ****   U8X8_CA(0x0fd, 0x012),		/* unlock (not required, this is default by reset) */
  46:/Users/imashio/Electronics/ARM/_Library/u8x8_d_ssd1326.c ****   
  47:/Users/imashio/Electronics/ARM/_Library/u8x8_d_ssd1326.c ****   
  48:/Users/imashio/Electronics/ARM/_Library/u8x8_d_ssd1326.c ****   U8X8_C(0x0ae),		                /* display off */
  49:/Users/imashio/Electronics/ARM/_Library/u8x8_d_ssd1326.c ****   U8X8_CA(0x0a8, 0x01f),		/* multiplex ratio: 0x03f * 1/64 duty - changed by CREESOO, acc. to datas
  50:/Users/imashio/Electronics/ARM/_Library/u8x8_d_ssd1326.c ****   U8X8_CA(0x0a1, 0x000),		/* display start line */
  51:/Users/imashio/Electronics/ARM/_Library/u8x8_d_ssd1326.c ****   U8X8_CA(0x0a2, 0x000),		/* display offset, shift mapping ram counter */
  52:/Users/imashio/Electronics/ARM/_Library/u8x8_d_ssd1326.c ****   U8X8_CA(0x0ad, 0x002),		/* master configuration: disable embedded DC-DC, enable internal VCOMH */
  53:/Users/imashio/Electronics/ARM/_Library/u8x8_d_ssd1326.c ****   /*
  54:/Users/imashio/Electronics/ARM/_Library/u8x8_d_ssd1326.c ****     a0 command: 0x0a0 ***abcde
  55:/Users/imashio/Electronics/ARM/_Library/u8x8_d_ssd1326.c ****       a: 1: mono mode
  56:/Users/imashio/Electronics/ARM/_Library/u8x8_d_ssd1326.c ****       b: 0: horizontal (1: vertical) address increment
  57:/Users/imashio/Electronics/ARM/_Library/u8x8_d_ssd1326.c ****       c: 1: enable bit remap
  58:/Users/imashio/Electronics/ARM/_Library/u8x8_d_ssd1326.c ****       d: 1: COM remap
  59:/Users/imashio/Electronics/ARM/_Library/u8x8_d_ssd1326.c ****       e: 1: Column remap
  60:/Users/imashio/Electronics/ARM/_Library/u8x8_d_ssd1326.c ****   */
  61:/Users/imashio/Electronics/ARM/_Library/u8x8_d_ssd1326.c ****   U8X8_CA(0x0a0, 0x006),		/* remap configuration, see above */
  62:/Users/imashio/Electronics/ARM/_Library/u8x8_d_ssd1326.c ****   U8X8_C(0x086),				/* full current range (0x084, 0x085, 0x086) */
  63:/Users/imashio/Electronics/ARM/_Library/u8x8_d_ssd1326.c **** 
  64:/Users/imashio/Electronics/ARM/_Library/u8x8_d_ssd1326.c ****   U8X8_C(0x0b7),				/* set default gray scale table */
  65:/Users/imashio/Electronics/ARM/_Library/u8x8_d_ssd1326.c ****     
  66:/Users/imashio/Electronics/ARM/_Library/u8x8_d_ssd1326.c ****   U8X8_CA(0x081, 0x027),		/* contrast, brightness, 0..128 */
  67:/Users/imashio/Electronics/ARM/_Library/u8x8_d_ssd1326.c ****   U8X8_CA(0x0b1, 0x071),                    /* phase length */
  68:/Users/imashio/Electronics/ARM/_Library/u8x8_d_ssd1326.c ****   //U8X8_CA(0x0b2, 0x051),		/* frame frequency (row period) */
  69:/Users/imashio/Electronics/ARM/_Library/u8x8_d_ssd1326.c ****   U8X8_CA(0x0b3, 0x0f0),		/* set display clock divide ratio/oscillator frequency (set clock as 135 
  70:/Users/imashio/Electronics/ARM/_Library/u8x8_d_ssd1326.c ****   //U8X8_CA(0x0b4, 0x002),                    /* set pre-charge compensation level (not documented 
  71:/Users/imashio/Electronics/ARM/_Library/u8x8_d_ssd1326.c ****   //U8X8_CA(0x0b0, 0x028),                    /* enable pre-charge compensation (not documented in 
  72:/Users/imashio/Electronics/ARM/_Library/u8x8_d_ssd1326.c ****   U8X8_CAA(0x0bb, 0x035, 0x0ff),                     /* set precharge */
  73:/Users/imashio/Electronics/ARM/_Library/u8x8_d_ssd1326.c ****   U8X8_CA(0x0bc, 0x01f),                    /* pre-charge voltage level */
  74:/Users/imashio/Electronics/ARM/_Library/u8x8_d_ssd1326.c ****   U8X8_CA(0x0be, 0x00f),                     /* VCOMH voltage */
  75:/Users/imashio/Electronics/ARM/_Library/u8x8_d_ssd1326.c ****   U8X8_CA(0x0bf, 0x002|0x00d),           /* VSL voltage level (not documented in the SDD1325 datash
  76:/Users/imashio/Electronics/ARM/_Library/u8x8_d_ssd1326.c ****   U8X8_C(0x0a4),				/* normal display mode */
  77:/Users/imashio/Electronics/ARM/_Library/u8x8_d_ssd1326.c ****     
  78:/Users/imashio/Electronics/ARM/_Library/u8x8_d_ssd1326.c ****   //U8X8_CA(0x023, 0x003),		/* graphics accelleration: fill pixel */
  79:/Users/imashio/Electronics/ARM/_Library/u8x8_d_ssd1326.c ****     
  80:/Users/imashio/Electronics/ARM/_Library/u8x8_d_ssd1326.c ****   U8X8_END_TRANSFER(),             	/* disable chip */
  81:/Users/imashio/Electronics/ARM/_Library/u8x8_d_ssd1326.c ****   U8X8_END()             			/* end of sequence */
  82:/Users/imashio/Electronics/ARM/_Library/u8x8_d_ssd1326.c **** };
  83:/Users/imashio/Electronics/ARM/_Library/u8x8_d_ssd1326.c **** 
  84:/Users/imashio/Electronics/ARM/_Library/u8x8_d_ssd1326.c **** static const uint8_t u8x8_d_ssd1326_256x32_nhd_powersave0_seq[] = {
  85:/Users/imashio/Electronics/ARM/_Library/u8x8_d_ssd1326.c ****   U8X8_START_TRANSFER(),             	/* enable chip, delay is part of the transfer start */
  86:/Users/imashio/Electronics/ARM/_Library/u8x8_d_ssd1326.c ****   U8X8_C(0x0af),		                /* display on */
  87:/Users/imashio/Electronics/ARM/_Library/u8x8_d_ssd1326.c ****   U8X8_END_TRANSFER(),             	/* disable chip */
ARM GAS  /var/folders/v3/wysfpd052nz8jkbx04pk0ym80000gn/T//ccaGGHDY.s 			page 3


  88:/Users/imashio/Electronics/ARM/_Library/u8x8_d_ssd1326.c ****   U8X8_END()             			/* end of sequence */
  89:/Users/imashio/Electronics/ARM/_Library/u8x8_d_ssd1326.c **** };
  90:/Users/imashio/Electronics/ARM/_Library/u8x8_d_ssd1326.c **** 
  91:/Users/imashio/Electronics/ARM/_Library/u8x8_d_ssd1326.c **** static const uint8_t u8x8_d_ssd1326_256x32_nhd_powersave1_seq[] = {
  92:/Users/imashio/Electronics/ARM/_Library/u8x8_d_ssd1326.c ****   U8X8_START_TRANSFER(),             	/* enable chip, delay is part of the transfer start */
  93:/Users/imashio/Electronics/ARM/_Library/u8x8_d_ssd1326.c ****   U8X8_C(0x0ae),		                /* display off */
  94:/Users/imashio/Electronics/ARM/_Library/u8x8_d_ssd1326.c ****   U8X8_END_TRANSFER(),             	/* disable chip */
  95:/Users/imashio/Electronics/ARM/_Library/u8x8_d_ssd1326.c ****   U8X8_END()             			/* end of sequence */
  96:/Users/imashio/Electronics/ARM/_Library/u8x8_d_ssd1326.c **** };
  97:/Users/imashio/Electronics/ARM/_Library/u8x8_d_ssd1326.c **** 
  98:/Users/imashio/Electronics/ARM/_Library/u8x8_d_ssd1326.c **** static const uint8_t u8x8_d_ssd1326_256x32_nhd_flip0_seq[] = {
  99:/Users/imashio/Electronics/ARM/_Library/u8x8_d_ssd1326.c ****   U8X8_START_TRANSFER(),             	/* enable chip, delay is part of the transfer start */
 100:/Users/imashio/Electronics/ARM/_Library/u8x8_d_ssd1326.c ****   U8X8_CA(0x0a0, 0x006),		/* remap 00110 */
 101:/Users/imashio/Electronics/ARM/_Library/u8x8_d_ssd1326.c ****   U8X8_END_TRANSFER(),             	/* disable chip */
 102:/Users/imashio/Electronics/ARM/_Library/u8x8_d_ssd1326.c ****   U8X8_END()             			/* end of sequence */
 103:/Users/imashio/Electronics/ARM/_Library/u8x8_d_ssd1326.c **** };
 104:/Users/imashio/Electronics/ARM/_Library/u8x8_d_ssd1326.c **** 
 105:/Users/imashio/Electronics/ARM/_Library/u8x8_d_ssd1326.c **** static const uint8_t u8x8_d_ssd1326_256x32_nhd_flip1_seq[] = {
 106:/Users/imashio/Electronics/ARM/_Library/u8x8_d_ssd1326.c ****   U8X8_START_TRANSFER(),             	/* enable chip, delay is part of the transfer start */
 107:/Users/imashio/Electronics/ARM/_Library/u8x8_d_ssd1326.c ****   //U8X8_CA(0x0a0, 0x005),		/* remap 00101 */
 108:/Users/imashio/Electronics/ARM/_Library/u8x8_d_ssd1326.c ****   U8X8_CA(0x0a0, 0x001),		/* remap 00001 */
 109:/Users/imashio/Electronics/ARM/_Library/u8x8_d_ssd1326.c ****   U8X8_END_TRANSFER(),             	/* disable chip */
 110:/Users/imashio/Electronics/ARM/_Library/u8x8_d_ssd1326.c ****   U8X8_END()             			/* end of sequence */
 111:/Users/imashio/Electronics/ARM/_Library/u8x8_d_ssd1326.c **** };
 112:/Users/imashio/Electronics/ARM/_Library/u8x8_d_ssd1326.c **** 
 113:/Users/imashio/Electronics/ARM/_Library/u8x8_d_ssd1326.c **** 
 114:/Users/imashio/Electronics/ARM/_Library/u8x8_d_ssd1326.c **** /*
 115:/Users/imashio/Electronics/ARM/_Library/u8x8_d_ssd1326.c ****   input:
 116:/Users/imashio/Electronics/ARM/_Library/u8x8_d_ssd1326.c ****     one tile (8 Bytes)
 117:/Users/imashio/Electronics/ARM/_Library/u8x8_d_ssd1326.c ****   output:
 118:/Users/imashio/Electronics/ARM/_Library/u8x8_d_ssd1326.c ****     Tile for ssd1326 (32 Bytes)
 119:/Users/imashio/Electronics/ARM/_Library/u8x8_d_ssd1326.c **** */
 120:/Users/imashio/Electronics/ARM/_Library/u8x8_d_ssd1326.c **** 
 121:/Users/imashio/Electronics/ARM/_Library/u8x8_d_ssd1326.c **** static uint8_t u8x8_ssd1326_8to32_dest_buf[32];
 122:/Users/imashio/Electronics/ARM/_Library/u8x8_d_ssd1326.c **** 
 123:/Users/imashio/Electronics/ARM/_Library/u8x8_d_ssd1326.c **** static uint8_t *u8x8_ssd1326_8to32(U8X8_UNUSED u8x8_t *u8x8, uint8_t *ptr)
 124:/Users/imashio/Electronics/ARM/_Library/u8x8_d_ssd1326.c **** {
 125:/Users/imashio/Electronics/ARM/_Library/u8x8_d_ssd1326.c ****   uint8_t v;
 126:/Users/imashio/Electronics/ARM/_Library/u8x8_d_ssd1326.c ****   uint8_t a,b;
 127:/Users/imashio/Electronics/ARM/_Library/u8x8_d_ssd1326.c ****   uint8_t i, j;
 128:/Users/imashio/Electronics/ARM/_Library/u8x8_d_ssd1326.c ****   uint8_t *dest;
 129:/Users/imashio/Electronics/ARM/_Library/u8x8_d_ssd1326.c ****   
 130:/Users/imashio/Electronics/ARM/_Library/u8x8_d_ssd1326.c ****   for( j = 0; j < 4; j++ )
 131:/Users/imashio/Electronics/ARM/_Library/u8x8_d_ssd1326.c ****   {
 132:/Users/imashio/Electronics/ARM/_Library/u8x8_d_ssd1326.c ****     dest = u8x8_ssd1326_8to32_dest_buf;
 133:/Users/imashio/Electronics/ARM/_Library/u8x8_d_ssd1326.c ****     dest += j;
 134:/Users/imashio/Electronics/ARM/_Library/u8x8_d_ssd1326.c ****     a =*ptr;
 135:/Users/imashio/Electronics/ARM/_Library/u8x8_d_ssd1326.c ****     ptr++;
 136:/Users/imashio/Electronics/ARM/_Library/u8x8_d_ssd1326.c ****     b = *ptr;
 137:/Users/imashio/Electronics/ARM/_Library/u8x8_d_ssd1326.c ****     ptr++;
 138:/Users/imashio/Electronics/ARM/_Library/u8x8_d_ssd1326.c ****     for( i = 0; i < 8; i++ )
 139:/Users/imashio/Electronics/ARM/_Library/u8x8_d_ssd1326.c ****     {
 140:/Users/imashio/Electronics/ARM/_Library/u8x8_d_ssd1326.c ****       v = 0;
 141:/Users/imashio/Electronics/ARM/_Library/u8x8_d_ssd1326.c ****       if ( a&1 ) v |= 0xf0;
 142:/Users/imashio/Electronics/ARM/_Library/u8x8_d_ssd1326.c ****       if ( b&1 ) v |= 0x0f;
 143:/Users/imashio/Electronics/ARM/_Library/u8x8_d_ssd1326.c ****       *dest = v;
 144:/Users/imashio/Electronics/ARM/_Library/u8x8_d_ssd1326.c ****       dest+=4;
ARM GAS  /var/folders/v3/wysfpd052nz8jkbx04pk0ym80000gn/T//ccaGGHDY.s 			page 4


 145:/Users/imashio/Electronics/ARM/_Library/u8x8_d_ssd1326.c ****       a >>= 1;
 146:/Users/imashio/Electronics/ARM/_Library/u8x8_d_ssd1326.c ****       b >>= 1;
 147:/Users/imashio/Electronics/ARM/_Library/u8x8_d_ssd1326.c ****     }
 148:/Users/imashio/Electronics/ARM/_Library/u8x8_d_ssd1326.c ****   }
 149:/Users/imashio/Electronics/ARM/_Library/u8x8_d_ssd1326.c ****   
 150:/Users/imashio/Electronics/ARM/_Library/u8x8_d_ssd1326.c ****   return u8x8_ssd1326_8to32_dest_buf;
 151:/Users/imashio/Electronics/ARM/_Library/u8x8_d_ssd1326.c **** }
 152:/Users/imashio/Electronics/ARM/_Library/u8x8_d_ssd1326.c **** 
 153:/Users/imashio/Electronics/ARM/_Library/u8x8_d_ssd1326.c **** 
 154:/Users/imashio/Electronics/ARM/_Library/u8x8_d_ssd1326.c **** 
 155:/Users/imashio/Electronics/ARM/_Library/u8x8_d_ssd1326.c **** 
 156:/Users/imashio/Electronics/ARM/_Library/u8x8_d_ssd1326.c **** static uint8_t u8x8_d_ssd1326_256x32_generic(u8x8_t *u8x8, uint8_t msg, uint8_t arg_int, void *arg_
 157:/Users/imashio/Electronics/ARM/_Library/u8x8_d_ssd1326.c **** {
 158:/Users/imashio/Electronics/ARM/_Library/u8x8_d_ssd1326.c ****   uint8_t x, y, c;
 159:/Users/imashio/Electronics/ARM/_Library/u8x8_d_ssd1326.c ****   uint8_t *ptr;
 160:/Users/imashio/Electronics/ARM/_Library/u8x8_d_ssd1326.c ****   switch(msg)
 161:/Users/imashio/Electronics/ARM/_Library/u8x8_d_ssd1326.c ****   {
 162:/Users/imashio/Electronics/ARM/_Library/u8x8_d_ssd1326.c ****     /* handled by the calling function
 163:/Users/imashio/Electronics/ARM/_Library/u8x8_d_ssd1326.c ****     case U8X8_MSG_DISPLAY_SETUP_MEMORY:
 164:/Users/imashio/Electronics/ARM/_Library/u8x8_d_ssd1326.c ****       u8x8_d_helper_display_setup_memory(u8x8, &u8x8_ssd1326_256x32_nhd_display_info);
 165:/Users/imashio/Electronics/ARM/_Library/u8x8_d_ssd1326.c ****       break;
 166:/Users/imashio/Electronics/ARM/_Library/u8x8_d_ssd1326.c ****     */
 167:/Users/imashio/Electronics/ARM/_Library/u8x8_d_ssd1326.c ****     case U8X8_MSG_DISPLAY_INIT:
 168:/Users/imashio/Electronics/ARM/_Library/u8x8_d_ssd1326.c ****       u8x8_d_helper_display_init(u8x8);
 169:/Users/imashio/Electronics/ARM/_Library/u8x8_d_ssd1326.c ****       u8x8_cad_SendSequence(u8x8, u8x8_d_ssd1326_er_256x32_init_seq);    
 170:/Users/imashio/Electronics/ARM/_Library/u8x8_d_ssd1326.c ****       break;
 171:/Users/imashio/Electronics/ARM/_Library/u8x8_d_ssd1326.c ****     case U8X8_MSG_DISPLAY_SET_POWER_SAVE:
 172:/Users/imashio/Electronics/ARM/_Library/u8x8_d_ssd1326.c ****       if ( arg_int == 0 )
 173:/Users/imashio/Electronics/ARM/_Library/u8x8_d_ssd1326.c **** 	u8x8_cad_SendSequence(u8x8, u8x8_d_ssd1326_256x32_nhd_powersave0_seq);
 174:/Users/imashio/Electronics/ARM/_Library/u8x8_d_ssd1326.c ****       else
 175:/Users/imashio/Electronics/ARM/_Library/u8x8_d_ssd1326.c **** 	u8x8_cad_SendSequence(u8x8, u8x8_d_ssd1326_256x32_nhd_powersave1_seq);
 176:/Users/imashio/Electronics/ARM/_Library/u8x8_d_ssd1326.c ****       break;
 177:/Users/imashio/Electronics/ARM/_Library/u8x8_d_ssd1326.c ****     case U8X8_MSG_DISPLAY_SET_FLIP_MODE:
 178:/Users/imashio/Electronics/ARM/_Library/u8x8_d_ssd1326.c ****       if ( arg_int == 0 )
 179:/Users/imashio/Electronics/ARM/_Library/u8x8_d_ssd1326.c ****       {
 180:/Users/imashio/Electronics/ARM/_Library/u8x8_d_ssd1326.c **** 	u8x8_cad_SendSequence(u8x8, u8x8_d_ssd1326_256x32_nhd_flip0_seq);
 181:/Users/imashio/Electronics/ARM/_Library/u8x8_d_ssd1326.c **** 	u8x8->x_offset = u8x8->display_info->default_x_offset;
 182:/Users/imashio/Electronics/ARM/_Library/u8x8_d_ssd1326.c ****       }
 183:/Users/imashio/Electronics/ARM/_Library/u8x8_d_ssd1326.c ****       else
 184:/Users/imashio/Electronics/ARM/_Library/u8x8_d_ssd1326.c ****       {
 185:/Users/imashio/Electronics/ARM/_Library/u8x8_d_ssd1326.c **** 	u8x8_cad_SendSequence(u8x8, u8x8_d_ssd1326_256x32_nhd_flip1_seq);
 186:/Users/imashio/Electronics/ARM/_Library/u8x8_d_ssd1326.c **** 	u8x8->x_offset = u8x8->display_info->flipmode_x_offset;
 187:/Users/imashio/Electronics/ARM/_Library/u8x8_d_ssd1326.c ****       }
 188:/Users/imashio/Electronics/ARM/_Library/u8x8_d_ssd1326.c ****       break;
 189:/Users/imashio/Electronics/ARM/_Library/u8x8_d_ssd1326.c **** #ifdef U8X8_WITH_SET_CONTRAST
 190:/Users/imashio/Electronics/ARM/_Library/u8x8_d_ssd1326.c ****     case U8X8_MSG_DISPLAY_SET_CONTRAST:
 191:/Users/imashio/Electronics/ARM/_Library/u8x8_d_ssd1326.c ****       u8x8_cad_StartTransfer(u8x8);
 192:/Users/imashio/Electronics/ARM/_Library/u8x8_d_ssd1326.c ****       u8x8_cad_SendCmd(u8x8, 0x081 );
 193:/Users/imashio/Electronics/ARM/_Library/u8x8_d_ssd1326.c ****       u8x8_cad_SendArg(u8x8, arg_int );	/* ssd1326 has range from 0 to 255 */
 194:/Users/imashio/Electronics/ARM/_Library/u8x8_d_ssd1326.c ****       u8x8_cad_EndTransfer(u8x8);
 195:/Users/imashio/Electronics/ARM/_Library/u8x8_d_ssd1326.c ****       break;
 196:/Users/imashio/Electronics/ARM/_Library/u8x8_d_ssd1326.c **** #endif
 197:/Users/imashio/Electronics/ARM/_Library/u8x8_d_ssd1326.c ****     case U8X8_MSG_DISPLAY_DRAW_TILE:
 198:/Users/imashio/Electronics/ARM/_Library/u8x8_d_ssd1326.c ****       u8x8_cad_StartTransfer(u8x8);
 199:/Users/imashio/Electronics/ARM/_Library/u8x8_d_ssd1326.c ****       x = ((u8x8_tile_t *)arg_ptr)->x_pos;
 200:/Users/imashio/Electronics/ARM/_Library/u8x8_d_ssd1326.c ****       x *= 4;
 201:/Users/imashio/Electronics/ARM/_Library/u8x8_d_ssd1326.c ****       
ARM GAS  /var/folders/v3/wysfpd052nz8jkbx04pk0ym80000gn/T//ccaGGHDY.s 			page 5


 202:/Users/imashio/Electronics/ARM/_Library/u8x8_d_ssd1326.c ****       y = (((u8x8_tile_t *)arg_ptr)->y_pos);
 203:/Users/imashio/Electronics/ARM/_Library/u8x8_d_ssd1326.c ****       
 204:/Users/imashio/Electronics/ARM/_Library/u8x8_d_ssd1326.c ****       y *= 8;
 205:/Users/imashio/Electronics/ARM/_Library/u8x8_d_ssd1326.c ****       y += u8x8->x_offset;		/* x_offset is used as y offset for the ssd1326 */
 206:/Users/imashio/Electronics/ARM/_Library/u8x8_d_ssd1326.c ****     
 207:/Users/imashio/Electronics/ARM/_Library/u8x8_d_ssd1326.c ****       
 208:/Users/imashio/Electronics/ARM/_Library/u8x8_d_ssd1326.c ****       do
 209:/Users/imashio/Electronics/ARM/_Library/u8x8_d_ssd1326.c ****       {
 210:/Users/imashio/Electronics/ARM/_Library/u8x8_d_ssd1326.c **** 	c = ((u8x8_tile_t *)arg_ptr)->cnt;
 211:/Users/imashio/Electronics/ARM/_Library/u8x8_d_ssd1326.c **** 	ptr = ((u8x8_tile_t *)arg_ptr)->tile_ptr;
 212:/Users/imashio/Electronics/ARM/_Library/u8x8_d_ssd1326.c **** 
 213:/Users/imashio/Electronics/ARM/_Library/u8x8_d_ssd1326.c **** 	do
 214:/Users/imashio/Electronics/ARM/_Library/u8x8_d_ssd1326.c **** 	{
 215:/Users/imashio/Electronics/ARM/_Library/u8x8_d_ssd1326.c ****           u8x8_cad_SendCmd(u8x8, 0x015 );	/* set column address */
 216:/Users/imashio/Electronics/ARM/_Library/u8x8_d_ssd1326.c ****           u8x8_cad_SendArg(u8x8, x );	/* start */
 217:/Users/imashio/Electronics/ARM/_Library/u8x8_d_ssd1326.c ****           u8x8_cad_SendArg(u8x8, x+3 );	/* end */
 218:/Users/imashio/Electronics/ARM/_Library/u8x8_d_ssd1326.c **** 
 219:/Users/imashio/Electronics/ARM/_Library/u8x8_d_ssd1326.c ****           u8x8_cad_SendCmd(u8x8, 0x075 );	/* set row address */
 220:/Users/imashio/Electronics/ARM/_Library/u8x8_d_ssd1326.c ****           u8x8_cad_SendArg(u8x8, y);
 221:/Users/imashio/Electronics/ARM/_Library/u8x8_d_ssd1326.c ****           u8x8_cad_SendArg(u8x8, y+7);
 222:/Users/imashio/Electronics/ARM/_Library/u8x8_d_ssd1326.c ****           
 223:/Users/imashio/Electronics/ARM/_Library/u8x8_d_ssd1326.c ****           u8x8_cad_SendData(u8x8, 32, u8x8_ssd1326_8to32(u8x8, ptr));
 224:/Users/imashio/Electronics/ARM/_Library/u8x8_d_ssd1326.c ****           
 225:/Users/imashio/Electronics/ARM/_Library/u8x8_d_ssd1326.c **** 	  ptr += 8;
 226:/Users/imashio/Electronics/ARM/_Library/u8x8_d_ssd1326.c **** 	  x += 4;
 227:/Users/imashio/Electronics/ARM/_Library/u8x8_d_ssd1326.c **** 	  c--;
 228:/Users/imashio/Electronics/ARM/_Library/u8x8_d_ssd1326.c **** 	} while( c > 0 );
 229:/Users/imashio/Electronics/ARM/_Library/u8x8_d_ssd1326.c **** 	
 230:/Users/imashio/Electronics/ARM/_Library/u8x8_d_ssd1326.c **** 	//x += 4;
 231:/Users/imashio/Electronics/ARM/_Library/u8x8_d_ssd1326.c **** 	arg_int--;
 232:/Users/imashio/Electronics/ARM/_Library/u8x8_d_ssd1326.c ****       } while( arg_int > 0 );
 233:/Users/imashio/Electronics/ARM/_Library/u8x8_d_ssd1326.c ****       
 234:/Users/imashio/Electronics/ARM/_Library/u8x8_d_ssd1326.c ****       u8x8_cad_EndTransfer(u8x8);
 235:/Users/imashio/Electronics/ARM/_Library/u8x8_d_ssd1326.c ****       break;
 236:/Users/imashio/Electronics/ARM/_Library/u8x8_d_ssd1326.c ****     default:
 237:/Users/imashio/Electronics/ARM/_Library/u8x8_d_ssd1326.c ****       return 0;
 238:/Users/imashio/Electronics/ARM/_Library/u8x8_d_ssd1326.c ****   }
 239:/Users/imashio/Electronics/ARM/_Library/u8x8_d_ssd1326.c ****   return 1;
 240:/Users/imashio/Electronics/ARM/_Library/u8x8_d_ssd1326.c **** }
 241:/Users/imashio/Electronics/ARM/_Library/u8x8_d_ssd1326.c **** 
 242:/Users/imashio/Electronics/ARM/_Library/u8x8_d_ssd1326.c **** 
 243:/Users/imashio/Electronics/ARM/_Library/u8x8_d_ssd1326.c **** static const u8x8_display_info_t u8x8_ssd1326_256x32_display_info =
 244:/Users/imashio/Electronics/ARM/_Library/u8x8_d_ssd1326.c **** {
 245:/Users/imashio/Electronics/ARM/_Library/u8x8_d_ssd1326.c ****   /* chip_enable_level = */ 0,
 246:/Users/imashio/Electronics/ARM/_Library/u8x8_d_ssd1326.c ****   /* chip_disable_level = */ 1,
 247:/Users/imashio/Electronics/ARM/_Library/u8x8_d_ssd1326.c ****   
 248:/Users/imashio/Electronics/ARM/_Library/u8x8_d_ssd1326.c ****   /* post_chip_enable_wait_ns = */ 20,
 249:/Users/imashio/Electronics/ARM/_Library/u8x8_d_ssd1326.c ****   /* pre_chip_disable_wait_ns = */ 15,
 250:/Users/imashio/Electronics/ARM/_Library/u8x8_d_ssd1326.c ****   /* reset_pulse_width_ms = */ 100, 	
 251:/Users/imashio/Electronics/ARM/_Library/u8x8_d_ssd1326.c ****   /* post_reset_wait_ms = */ 100, 		/**/
 252:/Users/imashio/Electronics/ARM/_Library/u8x8_d_ssd1326.c ****   /* sda_setup_time_ns = */ 100,		/* ssd1326  */
 253:/Users/imashio/Electronics/ARM/_Library/u8x8_d_ssd1326.c ****   /* sck_pulse_width_ns = */ 100,	/* ssd1326  */
 254:/Users/imashio/Electronics/ARM/_Library/u8x8_d_ssd1326.c ****   /* sck_clock_hz = */ 4000000UL,	/* since Arduino 1.6.0, the SPI bus speed in Hz. Should be  10000
 255:/Users/imashio/Electronics/ARM/_Library/u8x8_d_ssd1326.c ****   /* spi_mode = */ 0,		/* active high, rising edge */
 256:/Users/imashio/Electronics/ARM/_Library/u8x8_d_ssd1326.c ****   /* i2c_bus_clock_100kHz = */ 4,
 257:/Users/imashio/Electronics/ARM/_Library/u8x8_d_ssd1326.c ****   /* data_setup_time_ns = */ 40,
 258:/Users/imashio/Electronics/ARM/_Library/u8x8_d_ssd1326.c ****   /* write_pulse_width_ns = */ 60,	/* ssd1326 */
ARM GAS  /var/folders/v3/wysfpd052nz8jkbx04pk0ym80000gn/T//ccaGGHDY.s 			page 6


 259:/Users/imashio/Electronics/ARM/_Library/u8x8_d_ssd1326.c ****   /* tile_width = */ 32,
 260:/Users/imashio/Electronics/ARM/_Library/u8x8_d_ssd1326.c ****   /* tile_hight = */ 4,
 261:/Users/imashio/Electronics/ARM/_Library/u8x8_d_ssd1326.c ****   /* default_x_offset = */ 0,		/* x_offset is used as y offset for the ssd1326 */
 262:/Users/imashio/Electronics/ARM/_Library/u8x8_d_ssd1326.c ****   /* flipmode_x_offset = */ 0,		/* x_offset is used as y offset for the ssd1326 */
 263:/Users/imashio/Electronics/ARM/_Library/u8x8_d_ssd1326.c ****   /* pixel_width = */ 256,
 264:/Users/imashio/Electronics/ARM/_Library/u8x8_d_ssd1326.c ****   /* pixel_height = */ 32
 265:/Users/imashio/Electronics/ARM/_Library/u8x8_d_ssd1326.c **** };
 266:/Users/imashio/Electronics/ARM/_Library/u8x8_d_ssd1326.c **** 
 267:/Users/imashio/Electronics/ARM/_Library/u8x8_d_ssd1326.c **** uint8_t u8x8_d_ssd1326_er_256x32(u8x8_t *u8x8, uint8_t msg, uint8_t arg_int, void *arg_ptr)
 268:/Users/imashio/Electronics/ARM/_Library/u8x8_d_ssd1326.c **** {
  29              		.loc 1 268 0
  30              		.cfi_startproc
  31              		@ args = 0, pretend = 0, frame = 16
  32              		@ frame_needed = 0, uses_anonymous_args = 0
  33              	.LVL0:
  34 0000 2DE9F04F 		push	{r4, r5, r6, r7, r8, r9, r10, fp, lr}
  35              	.LCFI0:
  36              		.cfi_def_cfa_offset 36
  37              		.cfi_offset 4, -36
  38              		.cfi_offset 5, -32
  39              		.cfi_offset 6, -28
  40              		.cfi_offset 7, -24
  41              		.cfi_offset 8, -20
  42              		.cfi_offset 9, -16
  43              		.cfi_offset 10, -12
  44              		.cfi_offset 11, -8
  45              		.cfi_offset 14, -4
  46 0004 85B0     		sub	sp, sp, #20
  47              	.LCFI1:
  48              		.cfi_def_cfa_offset 56
 269:/Users/imashio/Electronics/ARM/_Library/u8x8_d_ssd1326.c ****     if ( msg == U8X8_MSG_DISPLAY_SETUP_MEMORY )
  49              		.loc 1 269 0
  50 0006 0929     		cmp	r1, #9
 268:/Users/imashio/Electronics/ARM/_Library/u8x8_d_ssd1326.c ****     if ( msg == U8X8_MSG_DISPLAY_SETUP_MEMORY )
  51              		.loc 1 268 0
  52 0008 0092     		str	r2, [sp]
  53 000a 0293     		str	r3, [sp, #8]
  54              		.loc 1 269 0
  55 000c 09D0     		beq	.L29
  56              	.LBB6:
  57              	.LBB7:
 160:/Users/imashio/Electronics/ARM/_Library/u8x8_d_ssd1326.c ****   {
  58              		.loc 1 160 0
  59 000e 0A39     		subs	r1, r1, #10
  60              	.LVL1:
  61 0010 0446     		mov	r4, r0
  62              	.LVL2:
  63 0012 0529     		cmp	r1, #5
  64 0014 00F2B480 		bhi	.L18
  65 0018 DFE801F0 		tbb	[pc, r1]
  66              	.LVL3:
  67              	.L5:
  68 001c 86       		.byte	(.L4-.L5)/2
  69 001d 90       		.byte	(.L6-.L5)/2
  70 001e B2       		.byte	(.L18-.L5)/2
  71 001f 97       		.byte	(.L7-.L5)/2
  72 0020 A1       		.byte	(.L8-.L5)/2
ARM GAS  /var/folders/v3/wysfpd052nz8jkbx04pk0ym80000gn/T//ccaGGHDY.s 			page 7


  73 0021 0A       		.byte	(.L9-.L5)/2
  74              		.p2align 1
  75              	.L29:
  76              	.LBE7:
  77              	.LBE6:
 270:/Users/imashio/Electronics/ARM/_Library/u8x8_d_ssd1326.c ****     {
 271:/Users/imashio/Electronics/ARM/_Library/u8x8_d_ssd1326.c ****       u8x8_d_helper_display_setup_memory(u8x8, &u8x8_ssd1326_256x32_display_info);
  78              		.loc 1 271 0
  79 0022 5F49     		ldr	r1, .L30
  80              	.LVL4:
  81 0024 FFF7FEFF 		bl	u8x8_d_helper_display_setup_memory
  82              	.LVL5:
 272:/Users/imashio/Electronics/ARM/_Library/u8x8_d_ssd1326.c ****       return 1;
  83              		.loc 1 272 0
  84 0028 0120     		movs	r0, #1
  85              	.L3:
 273:/Users/imashio/Electronics/ARM/_Library/u8x8_d_ssd1326.c ****     }
 274:/Users/imashio/Electronics/ARM/_Library/u8x8_d_ssd1326.c ****     return u8x8_d_ssd1326_256x32_generic(u8x8, msg, arg_int, arg_ptr);
 275:/Users/imashio/Electronics/ARM/_Library/u8x8_d_ssd1326.c **** }
  86              		.loc 1 275 0
  87 002a 05B0     		add	sp, sp, #20
  88              	.LCFI2:
  89              		.cfi_remember_state
  90              		.cfi_def_cfa_offset 36
  91              		@ sp needed
  92 002c BDE8F08F 		pop	{r4, r5, r6, r7, r8, r9, r10, fp, pc}
  93              	.LVL6:
  94              	.L9:
  95              	.LCFI3:
  96              		.cfi_restore_state
  97              	.LBB14:
  98              	.LBB10:
 198:/Users/imashio/Electronics/ARM/_Library/u8x8_d_ssd1326.c ****       x = ((u8x8_tile_t *)arg_ptr)->x_pos;
  99              		.loc 1 198 0
 100 0030 FFF7FEFF 		bl	u8x8_cad_StartTransfer
 101              	.LVL7:
 202:/Users/imashio/Electronics/ARM/_Library/u8x8_d_ssd1326.c ****       
 102              		.loc 1 202 0
 103 0034 029B     		ldr	r3, [sp, #8]
 205:/Users/imashio/Electronics/ARM/_Library/u8x8_d_ssd1326.c ****     
 104              		.loc 1 205 0
 105 0036 A77F     		ldrb	r7, [r4, #30]	@ zero_extendqisi2
 202:/Users/imashio/Electronics/ARM/_Library/u8x8_d_ssd1326.c ****       
 106              		.loc 1 202 0
 107 0038 9A79     		ldrb	r2, [r3, #6]	@ zero_extendqisi2
 199:/Users/imashio/Electronics/ARM/_Library/u8x8_d_ssd1326.c ****       x *= 4;
 108              		.loc 1 199 0
 109 003a 5B79     		ldrb	r3, [r3, #5]	@ zero_extendqisi2
 110              	.LVL8:
 111 003c DFF87891 		ldr	r9, .L30+24
 205:/Users/imashio/Electronics/ARM/_Library/u8x8_d_ssd1326.c ****     
 112              		.loc 1 205 0
 113 0040 07EBC207 		add	r7, r7, r2, lsl #3
 114 0044 07F0FF07 		and	r7, r7, #255
 200:/Users/imashio/Electronics/ARM/_Library/u8x8_d_ssd1326.c ****       
 115              		.loc 1 200 0
 116 0048 9B00     		lsls	r3, r3, #2
ARM GAS  /var/folders/v3/wysfpd052nz8jkbx04pk0ym80000gn/T//ccaGGHDY.s 			page 8


 117              	.LVL9:
 118 004a 07F10708 		add	r8, r7, #7
 119 004e DBB2     		uxtb	r3, r3
 120 0050 5FFA88F8 		uxtb	r8, r8
 121 0054 0193     		str	r3, [sp, #4]
 122              	.LVL10:
 223:/Users/imashio/Electronics/ARM/_Library/u8x8_d_ssd1326.c ****           
 123              		.loc 1 223 0
 124 0056 A9F1240A 		sub	r10, r9, #36
 125              	.LVL11:
 126              	.L17:
 210:/Users/imashio/Electronics/ARM/_Library/u8x8_d_ssd1326.c **** 	ptr = ((u8x8_tile_t *)arg_ptr)->tile_ptr;
 127              		.loc 1 210 0
 128 005a 029B     		ldr	r3, [sp, #8]
 211:/Users/imashio/Electronics/ARM/_Library/u8x8_d_ssd1326.c **** 
 129              		.loc 1 211 0
 130 005c 019D     		ldr	r5, [sp, #4]
 210:/Users/imashio/Electronics/ARM/_Library/u8x8_d_ssd1326.c **** 	ptr = ((u8x8_tile_t *)arg_ptr)->tile_ptr;
 131              		.loc 1 210 0
 132 005e 1A79     		ldrb	r2, [r3, #4]	@ zero_extendqisi2
 133 0060 1B68     		ldr	r3, [r3]
 134 0062 0392     		str	r2, [sp, #12]
 135              	.LVL12:
 136 0064 561E     		subs	r6, r2, #1
 137 0066 F6B2     		uxtb	r6, r6
 138 0068 03F11202 		add	r2, r3, #18
 139              	.LVL13:
 140 006c 0821     		movs	r1, #8
 141 006e 11FB0626 		smlabb	r6, r1, r6, r2
 142 0072 03F10A0B 		add	fp, r3, #10
 143              	.LVL14:
 144              	.L16:
 215:/Users/imashio/Electronics/ARM/_Library/u8x8_d_ssd1326.c ****           u8x8_cad_SendArg(u8x8, x );	/* start */
 145              		.loc 1 215 0
 146 0076 1521     		movs	r1, #21
 147 0078 2046     		mov	r0, r4
 148 007a FFF7FEFF 		bl	u8x8_cad_SendCmd
 149              	.LVL15:
 216:/Users/imashio/Electronics/ARM/_Library/u8x8_d_ssd1326.c ****           u8x8_cad_SendArg(u8x8, x+3 );	/* end */
 150              		.loc 1 216 0
 151 007e 2946     		mov	r1, r5
 152 0080 2046     		mov	r0, r4
 153 0082 FFF7FEFF 		bl	u8x8_cad_SendArg
 154              	.LVL16:
 217:/Users/imashio/Electronics/ARM/_Library/u8x8_d_ssd1326.c **** 
 155              		.loc 1 217 0
 156 0086 E91C     		adds	r1, r5, #3
 157 0088 C9B2     		uxtb	r1, r1
 158 008a 2046     		mov	r0, r4
 159 008c FFF7FEFF 		bl	u8x8_cad_SendArg
 160              	.LVL17:
 219:/Users/imashio/Electronics/ARM/_Library/u8x8_d_ssd1326.c ****           u8x8_cad_SendArg(u8x8, y);
 161              		.loc 1 219 0
 162 0090 7521     		movs	r1, #117
 163 0092 2046     		mov	r0, r4
 164 0094 FFF7FEFF 		bl	u8x8_cad_SendCmd
 165              	.LVL18:
ARM GAS  /var/folders/v3/wysfpd052nz8jkbx04pk0ym80000gn/T//ccaGGHDY.s 			page 9


 220:/Users/imashio/Electronics/ARM/_Library/u8x8_d_ssd1326.c ****           u8x8_cad_SendArg(u8x8, y+7);
 166              		.loc 1 220 0
 167 0098 3946     		mov	r1, r7
 168 009a 2046     		mov	r0, r4
 169 009c FFF7FEFF 		bl	u8x8_cad_SendArg
 170              	.LVL19:
 221:/Users/imashio/Electronics/ARM/_Library/u8x8_d_ssd1326.c ****           
 171              		.loc 1 221 0
 172 00a0 4146     		mov	r1, r8
 173 00a2 2046     		mov	r0, r4
 174 00a4 FFF7FEFF 		bl	u8x8_cad_SendArg
 175              	.LVL20:
 176 00a8 ABF1080C 		sub	ip, fp, #8
 177 00ac CE46     		mov	lr, r9
 178              	.LVL21:
 179              	.L15:
 180              	.LBB8:
 181              	.LBB9:
 134:/Users/imashio/Electronics/ARM/_Library/u8x8_d_ssd1326.c ****     ptr++;
 182              		.loc 1 134 0
 183 00ae 1CF8021C 		ldrb	r1, [ip, #-2]	@ zero_extendqisi2
 184              	.LVL22:
 136:/Users/imashio/Electronics/ARM/_Library/u8x8_d_ssd1326.c ****     ptr++;
 185              		.loc 1 136 0
 186 00b2 1CF8012C 		ldrb	r2, [ip, #-1]	@ zero_extendqisi2
 187              	.LVL23:
 188 00b6 AEF12003 		sub	r3, lr, #32
 189              	.LVL24:
 190              	.L14:
 140:/Users/imashio/Electronics/ARM/_Library/u8x8_d_ssd1326.c ****       if ( a&1 ) v |= 0xf0;
 191              		.loc 1 140 0
 192 00ba 11F0010F 		tst	r1, #1
 193 00be 14BF     		ite	ne
 194 00c0 F020     		movne	r0, #240
 195 00c2 0020     		moveq	r0, #0
 196              	.LVL25:
 142:/Users/imashio/Electronics/ARM/_Library/u8x8_d_ssd1326.c ****       *dest = v;
 197              		.loc 1 142 0
 198 00c4 12F0010F 		tst	r2, #1
 199 00c8 18BF     		it	ne
 200 00ca 40F00F00 		orrne	r0, r0, #15
 201              	.LVL26:
 143:/Users/imashio/Electronics/ARM/_Library/u8x8_d_ssd1326.c ****       dest+=4;
 202              		.loc 1 143 0
 203 00ce 03F8040C 		strb	r0, [r3, #-4]
 204              	.LVL27:
 205 00d2 0433     		adds	r3, r3, #4
 206              	.LVL28:
 138:/Users/imashio/Electronics/ARM/_Library/u8x8_d_ssd1326.c ****     {
 207              		.loc 1 138 0
 208 00d4 7345     		cmp	r3, lr
 145:/Users/imashio/Electronics/ARM/_Library/u8x8_d_ssd1326.c ****       b >>= 1;
 209              		.loc 1 145 0
 210 00d6 4FEA5101 		lsr	r1, r1, #1
 211              	.LVL29:
 146:/Users/imashio/Electronics/ARM/_Library/u8x8_d_ssd1326.c ****     }
 212              		.loc 1 146 0
ARM GAS  /var/folders/v3/wysfpd052nz8jkbx04pk0ym80000gn/T//ccaGGHDY.s 			page 10


 213 00da 4FEA5202 		lsr	r2, r2, #1
 214              	.LVL30:
 138:/Users/imashio/Electronics/ARM/_Library/u8x8_d_ssd1326.c ****     {
 215              		.loc 1 138 0
 216 00de ECD1     		bne	.L14
 217              	.LVL31:
 218 00e0 0CF1020C 		add	ip, ip, #2
 219              	.LVL32:
 130:/Users/imashio/Electronics/ARM/_Library/u8x8_d_ssd1326.c ****   {
 220              		.loc 1 130 0
 221 00e4 DC45     		cmp	ip, fp
 222 00e6 03F1010E 		add	lr, r3, #1
 223 00ea E0D1     		bne	.L15
 224              	.LVL33:
 225 00ec 0CF1080B 		add	fp, ip, #8
 226              	.LVL34:
 227              	.LBE9:
 228              	.LBE8:
 223:/Users/imashio/Electronics/ARM/_Library/u8x8_d_ssd1326.c ****           
 229              		.loc 1 223 0
 230 00f0 5246     		mov	r2, r10
 231 00f2 2021     		movs	r1, #32
 232 00f4 2046     		mov	r0, r4
 233 00f6 FFF7FEFF 		bl	u8x8_cad_SendData
 234              	.LVL35:
 226:/Users/imashio/Electronics/ARM/_Library/u8x8_d_ssd1326.c **** 	  c--;
 235              		.loc 1 226 0
 236 00fa 0435     		adds	r5, r5, #4
 237              	.LVL36:
 228:/Users/imashio/Electronics/ARM/_Library/u8x8_d_ssd1326.c **** 	
 238              		.loc 1 228 0
 239 00fc B345     		cmp	fp, r6
 226:/Users/imashio/Electronics/ARM/_Library/u8x8_d_ssd1326.c **** 	  c--;
 240              		.loc 1 226 0
 241 00fe EDB2     		uxtb	r5, r5
 242              	.LVL37:
 228:/Users/imashio/Electronics/ARM/_Library/u8x8_d_ssd1326.c **** 	
 243              		.loc 1 228 0
 244 0100 B9D1     		bne	.L16
 245 0102 019B     		ldr	r3, [sp, #4]
 246 0104 039A     		ldr	r2, [sp, #12]
 247 0106 03EB8203 		add	r3, r3, r2, lsl #2
 231:/Users/imashio/Electronics/ARM/_Library/u8x8_d_ssd1326.c ****       } while( arg_int > 0 );
 248              		.loc 1 231 0
 249 010a 009A     		ldr	r2, [sp]
 250 010c DBB2     		uxtb	r3, r3
 251 010e 013A     		subs	r2, r2, #1
 252              	.LVL38:
 253 0110 0193     		str	r3, [sp, #4]
 232:/Users/imashio/Electronics/ARM/_Library/u8x8_d_ssd1326.c ****       
 254              		.loc 1 232 0
 255 0112 12F0FF03 		ands	r3, r2, #255
 256 0116 0093     		str	r3, [sp]
 257 0118 9FD1     		bne	.L17
 234:/Users/imashio/Electronics/ARM/_Library/u8x8_d_ssd1326.c ****       break;
 258              		.loc 1 234 0
 259 011a 2046     		mov	r0, r4
ARM GAS  /var/folders/v3/wysfpd052nz8jkbx04pk0ym80000gn/T//ccaGGHDY.s 			page 11


 260 011c FFF7FEFF 		bl	u8x8_cad_EndTransfer
 261              	.LVL39:
 239:/Users/imashio/Electronics/ARM/_Library/u8x8_d_ssd1326.c **** }
 262              		.loc 1 239 0
 263 0120 0120     		movs	r0, #1
 264              	.LBE10:
 265              	.LBE14:
 266              		.loc 1 275 0
 267 0122 05B0     		add	sp, sp, #20
 268              	.LCFI4:
 269              		.cfi_remember_state
 270              		.cfi_def_cfa_offset 36
 271              		@ sp needed
 272 0124 BDE8F08F 		pop	{r4, r5, r6, r7, r8, r9, r10, fp, pc}
 273              	.LVL40:
 274              	.L4:
 275              	.LCFI5:
 276              		.cfi_restore_state
 277              	.LBB15:
 278              	.LBB11:
 168:/Users/imashio/Electronics/ARM/_Library/u8x8_d_ssd1326.c ****       u8x8_cad_SendSequence(u8x8, u8x8_d_ssd1326_er_256x32_init_seq);    
 279              		.loc 1 168 0
 280 0128 FFF7FEFF 		bl	u8x8_d_helper_display_init
 281              	.LVL41:
 169:/Users/imashio/Electronics/ARM/_Library/u8x8_d_ssd1326.c ****       break;
 282              		.loc 1 169 0
 283 012c 2046     		mov	r0, r4
 284 012e 1D49     		ldr	r1, .L30+4
 285 0130 FFF7FEFF 		bl	u8x8_cad_SendSequence
 286              	.LVL42:
 239:/Users/imashio/Electronics/ARM/_Library/u8x8_d_ssd1326.c **** }
 287              		.loc 1 239 0
 288 0134 0120     		movs	r0, #1
 289              	.LBE11:
 290              	.LBE15:
 291              		.loc 1 275 0
 292 0136 05B0     		add	sp, sp, #20
 293              	.LCFI6:
 294              		.cfi_remember_state
 295              		.cfi_def_cfa_offset 36
 296              	.LVL43:
 297              		@ sp needed
 298 0138 BDE8F08F 		pop	{r4, r5, r6, r7, r8, r9, r10, fp, pc}
 299              	.LVL44:
 300              	.L6:
 301              	.LCFI7:
 302              		.cfi_restore_state
 303              	.LBB16:
 304              	.LBB12:
 172:/Users/imashio/Electronics/ARM/_Library/u8x8_d_ssd1326.c **** 	u8x8_cad_SendSequence(u8x8, u8x8_d_ssd1326_256x32_nhd_powersave0_seq);
 305              		.loc 1 172 0
 306 013c 009B     		ldr	r3, [sp]
 307 013e 0BBB     		cbnz	r3, .L10
 173:/Users/imashio/Electronics/ARM/_Library/u8x8_d_ssd1326.c ****       else
 308              		.loc 1 173 0
 309 0140 1949     		ldr	r1, .L30+8
 310 0142 FFF7FEFF 		bl	u8x8_cad_SendSequence
ARM GAS  /var/folders/v3/wysfpd052nz8jkbx04pk0ym80000gn/T//ccaGGHDY.s 			page 12


 311              	.LVL45:
 239:/Users/imashio/Electronics/ARM/_Library/u8x8_d_ssd1326.c **** }
 312              		.loc 1 239 0
 313 0146 0120     		movs	r0, #1
 314 0148 6FE7     		b	.L3
 315              	.LVL46:
 316              	.L7:
 178:/Users/imashio/Electronics/ARM/_Library/u8x8_d_ssd1326.c ****       {
 317              		.loc 1 178 0
 318 014a 009B     		ldr	r3, [sp]
 319 014c FBB9     		cbnz	r3, .L11
 180:/Users/imashio/Electronics/ARM/_Library/u8x8_d_ssd1326.c **** 	u8x8->x_offset = u8x8->display_info->default_x_offset;
 320              		.loc 1 180 0
 321 014e 1749     		ldr	r1, .L30+12
 322 0150 FFF7FEFF 		bl	u8x8_cad_SendSequence
 323              	.LVL47:
 181:/Users/imashio/Electronics/ARM/_Library/u8x8_d_ssd1326.c ****       }
 324              		.loc 1 181 0
 325 0154 2368     		ldr	r3, [r4]
 326 0156 9B7C     		ldrb	r3, [r3, #18]	@ zero_extendqisi2
 327 0158 A377     		strb	r3, [r4, #30]
 239:/Users/imashio/Electronics/ARM/_Library/u8x8_d_ssd1326.c **** }
 328              		.loc 1 239 0
 329 015a 0120     		movs	r0, #1
 330 015c 65E7     		b	.L3
 331              	.LVL48:
 332              	.L8:
 191:/Users/imashio/Electronics/ARM/_Library/u8x8_d_ssd1326.c ****       u8x8_cad_SendCmd(u8x8, 0x081 );
 333              		.loc 1 191 0
 334 015e FFF7FEFF 		bl	u8x8_cad_StartTransfer
 335              	.LVL49:
 192:/Users/imashio/Electronics/ARM/_Library/u8x8_d_ssd1326.c ****       u8x8_cad_SendArg(u8x8, arg_int );	/* ssd1326 has range from 0 to 255 */
 336              		.loc 1 192 0
 337 0162 8121     		movs	r1, #129
 338 0164 2046     		mov	r0, r4
 339 0166 FFF7FEFF 		bl	u8x8_cad_SendCmd
 340              	.LVL50:
 193:/Users/imashio/Electronics/ARM/_Library/u8x8_d_ssd1326.c ****       u8x8_cad_EndTransfer(u8x8);
 341              		.loc 1 193 0
 342 016a 0099     		ldr	r1, [sp]
 343 016c 2046     		mov	r0, r4
 344 016e FFF7FEFF 		bl	u8x8_cad_SendArg
 345              	.LVL51:
 194:/Users/imashio/Electronics/ARM/_Library/u8x8_d_ssd1326.c ****       break;
 346              		.loc 1 194 0
 347 0172 2046     		mov	r0, r4
 348 0174 FFF7FEFF 		bl	u8x8_cad_EndTransfer
 349              	.LVL52:
 239:/Users/imashio/Electronics/ARM/_Library/u8x8_d_ssd1326.c **** }
 350              		.loc 1 239 0
 351 0178 0120     		movs	r0, #1
 352              	.LBE12:
 353              	.LBE16:
 354              		.loc 1 275 0
 355 017a 05B0     		add	sp, sp, #20
 356              	.LCFI8:
 357              		.cfi_remember_state
ARM GAS  /var/folders/v3/wysfpd052nz8jkbx04pk0ym80000gn/T//ccaGGHDY.s 			page 13


 358              		.cfi_def_cfa_offset 36
 359              	.LVL53:
 360              		@ sp needed
 361 017c BDE8F08F 		pop	{r4, r5, r6, r7, r8, r9, r10, fp, pc}
 362              	.LVL54:
 363              	.L18:
 364              	.LCFI9:
 365              		.cfi_restore_state
 366              	.LBB17:
 367              	.LBB13:
 237:/Users/imashio/Electronics/ARM/_Library/u8x8_d_ssd1326.c ****   }
 368              		.loc 1 237 0
 369 0180 0020     		movs	r0, #0
 370              	.LVL55:
 371 0182 52E7     		b	.L3
 372              	.LVL56:
 373              	.L10:
 175:/Users/imashio/Electronics/ARM/_Library/u8x8_d_ssd1326.c ****       break;
 374              		.loc 1 175 0
 375 0184 0A49     		ldr	r1, .L30+16
 376 0186 FFF7FEFF 		bl	u8x8_cad_SendSequence
 377              	.LVL57:
 239:/Users/imashio/Electronics/ARM/_Library/u8x8_d_ssd1326.c **** }
 378              		.loc 1 239 0
 379 018a 0120     		movs	r0, #1
 380 018c 4DE7     		b	.L3
 381              	.LVL58:
 382              	.L11:
 185:/Users/imashio/Electronics/ARM/_Library/u8x8_d_ssd1326.c **** 	u8x8->x_offset = u8x8->display_info->flipmode_x_offset;
 383              		.loc 1 185 0
 384 018e 0949     		ldr	r1, .L30+20
 385 0190 FFF7FEFF 		bl	u8x8_cad_SendSequence
 386              	.LVL59:
 186:/Users/imashio/Electronics/ARM/_Library/u8x8_d_ssd1326.c ****       }
 387              		.loc 1 186 0
 388 0194 2368     		ldr	r3, [r4]
 389 0196 DB7C     		ldrb	r3, [r3, #19]	@ zero_extendqisi2
 390 0198 A377     		strb	r3, [r4, #30]
 239:/Users/imashio/Electronics/ARM/_Library/u8x8_d_ssd1326.c **** }
 391              		.loc 1 239 0
 392 019a 0120     		movs	r0, #1
 393 019c 45E7     		b	.L3
 394              	.L31:
 395 019e 00BF     		.align	2
 396              	.L30:
 397 01a0 00000000 		.word	.LANCHOR0
 398 01a4 00000000 		.word	.LANCHOR1
 399 01a8 00000000 		.word	.LANCHOR2
 400 01ac 00000000 		.word	.LANCHOR4
 401 01b0 00000000 		.word	.LANCHOR3
 402 01b4 00000000 		.word	.LANCHOR5
 403 01b8 24000000 		.word	.LANCHOR6+36
 404              	.LBE13:
 405              	.LBE17:
 406              		.cfi_endproc
 407              	.LFE2:
 409              		.section	.bss.u8x8_ssd1326_8to32_dest_buf,"aw",%nobits
ARM GAS  /var/folders/v3/wysfpd052nz8jkbx04pk0ym80000gn/T//ccaGGHDY.s 			page 14


 410              		.align	2
 411              		.set	.LANCHOR6,. + 0
 414              	u8x8_ssd1326_8to32_dest_buf:
 415 0000 00000000 		.space	32
 415      00000000 
 415      00000000 
 415      00000000 
 415      00000000 
 416              		.section	.rodata.u8x8_d_ssd1326_256x32_nhd_flip0_seq,"a",%progbits
 417              		.align	2
 418              		.set	.LANCHOR4,. + 0
 421              	u8x8_d_ssd1326_256x32_nhd_flip0_seq:
 422 0000 18       		.byte	24
 423 0001 15       		.byte	21
 424 0002 A0       		.byte	-96
 425 0003 16       		.byte	22
 426 0004 06       		.byte	6
 427 0005 19       		.byte	25
 428 0006 FF       		.byte	-1
 429              		.section	.rodata.u8x8_d_ssd1326_256x32_nhd_flip1_seq,"a",%progbits
 430              		.align	2
 431              		.set	.LANCHOR5,. + 0
 434              	u8x8_d_ssd1326_256x32_nhd_flip1_seq:
 435 0000 18       		.byte	24
 436 0001 15       		.byte	21
 437 0002 A0       		.byte	-96
 438 0003 16       		.byte	22
 439 0004 01       		.byte	1
 440 0005 19       		.byte	25
 441 0006 FF       		.byte	-1
 442              		.section	.rodata.u8x8_d_ssd1326_256x32_nhd_powersave0_seq,"a",%progbits
 443              		.align	2
 444              		.set	.LANCHOR2,. + 0
 447              	u8x8_d_ssd1326_256x32_nhd_powersave0_seq:
 448 0000 18       		.byte	24
 449 0001 15       		.byte	21
 450 0002 AF       		.byte	-81
 451 0003 19       		.byte	25
 452 0004 FF       		.byte	-1
 453              		.section	.rodata.u8x8_d_ssd1326_256x32_nhd_powersave1_seq,"a",%progbits
 454              		.align	2
 455              		.set	.LANCHOR3,. + 0
 458              	u8x8_d_ssd1326_256x32_nhd_powersave1_seq:
 459 0000 18       		.byte	24
 460 0001 15       		.byte	21
 461 0002 AE       		.byte	-82
 462 0003 19       		.byte	25
 463 0004 FF       		.byte	-1
 464              		.section	.rodata.u8x8_d_ssd1326_er_256x32_init_seq,"a",%progbits
 465              		.align	2
 466              		.set	.LANCHOR1,. + 0
 469              	u8x8_d_ssd1326_er_256x32_init_seq:
 470 0000 18       		.byte	24
 471 0001 15       		.byte	21
 472 0002 FD       		.byte	-3
 473 0003 16       		.byte	22
 474 0004 12       		.byte	18
ARM GAS  /var/folders/v3/wysfpd052nz8jkbx04pk0ym80000gn/T//ccaGGHDY.s 			page 15


 475 0005 15       		.byte	21
 476 0006 AE       		.byte	-82
 477 0007 15       		.byte	21
 478 0008 A8       		.byte	-88
 479 0009 16       		.byte	22
 480 000a 1F       		.byte	31
 481 000b 15       		.byte	21
 482 000c A1       		.byte	-95
 483 000d 16       		.byte	22
 484 000e 00       		.byte	0
 485 000f 15       		.byte	21
 486 0010 A2       		.byte	-94
 487 0011 16       		.byte	22
 488 0012 00       		.byte	0
 489 0013 15       		.byte	21
 490 0014 AD       		.byte	-83
 491 0015 16       		.byte	22
 492 0016 02       		.byte	2
 493 0017 15       		.byte	21
 494 0018 A0       		.byte	-96
 495 0019 16       		.byte	22
 496 001a 06       		.byte	6
 497 001b 15       		.byte	21
 498 001c 86       		.byte	-122
 499 001d 15       		.byte	21
 500 001e B7       		.byte	-73
 501 001f 15       		.byte	21
 502 0020 81       		.byte	-127
 503 0021 16       		.byte	22
 504 0022 27       		.byte	39
 505 0023 15       		.byte	21
 506 0024 B1       		.byte	-79
 507 0025 16       		.byte	22
 508 0026 71       		.byte	113
 509 0027 15       		.byte	21
 510 0028 B3       		.byte	-77
 511 0029 16       		.byte	22
 512 002a F0       		.byte	-16
 513 002b 15       		.byte	21
 514 002c BB       		.byte	-69
 515 002d 16       		.byte	22
 516 002e 35       		.byte	53
 517 002f 16       		.byte	22
 518 0030 FF       		.byte	-1
 519 0031 15       		.byte	21
 520 0032 BC       		.byte	-68
 521 0033 16       		.byte	22
 522 0034 1F       		.byte	31
 523 0035 15       		.byte	21
 524 0036 BE       		.byte	-66
 525 0037 16       		.byte	22
 526 0038 0F       		.byte	15
 527 0039 15       		.byte	21
 528 003a BF       		.byte	-65
 529 003b 16       		.byte	22
 530 003c 0F       		.byte	15
 531 003d 15       		.byte	21
ARM GAS  /var/folders/v3/wysfpd052nz8jkbx04pk0ym80000gn/T//ccaGGHDY.s 			page 16


 532 003e A4       		.byte	-92
 533 003f 19       		.byte	25
 534 0040 FF       		.byte	-1
 535              		.section	.rodata.u8x8_ssd1326_256x32_display_info,"a",%progbits
 536              		.align	2
 537              		.set	.LANCHOR0,. + 0
 540              	u8x8_ssd1326_256x32_display_info:
 541 0000 00       		.byte	0
 542 0001 01       		.byte	1
 543 0002 14       		.byte	20
 544 0003 0F       		.byte	15
 545 0004 64       		.byte	100
 546 0005 64       		.byte	100
 547 0006 64       		.byte	100
 548 0007 64       		.byte	100
 549 0008 00093D00 		.word	4000000
 550 000c 00       		.byte	0
 551 000d 04       		.byte	4
 552 000e 28       		.byte	40
 553 000f 3C       		.byte	60
 554 0010 20       		.byte	32
 555 0011 04       		.byte	4
 556 0012 00       		.byte	0
 557 0013 00       		.byte	0
 558 0014 0001     		.short	256
 559 0016 2000     		.short	32
 560              		.text
 561              	.Letext0:
 562              		.file 2 "/usr/local/gcc-arm-none-eabi-7-2018-q2-update/arm-none-eabi/include/machine/_default_type
 563              		.file 3 "/usr/local/gcc-arm-none-eabi-7-2018-q2-update/arm-none-eabi/include/sys/_stdint.h"
 564              		.file 4 "/Users/imashio/Electronics/ARM/_Library/u8x8.h"
ARM GAS  /var/folders/v3/wysfpd052nz8jkbx04pk0ym80000gn/T//ccaGGHDY.s 			page 17

