ARM GAS  /var/folders/v3/wysfpd052nz8jkbx04pk0ym80000gn/T//ccHIHrLs.s 			page 1


   1              		.cpu cortex-m4
   2              		.eabi_attribute 27, 1
   3              		.eabi_attribute 28, 1
   4              		.eabi_attribute 20, 1
   5              		.eabi_attribute 21, 1
   6              		.eabi_attribute 23, 3
   7              		.eabi_attribute 24, 1
   8              		.eabi_attribute 25, 1
   9              		.eabi_attribute 26, 1
  10              		.eabi_attribute 30, 2
  11              		.eabi_attribute 34, 1
  12              		.eabi_attribute 18, 4
  13              		.file	"u8x8_d_uc1608.c"
  14              		.text
  15              	.Ltext0:
  16              		.cfi_sections	.debug_frame
  17              		.section	.text.u8x8_d_uc1608_common,"ax",%progbits
  18              		.align	1
  19              		.p2align 2,,3
  20              		.global	u8x8_d_uc1608_common
  21              		.syntax unified
  22              		.thumb
  23              		.thumb_func
  24              		.fpu fpv4-sp-d16
  26              	u8x8_d_uc1608_common:
  27              	.LFB0:
  28              		.file 1 "/Users/imashio/Electronics/ARM/_Library/u8x8_d_uc1608.c"
   1:/Users/imashio/Electronics/ARM/_Library/u8x8_d_uc1608.c **** /*
   2:/Users/imashio/Electronics/ARM/_Library/u8x8_d_uc1608.c **** 
   3:/Users/imashio/Electronics/ARM/_Library/u8x8_d_uc1608.c ****   u8x8_d_uc1608.c
   4:/Users/imashio/Electronics/ARM/_Library/u8x8_d_uc1608.c ****   
   5:/Users/imashio/Electronics/ARM/_Library/u8x8_d_uc1608.c ****   Universal 8bit Graphics Library (https://github.com/olikraus/u8g2/)
   6:/Users/imashio/Electronics/ARM/_Library/u8x8_d_uc1608.c **** 
   7:/Users/imashio/Electronics/ARM/_Library/u8x8_d_uc1608.c ****   Copyright (c) 2016, olikraus@gmail.com
   8:/Users/imashio/Electronics/ARM/_Library/u8x8_d_uc1608.c ****   All rights reserved.
   9:/Users/imashio/Electronics/ARM/_Library/u8x8_d_uc1608.c **** 
  10:/Users/imashio/Electronics/ARM/_Library/u8x8_d_uc1608.c ****   Redistribution and use in source and binary forms, with or without modification, 
  11:/Users/imashio/Electronics/ARM/_Library/u8x8_d_uc1608.c ****   are permitted provided that the following conditions are met:
  12:/Users/imashio/Electronics/ARM/_Library/u8x8_d_uc1608.c **** 
  13:/Users/imashio/Electronics/ARM/_Library/u8x8_d_uc1608.c ****   * Redistributions of source code must retain the above copyright notice, this list 
  14:/Users/imashio/Electronics/ARM/_Library/u8x8_d_uc1608.c ****     of conditions and the following disclaimer.
  15:/Users/imashio/Electronics/ARM/_Library/u8x8_d_uc1608.c ****     
  16:/Users/imashio/Electronics/ARM/_Library/u8x8_d_uc1608.c ****   * Redistributions in binary form must reproduce the above copyright notice, this 
  17:/Users/imashio/Electronics/ARM/_Library/u8x8_d_uc1608.c ****     list of conditions and the following disclaimer in the documentation and/or other 
  18:/Users/imashio/Electronics/ARM/_Library/u8x8_d_uc1608.c ****     materials provided with the distribution.
  19:/Users/imashio/Electronics/ARM/_Library/u8x8_d_uc1608.c **** 
  20:/Users/imashio/Electronics/ARM/_Library/u8x8_d_uc1608.c ****   THIS SOFTWARE IS PROVIDED BY THE COPYRIGHT HOLDERS AND 
  21:/Users/imashio/Electronics/ARM/_Library/u8x8_d_uc1608.c ****   CONTRIBUTORS "AS IS" AND ANY EXPRESS OR IMPLIED WARRANTIES, 
  22:/Users/imashio/Electronics/ARM/_Library/u8x8_d_uc1608.c ****   INCLUDING, BUT NOT LIMITED TO, THE IMPLIED WARRANTIES OF 
  23:/Users/imashio/Electronics/ARM/_Library/u8x8_d_uc1608.c ****   MERCHANTABILITY AND FITNESS FOR A PARTICULAR PURPOSE ARE 
  24:/Users/imashio/Electronics/ARM/_Library/u8x8_d_uc1608.c ****   DISCLAIMED. IN NO EVENT SHALL THE COPYRIGHT HOLDER OR 
  25:/Users/imashio/Electronics/ARM/_Library/u8x8_d_uc1608.c ****   CONTRIBUTORS BE LIABLE FOR ANY DIRECT, INDIRECT, INCIDENTAL, 
  26:/Users/imashio/Electronics/ARM/_Library/u8x8_d_uc1608.c ****   SPECIAL, EXEMPLARY, OR CONSEQUENTIAL DAMAGES (INCLUDING, BUT 
  27:/Users/imashio/Electronics/ARM/_Library/u8x8_d_uc1608.c ****   NOT LIMITED TO, PROCUREMENT OF SUBSTITUTE GOODS OR SERVICES; 
  28:/Users/imashio/Electronics/ARM/_Library/u8x8_d_uc1608.c ****   LOSS OF USE, DATA, OR PROFITS; OR BUSINESS INTERRUPTION) HOWEVER 
  29:/Users/imashio/Electronics/ARM/_Library/u8x8_d_uc1608.c ****   CAUSED AND ON ANY THEORY OF LIABILITY, WHETHER IN CONTRACT, 
  30:/Users/imashio/Electronics/ARM/_Library/u8x8_d_uc1608.c ****   STRICT LIABILITY, OR TORT (INCLUDING NEGLIGENCE OR OTHERWISE) 
ARM GAS  /var/folders/v3/wysfpd052nz8jkbx04pk0ym80000gn/T//ccHIHrLs.s 			page 2


  31:/Users/imashio/Electronics/ARM/_Library/u8x8_d_uc1608.c ****   ARISING IN ANY WAY OUT OF THE USE OF THIS SOFTWARE, EVEN IF 
  32:/Users/imashio/Electronics/ARM/_Library/u8x8_d_uc1608.c ****   ADVISED OF THE POSSIBILITY OF SUCH DAMAGE.  
  33:/Users/imashio/Electronics/ARM/_Library/u8x8_d_uc1608.c **** 
  34:/Users/imashio/Electronics/ARM/_Library/u8x8_d_uc1608.c **** 
  35:/Users/imashio/Electronics/ARM/_Library/u8x8_d_uc1608.c ****   
  36:/Users/imashio/Electronics/ARM/_Library/u8x8_d_uc1608.c **** */
  37:/Users/imashio/Electronics/ARM/_Library/u8x8_d_uc1608.c **** #include "u8x8.h"
  38:/Users/imashio/Electronics/ARM/_Library/u8x8_d_uc1608.c **** 
  39:/Users/imashio/Electronics/ARM/_Library/u8x8_d_uc1608.c **** 
  40:/Users/imashio/Electronics/ARM/_Library/u8x8_d_uc1608.c **** 
  41:/Users/imashio/Electronics/ARM/_Library/u8x8_d_uc1608.c **** 
  42:/Users/imashio/Electronics/ARM/_Library/u8x8_d_uc1608.c **** 
  43:/Users/imashio/Electronics/ARM/_Library/u8x8_d_uc1608.c **** static const uint8_t u8x8_d_uc1608_powersave0_seq[] = {
  44:/Users/imashio/Electronics/ARM/_Library/u8x8_d_uc1608.c ****   U8X8_START_TRANSFER(),             	/* enable chip, delay is part of the transfer start */
  45:/Users/imashio/Electronics/ARM/_Library/u8x8_d_uc1608.c ****   U8X8_C(0x0af),		                /* display on */
  46:/Users/imashio/Electronics/ARM/_Library/u8x8_d_uc1608.c ****   U8X8_END_TRANSFER(),             	/* disable chip */
  47:/Users/imashio/Electronics/ARM/_Library/u8x8_d_uc1608.c ****   U8X8_END()             			/* end of sequence */
  48:/Users/imashio/Electronics/ARM/_Library/u8x8_d_uc1608.c **** };
  49:/Users/imashio/Electronics/ARM/_Library/u8x8_d_uc1608.c **** 
  50:/Users/imashio/Electronics/ARM/_Library/u8x8_d_uc1608.c **** static const uint8_t u8x8_d_uc1608_powersave1_seq[] = {
  51:/Users/imashio/Electronics/ARM/_Library/u8x8_d_uc1608.c ****   U8X8_START_TRANSFER(),             	/* enable chip, delay is part of the transfer start */
  52:/Users/imashio/Electronics/ARM/_Library/u8x8_d_uc1608.c ****   U8X8_C(0x0ae),		                /* display off, enter sleep mode */
  53:/Users/imashio/Electronics/ARM/_Library/u8x8_d_uc1608.c ****   U8X8_END_TRANSFER(),             	/* disable chip */
  54:/Users/imashio/Electronics/ARM/_Library/u8x8_d_uc1608.c ****   U8X8_END()             			/* end of sequence */
  55:/Users/imashio/Electronics/ARM/_Library/u8x8_d_uc1608.c **** };
  56:/Users/imashio/Electronics/ARM/_Library/u8x8_d_uc1608.c **** 
  57:/Users/imashio/Electronics/ARM/_Library/u8x8_d_uc1608.c **** static const uint8_t u8x8_d_uc1608_flip0_seq[] = {
  58:/Users/imashio/Electronics/ARM/_Library/u8x8_d_uc1608.c ****   U8X8_START_TRANSFER(),             	/* enable chip, delay is part of the transfer start */
  59:/Users/imashio/Electronics/ARM/_Library/u8x8_d_uc1608.c ****   U8X8_C(0x0c8),            			/* LCD Mapping */
  60:/Users/imashio/Electronics/ARM/_Library/u8x8_d_uc1608.c ****   U8X8_END_TRANSFER(),             	/* disable chip */
  61:/Users/imashio/Electronics/ARM/_Library/u8x8_d_uc1608.c ****   U8X8_END()             			/* end of sequence */
  62:/Users/imashio/Electronics/ARM/_Library/u8x8_d_uc1608.c **** };
  63:/Users/imashio/Electronics/ARM/_Library/u8x8_d_uc1608.c **** 
  64:/Users/imashio/Electronics/ARM/_Library/u8x8_d_uc1608.c **** static const uint8_t u8x8_d_uc1608_flip1_seq[] = {
  65:/Users/imashio/Electronics/ARM/_Library/u8x8_d_uc1608.c ****   U8X8_START_TRANSFER(),             	/* enable chip, delay is part of the transfer start */
  66:/Users/imashio/Electronics/ARM/_Library/u8x8_d_uc1608.c ****   U8X8_C(0x0c4),            			/* LCD Mapping */
  67:/Users/imashio/Electronics/ARM/_Library/u8x8_d_uc1608.c ****   U8X8_END_TRANSFER(),             	/* disable chip */
  68:/Users/imashio/Electronics/ARM/_Library/u8x8_d_uc1608.c ****   U8X8_END()             			/* end of sequence */
  69:/Users/imashio/Electronics/ARM/_Library/u8x8_d_uc1608.c **** };
  70:/Users/imashio/Electronics/ARM/_Library/u8x8_d_uc1608.c **** 
  71:/Users/imashio/Electronics/ARM/_Library/u8x8_d_uc1608.c **** 
  72:/Users/imashio/Electronics/ARM/_Library/u8x8_d_uc1608.c **** uint8_t u8x8_d_uc1608_common(u8x8_t *u8x8, uint8_t msg, uint8_t arg_int, void *arg_ptr)
  73:/Users/imashio/Electronics/ARM/_Library/u8x8_d_uc1608.c **** {
  29              		.loc 1 73 0
  30              		.cfi_startproc
  31              		@ args = 0, pretend = 0, frame = 0
  32              		@ frame_needed = 0, uses_anonymous_args = 0
  33              	.LVL0:
  74:/Users/imashio/Electronics/ARM/_Library/u8x8_d_uc1608.c ****   uint8_t x, y, c;
  75:/Users/imashio/Electronics/ARM/_Library/u8x8_d_uc1608.c ****   uint8_t *ptr;
  76:/Users/imashio/Electronics/ARM/_Library/u8x8_d_uc1608.c ****   switch(msg)
  34              		.loc 1 76 0
  35 0000 0B39     		subs	r1, r1, #11
  36              	.LVL1:
  73:/Users/imashio/Electronics/ARM/_Library/u8x8_d_uc1608.c ****   uint8_t x, y, c;
  37              		.loc 1 73 0
  38 0002 F8B5     		push	{r3, r4, r5, r6, r7, lr}
ARM GAS  /var/folders/v3/wysfpd052nz8jkbx04pk0ym80000gn/T//ccHIHrLs.s 			page 3


  39              	.LCFI0:
  40              		.cfi_def_cfa_offset 24
  41              		.cfi_offset 3, -24
  42              		.cfi_offset 4, -20
  43              		.cfi_offset 5, -16
  44              		.cfi_offset 6, -12
  45              		.cfi_offset 7, -8
  46              		.cfi_offset 14, -4
  73:/Users/imashio/Electronics/ARM/_Library/u8x8_d_uc1608.c ****   uint8_t x, y, c;
  47              		.loc 1 73 0
  48 0004 0546     		mov	r5, r0
  49 0006 1446     		mov	r4, r2
  50 0008 1F46     		mov	r7, r3
  51              		.loc 1 76 0
  52 000a 0429     		cmp	r1, #4
  53 000c 4ED8     		bhi	.L11
  54 000e DFE801F0 		tbb	[pc, r1]
  55              	.LVL2:
  56              	.L4:
  57 0012 3E       		.byte	(.L3-.L4)/2
  58 0013 4D       		.byte	(.L11-.L4)/2
  59 0014 44       		.byte	(.L5-.L4)/2
  60 0015 2F       		.byte	(.L6-.L4)/2
  61 0016 03       		.byte	(.L7-.L4)/2
  62 0017 00       		.p2align 1
  63              	.L7:
  77:/Users/imashio/Electronics/ARM/_Library/u8x8_d_uc1608.c ****   {
  78:/Users/imashio/Electronics/ARM/_Library/u8x8_d_uc1608.c ****     case U8X8_MSG_DISPLAY_DRAW_TILE:
  79:/Users/imashio/Electronics/ARM/_Library/u8x8_d_uc1608.c ****       u8x8_cad_StartTransfer(u8x8);
  64              		.loc 1 79 0
  65 0018 FFF7FEFF 		bl	u8x8_cad_StartTransfer
  66              	.LVL3:
  80:/Users/imashio/Electronics/ARM/_Library/u8x8_d_uc1608.c ****     
  81:/Users/imashio/Electronics/ARM/_Library/u8x8_d_uc1608.c ****       x = ((u8x8_tile_t *)arg_ptr)->x_pos;
  67              		.loc 1 81 0
  68 001c 7E79     		ldrb	r6, [r7, #5]	@ zero_extendqisi2
  69              	.LVL4:
  82:/Users/imashio/Electronics/ARM/_Library/u8x8_d_uc1608.c ****       x *= 8;
  70              		.loc 1 82 0
  71 001e F600     		lsls	r6, r6, #3
  72              	.LVL5:
  73 0020 F6B2     		uxtb	r6, r6
  74              	.LVL6:
  83:/Users/imashio/Electronics/ARM/_Library/u8x8_d_uc1608.c ****    
  84:/Users/imashio/Electronics/ARM/_Library/u8x8_d_uc1608.c ****       u8x8_cad_SendCmd(u8x8, 0x000 | ((x&15)));
  75              		.loc 1 84 0
  76 0022 06F00801 		and	r1, r6, #8
  77 0026 2846     		mov	r0, r5
  78 0028 FFF7FEFF 		bl	u8x8_cad_SendCmd
  79              	.LVL7:
  85:/Users/imashio/Electronics/ARM/_Library/u8x8_d_uc1608.c ****       u8x8_cad_SendCmd(u8x8, 0x010 | (x>>4) );
  80              		.loc 1 85 0
  81 002c 3109     		lsrs	r1, r6, #4
  82 002e 41F01001 		orr	r1, r1, #16
  83 0032 2846     		mov	r0, r5
  84 0034 FFF7FEFF 		bl	u8x8_cad_SendCmd
  85              	.LVL8:
ARM GAS  /var/folders/v3/wysfpd052nz8jkbx04pk0ym80000gn/T//ccHIHrLs.s 			page 4


  86:/Users/imashio/Electronics/ARM/_Library/u8x8_d_uc1608.c ****     
  87:/Users/imashio/Electronics/ARM/_Library/u8x8_d_uc1608.c ****       y = ((u8x8_tile_t *)arg_ptr)->y_pos;
  86              		.loc 1 87 0
  87 0038 B979     		ldrb	r1, [r7, #6]	@ zero_extendqisi2
  88              	.LVL9:
  88:/Users/imashio/Electronics/ARM/_Library/u8x8_d_uc1608.c ****       y += u8x8->x_offset;
  89              		.loc 1 88 0
  90 003a AB7F     		ldrb	r3, [r5, #30]	@ zero_extendqisi2
  91 003c 1944     		add	r1, r1, r3
  92              	.LVL10:
  89:/Users/imashio/Electronics/ARM/_Library/u8x8_d_uc1608.c ****       u8x8_cad_SendCmd(u8x8, 0x0b0 | (y&15));
  93              		.loc 1 89 0
  94 003e 01F00F01 		and	r1, r1, #15
  95 0042 41F0B001 		orr	r1, r1, #176
  96 0046 2846     		mov	r0, r5
  97 0048 FFF7FEFF 		bl	u8x8_cad_SendCmd
  98              	.LVL11:
  90:/Users/imashio/Electronics/ARM/_Library/u8x8_d_uc1608.c ****     
  91:/Users/imashio/Electronics/ARM/_Library/u8x8_d_uc1608.c ****       c = ((u8x8_tile_t *)arg_ptr)->cnt;
  99              		.loc 1 91 0
 100 004c 3E79     		ldrb	r6, [r7, #4]	@ zero_extendqisi2
 101              	.LVL12:
  92:/Users/imashio/Electronics/ARM/_Library/u8x8_d_uc1608.c ****       c *= 8;
  93:/Users/imashio/Electronics/ARM/_Library/u8x8_d_uc1608.c ****       ptr = ((u8x8_tile_t *)arg_ptr)->tile_ptr;
 102              		.loc 1 93 0
 103 004e 3F68     		ldr	r7, [r7]
 104              	.LVL13:
  92:/Users/imashio/Electronics/ARM/_Library/u8x8_d_uc1608.c ****       c *= 8;
 105              		.loc 1 92 0
 106 0050 F600     		lsls	r6, r6, #3
 107              	.LVL14:
 108 0052 F6B2     		uxtb	r6, r6
 109              	.LVL15:
 110              	.L8:
  94:/Users/imashio/Electronics/ARM/_Library/u8x8_d_uc1608.c ****       do
  95:/Users/imashio/Electronics/ARM/_Library/u8x8_d_uc1608.c ****       {
  96:/Users/imashio/Electronics/ARM/_Library/u8x8_d_uc1608.c **** 	u8x8_cad_SendData(u8x8, c, ptr);	/* note: SendData can not handle more than 255 bytes */
 111              		.loc 1 96 0 discriminator 1
 112 0054 3A46     		mov	r2, r7
 113 0056 3146     		mov	r1, r6
 114 0058 2846     		mov	r0, r5
  97:/Users/imashio/Electronics/ARM/_Library/u8x8_d_uc1608.c **** 	arg_int--;
 115              		.loc 1 97 0 discriminator 1
 116 005a 013C     		subs	r4, r4, #1
 117              	.LVL16:
  96:/Users/imashio/Electronics/ARM/_Library/u8x8_d_uc1608.c **** 	arg_int--;
 118              		.loc 1 96 0 discriminator 1
 119 005c FFF7FEFF 		bl	u8x8_cad_SendData
 120              	.LVL17:
  98:/Users/imashio/Electronics/ARM/_Library/u8x8_d_uc1608.c ****       } while( arg_int > 0 );
 121              		.loc 1 98 0 discriminator 1
 122 0060 14F0FF04 		ands	r4, r4, #255
 123              	.LVL18:
 124 0064 F6D1     		bne	.L8
  99:/Users/imashio/Electronics/ARM/_Library/u8x8_d_uc1608.c ****       
 100:/Users/imashio/Electronics/ARM/_Library/u8x8_d_uc1608.c ****       u8x8_cad_EndTransfer(u8x8);
 101:/Users/imashio/Electronics/ARM/_Library/u8x8_d_uc1608.c ****       break;
ARM GAS  /var/folders/v3/wysfpd052nz8jkbx04pk0ym80000gn/T//ccHIHrLs.s 			page 5


 102:/Users/imashio/Electronics/ARM/_Library/u8x8_d_uc1608.c ****     /*	handled in the calling procedure 
 103:/Users/imashio/Electronics/ARM/_Library/u8x8_d_uc1608.c ****     case U8X8_MSG_DISPLAY_SETUP_MEMORY:
 104:/Users/imashio/Electronics/ARM/_Library/u8x8_d_uc1608.c ****       u8x8_d_helper_display_setup_memory(u8x8, &u8x8_uc1608_128x64_display_info);
 105:/Users/imashio/Electronics/ARM/_Library/u8x8_d_uc1608.c ****       break;
 106:/Users/imashio/Electronics/ARM/_Library/u8x8_d_uc1608.c ****     case U8X8_MSG_DISPLAY_INIT:
 107:/Users/imashio/Electronics/ARM/_Library/u8x8_d_uc1608.c ****       u8x8_d_helper_display_init(u8x8);
 108:/Users/imashio/Electronics/ARM/_Library/u8x8_d_uc1608.c ****       u8x8_cad_SendSequence(u8x8, u8x8_d_uc1701_dogs102_init_seq);
 109:/Users/imashio/Electronics/ARM/_Library/u8x8_d_uc1608.c ****       break;
 110:/Users/imashio/Electronics/ARM/_Library/u8x8_d_uc1608.c ****     */
 111:/Users/imashio/Electronics/ARM/_Library/u8x8_d_uc1608.c ****     case U8X8_MSG_DISPLAY_SET_POWER_SAVE:
 112:/Users/imashio/Electronics/ARM/_Library/u8x8_d_uc1608.c ****       if ( arg_int == 0 )
 113:/Users/imashio/Electronics/ARM/_Library/u8x8_d_uc1608.c **** 	u8x8_cad_SendSequence(u8x8, u8x8_d_uc1608_powersave0_seq);
 114:/Users/imashio/Electronics/ARM/_Library/u8x8_d_uc1608.c ****       else
 115:/Users/imashio/Electronics/ARM/_Library/u8x8_d_uc1608.c **** 	u8x8_cad_SendSequence(u8x8, u8x8_d_uc1608_powersave1_seq);
 116:/Users/imashio/Electronics/ARM/_Library/u8x8_d_uc1608.c ****       break;
 117:/Users/imashio/Electronics/ARM/_Library/u8x8_d_uc1608.c ****     case U8X8_MSG_DISPLAY_SET_FLIP_MODE:
 118:/Users/imashio/Electronics/ARM/_Library/u8x8_d_uc1608.c ****       if ( arg_int == 0 )
 119:/Users/imashio/Electronics/ARM/_Library/u8x8_d_uc1608.c ****       {
 120:/Users/imashio/Electronics/ARM/_Library/u8x8_d_uc1608.c **** 	u8x8_cad_SendSequence(u8x8, u8x8_d_uc1608_flip0_seq);
 121:/Users/imashio/Electronics/ARM/_Library/u8x8_d_uc1608.c **** 	u8x8->x_offset = u8x8->display_info->default_x_offset;
 122:/Users/imashio/Electronics/ARM/_Library/u8x8_d_uc1608.c ****       }
 123:/Users/imashio/Electronics/ARM/_Library/u8x8_d_uc1608.c ****       else
 124:/Users/imashio/Electronics/ARM/_Library/u8x8_d_uc1608.c ****       {
 125:/Users/imashio/Electronics/ARM/_Library/u8x8_d_uc1608.c **** 	u8x8_cad_SendSequence(u8x8, u8x8_d_uc1608_flip1_seq);
 126:/Users/imashio/Electronics/ARM/_Library/u8x8_d_uc1608.c **** 	u8x8->x_offset = u8x8->display_info->flipmode_x_offset;
 127:/Users/imashio/Electronics/ARM/_Library/u8x8_d_uc1608.c ****       }	
 128:/Users/imashio/Electronics/ARM/_Library/u8x8_d_uc1608.c ****       break;
 129:/Users/imashio/Electronics/ARM/_Library/u8x8_d_uc1608.c **** #ifdef U8X8_WITH_SET_CONTRAST
 130:/Users/imashio/Electronics/ARM/_Library/u8x8_d_uc1608.c ****     case U8X8_MSG_DISPLAY_SET_CONTRAST:
 131:/Users/imashio/Electronics/ARM/_Library/u8x8_d_uc1608.c ****       u8x8_cad_StartTransfer(u8x8);
 132:/Users/imashio/Electronics/ARM/_Library/u8x8_d_uc1608.c ****       u8x8_cad_SendCmd(u8x8, 0x081 );
 133:/Users/imashio/Electronics/ARM/_Library/u8x8_d_uc1608.c ****       u8x8_cad_SendArg(u8x8, arg_int  );	/* uc1608 has range from 0 to 255 */
 134:/Users/imashio/Electronics/ARM/_Library/u8x8_d_uc1608.c ****       u8x8_cad_EndTransfer(u8x8);
 125              		.loc 1 134 0
 126 0066 2846     		mov	r0, r5
 127 0068 FFF7FEFF 		bl	u8x8_cad_EndTransfer
 128              	.LVL19:
 135:/Users/imashio/Electronics/ARM/_Library/u8x8_d_uc1608.c ****       break;
 136:/Users/imashio/Electronics/ARM/_Library/u8x8_d_uc1608.c **** #endif
 137:/Users/imashio/Electronics/ARM/_Library/u8x8_d_uc1608.c ****     default:
 138:/Users/imashio/Electronics/ARM/_Library/u8x8_d_uc1608.c ****       return 0;
 139:/Users/imashio/Electronics/ARM/_Library/u8x8_d_uc1608.c ****   }
 140:/Users/imashio/Electronics/ARM/_Library/u8x8_d_uc1608.c ****   return 1;
 129              		.loc 1 140 0
 130 006c 0120     		movs	r0, #1
 141:/Users/imashio/Electronics/ARM/_Library/u8x8_d_uc1608.c **** }
 131              		.loc 1 141 0
 132 006e F8BD     		pop	{r3, r4, r5, r6, r7, pc}
 133              	.LVL20:
 134              	.L6:
 131:/Users/imashio/Electronics/ARM/_Library/u8x8_d_uc1608.c ****       u8x8_cad_SendCmd(u8x8, 0x081 );
 135              		.loc 1 131 0
 136 0070 FFF7FEFF 		bl	u8x8_cad_StartTransfer
 137              	.LVL21:
 132:/Users/imashio/Electronics/ARM/_Library/u8x8_d_uc1608.c ****       u8x8_cad_SendArg(u8x8, arg_int  );	/* uc1608 has range from 0 to 255 */
 138              		.loc 1 132 0
 139 0074 8121     		movs	r1, #129
ARM GAS  /var/folders/v3/wysfpd052nz8jkbx04pk0ym80000gn/T//ccHIHrLs.s 			page 6


 140 0076 2846     		mov	r0, r5
 141 0078 FFF7FEFF 		bl	u8x8_cad_SendCmd
 142              	.LVL22:
 133:/Users/imashio/Electronics/ARM/_Library/u8x8_d_uc1608.c ****       u8x8_cad_EndTransfer(u8x8);
 143              		.loc 1 133 0
 144 007c 2146     		mov	r1, r4
 145 007e 2846     		mov	r0, r5
 146 0080 FFF7FEFF 		bl	u8x8_cad_SendArg
 147              	.LVL23:
 134:/Users/imashio/Electronics/ARM/_Library/u8x8_d_uc1608.c ****       break;
 148              		.loc 1 134 0
 149 0084 2846     		mov	r0, r5
 150 0086 FFF7FEFF 		bl	u8x8_cad_EndTransfer
 151              	.LVL24:
 140:/Users/imashio/Electronics/ARM/_Library/u8x8_d_uc1608.c **** }
 152              		.loc 1 140 0
 153 008a 0120     		movs	r0, #1
 154              		.loc 1 141 0
 155 008c F8BD     		pop	{r3, r4, r5, r6, r7, pc}
 156              	.LVL25:
 157              	.L3:
 112:/Users/imashio/Electronics/ARM/_Library/u8x8_d_uc1608.c **** 	u8x8_cad_SendSequence(u8x8, u8x8_d_uc1608_powersave0_seq);
 158              		.loc 1 112 0
 159 008e BAB9     		cbnz	r2, .L9
 113:/Users/imashio/Electronics/ARM/_Library/u8x8_d_uc1608.c ****       else
 160              		.loc 1 113 0
 161 0090 0E49     		ldr	r1, .L16
 162 0092 FFF7FEFF 		bl	u8x8_cad_SendSequence
 163              	.LVL26:
 140:/Users/imashio/Electronics/ARM/_Library/u8x8_d_uc1608.c **** }
 164              		.loc 1 140 0
 165 0096 0120     		movs	r0, #1
 166              		.loc 1 141 0
 167 0098 F8BD     		pop	{r3, r4, r5, r6, r7, pc}
 168              	.LVL27:
 169              	.L5:
 118:/Users/imashio/Electronics/ARM/_Library/u8x8_d_uc1608.c ****       {
 170              		.loc 1 118 0
 171 009a 4AB9     		cbnz	r2, .L10
 120:/Users/imashio/Electronics/ARM/_Library/u8x8_d_uc1608.c **** 	u8x8->x_offset = u8x8->display_info->default_x_offset;
 172              		.loc 1 120 0
 173 009c 0C49     		ldr	r1, .L16+4
 174 009e FFF7FEFF 		bl	u8x8_cad_SendSequence
 175              	.LVL28:
 121:/Users/imashio/Electronics/ARM/_Library/u8x8_d_uc1608.c ****       }
 176              		.loc 1 121 0
 177 00a2 2B68     		ldr	r3, [r5]
 178 00a4 9B7C     		ldrb	r3, [r3, #18]	@ zero_extendqisi2
 179 00a6 AB77     		strb	r3, [r5, #30]
 140:/Users/imashio/Electronics/ARM/_Library/u8x8_d_uc1608.c **** }
 180              		.loc 1 140 0
 181 00a8 0120     		movs	r0, #1
 182              		.loc 1 141 0
 183 00aa F8BD     		pop	{r3, r4, r5, r6, r7, pc}
 184              	.LVL29:
 185              	.L11:
 138:/Users/imashio/Electronics/ARM/_Library/u8x8_d_uc1608.c ****   }
ARM GAS  /var/folders/v3/wysfpd052nz8jkbx04pk0ym80000gn/T//ccHIHrLs.s 			page 7


 186              		.loc 1 138 0
 187 00ac 0020     		movs	r0, #0
 188              	.LVL30:
 189              		.loc 1 141 0
 190 00ae F8BD     		pop	{r3, r4, r5, r6, r7, pc}
 191              	.LVL31:
 192              	.L10:
 125:/Users/imashio/Electronics/ARM/_Library/u8x8_d_uc1608.c **** 	u8x8->x_offset = u8x8->display_info->flipmode_x_offset;
 193              		.loc 1 125 0
 194 00b0 0849     		ldr	r1, .L16+8
 195 00b2 FFF7FEFF 		bl	u8x8_cad_SendSequence
 196              	.LVL32:
 126:/Users/imashio/Electronics/ARM/_Library/u8x8_d_uc1608.c ****       }	
 197              		.loc 1 126 0
 198 00b6 2B68     		ldr	r3, [r5]
 199 00b8 DB7C     		ldrb	r3, [r3, #19]	@ zero_extendqisi2
 200 00ba AB77     		strb	r3, [r5, #30]
 140:/Users/imashio/Electronics/ARM/_Library/u8x8_d_uc1608.c **** }
 201              		.loc 1 140 0
 202 00bc 0120     		movs	r0, #1
 203              		.loc 1 141 0
 204 00be F8BD     		pop	{r3, r4, r5, r6, r7, pc}
 205              	.LVL33:
 206              	.L9:
 115:/Users/imashio/Electronics/ARM/_Library/u8x8_d_uc1608.c ****       break;
 207              		.loc 1 115 0
 208 00c0 0549     		ldr	r1, .L16+12
 209 00c2 FFF7FEFF 		bl	u8x8_cad_SendSequence
 210              	.LVL34:
 140:/Users/imashio/Electronics/ARM/_Library/u8x8_d_uc1608.c **** }
 211              		.loc 1 140 0
 212 00c6 0120     		movs	r0, #1
 213              		.loc 1 141 0
 214 00c8 F8BD     		pop	{r3, r4, r5, r6, r7, pc}
 215              	.LVL35:
 216              	.L17:
 217 00ca 00BF     		.align	2
 218              	.L16:
 219 00cc 00000000 		.word	.LANCHOR0
 220 00d0 00000000 		.word	.LANCHOR2
 221 00d4 00000000 		.word	.LANCHOR3
 222 00d8 00000000 		.word	.LANCHOR1
 223              		.cfi_endproc
 224              	.LFE0:
 226              		.section	.text.u8x8_d_uc1608_erc24064,"ax",%progbits
 227              		.align	1
 228              		.p2align 2,,3
 229              		.global	u8x8_d_uc1608_erc24064
 230              		.syntax unified
 231              		.thumb
 232              		.thumb_func
 233              		.fpu fpv4-sp-d16
 235              	u8x8_d_uc1608_erc24064:
 236              	.LFB1:
 142:/Users/imashio/Electronics/ARM/_Library/u8x8_d_uc1608.c **** 
 143:/Users/imashio/Electronics/ARM/_Library/u8x8_d_uc1608.c **** /*================================================*/
 144:/Users/imashio/Electronics/ARM/_Library/u8x8_d_uc1608.c **** /* ERC24064-1 */
ARM GAS  /var/folders/v3/wysfpd052nz8jkbx04pk0ym80000gn/T//ccHIHrLs.s 			page 8


 145:/Users/imashio/Electronics/ARM/_Library/u8x8_d_uc1608.c **** 
 146:/Users/imashio/Electronics/ARM/_Library/u8x8_d_uc1608.c **** /*
 147:/Users/imashio/Electronics/ARM/_Library/u8x8_d_uc1608.c ****   The UC1608 has only one high active chip select input.
 148:/Users/imashio/Electronics/ARM/_Library/u8x8_d_uc1608.c ****   UC1604, UC1610 and UC1611 have two chip select inputs.
 149:/Users/imashio/Electronics/ARM/_Library/u8x8_d_uc1608.c **** */
 150:/Users/imashio/Electronics/ARM/_Library/u8x8_d_uc1608.c **** 
 151:/Users/imashio/Electronics/ARM/_Library/u8x8_d_uc1608.c **** static const u8x8_display_info_t u8x8_uc1608_240x64_display_info =
 152:/Users/imashio/Electronics/ARM/_Library/u8x8_d_uc1608.c **** {
 153:/Users/imashio/Electronics/ARM/_Library/u8x8_d_uc1608.c ****   /* chip_enable_level = */ 1,	/* uc1608 has high active CS */
 154:/Users/imashio/Electronics/ARM/_Library/u8x8_d_uc1608.c ****   /* chip_disable_level = */ 0,
 155:/Users/imashio/Electronics/ARM/_Library/u8x8_d_uc1608.c ****   
 156:/Users/imashio/Electronics/ARM/_Library/u8x8_d_uc1608.c ****   /* post_chip_enable_wait_ns = */ 10,	/* uc1608 datasheet, page 39, actually 0 */
 157:/Users/imashio/Electronics/ARM/_Library/u8x8_d_uc1608.c ****   /* pre_chip_disable_wait_ns = */ 20,	/* uc1608 datasheet, page 39 */
 158:/Users/imashio/Electronics/ARM/_Library/u8x8_d_uc1608.c ****   /* reset_pulse_width_ms = */ 1, 	/* uc1608 datasheet, page 42 */
 159:/Users/imashio/Electronics/ARM/_Library/u8x8_d_uc1608.c ****   /* post_reset_wait_ms = */ 10, 	
 160:/Users/imashio/Electronics/ARM/_Library/u8x8_d_uc1608.c ****   /* sda_setup_time_ns = */ 30,		/* uc1608 datasheet, page 41 */
 161:/Users/imashio/Electronics/ARM/_Library/u8x8_d_uc1608.c ****   /* sck_pulse_width_ns = */ 65,	/* half of cycle time  */
 162:/Users/imashio/Electronics/ARM/_Library/u8x8_d_uc1608.c ****   /* sck_clock_hz = */ 8000000UL,	/* since Arduino 1.6.0, the SPI bus speed in Hz. Should be  10000
 163:/Users/imashio/Electronics/ARM/_Library/u8x8_d_uc1608.c ****   /* spi_mode = */ 0,		/* active high, rising edge */
 164:/Users/imashio/Electronics/ARM/_Library/u8x8_d_uc1608.c ****   /* i2c_bus_clock_100kHz = */ 4,
 165:/Users/imashio/Electronics/ARM/_Library/u8x8_d_uc1608.c ****   /* data_setup_time_ns = */ 30,	/* uc1608 datasheet, page 39 */
 166:/Users/imashio/Electronics/ARM/_Library/u8x8_d_uc1608.c ****   /* write_pulse_width_ns = */ 35,	/* uc1608 datasheet, page 39 */
 167:/Users/imashio/Electronics/ARM/_Library/u8x8_d_uc1608.c ****   /* tile_width = */ 30,		/* width of 30*8=240 pixel */
 168:/Users/imashio/Electronics/ARM/_Library/u8x8_d_uc1608.c ****   /* tile_hight = */ 8,
 169:/Users/imashio/Electronics/ARM/_Library/u8x8_d_uc1608.c ****   /* default_x_offset = */ 0,	/* reused as y page offset */
 170:/Users/imashio/Electronics/ARM/_Library/u8x8_d_uc1608.c ****   /* flipmode_x_offset = */ 4,	/* reused as y page offset */
 171:/Users/imashio/Electronics/ARM/_Library/u8x8_d_uc1608.c ****   /* pixel_width = */ 240,
 172:/Users/imashio/Electronics/ARM/_Library/u8x8_d_uc1608.c ****   /* pixel_height = */ 64
 173:/Users/imashio/Electronics/ARM/_Library/u8x8_d_uc1608.c **** };
 174:/Users/imashio/Electronics/ARM/_Library/u8x8_d_uc1608.c **** 
 175:/Users/imashio/Electronics/ARM/_Library/u8x8_d_uc1608.c **** static const uint8_t u8x8_d_uc1608_erc24064_init_seq[] = {
 176:/Users/imashio/Electronics/ARM/_Library/u8x8_d_uc1608.c ****     
 177:/Users/imashio/Electronics/ARM/_Library/u8x8_d_uc1608.c ****   U8X8_START_TRANSFER(),             	/* enable chip, delay is part of the transfer start */
 178:/Users/imashio/Electronics/ARM/_Library/u8x8_d_uc1608.c **** 
 179:/Users/imashio/Electronics/ARM/_Library/u8x8_d_uc1608.c ****   U8X8_C(0x0e2),            			/* soft reset */
 180:/Users/imashio/Electronics/ARM/_Library/u8x8_d_uc1608.c ****   U8X8_DLY(200),
 181:/Users/imashio/Electronics/ARM/_Library/u8x8_d_uc1608.c **** 
 182:/Users/imashio/Electronics/ARM/_Library/u8x8_d_uc1608.c ****   U8X8_C(0x023),            			/* Bit 0/1: Temp compenstation, Bit 2: Multiplex Rate 0=96, 1=128 */
 183:/Users/imashio/Electronics/ARM/_Library/u8x8_d_uc1608.c ****   //U8X8_C(0x027),            			/* Bit 0/1: Temp compenstation, Bit 2: Multiplex Rate 0=96, 1=128 
 184:/Users/imashio/Electronics/ARM/_Library/u8x8_d_uc1608.c **** 
 185:/Users/imashio/Electronics/ARM/_Library/u8x8_d_uc1608.c ****   U8X8_C(0x0c8),            			/* Map control, Bit 3: MY=1, Bit 2: MX=0, Bit 0: MSF =0 */
 186:/Users/imashio/Electronics/ARM/_Library/u8x8_d_uc1608.c ****   U8X8_C(0x0e8),            			/* LCD bias Bits 0/1: 00=10.7 01=10.3, 10=12.0, 11=12.7 */
 187:/Users/imashio/Electronics/ARM/_Library/u8x8_d_uc1608.c ****   
 188:/Users/imashio/Electronics/ARM/_Library/u8x8_d_uc1608.c ****   U8X8_C(0x02f),            			/* power on, Bit 2 PC2=1 (internal charge pump), Bits 0/1: cap of pa
 189:/Users/imashio/Electronics/ARM/_Library/u8x8_d_uc1608.c ****   U8X8_DLY(50),
 190:/Users/imashio/Electronics/ARM/_Library/u8x8_d_uc1608.c ****   
 191:/Users/imashio/Electronics/ARM/_Library/u8x8_d_uc1608.c ****   U8X8_C(0x040),            			/* set display start line to 0 */
 192:/Users/imashio/Electronics/ARM/_Library/u8x8_d_uc1608.c ****   U8X8_C(0x090),            			/* no fixed lines */
 193:/Users/imashio/Electronics/ARM/_Library/u8x8_d_uc1608.c ****   U8X8_C(0x089),            			/* RAM access control */
 194:/Users/imashio/Electronics/ARM/_Library/u8x8_d_uc1608.c ****   
 195:/Users/imashio/Electronics/ARM/_Library/u8x8_d_uc1608.c ****   U8X8_CA(0x081, 0x014),		/* set contrast, ERC24064-1 default: 0x040 */
 196:/Users/imashio/Electronics/ARM/_Library/u8x8_d_uc1608.c ****   
 197:/Users/imashio/Electronics/ARM/_Library/u8x8_d_uc1608.c ****   U8X8_C(0x000),		                /* column low nibble */
 198:/Users/imashio/Electronics/ARM/_Library/u8x8_d_uc1608.c ****   U8X8_C(0x010),		                /* column high nibble */  
 199:/Users/imashio/Electronics/ARM/_Library/u8x8_d_uc1608.c ****   U8X8_C(0x0b0),		                /* page adr  */
 200:/Users/imashio/Electronics/ARM/_Library/u8x8_d_uc1608.c ****   
 201:/Users/imashio/Electronics/ARM/_Library/u8x8_d_uc1608.c ****   
ARM GAS  /var/folders/v3/wysfpd052nz8jkbx04pk0ym80000gn/T//ccHIHrLs.s 			page 9


 202:/Users/imashio/Electronics/ARM/_Library/u8x8_d_uc1608.c ****   U8X8_END_TRANSFER(),             	/* disable chip */
 203:/Users/imashio/Electronics/ARM/_Library/u8x8_d_uc1608.c ****   U8X8_END()             			/* end of sequence */
 204:/Users/imashio/Electronics/ARM/_Library/u8x8_d_uc1608.c **** };
 205:/Users/imashio/Electronics/ARM/_Library/u8x8_d_uc1608.c **** 
 206:/Users/imashio/Electronics/ARM/_Library/u8x8_d_uc1608.c **** uint8_t u8x8_d_uc1608_erc24064(u8x8_t *u8x8, uint8_t msg, uint8_t arg_int, void *arg_ptr)
 207:/Users/imashio/Electronics/ARM/_Library/u8x8_d_uc1608.c **** {
 237              		.loc 1 207 0
 238              		.cfi_startproc
 239              		@ args = 0, pretend = 0, frame = 0
 240              		@ frame_needed = 0, uses_anonymous_args = 0
 241              	.LVL36:
 242 0000 38B5     		push	{r3, r4, r5, lr}
 243              	.LCFI1:
 244              		.cfi_def_cfa_offset 16
 245              		.cfi_offset 3, -16
 246              		.cfi_offset 4, -12
 247              		.cfi_offset 5, -8
 248              		.cfi_offset 14, -4
 249              		.loc 1 207 0
 250 0002 0546     		mov	r5, r0
 251 0004 0C46     		mov	r4, r1
 208:/Users/imashio/Electronics/ARM/_Library/u8x8_d_uc1608.c ****   /* call common procedure first and handle messages there */
 209:/Users/imashio/Electronics/ARM/_Library/u8x8_d_uc1608.c ****   if ( u8x8_d_uc1608_common(u8x8, msg, arg_int, arg_ptr) == 0 )
 252              		.loc 1 209 0
 253 0006 FFF7FEFF 		bl	u8x8_d_uc1608_common
 254              	.LVL37:
 255 000a 60B9     		cbnz	r0, .L22
 210:/Users/imashio/Electronics/ARM/_Library/u8x8_d_uc1608.c ****   {
 211:/Users/imashio/Electronics/ARM/_Library/u8x8_d_uc1608.c ****     /* msg not handled, then try here */
 212:/Users/imashio/Electronics/ARM/_Library/u8x8_d_uc1608.c ****     switch(msg)
 256              		.loc 1 212 0
 257 000c 092C     		cmp	r4, #9
 258 000e 0CD0     		beq	.L20
 259 0010 0A2C     		cmp	r4, #10
 260 0012 07D1     		bne	.L19
 213:/Users/imashio/Electronics/ARM/_Library/u8x8_d_uc1608.c ****     {
 214:/Users/imashio/Electronics/ARM/_Library/u8x8_d_uc1608.c ****       case U8X8_MSG_DISPLAY_SETUP_MEMORY:
 215:/Users/imashio/Electronics/ARM/_Library/u8x8_d_uc1608.c **** 	u8x8_d_helper_display_setup_memory(u8x8, &u8x8_uc1608_240x64_display_info);
 216:/Users/imashio/Electronics/ARM/_Library/u8x8_d_uc1608.c **** 	break;
 217:/Users/imashio/Electronics/ARM/_Library/u8x8_d_uc1608.c ****       case U8X8_MSG_DISPLAY_INIT:
 218:/Users/imashio/Electronics/ARM/_Library/u8x8_d_uc1608.c **** 	u8x8_d_helper_display_init(u8x8);
 261              		.loc 1 218 0
 262 0014 2846     		mov	r0, r5
 263 0016 FFF7FEFF 		bl	u8x8_d_helper_display_init
 264              	.LVL38:
 219:/Users/imashio/Electronics/ARM/_Library/u8x8_d_uc1608.c **** 	u8x8_cad_SendSequence(u8x8, u8x8_d_uc1608_erc24064_init_seq);
 265              		.loc 1 219 0
 266 001a 2846     		mov	r0, r5
 267 001c 0649     		ldr	r1, .L24
 268 001e FFF7FEFF 		bl	u8x8_cad_SendSequence
 269              	.LVL39:
 220:/Users/imashio/Electronics/ARM/_Library/u8x8_d_uc1608.c **** 	break;
 221:/Users/imashio/Electronics/ARM/_Library/u8x8_d_uc1608.c ****       default:
 222:/Users/imashio/Electronics/ARM/_Library/u8x8_d_uc1608.c **** 	return 0;		/* msg unknown */
 223:/Users/imashio/Electronics/ARM/_Library/u8x8_d_uc1608.c ****     }
 224:/Users/imashio/Electronics/ARM/_Library/u8x8_d_uc1608.c ****   }
 225:/Users/imashio/Electronics/ARM/_Library/u8x8_d_uc1608.c ****   return 1;
ARM GAS  /var/folders/v3/wysfpd052nz8jkbx04pk0ym80000gn/T//ccHIHrLs.s 			page 10


 270              		.loc 1 225 0
 271 0022 0120     		movs	r0, #1
 272              	.L19:
 226:/Users/imashio/Electronics/ARM/_Library/u8x8_d_uc1608.c **** }
 273              		.loc 1 226 0
 274 0024 38BD     		pop	{r3, r4, r5, pc}
 275              	.LVL40:
 276              	.L22:
 225:/Users/imashio/Electronics/ARM/_Library/u8x8_d_uc1608.c **** }
 277              		.loc 1 225 0
 278 0026 0120     		movs	r0, #1
 279              		.loc 1 226 0
 280 0028 38BD     		pop	{r3, r4, r5, pc}
 281              	.LVL41:
 282              	.L20:
 215:/Users/imashio/Electronics/ARM/_Library/u8x8_d_uc1608.c **** 	break;
 283              		.loc 1 215 0
 284 002a 2846     		mov	r0, r5
 285 002c 0349     		ldr	r1, .L24+4
 286 002e FFF7FEFF 		bl	u8x8_d_helper_display_setup_memory
 287              	.LVL42:
 225:/Users/imashio/Electronics/ARM/_Library/u8x8_d_uc1608.c **** }
 288              		.loc 1 225 0
 289 0032 0120     		movs	r0, #1
 290              		.loc 1 226 0
 291 0034 38BD     		pop	{r3, r4, r5, pc}
 292              	.LVL43:
 293              	.L25:
 294 0036 00BF     		.align	2
 295              	.L24:
 296 0038 00000000 		.word	.LANCHOR5
 297 003c 00000000 		.word	.LANCHOR4
 298              		.cfi_endproc
 299              	.LFE1:
 301              		.section	.text.u8x8_d_uc1608_240x128,"ax",%progbits
 302              		.align	1
 303              		.p2align 2,,3
 304              		.global	u8x8_d_uc1608_240x128
 305              		.syntax unified
 306              		.thumb
 307              		.thumb_func
 308              		.fpu fpv4-sp-d16
 310              	u8x8_d_uc1608_240x128:
 311              	.LFB2:
 227:/Users/imashio/Electronics/ARM/_Library/u8x8_d_uc1608.c **** 
 228:/Users/imashio/Electronics/ARM/_Library/u8x8_d_uc1608.c **** 
 229:/Users/imashio/Electronics/ARM/_Library/u8x8_d_uc1608.c **** /*================================================*/
 230:/Users/imashio/Electronics/ARM/_Library/u8x8_d_uc1608.c **** /* experimental implementation for the uc1608 240x128, not referenced in codebuild */
 231:/Users/imashio/Electronics/ARM/_Library/u8x8_d_uc1608.c **** 
 232:/Users/imashio/Electronics/ARM/_Library/u8x8_d_uc1608.c **** static const u8x8_display_info_t u8x8_uc1608_240x128_display_info =
 233:/Users/imashio/Electronics/ARM/_Library/u8x8_d_uc1608.c **** {
 234:/Users/imashio/Electronics/ARM/_Library/u8x8_d_uc1608.c ****   /* chip_enable_level = */ 1,	/* uc1608 has high active CS */
 235:/Users/imashio/Electronics/ARM/_Library/u8x8_d_uc1608.c ****   /* chip_disable_level = */ 0,
 236:/Users/imashio/Electronics/ARM/_Library/u8x8_d_uc1608.c ****   
 237:/Users/imashio/Electronics/ARM/_Library/u8x8_d_uc1608.c ****   /* post_chip_enable_wait_ns = */ 10,	/* uc1608 datasheet, page 39, actually 0 */
 238:/Users/imashio/Electronics/ARM/_Library/u8x8_d_uc1608.c ****   /* pre_chip_disable_wait_ns = */ 20,	/* uc1608 datasheet, page 39 */
 239:/Users/imashio/Electronics/ARM/_Library/u8x8_d_uc1608.c ****   /* reset_pulse_width_ms = */ 1, 	/* uc1608 datasheet, page 42 */
ARM GAS  /var/folders/v3/wysfpd052nz8jkbx04pk0ym80000gn/T//ccHIHrLs.s 			page 11


 240:/Users/imashio/Electronics/ARM/_Library/u8x8_d_uc1608.c ****   /* post_reset_wait_ms = */ 10, 	
 241:/Users/imashio/Electronics/ARM/_Library/u8x8_d_uc1608.c ****   /* sda_setup_time_ns = */ 30,		/* uc1608 datasheet, page 41 */
 242:/Users/imashio/Electronics/ARM/_Library/u8x8_d_uc1608.c ****   /* sck_pulse_width_ns = */ 65,	/* half of cycle time  */
 243:/Users/imashio/Electronics/ARM/_Library/u8x8_d_uc1608.c ****   /* sck_clock_hz = */ 8000000UL,	/* since Arduino 1.6.0, the SPI bus speed in Hz. Should be  10000
 244:/Users/imashio/Electronics/ARM/_Library/u8x8_d_uc1608.c ****   /* spi_mode = */ 0,		/* active high, rising edge */
 245:/Users/imashio/Electronics/ARM/_Library/u8x8_d_uc1608.c ****   /* i2c_bus_clock_100kHz = */ 4,
 246:/Users/imashio/Electronics/ARM/_Library/u8x8_d_uc1608.c ****   /* data_setup_time_ns = */ 30,	/* uc1608 datasheet, page 39 */
 247:/Users/imashio/Electronics/ARM/_Library/u8x8_d_uc1608.c ****   /* write_pulse_width_ns = */ 35,	/* uc1608 datasheet, page 39 */
 248:/Users/imashio/Electronics/ARM/_Library/u8x8_d_uc1608.c ****   /* tile_width = */ 30,		/* width of 30*8=240 pixel */
 249:/Users/imashio/Electronics/ARM/_Library/u8x8_d_uc1608.c ****   /* tile_hight = */ 16,
 250:/Users/imashio/Electronics/ARM/_Library/u8x8_d_uc1608.c ****   /* default_x_offset = */ 0,	/* reused as y page offset */
 251:/Users/imashio/Electronics/ARM/_Library/u8x8_d_uc1608.c ****   /* flipmode_x_offset = */ 0,	/* reused as y page offset */
 252:/Users/imashio/Electronics/ARM/_Library/u8x8_d_uc1608.c ****   /* pixel_width = */ 240,
 253:/Users/imashio/Electronics/ARM/_Library/u8x8_d_uc1608.c ****   /* pixel_height = */ 128
 254:/Users/imashio/Electronics/ARM/_Library/u8x8_d_uc1608.c **** };
 255:/Users/imashio/Electronics/ARM/_Library/u8x8_d_uc1608.c **** 
 256:/Users/imashio/Electronics/ARM/_Library/u8x8_d_uc1608.c **** static const uint8_t u8x8_d_uc1608_240x128_init_seq[] = {
 257:/Users/imashio/Electronics/ARM/_Library/u8x8_d_uc1608.c ****     
 258:/Users/imashio/Electronics/ARM/_Library/u8x8_d_uc1608.c ****   U8X8_START_TRANSFER(),             	/* enable chip, delay is part of the transfer start */
 259:/Users/imashio/Electronics/ARM/_Library/u8x8_d_uc1608.c **** 
 260:/Users/imashio/Electronics/ARM/_Library/u8x8_d_uc1608.c ****   U8X8_C(0x0e2),            			/* soft reset */
 261:/Users/imashio/Electronics/ARM/_Library/u8x8_d_uc1608.c ****   U8X8_DLY(200),
 262:/Users/imashio/Electronics/ARM/_Library/u8x8_d_uc1608.c **** 
 263:/Users/imashio/Electronics/ARM/_Library/u8x8_d_uc1608.c ****   //U8X8_C(0x023),            			/* Bit 0/1: Temp compenstation, Bit 2: Multiplex Rate 0=96, 1=128 
 264:/Users/imashio/Electronics/ARM/_Library/u8x8_d_uc1608.c ****   U8X8_C(0x026),            			/* Bit 0/1: Temp compenstation, Bit 2: Multiplex Rate 0=96, 1=128 */
 265:/Users/imashio/Electronics/ARM/_Library/u8x8_d_uc1608.c **** 
 266:/Users/imashio/Electronics/ARM/_Library/u8x8_d_uc1608.c ****   U8X8_C(0x0c8),            			/* Map control, Bit 3: MY=1, Bit 2: MX=0, Bit 0: MSF =0 */
 267:/Users/imashio/Electronics/ARM/_Library/u8x8_d_uc1608.c ****   U8X8_C(0x0ea),            			/* LCD bias Bits 0/1: 00=10.7 01=10.3, 10=12.0, 11=12.7 */
 268:/Users/imashio/Electronics/ARM/_Library/u8x8_d_uc1608.c **** 							/* maybe 0x0eb??? */
 269:/Users/imashio/Electronics/ARM/_Library/u8x8_d_uc1608.c ****   
 270:/Users/imashio/Electronics/ARM/_Library/u8x8_d_uc1608.c ****   U8X8_C(0x02f),            			/* power on, Bit 2 PC2=1 (internal charge pump), Bits 0/1: cap of pa
 271:/Users/imashio/Electronics/ARM/_Library/u8x8_d_uc1608.c ****   U8X8_DLY(50),
 272:/Users/imashio/Electronics/ARM/_Library/u8x8_d_uc1608.c ****   
 273:/Users/imashio/Electronics/ARM/_Library/u8x8_d_uc1608.c ****   U8X8_C(0x040),            			/* set display start line to 0 */
 274:/Users/imashio/Electronics/ARM/_Library/u8x8_d_uc1608.c ****   U8X8_C(0x090),            			/* no fixed lines */
 275:/Users/imashio/Electronics/ARM/_Library/u8x8_d_uc1608.c ****   U8X8_C(0x089),            			/* RAM access control */
 276:/Users/imashio/Electronics/ARM/_Library/u8x8_d_uc1608.c ****   
 277:/Users/imashio/Electronics/ARM/_Library/u8x8_d_uc1608.c ****   U8X8_CA(0x081, 0x072),		/* set contrast  */
 278:/Users/imashio/Electronics/ARM/_Library/u8x8_d_uc1608.c ****   
 279:/Users/imashio/Electronics/ARM/_Library/u8x8_d_uc1608.c ****   U8X8_C(0x000),		                /* column low nibble */
 280:/Users/imashio/Electronics/ARM/_Library/u8x8_d_uc1608.c ****   U8X8_C(0x010),		                /* column high nibble */  
 281:/Users/imashio/Electronics/ARM/_Library/u8x8_d_uc1608.c ****   U8X8_C(0x0b0),		                /* page adr  */
 282:/Users/imashio/Electronics/ARM/_Library/u8x8_d_uc1608.c ****   
 283:/Users/imashio/Electronics/ARM/_Library/u8x8_d_uc1608.c ****   
 284:/Users/imashio/Electronics/ARM/_Library/u8x8_d_uc1608.c ****   U8X8_END_TRANSFER(),             	/* disable chip */
 285:/Users/imashio/Electronics/ARM/_Library/u8x8_d_uc1608.c ****   U8X8_END()             			/* end of sequence */
 286:/Users/imashio/Electronics/ARM/_Library/u8x8_d_uc1608.c **** };
 287:/Users/imashio/Electronics/ARM/_Library/u8x8_d_uc1608.c **** 
 288:/Users/imashio/Electronics/ARM/_Library/u8x8_d_uc1608.c **** uint8_t u8x8_d_uc1608_240x128(u8x8_t *u8x8, uint8_t msg, uint8_t arg_int, void *arg_ptr)
 289:/Users/imashio/Electronics/ARM/_Library/u8x8_d_uc1608.c **** {
 312              		.loc 1 289 0
 313              		.cfi_startproc
 314              		@ args = 0, pretend = 0, frame = 0
 315              		@ frame_needed = 0, uses_anonymous_args = 0
 316              	.LVL44:
 317 0000 38B5     		push	{r3, r4, r5, lr}
 318              	.LCFI2:
ARM GAS  /var/folders/v3/wysfpd052nz8jkbx04pk0ym80000gn/T//ccHIHrLs.s 			page 12


 319              		.cfi_def_cfa_offset 16
 320              		.cfi_offset 3, -16
 321              		.cfi_offset 4, -12
 322              		.cfi_offset 5, -8
 323              		.cfi_offset 14, -4
 324              		.loc 1 289 0
 325 0002 0546     		mov	r5, r0
 326 0004 0C46     		mov	r4, r1
 290:/Users/imashio/Electronics/ARM/_Library/u8x8_d_uc1608.c ****   /* call common procedure first and handle messages there */
 291:/Users/imashio/Electronics/ARM/_Library/u8x8_d_uc1608.c ****   if ( u8x8_d_uc1608_common(u8x8, msg, arg_int, arg_ptr) == 0 )
 327              		.loc 1 291 0
 328 0006 FFF7FEFF 		bl	u8x8_d_uc1608_common
 329              	.LVL45:
 330 000a 60B9     		cbnz	r0, .L30
 292:/Users/imashio/Electronics/ARM/_Library/u8x8_d_uc1608.c ****   {
 293:/Users/imashio/Electronics/ARM/_Library/u8x8_d_uc1608.c ****     /* msg not handled, then try here */
 294:/Users/imashio/Electronics/ARM/_Library/u8x8_d_uc1608.c ****     switch(msg)
 331              		.loc 1 294 0
 332 000c 092C     		cmp	r4, #9
 333 000e 0CD0     		beq	.L28
 334 0010 0A2C     		cmp	r4, #10
 335 0012 07D1     		bne	.L27
 295:/Users/imashio/Electronics/ARM/_Library/u8x8_d_uc1608.c ****     {
 296:/Users/imashio/Electronics/ARM/_Library/u8x8_d_uc1608.c ****       case U8X8_MSG_DISPLAY_SETUP_MEMORY:
 297:/Users/imashio/Electronics/ARM/_Library/u8x8_d_uc1608.c **** 	u8x8_d_helper_display_setup_memory(u8x8, &u8x8_uc1608_240x128_display_info);
 298:/Users/imashio/Electronics/ARM/_Library/u8x8_d_uc1608.c **** 	break;
 299:/Users/imashio/Electronics/ARM/_Library/u8x8_d_uc1608.c ****       case U8X8_MSG_DISPLAY_INIT:
 300:/Users/imashio/Electronics/ARM/_Library/u8x8_d_uc1608.c **** 	u8x8_d_helper_display_init(u8x8);
 336              		.loc 1 300 0
 337 0014 2846     		mov	r0, r5
 338 0016 FFF7FEFF 		bl	u8x8_d_helper_display_init
 339              	.LVL46:
 301:/Users/imashio/Electronics/ARM/_Library/u8x8_d_uc1608.c **** 	u8x8_cad_SendSequence(u8x8, u8x8_d_uc1608_240x128_init_seq);
 340              		.loc 1 301 0
 341 001a 2846     		mov	r0, r5
 342 001c 0649     		ldr	r1, .L32
 343 001e FFF7FEFF 		bl	u8x8_cad_SendSequence
 344              	.LVL47:
 302:/Users/imashio/Electronics/ARM/_Library/u8x8_d_uc1608.c **** 	break;
 303:/Users/imashio/Electronics/ARM/_Library/u8x8_d_uc1608.c ****       default:
 304:/Users/imashio/Electronics/ARM/_Library/u8x8_d_uc1608.c **** 	return 0;		/* msg unknown */
 305:/Users/imashio/Electronics/ARM/_Library/u8x8_d_uc1608.c ****     }
 306:/Users/imashio/Electronics/ARM/_Library/u8x8_d_uc1608.c ****   }
 307:/Users/imashio/Electronics/ARM/_Library/u8x8_d_uc1608.c ****   return 1;
 345              		.loc 1 307 0
 346 0022 0120     		movs	r0, #1
 347              	.L27:
 308:/Users/imashio/Electronics/ARM/_Library/u8x8_d_uc1608.c **** }
 348              		.loc 1 308 0
 349 0024 38BD     		pop	{r3, r4, r5, pc}
 350              	.LVL48:
 351              	.L30:
 307:/Users/imashio/Electronics/ARM/_Library/u8x8_d_uc1608.c **** }
 352              		.loc 1 307 0
 353 0026 0120     		movs	r0, #1
 354              		.loc 1 308 0
 355 0028 38BD     		pop	{r3, r4, r5, pc}
ARM GAS  /var/folders/v3/wysfpd052nz8jkbx04pk0ym80000gn/T//ccHIHrLs.s 			page 13


 356              	.LVL49:
 357              	.L28:
 297:/Users/imashio/Electronics/ARM/_Library/u8x8_d_uc1608.c **** 	break;
 358              		.loc 1 297 0
 359 002a 2846     		mov	r0, r5
 360 002c 0349     		ldr	r1, .L32+4
 361 002e FFF7FEFF 		bl	u8x8_d_helper_display_setup_memory
 362              	.LVL50:
 307:/Users/imashio/Electronics/ARM/_Library/u8x8_d_uc1608.c **** }
 363              		.loc 1 307 0
 364 0032 0120     		movs	r0, #1
 365              		.loc 1 308 0
 366 0034 38BD     		pop	{r3, r4, r5, pc}
 367              	.LVL51:
 368              	.L33:
 369 0036 00BF     		.align	2
 370              	.L32:
 371 0038 00000000 		.word	.LANCHOR7
 372 003c 00000000 		.word	.LANCHOR6
 373              		.cfi_endproc
 374              	.LFE2:
 376              		.section	.text.u8x8_d_uc1608_erc240120,"ax",%progbits
 377              		.align	1
 378              		.p2align 2,,3
 379              		.global	u8x8_d_uc1608_erc240120
 380              		.syntax unified
 381              		.thumb
 382              		.thumb_func
 383              		.fpu fpv4-sp-d16
 385              	u8x8_d_uc1608_erc240120:
 386              	.LFB3:
 309:/Users/imashio/Electronics/ARM/_Library/u8x8_d_uc1608.c **** 
 310:/Users/imashio/Electronics/ARM/_Library/u8x8_d_uc1608.c **** /*================================================*/
 311:/Users/imashio/Electronics/ARM/_Library/u8x8_d_uc1608.c **** /* experimental implementation for the uc1608 erc240x120 */
 312:/Users/imashio/Electronics/ARM/_Library/u8x8_d_uc1608.c **** 
 313:/Users/imashio/Electronics/ARM/_Library/u8x8_d_uc1608.c **** static const u8x8_display_info_t u8x8_uc1608_erc240120_display_info =
 314:/Users/imashio/Electronics/ARM/_Library/u8x8_d_uc1608.c **** {
 315:/Users/imashio/Electronics/ARM/_Library/u8x8_d_uc1608.c ****   /* chip_enable_level = */ 1,	/* uc1608 has high active CS */
 316:/Users/imashio/Electronics/ARM/_Library/u8x8_d_uc1608.c ****   /* chip_disable_level = */ 0,
 317:/Users/imashio/Electronics/ARM/_Library/u8x8_d_uc1608.c ****   
 318:/Users/imashio/Electronics/ARM/_Library/u8x8_d_uc1608.c ****   /* post_chip_enable_wait_ns = */ 10,	/* uc1608 datasheet, page 39, actually 0 */
 319:/Users/imashio/Electronics/ARM/_Library/u8x8_d_uc1608.c ****   /* pre_chip_disable_wait_ns = */ 20,	/* uc1608 datasheet, page 39 */
 320:/Users/imashio/Electronics/ARM/_Library/u8x8_d_uc1608.c ****   /* reset_pulse_width_ms = */ 1, 	/* uc1608 datasheet, page 42 */
 321:/Users/imashio/Electronics/ARM/_Library/u8x8_d_uc1608.c ****   /* post_reset_wait_ms = */ 10, 	
 322:/Users/imashio/Electronics/ARM/_Library/u8x8_d_uc1608.c ****   /* sda_setup_time_ns = */ 30,		/* uc1608 datasheet, page 41 */
 323:/Users/imashio/Electronics/ARM/_Library/u8x8_d_uc1608.c ****   /* sck_pulse_width_ns = */ 65,	/* half of cycle time  */
 324:/Users/imashio/Electronics/ARM/_Library/u8x8_d_uc1608.c ****   /* sck_clock_hz = */ 8000000UL,	/* since Arduino 1.6.0, the SPI bus speed in Hz. Should be  10000
 325:/Users/imashio/Electronics/ARM/_Library/u8x8_d_uc1608.c ****   /* spi_mode = */ 0,		/* active high, rising edge */
 326:/Users/imashio/Electronics/ARM/_Library/u8x8_d_uc1608.c ****   /* i2c_bus_clock_100kHz = */ 4,
 327:/Users/imashio/Electronics/ARM/_Library/u8x8_d_uc1608.c ****   /* data_setup_time_ns = */ 30,	/* uc1608 datasheet, page 39 */
 328:/Users/imashio/Electronics/ARM/_Library/u8x8_d_uc1608.c ****   /* write_pulse_width_ns = */ 35,	/* uc1608 datasheet, page 39 */
 329:/Users/imashio/Electronics/ARM/_Library/u8x8_d_uc1608.c ****   /* tile_width = */ 30,		/* width of 30*8=240 pixel */
 330:/Users/imashio/Electronics/ARM/_Library/u8x8_d_uc1608.c ****   /* tile_hight = */ 15,
 331:/Users/imashio/Electronics/ARM/_Library/u8x8_d_uc1608.c ****   /* default_x_offset = */ 1,	/* reused as y page offset */
 332:/Users/imashio/Electronics/ARM/_Library/u8x8_d_uc1608.c ****   /* flipmode_x_offset = */ 0,	/* reused as y page offset */
 333:/Users/imashio/Electronics/ARM/_Library/u8x8_d_uc1608.c ****   /* pixel_width = */ 240,
 334:/Users/imashio/Electronics/ARM/_Library/u8x8_d_uc1608.c ****   /* pixel_height = */ 120
ARM GAS  /var/folders/v3/wysfpd052nz8jkbx04pk0ym80000gn/T//ccHIHrLs.s 			page 14


 335:/Users/imashio/Electronics/ARM/_Library/u8x8_d_uc1608.c **** };
 336:/Users/imashio/Electronics/ARM/_Library/u8x8_d_uc1608.c **** 
 337:/Users/imashio/Electronics/ARM/_Library/u8x8_d_uc1608.c **** /* http://www.buydisplay.com/download/democode/ERC240120-1_DemoCode.txt */
 338:/Users/imashio/Electronics/ARM/_Library/u8x8_d_uc1608.c **** static const uint8_t u8x8_d_uc1608_erc240120_init_seq[] = {
 339:/Users/imashio/Electronics/ARM/_Library/u8x8_d_uc1608.c ****     
 340:/Users/imashio/Electronics/ARM/_Library/u8x8_d_uc1608.c ****   U8X8_START_TRANSFER(),             	/* enable chip, delay is part of the transfer start */
 341:/Users/imashio/Electronics/ARM/_Library/u8x8_d_uc1608.c **** 
 342:/Users/imashio/Electronics/ARM/_Library/u8x8_d_uc1608.c ****   U8X8_C(0x0e2),            			/* soft reset */
 343:/Users/imashio/Electronics/ARM/_Library/u8x8_d_uc1608.c ****   U8X8_DLY(200),
 344:/Users/imashio/Electronics/ARM/_Library/u8x8_d_uc1608.c **** 
 345:/Users/imashio/Electronics/ARM/_Library/u8x8_d_uc1608.c ****   //U8X8_C(0x023),            			/* Bit 0/1: Temp compenstation, Bit 2: Multiplex Rate 0=96, 1=128 
 346:/Users/imashio/Electronics/ARM/_Library/u8x8_d_uc1608.c ****   U8X8_C(0x026),            			/* Bit 0/1: Temp compenstation, Bit 2: Multiplex Rate 0=96, 1=128 */
 347:/Users/imashio/Electronics/ARM/_Library/u8x8_d_uc1608.c **** 
 348:/Users/imashio/Electronics/ARM/_Library/u8x8_d_uc1608.c ****   U8X8_C(0x0c8),            			/* Map control, Bit 3: MY=1, Bit 2: MX=0, Bit 0: MSF =0 */
 349:/Users/imashio/Electronics/ARM/_Library/u8x8_d_uc1608.c ****   U8X8_C(0x0ea),            			/* LCD bias Bits 0/1: 00=10.7 01=10.3, 10=12.0, 11=12.7 */
 350:/Users/imashio/Electronics/ARM/_Library/u8x8_d_uc1608.c **** 							/* according to DemoCode.txt */
 351:/Users/imashio/Electronics/ARM/_Library/u8x8_d_uc1608.c ****   
 352:/Users/imashio/Electronics/ARM/_Library/u8x8_d_uc1608.c ****   U8X8_C(0x02f),            			/* power on, Bit 2 PC2=1 (internal charge pump), Bits 0/1: cap of pa
 353:/Users/imashio/Electronics/ARM/_Library/u8x8_d_uc1608.c ****   U8X8_DLY(50),
 354:/Users/imashio/Electronics/ARM/_Library/u8x8_d_uc1608.c ****   
 355:/Users/imashio/Electronics/ARM/_Library/u8x8_d_uc1608.c ****   U8X8_C(0x040),            			/* set display start line to 0 */
 356:/Users/imashio/Electronics/ARM/_Library/u8x8_d_uc1608.c ****   U8X8_C(0x090),            			/* no fixed lines */
 357:/Users/imashio/Electronics/ARM/_Library/u8x8_d_uc1608.c ****   U8X8_C(0x089),            			/* RAM access control */
 358:/Users/imashio/Electronics/ARM/_Library/u8x8_d_uc1608.c ****   
 359:/Users/imashio/Electronics/ARM/_Library/u8x8_d_uc1608.c ****   //U8X8_CA(0x081, 46),			/* set contrast, 46 according to  DemoCode.txt */
 360:/Users/imashio/Electronics/ARM/_Library/u8x8_d_uc1608.c ****   U8X8_CA(0x081, 80),			/* */
 361:/Users/imashio/Electronics/ARM/_Library/u8x8_d_uc1608.c ****   
 362:/Users/imashio/Electronics/ARM/_Library/u8x8_d_uc1608.c ****   U8X8_C(0x000),		                /* column low nibble */
 363:/Users/imashio/Electronics/ARM/_Library/u8x8_d_uc1608.c ****   U8X8_C(0x010),		                /* column high nibble */  
 364:/Users/imashio/Electronics/ARM/_Library/u8x8_d_uc1608.c ****   U8X8_C(0x0b0),		                /* page adr  */
 365:/Users/imashio/Electronics/ARM/_Library/u8x8_d_uc1608.c ****   
 366:/Users/imashio/Electronics/ARM/_Library/u8x8_d_uc1608.c ****   
 367:/Users/imashio/Electronics/ARM/_Library/u8x8_d_uc1608.c ****   U8X8_END_TRANSFER(),             	/* disable chip */
 368:/Users/imashio/Electronics/ARM/_Library/u8x8_d_uc1608.c ****   U8X8_END()             			/* end of sequence */
 369:/Users/imashio/Electronics/ARM/_Library/u8x8_d_uc1608.c **** };
 370:/Users/imashio/Electronics/ARM/_Library/u8x8_d_uc1608.c **** 
 371:/Users/imashio/Electronics/ARM/_Library/u8x8_d_uc1608.c **** uint8_t u8x8_d_uc1608_erc240120(u8x8_t *u8x8, uint8_t msg, uint8_t arg_int, void *arg_ptr)
 372:/Users/imashio/Electronics/ARM/_Library/u8x8_d_uc1608.c **** {
 387              		.loc 1 372 0
 388              		.cfi_startproc
 389              		@ args = 0, pretend = 0, frame = 0
 390              		@ frame_needed = 0, uses_anonymous_args = 0
 391              	.LVL52:
 392 0000 38B5     		push	{r3, r4, r5, lr}
 393              	.LCFI3:
 394              		.cfi_def_cfa_offset 16
 395              		.cfi_offset 3, -16
 396              		.cfi_offset 4, -12
 397              		.cfi_offset 5, -8
 398              		.cfi_offset 14, -4
 399              		.loc 1 372 0
 400 0002 0546     		mov	r5, r0
 401 0004 0C46     		mov	r4, r1
 373:/Users/imashio/Electronics/ARM/_Library/u8x8_d_uc1608.c ****   /* call common procedure first and handle messages there */
 374:/Users/imashio/Electronics/ARM/_Library/u8x8_d_uc1608.c ****   if ( u8x8_d_uc1608_common(u8x8, msg, arg_int, arg_ptr) == 0 )
 402              		.loc 1 374 0
 403 0006 FFF7FEFF 		bl	u8x8_d_uc1608_common
ARM GAS  /var/folders/v3/wysfpd052nz8jkbx04pk0ym80000gn/T//ccHIHrLs.s 			page 15


 404              	.LVL53:
 405 000a 60B9     		cbnz	r0, .L38
 375:/Users/imashio/Electronics/ARM/_Library/u8x8_d_uc1608.c ****   {
 376:/Users/imashio/Electronics/ARM/_Library/u8x8_d_uc1608.c ****     /* msg not handled, then try here */
 377:/Users/imashio/Electronics/ARM/_Library/u8x8_d_uc1608.c ****     switch(msg)
 406              		.loc 1 377 0
 407 000c 092C     		cmp	r4, #9
 408 000e 0CD0     		beq	.L36
 409 0010 0A2C     		cmp	r4, #10
 410 0012 07D1     		bne	.L35
 378:/Users/imashio/Electronics/ARM/_Library/u8x8_d_uc1608.c ****     {
 379:/Users/imashio/Electronics/ARM/_Library/u8x8_d_uc1608.c ****       case U8X8_MSG_DISPLAY_SETUP_MEMORY:
 380:/Users/imashio/Electronics/ARM/_Library/u8x8_d_uc1608.c **** 	u8x8_d_helper_display_setup_memory(u8x8, &u8x8_uc1608_erc240120_display_info);
 381:/Users/imashio/Electronics/ARM/_Library/u8x8_d_uc1608.c **** 	break;
 382:/Users/imashio/Electronics/ARM/_Library/u8x8_d_uc1608.c ****       case U8X8_MSG_DISPLAY_INIT:
 383:/Users/imashio/Electronics/ARM/_Library/u8x8_d_uc1608.c **** 	u8x8_d_helper_display_init(u8x8);
 411              		.loc 1 383 0
 412 0014 2846     		mov	r0, r5
 413 0016 FFF7FEFF 		bl	u8x8_d_helper_display_init
 414              	.LVL54:
 384:/Users/imashio/Electronics/ARM/_Library/u8x8_d_uc1608.c **** 	u8x8_cad_SendSequence(u8x8, u8x8_d_uc1608_erc240120_init_seq);
 415              		.loc 1 384 0
 416 001a 2846     		mov	r0, r5
 417 001c 0649     		ldr	r1, .L40
 418 001e FFF7FEFF 		bl	u8x8_cad_SendSequence
 419              	.LVL55:
 385:/Users/imashio/Electronics/ARM/_Library/u8x8_d_uc1608.c **** 	break;
 386:/Users/imashio/Electronics/ARM/_Library/u8x8_d_uc1608.c ****       default:
 387:/Users/imashio/Electronics/ARM/_Library/u8x8_d_uc1608.c **** 	return 0;		/* msg unknown */
 388:/Users/imashio/Electronics/ARM/_Library/u8x8_d_uc1608.c ****     }
 389:/Users/imashio/Electronics/ARM/_Library/u8x8_d_uc1608.c ****   }
 390:/Users/imashio/Electronics/ARM/_Library/u8x8_d_uc1608.c ****   return 1;
 420              		.loc 1 390 0
 421 0022 0120     		movs	r0, #1
 422              	.L35:
 391:/Users/imashio/Electronics/ARM/_Library/u8x8_d_uc1608.c **** }
 423              		.loc 1 391 0
 424 0024 38BD     		pop	{r3, r4, r5, pc}
 425              	.LVL56:
 426              	.L38:
 390:/Users/imashio/Electronics/ARM/_Library/u8x8_d_uc1608.c **** }
 427              		.loc 1 390 0
 428 0026 0120     		movs	r0, #1
 429              		.loc 1 391 0
 430 0028 38BD     		pop	{r3, r4, r5, pc}
 431              	.LVL57:
 432              	.L36:
 380:/Users/imashio/Electronics/ARM/_Library/u8x8_d_uc1608.c **** 	break;
 433              		.loc 1 380 0
 434 002a 2846     		mov	r0, r5
 435 002c 0349     		ldr	r1, .L40+4
 436 002e FFF7FEFF 		bl	u8x8_d_helper_display_setup_memory
 437              	.LVL58:
 390:/Users/imashio/Electronics/ARM/_Library/u8x8_d_uc1608.c **** }
 438              		.loc 1 390 0
 439 0032 0120     		movs	r0, #1
 440              		.loc 1 391 0
ARM GAS  /var/folders/v3/wysfpd052nz8jkbx04pk0ym80000gn/T//ccHIHrLs.s 			page 16


 441 0034 38BD     		pop	{r3, r4, r5, pc}
 442              	.LVL59:
 443              	.L41:
 444 0036 00BF     		.align	2
 445              	.L40:
 446 0038 00000000 		.word	.LANCHOR9
 447 003c 00000000 		.word	.LANCHOR8
 448              		.cfi_endproc
 449              	.LFE3:
 451              		.section	.rodata.u8x8_d_uc1608_240x128_init_seq,"a",%progbits
 452              		.align	2
 453              		.set	.LANCHOR7,. + 0
 456              	u8x8_d_uc1608_240x128_init_seq:
 457 0000 18       		.byte	24
 458 0001 15       		.byte	21
 459 0002 E2       		.byte	-30
 460 0003 FE       		.byte	-2
 461 0004 C8       		.byte	-56
 462 0005 15       		.byte	21
 463 0006 26       		.byte	38
 464 0007 15       		.byte	21
 465 0008 C8       		.byte	-56
 466 0009 15       		.byte	21
 467 000a EA       		.byte	-22
 468 000b 15       		.byte	21
 469 000c 2F       		.byte	47
 470 000d FE       		.byte	-2
 471 000e 32       		.byte	50
 472 000f 15       		.byte	21
 473 0010 40       		.byte	64
 474 0011 15       		.byte	21
 475 0012 90       		.byte	-112
 476 0013 15       		.byte	21
 477 0014 89       		.byte	-119
 478 0015 15       		.byte	21
 479 0016 81       		.byte	-127
 480 0017 16       		.byte	22
 481 0018 72       		.byte	114
 482 0019 15       		.byte	21
 483 001a 00       		.byte	0
 484 001b 15       		.byte	21
 485 001c 10       		.byte	16
 486 001d 15       		.byte	21
 487 001e B0       		.byte	-80
 488 001f 19       		.byte	25
 489 0020 FF       		.byte	-1
 490              		.section	.rodata.u8x8_d_uc1608_erc240120_init_seq,"a",%progbits
 491              		.align	2
 492              		.set	.LANCHOR9,. + 0
 495              	u8x8_d_uc1608_erc240120_init_seq:
 496 0000 18       		.byte	24
 497 0001 15       		.byte	21
 498 0002 E2       		.byte	-30
 499 0003 FE       		.byte	-2
 500 0004 C8       		.byte	-56
 501 0005 15       		.byte	21
 502 0006 26       		.byte	38
ARM GAS  /var/folders/v3/wysfpd052nz8jkbx04pk0ym80000gn/T//ccHIHrLs.s 			page 17


 503 0007 15       		.byte	21
 504 0008 C8       		.byte	-56
 505 0009 15       		.byte	21
 506 000a EA       		.byte	-22
 507 000b 15       		.byte	21
 508 000c 2F       		.byte	47
 509 000d FE       		.byte	-2
 510 000e 32       		.byte	50
 511 000f 15       		.byte	21
 512 0010 40       		.byte	64
 513 0011 15       		.byte	21
 514 0012 90       		.byte	-112
 515 0013 15       		.byte	21
 516 0014 89       		.byte	-119
 517 0015 15       		.byte	21
 518 0016 81       		.byte	-127
 519 0017 16       		.byte	22
 520 0018 50       		.byte	80
 521 0019 15       		.byte	21
 522 001a 00       		.byte	0
 523 001b 15       		.byte	21
 524 001c 10       		.byte	16
 525 001d 15       		.byte	21
 526 001e B0       		.byte	-80
 527 001f 19       		.byte	25
 528 0020 FF       		.byte	-1
 529              		.section	.rodata.u8x8_d_uc1608_erc24064_init_seq,"a",%progbits
 530              		.align	2
 531              		.set	.LANCHOR5,. + 0
 534              	u8x8_d_uc1608_erc24064_init_seq:
 535 0000 18       		.byte	24
 536 0001 15       		.byte	21
 537 0002 E2       		.byte	-30
 538 0003 FE       		.byte	-2
 539 0004 C8       		.byte	-56
 540 0005 15       		.byte	21
 541 0006 23       		.byte	35
 542 0007 15       		.byte	21
 543 0008 C8       		.byte	-56
 544 0009 15       		.byte	21
 545 000a E8       		.byte	-24
 546 000b 15       		.byte	21
 547 000c 2F       		.byte	47
 548 000d FE       		.byte	-2
 549 000e 32       		.byte	50
 550 000f 15       		.byte	21
 551 0010 40       		.byte	64
 552 0011 15       		.byte	21
 553 0012 90       		.byte	-112
 554 0013 15       		.byte	21
 555 0014 89       		.byte	-119
 556 0015 15       		.byte	21
 557 0016 81       		.byte	-127
 558 0017 16       		.byte	22
 559 0018 14       		.byte	20
 560 0019 15       		.byte	21
 561 001a 00       		.byte	0
ARM GAS  /var/folders/v3/wysfpd052nz8jkbx04pk0ym80000gn/T//ccHIHrLs.s 			page 18


 562 001b 15       		.byte	21
 563 001c 10       		.byte	16
 564 001d 15       		.byte	21
 565 001e B0       		.byte	-80
 566 001f 19       		.byte	25
 567 0020 FF       		.byte	-1
 568              		.section	.rodata.u8x8_d_uc1608_flip0_seq,"a",%progbits
 569              		.align	2
 570              		.set	.LANCHOR2,. + 0
 573              	u8x8_d_uc1608_flip0_seq:
 574 0000 18       		.byte	24
 575 0001 15       		.byte	21
 576 0002 C8       		.byte	-56
 577 0003 19       		.byte	25
 578 0004 FF       		.byte	-1
 579              		.section	.rodata.u8x8_d_uc1608_flip1_seq,"a",%progbits
 580              		.align	2
 581              		.set	.LANCHOR3,. + 0
 584              	u8x8_d_uc1608_flip1_seq:
 585 0000 18       		.byte	24
 586 0001 15       		.byte	21
 587 0002 C4       		.byte	-60
 588 0003 19       		.byte	25
 589 0004 FF       		.byte	-1
 590              		.section	.rodata.u8x8_d_uc1608_powersave0_seq,"a",%progbits
 591              		.align	2
 592              		.set	.LANCHOR0,. + 0
 595              	u8x8_d_uc1608_powersave0_seq:
 596 0000 18       		.byte	24
 597 0001 15       		.byte	21
 598 0002 AF       		.byte	-81
 599 0003 19       		.byte	25
 600 0004 FF       		.byte	-1
 601              		.section	.rodata.u8x8_d_uc1608_powersave1_seq,"a",%progbits
 602              		.align	2
 603              		.set	.LANCHOR1,. + 0
 606              	u8x8_d_uc1608_powersave1_seq:
 607 0000 18       		.byte	24
 608 0001 15       		.byte	21
 609 0002 AE       		.byte	-82
 610 0003 19       		.byte	25
 611 0004 FF       		.byte	-1
 612              		.section	.rodata.u8x8_uc1608_240x128_display_info,"a",%progbits
 613              		.align	2
 614              		.set	.LANCHOR6,. + 0
 617              	u8x8_uc1608_240x128_display_info:
 618 0000 01       		.byte	1
 619 0001 00       		.byte	0
 620 0002 0A       		.byte	10
 621 0003 14       		.byte	20
 622 0004 01       		.byte	1
 623 0005 0A       		.byte	10
 624 0006 1E       		.byte	30
 625 0007 41       		.byte	65
 626 0008 00127A00 		.word	8000000
 627 000c 00       		.byte	0
 628 000d 04       		.byte	4
ARM GAS  /var/folders/v3/wysfpd052nz8jkbx04pk0ym80000gn/T//ccHIHrLs.s 			page 19


 629 000e 1E       		.byte	30
 630 000f 23       		.byte	35
 631 0010 1E       		.byte	30
 632 0011 10       		.byte	16
 633 0012 00       		.byte	0
 634 0013 00       		.byte	0
 635 0014 F000     		.short	240
 636 0016 8000     		.short	128
 637              		.section	.rodata.u8x8_uc1608_240x64_display_info,"a",%progbits
 638              		.align	2
 639              		.set	.LANCHOR4,. + 0
 642              	u8x8_uc1608_240x64_display_info:
 643 0000 01       		.byte	1
 644 0001 00       		.byte	0
 645 0002 0A       		.byte	10
 646 0003 14       		.byte	20
 647 0004 01       		.byte	1
 648 0005 0A       		.byte	10
 649 0006 1E       		.byte	30
 650 0007 41       		.byte	65
 651 0008 00127A00 		.word	8000000
 652 000c 00       		.byte	0
 653 000d 04       		.byte	4
 654 000e 1E       		.byte	30
 655 000f 23       		.byte	35
 656 0010 1E       		.byte	30
 657 0011 08       		.byte	8
 658 0012 00       		.byte	0
 659 0013 04       		.byte	4
 660 0014 F000     		.short	240
 661 0016 4000     		.short	64
 662              		.section	.rodata.u8x8_uc1608_erc240120_display_info,"a",%progbits
 663              		.align	2
 664              		.set	.LANCHOR8,. + 0
 667              	u8x8_uc1608_erc240120_display_info:
 668 0000 01       		.byte	1
 669 0001 00       		.byte	0
 670 0002 0A       		.byte	10
 671 0003 14       		.byte	20
 672 0004 01       		.byte	1
 673 0005 0A       		.byte	10
 674 0006 1E       		.byte	30
 675 0007 41       		.byte	65
 676 0008 00127A00 		.word	8000000
 677 000c 00       		.byte	0
 678 000d 04       		.byte	4
 679 000e 1E       		.byte	30
 680 000f 23       		.byte	35
 681 0010 1E       		.byte	30
 682 0011 0F       		.byte	15
 683 0012 01       		.byte	1
 684 0013 00       		.byte	0
 685 0014 F000     		.short	240
 686 0016 7800     		.short	120
 687              		.text
 688              	.Letext0:
 689              		.file 2 "/usr/local/gcc-arm-none-eabi-7-2018-q2-update/arm-none-eabi/include/machine/_default_type
ARM GAS  /var/folders/v3/wysfpd052nz8jkbx04pk0ym80000gn/T//ccHIHrLs.s 			page 20


 690              		.file 3 "/usr/local/gcc-arm-none-eabi-7-2018-q2-update/arm-none-eabi/include/sys/_stdint.h"
 691              		.file 4 "/Users/imashio/Electronics/ARM/_Library/u8x8.h"
ARM GAS  /var/folders/v3/wysfpd052nz8jkbx04pk0ym80000gn/T//ccHIHrLs.s 			page 21


DEFINED SYMBOLS
                            *ABS*:0000000000000000 u8x8_d_uc1608.c
/var/folders/v3/wysfpd052nz8jkbx04pk0ym80000gn/T//ccHIHrLs.s:18     .text.u8x8_d_uc1608_common:0000000000000000 $t
/var/folders/v3/wysfpd052nz8jkbx04pk0ym80000gn/T//ccHIHrLs.s:26     .text.u8x8_d_uc1608_common:0000000000000000 u8x8_d_uc1608_common
/var/folders/v3/wysfpd052nz8jkbx04pk0ym80000gn/T//ccHIHrLs.s:57     .text.u8x8_d_uc1608_common:0000000000000012 $d
/var/folders/v3/wysfpd052nz8jkbx04pk0ym80000gn/T//ccHIHrLs.s:219    .text.u8x8_d_uc1608_common:00000000000000cc $d
/var/folders/v3/wysfpd052nz8jkbx04pk0ym80000gn/T//ccHIHrLs.s:227    .text.u8x8_d_uc1608_erc24064:0000000000000000 $t
/var/folders/v3/wysfpd052nz8jkbx04pk0ym80000gn/T//ccHIHrLs.s:235    .text.u8x8_d_uc1608_erc24064:0000000000000000 u8x8_d_uc1608_erc24064
/var/folders/v3/wysfpd052nz8jkbx04pk0ym80000gn/T//ccHIHrLs.s:296    .text.u8x8_d_uc1608_erc24064:0000000000000038 $d
/var/folders/v3/wysfpd052nz8jkbx04pk0ym80000gn/T//ccHIHrLs.s:302    .text.u8x8_d_uc1608_240x128:0000000000000000 $t
/var/folders/v3/wysfpd052nz8jkbx04pk0ym80000gn/T//ccHIHrLs.s:310    .text.u8x8_d_uc1608_240x128:0000000000000000 u8x8_d_uc1608_240x128
/var/folders/v3/wysfpd052nz8jkbx04pk0ym80000gn/T//ccHIHrLs.s:371    .text.u8x8_d_uc1608_240x128:0000000000000038 $d
/var/folders/v3/wysfpd052nz8jkbx04pk0ym80000gn/T//ccHIHrLs.s:377    .text.u8x8_d_uc1608_erc240120:0000000000000000 $t
/var/folders/v3/wysfpd052nz8jkbx04pk0ym80000gn/T//ccHIHrLs.s:385    .text.u8x8_d_uc1608_erc240120:0000000000000000 u8x8_d_uc1608_erc240120
/var/folders/v3/wysfpd052nz8jkbx04pk0ym80000gn/T//ccHIHrLs.s:446    .text.u8x8_d_uc1608_erc240120:0000000000000038 $d
/var/folders/v3/wysfpd052nz8jkbx04pk0ym80000gn/T//ccHIHrLs.s:452    .rodata.u8x8_d_uc1608_240x128_init_seq:0000000000000000 $d
/var/folders/v3/wysfpd052nz8jkbx04pk0ym80000gn/T//ccHIHrLs.s:456    .rodata.u8x8_d_uc1608_240x128_init_seq:0000000000000000 u8x8_d_uc1608_240x128_init_seq
/var/folders/v3/wysfpd052nz8jkbx04pk0ym80000gn/T//ccHIHrLs.s:491    .rodata.u8x8_d_uc1608_erc240120_init_seq:0000000000000000 $d
/var/folders/v3/wysfpd052nz8jkbx04pk0ym80000gn/T//ccHIHrLs.s:495    .rodata.u8x8_d_uc1608_erc240120_init_seq:0000000000000000 u8x8_d_uc1608_erc240120_init_seq
/var/folders/v3/wysfpd052nz8jkbx04pk0ym80000gn/T//ccHIHrLs.s:530    .rodata.u8x8_d_uc1608_erc24064_init_seq:0000000000000000 $d
/var/folders/v3/wysfpd052nz8jkbx04pk0ym80000gn/T//ccHIHrLs.s:534    .rodata.u8x8_d_uc1608_erc24064_init_seq:0000000000000000 u8x8_d_uc1608_erc24064_init_seq
/var/folders/v3/wysfpd052nz8jkbx04pk0ym80000gn/T//ccHIHrLs.s:569    .rodata.u8x8_d_uc1608_flip0_seq:0000000000000000 $d
/var/folders/v3/wysfpd052nz8jkbx04pk0ym80000gn/T//ccHIHrLs.s:573    .rodata.u8x8_d_uc1608_flip0_seq:0000000000000000 u8x8_d_uc1608_flip0_seq
/var/folders/v3/wysfpd052nz8jkbx04pk0ym80000gn/T//ccHIHrLs.s:580    .rodata.u8x8_d_uc1608_flip1_seq:0000000000000000 $d
/var/folders/v3/wysfpd052nz8jkbx04pk0ym80000gn/T//ccHIHrLs.s:584    .rodata.u8x8_d_uc1608_flip1_seq:0000000000000000 u8x8_d_uc1608_flip1_seq
/var/folders/v3/wysfpd052nz8jkbx04pk0ym80000gn/T//ccHIHrLs.s:591    .rodata.u8x8_d_uc1608_powersave0_seq:0000000000000000 $d
/var/folders/v3/wysfpd052nz8jkbx04pk0ym80000gn/T//ccHIHrLs.s:595    .rodata.u8x8_d_uc1608_powersave0_seq:0000000000000000 u8x8_d_uc1608_powersave0_seq
/var/folders/v3/wysfpd052nz8jkbx04pk0ym80000gn/T//ccHIHrLs.s:602    .rodata.u8x8_d_uc1608_powersave1_seq:0000000000000000 $d
/var/folders/v3/wysfpd052nz8jkbx04pk0ym80000gn/T//ccHIHrLs.s:606    .rodata.u8x8_d_uc1608_powersave1_seq:0000000000000000 u8x8_d_uc1608_powersave1_seq
/var/folders/v3/wysfpd052nz8jkbx04pk0ym80000gn/T//ccHIHrLs.s:613    .rodata.u8x8_uc1608_240x128_display_info:0000000000000000 $d
/var/folders/v3/wysfpd052nz8jkbx04pk0ym80000gn/T//ccHIHrLs.s:617    .rodata.u8x8_uc1608_240x128_display_info:0000000000000000 u8x8_uc1608_240x128_display_info
/var/folders/v3/wysfpd052nz8jkbx04pk0ym80000gn/T//ccHIHrLs.s:638    .rodata.u8x8_uc1608_240x64_display_info:0000000000000000 $d
/var/folders/v3/wysfpd052nz8jkbx04pk0ym80000gn/T//ccHIHrLs.s:642    .rodata.u8x8_uc1608_240x64_display_info:0000000000000000 u8x8_uc1608_240x64_display_info
/var/folders/v3/wysfpd052nz8jkbx04pk0ym80000gn/T//ccHIHrLs.s:663    .rodata.u8x8_uc1608_erc240120_display_info:0000000000000000 $d
/var/folders/v3/wysfpd052nz8jkbx04pk0ym80000gn/T//ccHIHrLs.s:667    .rodata.u8x8_uc1608_erc240120_display_info:0000000000000000 u8x8_uc1608_erc240120_display_info
/var/folders/v3/wysfpd052nz8jkbx04pk0ym80000gn/T//ccHIHrLs.s:62     .text.u8x8_d_uc1608_common:0000000000000017 $d
/var/folders/v3/wysfpd052nz8jkbx04pk0ym80000gn/T//ccHIHrLs.s:62     .text.u8x8_d_uc1608_common:0000000000000018 $t

UNDEFINED SYMBOLS
u8x8_cad_StartTransfer
u8x8_cad_SendCmd
u8x8_cad_SendData
u8x8_cad_EndTransfer
u8x8_cad_SendArg
u8x8_cad_SendSequence
u8x8_d_helper_display_init
u8x8_d_helper_display_setup_memory
