ARM GAS  /var/folders/v3/wysfpd052nz8jkbx04pk0ym80000gn/T//ccYzDHzS.s 			page 1


   1              		.cpu cortex-m4
   2              		.eabi_attribute 27, 1
   3              		.eabi_attribute 28, 1
   4              		.eabi_attribute 20, 1
   5              		.eabi_attribute 21, 1
   6              		.eabi_attribute 23, 3
   7              		.eabi_attribute 24, 1
   8              		.eabi_attribute 25, 1
   9              		.eabi_attribute 26, 1
  10              		.eabi_attribute 30, 2
  11              		.eabi_attribute 34, 1
  12              		.eabi_attribute 18, 4
  13              		.file	"u8x8_8x8.c"
  14              		.text
  15              	.Ltext0:
  16              		.cfi_sections	.debug_frame
  17              		.section	.text.u8x8_upscale_buf,"ax",%progbits
  18              		.align	1
  19              		.p2align 2,,3
  20              		.syntax unified
  21              		.thumb
  22              		.thumb_func
  23              		.fpu fpv4-sp-d16
  25              	u8x8_upscale_buf:
  26              	.LFB4:
  27              		.file 1 "/Users/imashio/Electronics/ARM/_Library/u8x8_8x8.c"
   1:/Users/imashio/Electronics/ARM/_Library/u8x8_8x8.c **** /*
   2:/Users/imashio/Electronics/ARM/_Library/u8x8_8x8.c **** 
   3:/Users/imashio/Electronics/ARM/_Library/u8x8_8x8.c ****   u8x8_8x8.c
   4:/Users/imashio/Electronics/ARM/_Library/u8x8_8x8.c ****   
   5:/Users/imashio/Electronics/ARM/_Library/u8x8_8x8.c ****   font procedures, directly interfaces display procedures
   6:/Users/imashio/Electronics/ARM/_Library/u8x8_8x8.c ****   
   7:/Users/imashio/Electronics/ARM/_Library/u8x8_8x8.c ****   Universal 8bit Graphics Library (https://github.com/olikraus/u8g2/)
   8:/Users/imashio/Electronics/ARM/_Library/u8x8_8x8.c **** 
   9:/Users/imashio/Electronics/ARM/_Library/u8x8_8x8.c ****   Copyright (c) 2016, olikraus@gmail.com
  10:/Users/imashio/Electronics/ARM/_Library/u8x8_8x8.c ****   All rights reserved.
  11:/Users/imashio/Electronics/ARM/_Library/u8x8_8x8.c **** 
  12:/Users/imashio/Electronics/ARM/_Library/u8x8_8x8.c ****   Redistribution and use in source and binary forms, with or without modification, 
  13:/Users/imashio/Electronics/ARM/_Library/u8x8_8x8.c ****   are permitted provided that the following conditions are met:
  14:/Users/imashio/Electronics/ARM/_Library/u8x8_8x8.c **** 
  15:/Users/imashio/Electronics/ARM/_Library/u8x8_8x8.c ****   * Redistributions of source code must retain the above copyright notice, this list 
  16:/Users/imashio/Electronics/ARM/_Library/u8x8_8x8.c ****     of conditions and the following disclaimer.
  17:/Users/imashio/Electronics/ARM/_Library/u8x8_8x8.c ****     
  18:/Users/imashio/Electronics/ARM/_Library/u8x8_8x8.c ****   * Redistributions in binary form must reproduce the above copyright notice, this 
  19:/Users/imashio/Electronics/ARM/_Library/u8x8_8x8.c ****     list of conditions and the following disclaimer in the documentation and/or other 
  20:/Users/imashio/Electronics/ARM/_Library/u8x8_8x8.c ****     materials provided with the distribution.
  21:/Users/imashio/Electronics/ARM/_Library/u8x8_8x8.c **** 
  22:/Users/imashio/Electronics/ARM/_Library/u8x8_8x8.c ****   THIS SOFTWARE IS PROVIDED BY THE COPYRIGHT HOLDERS AND 
  23:/Users/imashio/Electronics/ARM/_Library/u8x8_8x8.c ****   CONTRIBUTORS "AS IS" AND ANY EXPRESS OR IMPLIED WARRANTIES, 
  24:/Users/imashio/Electronics/ARM/_Library/u8x8_8x8.c ****   INCLUDING, BUT NOT LIMITED TO, THE IMPLIED WARRANTIES OF 
  25:/Users/imashio/Electronics/ARM/_Library/u8x8_8x8.c ****   MERCHANTABILITY AND FITNESS FOR A PARTICULAR PURPOSE ARE 
  26:/Users/imashio/Electronics/ARM/_Library/u8x8_8x8.c ****   DISCLAIMED. IN NO EVENT SHALL THE COPYRIGHT HOLDER OR 
  27:/Users/imashio/Electronics/ARM/_Library/u8x8_8x8.c ****   CONTRIBUTORS BE LIABLE FOR ANY DIRECT, INDIRECT, INCIDENTAL, 
  28:/Users/imashio/Electronics/ARM/_Library/u8x8_8x8.c ****   SPECIAL, EXEMPLARY, OR CONSEQUENTIAL DAMAGES (INCLUDING, BUT 
  29:/Users/imashio/Electronics/ARM/_Library/u8x8_8x8.c ****   NOT LIMITED TO, PROCUREMENT OF SUBSTITUTE GOODS OR SERVICES; 
  30:/Users/imashio/Electronics/ARM/_Library/u8x8_8x8.c ****   LOSS OF USE, DATA, OR PROFITS; OR BUSINESS INTERRUPTION) HOWEVER 
  31:/Users/imashio/Electronics/ARM/_Library/u8x8_8x8.c ****   CAUSED AND ON ANY THEORY OF LIABILITY, WHETHER IN CONTRACT, 
ARM GAS  /var/folders/v3/wysfpd052nz8jkbx04pk0ym80000gn/T//ccYzDHzS.s 			page 2


  32:/Users/imashio/Electronics/ARM/_Library/u8x8_8x8.c ****   STRICT LIABILITY, OR TORT (INCLUDING NEGLIGENCE OR OTHERWISE) 
  33:/Users/imashio/Electronics/ARM/_Library/u8x8_8x8.c ****   ARISING IN ANY WAY OUT OF THE USE OF THIS SOFTWARE, EVEN IF 
  34:/Users/imashio/Electronics/ARM/_Library/u8x8_8x8.c ****   ADVISED OF THE POSSIBILITY OF SUCH DAMAGE.    
  35:/Users/imashio/Electronics/ARM/_Library/u8x8_8x8.c **** 
  36:/Users/imashio/Electronics/ARM/_Library/u8x8_8x8.c **** */
  37:/Users/imashio/Electronics/ARM/_Library/u8x8_8x8.c **** 
  38:/Users/imashio/Electronics/ARM/_Library/u8x8_8x8.c **** #include "u8x8.h"
  39:/Users/imashio/Electronics/ARM/_Library/u8x8_8x8.c **** 
  40:/Users/imashio/Electronics/ARM/_Library/u8x8_8x8.c **** #if defined(ESP8266)
  41:/Users/imashio/Electronics/ARM/_Library/u8x8_8x8.c **** uint8_t u8x8_pgm_read_esp(const uint8_t * addr) 
  42:/Users/imashio/Electronics/ARM/_Library/u8x8_8x8.c **** {
  43:/Users/imashio/Electronics/ARM/_Library/u8x8_8x8.c ****     uint32_t bytes;
  44:/Users/imashio/Electronics/ARM/_Library/u8x8_8x8.c ****     bytes = *(uint32_t*)((uint32_t)addr & ~3);
  45:/Users/imashio/Electronics/ARM/_Library/u8x8_8x8.c ****     return ((uint8_t*)&bytes)[(uint32_t)addr & 3];
  46:/Users/imashio/Electronics/ARM/_Library/u8x8_8x8.c **** }
  47:/Users/imashio/Electronics/ARM/_Library/u8x8_8x8.c **** #endif
  48:/Users/imashio/Electronics/ARM/_Library/u8x8_8x8.c **** 
  49:/Users/imashio/Electronics/ARM/_Library/u8x8_8x8.c **** 
  50:/Users/imashio/Electronics/ARM/_Library/u8x8_8x8.c **** void u8x8_SetFont(u8x8_t *u8x8, const uint8_t *font_8x8)
  51:/Users/imashio/Electronics/ARM/_Library/u8x8_8x8.c **** {
  52:/Users/imashio/Electronics/ARM/_Library/u8x8_8x8.c ****   u8x8->font = font_8x8;
  53:/Users/imashio/Electronics/ARM/_Library/u8x8_8x8.c **** }
  54:/Users/imashio/Electronics/ARM/_Library/u8x8_8x8.c **** 
  55:/Users/imashio/Electronics/ARM/_Library/u8x8_8x8.c **** /*
  56:/Users/imashio/Electronics/ARM/_Library/u8x8_8x8.c ****  Args:
  57:/Users/imashio/Electronics/ARM/_Library/u8x8_8x8.c ****    u8x8: ptr to u8x8 structure
  58:/Users/imashio/Electronics/ARM/_Library/u8x8_8x8.c ****    encoding: glyph for which the data is requested (must be between 0 and 255)
  59:/Users/imashio/Electronics/ARM/_Library/u8x8_8x8.c ****    buf: pointer to 8 bytes
  60:/Users/imashio/Electronics/ARM/_Library/u8x8_8x8.c **** */
  61:/Users/imashio/Electronics/ARM/_Library/u8x8_8x8.c **** static void u8x8_get_glyph_data(u8x8_t *u8x8, uint8_t encoding, uint8_t *buf) U8X8_NOINLINE;
  62:/Users/imashio/Electronics/ARM/_Library/u8x8_8x8.c **** static void u8x8_get_glyph_data(u8x8_t *u8x8, uint8_t encoding, uint8_t *buf) 
  63:/Users/imashio/Electronics/ARM/_Library/u8x8_8x8.c **** {
  64:/Users/imashio/Electronics/ARM/_Library/u8x8_8x8.c ****   uint8_t first, last, i;
  65:/Users/imashio/Electronics/ARM/_Library/u8x8_8x8.c ****   uint16_t offset;
  66:/Users/imashio/Electronics/ARM/_Library/u8x8_8x8.c ****   first = u8x8_pgm_read(u8x8->font+0);
  67:/Users/imashio/Electronics/ARM/_Library/u8x8_8x8.c ****   last = u8x8_pgm_read(u8x8->font+1);
  68:/Users/imashio/Electronics/ARM/_Library/u8x8_8x8.c ****   
  69:/Users/imashio/Electronics/ARM/_Library/u8x8_8x8.c ****   /* get the glyph bitmap from the font */
  70:/Users/imashio/Electronics/ARM/_Library/u8x8_8x8.c ****   if ( first <= encoding && encoding <= last )
  71:/Users/imashio/Electronics/ARM/_Library/u8x8_8x8.c ****   {
  72:/Users/imashio/Electronics/ARM/_Library/u8x8_8x8.c ****     offset = encoding;
  73:/Users/imashio/Electronics/ARM/_Library/u8x8_8x8.c ****     offset -= first;
  74:/Users/imashio/Electronics/ARM/_Library/u8x8_8x8.c ****     offset *= 8;
  75:/Users/imashio/Electronics/ARM/_Library/u8x8_8x8.c ****     offset +=2;
  76:/Users/imashio/Electronics/ARM/_Library/u8x8_8x8.c ****     for( i = 0; i < 8; i++ )
  77:/Users/imashio/Electronics/ARM/_Library/u8x8_8x8.c ****     {
  78:/Users/imashio/Electronics/ARM/_Library/u8x8_8x8.c ****       buf[i] = u8x8_pgm_read(u8x8->font+offset);
  79:/Users/imashio/Electronics/ARM/_Library/u8x8_8x8.c ****       offset++;
  80:/Users/imashio/Electronics/ARM/_Library/u8x8_8x8.c ****     }
  81:/Users/imashio/Electronics/ARM/_Library/u8x8_8x8.c ****   }
  82:/Users/imashio/Electronics/ARM/_Library/u8x8_8x8.c ****   else
  83:/Users/imashio/Electronics/ARM/_Library/u8x8_8x8.c ****   {
  84:/Users/imashio/Electronics/ARM/_Library/u8x8_8x8.c ****     for( i = 0; i < 8; i++ )
  85:/Users/imashio/Electronics/ARM/_Library/u8x8_8x8.c ****     {
  86:/Users/imashio/Electronics/ARM/_Library/u8x8_8x8.c ****       buf[i] = 0;
  87:/Users/imashio/Electronics/ARM/_Library/u8x8_8x8.c ****     }
  88:/Users/imashio/Electronics/ARM/_Library/u8x8_8x8.c ****   }
ARM GAS  /var/folders/v3/wysfpd052nz8jkbx04pk0ym80000gn/T//ccYzDHzS.s 			page 3


  89:/Users/imashio/Electronics/ARM/_Library/u8x8_8x8.c ****   
  90:/Users/imashio/Electronics/ARM/_Library/u8x8_8x8.c ****   /* invert the bitmap if required */
  91:/Users/imashio/Electronics/ARM/_Library/u8x8_8x8.c ****   if ( u8x8->is_font_inverse_mode )
  92:/Users/imashio/Electronics/ARM/_Library/u8x8_8x8.c ****   {
  93:/Users/imashio/Electronics/ARM/_Library/u8x8_8x8.c ****     for( i = 0; i < 8; i++ )
  94:/Users/imashio/Electronics/ARM/_Library/u8x8_8x8.c ****     {
  95:/Users/imashio/Electronics/ARM/_Library/u8x8_8x8.c ****       buf[i] ^= 255;
  96:/Users/imashio/Electronics/ARM/_Library/u8x8_8x8.c ****     }
  97:/Users/imashio/Electronics/ARM/_Library/u8x8_8x8.c ****   }
  98:/Users/imashio/Electronics/ARM/_Library/u8x8_8x8.c ****   
  99:/Users/imashio/Electronics/ARM/_Library/u8x8_8x8.c **** }
 100:/Users/imashio/Electronics/ARM/_Library/u8x8_8x8.c **** 
 101:/Users/imashio/Electronics/ARM/_Library/u8x8_8x8.c **** void u8x8_DrawGlyph(u8x8_t *u8x8, uint8_t x, uint8_t y, uint8_t encoding)
 102:/Users/imashio/Electronics/ARM/_Library/u8x8_8x8.c **** {
 103:/Users/imashio/Electronics/ARM/_Library/u8x8_8x8.c ****   uint8_t buf[8];
 104:/Users/imashio/Electronics/ARM/_Library/u8x8_8x8.c ****   u8x8_get_glyph_data(u8x8, encoding, buf);
 105:/Users/imashio/Electronics/ARM/_Library/u8x8_8x8.c ****   u8x8_DrawTile(u8x8, x, y, 1, buf);
 106:/Users/imashio/Electronics/ARM/_Library/u8x8_8x8.c **** }
 107:/Users/imashio/Electronics/ARM/_Library/u8x8_8x8.c **** 
 108:/Users/imashio/Electronics/ARM/_Library/u8x8_8x8.c **** 
 109:/Users/imashio/Electronics/ARM/_Library/u8x8_8x8.c **** /*
 110:/Users/imashio/Electronics/ARM/_Library/u8x8_8x8.c ****   Source: http://graphics.stanford.edu/~seander/bithacks.html
 111:/Users/imashio/Electronics/ARM/_Library/u8x8_8x8.c **** 	Section: Interleave bits by Binary Magic Numbers 
 112:/Users/imashio/Electronics/ARM/_Library/u8x8_8x8.c ****    Original codes is here:
 113:/Users/imashio/Electronics/ARM/_Library/u8x8_8x8.c **** 		static const unsigned int B[] = {0x55555555, 0x33333333, 0x0F0F0F0F, 0x00FF00FF};
 114:/Users/imashio/Electronics/ARM/_Library/u8x8_8x8.c **** 		static const unsigned int S[] = {1, 2, 4, 8};
 115:/Users/imashio/Electronics/ARM/_Library/u8x8_8x8.c **** 
 116:/Users/imashio/Electronics/ARM/_Library/u8x8_8x8.c **** 		unsigned int x; // Interleave lower 16 bits of x and y, so the bits of x
 117:/Users/imashio/Electronics/ARM/_Library/u8x8_8x8.c **** 		unsigned int y; // are in the even positions and bits from y in the odd;
 118:/Users/imashio/Electronics/ARM/_Library/u8x8_8x8.c **** 		unsigned int z; // z gets the resulting 32-bit Morton Number.  
 119:/Users/imashio/Electronics/ARM/_Library/u8x8_8x8.c **** 				// x and y must initially be less than 65536.
 120:/Users/imashio/Electronics/ARM/_Library/u8x8_8x8.c **** 
 121:/Users/imashio/Electronics/ARM/_Library/u8x8_8x8.c **** 		x = (x | (x << S[3])) & B[3];
 122:/Users/imashio/Electronics/ARM/_Library/u8x8_8x8.c **** 		x = (x | (x << S[2])) & B[2];
 123:/Users/imashio/Electronics/ARM/_Library/u8x8_8x8.c **** 		x = (x | (x << S[1])) & B[1];
 124:/Users/imashio/Electronics/ARM/_Library/u8x8_8x8.c **** 		x = (x | (x << S[0])) & B[0];
 125:/Users/imashio/Electronics/ARM/_Library/u8x8_8x8.c **** 
 126:/Users/imashio/Electronics/ARM/_Library/u8x8_8x8.c **** 		y = (y | (y << S[3])) & B[3];
 127:/Users/imashio/Electronics/ARM/_Library/u8x8_8x8.c **** 		y = (y | (y << S[2])) & B[2];
 128:/Users/imashio/Electronics/ARM/_Library/u8x8_8x8.c **** 		y = (y | (y << S[1])) & B[1];
 129:/Users/imashio/Electronics/ARM/_Library/u8x8_8x8.c **** 		y = (y | (y << S[0])) & B[0];
 130:/Users/imashio/Electronics/ARM/_Library/u8x8_8x8.c **** 
 131:/Users/imashio/Electronics/ARM/_Library/u8x8_8x8.c **** 		z = x | (y << 1);
 132:/Users/imashio/Electronics/ARM/_Library/u8x8_8x8.c **** */
 133:/Users/imashio/Electronics/ARM/_Library/u8x8_8x8.c **** uint16_t u8x8_upscale_byte(uint8_t x) 
 134:/Users/imashio/Electronics/ARM/_Library/u8x8_8x8.c **** {
 135:/Users/imashio/Electronics/ARM/_Library/u8x8_8x8.c **** 	uint16_t y = x;
 136:/Users/imashio/Electronics/ARM/_Library/u8x8_8x8.c **** 	y |= (y << 4);		// x = (x | (x << S[2])) & B[2];
 137:/Users/imashio/Electronics/ARM/_Library/u8x8_8x8.c **** 	y &= 0x0f0f;
 138:/Users/imashio/Electronics/ARM/_Library/u8x8_8x8.c **** 	y |= (y << 2);		// x = (x | (x << S[1])) & B[1];
 139:/Users/imashio/Electronics/ARM/_Library/u8x8_8x8.c **** 	y &= 0x3333;
 140:/Users/imashio/Electronics/ARM/_Library/u8x8_8x8.c **** 	y |= (y << 1);		// x = (x | (x << S[0])) & B[0];
 141:/Users/imashio/Electronics/ARM/_Library/u8x8_8x8.c **** 	y &= 0x5555;
 142:/Users/imashio/Electronics/ARM/_Library/u8x8_8x8.c ****   
 143:/Users/imashio/Electronics/ARM/_Library/u8x8_8x8.c **** 	y |= (y << 1);		// z = x | (y << 1);
 144:/Users/imashio/Electronics/ARM/_Library/u8x8_8x8.c **** 	return y;
 145:/Users/imashio/Electronics/ARM/_Library/u8x8_8x8.c **** }
ARM GAS  /var/folders/v3/wysfpd052nz8jkbx04pk0ym80000gn/T//ccYzDHzS.s 			page 4


 146:/Users/imashio/Electronics/ARM/_Library/u8x8_8x8.c **** 
 147:/Users/imashio/Electronics/ARM/_Library/u8x8_8x8.c **** static void u8x8_upscale_buf(uint8_t *src, uint8_t *dest) U8X8_NOINLINE;
 148:/Users/imashio/Electronics/ARM/_Library/u8x8_8x8.c **** static void u8x8_upscale_buf(uint8_t *src, uint8_t *dest)
 149:/Users/imashio/Electronics/ARM/_Library/u8x8_8x8.c **** {
  28              		.loc 1 149 0
  29              		.cfi_startproc
  30              		@ args = 0, pretend = 0, frame = 0
  31              		@ frame_needed = 0, uses_anonymous_args = 0
  32              		@ link register save eliminated.
  33              	.LVL0:
  34 0000 8B1C     		adds	r3, r1, #2
  35 0002 0138     		subs	r0, r0, #1
  36              	.LVL1:
  37 0004 0A31     		adds	r1, r1, #10
  38              	.LVL2:
  39              	.L2:
 150:/Users/imashio/Electronics/ARM/_Library/u8x8_8x8.c ****   uint8_t i = 4;  
 151:/Users/imashio/Electronics/ARM/_Library/u8x8_8x8.c ****   do 
 152:/Users/imashio/Electronics/ARM/_Library/u8x8_8x8.c ****   {
 153:/Users/imashio/Electronics/ARM/_Library/u8x8_8x8.c ****     *dest++ = *src;
  40              		.loc 1 153 0 discriminator 1
  41 0006 10F8012F 		ldrb	r2, [r0, #1]!	@ zero_extendqisi2
  42              	.LVL3:
  43 000a 03F8022C 		strb	r2, [r3, #-2]
  44              	.LVL4:
 154:/Users/imashio/Electronics/ARM/_Library/u8x8_8x8.c ****     *dest++ = *src++;
  45              		.loc 1 154 0 discriminator 1
  46 000e 0278     		ldrb	r2, [r0]	@ zero_extendqisi2
  47 0010 03F8012C 		strb	r2, [r3, #-1]
  48              	.LVL5:
  49 0014 0233     		adds	r3, r3, #2
  50              	.LVL6:
 155:/Users/imashio/Electronics/ARM/_Library/u8x8_8x8.c ****     i--;
 156:/Users/imashio/Electronics/ARM/_Library/u8x8_8x8.c ****   } while( i > 0 );
  51              		.loc 1 156 0 discriminator 1
  52 0016 8B42     		cmp	r3, r1
  53 0018 F5D1     		bne	.L2
 157:/Users/imashio/Electronics/ARM/_Library/u8x8_8x8.c **** }
  54              		.loc 1 157 0
  55 001a 7047     		bx	lr
  56              		.cfi_endproc
  57              	.LFE4:
  59              		.section	.text.u8x8_ascii_next,"ax",%progbits
  60              		.align	1
  61              		.p2align 2,,3
  62              		.global	u8x8_ascii_next
  63              		.syntax unified
  64              		.thumb
  65              		.thumb_func
  66              		.fpu fpv4-sp-d16
  68              	u8x8_ascii_next:
  69              	.LFB7:
 158:/Users/imashio/Electronics/ARM/_Library/u8x8_8x8.c **** 
 159:/Users/imashio/Electronics/ARM/_Library/u8x8_8x8.c **** void u8x8_Draw2x2Glyph(u8x8_t *u8x8, uint8_t x, uint8_t y, uint8_t encoding)
 160:/Users/imashio/Electronics/ARM/_Library/u8x8_8x8.c **** {
 161:/Users/imashio/Electronics/ARM/_Library/u8x8_8x8.c ****   uint8_t i;
 162:/Users/imashio/Electronics/ARM/_Library/u8x8_8x8.c ****   uint16_t t;
ARM GAS  /var/folders/v3/wysfpd052nz8jkbx04pk0ym80000gn/T//ccYzDHzS.s 			page 5


 163:/Users/imashio/Electronics/ARM/_Library/u8x8_8x8.c ****   uint8_t buf[8];
 164:/Users/imashio/Electronics/ARM/_Library/u8x8_8x8.c ****   uint8_t buf1[8];
 165:/Users/imashio/Electronics/ARM/_Library/u8x8_8x8.c ****   uint8_t buf2[8];
 166:/Users/imashio/Electronics/ARM/_Library/u8x8_8x8.c ****   u8x8_get_glyph_data(u8x8, encoding, buf);
 167:/Users/imashio/Electronics/ARM/_Library/u8x8_8x8.c ****   for( i = 0; i < 8; i ++ )
 168:/Users/imashio/Electronics/ARM/_Library/u8x8_8x8.c ****   {
 169:/Users/imashio/Electronics/ARM/_Library/u8x8_8x8.c ****       t = u8x8_upscale_byte(buf[i]);
 170:/Users/imashio/Electronics/ARM/_Library/u8x8_8x8.c ****       buf1[i] = t >> 8;
 171:/Users/imashio/Electronics/ARM/_Library/u8x8_8x8.c ****       buf2[i] = t & 255;
 172:/Users/imashio/Electronics/ARM/_Library/u8x8_8x8.c ****   }
 173:/Users/imashio/Electronics/ARM/_Library/u8x8_8x8.c ****   u8x8_upscale_buf(buf2, buf);
 174:/Users/imashio/Electronics/ARM/_Library/u8x8_8x8.c ****   u8x8_DrawTile(u8x8, x, y, 1, buf);
 175:/Users/imashio/Electronics/ARM/_Library/u8x8_8x8.c ****   
 176:/Users/imashio/Electronics/ARM/_Library/u8x8_8x8.c ****   u8x8_upscale_buf(buf2+4, buf);
 177:/Users/imashio/Electronics/ARM/_Library/u8x8_8x8.c ****   u8x8_DrawTile(u8x8, x+1, y, 1, buf);
 178:/Users/imashio/Electronics/ARM/_Library/u8x8_8x8.c ****   
 179:/Users/imashio/Electronics/ARM/_Library/u8x8_8x8.c ****   u8x8_upscale_buf(buf1, buf);
 180:/Users/imashio/Electronics/ARM/_Library/u8x8_8x8.c ****   u8x8_DrawTile(u8x8, x, y+1, 1, buf);
 181:/Users/imashio/Electronics/ARM/_Library/u8x8_8x8.c ****   
 182:/Users/imashio/Electronics/ARM/_Library/u8x8_8x8.c ****   u8x8_upscale_buf(buf1+4, buf);
 183:/Users/imashio/Electronics/ARM/_Library/u8x8_8x8.c ****   u8x8_DrawTile(u8x8, x+1, y+1, 1, buf);  
 184:/Users/imashio/Electronics/ARM/_Library/u8x8_8x8.c **** }
 185:/Users/imashio/Electronics/ARM/_Library/u8x8_8x8.c **** 
 186:/Users/imashio/Electronics/ARM/_Library/u8x8_8x8.c **** 
 187:/Users/imashio/Electronics/ARM/_Library/u8x8_8x8.c **** /*
 188:/Users/imashio/Electronics/ARM/_Library/u8x8_8x8.c **** source: https://en.wikipedia.org/wiki/UTF-8
 189:/Users/imashio/Electronics/ARM/_Library/u8x8_8x8.c **** Bits	from 		to			bytes	Byte 1 		Byte 2 		Byte 3 		Byte 4 		Byte 5 		Byte 6
 190:/Users/imashio/Electronics/ARM/_Library/u8x8_8x8.c ****   7 	U+0000 		U+007F 		1 		0xxxxxxx
 191:/Users/imashio/Electronics/ARM/_Library/u8x8_8x8.c **** 11 	U+0080 		U+07FF 		2 		110xxxxx 	10xxxxxx
 192:/Users/imashio/Electronics/ARM/_Library/u8x8_8x8.c **** 16 	U+0800 		U+FFFF 		3 		1110xxxx 	10xxxxxx 	10xxxxxx
 193:/Users/imashio/Electronics/ARM/_Library/u8x8_8x8.c **** 21 	U+10000 	U+1FFFFF 	4 		11110xxx 	10xxxxxx 	10xxxxxx 	10xxxxxx
 194:/Users/imashio/Electronics/ARM/_Library/u8x8_8x8.c **** 26 	U+200000 	U+3FFFFFF 	5 		111110xx 	10xxxxxx 	10xxxxxx 	10xxxxxx 	10xxxxxx
 195:/Users/imashio/Electronics/ARM/_Library/u8x8_8x8.c **** 31 	U+4000000 	U+7FFFFFFF 	6 		1111110x 	10xxxxxx 	10xxxxxx 	10xxxxxx 	10xxxxxx 	10xxxxxx  
 196:/Users/imashio/Electronics/ARM/_Library/u8x8_8x8.c **** 
 197:/Users/imashio/Electronics/ARM/_Library/u8x8_8x8.c **** 
 198:/Users/imashio/Electronics/ARM/_Library/u8x8_8x8.c **** */
 199:/Users/imashio/Electronics/ARM/_Library/u8x8_8x8.c **** 
 200:/Users/imashio/Electronics/ARM/_Library/u8x8_8x8.c **** /* reset the internal state machine */
 201:/Users/imashio/Electronics/ARM/_Library/u8x8_8x8.c **** void u8x8_utf8_init(u8x8_t *u8x8)
 202:/Users/imashio/Electronics/ARM/_Library/u8x8_8x8.c **** {
 203:/Users/imashio/Electronics/ARM/_Library/u8x8_8x8.c ****   u8x8->utf8_state = 0;	/* also reset during u8x8_SetupDefaults() */
 204:/Users/imashio/Electronics/ARM/_Library/u8x8_8x8.c **** }
 205:/Users/imashio/Electronics/ARM/_Library/u8x8_8x8.c **** 
 206:/Users/imashio/Electronics/ARM/_Library/u8x8_8x8.c **** uint16_t u8x8_ascii_next(U8X8_UNUSED u8x8_t *u8x8, uint8_t b)
 207:/Users/imashio/Electronics/ARM/_Library/u8x8_8x8.c **** {
  70              		.loc 1 207 0
  71              		.cfi_startproc
  72              		@ args = 0, pretend = 0, frame = 0
  73              		@ frame_needed = 0, uses_anonymous_args = 0
  74              		@ link register save eliminated.
  75              	.LVL7:
 208:/Users/imashio/Electronics/ARM/_Library/u8x8_8x8.c ****   if ( b == 0 || b == '\n' ) /* '\n' terminates the string to support the string list procedures */
  76              		.loc 1 208 0
  77 0000 19B1     		cbz	r1, .L8
  78              		.loc 1 208 0 is_stmt 0 discriminator 1
  79 0002 0A29     		cmp	r1, #10
  80 0004 01D0     		beq	.L8
ARM GAS  /var/folders/v3/wysfpd052nz8jkbx04pk0ym80000gn/T//ccYzDHzS.s 			page 6


 209:/Users/imashio/Electronics/ARM/_Library/u8x8_8x8.c ****     return 0x0ffff;	/* end of string detected*/
 210:/Users/imashio/Electronics/ARM/_Library/u8x8_8x8.c ****   return b;
  81              		.loc 1 210 0 is_stmt 1
  82 0006 88B2     		uxth	r0, r1
  83              	.LVL8:
  84 0008 7047     		bx	lr
  85              	.LVL9:
  86              	.L8:
 209:/Users/imashio/Electronics/ARM/_Library/u8x8_8x8.c ****     return 0x0ffff;	/* end of string detected*/
  87              		.loc 1 209 0
  88 000a 4FF6FF70 		movw	r0, #65535
  89              	.LVL10:
 211:/Users/imashio/Electronics/ARM/_Library/u8x8_8x8.c **** }
  90              		.loc 1 211 0
  91 000e 7047     		bx	lr
  92              		.cfi_endproc
  93              	.LFE7:
  95              		.section	.text.u8x8_get_glyph_data.isra.0,"ax",%progbits
  96              		.align	1
  97              		.p2align 2,,3
  98              		.syntax unified
  99              		.thumb
 100              		.thumb_func
 101              		.fpu fpv4-sp-d16
 103              	u8x8_get_glyph_data.isra.0:
 104              	.LFB16:
  62:/Users/imashio/Electronics/ARM/_Library/u8x8_8x8.c **** {
 105              		.loc 1 62 0
 106              		.cfi_startproc
 107              		@ args = 0, pretend = 0, frame = 0
 108              		@ frame_needed = 0, uses_anonymous_args = 0
 109              		@ link register save eliminated.
 110              	.LVL11:
 111 0000 F0B4     		push	{r4, r5, r6, r7}
 112              	.LCFI0:
 113              		.cfi_def_cfa_offset 16
 114              		.cfi_offset 4, -16
 115              		.cfi_offset 5, -12
 116              		.cfi_offset 6, -8
 117              		.cfi_offset 7, -4
  66:/Users/imashio/Electronics/ARM/_Library/u8x8_8x8.c ****   last = u8x8_pgm_read(u8x8->font+1);
 118              		.loc 1 66 0
 119 0002 0668     		ldr	r6, [r0]
 120 0004 3578     		ldrb	r5, [r6]	@ zero_extendqisi2
 121              	.LVL12:
  70:/Users/imashio/Electronics/ARM/_Library/u8x8_8x8.c ****   {
 122              		.loc 1 70 0
 123 0006 9542     		cmp	r5, r2
 124 0008 22D8     		bhi	.L10
 125 000a 7478     		ldrb	r4, [r6, #1]	@ zero_extendqisi2
 126 000c 9442     		cmp	r4, r2
 127 000e 1FD3     		bcc	.L10
 128              	.LVL13:
  73:/Users/imashio/Electronics/ARM/_Library/u8x8_8x8.c ****     offset *= 8;
 129              		.loc 1 73 0
 130 0010 551B     		subs	r5, r2, r5
 131              	.LVL14:
ARM GAS  /var/folders/v3/wysfpd052nz8jkbx04pk0ym80000gn/T//ccYzDHzS.s 			page 7


 132 0012 ADB2     		uxth	r5, r5
 133              	.LVL15:
  74:/Users/imashio/Electronics/ARM/_Library/u8x8_8x8.c ****     offset +=2;
 134              		.loc 1 74 0
 135 0014 ED00     		lsls	r5, r5, #3
 136              	.LVL16:
 137 0016 ADB2     		uxth	r5, r5
 138              	.LVL17:
  75:/Users/imashio/Electronics/ARM/_Library/u8x8_8x8.c ****     for( i = 0; i < 8; i++ )
 139              		.loc 1 75 0
 140 0018 AC1C     		adds	r4, r5, #2
 141 001a 5A1E     		subs	r2, r3, #1
 142              	.LVL18:
 143 001c 0A35     		adds	r5, r5, #10
 144              	.LVL19:
 145 001e A4B2     		uxth	r4, r4
 146              	.LVL20:
 147 0020 ADB2     		uxth	r5, r5
 148 0022 1746     		mov	r7, r2
 149 0024 00E0     		b	.L12
 150              	.LVL21:
 151              	.L22:
 152 0026 0668     		ldr	r6, [r0]
 153              	.L12:
  79:/Users/imashio/Electronics/ARM/_Library/u8x8_8x8.c ****     }
 154              		.loc 1 79 0
 155 0028 04F1010C 		add	ip, r4, #1
  78:/Users/imashio/Electronics/ARM/_Library/u8x8_8x8.c ****       offset++;
 156              		.loc 1 78 0
 157 002c 345D     		ldrb	r4, [r6, r4]	@ zero_extendqisi2
 158              	.LVL22:
 159 002e 07F8014F 		strb	r4, [r7, #1]!
  79:/Users/imashio/Electronics/ARM/_Library/u8x8_8x8.c ****     }
 160              		.loc 1 79 0
 161 0032 1FFA8CF4 		uxth	r4, ip
 162              	.LVL23:
  76:/Users/imashio/Electronics/ARM/_Library/u8x8_8x8.c ****     {
 163              		.loc 1 76 0
 164 0036 AC42     		cmp	r4, r5
 165 0038 F5D1     		bne	.L22
 166              	.LVL24:
 167              	.L11:
  91:/Users/imashio/Electronics/ARM/_Library/u8x8_8x8.c ****   {
 168              		.loc 1 91 0
 169 003a 0978     		ldrb	r1, [r1]	@ zero_extendqisi2
 170 003c 31B1     		cbz	r1, .L9
 171 003e 0733     		adds	r3, r3, #7
 172              	.LVL25:
 173              	.L15:
  95:/Users/imashio/Electronics/ARM/_Library/u8x8_8x8.c ****     }
 174              		.loc 1 95 0
 175 0040 12F8011F 		ldrb	r1, [r2, #1]!	@ zero_extendqisi2
 176              	.LVL26:
 177 0044 C943     		mvns	r1, r1
  93:/Users/imashio/Electronics/ARM/_Library/u8x8_8x8.c ****     {
 178              		.loc 1 93 0
 179 0046 9342     		cmp	r3, r2
ARM GAS  /var/folders/v3/wysfpd052nz8jkbx04pk0ym80000gn/T//ccYzDHzS.s 			page 8


  95:/Users/imashio/Electronics/ARM/_Library/u8x8_8x8.c ****     }
 180              		.loc 1 95 0
 181 0048 1170     		strb	r1, [r2]
 182              	.LVL27:
  93:/Users/imashio/Electronics/ARM/_Library/u8x8_8x8.c ****     {
 183              		.loc 1 93 0
 184 004a F9D1     		bne	.L15
 185              	.LVL28:
 186              	.L9:
  99:/Users/imashio/Electronics/ARM/_Library/u8x8_8x8.c **** 
 187              		.loc 1 99 0
 188 004c F0BC     		pop	{r4, r5, r6, r7}
 189              	.LCFI1:
 190              		.cfi_remember_state
 191              		.cfi_restore 7
 192              		.cfi_restore 6
 193              		.cfi_restore 5
 194              		.cfi_restore 4
 195              		.cfi_def_cfa_offset 0
 196 004e 7047     		bx	lr
 197              	.LVL29:
 198              	.L10:
 199              	.LCFI2:
 200              		.cfi_restore_state
 201 0050 5A1E     		subs	r2, r3, #1
 202              	.LVL30:
 203 0052 1046     		mov	r0, r2
 204 0054 DD1D     		adds	r5, r3, #7
 205              	.LVL31:
  86:/Users/imashio/Electronics/ARM/_Library/u8x8_8x8.c ****     }
 206              		.loc 1 86 0
 207 0056 0024     		movs	r4, #0
 208              	.LVL32:
 209              	.L13:
 210 0058 00F8014F 		strb	r4, [r0, #1]!
 211              	.LVL33:
  84:/Users/imashio/Electronics/ARM/_Library/u8x8_8x8.c ****     {
 212              		.loc 1 84 0
 213 005c A842     		cmp	r0, r5
 214 005e FBD1     		bne	.L13
 215 0060 EBE7     		b	.L11
 216              		.cfi_endproc
 217              	.LFE16:
 219 0062 00BF     		.section	.text.u8x8_utf8_next,"ax",%progbits
 220              		.align	1
 221              		.p2align 2,,3
 222              		.global	u8x8_utf8_next
 223              		.syntax unified
 224              		.thumb
 225              		.thumb_func
 226              		.fpu fpv4-sp-d16
 228              	u8x8_utf8_next:
 229              	.LFB8:
 212:/Users/imashio/Electronics/ARM/_Library/u8x8_8x8.c **** 
 213:/Users/imashio/Electronics/ARM/_Library/u8x8_8x8.c **** /*
 214:/Users/imashio/Electronics/ARM/_Library/u8x8_8x8.c ****   pass a byte from an utf8 encoded string to the utf8 decoder state machine
 215:/Users/imashio/Electronics/ARM/_Library/u8x8_8x8.c ****   returns 
ARM GAS  /var/folders/v3/wysfpd052nz8jkbx04pk0ym80000gn/T//ccYzDHzS.s 			page 9


 216:/Users/imashio/Electronics/ARM/_Library/u8x8_8x8.c ****     0x0fffe: no glyph, just continue
 217:/Users/imashio/Electronics/ARM/_Library/u8x8_8x8.c ****     0x0ffff: end of string
 218:/Users/imashio/Electronics/ARM/_Library/u8x8_8x8.c ****     anything else: The decoded encoding
 219:/Users/imashio/Electronics/ARM/_Library/u8x8_8x8.c **** */
 220:/Users/imashio/Electronics/ARM/_Library/u8x8_8x8.c **** uint16_t u8x8_utf8_next(u8x8_t *u8x8, uint8_t b)
 221:/Users/imashio/Electronics/ARM/_Library/u8x8_8x8.c **** {
 230              		.loc 1 221 0
 231              		.cfi_startproc
 232              		@ args = 0, pretend = 0, frame = 0
 233              		@ frame_needed = 0, uses_anonymous_args = 0
 234              		@ link register save eliminated.
 235              	.LVL34:
 222:/Users/imashio/Electronics/ARM/_Library/u8x8_8x8.c ****   if ( b == 0 || b == '\n' )	/* '\n' terminates the string to support the string list procedures */
 236              		.loc 1 222 0
 237 0000 11B3     		cbz	r1, .L33
 238              		.loc 1 222 0 is_stmt 0 discriminator 1
 239 0002 0A29     		cmp	r1, #10
 240 0004 20D0     		beq	.L33
 223:/Users/imashio/Electronics/ARM/_Library/u8x8_8x8.c ****     return 0x0ffff;	/* end of string detected, pending UTF8 is discarded */
 224:/Users/imashio/Electronics/ARM/_Library/u8x8_8x8.c ****   if ( u8x8->utf8_state == 0 )
 241              		.loc 1 224 0 is_stmt 1
 242 0006 90F82330 		ldrb	r3, [r0, #35]	@ zero_extendqisi2
 243 000a 8BB1     		cbz	r3, .L35
 225:/Users/imashio/Electronics/ARM/_Library/u8x8_8x8.c ****   {
 226:/Users/imashio/Electronics/ARM/_Library/u8x8_8x8.c ****     if ( b >= 0xfc )	/* 6 byte sequence */
 227:/Users/imashio/Electronics/ARM/_Library/u8x8_8x8.c ****     {
 228:/Users/imashio/Electronics/ARM/_Library/u8x8_8x8.c ****       u8x8->utf8_state = 5;
 229:/Users/imashio/Electronics/ARM/_Library/u8x8_8x8.c ****       b &= 1;
 230:/Users/imashio/Electronics/ARM/_Library/u8x8_8x8.c ****     }
 231:/Users/imashio/Electronics/ARM/_Library/u8x8_8x8.c ****     else if ( b >= 0xf8 )
 232:/Users/imashio/Electronics/ARM/_Library/u8x8_8x8.c ****     {
 233:/Users/imashio/Electronics/ARM/_Library/u8x8_8x8.c ****       u8x8->utf8_state = 4;
 234:/Users/imashio/Electronics/ARM/_Library/u8x8_8x8.c ****       b &= 3;
 235:/Users/imashio/Electronics/ARM/_Library/u8x8_8x8.c ****     }
 236:/Users/imashio/Electronics/ARM/_Library/u8x8_8x8.c ****     else if ( b >= 0xf0 )
 237:/Users/imashio/Electronics/ARM/_Library/u8x8_8x8.c ****     {
 238:/Users/imashio/Electronics/ARM/_Library/u8x8_8x8.c ****       u8x8->utf8_state = 3;
 239:/Users/imashio/Electronics/ARM/_Library/u8x8_8x8.c ****       b &= 7;      
 240:/Users/imashio/Electronics/ARM/_Library/u8x8_8x8.c ****     }
 241:/Users/imashio/Electronics/ARM/_Library/u8x8_8x8.c ****     else if ( b >= 0xe0 )
 242:/Users/imashio/Electronics/ARM/_Library/u8x8_8x8.c ****     {
 243:/Users/imashio/Electronics/ARM/_Library/u8x8_8x8.c ****       u8x8->utf8_state = 2;
 244:/Users/imashio/Electronics/ARM/_Library/u8x8_8x8.c ****       b &= 15;
 245:/Users/imashio/Electronics/ARM/_Library/u8x8_8x8.c ****     }
 246:/Users/imashio/Electronics/ARM/_Library/u8x8_8x8.c ****     else if ( b >= 0xc0 )
 247:/Users/imashio/Electronics/ARM/_Library/u8x8_8x8.c ****     {
 248:/Users/imashio/Electronics/ARM/_Library/u8x8_8x8.c ****       u8x8->utf8_state = 1;
 249:/Users/imashio/Electronics/ARM/_Library/u8x8_8x8.c ****       b &= 0x01f;
 250:/Users/imashio/Electronics/ARM/_Library/u8x8_8x8.c ****     }
 251:/Users/imashio/Electronics/ARM/_Library/u8x8_8x8.c ****     else
 252:/Users/imashio/Electronics/ARM/_Library/u8x8_8x8.c ****     {
 253:/Users/imashio/Electronics/ARM/_Library/u8x8_8x8.c ****       /* do nothing, just use the value as encoding */
 254:/Users/imashio/Electronics/ARM/_Library/u8x8_8x8.c ****       return b;
 255:/Users/imashio/Electronics/ARM/_Library/u8x8_8x8.c ****     }
 256:/Users/imashio/Electronics/ARM/_Library/u8x8_8x8.c ****     u8x8->encoding = b;
 257:/Users/imashio/Electronics/ARM/_Library/u8x8_8x8.c ****     return 0x0fffe;
 258:/Users/imashio/Electronics/ARM/_Library/u8x8_8x8.c ****   }
ARM GAS  /var/folders/v3/wysfpd052nz8jkbx04pk0ym80000gn/T//ccYzDHzS.s 			page 10


 259:/Users/imashio/Electronics/ARM/_Library/u8x8_8x8.c ****   else
 260:/Users/imashio/Electronics/ARM/_Library/u8x8_8x8.c ****   {
 261:/Users/imashio/Electronics/ARM/_Library/u8x8_8x8.c ****     u8x8->utf8_state--;
 262:/Users/imashio/Electronics/ARM/_Library/u8x8_8x8.c ****     /* The case b < 0x080 (an illegal UTF8 encoding) is not checked here. */
 263:/Users/imashio/Electronics/ARM/_Library/u8x8_8x8.c ****     u8x8->encoding<<=6;
 244              		.loc 1 263 0
 245 000c 828B     		ldrh	r2, [r0, #28]
 264:/Users/imashio/Electronics/ARM/_Library/u8x8_8x8.c ****     b &= 0x03f;
 265:/Users/imashio/Electronics/ARM/_Library/u8x8_8x8.c ****     u8x8->encoding |= b;
 246              		.loc 1 265 0
 247 000e 01F03F01 		and	r1, r1, #63
 248              	.LVL35:
 249 0012 41EA8211 		orr	r1, r1, r2, lsl #6
 261:/Users/imashio/Electronics/ARM/_Library/u8x8_8x8.c ****     /* The case b < 0x080 (an illegal UTF8 encoding) is not checked here. */
 250              		.loc 1 261 0
 251 0016 013B     		subs	r3, r3, #1
 252 0018 DBB2     		uxtb	r3, r3
 253              		.loc 1 265 0
 254 001a 89B2     		uxth	r1, r1
 266:/Users/imashio/Electronics/ARM/_Library/u8x8_8x8.c ****     if ( u8x8->utf8_state != 0 )
 267:/Users/imashio/Electronics/ARM/_Library/u8x8_8x8.c ****       return 0x0fffe;	/* nothing to do yet */
 255              		.loc 1 267 0
 256 001c 4FF6FE72 		movw	r2, #65534
 265:/Users/imashio/Electronics/ARM/_Library/u8x8_8x8.c ****     if ( u8x8->utf8_state != 0 )
 257              		.loc 1 265 0
 258 0020 8183     		strh	r1, [r0, #28]	@ movhi
 261:/Users/imashio/Electronics/ARM/_Library/u8x8_8x8.c ****     /* The case b < 0x080 (an illegal UTF8 encoding) is not checked here. */
 259              		.loc 1 261 0
 260 0022 80F82330 		strb	r3, [r0, #35]
 261              	.LVL36:
 262              		.loc 1 267 0
 263 0026 002B     		cmp	r3, #0
 264 0028 18BF     		it	ne
 265 002a 1146     		movne	r1, r2
 266              	.L24:
 268:/Users/imashio/Electronics/ARM/_Library/u8x8_8x8.c ****   }
 269:/Users/imashio/Electronics/ARM/_Library/u8x8_8x8.c ****   return u8x8->encoding;
 270:/Users/imashio/Electronics/ARM/_Library/u8x8_8x8.c **** }
 267              		.loc 1 270 0
 268 002c 0846     		mov	r0, r1
 269              	.LVL37:
 270 002e 7047     		bx	lr
 271              	.LVL38:
 272              	.L35:
 273              	.LBB10:
 274              	.LBB11:
 226:/Users/imashio/Electronics/ARM/_Library/u8x8_8x8.c ****     {
 275              		.loc 1 226 0
 276 0030 FB29     		cmp	r1, #251
 277 0032 0DD8     		bhi	.L36
 231:/Users/imashio/Electronics/ARM/_Library/u8x8_8x8.c ****     {
 278              		.loc 1 231 0
 279 0034 F729     		cmp	r1, #247
 280 0036 15D8     		bhi	.L37
 236:/Users/imashio/Electronics/ARM/_Library/u8x8_8x8.c ****     {
 281              		.loc 1 236 0
 282 0038 EF29     		cmp	r1, #239
ARM GAS  /var/folders/v3/wysfpd052nz8jkbx04pk0ym80000gn/T//ccYzDHzS.s 			page 11


 283 003a 1FD8     		bhi	.L38
 241:/Users/imashio/Electronics/ARM/_Library/u8x8_8x8.c ****     {
 284              		.loc 1 241 0
 285 003c DF29     		cmp	r1, #223
 286 003e 23D8     		bhi	.L39
 246:/Users/imashio/Electronics/ARM/_Library/u8x8_8x8.c ****     {
 287              		.loc 1 246 0
 288 0040 BF29     		cmp	r1, #191
 289 0042 15D8     		bhi	.L40
 254:/Users/imashio/Electronics/ARM/_Library/u8x8_8x8.c ****     }
 290              		.loc 1 254 0
 291 0044 89B2     		uxth	r1, r1
 292              	.LVL39:
 293 0046 F1E7     		b	.L24
 294              	.LVL40:
 295              	.L33:
 296              	.LBE11:
 297              	.LBE10:
 223:/Users/imashio/Electronics/ARM/_Library/u8x8_8x8.c ****   if ( u8x8->utf8_state == 0 )
 298              		.loc 1 223 0
 299 0048 4FF6FF71 		movw	r1, #65535
 300              	.LVL41:
 301              		.loc 1 270 0
 302 004c 0846     		mov	r0, r1
 303              	.LVL42:
 304 004e 7047     		bx	lr
 305              	.LVL43:
 306              	.L36:
 307              	.LBB14:
 308              	.LBB12:
 228:/Users/imashio/Electronics/ARM/_Library/u8x8_8x8.c ****       b &= 1;
 309              		.loc 1 228 0
 310 0050 0523     		movs	r3, #5
 229:/Users/imashio/Electronics/ARM/_Library/u8x8_8x8.c ****     }
 311              		.loc 1 229 0
 312 0052 01F00101 		and	r1, r1, #1
 313              	.LVL44:
 228:/Users/imashio/Electronics/ARM/_Library/u8x8_8x8.c ****       b &= 1;
 314              		.loc 1 228 0
 315 0056 80F82330 		strb	r3, [r0, #35]
 316              	.L27:
 256:/Users/imashio/Electronics/ARM/_Library/u8x8_8x8.c ****     return 0x0fffe;
 317              		.loc 1 256 0
 318 005a 8183     		strh	r1, [r0, #28]	@ movhi
 257:/Users/imashio/Electronics/ARM/_Library/u8x8_8x8.c ****   }
 319              		.loc 1 257 0
 320 005c 4FF6FE71 		movw	r1, #65534
 321              	.LVL45:
 322              	.LBE12:
 323              	.LBE14:
 324              		.loc 1 270 0
 325 0060 0846     		mov	r0, r1
 326              	.LVL46:
 327 0062 7047     		bx	lr
 328              	.LVL47:
 329              	.L37:
 330              	.LBB15:
ARM GAS  /var/folders/v3/wysfpd052nz8jkbx04pk0ym80000gn/T//ccYzDHzS.s 			page 12


 331              	.LBB13:
 233:/Users/imashio/Electronics/ARM/_Library/u8x8_8x8.c ****       b &= 3;
 332              		.loc 1 233 0
 333 0064 0423     		movs	r3, #4
 234:/Users/imashio/Electronics/ARM/_Library/u8x8_8x8.c ****     }
 334              		.loc 1 234 0
 335 0066 01F00301 		and	r1, r1, #3
 336              	.LVL48:
 233:/Users/imashio/Electronics/ARM/_Library/u8x8_8x8.c ****       b &= 3;
 337              		.loc 1 233 0
 338 006a 80F82330 		strb	r3, [r0, #35]
 339 006e F4E7     		b	.L27
 340              	.LVL49:
 341              	.L40:
 248:/Users/imashio/Electronics/ARM/_Library/u8x8_8x8.c ****       b &= 0x01f;
 342              		.loc 1 248 0
 343 0070 0123     		movs	r3, #1
 249:/Users/imashio/Electronics/ARM/_Library/u8x8_8x8.c ****     }
 344              		.loc 1 249 0
 345 0072 01F01F01 		and	r1, r1, #31
 346              	.LVL50:
 248:/Users/imashio/Electronics/ARM/_Library/u8x8_8x8.c ****       b &= 0x01f;
 347              		.loc 1 248 0
 348 0076 80F82330 		strb	r3, [r0, #35]
 349 007a EEE7     		b	.L27
 350              	.LVL51:
 351              	.L38:
 238:/Users/imashio/Electronics/ARM/_Library/u8x8_8x8.c ****       b &= 7;      
 352              		.loc 1 238 0
 353 007c 0323     		movs	r3, #3
 239:/Users/imashio/Electronics/ARM/_Library/u8x8_8x8.c ****     }
 354              		.loc 1 239 0
 355 007e 01F00701 		and	r1, r1, #7
 356              	.LVL52:
 238:/Users/imashio/Electronics/ARM/_Library/u8x8_8x8.c ****       b &= 7;      
 357              		.loc 1 238 0
 358 0082 80F82330 		strb	r3, [r0, #35]
 359 0086 E8E7     		b	.L27
 360              	.LVL53:
 361              	.L39:
 243:/Users/imashio/Electronics/ARM/_Library/u8x8_8x8.c ****       b &= 15;
 362              		.loc 1 243 0
 363 0088 0223     		movs	r3, #2
 244:/Users/imashio/Electronics/ARM/_Library/u8x8_8x8.c ****     }
 364              		.loc 1 244 0
 365 008a 01F00F01 		and	r1, r1, #15
 366              	.LVL54:
 243:/Users/imashio/Electronics/ARM/_Library/u8x8_8x8.c ****       b &= 15;
 367              		.loc 1 243 0
 368 008e 80F82330 		strb	r3, [r0, #35]
 369 0092 E2E7     		b	.L27
 370              	.LBE13:
 371              	.LBE15:
 372              		.cfi_endproc
 373              	.LFE8:
 375              		.section	.text.u8x8_SetFont,"ax",%progbits
 376              		.align	1
ARM GAS  /var/folders/v3/wysfpd052nz8jkbx04pk0ym80000gn/T//ccYzDHzS.s 			page 13


 377              		.p2align 2,,3
 378              		.global	u8x8_SetFont
 379              		.syntax unified
 380              		.thumb
 381              		.thumb_func
 382              		.fpu fpv4-sp-d16
 384              	u8x8_SetFont:
 385              	.LFB0:
  51:/Users/imashio/Electronics/ARM/_Library/u8x8_8x8.c ****   u8x8->font = font_8x8;
 386              		.loc 1 51 0
 387              		.cfi_startproc
 388              		@ args = 0, pretend = 0, frame = 0
 389              		@ frame_needed = 0, uses_anonymous_args = 0
 390              		@ link register save eliminated.
 391              	.LVL55:
  52:/Users/imashio/Electronics/ARM/_Library/u8x8_8x8.c **** }
 392              		.loc 1 52 0
 393 0000 8161     		str	r1, [r0, #24]
  53:/Users/imashio/Electronics/ARM/_Library/u8x8_8x8.c **** 
 394              		.loc 1 53 0
 395 0002 7047     		bx	lr
 396              		.cfi_endproc
 397              	.LFE0:
 399              		.section	.text.u8x8_DrawGlyph,"ax",%progbits
 400              		.align	1
 401              		.p2align 2,,3
 402              		.global	u8x8_DrawGlyph
 403              		.syntax unified
 404              		.thumb
 405              		.thumb_func
 406              		.fpu fpv4-sp-d16
 408              	u8x8_DrawGlyph:
 409              	.LFB2:
 102:/Users/imashio/Electronics/ARM/_Library/u8x8_8x8.c ****   uint8_t buf[8];
 410              		.loc 1 102 0
 411              		.cfi_startproc
 412              		@ args = 0, pretend = 0, frame = 8
 413              		@ frame_needed = 0, uses_anonymous_args = 0
 414              	.LVL56:
 415 0000 F0B5     		push	{r4, r5, r6, r7, lr}
 416              	.LCFI3:
 417              		.cfi_def_cfa_offset 20
 418              		.cfi_offset 4, -20
 419              		.cfi_offset 5, -16
 420              		.cfi_offset 6, -12
 421              		.cfi_offset 7, -8
 422              		.cfi_offset 14, -4
 423 0002 85B0     		sub	sp, sp, #20
 424              	.LCFI4:
 425              		.cfi_def_cfa_offset 40
 104:/Users/imashio/Electronics/ARM/_Library/u8x8_8x8.c ****   u8x8_DrawTile(u8x8, x, y, 1, buf);
 426              		.loc 1 104 0
 427 0004 02AD     		add	r5, sp, #8
 102:/Users/imashio/Electronics/ARM/_Library/u8x8_8x8.c ****   uint8_t buf[8];
 428              		.loc 1 102 0
 429 0006 0446     		mov	r4, r0
 430 0008 0E46     		mov	r6, r1
ARM GAS  /var/folders/v3/wysfpd052nz8jkbx04pk0ym80000gn/T//ccYzDHzS.s 			page 14


 431 000a 1746     		mov	r7, r2
 104:/Users/imashio/Electronics/ARM/_Library/u8x8_8x8.c ****   u8x8_DrawTile(u8x8, x, y, 1, buf);
 432              		.loc 1 104 0
 433 000c 00F11F01 		add	r1, r0, #31
 434              	.LVL57:
 435 0010 1A46     		mov	r2, r3
 436              	.LVL58:
 437 0012 1830     		adds	r0, r0, #24
 438              	.LVL59:
 439 0014 2B46     		mov	r3, r5
 440              	.LVL60:
 441 0016 FFF7FEFF 		bl	u8x8_get_glyph_data.isra.0
 442              	.LVL61:
 105:/Users/imashio/Electronics/ARM/_Library/u8x8_8x8.c **** }
 443              		.loc 1 105 0
 444 001a 0095     		str	r5, [sp]
 445 001c 3A46     		mov	r2, r7
 446 001e 3146     		mov	r1, r6
 447 0020 2046     		mov	r0, r4
 448 0022 0123     		movs	r3, #1
 449 0024 FFF7FEFF 		bl	u8x8_DrawTile
 450              	.LVL62:
 106:/Users/imashio/Electronics/ARM/_Library/u8x8_8x8.c **** 
 451              		.loc 1 106 0
 452 0028 05B0     		add	sp, sp, #20
 453              	.LCFI5:
 454              		.cfi_def_cfa_offset 20
 455              		@ sp needed
 456 002a F0BD     		pop	{r4, r5, r6, r7, pc}
 457              		.cfi_endproc
 458              	.LFE2:
 460              		.section	.text.u8x8_draw_string,"ax",%progbits
 461              		.align	1
 462              		.p2align 2,,3
 463              		.syntax unified
 464              		.thumb
 465              		.thumb_func
 466              		.fpu fpv4-sp-d16
 468              	u8x8_draw_string:
 469              	.LFB9:
 271:/Users/imashio/Electronics/ARM/_Library/u8x8_8x8.c **** 
 272:/Users/imashio/Electronics/ARM/_Library/u8x8_8x8.c **** 
 273:/Users/imashio/Electronics/ARM/_Library/u8x8_8x8.c **** 
 274:/Users/imashio/Electronics/ARM/_Library/u8x8_8x8.c **** static uint8_t u8x8_draw_string(u8x8_t *u8x8, uint8_t x, uint8_t y, const char *s) U8X8_NOINLINE;
 275:/Users/imashio/Electronics/ARM/_Library/u8x8_8x8.c **** static uint8_t u8x8_draw_string(u8x8_t *u8x8, uint8_t x, uint8_t y, const char *s)
 276:/Users/imashio/Electronics/ARM/_Library/u8x8_8x8.c **** {
 470              		.loc 1 276 0
 471              		.cfi_startproc
 472              		@ args = 0, pretend = 0, frame = 0
 473              		@ frame_needed = 0, uses_anonymous_args = 0
 474              	.LVL63:
 475 0000 2DE9F84F 		push	{r3, r4, r5, r6, r7, r8, r9, r10, fp, lr}
 476              	.LCFI6:
 477              		.cfi_def_cfa_offset 40
 478              		.cfi_offset 3, -40
 479              		.cfi_offset 4, -36
 480              		.cfi_offset 5, -32
ARM GAS  /var/folders/v3/wysfpd052nz8jkbx04pk0ym80000gn/T//ccYzDHzS.s 			page 15


 481              		.cfi_offset 6, -28
 482              		.cfi_offset 7, -24
 483              		.cfi_offset 8, -20
 484              		.cfi_offset 9, -16
 485              		.cfi_offset 10, -12
 486              		.cfi_offset 11, -8
 487              		.cfi_offset 14, -4
 488              	.LBB16:
 489              	.LBB17:
 203:/Users/imashio/Electronics/ARM/_Library/u8x8_8x8.c **** }
 490              		.loc 1 203 0
 491 0004 0027     		movs	r7, #0
 492              	.LBE17:
 493              	.LBE16:
 494              		.loc 1 276 0
 495 0006 0546     		mov	r5, r0
 496              	.LVL64:
 497 0008 0E46     		mov	r6, r1
 498 000a 9246     		mov	r10, r2
 499 000c 03F1FF38 		add	r8, r3, #-1
 500              	.LBB19:
 501              	.LBB18:
 203:/Users/imashio/Electronics/ARM/_Library/u8x8_8x8.c **** }
 502              		.loc 1 203 0
 503 0010 80F82370 		strb	r7, [r0, #35]
 504              	.LBE18:
 505              	.LBE19:
 277:/Users/imashio/Electronics/ARM/_Library/u8x8_8x8.c ****   uint16_t e;
 278:/Users/imashio/Electronics/ARM/_Library/u8x8_8x8.c ****   uint8_t cnt = 0;
 279:/Users/imashio/Electronics/ARM/_Library/u8x8_8x8.c ****   u8x8_utf8_init(u8x8);
 280:/Users/imashio/Electronics/ARM/_Library/u8x8_8x8.c ****   for(;;)
 281:/Users/imashio/Electronics/ARM/_Library/u8x8_8x8.c ****   {
 282:/Users/imashio/Electronics/ARM/_Library/u8x8_8x8.c ****     e = u8x8->next_cb(u8x8, (uint8_t)*s);
 283:/Users/imashio/Electronics/ARM/_Library/u8x8_8x8.c ****     if ( e == 0x0ffff )
 506              		.loc 1 283 0
 507 0014 4FF6FF79 		movw	r9, #65535
 284:/Users/imashio/Electronics/ARM/_Library/u8x8_8x8.c ****       break;
 285:/Users/imashio/Electronics/ARM/_Library/u8x8_8x8.c ****     s++;
 286:/Users/imashio/Electronics/ARM/_Library/u8x8_8x8.c ****     if ( e != 0x0fffe )
 508              		.loc 1 286 0
 509 0018 4FF6FE7B 		movw	fp, #65534
 510              	.LVL65:
 511              	.L45:
 282:/Users/imashio/Electronics/ARM/_Library/u8x8_8x8.c ****     if ( e == 0x0ffff )
 512              		.loc 1 282 0
 513 001c 6B68     		ldr	r3, [r5, #4]
 514 001e 18F8011F 		ldrb	r1, [r8, #1]!	@ zero_extendqisi2
 515              	.LVL66:
 516 0022 2846     		mov	r0, r5
 517 0024 9847     		blx	r3
 518              	.LVL67:
 519 0026 0446     		mov	r4, r0
 520              	.LVL68:
 283:/Users/imashio/Electronics/ARM/_Library/u8x8_8x8.c ****       break;
 521              		.loc 1 283 0
 522 0028 4C45     		cmp	r4, r9
 287:/Users/imashio/Electronics/ARM/_Library/u8x8_8x8.c ****     {
ARM GAS  /var/folders/v3/wysfpd052nz8jkbx04pk0ym80000gn/T//ccYzDHzS.s 			page 16


 288:/Users/imashio/Electronics/ARM/_Library/u8x8_8x8.c ****       u8x8_DrawGlyph(u8x8, x, y, e);
 523              		.loc 1 288 0
 524 002a C3B2     		uxtb	r3, r0
 525 002c 3146     		mov	r1, r6
 526 002e 5246     		mov	r2, r10
 527 0030 2846     		mov	r0, r5
 528              	.LVL69:
 283:/Users/imashio/Electronics/ARM/_Library/u8x8_8x8.c ****       break;
 529              		.loc 1 283 0
 530 0032 08D0     		beq	.L46
 531              	.LVL70:
 286:/Users/imashio/Electronics/ARM/_Library/u8x8_8x8.c ****     {
 532              		.loc 1 286 0
 533 0034 5C45     		cmp	r4, fp
 534 0036 F1D0     		beq	.L45
 289:/Users/imashio/Electronics/ARM/_Library/u8x8_8x8.c ****       x++;
 535              		.loc 1 289 0
 536 0038 0136     		adds	r6, r6, #1
 537              	.LVL71:
 290:/Users/imashio/Electronics/ARM/_Library/u8x8_8x8.c ****       cnt++;
 538              		.loc 1 290 0
 539 003a 0137     		adds	r7, r7, #1
 540              	.LVL72:
 288:/Users/imashio/Electronics/ARM/_Library/u8x8_8x8.c ****       x++;
 541              		.loc 1 288 0
 542 003c FFF7FEFF 		bl	u8x8_DrawGlyph
 543              	.LVL73:
 289:/Users/imashio/Electronics/ARM/_Library/u8x8_8x8.c ****       x++;
 544              		.loc 1 289 0
 545 0040 F6B2     		uxtb	r6, r6
 546              	.LVL74:
 547              		.loc 1 290 0
 548 0042 FFB2     		uxtb	r7, r7
 549              	.LVL75:
 550 0044 EAE7     		b	.L45
 551              	.LVL76:
 552              	.L46:
 291:/Users/imashio/Electronics/ARM/_Library/u8x8_8x8.c ****     }
 292:/Users/imashio/Electronics/ARM/_Library/u8x8_8x8.c ****   }
 293:/Users/imashio/Electronics/ARM/_Library/u8x8_8x8.c ****   return cnt;
 294:/Users/imashio/Electronics/ARM/_Library/u8x8_8x8.c **** }
 553              		.loc 1 294 0
 554 0046 3846     		mov	r0, r7
 555              	.LVL77:
 556 0048 BDE8F88F 		pop	{r3, r4, r5, r6, r7, r8, r9, r10, fp, pc}
 557              		.cfi_endproc
 558              	.LFE9:
 560              		.section	.text.u8x8_upscale_byte,"ax",%progbits
 561              		.align	1
 562              		.p2align 2,,3
 563              		.global	u8x8_upscale_byte
 564              		.syntax unified
 565              		.thumb
 566              		.thumb_func
 567              		.fpu fpv4-sp-d16
 569              	u8x8_upscale_byte:
 570              	.LFB3:
ARM GAS  /var/folders/v3/wysfpd052nz8jkbx04pk0ym80000gn/T//ccYzDHzS.s 			page 17


 134:/Users/imashio/Electronics/ARM/_Library/u8x8_8x8.c **** 	uint16_t y = x;
 571              		.loc 1 134 0
 572              		.cfi_startproc
 573              		@ args = 0, pretend = 0, frame = 0
 574              		@ frame_needed = 0, uses_anonymous_args = 0
 575              		@ link register save eliminated.
 576              	.LVL78:
 137:/Users/imashio/Electronics/ARM/_Library/u8x8_8x8.c **** 	y |= (y << 2);		// x = (x | (x << S[1])) & B[1];
 577              		.loc 1 137 0
 578 0000 40F60F73 		movw	r3, #3855
 136:/Users/imashio/Electronics/ARM/_Library/u8x8_8x8.c **** 	y &= 0x0f0f;
 579              		.loc 1 136 0
 580 0004 40EA0010 		orr	r0, r0, r0, lsl #4
 581              	.LVL79:
 137:/Users/imashio/Electronics/ARM/_Library/u8x8_8x8.c **** 	y |= (y << 2);		// x = (x | (x << S[1])) & B[1];
 582              		.loc 1 137 0
 583 0008 1840     		ands	r0, r0, r3
 584              	.LVL80:
 138:/Users/imashio/Electronics/ARM/_Library/u8x8_8x8.c **** 	y &= 0x3333;
 585              		.loc 1 138 0
 586 000a 40EA8000 		orr	r0, r0, r0, lsl #2
 587              	.LVL81:
 139:/Users/imashio/Electronics/ARM/_Library/u8x8_8x8.c **** 	y |= (y << 1);		// x = (x | (x << S[0])) & B[0];
 588              		.loc 1 139 0
 589 000e 43F23333 		movw	r3, #13107
 590 0012 1840     		ands	r0, r0, r3
 591              	.LVL82:
 140:/Users/imashio/Electronics/ARM/_Library/u8x8_8x8.c **** 	y &= 0x5555;
 592              		.loc 1 140 0
 593 0014 40EA4000 		orr	r0, r0, r0, lsl #1
 594              	.LVL83:
 141:/Users/imashio/Electronics/ARM/_Library/u8x8_8x8.c ****   
 595              		.loc 1 141 0
 596 0018 45F25553 		movw	r3, #21845
 597 001c 1840     		ands	r0, r0, r3
 598              	.LVL84:
 145:/Users/imashio/Electronics/ARM/_Library/u8x8_8x8.c **** 
 599              		.loc 1 145 0
 600 001e 40EA4000 		orr	r0, r0, r0, lsl #1
 601              	.LVL85:
 602 0022 7047     		bx	lr
 603              		.cfi_endproc
 604              	.LFE3:
 606              		.section	.text.u8x8_Draw2x2Glyph,"ax",%progbits
 607              		.align	1
 608              		.p2align 2,,3
 609              		.global	u8x8_Draw2x2Glyph
 610              		.syntax unified
 611              		.thumb
 612              		.thumb_func
 613              		.fpu fpv4-sp-d16
 615              	u8x8_Draw2x2Glyph:
 616              	.LFB5:
 160:/Users/imashio/Electronics/ARM/_Library/u8x8_8x8.c ****   uint8_t i;
 617              		.loc 1 160 0
 618              		.cfi_startproc
 619              		@ args = 0, pretend = 0, frame = 24
ARM GAS  /var/folders/v3/wysfpd052nz8jkbx04pk0ym80000gn/T//ccYzDHzS.s 			page 18


 620              		@ frame_needed = 0, uses_anonymous_args = 0
 621              	.LVL86:
 622 0000 2DE9F043 		push	{r4, r5, r6, r7, r8, r9, lr}
 623              	.LCFI7:
 624              		.cfi_def_cfa_offset 28
 625              		.cfi_offset 4, -28
 626              		.cfi_offset 5, -24
 627              		.cfi_offset 6, -20
 628              		.cfi_offset 7, -16
 629              		.cfi_offset 8, -12
 630              		.cfi_offset 9, -8
 631              		.cfi_offset 14, -4
 632 0004 89B0     		sub	sp, sp, #36
 633              	.LCFI8:
 634              		.cfi_def_cfa_offset 64
 166:/Users/imashio/Electronics/ARM/_Library/u8x8_8x8.c ****   for( i = 0; i < 8; i ++ )
 635              		.loc 1 166 0
 636 0006 02AE     		add	r6, sp, #8
 160:/Users/imashio/Electronics/ARM/_Library/u8x8_8x8.c ****   uint8_t i;
 637              		.loc 1 160 0
 638 0008 8046     		mov	r8, r0
 639 000a 8946     		mov	r9, r1
 640 000c 1746     		mov	r7, r2
 166:/Users/imashio/Electronics/ARM/_Library/u8x8_8x8.c ****   for( i = 0; i < 8; i ++ )
 641              		.loc 1 166 0
 642 000e 00F11F01 		add	r1, r0, #31
 643              	.LVL87:
 644 0012 1A46     		mov	r2, r3
 645              	.LVL88:
 646 0014 1830     		adds	r0, r0, #24
 647              	.LVL89:
 648 0016 3346     		mov	r3, r6
 649              	.LVL90:
 650 0018 0DF10F04 		add	r4, sp, #15
 651 001c FFF7FEFF 		bl	u8x8_get_glyph_data.isra.0
 652              	.LVL91:
 653 0020 0DF11705 		add	r5, sp, #23
 654 0024 2246     		mov	r2, r4
 655 0026 0DF10701 		add	r1, sp, #7
 656              	.LVL92:
 657              	.L51:
 169:/Users/imashio/Electronics/ARM/_Library/u8x8_8x8.c ****       buf1[i] = t >> 8;
 658              		.loc 1 169 0 discriminator 3
 659 002a 11F8010F 		ldrb	r0, [r1, #1]!	@ zero_extendqisi2
 660              	.LVL93:
 661 002e FFF7FEFF 		bl	u8x8_upscale_byte
 662              	.LVL94:
 170:/Users/imashio/Electronics/ARM/_Library/u8x8_8x8.c ****       buf2[i] = t & 255;
 663              		.loc 1 170 0 discriminator 3
 664 0032 030A     		lsrs	r3, r0, #8
 167:/Users/imashio/Electronics/ARM/_Library/u8x8_8x8.c ****   {
 665              		.loc 1 167 0 discriminator 3
 666 0034 9142     		cmp	r1, r2
 171:/Users/imashio/Electronics/ARM/_Library/u8x8_8x8.c ****   }
 667              		.loc 1 171 0 discriminator 3
 668 0036 05F8010F 		strb	r0, [r5, #1]!
 669              	.LVL95:
ARM GAS  /var/folders/v3/wysfpd052nz8jkbx04pk0ym80000gn/T//ccYzDHzS.s 			page 19


 170:/Users/imashio/Electronics/ARM/_Library/u8x8_8x8.c ****       buf2[i] = t & 255;
 670              		.loc 1 170 0 discriminator 3
 671 003a 04F8013F 		strb	r3, [r4, #1]!
 167:/Users/imashio/Electronics/ARM/_Library/u8x8_8x8.c ****   {
 672              		.loc 1 167 0 discriminator 3
 673 003e F4D1     		bne	.L51
 173:/Users/imashio/Electronics/ARM/_Library/u8x8_8x8.c ****   u8x8_DrawTile(u8x8, x, y, 1, buf);
 674              		.loc 1 173 0
 675 0040 3146     		mov	r1, r6
 676              	.LVL96:
 677 0042 06A8     		add	r0, sp, #24
 678              	.LVL97:
 679 0044 FFF7FEFF 		bl	u8x8_upscale_buf
 680              	.LVL98:
 177:/Users/imashio/Electronics/ARM/_Library/u8x8_8x8.c ****   
 681              		.loc 1 177 0
 682 0048 09F10104 		add	r4, r9, #1
 174:/Users/imashio/Electronics/ARM/_Library/u8x8_8x8.c ****   
 683              		.loc 1 174 0
 684 004c 3A46     		mov	r2, r7
 685 004e 0123     		movs	r3, #1
 686 0050 4946     		mov	r1, r9
 687 0052 0096     		str	r6, [sp]
 688 0054 4046     		mov	r0, r8
 689 0056 FFF7FEFF 		bl	u8x8_DrawTile
 690              	.LVL99:
 177:/Users/imashio/Electronics/ARM/_Library/u8x8_8x8.c ****   
 691              		.loc 1 177 0
 692 005a E4B2     		uxtb	r4, r4
 176:/Users/imashio/Electronics/ARM/_Library/u8x8_8x8.c ****   u8x8_DrawTile(u8x8, x+1, y, 1, buf);
 693              		.loc 1 176 0
 694 005c 3146     		mov	r1, r6
 695 005e 07A8     		add	r0, sp, #28
 696 0060 FFF7FEFF 		bl	u8x8_upscale_buf
 697              	.LVL100:
 177:/Users/imashio/Electronics/ARM/_Library/u8x8_8x8.c ****   
 698              		.loc 1 177 0
 699 0064 3A46     		mov	r2, r7
 700 0066 2146     		mov	r1, r4
 701 0068 0123     		movs	r3, #1
 702 006a 0096     		str	r6, [sp]
 703 006c 4046     		mov	r0, r8
 180:/Users/imashio/Electronics/ARM/_Library/u8x8_8x8.c ****   
 704              		.loc 1 180 0
 705 006e 0137     		adds	r7, r7, #1
 177:/Users/imashio/Electronics/ARM/_Library/u8x8_8x8.c ****   
 706              		.loc 1 177 0
 707 0070 FFF7FEFF 		bl	u8x8_DrawTile
 708              	.LVL101:
 180:/Users/imashio/Electronics/ARM/_Library/u8x8_8x8.c ****   
 709              		.loc 1 180 0
 710 0074 FFB2     		uxtb	r7, r7
 179:/Users/imashio/Electronics/ARM/_Library/u8x8_8x8.c ****   u8x8_DrawTile(u8x8, x, y+1, 1, buf);
 711              		.loc 1 179 0
 712 0076 3146     		mov	r1, r6
 713 0078 04A8     		add	r0, sp, #16
 714 007a FFF7FEFF 		bl	u8x8_upscale_buf
ARM GAS  /var/folders/v3/wysfpd052nz8jkbx04pk0ym80000gn/T//ccYzDHzS.s 			page 20


 715              	.LVL102:
 180:/Users/imashio/Electronics/ARM/_Library/u8x8_8x8.c ****   
 716              		.loc 1 180 0
 717 007e 3A46     		mov	r2, r7
 718 0080 4946     		mov	r1, r9
 719 0082 0123     		movs	r3, #1
 720 0084 0096     		str	r6, [sp]
 721 0086 4046     		mov	r0, r8
 722 0088 FFF7FEFF 		bl	u8x8_DrawTile
 723              	.LVL103:
 182:/Users/imashio/Electronics/ARM/_Library/u8x8_8x8.c ****   u8x8_DrawTile(u8x8, x+1, y+1, 1, buf);  
 724              		.loc 1 182 0
 725 008c 3146     		mov	r1, r6
 726 008e 05A8     		add	r0, sp, #20
 727 0090 FFF7FEFF 		bl	u8x8_upscale_buf
 728              	.LVL104:
 183:/Users/imashio/Electronics/ARM/_Library/u8x8_8x8.c **** }
 729              		.loc 1 183 0
 730 0094 3A46     		mov	r2, r7
 731 0096 2146     		mov	r1, r4
 732 0098 0096     		str	r6, [sp]
 733 009a 4046     		mov	r0, r8
 734 009c 0123     		movs	r3, #1
 735 009e FFF7FEFF 		bl	u8x8_DrawTile
 736              	.LVL105:
 184:/Users/imashio/Electronics/ARM/_Library/u8x8_8x8.c **** 
 737              		.loc 1 184 0
 738 00a2 09B0     		add	sp, sp, #36
 739              	.LCFI9:
 740              		.cfi_def_cfa_offset 28
 741              		@ sp needed
 742 00a4 BDE8F083 		pop	{r4, r5, r6, r7, r8, r9, pc}
 743              		.cfi_endproc
 744              	.LFE5:
 746              		.section	.text.u8x8_draw_2x2_string,"ax",%progbits
 747              		.align	1
 748              		.p2align 2,,3
 749              		.syntax unified
 750              		.thumb
 751              		.thumb_func
 752              		.fpu fpv4-sp-d16
 754              	u8x8_draw_2x2_string:
 755              	.LFB12:
 295:/Users/imashio/Electronics/ARM/_Library/u8x8_8x8.c **** 
 296:/Users/imashio/Electronics/ARM/_Library/u8x8_8x8.c **** 
 297:/Users/imashio/Electronics/ARM/_Library/u8x8_8x8.c **** uint8_t u8x8_DrawString(u8x8_t *u8x8, uint8_t x, uint8_t y, const char *s)
 298:/Users/imashio/Electronics/ARM/_Library/u8x8_8x8.c **** {
 299:/Users/imashio/Electronics/ARM/_Library/u8x8_8x8.c ****   u8x8->next_cb = u8x8_ascii_next;
 300:/Users/imashio/Electronics/ARM/_Library/u8x8_8x8.c ****   return u8x8_draw_string(u8x8, x, y, s);
 301:/Users/imashio/Electronics/ARM/_Library/u8x8_8x8.c **** }
 302:/Users/imashio/Electronics/ARM/_Library/u8x8_8x8.c **** 
 303:/Users/imashio/Electronics/ARM/_Library/u8x8_8x8.c **** uint8_t u8x8_DrawUTF8(u8x8_t *u8x8, uint8_t x, uint8_t y, const char *s)
 304:/Users/imashio/Electronics/ARM/_Library/u8x8_8x8.c **** {
 305:/Users/imashio/Electronics/ARM/_Library/u8x8_8x8.c ****   u8x8->next_cb = u8x8_utf8_next;
 306:/Users/imashio/Electronics/ARM/_Library/u8x8_8x8.c ****   return u8x8_draw_string(u8x8, x, y, s);
 307:/Users/imashio/Electronics/ARM/_Library/u8x8_8x8.c **** }
 308:/Users/imashio/Electronics/ARM/_Library/u8x8_8x8.c **** 
ARM GAS  /var/folders/v3/wysfpd052nz8jkbx04pk0ym80000gn/T//ccYzDHzS.s 			page 21


 309:/Users/imashio/Electronics/ARM/_Library/u8x8_8x8.c **** 
 310:/Users/imashio/Electronics/ARM/_Library/u8x8_8x8.c **** 
 311:/Users/imashio/Electronics/ARM/_Library/u8x8_8x8.c **** static uint8_t u8x8_draw_2x2_string(u8x8_t *u8x8, uint8_t x, uint8_t y, const char *s) U8X8_NOINLIN
 312:/Users/imashio/Electronics/ARM/_Library/u8x8_8x8.c **** static uint8_t u8x8_draw_2x2_string(u8x8_t *u8x8, uint8_t x, uint8_t y, const char *s)
 313:/Users/imashio/Electronics/ARM/_Library/u8x8_8x8.c **** {
 756              		.loc 1 313 0
 757              		.cfi_startproc
 758              		@ args = 0, pretend = 0, frame = 0
 759              		@ frame_needed = 0, uses_anonymous_args = 0
 760              	.LVL106:
 761 0000 2DE9F84F 		push	{r3, r4, r5, r6, r7, r8, r9, r10, fp, lr}
 762              	.LCFI10:
 763              		.cfi_def_cfa_offset 40
 764              		.cfi_offset 3, -40
 765              		.cfi_offset 4, -36
 766              		.cfi_offset 5, -32
 767              		.cfi_offset 6, -28
 768              		.cfi_offset 7, -24
 769              		.cfi_offset 8, -20
 770              		.cfi_offset 9, -16
 771              		.cfi_offset 10, -12
 772              		.cfi_offset 11, -8
 773              		.cfi_offset 14, -4
 774              	.LBB20:
 775              	.LBB21:
 203:/Users/imashio/Electronics/ARM/_Library/u8x8_8x8.c **** }
 776              		.loc 1 203 0
 777 0004 0027     		movs	r7, #0
 778              	.LBE21:
 779              	.LBE20:
 780              		.loc 1 313 0
 781 0006 0546     		mov	r5, r0
 782              	.LVL107:
 783 0008 0E46     		mov	r6, r1
 784 000a 9246     		mov	r10, r2
 785 000c 03F1FF38 		add	r8, r3, #-1
 786              	.LBB23:
 787              	.LBB22:
 203:/Users/imashio/Electronics/ARM/_Library/u8x8_8x8.c **** }
 788              		.loc 1 203 0
 789 0010 80F82370 		strb	r7, [r0, #35]
 790              	.LBE22:
 791              	.LBE23:
 314:/Users/imashio/Electronics/ARM/_Library/u8x8_8x8.c ****   uint16_t e;
 315:/Users/imashio/Electronics/ARM/_Library/u8x8_8x8.c ****   uint8_t cnt = 0;
 316:/Users/imashio/Electronics/ARM/_Library/u8x8_8x8.c ****   u8x8_utf8_init(u8x8);
 317:/Users/imashio/Electronics/ARM/_Library/u8x8_8x8.c ****   for(;;)
 318:/Users/imashio/Electronics/ARM/_Library/u8x8_8x8.c ****   {
 319:/Users/imashio/Electronics/ARM/_Library/u8x8_8x8.c ****     e = u8x8->next_cb(u8x8, (uint8_t)*s);
 320:/Users/imashio/Electronics/ARM/_Library/u8x8_8x8.c ****     if ( e == 0x0ffff )
 792              		.loc 1 320 0
 793 0014 4FF6FF79 		movw	r9, #65535
 321:/Users/imashio/Electronics/ARM/_Library/u8x8_8x8.c ****       break;
 322:/Users/imashio/Electronics/ARM/_Library/u8x8_8x8.c ****     s++;
 323:/Users/imashio/Electronics/ARM/_Library/u8x8_8x8.c ****     if ( e != 0x0fffe )
 794              		.loc 1 323 0
 795 0018 4FF6FE7B 		movw	fp, #65534
ARM GAS  /var/folders/v3/wysfpd052nz8jkbx04pk0ym80000gn/T//ccYzDHzS.s 			page 22


 796              	.LVL108:
 797              	.L55:
 319:/Users/imashio/Electronics/ARM/_Library/u8x8_8x8.c ****     if ( e == 0x0ffff )
 798              		.loc 1 319 0
 799 001c 6B68     		ldr	r3, [r5, #4]
 800 001e 18F8011F 		ldrb	r1, [r8, #1]!	@ zero_extendqisi2
 801              	.LVL109:
 802 0022 2846     		mov	r0, r5
 803 0024 9847     		blx	r3
 804              	.LVL110:
 805 0026 0446     		mov	r4, r0
 806              	.LVL111:
 320:/Users/imashio/Electronics/ARM/_Library/u8x8_8x8.c ****       break;
 807              		.loc 1 320 0
 808 0028 4C45     		cmp	r4, r9
 324:/Users/imashio/Electronics/ARM/_Library/u8x8_8x8.c ****     {
 325:/Users/imashio/Electronics/ARM/_Library/u8x8_8x8.c ****       u8x8_Draw2x2Glyph(u8x8, x, y, e);
 809              		.loc 1 325 0
 810 002a C3B2     		uxtb	r3, r0
 811 002c 3146     		mov	r1, r6
 812 002e 5246     		mov	r2, r10
 813 0030 2846     		mov	r0, r5
 814              	.LVL112:
 320:/Users/imashio/Electronics/ARM/_Library/u8x8_8x8.c ****       break;
 815              		.loc 1 320 0
 816 0032 08D0     		beq	.L56
 817              	.LVL113:
 323:/Users/imashio/Electronics/ARM/_Library/u8x8_8x8.c ****     {
 818              		.loc 1 323 0
 819 0034 5C45     		cmp	r4, fp
 820 0036 F1D0     		beq	.L55
 326:/Users/imashio/Electronics/ARM/_Library/u8x8_8x8.c ****       x+=2;
 821              		.loc 1 326 0
 822 0038 0236     		adds	r6, r6, #2
 823              	.LVL114:
 327:/Users/imashio/Electronics/ARM/_Library/u8x8_8x8.c ****       cnt++;
 824              		.loc 1 327 0
 825 003a 0137     		adds	r7, r7, #1
 826              	.LVL115:
 325:/Users/imashio/Electronics/ARM/_Library/u8x8_8x8.c ****       x+=2;
 827              		.loc 1 325 0
 828 003c FFF7FEFF 		bl	u8x8_Draw2x2Glyph
 829              	.LVL116:
 326:/Users/imashio/Electronics/ARM/_Library/u8x8_8x8.c ****       x+=2;
 830              		.loc 1 326 0
 831 0040 F6B2     		uxtb	r6, r6
 832              	.LVL117:
 833              		.loc 1 327 0
 834 0042 FFB2     		uxtb	r7, r7
 835              	.LVL118:
 836 0044 EAE7     		b	.L55
 837              	.LVL119:
 838              	.L56:
 328:/Users/imashio/Electronics/ARM/_Library/u8x8_8x8.c ****     }
 329:/Users/imashio/Electronics/ARM/_Library/u8x8_8x8.c ****   }
 330:/Users/imashio/Electronics/ARM/_Library/u8x8_8x8.c ****   return cnt;
 331:/Users/imashio/Electronics/ARM/_Library/u8x8_8x8.c **** }
ARM GAS  /var/folders/v3/wysfpd052nz8jkbx04pk0ym80000gn/T//ccYzDHzS.s 			page 23


 839              		.loc 1 331 0
 840 0046 3846     		mov	r0, r7
 841              	.LVL120:
 842 0048 BDE8F88F 		pop	{r3, r4, r5, r6, r7, r8, r9, r10, fp, pc}
 843              		.cfi_endproc
 844              	.LFE12:
 846              		.section	.text.u8x8_utf8_init,"ax",%progbits
 847              		.align	1
 848              		.p2align 2,,3
 849              		.global	u8x8_utf8_init
 850              		.syntax unified
 851              		.thumb
 852              		.thumb_func
 853              		.fpu fpv4-sp-d16
 855              	u8x8_utf8_init:
 856              	.LFB6:
 202:/Users/imashio/Electronics/ARM/_Library/u8x8_8x8.c ****   u8x8->utf8_state = 0;	/* also reset during u8x8_SetupDefaults() */
 857              		.loc 1 202 0
 858              		.cfi_startproc
 859              		@ args = 0, pretend = 0, frame = 0
 860              		@ frame_needed = 0, uses_anonymous_args = 0
 861              		@ link register save eliminated.
 862              	.LVL121:
 203:/Users/imashio/Electronics/ARM/_Library/u8x8_8x8.c **** }
 863              		.loc 1 203 0
 864 0000 0023     		movs	r3, #0
 865 0002 80F82330 		strb	r3, [r0, #35]
 204:/Users/imashio/Electronics/ARM/_Library/u8x8_8x8.c **** 
 866              		.loc 1 204 0
 867 0006 7047     		bx	lr
 868              		.cfi_endproc
 869              	.LFE6:
 871              		.section	.text.u8x8_DrawString,"ax",%progbits
 872              		.align	1
 873              		.p2align 2,,3
 874              		.global	u8x8_DrawString
 875              		.syntax unified
 876              		.thumb
 877              		.thumb_func
 878              		.fpu fpv4-sp-d16
 880              	u8x8_DrawString:
 881              	.LFB10:
 298:/Users/imashio/Electronics/ARM/_Library/u8x8_8x8.c ****   u8x8->next_cb = u8x8_ascii_next;
 882              		.loc 1 298 0
 883              		.cfi_startproc
 884              		@ args = 0, pretend = 0, frame = 0
 885              		@ frame_needed = 0, uses_anonymous_args = 0
 886              		@ link register save eliminated.
 887              	.LVL122:
 888 0000 10B4     		push	{r4}
 889              	.LCFI11:
 890              		.cfi_def_cfa_offset 4
 891              		.cfi_offset 4, -4
 299:/Users/imashio/Electronics/ARM/_Library/u8x8_8x8.c ****   return u8x8_draw_string(u8x8, x, y, s);
 892              		.loc 1 299 0
 893 0002 034C     		ldr	r4, .L62
 894 0004 4460     		str	r4, [r0, #4]
ARM GAS  /var/folders/v3/wysfpd052nz8jkbx04pk0ym80000gn/T//ccYzDHzS.s 			page 24


 301:/Users/imashio/Electronics/ARM/_Library/u8x8_8x8.c **** 
 895              		.loc 1 301 0
 896 0006 5DF8044B 		ldr	r4, [sp], #4
 897              	.LCFI12:
 898              		.cfi_restore 4
 899              		.cfi_def_cfa_offset 0
 300:/Users/imashio/Electronics/ARM/_Library/u8x8_8x8.c **** }
 900              		.loc 1 300 0
 901 000a FFF7FEBF 		b	u8x8_draw_string
 902              	.LVL123:
 903              	.L63:
 904 000e 00BF     		.align	2
 905              	.L62:
 906 0010 00000000 		.word	u8x8_ascii_next
 907              		.cfi_endproc
 908              	.LFE10:
 910              		.section	.text.u8x8_DrawUTF8,"ax",%progbits
 911              		.align	1
 912              		.p2align 2,,3
 913              		.global	u8x8_DrawUTF8
 914              		.syntax unified
 915              		.thumb
 916              		.thumb_func
 917              		.fpu fpv4-sp-d16
 919              	u8x8_DrawUTF8:
 920              	.LFB11:
 304:/Users/imashio/Electronics/ARM/_Library/u8x8_8x8.c ****   u8x8->next_cb = u8x8_utf8_next;
 921              		.loc 1 304 0
 922              		.cfi_startproc
 923              		@ args = 0, pretend = 0, frame = 0
 924              		@ frame_needed = 0, uses_anonymous_args = 0
 925              		@ link register save eliminated.
 926              	.LVL124:
 927 0000 10B4     		push	{r4}
 928              	.LCFI13:
 929              		.cfi_def_cfa_offset 4
 930              		.cfi_offset 4, -4
 305:/Users/imashio/Electronics/ARM/_Library/u8x8_8x8.c ****   return u8x8_draw_string(u8x8, x, y, s);
 931              		.loc 1 305 0
 932 0002 034C     		ldr	r4, .L66
 933 0004 4460     		str	r4, [r0, #4]
 307:/Users/imashio/Electronics/ARM/_Library/u8x8_8x8.c **** 
 934              		.loc 1 307 0
 935 0006 5DF8044B 		ldr	r4, [sp], #4
 936              	.LCFI14:
 937              		.cfi_restore 4
 938              		.cfi_def_cfa_offset 0
 306:/Users/imashio/Electronics/ARM/_Library/u8x8_8x8.c **** }
 939              		.loc 1 306 0
 940 000a FFF7FEBF 		b	u8x8_draw_string
 941              	.LVL125:
 942              	.L67:
 943 000e 00BF     		.align	2
 944              	.L66:
 945 0010 00000000 		.word	u8x8_utf8_next
 946              		.cfi_endproc
 947              	.LFE11:
ARM GAS  /var/folders/v3/wysfpd052nz8jkbx04pk0ym80000gn/T//ccYzDHzS.s 			page 25


 949              		.section	.text.u8x8_Draw2x2String,"ax",%progbits
 950              		.align	1
 951              		.p2align 2,,3
 952              		.global	u8x8_Draw2x2String
 953              		.syntax unified
 954              		.thumb
 955              		.thumb_func
 956              		.fpu fpv4-sp-d16
 958              	u8x8_Draw2x2String:
 959              	.LFB13:
 332:/Users/imashio/Electronics/ARM/_Library/u8x8_8x8.c **** 
 333:/Users/imashio/Electronics/ARM/_Library/u8x8_8x8.c **** 
 334:/Users/imashio/Electronics/ARM/_Library/u8x8_8x8.c **** uint8_t u8x8_Draw2x2String(u8x8_t *u8x8, uint8_t x, uint8_t y, const char *s)
 335:/Users/imashio/Electronics/ARM/_Library/u8x8_8x8.c **** {
 960              		.loc 1 335 0
 961              		.cfi_startproc
 962              		@ args = 0, pretend = 0, frame = 0
 963              		@ frame_needed = 0, uses_anonymous_args = 0
 964              		@ link register save eliminated.
 965              	.LVL126:
 966 0000 10B4     		push	{r4}
 967              	.LCFI15:
 968              		.cfi_def_cfa_offset 4
 969              		.cfi_offset 4, -4
 336:/Users/imashio/Electronics/ARM/_Library/u8x8_8x8.c ****   u8x8->next_cb = u8x8_ascii_next;
 970              		.loc 1 336 0
 971 0002 034C     		ldr	r4, .L70
 972 0004 4460     		str	r4, [r0, #4]
 337:/Users/imashio/Electronics/ARM/_Library/u8x8_8x8.c ****   return u8x8_draw_2x2_string(u8x8, x, y, s);
 338:/Users/imashio/Electronics/ARM/_Library/u8x8_8x8.c **** }
 973              		.loc 1 338 0
 974 0006 5DF8044B 		ldr	r4, [sp], #4
 975              	.LCFI16:
 976              		.cfi_restore 4
 977              		.cfi_def_cfa_offset 0
 337:/Users/imashio/Electronics/ARM/_Library/u8x8_8x8.c ****   return u8x8_draw_2x2_string(u8x8, x, y, s);
 978              		.loc 1 337 0
 979 000a FFF7FEBF 		b	u8x8_draw_2x2_string
 980              	.LVL127:
 981              	.L71:
 982 000e 00BF     		.align	2
 983              	.L70:
 984 0010 00000000 		.word	u8x8_ascii_next
 985              		.cfi_endproc
 986              	.LFE13:
 988              		.section	.text.u8x8_Draw2x2UTF8,"ax",%progbits
 989              		.align	1
 990              		.p2align 2,,3
 991              		.global	u8x8_Draw2x2UTF8
 992              		.syntax unified
 993              		.thumb
 994              		.thumb_func
 995              		.fpu fpv4-sp-d16
 997              	u8x8_Draw2x2UTF8:
 998              	.LFB14:
 339:/Users/imashio/Electronics/ARM/_Library/u8x8_8x8.c **** 
 340:/Users/imashio/Electronics/ARM/_Library/u8x8_8x8.c **** uint8_t u8x8_Draw2x2UTF8(u8x8_t *u8x8, uint8_t x, uint8_t y, const char *s)
ARM GAS  /var/folders/v3/wysfpd052nz8jkbx04pk0ym80000gn/T//ccYzDHzS.s 			page 26


 341:/Users/imashio/Electronics/ARM/_Library/u8x8_8x8.c **** {
 999              		.loc 1 341 0
 1000              		.cfi_startproc
 1001              		@ args = 0, pretend = 0, frame = 0
 1002              		@ frame_needed = 0, uses_anonymous_args = 0
 1003              		@ link register save eliminated.
 1004              	.LVL128:
 1005 0000 10B4     		push	{r4}
 1006              	.LCFI17:
 1007              		.cfi_def_cfa_offset 4
 1008              		.cfi_offset 4, -4
 342:/Users/imashio/Electronics/ARM/_Library/u8x8_8x8.c ****   u8x8->next_cb = u8x8_utf8_next;
 1009              		.loc 1 342 0
 1010 0002 034C     		ldr	r4, .L74
 1011 0004 4460     		str	r4, [r0, #4]
 343:/Users/imashio/Electronics/ARM/_Library/u8x8_8x8.c ****   return u8x8_draw_2x2_string(u8x8, x, y, s);
 344:/Users/imashio/Electronics/ARM/_Library/u8x8_8x8.c **** }
 1012              		.loc 1 344 0
 1013 0006 5DF8044B 		ldr	r4, [sp], #4
 1014              	.LCFI18:
 1015              		.cfi_restore 4
 1016              		.cfi_def_cfa_offset 0
 343:/Users/imashio/Electronics/ARM/_Library/u8x8_8x8.c ****   return u8x8_draw_2x2_string(u8x8, x, y, s);
 1017              		.loc 1 343 0
 1018 000a FFF7FEBF 		b	u8x8_draw_2x2_string
 1019              	.LVL129:
 1020              	.L75:
 1021 000e 00BF     		.align	2
 1022              	.L74:
 1023 0010 00000000 		.word	u8x8_utf8_next
 1024              		.cfi_endproc
 1025              	.LFE14:
 1027              		.section	.text.u8x8_GetUTF8Len,"ax",%progbits
 1028              		.align	1
 1029              		.p2align 2,,3
 1030              		.global	u8x8_GetUTF8Len
 1031              		.syntax unified
 1032              		.thumb
 1033              		.thumb_func
 1034              		.fpu fpv4-sp-d16
 1036              	u8x8_GetUTF8Len:
 1037              	.LFB15:
 345:/Users/imashio/Electronics/ARM/_Library/u8x8_8x8.c **** 
 346:/Users/imashio/Electronics/ARM/_Library/u8x8_8x8.c **** 
 347:/Users/imashio/Electronics/ARM/_Library/u8x8_8x8.c **** 
 348:/Users/imashio/Electronics/ARM/_Library/u8x8_8x8.c **** uint8_t u8x8_GetUTF8Len(u8x8_t *u8x8, const char *s)
 349:/Users/imashio/Electronics/ARM/_Library/u8x8_8x8.c **** {
 1038              		.loc 1 349 0
 1039              		.cfi_startproc
 1040              		@ args = 0, pretend = 0, frame = 0
 1041              		@ frame_needed = 0, uses_anonymous_args = 0
 1042              	.LVL130:
 1043 0000 2DE9F041 		push	{r4, r5, r6, r7, r8, lr}
 1044              	.LCFI19:
 1045              		.cfi_def_cfa_offset 24
 1046              		.cfi_offset 4, -24
 1047              		.cfi_offset 5, -20
ARM GAS  /var/folders/v3/wysfpd052nz8jkbx04pk0ym80000gn/T//ccYzDHzS.s 			page 27


 1048              		.cfi_offset 6, -16
 1049              		.cfi_offset 7, -12
 1050              		.cfi_offset 8, -8
 1051              		.cfi_offset 14, -4
 1052              	.LBB24:
 1053              	.LBB25:
 203:/Users/imashio/Electronics/ARM/_Library/u8x8_8x8.c **** }
 1054              		.loc 1 203 0
 1055 0004 0024     		movs	r4, #0
 1056              	.LBE25:
 1057              	.LBE24:
 1058              		.loc 1 349 0
 1059 0006 0646     		mov	r6, r0
 1060              	.LVL131:
 1061 0008 4D1E     		subs	r5, r1, #1
 1062              	.LBB27:
 1063              	.LBB26:
 203:/Users/imashio/Electronics/ARM/_Library/u8x8_8x8.c **** }
 1064              		.loc 1 203 0
 1065 000a 80F82340 		strb	r4, [r0, #35]
 1066              	.LBE26:
 1067              	.LBE27:
 350:/Users/imashio/Electronics/ARM/_Library/u8x8_8x8.c ****   uint16_t e;
 351:/Users/imashio/Electronics/ARM/_Library/u8x8_8x8.c ****   uint8_t cnt = 0;
 352:/Users/imashio/Electronics/ARM/_Library/u8x8_8x8.c ****   u8x8_utf8_init(u8x8);
 353:/Users/imashio/Electronics/ARM/_Library/u8x8_8x8.c ****   for(;;)
 354:/Users/imashio/Electronics/ARM/_Library/u8x8_8x8.c ****   {
 355:/Users/imashio/Electronics/ARM/_Library/u8x8_8x8.c ****     e = u8x8_utf8_next(u8x8, *s);
 356:/Users/imashio/Electronics/ARM/_Library/u8x8_8x8.c ****     if ( e == 0x0ffff )
 1068              		.loc 1 356 0
 1069 000e 4FF6FF77 		movw	r7, #65535
 357:/Users/imashio/Electronics/ARM/_Library/u8x8_8x8.c ****       break;
 358:/Users/imashio/Electronics/ARM/_Library/u8x8_8x8.c ****     s++;
 359:/Users/imashio/Electronics/ARM/_Library/u8x8_8x8.c ****     if ( e != 0x0fffe )
 1070              		.loc 1 359 0
 1071 0012 4FF6FE78 		movw	r8, #65534
 1072              	.LVL132:
 1073              	.L77:
 355:/Users/imashio/Electronics/ARM/_Library/u8x8_8x8.c ****     if ( e == 0x0ffff )
 1074              		.loc 1 355 0
 1075 0016 15F8011F 		ldrb	r1, [r5, #1]!	@ zero_extendqisi2
 1076              	.LVL133:
 1077 001a 3046     		mov	r0, r6
 1078 001c FFF7FEFF 		bl	u8x8_utf8_next
 1079              	.LVL134:
 356:/Users/imashio/Electronics/ARM/_Library/u8x8_8x8.c ****       break;
 1080              		.loc 1 356 0
 1081 0020 B842     		cmp	r0, r7
 360:/Users/imashio/Electronics/ARM/_Library/u8x8_8x8.c ****       cnt++;
 1082              		.loc 1 360 0
 1083 0022 04F10103 		add	r3, r4, #1
 356:/Users/imashio/Electronics/ARM/_Library/u8x8_8x8.c ****       break;
 1084              		.loc 1 356 0
 1085 0026 03D0     		beq	.L78
 359:/Users/imashio/Electronics/ARM/_Library/u8x8_8x8.c ****       cnt++;
 1086              		.loc 1 359 0
 1087 0028 4045     		cmp	r0, r8
ARM GAS  /var/folders/v3/wysfpd052nz8jkbx04pk0ym80000gn/T//ccYzDHzS.s 			page 28


 1088 002a F4D0     		beq	.L77
 1089              		.loc 1 360 0
 1090 002c DCB2     		uxtb	r4, r3
 1091              	.LVL135:
 1092 002e F2E7     		b	.L77
 1093              	.L78:
 361:/Users/imashio/Electronics/ARM/_Library/u8x8_8x8.c ****   }
 362:/Users/imashio/Electronics/ARM/_Library/u8x8_8x8.c ****   return cnt;
 363:/Users/imashio/Electronics/ARM/_Library/u8x8_8x8.c **** }
 1094              		.loc 1 363 0
 1095 0030 2046     		mov	r0, r4
 1096              	.LVL136:
 1097 0032 BDE8F081 		pop	{r4, r5, r6, r7, r8, pc}
 1098              		.cfi_endproc
 1099              	.LFE15:
 1101 0036 00BF     		.text
 1102              	.Letext0:
 1103              		.file 2 "/usr/local/gcc-arm-none-eabi-7-2018-q2-update/arm-none-eabi/include/machine/_default_type
 1104              		.file 3 "/usr/local/gcc-arm-none-eabi-7-2018-q2-update/arm-none-eabi/include/sys/_stdint.h"
 1105              		.file 4 "/Users/imashio/Electronics/ARM/_Library/u8x8.h"
ARM GAS  /var/folders/v3/wysfpd052nz8jkbx04pk0ym80000gn/T//ccYzDHzS.s 			page 29

