ARM GAS  /var/folders/v3/wysfpd052nz8jkbx04pk0ym80000gn/T//ccFzeRvn.s 			page 1


   1              		.cpu cortex-m4
   2              		.eabi_attribute 27, 1
   3              		.eabi_attribute 28, 1
   4              		.eabi_attribute 20, 1
   5              		.eabi_attribute 21, 1
   6              		.eabi_attribute 23, 3
   7              		.eabi_attribute 24, 1
   8              		.eabi_attribute 25, 1
   9              		.eabi_attribute 26, 1
  10              		.eabi_attribute 30, 2
  11              		.eabi_attribute 34, 1
  12              		.eabi_attribute 18, 4
  13              		.file	"u8x8_d_st7565.c"
  14              		.text
  15              	.Ltext0:
  16              		.cfi_sections	.debug_frame
  17              		.section	.text.u8x8_d_st7565_common,"ax",%progbits
  18              		.align	1
  19              		.p2align 2,,3
  20              		.global	u8x8_d_st7565_common
  21              		.syntax unified
  22              		.thumb
  23              		.thumb_func
  24              		.fpu fpv4-sp-d16
  26              	u8x8_d_st7565_common:
  27              	.LFB0:
  28              		.file 1 "/Users/imashio/Electronics/ARM/_Library/u8x8_d_st7565.c"
   1:/Users/imashio/Electronics/ARM/_Library/u8x8_d_st7565.c **** /*
   2:/Users/imashio/Electronics/ARM/_Library/u8x8_d_st7565.c **** 
   3:/Users/imashio/Electronics/ARM/_Library/u8x8_d_st7565.c ****   u8x8_d_st7565.c
   4:/Users/imashio/Electronics/ARM/_Library/u8x8_d_st7565.c ****   also includes support for nt7534 
   5:/Users/imashio/Electronics/ARM/_Library/u8x8_d_st7565.c ****   
   6:/Users/imashio/Electronics/ARM/_Library/u8x8_d_st7565.c ****   Universal 8bit Graphics Library (https://github.com/olikraus/u8g2/)
   7:/Users/imashio/Electronics/ARM/_Library/u8x8_d_st7565.c **** 
   8:/Users/imashio/Electronics/ARM/_Library/u8x8_d_st7565.c ****   Copyright (c) 2016, olikraus@gmail.com
   9:/Users/imashio/Electronics/ARM/_Library/u8x8_d_st7565.c ****   All rights reserved.
  10:/Users/imashio/Electronics/ARM/_Library/u8x8_d_st7565.c **** 
  11:/Users/imashio/Electronics/ARM/_Library/u8x8_d_st7565.c ****   Redistribution and use in source and binary forms, with or without modification, 
  12:/Users/imashio/Electronics/ARM/_Library/u8x8_d_st7565.c ****   are permitted provided that the following conditions are met:
  13:/Users/imashio/Electronics/ARM/_Library/u8x8_d_st7565.c **** 
  14:/Users/imashio/Electronics/ARM/_Library/u8x8_d_st7565.c ****   * Redistributions of source code must retain the above copyright notice, this list 
  15:/Users/imashio/Electronics/ARM/_Library/u8x8_d_st7565.c ****     of conditions and the following disclaimer.
  16:/Users/imashio/Electronics/ARM/_Library/u8x8_d_st7565.c ****     
  17:/Users/imashio/Electronics/ARM/_Library/u8x8_d_st7565.c ****   * Redistributions in binary form must reproduce the above copyright notice, this 
  18:/Users/imashio/Electronics/ARM/_Library/u8x8_d_st7565.c ****     list of conditions and the following disclaimer in the documentation and/or other 
  19:/Users/imashio/Electronics/ARM/_Library/u8x8_d_st7565.c ****     materials provided with the distribution.
  20:/Users/imashio/Electronics/ARM/_Library/u8x8_d_st7565.c **** 
  21:/Users/imashio/Electronics/ARM/_Library/u8x8_d_st7565.c ****   THIS SOFTWARE IS PROVIDED BY THE COPYRIGHT HOLDERS AND 
  22:/Users/imashio/Electronics/ARM/_Library/u8x8_d_st7565.c ****   CONTRIBUTORS "AS IS" AND ANY EXPRESS OR IMPLIED WARRANTIES, 
  23:/Users/imashio/Electronics/ARM/_Library/u8x8_d_st7565.c ****   INCLUDING, BUT NOT LIMITED TO, THE IMPLIED WARRANTIES OF 
  24:/Users/imashio/Electronics/ARM/_Library/u8x8_d_st7565.c ****   MERCHANTABILITY AND FITNESS FOR A PARTICULAR PURPOSE ARE 
  25:/Users/imashio/Electronics/ARM/_Library/u8x8_d_st7565.c ****   DISCLAIMED. IN NO EVENT SHALL THE COPYRIGHT HOLDER OR 
  26:/Users/imashio/Electronics/ARM/_Library/u8x8_d_st7565.c ****   CONTRIBUTORS BE LIABLE FOR ANY DIRECT, INDIRECT, INCIDENTAL, 
  27:/Users/imashio/Electronics/ARM/_Library/u8x8_d_st7565.c ****   SPECIAL, EXEMPLARY, OR CONSEQUENTIAL DAMAGES (INCLUDING, BUT 
  28:/Users/imashio/Electronics/ARM/_Library/u8x8_d_st7565.c ****   NOT LIMITED TO, PROCUREMENT OF SUBSTITUTE GOODS OR SERVICES; 
  29:/Users/imashio/Electronics/ARM/_Library/u8x8_d_st7565.c ****   LOSS OF USE, DATA, OR PROFITS; OR BUSINESS INTERRUPTION) HOWEVER 
  30:/Users/imashio/Electronics/ARM/_Library/u8x8_d_st7565.c ****   CAUSED AND ON ANY THEORY OF LIABILITY, WHETHER IN CONTRACT, 
ARM GAS  /var/folders/v3/wysfpd052nz8jkbx04pk0ym80000gn/T//ccFzeRvn.s 			page 2


  31:/Users/imashio/Electronics/ARM/_Library/u8x8_d_st7565.c ****   STRICT LIABILITY, OR TORT (INCLUDING NEGLIGENCE OR OTHERWISE) 
  32:/Users/imashio/Electronics/ARM/_Library/u8x8_d_st7565.c ****   ARISING IN ANY WAY OUT OF THE USE OF THIS SOFTWARE, EVEN IF 
  33:/Users/imashio/Electronics/ARM/_Library/u8x8_d_st7565.c ****   ADVISED OF THE POSSIBILITY OF SUCH DAMAGE.  
  34:/Users/imashio/Electronics/ARM/_Library/u8x8_d_st7565.c **** 
  35:/Users/imashio/Electronics/ARM/_Library/u8x8_d_st7565.c ****   
  36:/Users/imashio/Electronics/ARM/_Library/u8x8_d_st7565.c **** */
  37:/Users/imashio/Electronics/ARM/_Library/u8x8_d_st7565.c **** #include "u8x8.h"
  38:/Users/imashio/Electronics/ARM/_Library/u8x8_d_st7565.c **** 
  39:/Users/imashio/Electronics/ARM/_Library/u8x8_d_st7565.c **** 
  40:/Users/imashio/Electronics/ARM/_Library/u8x8_d_st7565.c **** 
  41:/Users/imashio/Electronics/ARM/_Library/u8x8_d_st7565.c **** 
  42:/Users/imashio/Electronics/ARM/_Library/u8x8_d_st7565.c **** 
  43:/Users/imashio/Electronics/ARM/_Library/u8x8_d_st7565.c **** static const uint8_t u8x8_d_st7565_powersave0_seq[] = {
  44:/Users/imashio/Electronics/ARM/_Library/u8x8_d_st7565.c ****   U8X8_START_TRANSFER(),             	/* enable chip, delay is part of the transfer start */
  45:/Users/imashio/Electronics/ARM/_Library/u8x8_d_st7565.c ****   U8X8_C(0x0a4),		                /* all pixel off, issue 142 */
  46:/Users/imashio/Electronics/ARM/_Library/u8x8_d_st7565.c ****   U8X8_C(0x0af),		                /* display on */
  47:/Users/imashio/Electronics/ARM/_Library/u8x8_d_st7565.c ****   U8X8_END_TRANSFER(),             	/* disable chip */
  48:/Users/imashio/Electronics/ARM/_Library/u8x8_d_st7565.c ****   U8X8_END()             			/* end of sequence */
  49:/Users/imashio/Electronics/ARM/_Library/u8x8_d_st7565.c **** };
  50:/Users/imashio/Electronics/ARM/_Library/u8x8_d_st7565.c **** 
  51:/Users/imashio/Electronics/ARM/_Library/u8x8_d_st7565.c **** static const uint8_t u8x8_d_st7565_powersave1_seq[] = {
  52:/Users/imashio/Electronics/ARM/_Library/u8x8_d_st7565.c ****   U8X8_START_TRANSFER(),             	/* enable chip, delay is part of the transfer start */
  53:/Users/imashio/Electronics/ARM/_Library/u8x8_d_st7565.c ****   U8X8_C(0x0ae),		                /* display off */
  54:/Users/imashio/Electronics/ARM/_Library/u8x8_d_st7565.c ****   U8X8_C(0x0a5),		                /* enter powersafe: all pixel on, issue 142 */
  55:/Users/imashio/Electronics/ARM/_Library/u8x8_d_st7565.c ****   U8X8_END_TRANSFER(),             	/* disable chip */
  56:/Users/imashio/Electronics/ARM/_Library/u8x8_d_st7565.c ****   U8X8_END()             			/* end of sequence */
  57:/Users/imashio/Electronics/ARM/_Library/u8x8_d_st7565.c **** };
  58:/Users/imashio/Electronics/ARM/_Library/u8x8_d_st7565.c **** 
  59:/Users/imashio/Electronics/ARM/_Library/u8x8_d_st7565.c **** static const uint8_t u8x8_d_st7565_flip0_seq[] = {
  60:/Users/imashio/Electronics/ARM/_Library/u8x8_d_st7565.c ****   U8X8_START_TRANSFER(),             	/* enable chip, delay is part of the transfer start */
  61:/Users/imashio/Electronics/ARM/_Library/u8x8_d_st7565.c ****   U8X8_C(0x0a1),				/* segment remap a0/a1*/
  62:/Users/imashio/Electronics/ARM/_Library/u8x8_d_st7565.c ****   U8X8_C(0x0c0),				/* c0: scan dir normal, c8: reverse */
  63:/Users/imashio/Electronics/ARM/_Library/u8x8_d_st7565.c ****   U8X8_END_TRANSFER(),             	/* disable chip */
  64:/Users/imashio/Electronics/ARM/_Library/u8x8_d_st7565.c ****   U8X8_END()             			/* end of sequence */
  65:/Users/imashio/Electronics/ARM/_Library/u8x8_d_st7565.c **** };
  66:/Users/imashio/Electronics/ARM/_Library/u8x8_d_st7565.c **** 
  67:/Users/imashio/Electronics/ARM/_Library/u8x8_d_st7565.c **** static const uint8_t u8x8_d_st7565_flip1_seq[] = {
  68:/Users/imashio/Electronics/ARM/_Library/u8x8_d_st7565.c ****   U8X8_START_TRANSFER(),             	/* enable chip, delay is part of the transfer start */
  69:/Users/imashio/Electronics/ARM/_Library/u8x8_d_st7565.c ****   U8X8_C(0x0a0),				/* segment remap a0/a1*/
  70:/Users/imashio/Electronics/ARM/_Library/u8x8_d_st7565.c ****   U8X8_C(0x0c8),				/* c0: scan dir normal, c8: reverse */
  71:/Users/imashio/Electronics/ARM/_Library/u8x8_d_st7565.c ****   U8X8_END_TRANSFER(),             	/* disable chip */
  72:/Users/imashio/Electronics/ARM/_Library/u8x8_d_st7565.c ****   U8X8_END()             			/* end of sequence */
  73:/Users/imashio/Electronics/ARM/_Library/u8x8_d_st7565.c **** };
  74:/Users/imashio/Electronics/ARM/_Library/u8x8_d_st7565.c **** 
  75:/Users/imashio/Electronics/ARM/_Library/u8x8_d_st7565.c **** static const uint8_t u8x8_d_st7565_zflip0_seq[] = {
  76:/Users/imashio/Electronics/ARM/_Library/u8x8_d_st7565.c ****   U8X8_START_TRANSFER(),             	/* enable chip, delay is part of the transfer start */
  77:/Users/imashio/Electronics/ARM/_Library/u8x8_d_st7565.c ****   U8X8_C(0x0a1),				/* segment remap a0/a1*/
  78:/Users/imashio/Electronics/ARM/_Library/u8x8_d_st7565.c ****   U8X8_C(0x0c8),				/* c0: scan dir normal, c8: reverse */
  79:/Users/imashio/Electronics/ARM/_Library/u8x8_d_st7565.c ****   U8X8_END_TRANSFER(),             	/* disable chip */
  80:/Users/imashio/Electronics/ARM/_Library/u8x8_d_st7565.c ****   U8X8_END()             			/* end of sequence */
  81:/Users/imashio/Electronics/ARM/_Library/u8x8_d_st7565.c **** };
  82:/Users/imashio/Electronics/ARM/_Library/u8x8_d_st7565.c **** 
  83:/Users/imashio/Electronics/ARM/_Library/u8x8_d_st7565.c **** static const uint8_t u8x8_d_st7565_zflip1_seq[] = {
  84:/Users/imashio/Electronics/ARM/_Library/u8x8_d_st7565.c ****   U8X8_START_TRANSFER(),             	/* enable chip, delay is part of the transfer start */
  85:/Users/imashio/Electronics/ARM/_Library/u8x8_d_st7565.c ****   U8X8_C(0x0a0),				/* segment remap a0/a1*/
  86:/Users/imashio/Electronics/ARM/_Library/u8x8_d_st7565.c ****   U8X8_C(0x0c0),				/* c0: scan dir normal, c8: reverse */
  87:/Users/imashio/Electronics/ARM/_Library/u8x8_d_st7565.c ****   U8X8_END_TRANSFER(),             	/* disable chip */
ARM GAS  /var/folders/v3/wysfpd052nz8jkbx04pk0ym80000gn/T//ccFzeRvn.s 			page 3


  88:/Users/imashio/Electronics/ARM/_Library/u8x8_d_st7565.c ****   U8X8_END()             			/* end of sequence */
  89:/Users/imashio/Electronics/ARM/_Library/u8x8_d_st7565.c **** };
  90:/Users/imashio/Electronics/ARM/_Library/u8x8_d_st7565.c **** 
  91:/Users/imashio/Electronics/ARM/_Library/u8x8_d_st7565.c **** static const u8x8_display_info_t u8x8_st7565_128x64_display_info =
  92:/Users/imashio/Electronics/ARM/_Library/u8x8_d_st7565.c **** {
  93:/Users/imashio/Electronics/ARM/_Library/u8x8_d_st7565.c ****   /* chip_enable_level = */ 0,
  94:/Users/imashio/Electronics/ARM/_Library/u8x8_d_st7565.c ****   /* chip_disable_level = */ 1,
  95:/Users/imashio/Electronics/ARM/_Library/u8x8_d_st7565.c ****   
  96:/Users/imashio/Electronics/ARM/_Library/u8x8_d_st7565.c ****   /* post_chip_enable_wait_ns = */ 150,	/* st7565 datasheet, table 26, tcsh */
  97:/Users/imashio/Electronics/ARM/_Library/u8x8_d_st7565.c ****   /* pre_chip_disable_wait_ns = */ 50,	/* st7565 datasheet, table 26, tcss */
  98:/Users/imashio/Electronics/ARM/_Library/u8x8_d_st7565.c ****   /* reset_pulse_width_ms = */ 1, 
  99:/Users/imashio/Electronics/ARM/_Library/u8x8_d_st7565.c ****   /* post_reset_wait_ms = */ 1, 
 100:/Users/imashio/Electronics/ARM/_Library/u8x8_d_st7565.c ****   /* sda_setup_time_ns = */ 50,		/* st7565 datasheet, table 26, tsds */
 101:/Users/imashio/Electronics/ARM/_Library/u8x8_d_st7565.c ****   /* sck_pulse_width_ns = */ 120,	/* half of cycle time (100ns according to datasheet), AVR: below 
 102:/Users/imashio/Electronics/ARM/_Library/u8x8_d_st7565.c ****   /* sck_clock_hz = */ 4000000UL,	/* since Arduino 1.6.0, the SPI bus speed in Hz. Should be  10000
 103:/Users/imashio/Electronics/ARM/_Library/u8x8_d_st7565.c ****   /* spi_mode = */ 0,		/* active high, rising edge */
 104:/Users/imashio/Electronics/ARM/_Library/u8x8_d_st7565.c ****   /* i2c_bus_clock_100kHz = */ 4,
 105:/Users/imashio/Electronics/ARM/_Library/u8x8_d_st7565.c ****   /* data_setup_time_ns = */ 40,	/* st7565 datasheet, table 24, tds8 */
 106:/Users/imashio/Electronics/ARM/_Library/u8x8_d_st7565.c ****   /* write_pulse_width_ns = */ 80,	/* st7565 datasheet, table 24, tcclw */
 107:/Users/imashio/Electronics/ARM/_Library/u8x8_d_st7565.c ****   /* tile_width = */ 16,		/* width of 16*8=128 pixel */
 108:/Users/imashio/Electronics/ARM/_Library/u8x8_d_st7565.c ****   /* tile_hight = */ 8,
 109:/Users/imashio/Electronics/ARM/_Library/u8x8_d_st7565.c ****   /* default_x_offset = */ 0,
 110:/Users/imashio/Electronics/ARM/_Library/u8x8_d_st7565.c ****   /* flipmode_x_offset = */ 4,
 111:/Users/imashio/Electronics/ARM/_Library/u8x8_d_st7565.c ****   /* pixel_width = */ 128,
 112:/Users/imashio/Electronics/ARM/_Library/u8x8_d_st7565.c ****   /* pixel_height = */ 64
 113:/Users/imashio/Electronics/ARM/_Library/u8x8_d_st7565.c **** };
 114:/Users/imashio/Electronics/ARM/_Library/u8x8_d_st7565.c **** 
 115:/Users/imashio/Electronics/ARM/_Library/u8x8_d_st7565.c **** uint8_t u8x8_d_st7565_common(u8x8_t *u8x8, uint8_t msg, uint8_t arg_int, void *arg_ptr)
 116:/Users/imashio/Electronics/ARM/_Library/u8x8_d_st7565.c **** {
  29              		.loc 1 116 0
  30              		.cfi_startproc
  31              		@ args = 0, pretend = 0, frame = 0
  32              		@ frame_needed = 0, uses_anonymous_args = 0
  33              	.LVL0:
 117:/Users/imashio/Electronics/ARM/_Library/u8x8_d_st7565.c ****   uint8_t x, c;
 118:/Users/imashio/Electronics/ARM/_Library/u8x8_d_st7565.c ****   uint8_t *ptr;
 119:/Users/imashio/Electronics/ARM/_Library/u8x8_d_st7565.c ****   switch(msg)
  34              		.loc 1 119 0
  35 0000 0E29     		cmp	r1, #14
 116:/Users/imashio/Electronics/ARM/_Library/u8x8_d_st7565.c ****   uint8_t x, c;
  36              		.loc 1 116 0
  37 0002 2DE9F041 		push	{r4, r5, r6, r7, r8, lr}
  38              	.LCFI0:
  39              		.cfi_def_cfa_offset 24
  40              		.cfi_offset 4, -24
  41              		.cfi_offset 5, -20
  42              		.cfi_offset 6, -16
  43              		.cfi_offset 7, -12
  44              		.cfi_offset 8, -8
  45              		.cfi_offset 14, -4
 116:/Users/imashio/Electronics/ARM/_Library/u8x8_d_st7565.c ****   uint8_t x, c;
  46              		.loc 1 116 0
  47 0006 1446     		mov	r4, r2
  48 0008 0546     		mov	r5, r0
  49              		.loc 1 119 0
  50 000a 45D0     		beq	.L3
  51 000c 0F29     		cmp	r1, #15
ARM GAS  /var/folders/v3/wysfpd052nz8jkbx04pk0ym80000gn/T//ccFzeRvn.s 			page 4


  52 000e 0CD0     		beq	.L4
  53 0010 0B29     		cmp	r1, #11
  54 0012 02D0     		beq	.L15
 120:/Users/imashio/Electronics/ARM/_Library/u8x8_d_st7565.c ****   {
 121:/Users/imashio/Electronics/ARM/_Library/u8x8_d_st7565.c ****     case U8X8_MSG_DISPLAY_DRAW_TILE:
 122:/Users/imashio/Electronics/ARM/_Library/u8x8_d_st7565.c ****       u8x8_cad_StartTransfer(u8x8);
 123:/Users/imashio/Electronics/ARM/_Library/u8x8_d_st7565.c ****     
 124:/Users/imashio/Electronics/ARM/_Library/u8x8_d_st7565.c ****       x = ((u8x8_tile_t *)arg_ptr)->x_pos;
 125:/Users/imashio/Electronics/ARM/_Library/u8x8_d_st7565.c ****       x *= 8;
 126:/Users/imashio/Electronics/ARM/_Library/u8x8_d_st7565.c ****       x += u8x8->x_offset;
 127:/Users/imashio/Electronics/ARM/_Library/u8x8_d_st7565.c ****       u8x8_cad_SendCmd(u8x8, 0x010 | (x>>4) );
 128:/Users/imashio/Electronics/ARM/_Library/u8x8_d_st7565.c ****       u8x8_cad_SendCmd(u8x8, 0x000 | ((x&15)));
 129:/Users/imashio/Electronics/ARM/_Library/u8x8_d_st7565.c ****       u8x8_cad_SendCmd(u8x8, 0x0b0 | (((u8x8_tile_t *)arg_ptr)->y_pos));
 130:/Users/imashio/Electronics/ARM/_Library/u8x8_d_st7565.c ****     
 131:/Users/imashio/Electronics/ARM/_Library/u8x8_d_st7565.c ****       c = ((u8x8_tile_t *)arg_ptr)->cnt;
 132:/Users/imashio/Electronics/ARM/_Library/u8x8_d_st7565.c ****       c *= 8;
 133:/Users/imashio/Electronics/ARM/_Library/u8x8_d_st7565.c ****       ptr = ((u8x8_tile_t *)arg_ptr)->tile_ptr;
 134:/Users/imashio/Electronics/ARM/_Library/u8x8_d_st7565.c ****       /* 
 135:/Users/imashio/Electronics/ARM/_Library/u8x8_d_st7565.c **** 	The following if condition checks the hardware limits of the st7565 
 136:/Users/imashio/Electronics/ARM/_Library/u8x8_d_st7565.c **** 	controller: It is not allowed to write beyond the display limits.
 137:/Users/imashio/Electronics/ARM/_Library/u8x8_d_st7565.c **** 	This is in fact an issue within flip mode.
 138:/Users/imashio/Electronics/ARM/_Library/u8x8_d_st7565.c ****       */
 139:/Users/imashio/Electronics/ARM/_Library/u8x8_d_st7565.c ****       if ( c + x > 132u )
 140:/Users/imashio/Electronics/ARM/_Library/u8x8_d_st7565.c ****       {
 141:/Users/imashio/Electronics/ARM/_Library/u8x8_d_st7565.c **** 	c = 132u;
 142:/Users/imashio/Electronics/ARM/_Library/u8x8_d_st7565.c **** 	c -= x;
 143:/Users/imashio/Electronics/ARM/_Library/u8x8_d_st7565.c ****       }
 144:/Users/imashio/Electronics/ARM/_Library/u8x8_d_st7565.c ****       do
 145:/Users/imashio/Electronics/ARM/_Library/u8x8_d_st7565.c ****       {
 146:/Users/imashio/Electronics/ARM/_Library/u8x8_d_st7565.c **** 	u8x8_cad_SendData(u8x8, c, ptr);	/* note: SendData can not handle more than 255 bytes */
 147:/Users/imashio/Electronics/ARM/_Library/u8x8_d_st7565.c **** 	arg_int--;
 148:/Users/imashio/Electronics/ARM/_Library/u8x8_d_st7565.c ****       } while( arg_int > 0 );
 149:/Users/imashio/Electronics/ARM/_Library/u8x8_d_st7565.c ****       
 150:/Users/imashio/Electronics/ARM/_Library/u8x8_d_st7565.c ****       u8x8_cad_EndTransfer(u8x8);
 151:/Users/imashio/Electronics/ARM/_Library/u8x8_d_st7565.c ****       break;
 152:/Users/imashio/Electronics/ARM/_Library/u8x8_d_st7565.c ****     /*	handled in the calling procedure 
 153:/Users/imashio/Electronics/ARM/_Library/u8x8_d_st7565.c ****     case U8X8_MSG_DISPLAY_SETUP_MEMORY:
 154:/Users/imashio/Electronics/ARM/_Library/u8x8_d_st7565.c ****       u8x8_d_helper_display_setup_memory(u8x8, &u8x8_st7565_128x64_display_info);
 155:/Users/imashio/Electronics/ARM/_Library/u8x8_d_st7565.c ****       break;
 156:/Users/imashio/Electronics/ARM/_Library/u8x8_d_st7565.c ****     case U8X8_MSG_DISPLAY_INIT:
 157:/Users/imashio/Electronics/ARM/_Library/u8x8_d_st7565.c ****       u8x8_d_helper_display_init(u8x8);
 158:/Users/imashio/Electronics/ARM/_Library/u8x8_d_st7565.c ****       u8x8_cad_SendSequence(u8x8, u8x8_d_uc1701_dogs102_init_seq);
 159:/Users/imashio/Electronics/ARM/_Library/u8x8_d_st7565.c ****       break;
 160:/Users/imashio/Electronics/ARM/_Library/u8x8_d_st7565.c ****     */
 161:/Users/imashio/Electronics/ARM/_Library/u8x8_d_st7565.c ****     case U8X8_MSG_DISPLAY_SET_POWER_SAVE:
 162:/Users/imashio/Electronics/ARM/_Library/u8x8_d_st7565.c ****       if ( arg_int == 0 )
 163:/Users/imashio/Electronics/ARM/_Library/u8x8_d_st7565.c **** 	u8x8_cad_SendSequence(u8x8, u8x8_d_st7565_powersave0_seq);
 164:/Users/imashio/Electronics/ARM/_Library/u8x8_d_st7565.c ****       else
 165:/Users/imashio/Electronics/ARM/_Library/u8x8_d_st7565.c **** 	u8x8_cad_SendSequence(u8x8, u8x8_d_st7565_powersave1_seq);
 166:/Users/imashio/Electronics/ARM/_Library/u8x8_d_st7565.c ****       break;
 167:/Users/imashio/Electronics/ARM/_Library/u8x8_d_st7565.c **** #ifdef U8X8_WITH_SET_CONTRAST
 168:/Users/imashio/Electronics/ARM/_Library/u8x8_d_st7565.c ****     case U8X8_MSG_DISPLAY_SET_CONTRAST:
 169:/Users/imashio/Electronics/ARM/_Library/u8x8_d_st7565.c ****       u8x8_cad_StartTransfer(u8x8);
 170:/Users/imashio/Electronics/ARM/_Library/u8x8_d_st7565.c ****       u8x8_cad_SendCmd(u8x8, 0x081 );
 171:/Users/imashio/Electronics/ARM/_Library/u8x8_d_st7565.c ****       u8x8_cad_SendArg(u8x8, arg_int >> 2 );	/* st7565 has range from 0 to 63 */
 172:/Users/imashio/Electronics/ARM/_Library/u8x8_d_st7565.c ****       u8x8_cad_EndTransfer(u8x8);
 173:/Users/imashio/Electronics/ARM/_Library/u8x8_d_st7565.c ****       break;
ARM GAS  /var/folders/v3/wysfpd052nz8jkbx04pk0ym80000gn/T//ccFzeRvn.s 			page 5


 174:/Users/imashio/Electronics/ARM/_Library/u8x8_d_st7565.c **** #endif
 175:/Users/imashio/Electronics/ARM/_Library/u8x8_d_st7565.c ****     default:
 176:/Users/imashio/Electronics/ARM/_Library/u8x8_d_st7565.c ****       return 0;
  55              		.loc 1 176 0
  56 0014 0020     		movs	r0, #0
  57              	.LVL1:
 177:/Users/imashio/Electronics/ARM/_Library/u8x8_d_st7565.c ****   }
 178:/Users/imashio/Electronics/ARM/_Library/u8x8_d_st7565.c ****   return 1;
 179:/Users/imashio/Electronics/ARM/_Library/u8x8_d_st7565.c **** }
  58              		.loc 1 179 0
  59 0016 BDE8F081 		pop	{r4, r5, r6, r7, r8, pc}
  60              	.LVL2:
  61              	.L15:
 162:/Users/imashio/Electronics/ARM/_Library/u8x8_d_st7565.c **** 	u8x8_cad_SendSequence(u8x8, u8x8_d_st7565_powersave0_seq);
  62              		.loc 1 162 0
  63 001a 002A     		cmp	r2, #0
  64 001c 4BD1     		bne	.L8
 163:/Users/imashio/Electronics/ARM/_Library/u8x8_d_st7565.c ****       else
  65              		.loc 1 163 0
  66 001e 2949     		ldr	r1, .L17
  67              	.LVL3:
  68 0020 FFF7FEFF 		bl	u8x8_cad_SendSequence
  69              	.LVL4:
 178:/Users/imashio/Electronics/ARM/_Library/u8x8_d_st7565.c **** }
  70              		.loc 1 178 0
  71 0024 0120     		movs	r0, #1
  72              		.loc 1 179 0
  73 0026 BDE8F081 		pop	{r4, r5, r6, r7, r8, pc}
  74              	.LVL5:
  75              	.L4:
  76 002a 9846     		mov	r8, r3
  77              	.LVL6:
  78              	.LBB4:
  79              	.LBB5:
 122:/Users/imashio/Electronics/ARM/_Library/u8x8_d_st7565.c ****     
  80              		.loc 1 122 0
  81 002c FFF7FEFF 		bl	u8x8_cad_StartTransfer
  82              	.LVL7:
 124:/Users/imashio/Electronics/ARM/_Library/u8x8_d_st7565.c ****       x *= 8;
  83              		.loc 1 124 0
  84 0030 98F80560 		ldrb	r6, [r8, #5]	@ zero_extendqisi2
  85              	.LVL8:
 126:/Users/imashio/Electronics/ARM/_Library/u8x8_d_st7565.c ****       u8x8_cad_SendCmd(u8x8, 0x010 | (x>>4) );
  86              		.loc 1 126 0
  87 0034 AF7F     		ldrb	r7, [r5, #30]	@ zero_extendqisi2
  88 0036 07EBC607 		add	r7, r7, r6, lsl #3
  89 003a 07F0FF07 		and	r7, r7, #255
  90              	.LVL9:
 127:/Users/imashio/Electronics/ARM/_Library/u8x8_d_st7565.c ****       u8x8_cad_SendCmd(u8x8, 0x000 | ((x&15)));
  91              		.loc 1 127 0
  92 003e 3909     		lsrs	r1, r7, #4
  93 0040 41F01001 		orr	r1, r1, #16
  94 0044 2846     		mov	r0, r5
  95 0046 FFF7FEFF 		bl	u8x8_cad_SendCmd
  96              	.LVL10:
 128:/Users/imashio/Electronics/ARM/_Library/u8x8_d_st7565.c ****       u8x8_cad_SendCmd(u8x8, 0x0b0 | (((u8x8_tile_t *)arg_ptr)->y_pos));
  97              		.loc 1 128 0
ARM GAS  /var/folders/v3/wysfpd052nz8jkbx04pk0ym80000gn/T//ccFzeRvn.s 			page 6


  98 004a 07F00F01 		and	r1, r7, #15
  99 004e 2846     		mov	r0, r5
 100 0050 FFF7FEFF 		bl	u8x8_cad_SendCmd
 101              	.LVL11:
 129:/Users/imashio/Electronics/ARM/_Library/u8x8_d_st7565.c ****     
 102              		.loc 1 129 0
 103 0054 98F80610 		ldrb	r1, [r8, #6]	@ zero_extendqisi2
 104 0058 2846     		mov	r0, r5
 105 005a 41F0B001 		orr	r1, r1, #176
 106 005e FFF7FEFF 		bl	u8x8_cad_SendCmd
 107              	.LVL12:
 131:/Users/imashio/Electronics/ARM/_Library/u8x8_d_st7565.c ****       c *= 8;
 108              		.loc 1 131 0
 109 0062 98F80460 		ldrb	r6, [r8, #4]	@ zero_extendqisi2
 110              	.LVL13:
 133:/Users/imashio/Electronics/ARM/_Library/u8x8_d_st7565.c ****       /* 
 111              		.loc 1 133 0
 112 0066 D8F80080 		ldr	r8, [r8]
 113              	.LVL14:
 132:/Users/imashio/Electronics/ARM/_Library/u8x8_d_st7565.c ****       ptr = ((u8x8_tile_t *)arg_ptr)->tile_ptr;
 114              		.loc 1 132 0
 115 006a F600     		lsls	r6, r6, #3
 116              	.LVL15:
 117 006c F6B2     		uxtb	r6, r6
 118              	.LVL16:
 139:/Users/imashio/Electronics/ARM/_Library/u8x8_d_st7565.c ****       {
 119              		.loc 1 139 0
 120 006e F319     		adds	r3, r6, r7
 121 0070 842B     		cmp	r3, #132
 122              	.LVL17:
 142:/Users/imashio/Electronics/ARM/_Library/u8x8_d_st7565.c ****       }
 123              		.loc 1 142 0
 124 0072 C4BF     		itt	gt
 125 0074 C7F18406 		rsbgt	r6, r7, #132
 126 0078 F6B2     		uxtbgt	r6, r6
 127              	.LVL18:
 128              	.L7:
 146:/Users/imashio/Electronics/ARM/_Library/u8x8_d_st7565.c **** 	arg_int--;
 129              		.loc 1 146 0
 130 007a 4246     		mov	r2, r8
 131 007c 3146     		mov	r1, r6
 132 007e 2846     		mov	r0, r5
 133 0080 FFF7FEFF 		bl	u8x8_cad_SendData
 134              	.LVL19:
 147:/Users/imashio/Electronics/ARM/_Library/u8x8_d_st7565.c ****       } while( arg_int > 0 );
 135              		.loc 1 147 0
 136 0084 621E     		subs	r2, r4, #1
 137              	.LVL20:
 148:/Users/imashio/Electronics/ARM/_Library/u8x8_d_st7565.c ****       
 138              		.loc 1 148 0
 139 0086 12F0FF04 		ands	r4, r2, #255
 140 008a F6D1     		bne	.L7
 141              	.LBE5:
 142              	.LBE4:
 172:/Users/imashio/Electronics/ARM/_Library/u8x8_d_st7565.c ****       break;
 143              		.loc 1 172 0
 144 008c 2846     		mov	r0, r5
ARM GAS  /var/folders/v3/wysfpd052nz8jkbx04pk0ym80000gn/T//ccFzeRvn.s 			page 7


 145 008e FFF7FEFF 		bl	u8x8_cad_EndTransfer
 146              	.LVL21:
 178:/Users/imashio/Electronics/ARM/_Library/u8x8_d_st7565.c **** }
 147              		.loc 1 178 0
 148 0092 0120     		movs	r0, #1
 149              	.LVL22:
 150              	.L16:
 151              		.loc 1 179 0
 152 0094 BDE8F081 		pop	{r4, r5, r6, r7, r8, pc}
 153              	.LVL23:
 154              	.L3:
 169:/Users/imashio/Electronics/ARM/_Library/u8x8_d_st7565.c ****       u8x8_cad_SendCmd(u8x8, 0x081 );
 155              		.loc 1 169 0
 156 0098 FFF7FEFF 		bl	u8x8_cad_StartTransfer
 157              	.LVL24:
 170:/Users/imashio/Electronics/ARM/_Library/u8x8_d_st7565.c ****       u8x8_cad_SendArg(u8x8, arg_int >> 2 );	/* st7565 has range from 0 to 63 */
 158              		.loc 1 170 0
 159 009c 8121     		movs	r1, #129
 160 009e 2846     		mov	r0, r5
 161 00a0 FFF7FEFF 		bl	u8x8_cad_SendCmd
 162              	.LVL25:
 171:/Users/imashio/Electronics/ARM/_Library/u8x8_d_st7565.c ****       u8x8_cad_EndTransfer(u8x8);
 163              		.loc 1 171 0
 164 00a4 A108     		lsrs	r1, r4, #2
 165 00a6 2846     		mov	r0, r5
 166 00a8 FFF7FEFF 		bl	u8x8_cad_SendArg
 167              	.LVL26:
 172:/Users/imashio/Electronics/ARM/_Library/u8x8_d_st7565.c ****       break;
 168              		.loc 1 172 0
 169 00ac 2846     		mov	r0, r5
 170 00ae FFF7FEFF 		bl	u8x8_cad_EndTransfer
 171              	.LVL27:
 178:/Users/imashio/Electronics/ARM/_Library/u8x8_d_st7565.c **** }
 172              		.loc 1 178 0
 173 00b2 0120     		movs	r0, #1
 174 00b4 EEE7     		b	.L16
 175              	.LVL28:
 176              	.L8:
 165:/Users/imashio/Electronics/ARM/_Library/u8x8_d_st7565.c ****       break;
 177              		.loc 1 165 0
 178 00b6 0449     		ldr	r1, .L17+4
 179              	.LVL29:
 180 00b8 FFF7FEFF 		bl	u8x8_cad_SendSequence
 181              	.LVL30:
 178:/Users/imashio/Electronics/ARM/_Library/u8x8_d_st7565.c **** }
 182              		.loc 1 178 0
 183 00bc 0120     		movs	r0, #1
 184              		.loc 1 179 0
 185 00be BDE8F081 		pop	{r4, r5, r6, r7, r8, pc}
 186              	.LVL31:
 187              	.L18:
 188 00c2 00BF     		.align	2
 189              	.L17:
 190 00c4 00000000 		.word	.LANCHOR0
 191 00c8 00000000 		.word	.LANCHOR1
 192              		.cfi_endproc
 193              	.LFE0:
ARM GAS  /var/folders/v3/wysfpd052nz8jkbx04pk0ym80000gn/T//ccFzeRvn.s 			page 8


 195              		.section	.text.u8x8_d_st7565_ea_dogm128,"ax",%progbits
 196              		.align	1
 197              		.p2align 2,,3
 198              		.global	u8x8_d_st7565_ea_dogm128
 199              		.syntax unified
 200              		.thumb
 201              		.thumb_func
 202              		.fpu fpv4-sp-d16
 204              	u8x8_d_st7565_ea_dogm128:
 205              	.LFB1:
 180:/Users/imashio/Electronics/ARM/_Library/u8x8_d_st7565.c **** 
 181:/Users/imashio/Electronics/ARM/_Library/u8x8_d_st7565.c **** /*================================================*/
 182:/Users/imashio/Electronics/ARM/_Library/u8x8_d_st7565.c **** /* DOGM128 */
 183:/Users/imashio/Electronics/ARM/_Library/u8x8_d_st7565.c **** 
 184:/Users/imashio/Electronics/ARM/_Library/u8x8_d_st7565.c **** static const uint8_t u8x8_d_st7565_dogm128_init_seq[] = {
 185:/Users/imashio/Electronics/ARM/_Library/u8x8_d_st7565.c ****     
 186:/Users/imashio/Electronics/ARM/_Library/u8x8_d_st7565.c ****   U8X8_START_TRANSFER(),             	/* enable chip, delay is part of the transfer start */
 187:/Users/imashio/Electronics/ARM/_Library/u8x8_d_st7565.c ****   
 188:/Users/imashio/Electronics/ARM/_Library/u8x8_d_st7565.c ****   U8X8_C(0x0e2),            			/* soft reset */
 189:/Users/imashio/Electronics/ARM/_Library/u8x8_d_st7565.c ****   U8X8_C(0x0ae),		                /* display off */
 190:/Users/imashio/Electronics/ARM/_Library/u8x8_d_st7565.c ****   U8X8_C(0x040),		                /* set display start line to 0 */
 191:/Users/imashio/Electronics/ARM/_Library/u8x8_d_st7565.c ****   
 192:/Users/imashio/Electronics/ARM/_Library/u8x8_d_st7565.c ****   U8X8_C(0x0a1),		                /* ADC set to reverse */
 193:/Users/imashio/Electronics/ARM/_Library/u8x8_d_st7565.c ****   U8X8_C(0x0c0),		                /* common output mode */
 194:/Users/imashio/Electronics/ARM/_Library/u8x8_d_st7565.c ****   // Flipmode
 195:/Users/imashio/Electronics/ARM/_Library/u8x8_d_st7565.c ****   // U8X8_C(0x0a0),		                /* ADC set to reverse */
 196:/Users/imashio/Electronics/ARM/_Library/u8x8_d_st7565.c ****   // U8X8_C(0x0c8),		                /* common output mode */
 197:/Users/imashio/Electronics/ARM/_Library/u8x8_d_st7565.c ****   
 198:/Users/imashio/Electronics/ARM/_Library/u8x8_d_st7565.c ****   U8X8_C(0x0a6),		                /* display normal, bit val 0: LCD pixel off. */
 199:/Users/imashio/Electronics/ARM/_Library/u8x8_d_st7565.c ****   U8X8_C(0x0a2),		                /* LCD bias 1/9 */
 200:/Users/imashio/Electronics/ARM/_Library/u8x8_d_st7565.c ****   U8X8_C(0x02f),		                /* all power  control circuits on (regulator, booster and followe
 201:/Users/imashio/Electronics/ARM/_Library/u8x8_d_st7565.c ****   U8X8_CA(0x0f8, 0x000),		/* set booster ratio to 4x */
 202:/Users/imashio/Electronics/ARM/_Library/u8x8_d_st7565.c ****   U8X8_C(0x027),		                /* set V0 voltage resistor ratio to max  */
 203:/Users/imashio/Electronics/ARM/_Library/u8x8_d_st7565.c ****   U8X8_CA(0x081, 0x018),		/* set contrast, contrast value, EA default: 0x016 */
 204:/Users/imashio/Electronics/ARM/_Library/u8x8_d_st7565.c ****   
 205:/Users/imashio/Electronics/ARM/_Library/u8x8_d_st7565.c ****   U8X8_C(0x0ae),		                /* display off */
 206:/Users/imashio/Electronics/ARM/_Library/u8x8_d_st7565.c ****   U8X8_C(0x0a5),		                /* enter powersafe: all pixel on, issue 142 */
 207:/Users/imashio/Electronics/ARM/_Library/u8x8_d_st7565.c ****   
 208:/Users/imashio/Electronics/ARM/_Library/u8x8_d_st7565.c ****   U8X8_END_TRANSFER(),             	/* disable chip */
 209:/Users/imashio/Electronics/ARM/_Library/u8x8_d_st7565.c ****   U8X8_END()             			/* end of sequence */
 210:/Users/imashio/Electronics/ARM/_Library/u8x8_d_st7565.c **** };
 211:/Users/imashio/Electronics/ARM/_Library/u8x8_d_st7565.c **** 
 212:/Users/imashio/Electronics/ARM/_Library/u8x8_d_st7565.c **** uint8_t u8x8_d_st7565_ea_dogm128(u8x8_t *u8x8, uint8_t msg, uint8_t arg_int, void *arg_ptr)
 213:/Users/imashio/Electronics/ARM/_Library/u8x8_d_st7565.c **** {
 206              		.loc 1 213 0
 207              		.cfi_startproc
 208              		@ args = 0, pretend = 0, frame = 0
 209              		@ frame_needed = 0, uses_anonymous_args = 0
 210              	.LVL32:
 211 0000 70B5     		push	{r4, r5, r6, lr}
 212              	.LCFI1:
 213              		.cfi_def_cfa_offset 16
 214              		.cfi_offset 4, -16
 215              		.cfi_offset 5, -12
 216              		.cfi_offset 6, -8
 217              		.cfi_offset 14, -4
 218              		.loc 1 213 0
ARM GAS  /var/folders/v3/wysfpd052nz8jkbx04pk0ym80000gn/T//ccFzeRvn.s 			page 9


 219 0002 0546     		mov	r5, r0
 220 0004 0C46     		mov	r4, r1
 221 0006 1646     		mov	r6, r2
 214:/Users/imashio/Electronics/ARM/_Library/u8x8_d_st7565.c ****   /* call common procedure first and handle messages there */
 215:/Users/imashio/Electronics/ARM/_Library/u8x8_d_st7565.c ****   if ( u8x8_d_st7565_common(u8x8, msg, arg_int, arg_ptr) == 0 )
 222              		.loc 1 215 0
 223 0008 FFF7FEFF 		bl	u8x8_d_st7565_common
 224              	.LVL33:
 225 000c 30B9     		cbnz	r0, .L25
 216:/Users/imashio/Electronics/ARM/_Library/u8x8_d_st7565.c ****   {
 217:/Users/imashio/Electronics/ARM/_Library/u8x8_d_st7565.c ****     /* msg not handled, then try here */
 218:/Users/imashio/Electronics/ARM/_Library/u8x8_d_st7565.c ****     switch(msg)
 226              		.loc 1 218 0
 227 000e 0A2C     		cmp	r4, #10
 228 0010 06D0     		beq	.L21
 229 0012 0D2C     		cmp	r4, #13
 230 0014 13D0     		beq	.L22
 231 0016 092C     		cmp	r4, #9
 232 0018 0BD0     		beq	.L27
 219:/Users/imashio/Electronics/ARM/_Library/u8x8_d_st7565.c ****     {
 220:/Users/imashio/Electronics/ARM/_Library/u8x8_d_st7565.c ****       case U8X8_MSG_DISPLAY_SETUP_MEMORY:
 221:/Users/imashio/Electronics/ARM/_Library/u8x8_d_st7565.c **** 	u8x8_d_helper_display_setup_memory(u8x8, &u8x8_st7565_128x64_display_info);
 222:/Users/imashio/Electronics/ARM/_Library/u8x8_d_st7565.c **** 	break;
 223:/Users/imashio/Electronics/ARM/_Library/u8x8_d_st7565.c ****       case U8X8_MSG_DISPLAY_INIT:
 224:/Users/imashio/Electronics/ARM/_Library/u8x8_d_st7565.c **** 	u8x8_d_helper_display_init(u8x8);
 225:/Users/imashio/Electronics/ARM/_Library/u8x8_d_st7565.c **** 	u8x8_cad_SendSequence(u8x8, u8x8_d_st7565_dogm128_init_seq);
 226:/Users/imashio/Electronics/ARM/_Library/u8x8_d_st7565.c **** 	break;
 227:/Users/imashio/Electronics/ARM/_Library/u8x8_d_st7565.c ****       case U8X8_MSG_DISPLAY_SET_FLIP_MODE:
 228:/Users/imashio/Electronics/ARM/_Library/u8x8_d_st7565.c **** 	if ( arg_int == 0 )
 229:/Users/imashio/Electronics/ARM/_Library/u8x8_d_st7565.c **** 	{
 230:/Users/imashio/Electronics/ARM/_Library/u8x8_d_st7565.c **** 	  u8x8_cad_SendSequence(u8x8, u8x8_d_st7565_flip0_seq);
 231:/Users/imashio/Electronics/ARM/_Library/u8x8_d_st7565.c **** 	  u8x8->x_offset = u8x8->display_info->default_x_offset;
 232:/Users/imashio/Electronics/ARM/_Library/u8x8_d_st7565.c **** 	}
 233:/Users/imashio/Electronics/ARM/_Library/u8x8_d_st7565.c **** 	else
 234:/Users/imashio/Electronics/ARM/_Library/u8x8_d_st7565.c **** 	{
 235:/Users/imashio/Electronics/ARM/_Library/u8x8_d_st7565.c **** 	  u8x8_cad_SendSequence(u8x8, u8x8_d_st7565_flip1_seq);
 236:/Users/imashio/Electronics/ARM/_Library/u8x8_d_st7565.c **** 	  u8x8->x_offset = u8x8->display_info->flipmode_x_offset;
 237:/Users/imashio/Electronics/ARM/_Library/u8x8_d_st7565.c **** 	}	
 238:/Users/imashio/Electronics/ARM/_Library/u8x8_d_st7565.c **** 	break;
 239:/Users/imashio/Electronics/ARM/_Library/u8x8_d_st7565.c ****       default:
 240:/Users/imashio/Electronics/ARM/_Library/u8x8_d_st7565.c **** 	return 0;		/* msg unknown */
 241:/Users/imashio/Electronics/ARM/_Library/u8x8_d_st7565.c ****     }
 242:/Users/imashio/Electronics/ARM/_Library/u8x8_d_st7565.c ****   }
 243:/Users/imashio/Electronics/ARM/_Library/u8x8_d_st7565.c ****   return 1;
 244:/Users/imashio/Electronics/ARM/_Library/u8x8_d_st7565.c **** }
 233              		.loc 1 244 0
 234 001a 70BD     		pop	{r4, r5, r6, pc}
 235              	.LVL34:
 236              	.L25:
 243:/Users/imashio/Electronics/ARM/_Library/u8x8_d_st7565.c **** }
 237              		.loc 1 243 0
 238 001c 0120     		movs	r0, #1
 239              		.loc 1 244 0
 240 001e 70BD     		pop	{r4, r5, r6, pc}
 241              	.LVL35:
 242              	.L21:
 224:/Users/imashio/Electronics/ARM/_Library/u8x8_d_st7565.c **** 	u8x8_cad_SendSequence(u8x8, u8x8_d_st7565_dogm128_init_seq);
ARM GAS  /var/folders/v3/wysfpd052nz8jkbx04pk0ym80000gn/T//ccFzeRvn.s 			page 10


 243              		.loc 1 224 0
 244 0020 2846     		mov	r0, r5
 245 0022 FFF7FEFF 		bl	u8x8_d_helper_display_init
 246              	.LVL36:
 225:/Users/imashio/Electronics/ARM/_Library/u8x8_d_st7565.c **** 	break;
 247              		.loc 1 225 0
 248 0026 2846     		mov	r0, r5
 249 0028 0E49     		ldr	r1, .L29
 250 002a FFF7FEFF 		bl	u8x8_cad_SendSequence
 251              	.LVL37:
 243:/Users/imashio/Electronics/ARM/_Library/u8x8_d_st7565.c **** }
 252              		.loc 1 243 0
 253 002e 0120     		movs	r0, #1
 254              		.loc 1 244 0
 255 0030 70BD     		pop	{r4, r5, r6, pc}
 256              	.LVL38:
 257              	.L27:
 221:/Users/imashio/Electronics/ARM/_Library/u8x8_d_st7565.c **** 	break;
 258              		.loc 1 221 0
 259 0032 2846     		mov	r0, r5
 260 0034 0C49     		ldr	r1, .L29+4
 261 0036 FFF7FEFF 		bl	u8x8_d_helper_display_setup_memory
 262              	.LVL39:
 243:/Users/imashio/Electronics/ARM/_Library/u8x8_d_st7565.c **** }
 263              		.loc 1 243 0
 264 003a 0120     		movs	r0, #1
 265              		.loc 1 244 0
 266 003c 70BD     		pop	{r4, r5, r6, pc}
 267              	.LVL40:
 268              	.L22:
 228:/Users/imashio/Electronics/ARM/_Library/u8x8_d_st7565.c **** 	{
 269              		.loc 1 228 0
 270 003e 46B1     		cbz	r6, .L28
 235:/Users/imashio/Electronics/ARM/_Library/u8x8_d_st7565.c **** 	  u8x8->x_offset = u8x8->display_info->flipmode_x_offset;
 271              		.loc 1 235 0
 272 0040 2846     		mov	r0, r5
 273 0042 0A49     		ldr	r1, .L29+8
 274 0044 FFF7FEFF 		bl	u8x8_cad_SendSequence
 275              	.LVL41:
 236:/Users/imashio/Electronics/ARM/_Library/u8x8_d_st7565.c **** 	}	
 276              		.loc 1 236 0
 277 0048 2B68     		ldr	r3, [r5]
 278 004a DB7C     		ldrb	r3, [r3, #19]	@ zero_extendqisi2
 279 004c AB77     		strb	r3, [r5, #30]
 243:/Users/imashio/Electronics/ARM/_Library/u8x8_d_st7565.c **** }
 280              		.loc 1 243 0
 281 004e 0120     		movs	r0, #1
 282              		.loc 1 244 0
 283 0050 70BD     		pop	{r4, r5, r6, pc}
 284              	.LVL42:
 285              	.L28:
 230:/Users/imashio/Electronics/ARM/_Library/u8x8_d_st7565.c **** 	  u8x8->x_offset = u8x8->display_info->default_x_offset;
 286              		.loc 1 230 0
 287 0052 2846     		mov	r0, r5
 288 0054 0649     		ldr	r1, .L29+12
 289 0056 FFF7FEFF 		bl	u8x8_cad_SendSequence
 290              	.LVL43:
ARM GAS  /var/folders/v3/wysfpd052nz8jkbx04pk0ym80000gn/T//ccFzeRvn.s 			page 11


 231:/Users/imashio/Electronics/ARM/_Library/u8x8_d_st7565.c **** 	}
 291              		.loc 1 231 0
 292 005a 2B68     		ldr	r3, [r5]
 293 005c 9B7C     		ldrb	r3, [r3, #18]	@ zero_extendqisi2
 294 005e AB77     		strb	r3, [r5, #30]
 243:/Users/imashio/Electronics/ARM/_Library/u8x8_d_st7565.c **** }
 295              		.loc 1 243 0
 296 0060 0120     		movs	r0, #1
 297              		.loc 1 244 0
 298 0062 70BD     		pop	{r4, r5, r6, pc}
 299              	.LVL44:
 300              	.L30:
 301              		.align	2
 302              	.L29:
 303 0064 00000000 		.word	.LANCHOR3
 304 0068 00000000 		.word	.LANCHOR2
 305 006c 00000000 		.word	.LANCHOR5
 306 0070 00000000 		.word	.LANCHOR4
 307              		.cfi_endproc
 308              	.LFE1:
 310              		.section	.text.u8x8_d_st7565_64128n,"ax",%progbits
 311              		.align	1
 312              		.p2align 2,,3
 313              		.global	u8x8_d_st7565_64128n
 314              		.syntax unified
 315              		.thumb
 316              		.thumb_func
 317              		.fpu fpv4-sp-d16
 319              	u8x8_d_st7565_64128n:
 320              	.LFB2:
 245:/Users/imashio/Electronics/ARM/_Library/u8x8_d_st7565.c **** 
 246:/Users/imashio/Electronics/ARM/_Library/u8x8_d_st7565.c **** /*================================================*/
 247:/Users/imashio/Electronics/ARM/_Library/u8x8_d_st7565.c **** /* Displaytech 64128n */
 248:/Users/imashio/Electronics/ARM/_Library/u8x8_d_st7565.c **** 
 249:/Users/imashio/Electronics/ARM/_Library/u8x8_d_st7565.c **** static const uint8_t u8x8_d_st7565_64128n_init_seq[] = {
 250:/Users/imashio/Electronics/ARM/_Library/u8x8_d_st7565.c ****     
 251:/Users/imashio/Electronics/ARM/_Library/u8x8_d_st7565.c ****   U8X8_START_TRANSFER(),             	/* enable chip, delay is part of the transfer start */
 252:/Users/imashio/Electronics/ARM/_Library/u8x8_d_st7565.c **** 
 253:/Users/imashio/Electronics/ARM/_Library/u8x8_d_st7565.c ****   #ifdef NOT_WORKING
 254:/Users/imashio/Electronics/ARM/_Library/u8x8_d_st7565.c ****   
 255:/Users/imashio/Electronics/ARM/_Library/u8x8_d_st7565.c ****   U8X8_C(0x0e2),            			/* soft reset */
 256:/Users/imashio/Electronics/ARM/_Library/u8x8_d_st7565.c ****   U8X8_C(0x0ae),		                /* display off */
 257:/Users/imashio/Electronics/ARM/_Library/u8x8_d_st7565.c ****   U8X8_C(0x040),		                /* set display start line to 0 */
 258:/Users/imashio/Electronics/ARM/_Library/u8x8_d_st7565.c ****   
 259:/Users/imashio/Electronics/ARM/_Library/u8x8_d_st7565.c ****   U8X8_C(0x0a1),		                /* ADC set to reverse */
 260:/Users/imashio/Electronics/ARM/_Library/u8x8_d_st7565.c ****   U8X8_C(0x0c0),		                /* common output mode */
 261:/Users/imashio/Electronics/ARM/_Library/u8x8_d_st7565.c ****   // Flipmode
 262:/Users/imashio/Electronics/ARM/_Library/u8x8_d_st7565.c ****   // U8X8_C(0x0a0),		                /* ADC set to reverse */
 263:/Users/imashio/Electronics/ARM/_Library/u8x8_d_st7565.c ****   // U8X8_C(0x0c8),		                /* common output mode */
 264:/Users/imashio/Electronics/ARM/_Library/u8x8_d_st7565.c ****   
 265:/Users/imashio/Electronics/ARM/_Library/u8x8_d_st7565.c ****   U8X8_C(0x0a6),		                /* display normal, bit val 0: LCD pixel off. */
 266:/Users/imashio/Electronics/ARM/_Library/u8x8_d_st7565.c ****   U8X8_C(0x0a2),		                /* LCD bias 1/9 */
 267:/Users/imashio/Electronics/ARM/_Library/u8x8_d_st7565.c ****   U8X8_C(0x02f),		                /* all power  control circuits on */
 268:/Users/imashio/Electronics/ARM/_Library/u8x8_d_st7565.c ****   //U8X8_CA(0x0f8, 0x000),		/* set booster ratio to 4x */
 269:/Users/imashio/Electronics/ARM/_Library/u8x8_d_st7565.c ****   //U8X8_C(0x027),		                /* set V0 voltage resistor ratio to max  */
 270:/Users/imashio/Electronics/ARM/_Library/u8x8_d_st7565.c **** 
 271:/Users/imashio/Electronics/ARM/_Library/u8x8_d_st7565.c ****   U8X8_C(0x010),                   		/* Set V0 voltage resistor ratio. Setting for controlling brig
ARM GAS  /var/folders/v3/wysfpd052nz8jkbx04pk0ym80000gn/T//ccFzeRvn.s 			page 12


 272:/Users/imashio/Electronics/ARM/_Library/u8x8_d_st7565.c ****   
 273:/Users/imashio/Electronics/ARM/_Library/u8x8_d_st7565.c ****   
 274:/Users/imashio/Electronics/ARM/_Library/u8x8_d_st7565.c ****   U8X8_CA(0x081, 0x01e),		/* set contrast, contrast value */
 275:/Users/imashio/Electronics/ARM/_Library/u8x8_d_st7565.c ****   
 276:/Users/imashio/Electronics/ARM/_Library/u8x8_d_st7565.c ****   U8X8_C(0x0ae),		                /* display off */
 277:/Users/imashio/Electronics/ARM/_Library/u8x8_d_st7565.c ****   U8X8_C(0x0a5),		                /* enter powersafe: all pixel on, issue 142 */
 278:/Users/imashio/Electronics/ARM/_Library/u8x8_d_st7565.c **** #else
 279:/Users/imashio/Electronics/ARM/_Library/u8x8_d_st7565.c **** 
 280:/Users/imashio/Electronics/ARM/_Library/u8x8_d_st7565.c **** 
 281:/Users/imashio/Electronics/ARM/_Library/u8x8_d_st7565.c ****   U8X8_C(0x0e2),            	   /* soft reset */
 282:/Users/imashio/Electronics/ARM/_Library/u8x8_d_st7565.c ****   U8X8_C(0x0A2),   				   /* 0x0a2: LCD bias 1/9 (according to Displaytech 64128N datasheet) */
 283:/Users/imashio/Electronics/ARM/_Library/u8x8_d_st7565.c ****   
 284:/Users/imashio/Electronics/ARM/_Library/u8x8_d_st7565.c ****   U8X8_C(0x0a1),		                /* ADC set to reverse */
 285:/Users/imashio/Electronics/ARM/_Library/u8x8_d_st7565.c ****   U8X8_C(0x0c0),		                /* common output mode */
 286:/Users/imashio/Electronics/ARM/_Library/u8x8_d_st7565.c ****   //U8X8_C(0x0A0),  				   /* Normal ADC Select (according to Displaytech 64128N datasheet) */
 287:/Users/imashio/Electronics/ARM/_Library/u8x8_d_st7565.c ****   //U8X8_C(0x0c8),                   /* common output mode: set scan direction normal operation/SHL
 288:/Users/imashio/Electronics/ARM/_Library/u8x8_d_st7565.c ****   
 289:/Users/imashio/Electronics/ARM/_Library/u8x8_d_st7565.c ****   U8X8_C(0x040),		           /* Display start line for Displaytech 64128N */
 290:/Users/imashio/Electronics/ARM/_Library/u8x8_d_st7565.c ****   U8X8_C(0x028 | 0x04),            /* power control: turn on voltage converter */
 291:/Users/imashio/Electronics/ARM/_Library/u8x8_d_st7565.c ****   U8X8_C(0x028 | 0x06),            /* power control: turn on voltage regulator */
 292:/Users/imashio/Electronics/ARM/_Library/u8x8_d_st7565.c ****   U8X8_C(0x028 | 0x07),            /* power control: turn on voltage follower */
 293:/Users/imashio/Electronics/ARM/_Library/u8x8_d_st7565.c ****   U8X8_C(0x010),                   /* Set V0 voltage resistor ratio. Setting for controlling bright
 294:/Users/imashio/Electronics/ARM/_Library/u8x8_d_st7565.c **** 					      /* 19 Jul 17: Not sure if this is true, cmd 0x1? is used to set the column */
 295:/Users/imashio/Electronics/ARM/_Library/u8x8_d_st7565.c ****   U8X8_C(0x0a6),                   /* display normal, bit val 0: LCD pixel off. */
 296:/Users/imashio/Electronics/ARM/_Library/u8x8_d_st7565.c ****   U8X8_C(0x081),      	           /* set contrast */
 297:/Users/imashio/Electronics/ARM/_Library/u8x8_d_st7565.c ****   U8X8_C(0x01e),        	       /* Contrast value. Setting for controlling brightness of Displaytec
 298:/Users/imashio/Electronics/ARM/_Library/u8x8_d_st7565.c ****   //U8X8_C(0x0af),		           /* display on */
 299:/Users/imashio/Electronics/ARM/_Library/u8x8_d_st7565.c ****   //U8X8_C(0x0a5),		           /* display all points, ST7565 */
 300:/Users/imashio/Electronics/ARM/_Library/u8x8_d_st7565.c ****   //U8X8_C(0x0a4),		           /* normal display */
 301:/Users/imashio/Electronics/ARM/_Library/u8x8_d_st7565.c **** 
 302:/Users/imashio/Electronics/ARM/_Library/u8x8_d_st7565.c ****   U8X8_C(0x0ae),		                /* display off */
 303:/Users/imashio/Electronics/ARM/_Library/u8x8_d_st7565.c **** 
 304:/Users/imashio/Electronics/ARM/_Library/u8x8_d_st7565.c **** 
 305:/Users/imashio/Electronics/ARM/_Library/u8x8_d_st7565.c **** #endif
 306:/Users/imashio/Electronics/ARM/_Library/u8x8_d_st7565.c **** 
 307:/Users/imashio/Electronics/ARM/_Library/u8x8_d_st7565.c ****   U8X8_END_TRANSFER(),             	/* disable chip */
 308:/Users/imashio/Electronics/ARM/_Library/u8x8_d_st7565.c ****   U8X8_END()             			/* end of sequence */
 309:/Users/imashio/Electronics/ARM/_Library/u8x8_d_st7565.c **** };
 310:/Users/imashio/Electronics/ARM/_Library/u8x8_d_st7565.c **** 
 311:/Users/imashio/Electronics/ARM/_Library/u8x8_d_st7565.c **** static const u8x8_display_info_t u8x8_st7565_64128n_display_info =
 312:/Users/imashio/Electronics/ARM/_Library/u8x8_d_st7565.c **** {
 313:/Users/imashio/Electronics/ARM/_Library/u8x8_d_st7565.c ****   /* chip_enable_level = */ 0,
 314:/Users/imashio/Electronics/ARM/_Library/u8x8_d_st7565.c ****   /* chip_disable_level = */ 1,
 315:/Users/imashio/Electronics/ARM/_Library/u8x8_d_st7565.c ****   
 316:/Users/imashio/Electronics/ARM/_Library/u8x8_d_st7565.c ****   /* post_chip_enable_wait_ns = */ 150,	/* st7565 datasheet, table 26, tcsh */
 317:/Users/imashio/Electronics/ARM/_Library/u8x8_d_st7565.c ****   /* pre_chip_disable_wait_ns = */ 50,	/* st7565 datasheet, table 26, tcss */
 318:/Users/imashio/Electronics/ARM/_Library/u8x8_d_st7565.c ****   /* reset_pulse_width_ms = */ 1, 
 319:/Users/imashio/Electronics/ARM/_Library/u8x8_d_st7565.c ****   /* post_reset_wait_ms = */ 1, 
 320:/Users/imashio/Electronics/ARM/_Library/u8x8_d_st7565.c ****   /* sda_setup_time_ns = */ 50,		/* st7565 datasheet, table 26, tsds */
 321:/Users/imashio/Electronics/ARM/_Library/u8x8_d_st7565.c ****   /* sck_pulse_width_ns = */ 120,	/* half of cycle time (100ns according to datasheet), AVR: below 
 322:/Users/imashio/Electronics/ARM/_Library/u8x8_d_st7565.c ****   /* sck_clock_hz = */ 4000000UL,	/* since Arduino 1.6.0, the SPI bus speed in Hz. Should be  10000
 323:/Users/imashio/Electronics/ARM/_Library/u8x8_d_st7565.c ****   /* spi_mode = */ 0,		/* active high, rising edge */
 324:/Users/imashio/Electronics/ARM/_Library/u8x8_d_st7565.c ****   /* i2c_bus_clock_100kHz = */ 4,
 325:/Users/imashio/Electronics/ARM/_Library/u8x8_d_st7565.c ****   /* data_setup_time_ns = */ 40,	/* st7565 datasheet, table 24, tds8 */
 326:/Users/imashio/Electronics/ARM/_Library/u8x8_d_st7565.c ****   /* write_pulse_width_ns = */ 80,	/* st7565 datasheet, table 24, tcclw */
 327:/Users/imashio/Electronics/ARM/_Library/u8x8_d_st7565.c ****   /* tile_width = */ 16,		/* width of 16*8=128 pixel */
 328:/Users/imashio/Electronics/ARM/_Library/u8x8_d_st7565.c ****   /* tile_hight = */ 8,
ARM GAS  /var/folders/v3/wysfpd052nz8jkbx04pk0ym80000gn/T//ccFzeRvn.s 			page 13


 329:/Users/imashio/Electronics/ARM/_Library/u8x8_d_st7565.c ****   /* default_x_offset = */ 4,
 330:/Users/imashio/Electronics/ARM/_Library/u8x8_d_st7565.c ****   /* flipmode_x_offset = */ 0,
 331:/Users/imashio/Electronics/ARM/_Library/u8x8_d_st7565.c ****   /* pixel_width = */ 128,
 332:/Users/imashio/Electronics/ARM/_Library/u8x8_d_st7565.c ****   /* pixel_height = */ 64
 333:/Users/imashio/Electronics/ARM/_Library/u8x8_d_st7565.c **** };
 334:/Users/imashio/Electronics/ARM/_Library/u8x8_d_st7565.c **** 
 335:/Users/imashio/Electronics/ARM/_Library/u8x8_d_st7565.c **** uint8_t u8x8_d_st7565_64128n(u8x8_t *u8x8, uint8_t msg, uint8_t arg_int, void *arg_ptr)
 336:/Users/imashio/Electronics/ARM/_Library/u8x8_d_st7565.c **** {
 321              		.loc 1 336 0
 322              		.cfi_startproc
 323              		@ args = 0, pretend = 0, frame = 0
 324              		@ frame_needed = 0, uses_anonymous_args = 0
 325              	.LVL45:
 326 0000 70B5     		push	{r4, r5, r6, lr}
 327              	.LCFI2:
 328              		.cfi_def_cfa_offset 16
 329              		.cfi_offset 4, -16
 330              		.cfi_offset 5, -12
 331              		.cfi_offset 6, -8
 332              		.cfi_offset 14, -4
 333              		.loc 1 336 0
 334 0002 0546     		mov	r5, r0
 335 0004 0C46     		mov	r4, r1
 336 0006 1646     		mov	r6, r2
 337:/Users/imashio/Electronics/ARM/_Library/u8x8_d_st7565.c ****   /* call common procedure first and handle messages there */
 338:/Users/imashio/Electronics/ARM/_Library/u8x8_d_st7565.c ****   if ( u8x8_d_st7565_common(u8x8, msg, arg_int, arg_ptr) == 0 )
 337              		.loc 1 338 0
 338 0008 FFF7FEFF 		bl	u8x8_d_st7565_common
 339              	.LVL46:
 340 000c 30B9     		cbnz	r0, .L37
 339:/Users/imashio/Electronics/ARM/_Library/u8x8_d_st7565.c ****   {
 340:/Users/imashio/Electronics/ARM/_Library/u8x8_d_st7565.c ****     /* msg not handled, then try here */
 341:/Users/imashio/Electronics/ARM/_Library/u8x8_d_st7565.c ****     switch(msg)
 341              		.loc 1 341 0
 342 000e 0A2C     		cmp	r4, #10
 343 0010 06D0     		beq	.L33
 344 0012 0D2C     		cmp	r4, #13
 345 0014 13D0     		beq	.L34
 346 0016 092C     		cmp	r4, #9
 347 0018 0BD0     		beq	.L39
 342:/Users/imashio/Electronics/ARM/_Library/u8x8_d_st7565.c ****     {
 343:/Users/imashio/Electronics/ARM/_Library/u8x8_d_st7565.c ****       case U8X8_MSG_DISPLAY_SETUP_MEMORY:
 344:/Users/imashio/Electronics/ARM/_Library/u8x8_d_st7565.c **** 	u8x8_d_helper_display_setup_memory(u8x8, &u8x8_st7565_64128n_display_info);
 345:/Users/imashio/Electronics/ARM/_Library/u8x8_d_st7565.c **** 	break;
 346:/Users/imashio/Electronics/ARM/_Library/u8x8_d_st7565.c ****       case U8X8_MSG_DISPLAY_INIT:
 347:/Users/imashio/Electronics/ARM/_Library/u8x8_d_st7565.c **** 	u8x8_d_helper_display_init(u8x8);
 348:/Users/imashio/Electronics/ARM/_Library/u8x8_d_st7565.c **** 	u8x8_cad_SendSequence(u8x8, u8x8_d_st7565_64128n_init_seq);
 349:/Users/imashio/Electronics/ARM/_Library/u8x8_d_st7565.c **** 	break;
 350:/Users/imashio/Electronics/ARM/_Library/u8x8_d_st7565.c ****       case U8X8_MSG_DISPLAY_SET_FLIP_MODE:
 351:/Users/imashio/Electronics/ARM/_Library/u8x8_d_st7565.c **** 	if ( arg_int == 0 )
 352:/Users/imashio/Electronics/ARM/_Library/u8x8_d_st7565.c **** 	{
 353:/Users/imashio/Electronics/ARM/_Library/u8x8_d_st7565.c **** 	  u8x8_cad_SendSequence(u8x8, u8x8_d_st7565_flip0_seq);
 354:/Users/imashio/Electronics/ARM/_Library/u8x8_d_st7565.c **** 	  u8x8->x_offset = u8x8->display_info->default_x_offset;
 355:/Users/imashio/Electronics/ARM/_Library/u8x8_d_st7565.c **** 	}
 356:/Users/imashio/Electronics/ARM/_Library/u8x8_d_st7565.c **** 	else
 357:/Users/imashio/Electronics/ARM/_Library/u8x8_d_st7565.c **** 	{
 358:/Users/imashio/Electronics/ARM/_Library/u8x8_d_st7565.c **** 	  u8x8_cad_SendSequence(u8x8, u8x8_d_st7565_flip1_seq);
ARM GAS  /var/folders/v3/wysfpd052nz8jkbx04pk0ym80000gn/T//ccFzeRvn.s 			page 14


 359:/Users/imashio/Electronics/ARM/_Library/u8x8_d_st7565.c **** 	  u8x8->x_offset = u8x8->display_info->flipmode_x_offset;
 360:/Users/imashio/Electronics/ARM/_Library/u8x8_d_st7565.c **** 	}	
 361:/Users/imashio/Electronics/ARM/_Library/u8x8_d_st7565.c **** 	break;
 362:/Users/imashio/Electronics/ARM/_Library/u8x8_d_st7565.c ****       default:
 363:/Users/imashio/Electronics/ARM/_Library/u8x8_d_st7565.c **** 	return 0;		/* msg unknown */
 364:/Users/imashio/Electronics/ARM/_Library/u8x8_d_st7565.c ****     }
 365:/Users/imashio/Electronics/ARM/_Library/u8x8_d_st7565.c ****   }
 366:/Users/imashio/Electronics/ARM/_Library/u8x8_d_st7565.c ****   return 1;
 367:/Users/imashio/Electronics/ARM/_Library/u8x8_d_st7565.c **** }
 348              		.loc 1 367 0
 349 001a 70BD     		pop	{r4, r5, r6, pc}
 350              	.LVL47:
 351              	.L37:
 366:/Users/imashio/Electronics/ARM/_Library/u8x8_d_st7565.c **** }
 352              		.loc 1 366 0
 353 001c 0120     		movs	r0, #1
 354              		.loc 1 367 0
 355 001e 70BD     		pop	{r4, r5, r6, pc}
 356              	.LVL48:
 357              	.L33:
 347:/Users/imashio/Electronics/ARM/_Library/u8x8_d_st7565.c **** 	u8x8_cad_SendSequence(u8x8, u8x8_d_st7565_64128n_init_seq);
 358              		.loc 1 347 0
 359 0020 2846     		mov	r0, r5
 360 0022 FFF7FEFF 		bl	u8x8_d_helper_display_init
 361              	.LVL49:
 348:/Users/imashio/Electronics/ARM/_Library/u8x8_d_st7565.c **** 	break;
 362              		.loc 1 348 0
 363 0026 2846     		mov	r0, r5
 364 0028 0E49     		ldr	r1, .L41
 365 002a FFF7FEFF 		bl	u8x8_cad_SendSequence
 366              	.LVL50:
 366:/Users/imashio/Electronics/ARM/_Library/u8x8_d_st7565.c **** }
 367              		.loc 1 366 0
 368 002e 0120     		movs	r0, #1
 369              		.loc 1 367 0
 370 0030 70BD     		pop	{r4, r5, r6, pc}
 371              	.LVL51:
 372              	.L39:
 344:/Users/imashio/Electronics/ARM/_Library/u8x8_d_st7565.c **** 	break;
 373              		.loc 1 344 0
 374 0032 2846     		mov	r0, r5
 375 0034 0C49     		ldr	r1, .L41+4
 376 0036 FFF7FEFF 		bl	u8x8_d_helper_display_setup_memory
 377              	.LVL52:
 366:/Users/imashio/Electronics/ARM/_Library/u8x8_d_st7565.c **** }
 378              		.loc 1 366 0
 379 003a 0120     		movs	r0, #1
 380              		.loc 1 367 0
 381 003c 70BD     		pop	{r4, r5, r6, pc}
 382              	.LVL53:
 383              	.L34:
 351:/Users/imashio/Electronics/ARM/_Library/u8x8_d_st7565.c **** 	{
 384              		.loc 1 351 0
 385 003e 46B1     		cbz	r6, .L40
 358:/Users/imashio/Electronics/ARM/_Library/u8x8_d_st7565.c **** 	  u8x8->x_offset = u8x8->display_info->flipmode_x_offset;
 386              		.loc 1 358 0
 387 0040 2846     		mov	r0, r5
ARM GAS  /var/folders/v3/wysfpd052nz8jkbx04pk0ym80000gn/T//ccFzeRvn.s 			page 15


 388 0042 0A49     		ldr	r1, .L41+8
 389 0044 FFF7FEFF 		bl	u8x8_cad_SendSequence
 390              	.LVL54:
 359:/Users/imashio/Electronics/ARM/_Library/u8x8_d_st7565.c **** 	}	
 391              		.loc 1 359 0
 392 0048 2B68     		ldr	r3, [r5]
 393 004a DB7C     		ldrb	r3, [r3, #19]	@ zero_extendqisi2
 394 004c AB77     		strb	r3, [r5, #30]
 366:/Users/imashio/Electronics/ARM/_Library/u8x8_d_st7565.c **** }
 395              		.loc 1 366 0
 396 004e 0120     		movs	r0, #1
 397              		.loc 1 367 0
 398 0050 70BD     		pop	{r4, r5, r6, pc}
 399              	.LVL55:
 400              	.L40:
 353:/Users/imashio/Electronics/ARM/_Library/u8x8_d_st7565.c **** 	  u8x8->x_offset = u8x8->display_info->default_x_offset;
 401              		.loc 1 353 0
 402 0052 2846     		mov	r0, r5
 403 0054 0649     		ldr	r1, .L41+12
 404 0056 FFF7FEFF 		bl	u8x8_cad_SendSequence
 405              	.LVL56:
 354:/Users/imashio/Electronics/ARM/_Library/u8x8_d_st7565.c **** 	}
 406              		.loc 1 354 0
 407 005a 2B68     		ldr	r3, [r5]
 408 005c 9B7C     		ldrb	r3, [r3, #18]	@ zero_extendqisi2
 409 005e AB77     		strb	r3, [r5, #30]
 366:/Users/imashio/Electronics/ARM/_Library/u8x8_d_st7565.c **** }
 410              		.loc 1 366 0
 411 0060 0120     		movs	r0, #1
 412              		.loc 1 367 0
 413 0062 70BD     		pop	{r4, r5, r6, pc}
 414              	.LVL57:
 415              	.L42:
 416              		.align	2
 417              	.L41:
 418 0064 00000000 		.word	.LANCHOR7
 419 0068 00000000 		.word	.LANCHOR6
 420 006c 00000000 		.word	.LANCHOR5
 421 0070 00000000 		.word	.LANCHOR4
 422              		.cfi_endproc
 423              	.LFE2:
 425              		.section	.text.u8x8_d_st7565_zolen_128x64,"ax",%progbits
 426              		.align	1
 427              		.p2align 2,,3
 428              		.global	u8x8_d_st7565_zolen_128x64
 429              		.syntax unified
 430              		.thumb
 431              		.thumb_func
 432              		.fpu fpv4-sp-d16
 434              	u8x8_d_st7565_zolen_128x64:
 435              	.LFB3:
 368:/Users/imashio/Electronics/ARM/_Library/u8x8_d_st7565.c **** 
 369:/Users/imashio/Electronics/ARM/_Library/u8x8_d_st7565.c **** /*================================================*/
 370:/Users/imashio/Electronics/ARM/_Library/u8x8_d_st7565.c **** /* ZOLEN 128x64  */
 371:/Users/imashio/Electronics/ARM/_Library/u8x8_d_st7565.c **** 
 372:/Users/imashio/Electronics/ARM/_Library/u8x8_d_st7565.c **** static const uint8_t u8x8_d_st7565_zolen_128x64_init_seq[] = {
 373:/Users/imashio/Electronics/ARM/_Library/u8x8_d_st7565.c ****     
ARM GAS  /var/folders/v3/wysfpd052nz8jkbx04pk0ym80000gn/T//ccFzeRvn.s 			page 16


 374:/Users/imashio/Electronics/ARM/_Library/u8x8_d_st7565.c ****   U8X8_START_TRANSFER(),             	/* enable chip, delay is part of the transfer start */
 375:/Users/imashio/Electronics/ARM/_Library/u8x8_d_st7565.c ****   
 376:/Users/imashio/Electronics/ARM/_Library/u8x8_d_st7565.c ****   U8X8_C(0x0e2),            			/* soft reset */
 377:/Users/imashio/Electronics/ARM/_Library/u8x8_d_st7565.c ****   U8X8_C(0x0ae),		                /* display off */
 378:/Users/imashio/Electronics/ARM/_Library/u8x8_d_st7565.c ****   U8X8_C(0x040),		                /* set display start line to 0 */
 379:/Users/imashio/Electronics/ARM/_Library/u8x8_d_st7565.c ****   
 380:/Users/imashio/Electronics/ARM/_Library/u8x8_d_st7565.c ****   U8X8_C(0x0a1),		                /* ADC set to reverse */
 381:/Users/imashio/Electronics/ARM/_Library/u8x8_d_st7565.c ****   U8X8_C(0x0c8),		                /* common output mode */
 382:/Users/imashio/Electronics/ARM/_Library/u8x8_d_st7565.c ****   // Flipmode
 383:/Users/imashio/Electronics/ARM/_Library/u8x8_d_st7565.c ****   // U8X8_C(0x0a0),		                /* ADC set to reverse */
 384:/Users/imashio/Electronics/ARM/_Library/u8x8_d_st7565.c ****   // U8X8_C(0x0c0),		                /* common output mode */
 385:/Users/imashio/Electronics/ARM/_Library/u8x8_d_st7565.c ****   
 386:/Users/imashio/Electronics/ARM/_Library/u8x8_d_st7565.c ****   U8X8_C(0x0a6),		                /* display normal, bit val 0: LCD pixel off. */
 387:/Users/imashio/Electronics/ARM/_Library/u8x8_d_st7565.c ****   U8X8_C(0x0a2),		                /* LCD bias 1/9 */
 388:/Users/imashio/Electronics/ARM/_Library/u8x8_d_st7565.c ****   U8X8_C(0x02f),		                /* all power  control circuits on (regulator, booster and followe
 389:/Users/imashio/Electronics/ARM/_Library/u8x8_d_st7565.c ****   U8X8_CA(0x0f8, 0x000),		/* set booster ratio to 4x */
 390:/Users/imashio/Electronics/ARM/_Library/u8x8_d_st7565.c ****   U8X8_C(0x027),		                /* set V0 voltage resistor ratio to max  */
 391:/Users/imashio/Electronics/ARM/_Library/u8x8_d_st7565.c ****   U8X8_CA(0x081, 0x007),		/* set contrast, contrast value, EA default: 0x016 */
 392:/Users/imashio/Electronics/ARM/_Library/u8x8_d_st7565.c ****   
 393:/Users/imashio/Electronics/ARM/_Library/u8x8_d_st7565.c ****   U8X8_C(0x0ae),		                /* display off */
 394:/Users/imashio/Electronics/ARM/_Library/u8x8_d_st7565.c ****   U8X8_C(0x0a5),		                /* enter powersafe: all pixel on, issue 142 */
 395:/Users/imashio/Electronics/ARM/_Library/u8x8_d_st7565.c ****   
 396:/Users/imashio/Electronics/ARM/_Library/u8x8_d_st7565.c ****   U8X8_END_TRANSFER(),             	/* disable chip */
 397:/Users/imashio/Electronics/ARM/_Library/u8x8_d_st7565.c ****   U8X8_END()             			/* end of sequence */
 398:/Users/imashio/Electronics/ARM/_Library/u8x8_d_st7565.c **** };
 399:/Users/imashio/Electronics/ARM/_Library/u8x8_d_st7565.c **** 
 400:/Users/imashio/Electronics/ARM/_Library/u8x8_d_st7565.c **** uint8_t u8x8_d_st7565_zolen_128x64(u8x8_t *u8x8, uint8_t msg, uint8_t arg_int, void *arg_ptr)
 401:/Users/imashio/Electronics/ARM/_Library/u8x8_d_st7565.c **** {
 436              		.loc 1 401 0
 437              		.cfi_startproc
 438              		@ args = 0, pretend = 0, frame = 0
 439              		@ frame_needed = 0, uses_anonymous_args = 0
 440              	.LVL58:
 441 0000 70B5     		push	{r4, r5, r6, lr}
 442              	.LCFI3:
 443              		.cfi_def_cfa_offset 16
 444              		.cfi_offset 4, -16
 445              		.cfi_offset 5, -12
 446              		.cfi_offset 6, -8
 447              		.cfi_offset 14, -4
 448              		.loc 1 401 0
 449 0002 0546     		mov	r5, r0
 450 0004 0C46     		mov	r4, r1
 451 0006 1646     		mov	r6, r2
 402:/Users/imashio/Electronics/ARM/_Library/u8x8_d_st7565.c ****   /* call common procedure first and handle messages there */
 403:/Users/imashio/Electronics/ARM/_Library/u8x8_d_st7565.c ****   if ( u8x8_d_st7565_common(u8x8, msg, arg_int, arg_ptr) == 0 )
 452              		.loc 1 403 0
 453 0008 FFF7FEFF 		bl	u8x8_d_st7565_common
 454              	.LVL59:
 455 000c 30B9     		cbnz	r0, .L49
 404:/Users/imashio/Electronics/ARM/_Library/u8x8_d_st7565.c ****   {
 405:/Users/imashio/Electronics/ARM/_Library/u8x8_d_st7565.c ****     /* msg not handled, then try here */
 406:/Users/imashio/Electronics/ARM/_Library/u8x8_d_st7565.c ****     switch(msg)
 456              		.loc 1 406 0
 457 000e 0A2C     		cmp	r4, #10
 458 0010 06D0     		beq	.L45
 459 0012 0D2C     		cmp	r4, #13
ARM GAS  /var/folders/v3/wysfpd052nz8jkbx04pk0ym80000gn/T//ccFzeRvn.s 			page 17


 460 0014 13D0     		beq	.L46
 461 0016 092C     		cmp	r4, #9
 462 0018 0BD0     		beq	.L51
 407:/Users/imashio/Electronics/ARM/_Library/u8x8_d_st7565.c ****     {
 408:/Users/imashio/Electronics/ARM/_Library/u8x8_d_st7565.c ****       case U8X8_MSG_DISPLAY_SETUP_MEMORY:
 409:/Users/imashio/Electronics/ARM/_Library/u8x8_d_st7565.c **** 	u8x8_d_helper_display_setup_memory(u8x8, &u8x8_st7565_128x64_display_info);
 410:/Users/imashio/Electronics/ARM/_Library/u8x8_d_st7565.c **** 	break;
 411:/Users/imashio/Electronics/ARM/_Library/u8x8_d_st7565.c ****       case U8X8_MSG_DISPLAY_INIT:
 412:/Users/imashio/Electronics/ARM/_Library/u8x8_d_st7565.c **** 	u8x8_d_helper_display_init(u8x8);
 413:/Users/imashio/Electronics/ARM/_Library/u8x8_d_st7565.c **** 	u8x8_cad_SendSequence(u8x8, u8x8_d_st7565_zolen_128x64_init_seq);
 414:/Users/imashio/Electronics/ARM/_Library/u8x8_d_st7565.c **** 	break;
 415:/Users/imashio/Electronics/ARM/_Library/u8x8_d_st7565.c ****       case U8X8_MSG_DISPLAY_SET_FLIP_MODE:
 416:/Users/imashio/Electronics/ARM/_Library/u8x8_d_st7565.c **** 	if ( arg_int == 0 )
 417:/Users/imashio/Electronics/ARM/_Library/u8x8_d_st7565.c **** 	{
 418:/Users/imashio/Electronics/ARM/_Library/u8x8_d_st7565.c **** 	  u8x8_cad_SendSequence(u8x8, u8x8_d_st7565_zflip0_seq);
 419:/Users/imashio/Electronics/ARM/_Library/u8x8_d_st7565.c **** 	  u8x8->x_offset = u8x8->display_info->default_x_offset;
 420:/Users/imashio/Electronics/ARM/_Library/u8x8_d_st7565.c **** 	}
 421:/Users/imashio/Electronics/ARM/_Library/u8x8_d_st7565.c **** 	else
 422:/Users/imashio/Electronics/ARM/_Library/u8x8_d_st7565.c **** 	{
 423:/Users/imashio/Electronics/ARM/_Library/u8x8_d_st7565.c **** 	  u8x8_cad_SendSequence(u8x8, u8x8_d_st7565_zflip1_seq);
 424:/Users/imashio/Electronics/ARM/_Library/u8x8_d_st7565.c **** 	  u8x8->x_offset = u8x8->display_info->flipmode_x_offset;
 425:/Users/imashio/Electronics/ARM/_Library/u8x8_d_st7565.c **** 	}	
 426:/Users/imashio/Electronics/ARM/_Library/u8x8_d_st7565.c **** 	break;
 427:/Users/imashio/Electronics/ARM/_Library/u8x8_d_st7565.c ****       default:
 428:/Users/imashio/Electronics/ARM/_Library/u8x8_d_st7565.c **** 	return 0;		/* msg unknown */
 429:/Users/imashio/Electronics/ARM/_Library/u8x8_d_st7565.c ****     }
 430:/Users/imashio/Electronics/ARM/_Library/u8x8_d_st7565.c ****   }
 431:/Users/imashio/Electronics/ARM/_Library/u8x8_d_st7565.c ****   return 1;
 432:/Users/imashio/Electronics/ARM/_Library/u8x8_d_st7565.c **** }
 463              		.loc 1 432 0
 464 001a 70BD     		pop	{r4, r5, r6, pc}
 465              	.LVL60:
 466              	.L49:
 431:/Users/imashio/Electronics/ARM/_Library/u8x8_d_st7565.c **** }
 467              		.loc 1 431 0
 468 001c 0120     		movs	r0, #1
 469              		.loc 1 432 0
 470 001e 70BD     		pop	{r4, r5, r6, pc}
 471              	.LVL61:
 472              	.L45:
 412:/Users/imashio/Electronics/ARM/_Library/u8x8_d_st7565.c **** 	u8x8_cad_SendSequence(u8x8, u8x8_d_st7565_zolen_128x64_init_seq);
 473              		.loc 1 412 0
 474 0020 2846     		mov	r0, r5
 475 0022 FFF7FEFF 		bl	u8x8_d_helper_display_init
 476              	.LVL62:
 413:/Users/imashio/Electronics/ARM/_Library/u8x8_d_st7565.c **** 	break;
 477              		.loc 1 413 0
 478 0026 2846     		mov	r0, r5
 479 0028 0E49     		ldr	r1, .L53
 480 002a FFF7FEFF 		bl	u8x8_cad_SendSequence
 481              	.LVL63:
 431:/Users/imashio/Electronics/ARM/_Library/u8x8_d_st7565.c **** }
 482              		.loc 1 431 0
 483 002e 0120     		movs	r0, #1
 484              		.loc 1 432 0
 485 0030 70BD     		pop	{r4, r5, r6, pc}
 486              	.LVL64:
ARM GAS  /var/folders/v3/wysfpd052nz8jkbx04pk0ym80000gn/T//ccFzeRvn.s 			page 18


 487              	.L51:
 409:/Users/imashio/Electronics/ARM/_Library/u8x8_d_st7565.c **** 	break;
 488              		.loc 1 409 0
 489 0032 2846     		mov	r0, r5
 490 0034 0C49     		ldr	r1, .L53+4
 491 0036 FFF7FEFF 		bl	u8x8_d_helper_display_setup_memory
 492              	.LVL65:
 431:/Users/imashio/Electronics/ARM/_Library/u8x8_d_st7565.c **** }
 493              		.loc 1 431 0
 494 003a 0120     		movs	r0, #1
 495              		.loc 1 432 0
 496 003c 70BD     		pop	{r4, r5, r6, pc}
 497              	.LVL66:
 498              	.L46:
 416:/Users/imashio/Electronics/ARM/_Library/u8x8_d_st7565.c **** 	{
 499              		.loc 1 416 0
 500 003e 46B1     		cbz	r6, .L52
 423:/Users/imashio/Electronics/ARM/_Library/u8x8_d_st7565.c **** 	  u8x8->x_offset = u8x8->display_info->flipmode_x_offset;
 501              		.loc 1 423 0
 502 0040 2846     		mov	r0, r5
 503 0042 0A49     		ldr	r1, .L53+8
 504 0044 FFF7FEFF 		bl	u8x8_cad_SendSequence
 505              	.LVL67:
 424:/Users/imashio/Electronics/ARM/_Library/u8x8_d_st7565.c **** 	}	
 506              		.loc 1 424 0
 507 0048 2B68     		ldr	r3, [r5]
 508 004a DB7C     		ldrb	r3, [r3, #19]	@ zero_extendqisi2
 509 004c AB77     		strb	r3, [r5, #30]
 431:/Users/imashio/Electronics/ARM/_Library/u8x8_d_st7565.c **** }
 510              		.loc 1 431 0
 511 004e 0120     		movs	r0, #1
 512              		.loc 1 432 0
 513 0050 70BD     		pop	{r4, r5, r6, pc}
 514              	.LVL68:
 515              	.L52:
 418:/Users/imashio/Electronics/ARM/_Library/u8x8_d_st7565.c **** 	  u8x8->x_offset = u8x8->display_info->default_x_offset;
 516              		.loc 1 418 0
 517 0052 2846     		mov	r0, r5
 518 0054 0649     		ldr	r1, .L53+12
 519 0056 FFF7FEFF 		bl	u8x8_cad_SendSequence
 520              	.LVL69:
 419:/Users/imashio/Electronics/ARM/_Library/u8x8_d_st7565.c **** 	}
 521              		.loc 1 419 0
 522 005a 2B68     		ldr	r3, [r5]
 523 005c 9B7C     		ldrb	r3, [r3, #18]	@ zero_extendqisi2
 524 005e AB77     		strb	r3, [r5, #30]
 431:/Users/imashio/Electronics/ARM/_Library/u8x8_d_st7565.c **** }
 525              		.loc 1 431 0
 526 0060 0120     		movs	r0, #1
 527              		.loc 1 432 0
 528 0062 70BD     		pop	{r4, r5, r6, pc}
 529              	.LVL70:
 530              	.L54:
 531              		.align	2
 532              	.L53:
 533 0064 00000000 		.word	.LANCHOR8
 534 0068 00000000 		.word	.LANCHOR2
ARM GAS  /var/folders/v3/wysfpd052nz8jkbx04pk0ym80000gn/T//ccFzeRvn.s 			page 19


 535 006c 00000000 		.word	.LANCHOR10
 536 0070 00000000 		.word	.LANCHOR9
 537              		.cfi_endproc
 538              	.LFE3:
 540              		.section	.text.u8x8_d_st7565_nhd_c12832,"ax",%progbits
 541              		.align	1
 542              		.p2align 2,,3
 543              		.global	u8x8_d_st7565_nhd_c12832
 544              		.syntax unified
 545              		.thumb
 546              		.thumb_func
 547              		.fpu fpv4-sp-d16
 549              	u8x8_d_st7565_nhd_c12832:
 550              	.LFB4:
 433:/Users/imashio/Electronics/ARM/_Library/u8x8_d_st7565.c **** 
 434:/Users/imashio/Electronics/ARM/_Library/u8x8_d_st7565.c **** 
 435:/Users/imashio/Electronics/ARM/_Library/u8x8_d_st7565.c **** 
 436:/Users/imashio/Electronics/ARM/_Library/u8x8_d_st7565.c **** /*================================================*/
 437:/Users/imashio/Electronics/ARM/_Library/u8x8_d_st7565.c **** /* NHD-C12832 */
 438:/Users/imashio/Electronics/ARM/_Library/u8x8_d_st7565.c **** 
 439:/Users/imashio/Electronics/ARM/_Library/u8x8_d_st7565.c **** static const u8x8_display_info_t u8x8_st7565_128x32_display_info =
 440:/Users/imashio/Electronics/ARM/_Library/u8x8_d_st7565.c **** {
 441:/Users/imashio/Electronics/ARM/_Library/u8x8_d_st7565.c ****   /* chip_enable_level = */ 0,
 442:/Users/imashio/Electronics/ARM/_Library/u8x8_d_st7565.c ****   /* chip_disable_level = */ 1,
 443:/Users/imashio/Electronics/ARM/_Library/u8x8_d_st7565.c ****   
 444:/Users/imashio/Electronics/ARM/_Library/u8x8_d_st7565.c ****   /* post_chip_enable_wait_ns = */ 150,	/* st7565 datasheet, table 26, tcsh */
 445:/Users/imashio/Electronics/ARM/_Library/u8x8_d_st7565.c ****   /* pre_chip_disable_wait_ns = */ 50,	/* st7565 datasheet, table 26, tcss */
 446:/Users/imashio/Electronics/ARM/_Library/u8x8_d_st7565.c ****   /* reset_pulse_width_ms = */ 1, 
 447:/Users/imashio/Electronics/ARM/_Library/u8x8_d_st7565.c ****   /* post_reset_wait_ms = */ 1, 
 448:/Users/imashio/Electronics/ARM/_Library/u8x8_d_st7565.c ****   /* sda_setup_time_ns = */ 50,		/* st7565 datasheet, table 26, tsds */
 449:/Users/imashio/Electronics/ARM/_Library/u8x8_d_st7565.c ****   /* sck_pulse_width_ns = */ 120,	/* half of cycle time (100ns according to datasheet), AVR: below 
 450:/Users/imashio/Electronics/ARM/_Library/u8x8_d_st7565.c ****   /* sck_clock_hz = */ 4000000UL,	/* since Arduino 1.6.0, the SPI bus speed in Hz. Should be  10000
 451:/Users/imashio/Electronics/ARM/_Library/u8x8_d_st7565.c ****   /* spi_mode = */ 0,		/* active high, rising edge */
 452:/Users/imashio/Electronics/ARM/_Library/u8x8_d_st7565.c ****   /* i2c_bus_clock_100kHz = */ 4,
 453:/Users/imashio/Electronics/ARM/_Library/u8x8_d_st7565.c ****   /* data_setup_time_ns = */ 40,	/* st7565 datasheet, table 24, tds8 */
 454:/Users/imashio/Electronics/ARM/_Library/u8x8_d_st7565.c ****   /* write_pulse_width_ns = */ 80,	/* st7565 datasheet, table 24, tcclw */
 455:/Users/imashio/Electronics/ARM/_Library/u8x8_d_st7565.c ****   /* tile_width = */ 16,		/* width of 16*8=128 pixel */
 456:/Users/imashio/Electronics/ARM/_Library/u8x8_d_st7565.c ****   /* tile_hight = */ 4,
 457:/Users/imashio/Electronics/ARM/_Library/u8x8_d_st7565.c ****   /* default_x_offset = */ 4,
 458:/Users/imashio/Electronics/ARM/_Library/u8x8_d_st7565.c ****   /* flipmode_x_offset = */ 0,
 459:/Users/imashio/Electronics/ARM/_Library/u8x8_d_st7565.c ****   /* pixel_width = */ 128,
 460:/Users/imashio/Electronics/ARM/_Library/u8x8_d_st7565.c ****   /* pixel_height = */ 32
 461:/Users/imashio/Electronics/ARM/_Library/u8x8_d_st7565.c **** };
 462:/Users/imashio/Electronics/ARM/_Library/u8x8_d_st7565.c **** 
 463:/Users/imashio/Electronics/ARM/_Library/u8x8_d_st7565.c **** 
 464:/Users/imashio/Electronics/ARM/_Library/u8x8_d_st7565.c **** static const uint8_t u8x8_d_st7565_nhd_c12832_init_seq[] = {
 465:/Users/imashio/Electronics/ARM/_Library/u8x8_d_st7565.c ****     
 466:/Users/imashio/Electronics/ARM/_Library/u8x8_d_st7565.c ****   U8X8_START_TRANSFER(),             	/* enable chip, delay is part of the transfer start */
 467:/Users/imashio/Electronics/ARM/_Library/u8x8_d_st7565.c ****   
 468:/Users/imashio/Electronics/ARM/_Library/u8x8_d_st7565.c ****   U8X8_C(0x0e2),            			/* soft reset */
 469:/Users/imashio/Electronics/ARM/_Library/u8x8_d_st7565.c ****   U8X8_C(0x0ae),		                /* display off */
 470:/Users/imashio/Electronics/ARM/_Library/u8x8_d_st7565.c ****   U8X8_C(0x040),		                /* set display start line to 0 */
 471:/Users/imashio/Electronics/ARM/_Library/u8x8_d_st7565.c ****   
 472:/Users/imashio/Electronics/ARM/_Library/u8x8_d_st7565.c ****   U8X8_C(0x0a1),		                /* ADC set to reverse */
 473:/Users/imashio/Electronics/ARM/_Library/u8x8_d_st7565.c ****   U8X8_C(0x0c0),		                /* common output mode */
 474:/Users/imashio/Electronics/ARM/_Library/u8x8_d_st7565.c ****   // Flipmode
 475:/Users/imashio/Electronics/ARM/_Library/u8x8_d_st7565.c ****   //U8X8_C(0x0a0),		                /* ADC set to reverse */
ARM GAS  /var/folders/v3/wysfpd052nz8jkbx04pk0ym80000gn/T//ccFzeRvn.s 			page 20


 476:/Users/imashio/Electronics/ARM/_Library/u8x8_d_st7565.c ****   //U8X8_C(0x0c8),		                /* common output mode */
 477:/Users/imashio/Electronics/ARM/_Library/u8x8_d_st7565.c ****   
 478:/Users/imashio/Electronics/ARM/_Library/u8x8_d_st7565.c ****   U8X8_C(0x0a6),		                /* display normal, bit val 0: LCD pixel off. */
 479:/Users/imashio/Electronics/ARM/_Library/u8x8_d_st7565.c ****   U8X8_C(0x0a2),		                /* LCD bias 1/9 */
 480:/Users/imashio/Electronics/ARM/_Library/u8x8_d_st7565.c ****   U8X8_C(0x02f),		                /* all power  control circuits on */
 481:/Users/imashio/Electronics/ARM/_Library/u8x8_d_st7565.c ****   U8X8_CA(0x0f8, 0x000),		/* set booster ratio to 4x */
 482:/Users/imashio/Electronics/ARM/_Library/u8x8_d_st7565.c ****   U8X8_C(0x023),		                /* set V0 voltage resistor ratio to large*/
 483:/Users/imashio/Electronics/ARM/_Library/u8x8_d_st7565.c ****   U8X8_CA(0x081, 0x00a),		/* set contrast, contrast value NHD C12832 */
 484:/Users/imashio/Electronics/ARM/_Library/u8x8_d_st7565.c ****   
 485:/Users/imashio/Electronics/ARM/_Library/u8x8_d_st7565.c ****   U8X8_C(0x0ae),		                /* display off */
 486:/Users/imashio/Electronics/ARM/_Library/u8x8_d_st7565.c ****   U8X8_C(0x0a5),		                /* enter powersafe: all pixel on, issue 142 */
 487:/Users/imashio/Electronics/ARM/_Library/u8x8_d_st7565.c ****   
 488:/Users/imashio/Electronics/ARM/_Library/u8x8_d_st7565.c ****   U8X8_END_TRANSFER(),             	/* disable chip */
 489:/Users/imashio/Electronics/ARM/_Library/u8x8_d_st7565.c ****   U8X8_END()             			/* end of sequence */
 490:/Users/imashio/Electronics/ARM/_Library/u8x8_d_st7565.c **** };
 491:/Users/imashio/Electronics/ARM/_Library/u8x8_d_st7565.c **** 
 492:/Users/imashio/Electronics/ARM/_Library/u8x8_d_st7565.c **** uint8_t u8x8_d_st7565_nhd_c12832(u8x8_t *u8x8, uint8_t msg, uint8_t arg_int, void *arg_ptr)
 493:/Users/imashio/Electronics/ARM/_Library/u8x8_d_st7565.c **** {
 551              		.loc 1 493 0
 552              		.cfi_startproc
 553              		@ args = 0, pretend = 0, frame = 0
 554              		@ frame_needed = 0, uses_anonymous_args = 0
 555              	.LVL71:
 556 0000 70B5     		push	{r4, r5, r6, lr}
 557              	.LCFI4:
 558              		.cfi_def_cfa_offset 16
 559              		.cfi_offset 4, -16
 560              		.cfi_offset 5, -12
 561              		.cfi_offset 6, -8
 562              		.cfi_offset 14, -4
 563              		.loc 1 493 0
 564 0002 0546     		mov	r5, r0
 565 0004 0C46     		mov	r4, r1
 566 0006 1646     		mov	r6, r2
 494:/Users/imashio/Electronics/ARM/_Library/u8x8_d_st7565.c ****   /* call common procedure first and handle messages there */
 495:/Users/imashio/Electronics/ARM/_Library/u8x8_d_st7565.c ****   if ( u8x8_d_st7565_common(u8x8, msg, arg_int, arg_ptr) == 0 )
 567              		.loc 1 495 0
 568 0008 FFF7FEFF 		bl	u8x8_d_st7565_common
 569              	.LVL72:
 570 000c 30B9     		cbnz	r0, .L61
 496:/Users/imashio/Electronics/ARM/_Library/u8x8_d_st7565.c ****   {
 497:/Users/imashio/Electronics/ARM/_Library/u8x8_d_st7565.c ****     /* msg not handled, then try here */
 498:/Users/imashio/Electronics/ARM/_Library/u8x8_d_st7565.c ****     switch(msg)
 571              		.loc 1 498 0
 572 000e 0A2C     		cmp	r4, #10
 573 0010 06D0     		beq	.L57
 574 0012 0D2C     		cmp	r4, #13
 575 0014 13D0     		beq	.L58
 576 0016 092C     		cmp	r4, #9
 577 0018 0BD0     		beq	.L63
 499:/Users/imashio/Electronics/ARM/_Library/u8x8_d_st7565.c ****     {
 500:/Users/imashio/Electronics/ARM/_Library/u8x8_d_st7565.c ****       case U8X8_MSG_DISPLAY_SETUP_MEMORY:
 501:/Users/imashio/Electronics/ARM/_Library/u8x8_d_st7565.c **** 	u8x8_d_helper_display_setup_memory(u8x8, &u8x8_st7565_128x32_display_info);
 502:/Users/imashio/Electronics/ARM/_Library/u8x8_d_st7565.c **** 	break;
 503:/Users/imashio/Electronics/ARM/_Library/u8x8_d_st7565.c ****       case U8X8_MSG_DISPLAY_INIT:
 504:/Users/imashio/Electronics/ARM/_Library/u8x8_d_st7565.c **** 	u8x8_d_helper_display_init(u8x8);
 505:/Users/imashio/Electronics/ARM/_Library/u8x8_d_st7565.c **** 	u8x8_cad_SendSequence(u8x8, u8x8_d_st7565_nhd_c12832_init_seq);
ARM GAS  /var/folders/v3/wysfpd052nz8jkbx04pk0ym80000gn/T//ccFzeRvn.s 			page 21


 506:/Users/imashio/Electronics/ARM/_Library/u8x8_d_st7565.c **** 	break;
 507:/Users/imashio/Electronics/ARM/_Library/u8x8_d_st7565.c ****       case U8X8_MSG_DISPLAY_SET_FLIP_MODE:
 508:/Users/imashio/Electronics/ARM/_Library/u8x8_d_st7565.c **** 	if ( arg_int == 0 )
 509:/Users/imashio/Electronics/ARM/_Library/u8x8_d_st7565.c **** 	{
 510:/Users/imashio/Electronics/ARM/_Library/u8x8_d_st7565.c **** 	  u8x8_cad_SendSequence(u8x8, u8x8_d_st7565_flip0_seq);
 511:/Users/imashio/Electronics/ARM/_Library/u8x8_d_st7565.c **** 	  u8x8->x_offset = u8x8->display_info->default_x_offset;
 512:/Users/imashio/Electronics/ARM/_Library/u8x8_d_st7565.c **** 	}
 513:/Users/imashio/Electronics/ARM/_Library/u8x8_d_st7565.c **** 	else
 514:/Users/imashio/Electronics/ARM/_Library/u8x8_d_st7565.c **** 	{
 515:/Users/imashio/Electronics/ARM/_Library/u8x8_d_st7565.c **** 	  u8x8_cad_SendSequence(u8x8, u8x8_d_st7565_flip1_seq);
 516:/Users/imashio/Electronics/ARM/_Library/u8x8_d_st7565.c **** 	  u8x8->x_offset = u8x8->display_info->flipmode_x_offset;
 517:/Users/imashio/Electronics/ARM/_Library/u8x8_d_st7565.c **** 	}	
 518:/Users/imashio/Electronics/ARM/_Library/u8x8_d_st7565.c **** 	break;
 519:/Users/imashio/Electronics/ARM/_Library/u8x8_d_st7565.c ****       default:
 520:/Users/imashio/Electronics/ARM/_Library/u8x8_d_st7565.c **** 	return 0;		/* msg unknown */
 521:/Users/imashio/Electronics/ARM/_Library/u8x8_d_st7565.c ****     }
 522:/Users/imashio/Electronics/ARM/_Library/u8x8_d_st7565.c ****   }
 523:/Users/imashio/Electronics/ARM/_Library/u8x8_d_st7565.c ****   return 1;
 524:/Users/imashio/Electronics/ARM/_Library/u8x8_d_st7565.c **** }
 578              		.loc 1 524 0
 579 001a 70BD     		pop	{r4, r5, r6, pc}
 580              	.LVL73:
 581              	.L61:
 523:/Users/imashio/Electronics/ARM/_Library/u8x8_d_st7565.c **** }
 582              		.loc 1 523 0
 583 001c 0120     		movs	r0, #1
 584              		.loc 1 524 0
 585 001e 70BD     		pop	{r4, r5, r6, pc}
 586              	.LVL74:
 587              	.L57:
 504:/Users/imashio/Electronics/ARM/_Library/u8x8_d_st7565.c **** 	u8x8_cad_SendSequence(u8x8, u8x8_d_st7565_nhd_c12832_init_seq);
 588              		.loc 1 504 0
 589 0020 2846     		mov	r0, r5
 590 0022 FFF7FEFF 		bl	u8x8_d_helper_display_init
 591              	.LVL75:
 505:/Users/imashio/Electronics/ARM/_Library/u8x8_d_st7565.c **** 	break;
 592              		.loc 1 505 0
 593 0026 2846     		mov	r0, r5
 594 0028 0E49     		ldr	r1, .L65
 595 002a FFF7FEFF 		bl	u8x8_cad_SendSequence
 596              	.LVL76:
 523:/Users/imashio/Electronics/ARM/_Library/u8x8_d_st7565.c **** }
 597              		.loc 1 523 0
 598 002e 0120     		movs	r0, #1
 599              		.loc 1 524 0
 600 0030 70BD     		pop	{r4, r5, r6, pc}
 601              	.LVL77:
 602              	.L63:
 501:/Users/imashio/Electronics/ARM/_Library/u8x8_d_st7565.c **** 	break;
 603              		.loc 1 501 0
 604 0032 2846     		mov	r0, r5
 605 0034 0C49     		ldr	r1, .L65+4
 606 0036 FFF7FEFF 		bl	u8x8_d_helper_display_setup_memory
 607              	.LVL78:
 523:/Users/imashio/Electronics/ARM/_Library/u8x8_d_st7565.c **** }
 608              		.loc 1 523 0
 609 003a 0120     		movs	r0, #1
ARM GAS  /var/folders/v3/wysfpd052nz8jkbx04pk0ym80000gn/T//ccFzeRvn.s 			page 22


 610              		.loc 1 524 0
 611 003c 70BD     		pop	{r4, r5, r6, pc}
 612              	.LVL79:
 613              	.L58:
 508:/Users/imashio/Electronics/ARM/_Library/u8x8_d_st7565.c **** 	{
 614              		.loc 1 508 0
 615 003e 46B1     		cbz	r6, .L64
 515:/Users/imashio/Electronics/ARM/_Library/u8x8_d_st7565.c **** 	  u8x8->x_offset = u8x8->display_info->flipmode_x_offset;
 616              		.loc 1 515 0
 617 0040 2846     		mov	r0, r5
 618 0042 0A49     		ldr	r1, .L65+8
 619 0044 FFF7FEFF 		bl	u8x8_cad_SendSequence
 620              	.LVL80:
 516:/Users/imashio/Electronics/ARM/_Library/u8x8_d_st7565.c **** 	}	
 621              		.loc 1 516 0
 622 0048 2B68     		ldr	r3, [r5]
 623 004a DB7C     		ldrb	r3, [r3, #19]	@ zero_extendqisi2
 624 004c AB77     		strb	r3, [r5, #30]
 523:/Users/imashio/Electronics/ARM/_Library/u8x8_d_st7565.c **** }
 625              		.loc 1 523 0
 626 004e 0120     		movs	r0, #1
 627              		.loc 1 524 0
 628 0050 70BD     		pop	{r4, r5, r6, pc}
 629              	.LVL81:
 630              	.L64:
 510:/Users/imashio/Electronics/ARM/_Library/u8x8_d_st7565.c **** 	  u8x8->x_offset = u8x8->display_info->default_x_offset;
 631              		.loc 1 510 0
 632 0052 2846     		mov	r0, r5
 633 0054 0649     		ldr	r1, .L65+12
 634 0056 FFF7FEFF 		bl	u8x8_cad_SendSequence
 635              	.LVL82:
 511:/Users/imashio/Electronics/ARM/_Library/u8x8_d_st7565.c **** 	}
 636              		.loc 1 511 0
 637 005a 2B68     		ldr	r3, [r5]
 638 005c 9B7C     		ldrb	r3, [r3, #18]	@ zero_extendqisi2
 639 005e AB77     		strb	r3, [r5, #30]
 523:/Users/imashio/Electronics/ARM/_Library/u8x8_d_st7565.c **** }
 640              		.loc 1 523 0
 641 0060 0120     		movs	r0, #1
 642              		.loc 1 524 0
 643 0062 70BD     		pop	{r4, r5, r6, pc}
 644              	.LVL83:
 645              	.L66:
 646              		.align	2
 647              	.L65:
 648 0064 00000000 		.word	.LANCHOR12
 649 0068 00000000 		.word	.LANCHOR11
 650 006c 00000000 		.word	.LANCHOR5
 651 0070 00000000 		.word	.LANCHOR4
 652              		.cfi_endproc
 653              	.LFE4:
 655              		.section	.text.u8x8_d_st7565_nhd_c12864,"ax",%progbits
 656              		.align	1
 657              		.p2align 2,,3
 658              		.global	u8x8_d_st7565_nhd_c12864
 659              		.syntax unified
 660              		.thumb
ARM GAS  /var/folders/v3/wysfpd052nz8jkbx04pk0ym80000gn/T//ccFzeRvn.s 			page 23


 661              		.thumb_func
 662              		.fpu fpv4-sp-d16
 664              	u8x8_d_st7565_nhd_c12864:
 665              	.LFB5:
 525:/Users/imashio/Electronics/ARM/_Library/u8x8_d_st7565.c **** 
 526:/Users/imashio/Electronics/ARM/_Library/u8x8_d_st7565.c **** /*================================================*/
 527:/Users/imashio/Electronics/ARM/_Library/u8x8_d_st7565.c **** /* NHD-C12864 */
 528:/Users/imashio/Electronics/ARM/_Library/u8x8_d_st7565.c **** 
 529:/Users/imashio/Electronics/ARM/_Library/u8x8_d_st7565.c **** static const u8x8_display_info_t u8x8_st7565_nhd_c12864_display_info =
 530:/Users/imashio/Electronics/ARM/_Library/u8x8_d_st7565.c **** {
 531:/Users/imashio/Electronics/ARM/_Library/u8x8_d_st7565.c ****   /* chip_enable_level = */ 0,
 532:/Users/imashio/Electronics/ARM/_Library/u8x8_d_st7565.c ****   /* chip_disable_level = */ 1,
 533:/Users/imashio/Electronics/ARM/_Library/u8x8_d_st7565.c ****   
 534:/Users/imashio/Electronics/ARM/_Library/u8x8_d_st7565.c ****   /* post_chip_enable_wait_ns = */ 150,	/* st7565 datasheet, table 26, tcsh */
 535:/Users/imashio/Electronics/ARM/_Library/u8x8_d_st7565.c ****   /* pre_chip_disable_wait_ns = */ 50,	/* st7565 datasheet, table 26, tcss */
 536:/Users/imashio/Electronics/ARM/_Library/u8x8_d_st7565.c ****   /* reset_pulse_width_ms = */ 1, 
 537:/Users/imashio/Electronics/ARM/_Library/u8x8_d_st7565.c ****   /* post_reset_wait_ms = */ 1, 
 538:/Users/imashio/Electronics/ARM/_Library/u8x8_d_st7565.c ****   /* sda_setup_time_ns = */ 50,		/* st7565 datasheet, table 26, tsds */
 539:/Users/imashio/Electronics/ARM/_Library/u8x8_d_st7565.c ****   /* sck_pulse_width_ns = */ 120,	/* half of cycle time (100ns according to datasheet), AVR: below 
 540:/Users/imashio/Electronics/ARM/_Library/u8x8_d_st7565.c ****   /* sck_clock_hz = */ 4000000UL,	/* since Arduino 1.6.0, the SPI bus speed in Hz. Should be  10000
 541:/Users/imashio/Electronics/ARM/_Library/u8x8_d_st7565.c ****   /* spi_mode = */ 0,		/* active high, rising edge */
 542:/Users/imashio/Electronics/ARM/_Library/u8x8_d_st7565.c ****   /* i2c_bus_clock_100kHz = */ 4,
 543:/Users/imashio/Electronics/ARM/_Library/u8x8_d_st7565.c ****   /* data_setup_time_ns = */ 40,	/* st7565 datasheet, table 24, tds8 */
 544:/Users/imashio/Electronics/ARM/_Library/u8x8_d_st7565.c ****   /* write_pulse_width_ns = */ 80,	/* st7565 datasheet, table 24, tcclw */
 545:/Users/imashio/Electronics/ARM/_Library/u8x8_d_st7565.c ****   /* tile_width = */ 16,		/* width of 16*8=128 pixel */
 546:/Users/imashio/Electronics/ARM/_Library/u8x8_d_st7565.c ****   /* tile_hight = */ 8,
 547:/Users/imashio/Electronics/ARM/_Library/u8x8_d_st7565.c ****   /* default_x_offset = */ 4,
 548:/Users/imashio/Electronics/ARM/_Library/u8x8_d_st7565.c ****   /* flipmode_x_offset = */ 0,
 549:/Users/imashio/Electronics/ARM/_Library/u8x8_d_st7565.c ****   /* pixel_width = */ 128,
 550:/Users/imashio/Electronics/ARM/_Library/u8x8_d_st7565.c ****   /* pixel_height = */ 64
 551:/Users/imashio/Electronics/ARM/_Library/u8x8_d_st7565.c **** };
 552:/Users/imashio/Electronics/ARM/_Library/u8x8_d_st7565.c **** 
 553:/Users/imashio/Electronics/ARM/_Library/u8x8_d_st7565.c **** 
 554:/Users/imashio/Electronics/ARM/_Library/u8x8_d_st7565.c **** static const uint8_t u8x8_d_st7565_nhd_c12864_init_seq[] = {
 555:/Users/imashio/Electronics/ARM/_Library/u8x8_d_st7565.c ****     
 556:/Users/imashio/Electronics/ARM/_Library/u8x8_d_st7565.c ****   U8X8_START_TRANSFER(),             	/* enable chip, delay is part of the transfer start */
 557:/Users/imashio/Electronics/ARM/_Library/u8x8_d_st7565.c ****   
 558:/Users/imashio/Electronics/ARM/_Library/u8x8_d_st7565.c ****   U8X8_C(0x0e2),            			/* soft reset */
 559:/Users/imashio/Electronics/ARM/_Library/u8x8_d_st7565.c ****   U8X8_C(0x0ae),		                /* display off */
 560:/Users/imashio/Electronics/ARM/_Library/u8x8_d_st7565.c ****   U8X8_C(0x040),		                /* set display start line to 0 */
 561:/Users/imashio/Electronics/ARM/_Library/u8x8_d_st7565.c ****   
 562:/Users/imashio/Electronics/ARM/_Library/u8x8_d_st7565.c ****   U8X8_C(0x0a1),		                /* ADC set to reverse */
 563:/Users/imashio/Electronics/ARM/_Library/u8x8_d_st7565.c ****   U8X8_C(0x0c0),		                /* common output mode */
 564:/Users/imashio/Electronics/ARM/_Library/u8x8_d_st7565.c ****   // Flipmode
 565:/Users/imashio/Electronics/ARM/_Library/u8x8_d_st7565.c ****   //U8X8_C(0x0a0),		                /* ADC set to reverse */
 566:/Users/imashio/Electronics/ARM/_Library/u8x8_d_st7565.c ****   //U8X8_C(0x0c8),		                /* common output mode */
 567:/Users/imashio/Electronics/ARM/_Library/u8x8_d_st7565.c ****   
 568:/Users/imashio/Electronics/ARM/_Library/u8x8_d_st7565.c ****   U8X8_C(0x0a6),		                /* display normal, bit val 0: LCD pixel off. */
 569:/Users/imashio/Electronics/ARM/_Library/u8x8_d_st7565.c ****   U8X8_C(0x0a2),		                /* LCD bias 1/9 */
 570:/Users/imashio/Electronics/ARM/_Library/u8x8_d_st7565.c ****   U8X8_C(0x02f),		                /* all power  control circuits on */
 571:/Users/imashio/Electronics/ARM/_Library/u8x8_d_st7565.c ****   U8X8_CA(0x0f8, 0x000),		/* set booster ratio to 4x */
 572:/Users/imashio/Electronics/ARM/_Library/u8x8_d_st7565.c ****   U8X8_C(0x023),		                /* set V0 voltage resistor ratio to large*/
 573:/Users/imashio/Electronics/ARM/_Library/u8x8_d_st7565.c ****   U8X8_CA(0x081, 180),			/* set contrast, contrast value NHD C12864, see issue 186, increased contr
 574:/Users/imashio/Electronics/ARM/_Library/u8x8_d_st7565.c ****   
 575:/Users/imashio/Electronics/ARM/_Library/u8x8_d_st7565.c ****   U8X8_C(0x0ae),		                /* display off */
 576:/Users/imashio/Electronics/ARM/_Library/u8x8_d_st7565.c ****   U8X8_C(0x0a5),		                /* enter powersafe: all pixel on, issue 142 */
 577:/Users/imashio/Electronics/ARM/_Library/u8x8_d_st7565.c ****   
ARM GAS  /var/folders/v3/wysfpd052nz8jkbx04pk0ym80000gn/T//ccFzeRvn.s 			page 24


 578:/Users/imashio/Electronics/ARM/_Library/u8x8_d_st7565.c ****   U8X8_END_TRANSFER(),             	/* disable chip */
 579:/Users/imashio/Electronics/ARM/_Library/u8x8_d_st7565.c ****   U8X8_END()             			/* end of sequence */
 580:/Users/imashio/Electronics/ARM/_Library/u8x8_d_st7565.c **** };
 581:/Users/imashio/Electronics/ARM/_Library/u8x8_d_st7565.c **** 
 582:/Users/imashio/Electronics/ARM/_Library/u8x8_d_st7565.c **** uint8_t u8x8_d_st7565_nhd_c12864(u8x8_t *u8x8, uint8_t msg, uint8_t arg_int, void *arg_ptr)
 583:/Users/imashio/Electronics/ARM/_Library/u8x8_d_st7565.c **** {
 666              		.loc 1 583 0
 667              		.cfi_startproc
 668              		@ args = 0, pretend = 0, frame = 0
 669              		@ frame_needed = 0, uses_anonymous_args = 0
 670              	.LVL84:
 671 0000 70B5     		push	{r4, r5, r6, lr}
 672              	.LCFI5:
 673              		.cfi_def_cfa_offset 16
 674              		.cfi_offset 4, -16
 675              		.cfi_offset 5, -12
 676              		.cfi_offset 6, -8
 677              		.cfi_offset 14, -4
 678              		.loc 1 583 0
 679 0002 0546     		mov	r5, r0
 680 0004 0C46     		mov	r4, r1
 681 0006 1646     		mov	r6, r2
 584:/Users/imashio/Electronics/ARM/_Library/u8x8_d_st7565.c ****   /* call common procedure first and handle messages there */
 585:/Users/imashio/Electronics/ARM/_Library/u8x8_d_st7565.c ****   if ( u8x8_d_st7565_common(u8x8, msg, arg_int, arg_ptr) == 0 )
 682              		.loc 1 585 0
 683 0008 FFF7FEFF 		bl	u8x8_d_st7565_common
 684              	.LVL85:
 685 000c 30B9     		cbnz	r0, .L73
 586:/Users/imashio/Electronics/ARM/_Library/u8x8_d_st7565.c ****   {
 587:/Users/imashio/Electronics/ARM/_Library/u8x8_d_st7565.c ****     /* msg not handled, then try here */
 588:/Users/imashio/Electronics/ARM/_Library/u8x8_d_st7565.c ****     switch(msg)
 686              		.loc 1 588 0
 687 000e 0A2C     		cmp	r4, #10
 688 0010 06D0     		beq	.L69
 689 0012 0D2C     		cmp	r4, #13
 690 0014 13D0     		beq	.L70
 691 0016 092C     		cmp	r4, #9
 692 0018 0BD0     		beq	.L75
 589:/Users/imashio/Electronics/ARM/_Library/u8x8_d_st7565.c ****     {
 590:/Users/imashio/Electronics/ARM/_Library/u8x8_d_st7565.c ****       case U8X8_MSG_DISPLAY_SETUP_MEMORY:
 591:/Users/imashio/Electronics/ARM/_Library/u8x8_d_st7565.c **** 	u8x8_d_helper_display_setup_memory(u8x8, &u8x8_st7565_nhd_c12864_display_info);
 592:/Users/imashio/Electronics/ARM/_Library/u8x8_d_st7565.c **** 	break;
 593:/Users/imashio/Electronics/ARM/_Library/u8x8_d_st7565.c ****       case U8X8_MSG_DISPLAY_INIT:
 594:/Users/imashio/Electronics/ARM/_Library/u8x8_d_st7565.c **** 	u8x8_d_helper_display_init(u8x8);
 595:/Users/imashio/Electronics/ARM/_Library/u8x8_d_st7565.c **** 	u8x8_cad_SendSequence(u8x8, u8x8_d_st7565_nhd_c12864_init_seq);
 596:/Users/imashio/Electronics/ARM/_Library/u8x8_d_st7565.c **** 	break;
 597:/Users/imashio/Electronics/ARM/_Library/u8x8_d_st7565.c ****       case U8X8_MSG_DISPLAY_SET_FLIP_MODE:
 598:/Users/imashio/Electronics/ARM/_Library/u8x8_d_st7565.c **** 	if ( arg_int == 0 )
 599:/Users/imashio/Electronics/ARM/_Library/u8x8_d_st7565.c **** 	{
 600:/Users/imashio/Electronics/ARM/_Library/u8x8_d_st7565.c **** 	  u8x8_cad_SendSequence(u8x8, u8x8_d_st7565_flip0_seq);
 601:/Users/imashio/Electronics/ARM/_Library/u8x8_d_st7565.c **** 	  u8x8->x_offset = u8x8->display_info->default_x_offset;
 602:/Users/imashio/Electronics/ARM/_Library/u8x8_d_st7565.c **** 	}
 603:/Users/imashio/Electronics/ARM/_Library/u8x8_d_st7565.c **** 	else
 604:/Users/imashio/Electronics/ARM/_Library/u8x8_d_st7565.c **** 	{
 605:/Users/imashio/Electronics/ARM/_Library/u8x8_d_st7565.c **** 	  u8x8_cad_SendSequence(u8x8, u8x8_d_st7565_flip1_seq);
 606:/Users/imashio/Electronics/ARM/_Library/u8x8_d_st7565.c **** 	  u8x8->x_offset = u8x8->display_info->flipmode_x_offset;
 607:/Users/imashio/Electronics/ARM/_Library/u8x8_d_st7565.c **** 	}	
ARM GAS  /var/folders/v3/wysfpd052nz8jkbx04pk0ym80000gn/T//ccFzeRvn.s 			page 25


 608:/Users/imashio/Electronics/ARM/_Library/u8x8_d_st7565.c **** 	break;
 609:/Users/imashio/Electronics/ARM/_Library/u8x8_d_st7565.c ****       default:
 610:/Users/imashio/Electronics/ARM/_Library/u8x8_d_st7565.c **** 	return 0;		/* msg unknown */
 611:/Users/imashio/Electronics/ARM/_Library/u8x8_d_st7565.c ****     }
 612:/Users/imashio/Electronics/ARM/_Library/u8x8_d_st7565.c ****   }
 613:/Users/imashio/Electronics/ARM/_Library/u8x8_d_st7565.c ****   return 1;
 614:/Users/imashio/Electronics/ARM/_Library/u8x8_d_st7565.c **** }
 693              		.loc 1 614 0
 694 001a 70BD     		pop	{r4, r5, r6, pc}
 695              	.LVL86:
 696              	.L73:
 613:/Users/imashio/Electronics/ARM/_Library/u8x8_d_st7565.c **** }
 697              		.loc 1 613 0
 698 001c 0120     		movs	r0, #1
 699              		.loc 1 614 0
 700 001e 70BD     		pop	{r4, r5, r6, pc}
 701              	.LVL87:
 702              	.L69:
 594:/Users/imashio/Electronics/ARM/_Library/u8x8_d_st7565.c **** 	u8x8_cad_SendSequence(u8x8, u8x8_d_st7565_nhd_c12864_init_seq);
 703              		.loc 1 594 0
 704 0020 2846     		mov	r0, r5
 705 0022 FFF7FEFF 		bl	u8x8_d_helper_display_init
 706              	.LVL88:
 595:/Users/imashio/Electronics/ARM/_Library/u8x8_d_st7565.c **** 	break;
 707              		.loc 1 595 0
 708 0026 2846     		mov	r0, r5
 709 0028 0E49     		ldr	r1, .L77
 710 002a FFF7FEFF 		bl	u8x8_cad_SendSequence
 711              	.LVL89:
 613:/Users/imashio/Electronics/ARM/_Library/u8x8_d_st7565.c **** }
 712              		.loc 1 613 0
 713 002e 0120     		movs	r0, #1
 714              		.loc 1 614 0
 715 0030 70BD     		pop	{r4, r5, r6, pc}
 716              	.LVL90:
 717              	.L75:
 591:/Users/imashio/Electronics/ARM/_Library/u8x8_d_st7565.c **** 	break;
 718              		.loc 1 591 0
 719 0032 2846     		mov	r0, r5
 720 0034 0C49     		ldr	r1, .L77+4
 721 0036 FFF7FEFF 		bl	u8x8_d_helper_display_setup_memory
 722              	.LVL91:
 613:/Users/imashio/Electronics/ARM/_Library/u8x8_d_st7565.c **** }
 723              		.loc 1 613 0
 724 003a 0120     		movs	r0, #1
 725              		.loc 1 614 0
 726 003c 70BD     		pop	{r4, r5, r6, pc}
 727              	.LVL92:
 728              	.L70:
 598:/Users/imashio/Electronics/ARM/_Library/u8x8_d_st7565.c **** 	{
 729              		.loc 1 598 0
 730 003e 46B1     		cbz	r6, .L76
 605:/Users/imashio/Electronics/ARM/_Library/u8x8_d_st7565.c **** 	  u8x8->x_offset = u8x8->display_info->flipmode_x_offset;
 731              		.loc 1 605 0
 732 0040 2846     		mov	r0, r5
 733 0042 0A49     		ldr	r1, .L77+8
 734 0044 FFF7FEFF 		bl	u8x8_cad_SendSequence
ARM GAS  /var/folders/v3/wysfpd052nz8jkbx04pk0ym80000gn/T//ccFzeRvn.s 			page 26


 735              	.LVL93:
 606:/Users/imashio/Electronics/ARM/_Library/u8x8_d_st7565.c **** 	}	
 736              		.loc 1 606 0
 737 0048 2B68     		ldr	r3, [r5]
 738 004a DB7C     		ldrb	r3, [r3, #19]	@ zero_extendqisi2
 739 004c AB77     		strb	r3, [r5, #30]
 613:/Users/imashio/Electronics/ARM/_Library/u8x8_d_st7565.c **** }
 740              		.loc 1 613 0
 741 004e 0120     		movs	r0, #1
 742              		.loc 1 614 0
 743 0050 70BD     		pop	{r4, r5, r6, pc}
 744              	.LVL94:
 745              	.L76:
 600:/Users/imashio/Electronics/ARM/_Library/u8x8_d_st7565.c **** 	  u8x8->x_offset = u8x8->display_info->default_x_offset;
 746              		.loc 1 600 0
 747 0052 2846     		mov	r0, r5
 748 0054 0649     		ldr	r1, .L77+12
 749 0056 FFF7FEFF 		bl	u8x8_cad_SendSequence
 750              	.LVL95:
 601:/Users/imashio/Electronics/ARM/_Library/u8x8_d_st7565.c **** 	}
 751              		.loc 1 601 0
 752 005a 2B68     		ldr	r3, [r5]
 753 005c 9B7C     		ldrb	r3, [r3, #18]	@ zero_extendqisi2
 754 005e AB77     		strb	r3, [r5, #30]
 613:/Users/imashio/Electronics/ARM/_Library/u8x8_d_st7565.c **** }
 755              		.loc 1 613 0
 756 0060 0120     		movs	r0, #1
 757              		.loc 1 614 0
 758 0062 70BD     		pop	{r4, r5, r6, pc}
 759              	.LVL96:
 760              	.L78:
 761              		.align	2
 762              	.L77:
 763 0064 00000000 		.word	.LANCHOR14
 764 0068 00000000 		.word	.LANCHOR13
 765 006c 00000000 		.word	.LANCHOR5
 766 0070 00000000 		.word	.LANCHOR4
 767              		.cfi_endproc
 768              	.LFE5:
 770              		.section	.text.u8x8_d_st7565_lm6059,"ax",%progbits
 771              		.align	1
 772              		.p2align 2,,3
 773              		.global	u8x8_d_st7565_lm6059
 774              		.syntax unified
 775              		.thumb
 776              		.thumb_func
 777              		.fpu fpv4-sp-d16
 779              	u8x8_d_st7565_lm6059:
 780              	.LFB6:
 615:/Users/imashio/Electronics/ARM/_Library/u8x8_d_st7565.c **** 
 616:/Users/imashio/Electronics/ARM/_Library/u8x8_d_st7565.c **** /*================================================*/
 617:/Users/imashio/Electronics/ARM/_Library/u8x8_d_st7565.c **** /* LM6059 (Adafruit)... probably this is a ST7567 display */
 618:/Users/imashio/Electronics/ARM/_Library/u8x8_d_st7565.c **** 
 619:/Users/imashio/Electronics/ARM/_Library/u8x8_d_st7565.c **** static const uint8_t u8x8_d_st7565_lm6059_init_seq[] = {
 620:/Users/imashio/Electronics/ARM/_Library/u8x8_d_st7565.c ****     
 621:/Users/imashio/Electronics/ARM/_Library/u8x8_d_st7565.c ****   U8X8_START_TRANSFER(),             	/* enable chip, delay is part of the transfer start */
 622:/Users/imashio/Electronics/ARM/_Library/u8x8_d_st7565.c ****   
ARM GAS  /var/folders/v3/wysfpd052nz8jkbx04pk0ym80000gn/T//ccFzeRvn.s 			page 27


 623:/Users/imashio/Electronics/ARM/_Library/u8x8_d_st7565.c ****   U8X8_C(0x0e2),            			/* soft reset */
 624:/Users/imashio/Electronics/ARM/_Library/u8x8_d_st7565.c ****   U8X8_C(0x0ae),		                /* display off */
 625:/Users/imashio/Electronics/ARM/_Library/u8x8_d_st7565.c ****   U8X8_C(0x060),		                /* set display start line to ... */
 626:/Users/imashio/Electronics/ARM/_Library/u8x8_d_st7565.c ****   
 627:/Users/imashio/Electronics/ARM/_Library/u8x8_d_st7565.c ****   U8X8_C(0x0a0),		                /* ADC set to reverse */
 628:/Users/imashio/Electronics/ARM/_Library/u8x8_d_st7565.c ****   U8X8_C(0x0c8),		                /* common output mode */
 629:/Users/imashio/Electronics/ARM/_Library/u8x8_d_st7565.c ****   //U8X8_C(0x0a1),		                /* ADC set to reverse */
 630:/Users/imashio/Electronics/ARM/_Library/u8x8_d_st7565.c ****   //U8X8_C(0x0c0),		                /* common output mode */
 631:/Users/imashio/Electronics/ARM/_Library/u8x8_d_st7565.c ****   // Flipmode
 632:/Users/imashio/Electronics/ARM/_Library/u8x8_d_st7565.c ****   // U8X8_C(0x0a0),		                /* ADC set to reverse */
 633:/Users/imashio/Electronics/ARM/_Library/u8x8_d_st7565.c ****   // U8X8_C(0x0c8),		                /* common output mode */
 634:/Users/imashio/Electronics/ARM/_Library/u8x8_d_st7565.c ****   
 635:/Users/imashio/Electronics/ARM/_Library/u8x8_d_st7565.c ****   U8X8_C(0x0a6),		                /* display normal, bit val 0: LCD pixel off. */
 636:/Users/imashio/Electronics/ARM/_Library/u8x8_d_st7565.c ****   U8X8_C(0x0a3),		                /* LCD bias 1/9 */
 637:/Users/imashio/Electronics/ARM/_Library/u8x8_d_st7565.c ****   U8X8_C(0x02f),		                /* all power  control circuits on (regulator, booster and followe
 638:/Users/imashio/Electronics/ARM/_Library/u8x8_d_st7565.c ****   U8X8_CA(0x0f8, 0x000),		/* set booster ratio to 4x (ST7567 feature) */
 639:/Users/imashio/Electronics/ARM/_Library/u8x8_d_st7565.c ****   U8X8_C(0x027),		                /* set V0 voltage resistor ratio to max  */
 640:/Users/imashio/Electronics/ARM/_Library/u8x8_d_st7565.c ****   U8X8_CA(0x081, 0x018),		/* set contrast, contrast value, EA default: 0x016 */
 641:/Users/imashio/Electronics/ARM/_Library/u8x8_d_st7565.c ****   
 642:/Users/imashio/Electronics/ARM/_Library/u8x8_d_st7565.c ****   U8X8_C(0x0ae),		                /* display off */
 643:/Users/imashio/Electronics/ARM/_Library/u8x8_d_st7565.c ****   U8X8_C(0x0a5),		                /* enter powersafe: all pixel on, issue 142 */
 644:/Users/imashio/Electronics/ARM/_Library/u8x8_d_st7565.c ****   
 645:/Users/imashio/Electronics/ARM/_Library/u8x8_d_st7565.c ****   U8X8_END_TRANSFER(),             	/* disable chip */
 646:/Users/imashio/Electronics/ARM/_Library/u8x8_d_st7565.c ****   U8X8_END()             			/* end of sequence */
 647:/Users/imashio/Electronics/ARM/_Library/u8x8_d_st7565.c **** };
 648:/Users/imashio/Electronics/ARM/_Library/u8x8_d_st7565.c **** 
 649:/Users/imashio/Electronics/ARM/_Library/u8x8_d_st7565.c **** static const u8x8_display_info_t u8x8_st7565_lm6059_display_info =
 650:/Users/imashio/Electronics/ARM/_Library/u8x8_d_st7565.c **** {
 651:/Users/imashio/Electronics/ARM/_Library/u8x8_d_st7565.c ****   /* chip_enable_level = */ 0,
 652:/Users/imashio/Electronics/ARM/_Library/u8x8_d_st7565.c ****   /* chip_disable_level = */ 1,
 653:/Users/imashio/Electronics/ARM/_Library/u8x8_d_st7565.c ****   
 654:/Users/imashio/Electronics/ARM/_Library/u8x8_d_st7565.c ****   /* post_chip_enable_wait_ns = */ 150,	/* st7565 datasheet, table 26, tcsh */
 655:/Users/imashio/Electronics/ARM/_Library/u8x8_d_st7565.c ****   /* pre_chip_disable_wait_ns = */ 50,	/* st7565 datasheet, table 26, tcss */
 656:/Users/imashio/Electronics/ARM/_Library/u8x8_d_st7565.c ****   /* reset_pulse_width_ms = */ 1, 
 657:/Users/imashio/Electronics/ARM/_Library/u8x8_d_st7565.c ****   /* post_reset_wait_ms = */ 1, 
 658:/Users/imashio/Electronics/ARM/_Library/u8x8_d_st7565.c ****   /* sda_setup_time_ns = */ 50,		/* st7565 datasheet, table 26, tsds */
 659:/Users/imashio/Electronics/ARM/_Library/u8x8_d_st7565.c ****   /* sck_pulse_width_ns = */ 120,	/* half of cycle time (100ns according to datasheet), AVR: below 
 660:/Users/imashio/Electronics/ARM/_Library/u8x8_d_st7565.c ****   /* sck_clock_hz = */ 4000000UL,	/* since Arduino 1.6.0, the SPI bus speed in Hz. Should be  10000
 661:/Users/imashio/Electronics/ARM/_Library/u8x8_d_st7565.c ****   /* spi_mode = */ 0,		/* active high, rising edge */
 662:/Users/imashio/Electronics/ARM/_Library/u8x8_d_st7565.c ****   /* i2c_bus_clock_100kHz = */ 4,
 663:/Users/imashio/Electronics/ARM/_Library/u8x8_d_st7565.c ****   /* data_setup_time_ns = */ 40,	/* st7565 datasheet, table 24, tds8 */
 664:/Users/imashio/Electronics/ARM/_Library/u8x8_d_st7565.c ****   /* write_pulse_width_ns = */ 80,	/* st7565 datasheet, table 24, tcclw */
 665:/Users/imashio/Electronics/ARM/_Library/u8x8_d_st7565.c ****   /* tile_width = */ 16,		/* width of 16*8=128 pixel */
 666:/Users/imashio/Electronics/ARM/_Library/u8x8_d_st7565.c ****   /* tile_hight = */ 8,
 667:/Users/imashio/Electronics/ARM/_Library/u8x8_d_st7565.c ****   /* default_x_offset = */ 1,	/* not sure... */
 668:/Users/imashio/Electronics/ARM/_Library/u8x8_d_st7565.c ****   /* flipmode_x_offset = */ 3,
 669:/Users/imashio/Electronics/ARM/_Library/u8x8_d_st7565.c ****   /* pixel_width = */ 128,
 670:/Users/imashio/Electronics/ARM/_Library/u8x8_d_st7565.c ****   /* pixel_height = */ 64
 671:/Users/imashio/Electronics/ARM/_Library/u8x8_d_st7565.c **** };
 672:/Users/imashio/Electronics/ARM/_Library/u8x8_d_st7565.c **** 
 673:/Users/imashio/Electronics/ARM/_Library/u8x8_d_st7565.c **** uint8_t u8x8_d_st7565_lm6059(u8x8_t *u8x8, uint8_t msg, uint8_t arg_int, void *arg_ptr)
 674:/Users/imashio/Electronics/ARM/_Library/u8x8_d_st7565.c **** {
 781              		.loc 1 674 0
 782              		.cfi_startproc
 783              		@ args = 0, pretend = 0, frame = 0
 784              		@ frame_needed = 0, uses_anonymous_args = 0
 785              	.LVL97:
ARM GAS  /var/folders/v3/wysfpd052nz8jkbx04pk0ym80000gn/T//ccFzeRvn.s 			page 28


 786 0000 70B5     		push	{r4, r5, r6, lr}
 787              	.LCFI6:
 788              		.cfi_def_cfa_offset 16
 789              		.cfi_offset 4, -16
 790              		.cfi_offset 5, -12
 791              		.cfi_offset 6, -8
 792              		.cfi_offset 14, -4
 793              		.loc 1 674 0
 794 0002 0546     		mov	r5, r0
 795 0004 0C46     		mov	r4, r1
 796 0006 1646     		mov	r6, r2
 675:/Users/imashio/Electronics/ARM/_Library/u8x8_d_st7565.c ****   /* call common procedure first and handle messages there */
 676:/Users/imashio/Electronics/ARM/_Library/u8x8_d_st7565.c ****   if ( u8x8_d_st7565_common(u8x8, msg, arg_int, arg_ptr) == 0 )
 797              		.loc 1 676 0
 798 0008 FFF7FEFF 		bl	u8x8_d_st7565_common
 799              	.LVL98:
 800 000c 30B9     		cbnz	r0, .L85
 677:/Users/imashio/Electronics/ARM/_Library/u8x8_d_st7565.c ****   {
 678:/Users/imashio/Electronics/ARM/_Library/u8x8_d_st7565.c ****     /* msg not handled, then try here */
 679:/Users/imashio/Electronics/ARM/_Library/u8x8_d_st7565.c ****     switch(msg)
 801              		.loc 1 679 0
 802 000e 0A2C     		cmp	r4, #10
 803 0010 06D0     		beq	.L81
 804 0012 0D2C     		cmp	r4, #13
 805 0014 13D0     		beq	.L82
 806 0016 092C     		cmp	r4, #9
 807 0018 0BD0     		beq	.L87
 680:/Users/imashio/Electronics/ARM/_Library/u8x8_d_st7565.c ****     {
 681:/Users/imashio/Electronics/ARM/_Library/u8x8_d_st7565.c ****       case U8X8_MSG_DISPLAY_SETUP_MEMORY:
 682:/Users/imashio/Electronics/ARM/_Library/u8x8_d_st7565.c **** 	u8x8_d_helper_display_setup_memory(u8x8, &u8x8_st7565_lm6059_display_info);
 683:/Users/imashio/Electronics/ARM/_Library/u8x8_d_st7565.c **** 	break;
 684:/Users/imashio/Electronics/ARM/_Library/u8x8_d_st7565.c ****       case U8X8_MSG_DISPLAY_INIT:
 685:/Users/imashio/Electronics/ARM/_Library/u8x8_d_st7565.c **** 	u8x8_d_helper_display_init(u8x8);
 686:/Users/imashio/Electronics/ARM/_Library/u8x8_d_st7565.c **** 	u8x8_cad_SendSequence(u8x8, u8x8_d_st7565_lm6059_init_seq);
 687:/Users/imashio/Electronics/ARM/_Library/u8x8_d_st7565.c **** 	break;
 688:/Users/imashio/Electronics/ARM/_Library/u8x8_d_st7565.c ****       case U8X8_MSG_DISPLAY_SET_FLIP_MODE:
 689:/Users/imashio/Electronics/ARM/_Library/u8x8_d_st7565.c **** 	if ( arg_int == 0 )
 690:/Users/imashio/Electronics/ARM/_Library/u8x8_d_st7565.c **** 	{
 691:/Users/imashio/Electronics/ARM/_Library/u8x8_d_st7565.c **** 	  u8x8_cad_SendSequence(u8x8, u8x8_d_st7565_flip1_seq);
 692:/Users/imashio/Electronics/ARM/_Library/u8x8_d_st7565.c **** 	  u8x8->x_offset = u8x8->display_info->default_x_offset;
 693:/Users/imashio/Electronics/ARM/_Library/u8x8_d_st7565.c **** 	}
 694:/Users/imashio/Electronics/ARM/_Library/u8x8_d_st7565.c **** 	else
 695:/Users/imashio/Electronics/ARM/_Library/u8x8_d_st7565.c **** 	{
 696:/Users/imashio/Electronics/ARM/_Library/u8x8_d_st7565.c **** 	  u8x8_cad_SendSequence(u8x8, u8x8_d_st7565_flip0_seq);
 697:/Users/imashio/Electronics/ARM/_Library/u8x8_d_st7565.c **** 	  u8x8->x_offset = u8x8->display_info->flipmode_x_offset;
 698:/Users/imashio/Electronics/ARM/_Library/u8x8_d_st7565.c **** 	}	
 699:/Users/imashio/Electronics/ARM/_Library/u8x8_d_st7565.c **** 	break;
 700:/Users/imashio/Electronics/ARM/_Library/u8x8_d_st7565.c ****       default:
 701:/Users/imashio/Electronics/ARM/_Library/u8x8_d_st7565.c **** 	return 0;		/* msg unknown */
 702:/Users/imashio/Electronics/ARM/_Library/u8x8_d_st7565.c ****     }
 703:/Users/imashio/Electronics/ARM/_Library/u8x8_d_st7565.c ****   }
 704:/Users/imashio/Electronics/ARM/_Library/u8x8_d_st7565.c ****   return 1;
 705:/Users/imashio/Electronics/ARM/_Library/u8x8_d_st7565.c **** }
 808              		.loc 1 705 0
 809 001a 70BD     		pop	{r4, r5, r6, pc}
 810              	.LVL99:
 811              	.L85:
ARM GAS  /var/folders/v3/wysfpd052nz8jkbx04pk0ym80000gn/T//ccFzeRvn.s 			page 29


 704:/Users/imashio/Electronics/ARM/_Library/u8x8_d_st7565.c **** }
 812              		.loc 1 704 0
 813 001c 0120     		movs	r0, #1
 814              		.loc 1 705 0
 815 001e 70BD     		pop	{r4, r5, r6, pc}
 816              	.LVL100:
 817              	.L81:
 685:/Users/imashio/Electronics/ARM/_Library/u8x8_d_st7565.c **** 	u8x8_cad_SendSequence(u8x8, u8x8_d_st7565_lm6059_init_seq);
 818              		.loc 1 685 0
 819 0020 2846     		mov	r0, r5
 820 0022 FFF7FEFF 		bl	u8x8_d_helper_display_init
 821              	.LVL101:
 686:/Users/imashio/Electronics/ARM/_Library/u8x8_d_st7565.c **** 	break;
 822              		.loc 1 686 0
 823 0026 2846     		mov	r0, r5
 824 0028 0E49     		ldr	r1, .L89
 825 002a FFF7FEFF 		bl	u8x8_cad_SendSequence
 826              	.LVL102:
 704:/Users/imashio/Electronics/ARM/_Library/u8x8_d_st7565.c **** }
 827              		.loc 1 704 0
 828 002e 0120     		movs	r0, #1
 829              		.loc 1 705 0
 830 0030 70BD     		pop	{r4, r5, r6, pc}
 831              	.LVL103:
 832              	.L87:
 682:/Users/imashio/Electronics/ARM/_Library/u8x8_d_st7565.c **** 	break;
 833              		.loc 1 682 0
 834 0032 2846     		mov	r0, r5
 835 0034 0C49     		ldr	r1, .L89+4
 836 0036 FFF7FEFF 		bl	u8x8_d_helper_display_setup_memory
 837              	.LVL104:
 704:/Users/imashio/Electronics/ARM/_Library/u8x8_d_st7565.c **** }
 838              		.loc 1 704 0
 839 003a 0120     		movs	r0, #1
 840              		.loc 1 705 0
 841 003c 70BD     		pop	{r4, r5, r6, pc}
 842              	.LVL105:
 843              	.L82:
 689:/Users/imashio/Electronics/ARM/_Library/u8x8_d_st7565.c **** 	{
 844              		.loc 1 689 0
 845 003e 46B1     		cbz	r6, .L88
 696:/Users/imashio/Electronics/ARM/_Library/u8x8_d_st7565.c **** 	  u8x8->x_offset = u8x8->display_info->flipmode_x_offset;
 846              		.loc 1 696 0
 847 0040 2846     		mov	r0, r5
 848 0042 0A49     		ldr	r1, .L89+8
 849 0044 FFF7FEFF 		bl	u8x8_cad_SendSequence
 850              	.LVL106:
 697:/Users/imashio/Electronics/ARM/_Library/u8x8_d_st7565.c **** 	}	
 851              		.loc 1 697 0
 852 0048 2B68     		ldr	r3, [r5]
 853 004a DB7C     		ldrb	r3, [r3, #19]	@ zero_extendqisi2
 854 004c AB77     		strb	r3, [r5, #30]
 704:/Users/imashio/Electronics/ARM/_Library/u8x8_d_st7565.c **** }
 855              		.loc 1 704 0
 856 004e 0120     		movs	r0, #1
 857              		.loc 1 705 0
 858 0050 70BD     		pop	{r4, r5, r6, pc}
ARM GAS  /var/folders/v3/wysfpd052nz8jkbx04pk0ym80000gn/T//ccFzeRvn.s 			page 30


 859              	.LVL107:
 860              	.L88:
 691:/Users/imashio/Electronics/ARM/_Library/u8x8_d_st7565.c **** 	  u8x8->x_offset = u8x8->display_info->default_x_offset;
 861              		.loc 1 691 0
 862 0052 2846     		mov	r0, r5
 863 0054 0649     		ldr	r1, .L89+12
 864 0056 FFF7FEFF 		bl	u8x8_cad_SendSequence
 865              	.LVL108:
 692:/Users/imashio/Electronics/ARM/_Library/u8x8_d_st7565.c **** 	}
 866              		.loc 1 692 0
 867 005a 2B68     		ldr	r3, [r5]
 868 005c 9B7C     		ldrb	r3, [r3, #18]	@ zero_extendqisi2
 869 005e AB77     		strb	r3, [r5, #30]
 704:/Users/imashio/Electronics/ARM/_Library/u8x8_d_st7565.c **** }
 870              		.loc 1 704 0
 871 0060 0120     		movs	r0, #1
 872              		.loc 1 705 0
 873 0062 70BD     		pop	{r4, r5, r6, pc}
 874              	.LVL109:
 875              	.L90:
 876              		.align	2
 877              	.L89:
 878 0064 00000000 		.word	.LANCHOR16
 879 0068 00000000 		.word	.LANCHOR15
 880 006c 00000000 		.word	.LANCHOR4
 881 0070 00000000 		.word	.LANCHOR5
 882              		.cfi_endproc
 883              	.LFE6:
 885              		.section	.text.u8x8_d_st7565_erc12864,"ax",%progbits
 886              		.align	1
 887              		.p2align 2,,3
 888              		.global	u8x8_d_st7565_erc12864
 889              		.syntax unified
 890              		.thumb
 891              		.thumb_func
 892              		.fpu fpv4-sp-d16
 894              	u8x8_d_st7565_erc12864:
 895              	.LFB7:
 706:/Users/imashio/Electronics/ARM/_Library/u8x8_d_st7565.c **** 
 707:/Users/imashio/Electronics/ARM/_Library/u8x8_d_st7565.c **** 
 708:/Users/imashio/Electronics/ARM/_Library/u8x8_d_st7565.c **** /*================================================*/
 709:/Users/imashio/Electronics/ARM/_Library/u8x8_d_st7565.c **** /* ERC12864-1 (buydisplay.com) */
 710:/Users/imashio/Electronics/ARM/_Library/u8x8_d_st7565.c **** 
 711:/Users/imashio/Electronics/ARM/_Library/u8x8_d_st7565.c **** static const uint8_t u8x8_d_st7565_erc12864_init_seq[] = {
 712:/Users/imashio/Electronics/ARM/_Library/u8x8_d_st7565.c ****     
 713:/Users/imashio/Electronics/ARM/_Library/u8x8_d_st7565.c ****   U8X8_START_TRANSFER(),             	/* enable chip, delay is part of the transfer start */
 714:/Users/imashio/Electronics/ARM/_Library/u8x8_d_st7565.c ****   
 715:/Users/imashio/Electronics/ARM/_Library/u8x8_d_st7565.c ****   U8X8_C(0x0e2),            			/* soft reset */
 716:/Users/imashio/Electronics/ARM/_Library/u8x8_d_st7565.c ****   U8X8_C(0x0ae),		                /* display off */
 717:/Users/imashio/Electronics/ARM/_Library/u8x8_d_st7565.c ****   U8X8_C(0x040),		                /* set display start line to ... */
 718:/Users/imashio/Electronics/ARM/_Library/u8x8_d_st7565.c ****   
 719:/Users/imashio/Electronics/ARM/_Library/u8x8_d_st7565.c ****   U8X8_C(0x0a0),		                /* ADC set to reverse */
 720:/Users/imashio/Electronics/ARM/_Library/u8x8_d_st7565.c ****   U8X8_C(0x0c8),		                /* common output mode */
 721:/Users/imashio/Electronics/ARM/_Library/u8x8_d_st7565.c ****   //U8X8_C(0x0a1),		                /* ADC set to reverse */
 722:/Users/imashio/Electronics/ARM/_Library/u8x8_d_st7565.c ****   //U8X8_C(0x0c0),		                /* common output mode */
 723:/Users/imashio/Electronics/ARM/_Library/u8x8_d_st7565.c ****   // Flipmode
 724:/Users/imashio/Electronics/ARM/_Library/u8x8_d_st7565.c ****   // U8X8_C(0x0a0),		                /* ADC set to reverse */
ARM GAS  /var/folders/v3/wysfpd052nz8jkbx04pk0ym80000gn/T//ccFzeRvn.s 			page 31


 725:/Users/imashio/Electronics/ARM/_Library/u8x8_d_st7565.c ****   // U8X8_C(0x0c8),		                /* common output mode */
 726:/Users/imashio/Electronics/ARM/_Library/u8x8_d_st7565.c ****   
 727:/Users/imashio/Electronics/ARM/_Library/u8x8_d_st7565.c ****   U8X8_C(0x0a6),		                /* display normal, bit val 0: LCD pixel off. */
 728:/Users/imashio/Electronics/ARM/_Library/u8x8_d_st7565.c ****   U8X8_C(0x0a3),		                /* LCD bias 1/9 */
 729:/Users/imashio/Electronics/ARM/_Library/u8x8_d_st7565.c ****   U8X8_C(0x02f),		                /* all power  control circuits on (regulator, booster and followe
 730:/Users/imashio/Electronics/ARM/_Library/u8x8_d_st7565.c ****   U8X8_CA(0x0f8, 0x000),		/* set booster ratio to 4x (ST7567 feature)*/
 731:/Users/imashio/Electronics/ARM/_Library/u8x8_d_st7565.c ****   U8X8_C(0x027),		                /* set V0 voltage resistor ratio to max  */
 732:/Users/imashio/Electronics/ARM/_Library/u8x8_d_st7565.c ****   U8X8_CA(0x081, 0x018),		/* set contrast, contrast value, EA default: 0x016 */
 733:/Users/imashio/Electronics/ARM/_Library/u8x8_d_st7565.c ****   
 734:/Users/imashio/Electronics/ARM/_Library/u8x8_d_st7565.c ****   U8X8_C(0x0ae),		                /* display off */
 735:/Users/imashio/Electronics/ARM/_Library/u8x8_d_st7565.c ****   U8X8_C(0x0a5),		                /* enter powersafe: all pixel on, issue 142 */
 736:/Users/imashio/Electronics/ARM/_Library/u8x8_d_st7565.c ****   
 737:/Users/imashio/Electronics/ARM/_Library/u8x8_d_st7565.c ****   U8X8_END_TRANSFER(),             	/* disable chip */
 738:/Users/imashio/Electronics/ARM/_Library/u8x8_d_st7565.c ****   U8X8_END()             			/* end of sequence */
 739:/Users/imashio/Electronics/ARM/_Library/u8x8_d_st7565.c **** };
 740:/Users/imashio/Electronics/ARM/_Library/u8x8_d_st7565.c **** 
 741:/Users/imashio/Electronics/ARM/_Library/u8x8_d_st7565.c **** static const u8x8_display_info_t u8x8_st7565_erc12864_display_info =
 742:/Users/imashio/Electronics/ARM/_Library/u8x8_d_st7565.c **** {
 743:/Users/imashio/Electronics/ARM/_Library/u8x8_d_st7565.c ****   /* chip_enable_level = */ 0,
 744:/Users/imashio/Electronics/ARM/_Library/u8x8_d_st7565.c ****   /* chip_disable_level = */ 1,
 745:/Users/imashio/Electronics/ARM/_Library/u8x8_d_st7565.c ****   
 746:/Users/imashio/Electronics/ARM/_Library/u8x8_d_st7565.c ****   /* post_chip_enable_wait_ns = */ 150,	/* st7565 datasheet, table 26, tcsh */
 747:/Users/imashio/Electronics/ARM/_Library/u8x8_d_st7565.c ****   /* pre_chip_disable_wait_ns = */ 50,	/* st7565 datasheet, table 26, tcss */
 748:/Users/imashio/Electronics/ARM/_Library/u8x8_d_st7565.c ****   /* reset_pulse_width_ms = */ 1, 
 749:/Users/imashio/Electronics/ARM/_Library/u8x8_d_st7565.c ****   /* post_reset_wait_ms = */ 1, 
 750:/Users/imashio/Electronics/ARM/_Library/u8x8_d_st7565.c ****   /* sda_setup_time_ns = */ 50,		/* st7565 datasheet, table 26, tsds */
 751:/Users/imashio/Electronics/ARM/_Library/u8x8_d_st7565.c ****   /* sck_pulse_width_ns = */ 120,	/* half of cycle time (100ns according to datasheet), AVR: below 
 752:/Users/imashio/Electronics/ARM/_Library/u8x8_d_st7565.c ****   /* sck_clock_hz = */ 4000000UL,	/* since Arduino 1.6.0, the SPI bus speed in Hz. Should be  10000
 753:/Users/imashio/Electronics/ARM/_Library/u8x8_d_st7565.c ****   /* spi_mode = */ 0,		/* active high, rising edge */
 754:/Users/imashio/Electronics/ARM/_Library/u8x8_d_st7565.c ****   /* i2c_bus_clock_100kHz = */ 4,
 755:/Users/imashio/Electronics/ARM/_Library/u8x8_d_st7565.c ****   /* data_setup_time_ns = */ 40,	/* st7565 datasheet, table 24, tds8 */
 756:/Users/imashio/Electronics/ARM/_Library/u8x8_d_st7565.c ****   /* write_pulse_width_ns = */ 80,	/* st7565 datasheet, table 24, tcclw */
 757:/Users/imashio/Electronics/ARM/_Library/u8x8_d_st7565.c ****   /* tile_width = */ 16,		/* width of 16*8=128 pixel */
 758:/Users/imashio/Electronics/ARM/_Library/u8x8_d_st7565.c ****   /* tile_hight = */ 8,
 759:/Users/imashio/Electronics/ARM/_Library/u8x8_d_st7565.c ****   /* default_x_offset = */ 0,
 760:/Users/imashio/Electronics/ARM/_Library/u8x8_d_st7565.c ****   /* flipmode_x_offset = */ 4,
 761:/Users/imashio/Electronics/ARM/_Library/u8x8_d_st7565.c ****   /* pixel_width = */ 128,
 762:/Users/imashio/Electronics/ARM/_Library/u8x8_d_st7565.c ****   /* pixel_height = */ 64
 763:/Users/imashio/Electronics/ARM/_Library/u8x8_d_st7565.c **** };
 764:/Users/imashio/Electronics/ARM/_Library/u8x8_d_st7565.c **** 
 765:/Users/imashio/Electronics/ARM/_Library/u8x8_d_st7565.c **** uint8_t u8x8_d_st7565_erc12864(u8x8_t *u8x8, uint8_t msg, uint8_t arg_int, void *arg_ptr)
 766:/Users/imashio/Electronics/ARM/_Library/u8x8_d_st7565.c **** {
 896              		.loc 1 766 0
 897              		.cfi_startproc
 898              		@ args = 0, pretend = 0, frame = 0
 899              		@ frame_needed = 0, uses_anonymous_args = 0
 900              	.LVL110:
 901 0000 70B5     		push	{r4, r5, r6, lr}
 902              	.LCFI7:
 903              		.cfi_def_cfa_offset 16
 904              		.cfi_offset 4, -16
 905              		.cfi_offset 5, -12
 906              		.cfi_offset 6, -8
 907              		.cfi_offset 14, -4
 908              		.loc 1 766 0
 909 0002 0546     		mov	r5, r0
 910 0004 0C46     		mov	r4, r1
ARM GAS  /var/folders/v3/wysfpd052nz8jkbx04pk0ym80000gn/T//ccFzeRvn.s 			page 32


 911 0006 1646     		mov	r6, r2
 767:/Users/imashio/Electronics/ARM/_Library/u8x8_d_st7565.c ****   /* call common procedure first and handle messages there */
 768:/Users/imashio/Electronics/ARM/_Library/u8x8_d_st7565.c ****   if ( u8x8_d_st7565_common(u8x8, msg, arg_int, arg_ptr) == 0 )
 912              		.loc 1 768 0
 913 0008 FFF7FEFF 		bl	u8x8_d_st7565_common
 914              	.LVL111:
 915 000c 30B9     		cbnz	r0, .L97
 769:/Users/imashio/Electronics/ARM/_Library/u8x8_d_st7565.c ****   {
 770:/Users/imashio/Electronics/ARM/_Library/u8x8_d_st7565.c ****     /* msg not handled, then try here */
 771:/Users/imashio/Electronics/ARM/_Library/u8x8_d_st7565.c ****     switch(msg)
 916              		.loc 1 771 0
 917 000e 0A2C     		cmp	r4, #10
 918 0010 06D0     		beq	.L93
 919 0012 0D2C     		cmp	r4, #13
 920 0014 13D0     		beq	.L94
 921 0016 092C     		cmp	r4, #9
 922 0018 0BD0     		beq	.L99
 772:/Users/imashio/Electronics/ARM/_Library/u8x8_d_st7565.c ****     {
 773:/Users/imashio/Electronics/ARM/_Library/u8x8_d_st7565.c ****       case U8X8_MSG_DISPLAY_SETUP_MEMORY:
 774:/Users/imashio/Electronics/ARM/_Library/u8x8_d_st7565.c **** 	u8x8_d_helper_display_setup_memory(u8x8, &u8x8_st7565_erc12864_display_info);
 775:/Users/imashio/Electronics/ARM/_Library/u8x8_d_st7565.c **** 	break;
 776:/Users/imashio/Electronics/ARM/_Library/u8x8_d_st7565.c ****       case U8X8_MSG_DISPLAY_INIT:
 777:/Users/imashio/Electronics/ARM/_Library/u8x8_d_st7565.c **** 	u8x8_d_helper_display_init(u8x8);
 778:/Users/imashio/Electronics/ARM/_Library/u8x8_d_st7565.c **** 	u8x8_cad_SendSequence(u8x8, u8x8_d_st7565_erc12864_init_seq);
 779:/Users/imashio/Electronics/ARM/_Library/u8x8_d_st7565.c **** 	break;
 780:/Users/imashio/Electronics/ARM/_Library/u8x8_d_st7565.c ****       case U8X8_MSG_DISPLAY_SET_FLIP_MODE:
 781:/Users/imashio/Electronics/ARM/_Library/u8x8_d_st7565.c **** 	if ( arg_int == 0 )
 782:/Users/imashio/Electronics/ARM/_Library/u8x8_d_st7565.c **** 	{
 783:/Users/imashio/Electronics/ARM/_Library/u8x8_d_st7565.c **** 	  u8x8_cad_SendSequence(u8x8, u8x8_d_st7565_flip1_seq);
 784:/Users/imashio/Electronics/ARM/_Library/u8x8_d_st7565.c **** 	  u8x8->x_offset = u8x8->display_info->default_x_offset;
 785:/Users/imashio/Electronics/ARM/_Library/u8x8_d_st7565.c **** 	}
 786:/Users/imashio/Electronics/ARM/_Library/u8x8_d_st7565.c **** 	else
 787:/Users/imashio/Electronics/ARM/_Library/u8x8_d_st7565.c **** 	{
 788:/Users/imashio/Electronics/ARM/_Library/u8x8_d_st7565.c **** 	  u8x8_cad_SendSequence(u8x8, u8x8_d_st7565_flip0_seq);
 789:/Users/imashio/Electronics/ARM/_Library/u8x8_d_st7565.c **** 	  u8x8->x_offset = u8x8->display_info->flipmode_x_offset;
 790:/Users/imashio/Electronics/ARM/_Library/u8x8_d_st7565.c **** 	}	
 791:/Users/imashio/Electronics/ARM/_Library/u8x8_d_st7565.c **** 	break;
 792:/Users/imashio/Electronics/ARM/_Library/u8x8_d_st7565.c ****       default:
 793:/Users/imashio/Electronics/ARM/_Library/u8x8_d_st7565.c **** 	return 0;		/* msg unknown */
 794:/Users/imashio/Electronics/ARM/_Library/u8x8_d_st7565.c ****     }
 795:/Users/imashio/Electronics/ARM/_Library/u8x8_d_st7565.c ****   }
 796:/Users/imashio/Electronics/ARM/_Library/u8x8_d_st7565.c ****   return 1;
 797:/Users/imashio/Electronics/ARM/_Library/u8x8_d_st7565.c **** }
 923              		.loc 1 797 0
 924 001a 70BD     		pop	{r4, r5, r6, pc}
 925              	.LVL112:
 926              	.L97:
 796:/Users/imashio/Electronics/ARM/_Library/u8x8_d_st7565.c **** }
 927              		.loc 1 796 0
 928 001c 0120     		movs	r0, #1
 929              		.loc 1 797 0
 930 001e 70BD     		pop	{r4, r5, r6, pc}
 931              	.LVL113:
 932              	.L93:
 777:/Users/imashio/Electronics/ARM/_Library/u8x8_d_st7565.c **** 	u8x8_cad_SendSequence(u8x8, u8x8_d_st7565_erc12864_init_seq);
 933              		.loc 1 777 0
 934 0020 2846     		mov	r0, r5
ARM GAS  /var/folders/v3/wysfpd052nz8jkbx04pk0ym80000gn/T//ccFzeRvn.s 			page 33


 935 0022 FFF7FEFF 		bl	u8x8_d_helper_display_init
 936              	.LVL114:
 778:/Users/imashio/Electronics/ARM/_Library/u8x8_d_st7565.c **** 	break;
 937              		.loc 1 778 0
 938 0026 2846     		mov	r0, r5
 939 0028 0E49     		ldr	r1, .L101
 940 002a FFF7FEFF 		bl	u8x8_cad_SendSequence
 941              	.LVL115:
 796:/Users/imashio/Electronics/ARM/_Library/u8x8_d_st7565.c **** }
 942              		.loc 1 796 0
 943 002e 0120     		movs	r0, #1
 944              		.loc 1 797 0
 945 0030 70BD     		pop	{r4, r5, r6, pc}
 946              	.LVL116:
 947              	.L99:
 774:/Users/imashio/Electronics/ARM/_Library/u8x8_d_st7565.c **** 	break;
 948              		.loc 1 774 0
 949 0032 2846     		mov	r0, r5
 950 0034 0C49     		ldr	r1, .L101+4
 951 0036 FFF7FEFF 		bl	u8x8_d_helper_display_setup_memory
 952              	.LVL117:
 796:/Users/imashio/Electronics/ARM/_Library/u8x8_d_st7565.c **** }
 953              		.loc 1 796 0
 954 003a 0120     		movs	r0, #1
 955              		.loc 1 797 0
 956 003c 70BD     		pop	{r4, r5, r6, pc}
 957              	.LVL118:
 958              	.L94:
 781:/Users/imashio/Electronics/ARM/_Library/u8x8_d_st7565.c **** 	{
 959              		.loc 1 781 0
 960 003e 46B1     		cbz	r6, .L100
 788:/Users/imashio/Electronics/ARM/_Library/u8x8_d_st7565.c **** 	  u8x8->x_offset = u8x8->display_info->flipmode_x_offset;
 961              		.loc 1 788 0
 962 0040 2846     		mov	r0, r5
 963 0042 0A49     		ldr	r1, .L101+8
 964 0044 FFF7FEFF 		bl	u8x8_cad_SendSequence
 965              	.LVL119:
 789:/Users/imashio/Electronics/ARM/_Library/u8x8_d_st7565.c **** 	}	
 966              		.loc 1 789 0
 967 0048 2B68     		ldr	r3, [r5]
 968 004a DB7C     		ldrb	r3, [r3, #19]	@ zero_extendqisi2
 969 004c AB77     		strb	r3, [r5, #30]
 796:/Users/imashio/Electronics/ARM/_Library/u8x8_d_st7565.c **** }
 970              		.loc 1 796 0
 971 004e 0120     		movs	r0, #1
 972              		.loc 1 797 0
 973 0050 70BD     		pop	{r4, r5, r6, pc}
 974              	.LVL120:
 975              	.L100:
 783:/Users/imashio/Electronics/ARM/_Library/u8x8_d_st7565.c **** 	  u8x8->x_offset = u8x8->display_info->default_x_offset;
 976              		.loc 1 783 0
 977 0052 2846     		mov	r0, r5
 978 0054 0649     		ldr	r1, .L101+12
 979 0056 FFF7FEFF 		bl	u8x8_cad_SendSequence
 980              	.LVL121:
 784:/Users/imashio/Electronics/ARM/_Library/u8x8_d_st7565.c **** 	}
 981              		.loc 1 784 0
ARM GAS  /var/folders/v3/wysfpd052nz8jkbx04pk0ym80000gn/T//ccFzeRvn.s 			page 34


 982 005a 2B68     		ldr	r3, [r5]
 983 005c 9B7C     		ldrb	r3, [r3, #18]	@ zero_extendqisi2
 984 005e AB77     		strb	r3, [r5, #30]
 796:/Users/imashio/Electronics/ARM/_Library/u8x8_d_st7565.c **** }
 985              		.loc 1 796 0
 986 0060 0120     		movs	r0, #1
 987              		.loc 1 797 0
 988 0062 70BD     		pop	{r4, r5, r6, pc}
 989              	.LVL122:
 990              	.L102:
 991              		.align	2
 992              	.L101:
 993 0064 00000000 		.word	.LANCHOR18
 994 0068 00000000 		.word	.LANCHOR17
 995 006c 00000000 		.word	.LANCHOR4
 996 0070 00000000 		.word	.LANCHOR5
 997              		.cfi_endproc
 998              	.LFE7:
 1000              		.section	.text.u8x8_d_nt7534_tg12864r,"ax",%progbits
 1001              		.align	1
 1002              		.p2align 2,,3
 1003              		.global	u8x8_d_nt7534_tg12864r
 1004              		.syntax unified
 1005              		.thumb
 1006              		.thumb_func
 1007              		.fpu fpv4-sp-d16
 1009              	u8x8_d_nt7534_tg12864r:
 1010              	.LFB8:
 798:/Users/imashio/Electronics/ARM/_Library/u8x8_d_st7565.c **** 
 799:/Users/imashio/Electronics/ARM/_Library/u8x8_d_st7565.c **** 
 800:/Users/imashio/Electronics/ARM/_Library/u8x8_d_st7565.c **** /*================================================*/
 801:/Users/imashio/Electronics/ARM/_Library/u8x8_d_st7565.c **** /* NT7534, TG12864R */
 802:/Users/imashio/Electronics/ARM/_Library/u8x8_d_st7565.c **** /* The NT7534 has an extended command set for the ST7565, however this is not used. */
 803:/Users/imashio/Electronics/ARM/_Library/u8x8_d_st7565.c **** /* The TG12864R display is also shifted in lines, like the LM6059/Adafruit display */
 804:/Users/imashio/Electronics/ARM/_Library/u8x8_d_st7565.c **** /* However contrast seems to be different */
 805:/Users/imashio/Electronics/ARM/_Library/u8x8_d_st7565.c **** 
 806:/Users/imashio/Electronics/ARM/_Library/u8x8_d_st7565.c **** static const uint8_t u8x8_d_nt7534_tg12864r_init_seq[] = {
 807:/Users/imashio/Electronics/ARM/_Library/u8x8_d_st7565.c ****     
 808:/Users/imashio/Electronics/ARM/_Library/u8x8_d_st7565.c ****   U8X8_START_TRANSFER(),             	/* enable chip, delay is part of the transfer start */
 809:/Users/imashio/Electronics/ARM/_Library/u8x8_d_st7565.c ****   
 810:/Users/imashio/Electronics/ARM/_Library/u8x8_d_st7565.c ****   U8X8_C(0x0e2),            			/* soft reset */
 811:/Users/imashio/Electronics/ARM/_Library/u8x8_d_st7565.c ****   U8X8_C(0x0ae),		                /* display off */
 812:/Users/imashio/Electronics/ARM/_Library/u8x8_d_st7565.c ****   U8X8_C(0x060),		                /* set display start line to ... */
 813:/Users/imashio/Electronics/ARM/_Library/u8x8_d_st7565.c ****   
 814:/Users/imashio/Electronics/ARM/_Library/u8x8_d_st7565.c ****   U8X8_C(0x0a0),		                /* ADC set to reverse */
 815:/Users/imashio/Electronics/ARM/_Library/u8x8_d_st7565.c ****   U8X8_C(0x0c8),		                /* common output mode */
 816:/Users/imashio/Electronics/ARM/_Library/u8x8_d_st7565.c ****   // Flipmode
 817:/Users/imashio/Electronics/ARM/_Library/u8x8_d_st7565.c ****   //U8X8_C(0x0a1),		                /* ADC set to reverse */
 818:/Users/imashio/Electronics/ARM/_Library/u8x8_d_st7565.c ****   //U8X8_C(0x0c0),		                /* common output mode */
 819:/Users/imashio/Electronics/ARM/_Library/u8x8_d_st7565.c ****   
 820:/Users/imashio/Electronics/ARM/_Library/u8x8_d_st7565.c ****   U8X8_C(0x0a6),		                /* display normal, bit val 0: LCD pixel off. */
 821:/Users/imashio/Electronics/ARM/_Library/u8x8_d_st7565.c ****   U8X8_C(0x0a3),		                /* LCD bias 1/9 */
 822:/Users/imashio/Electronics/ARM/_Library/u8x8_d_st7565.c ****   U8X8_C(0x02f),		                /* all power  control circuits on (regulator, booster and followe
 823:/Users/imashio/Electronics/ARM/_Library/u8x8_d_st7565.c ****   //U8X8_CA(0x0f8, 0x000),		/* set booster ratio to 4x (ST7567 feature)*/
 824:/Users/imashio/Electronics/ARM/_Library/u8x8_d_st7565.c ****   U8X8_C(0x027),		                /* set V0 voltage resistor ratio to max  */
 825:/Users/imashio/Electronics/ARM/_Library/u8x8_d_st7565.c ****   U8X8_CA(0x081, 0x009),		/* set contrast, contrast value, EA default: 0x016 */
 826:/Users/imashio/Electronics/ARM/_Library/u8x8_d_st7565.c ****   
ARM GAS  /var/folders/v3/wysfpd052nz8jkbx04pk0ym80000gn/T//ccFzeRvn.s 			page 35


 827:/Users/imashio/Electronics/ARM/_Library/u8x8_d_st7565.c ****   U8X8_C(0x0ae),		                /* display off */
 828:/Users/imashio/Electronics/ARM/_Library/u8x8_d_st7565.c ****   U8X8_C(0x0a5),		                /* enter powersafe: all pixel on, issue 142 */
 829:/Users/imashio/Electronics/ARM/_Library/u8x8_d_st7565.c ****   
 830:/Users/imashio/Electronics/ARM/_Library/u8x8_d_st7565.c ****   U8X8_END_TRANSFER(),             	/* disable chip */
 831:/Users/imashio/Electronics/ARM/_Library/u8x8_d_st7565.c ****   U8X8_END()             			/* end of sequence */
 832:/Users/imashio/Electronics/ARM/_Library/u8x8_d_st7565.c **** };
 833:/Users/imashio/Electronics/ARM/_Library/u8x8_d_st7565.c **** 
 834:/Users/imashio/Electronics/ARM/_Library/u8x8_d_st7565.c **** uint8_t u8x8_d_nt7534_tg12864r(u8x8_t *u8x8, uint8_t msg, uint8_t arg_int, void *arg_ptr)
 835:/Users/imashio/Electronics/ARM/_Library/u8x8_d_st7565.c **** {
 1011              		.loc 1 835 0
 1012              		.cfi_startproc
 1013              		@ args = 0, pretend = 0, frame = 0
 1014              		@ frame_needed = 0, uses_anonymous_args = 0
 1015              	.LVL123:
 1016 0000 70B5     		push	{r4, r5, r6, lr}
 1017              	.LCFI8:
 1018              		.cfi_def_cfa_offset 16
 1019              		.cfi_offset 4, -16
 1020              		.cfi_offset 5, -12
 1021              		.cfi_offset 6, -8
 1022              		.cfi_offset 14, -4
 1023              		.loc 1 835 0
 1024 0002 0546     		mov	r5, r0
 1025 0004 0C46     		mov	r4, r1
 1026 0006 1646     		mov	r6, r2
 836:/Users/imashio/Electronics/ARM/_Library/u8x8_d_st7565.c ****   /* call common procedure first and handle messages there */
 837:/Users/imashio/Electronics/ARM/_Library/u8x8_d_st7565.c ****   if ( u8x8_d_st7565_common(u8x8, msg, arg_int, arg_ptr) == 0 )
 1027              		.loc 1 837 0
 1028 0008 FFF7FEFF 		bl	u8x8_d_st7565_common
 1029              	.LVL124:
 1030 000c 30B9     		cbnz	r0, .L109
 838:/Users/imashio/Electronics/ARM/_Library/u8x8_d_st7565.c ****   {
 839:/Users/imashio/Electronics/ARM/_Library/u8x8_d_st7565.c ****     /* msg not handled, then try here */
 840:/Users/imashio/Electronics/ARM/_Library/u8x8_d_st7565.c ****     switch(msg)
 1031              		.loc 1 840 0
 1032 000e 0A2C     		cmp	r4, #10
 1033 0010 06D0     		beq	.L105
 1034 0012 0D2C     		cmp	r4, #13
 1035 0014 13D0     		beq	.L106
 1036 0016 092C     		cmp	r4, #9
 1037 0018 0BD0     		beq	.L111
 841:/Users/imashio/Electronics/ARM/_Library/u8x8_d_st7565.c ****     {
 842:/Users/imashio/Electronics/ARM/_Library/u8x8_d_st7565.c ****       case U8X8_MSG_DISPLAY_SETUP_MEMORY:
 843:/Users/imashio/Electronics/ARM/_Library/u8x8_d_st7565.c **** 	/* reuse the LM6059 data structure... this display seems to have similar shifts and offsets */
 844:/Users/imashio/Electronics/ARM/_Library/u8x8_d_st7565.c **** 	u8x8_d_helper_display_setup_memory(u8x8, &u8x8_st7565_lm6059_display_info);
 845:/Users/imashio/Electronics/ARM/_Library/u8x8_d_st7565.c **** 	break;
 846:/Users/imashio/Electronics/ARM/_Library/u8x8_d_st7565.c ****       case U8X8_MSG_DISPLAY_INIT:
 847:/Users/imashio/Electronics/ARM/_Library/u8x8_d_st7565.c **** 	u8x8_d_helper_display_init(u8x8);
 848:/Users/imashio/Electronics/ARM/_Library/u8x8_d_st7565.c ****       
 849:/Users/imashio/Electronics/ARM/_Library/u8x8_d_st7565.c **** 	//u8x8_cad_SendSequence(u8x8, u8x8_d_st7565_lm6059_init_seq);
 850:/Users/imashio/Electronics/ARM/_Library/u8x8_d_st7565.c **** 	u8x8_cad_SendSequence(u8x8, u8x8_d_nt7534_tg12864r_init_seq);
 851:/Users/imashio/Electronics/ARM/_Library/u8x8_d_st7565.c **** 	break;
 852:/Users/imashio/Electronics/ARM/_Library/u8x8_d_st7565.c ****       case U8X8_MSG_DISPLAY_SET_FLIP_MODE:
 853:/Users/imashio/Electronics/ARM/_Library/u8x8_d_st7565.c **** 	if ( arg_int == 0 )
 854:/Users/imashio/Electronics/ARM/_Library/u8x8_d_st7565.c **** 	{
 855:/Users/imashio/Electronics/ARM/_Library/u8x8_d_st7565.c **** 	  u8x8_cad_SendSequence(u8x8, u8x8_d_st7565_flip1_seq);
 856:/Users/imashio/Electronics/ARM/_Library/u8x8_d_st7565.c **** 	  u8x8->x_offset = u8x8->display_info->default_x_offset;
ARM GAS  /var/folders/v3/wysfpd052nz8jkbx04pk0ym80000gn/T//ccFzeRvn.s 			page 36


 857:/Users/imashio/Electronics/ARM/_Library/u8x8_d_st7565.c **** 	}
 858:/Users/imashio/Electronics/ARM/_Library/u8x8_d_st7565.c **** 	else
 859:/Users/imashio/Electronics/ARM/_Library/u8x8_d_st7565.c **** 	{
 860:/Users/imashio/Electronics/ARM/_Library/u8x8_d_st7565.c **** 	  u8x8_cad_SendSequence(u8x8, u8x8_d_st7565_flip0_seq);
 861:/Users/imashio/Electronics/ARM/_Library/u8x8_d_st7565.c **** 	  u8x8->x_offset = u8x8->display_info->flipmode_x_offset;
 862:/Users/imashio/Electronics/ARM/_Library/u8x8_d_st7565.c **** 	}	
 863:/Users/imashio/Electronics/ARM/_Library/u8x8_d_st7565.c **** 	break;
 864:/Users/imashio/Electronics/ARM/_Library/u8x8_d_st7565.c ****       default:
 865:/Users/imashio/Electronics/ARM/_Library/u8x8_d_st7565.c **** 	return 0;		/* msg unknown */
 866:/Users/imashio/Electronics/ARM/_Library/u8x8_d_st7565.c ****     }
 867:/Users/imashio/Electronics/ARM/_Library/u8x8_d_st7565.c ****   }
 868:/Users/imashio/Electronics/ARM/_Library/u8x8_d_st7565.c ****   return 1;
 869:/Users/imashio/Electronics/ARM/_Library/u8x8_d_st7565.c **** }
 1038              		.loc 1 869 0
 1039 001a 70BD     		pop	{r4, r5, r6, pc}
 1040              	.LVL125:
 1041              	.L109:
 868:/Users/imashio/Electronics/ARM/_Library/u8x8_d_st7565.c **** }
 1042              		.loc 1 868 0
 1043 001c 0120     		movs	r0, #1
 1044              		.loc 1 869 0
 1045 001e 70BD     		pop	{r4, r5, r6, pc}
 1046              	.LVL126:
 1047              	.L105:
 847:/Users/imashio/Electronics/ARM/_Library/u8x8_d_st7565.c ****       
 1048              		.loc 1 847 0
 1049 0020 2846     		mov	r0, r5
 1050 0022 FFF7FEFF 		bl	u8x8_d_helper_display_init
 1051              	.LVL127:
 850:/Users/imashio/Electronics/ARM/_Library/u8x8_d_st7565.c **** 	break;
 1052              		.loc 1 850 0
 1053 0026 2846     		mov	r0, r5
 1054 0028 0E49     		ldr	r1, .L113
 1055 002a FFF7FEFF 		bl	u8x8_cad_SendSequence
 1056              	.LVL128:
 868:/Users/imashio/Electronics/ARM/_Library/u8x8_d_st7565.c **** }
 1057              		.loc 1 868 0
 1058 002e 0120     		movs	r0, #1
 1059              		.loc 1 869 0
 1060 0030 70BD     		pop	{r4, r5, r6, pc}
 1061              	.LVL129:
 1062              	.L111:
 844:/Users/imashio/Electronics/ARM/_Library/u8x8_d_st7565.c **** 	break;
 1063              		.loc 1 844 0
 1064 0032 2846     		mov	r0, r5
 1065 0034 0C49     		ldr	r1, .L113+4
 1066 0036 FFF7FEFF 		bl	u8x8_d_helper_display_setup_memory
 1067              	.LVL130:
 868:/Users/imashio/Electronics/ARM/_Library/u8x8_d_st7565.c **** }
 1068              		.loc 1 868 0
 1069 003a 0120     		movs	r0, #1
 1070              		.loc 1 869 0
 1071 003c 70BD     		pop	{r4, r5, r6, pc}
 1072              	.LVL131:
 1073              	.L106:
 853:/Users/imashio/Electronics/ARM/_Library/u8x8_d_st7565.c **** 	{
 1074              		.loc 1 853 0
ARM GAS  /var/folders/v3/wysfpd052nz8jkbx04pk0ym80000gn/T//ccFzeRvn.s 			page 37


 1075 003e 46B1     		cbz	r6, .L112
 860:/Users/imashio/Electronics/ARM/_Library/u8x8_d_st7565.c **** 	  u8x8->x_offset = u8x8->display_info->flipmode_x_offset;
 1076              		.loc 1 860 0
 1077 0040 2846     		mov	r0, r5
 1078 0042 0A49     		ldr	r1, .L113+8
 1079 0044 FFF7FEFF 		bl	u8x8_cad_SendSequence
 1080              	.LVL132:
 861:/Users/imashio/Electronics/ARM/_Library/u8x8_d_st7565.c **** 	}	
 1081              		.loc 1 861 0
 1082 0048 2B68     		ldr	r3, [r5]
 1083 004a DB7C     		ldrb	r3, [r3, #19]	@ zero_extendqisi2
 1084 004c AB77     		strb	r3, [r5, #30]
 868:/Users/imashio/Electronics/ARM/_Library/u8x8_d_st7565.c **** }
 1085              		.loc 1 868 0
 1086 004e 0120     		movs	r0, #1
 1087              		.loc 1 869 0
 1088 0050 70BD     		pop	{r4, r5, r6, pc}
 1089              	.LVL133:
 1090              	.L112:
 855:/Users/imashio/Electronics/ARM/_Library/u8x8_d_st7565.c **** 	  u8x8->x_offset = u8x8->display_info->default_x_offset;
 1091              		.loc 1 855 0
 1092 0052 2846     		mov	r0, r5
 1093 0054 0649     		ldr	r1, .L113+12
 1094 0056 FFF7FEFF 		bl	u8x8_cad_SendSequence
 1095              	.LVL134:
 856:/Users/imashio/Electronics/ARM/_Library/u8x8_d_st7565.c **** 	}
 1096              		.loc 1 856 0
 1097 005a 2B68     		ldr	r3, [r5]
 1098 005c 9B7C     		ldrb	r3, [r3, #18]	@ zero_extendqisi2
 1099 005e AB77     		strb	r3, [r5, #30]
 868:/Users/imashio/Electronics/ARM/_Library/u8x8_d_st7565.c **** }
 1100              		.loc 1 868 0
 1101 0060 0120     		movs	r0, #1
 1102              		.loc 1 869 0
 1103 0062 70BD     		pop	{r4, r5, r6, pc}
 1104              	.LVL135:
 1105              	.L114:
 1106              		.align	2
 1107              	.L113:
 1108 0064 00000000 		.word	.LANCHOR19
 1109 0068 00000000 		.word	.LANCHOR15
 1110 006c 00000000 		.word	.LANCHOR4
 1111 0070 00000000 		.word	.LANCHOR5
 1112              		.cfi_endproc
 1113              	.LFE8:
 1115              		.section	.text.u8x8_d_st7565_ea_dogm132,"ax",%progbits
 1116              		.align	1
 1117              		.p2align 2,,3
 1118              		.global	u8x8_d_st7565_ea_dogm132
 1119              		.syntax unified
 1120              		.thumb
 1121              		.thumb_func
 1122              		.fpu fpv4-sp-d16
 1124              	u8x8_d_st7565_ea_dogm132:
 1125              	.LFB9:
 870:/Users/imashio/Electronics/ARM/_Library/u8x8_d_st7565.c **** 
 871:/Users/imashio/Electronics/ARM/_Library/u8x8_d_st7565.c **** 
ARM GAS  /var/folders/v3/wysfpd052nz8jkbx04pk0ym80000gn/T//ccFzeRvn.s 			page 38


 872:/Users/imashio/Electronics/ARM/_Library/u8x8_d_st7565.c **** /*================================================*/
 873:/Users/imashio/Electronics/ARM/_Library/u8x8_d_st7565.c **** /* EA DOGM132 */
 874:/Users/imashio/Electronics/ARM/_Library/u8x8_d_st7565.c **** 
 875:/Users/imashio/Electronics/ARM/_Library/u8x8_d_st7565.c **** static const u8x8_display_info_t u8x8_st7565_dogm132_display_info =
 876:/Users/imashio/Electronics/ARM/_Library/u8x8_d_st7565.c **** {
 877:/Users/imashio/Electronics/ARM/_Library/u8x8_d_st7565.c ****   /* chip_enable_level = */ 0,
 878:/Users/imashio/Electronics/ARM/_Library/u8x8_d_st7565.c ****   /* chip_disable_level = */ 1,
 879:/Users/imashio/Electronics/ARM/_Library/u8x8_d_st7565.c ****   
 880:/Users/imashio/Electronics/ARM/_Library/u8x8_d_st7565.c ****   /* post_chip_enable_wait_ns = */ 150,	/* st7565 datasheet, table 26, tcsh */
 881:/Users/imashio/Electronics/ARM/_Library/u8x8_d_st7565.c ****   /* pre_chip_disable_wait_ns = */ 50,	/* st7565 datasheet, table 26, tcss */
 882:/Users/imashio/Electronics/ARM/_Library/u8x8_d_st7565.c ****   /* reset_pulse_width_ms = */ 1, 
 883:/Users/imashio/Electronics/ARM/_Library/u8x8_d_st7565.c ****   /* post_reset_wait_ms = */ 1, 
 884:/Users/imashio/Electronics/ARM/_Library/u8x8_d_st7565.c ****   /* sda_setup_time_ns = */ 50,		/* st7565 datasheet, table 26, tsds */
 885:/Users/imashio/Electronics/ARM/_Library/u8x8_d_st7565.c ****   /* sck_pulse_width_ns = */ 120,	/* half of cycle time (100ns according to datasheet), AVR: below 
 886:/Users/imashio/Electronics/ARM/_Library/u8x8_d_st7565.c ****   /* sck_clock_hz = */ 4000000UL,	/* since Arduino 1.6.0, the SPI bus speed in Hz. Should be  10000
 887:/Users/imashio/Electronics/ARM/_Library/u8x8_d_st7565.c ****   /* spi_mode = */ 0,		/* active high, rising edge */
 888:/Users/imashio/Electronics/ARM/_Library/u8x8_d_st7565.c ****   /* i2c_bus_clock_100kHz = */ 4,
 889:/Users/imashio/Electronics/ARM/_Library/u8x8_d_st7565.c ****   /* data_setup_time_ns = */ 40,	/* st7565 datasheet, table 24, tds8 */
 890:/Users/imashio/Electronics/ARM/_Library/u8x8_d_st7565.c ****   /* write_pulse_width_ns = */ 80,	/* st7565 datasheet, table 24, tcclw */
 891:/Users/imashio/Electronics/ARM/_Library/u8x8_d_st7565.c ****   /* tile_width = */ 17,		/* width of 16*8=136 pixel */
 892:/Users/imashio/Electronics/ARM/_Library/u8x8_d_st7565.c ****   /* tile_hight = */ 4,
 893:/Users/imashio/Electronics/ARM/_Library/u8x8_d_st7565.c ****   /* default_x_offset = */ 0,
 894:/Users/imashio/Electronics/ARM/_Library/u8x8_d_st7565.c ****   /* flipmode_x_offset = */ 0,
 895:/Users/imashio/Electronics/ARM/_Library/u8x8_d_st7565.c ****   /* pixel_width = */ 132,
 896:/Users/imashio/Electronics/ARM/_Library/u8x8_d_st7565.c ****   /* pixel_height = */ 32
 897:/Users/imashio/Electronics/ARM/_Library/u8x8_d_st7565.c **** };
 898:/Users/imashio/Electronics/ARM/_Library/u8x8_d_st7565.c **** 
 899:/Users/imashio/Electronics/ARM/_Library/u8x8_d_st7565.c **** 
 900:/Users/imashio/Electronics/ARM/_Library/u8x8_d_st7565.c **** static const uint8_t u8x8_d_st7565_dogm132_init_seq[] = {
 901:/Users/imashio/Electronics/ARM/_Library/u8x8_d_st7565.c ****     
 902:/Users/imashio/Electronics/ARM/_Library/u8x8_d_st7565.c ****   U8X8_START_TRANSFER(),             	/* enable chip, delay is part of the transfer start */
 903:/Users/imashio/Electronics/ARM/_Library/u8x8_d_st7565.c ****   
 904:/Users/imashio/Electronics/ARM/_Library/u8x8_d_st7565.c ****   U8X8_C(0x0e2),            			/* soft reset */
 905:/Users/imashio/Electronics/ARM/_Library/u8x8_d_st7565.c ****   U8X8_C(0x0ae),		                /* display off */
 906:/Users/imashio/Electronics/ARM/_Library/u8x8_d_st7565.c ****   U8X8_C(0x040),		                /* set display start line to 0 */
 907:/Users/imashio/Electronics/ARM/_Library/u8x8_d_st7565.c ****   
 908:/Users/imashio/Electronics/ARM/_Library/u8x8_d_st7565.c ****   U8X8_C(0x0a1),		                /* ADC set to reverse */
 909:/Users/imashio/Electronics/ARM/_Library/u8x8_d_st7565.c ****   U8X8_C(0x0c0),		                /* common output mode */
 910:/Users/imashio/Electronics/ARM/_Library/u8x8_d_st7565.c ****   // Flipmode
 911:/Users/imashio/Electronics/ARM/_Library/u8x8_d_st7565.c ****   //U8X8_C(0x0a0),		                /* ADC set to reverse */
 912:/Users/imashio/Electronics/ARM/_Library/u8x8_d_st7565.c ****   //U8X8_C(0x0c8),		                /* common output mode */
 913:/Users/imashio/Electronics/ARM/_Library/u8x8_d_st7565.c ****   
 914:/Users/imashio/Electronics/ARM/_Library/u8x8_d_st7565.c ****   U8X8_C(0x0a6),		                /* display normal, bit val 0: LCD pixel off. */
 915:/Users/imashio/Electronics/ARM/_Library/u8x8_d_st7565.c ****   U8X8_C(0x0a2),		                /* LCD bias 1/9 */
 916:/Users/imashio/Electronics/ARM/_Library/u8x8_d_st7565.c ****   U8X8_C(0x02f),		                /* all power  control circuits on */
 917:/Users/imashio/Electronics/ARM/_Library/u8x8_d_st7565.c ****   U8X8_CA(0x0f8, 0x000),		/* set booster ratio to 4x */
 918:/Users/imashio/Electronics/ARM/_Library/u8x8_d_st7565.c ****   U8X8_C(0x023),		                /* set V0 voltage resistor ratio to large*/
 919:/Users/imashio/Electronics/ARM/_Library/u8x8_d_st7565.c ****   U8X8_CA(0x081, 0x01f),		/* set contrast, contrast value EA DOGM132 */
 920:/Users/imashio/Electronics/ARM/_Library/u8x8_d_st7565.c ****   
 921:/Users/imashio/Electronics/ARM/_Library/u8x8_d_st7565.c ****   U8X8_C(0x0ae),		                /* display off */
 922:/Users/imashio/Electronics/ARM/_Library/u8x8_d_st7565.c ****   U8X8_C(0x0a5),		                /* enter powersafe: all pixel on, issue 142 */
 923:/Users/imashio/Electronics/ARM/_Library/u8x8_d_st7565.c ****   
 924:/Users/imashio/Electronics/ARM/_Library/u8x8_d_st7565.c ****   U8X8_END_TRANSFER(),             	/* disable chip */
 925:/Users/imashio/Electronics/ARM/_Library/u8x8_d_st7565.c ****   U8X8_END()             			/* end of sequence */
 926:/Users/imashio/Electronics/ARM/_Library/u8x8_d_st7565.c **** };
 927:/Users/imashio/Electronics/ARM/_Library/u8x8_d_st7565.c **** 
 928:/Users/imashio/Electronics/ARM/_Library/u8x8_d_st7565.c **** uint8_t u8x8_d_st7565_ea_dogm132(u8x8_t *u8x8, uint8_t msg, uint8_t arg_int, void *arg_ptr)
ARM GAS  /var/folders/v3/wysfpd052nz8jkbx04pk0ym80000gn/T//ccFzeRvn.s 			page 39


 929:/Users/imashio/Electronics/ARM/_Library/u8x8_d_st7565.c **** {
 1126              		.loc 1 929 0
 1127              		.cfi_startproc
 1128              		@ args = 0, pretend = 0, frame = 0
 1129              		@ frame_needed = 0, uses_anonymous_args = 0
 1130              	.LVL136:
 1131 0000 70B5     		push	{r4, r5, r6, lr}
 1132              	.LCFI9:
 1133              		.cfi_def_cfa_offset 16
 1134              		.cfi_offset 4, -16
 1135              		.cfi_offset 5, -12
 1136              		.cfi_offset 6, -8
 1137              		.cfi_offset 14, -4
 1138              		.loc 1 929 0
 1139 0002 0546     		mov	r5, r0
 1140 0004 0C46     		mov	r4, r1
 1141 0006 1646     		mov	r6, r2
 930:/Users/imashio/Electronics/ARM/_Library/u8x8_d_st7565.c ****   /* call common procedure first and handle messages there */
 931:/Users/imashio/Electronics/ARM/_Library/u8x8_d_st7565.c ****   if ( u8x8_d_st7565_common(u8x8, msg, arg_int, arg_ptr) == 0 )
 1142              		.loc 1 931 0
 1143 0008 FFF7FEFF 		bl	u8x8_d_st7565_common
 1144              	.LVL137:
 1145 000c 30B9     		cbnz	r0, .L121
 932:/Users/imashio/Electronics/ARM/_Library/u8x8_d_st7565.c ****   {
 933:/Users/imashio/Electronics/ARM/_Library/u8x8_d_st7565.c ****     /* msg not handled, then try here */
 934:/Users/imashio/Electronics/ARM/_Library/u8x8_d_st7565.c ****     switch(msg)
 1146              		.loc 1 934 0
 1147 000e 0A2C     		cmp	r4, #10
 1148 0010 06D0     		beq	.L117
 1149 0012 0D2C     		cmp	r4, #13
 1150 0014 13D0     		beq	.L118
 1151 0016 092C     		cmp	r4, #9
 1152 0018 0BD0     		beq	.L123
 935:/Users/imashio/Electronics/ARM/_Library/u8x8_d_st7565.c ****     {
 936:/Users/imashio/Electronics/ARM/_Library/u8x8_d_st7565.c ****       case U8X8_MSG_DISPLAY_SETUP_MEMORY:
 937:/Users/imashio/Electronics/ARM/_Library/u8x8_d_st7565.c **** 	u8x8_d_helper_display_setup_memory(u8x8, &u8x8_st7565_dogm132_display_info);
 938:/Users/imashio/Electronics/ARM/_Library/u8x8_d_st7565.c **** 	break;
 939:/Users/imashio/Electronics/ARM/_Library/u8x8_d_st7565.c ****       case U8X8_MSG_DISPLAY_INIT:
 940:/Users/imashio/Electronics/ARM/_Library/u8x8_d_st7565.c **** 	u8x8_d_helper_display_init(u8x8);
 941:/Users/imashio/Electronics/ARM/_Library/u8x8_d_st7565.c **** 	u8x8_cad_SendSequence(u8x8, u8x8_d_st7565_dogm132_init_seq);
 942:/Users/imashio/Electronics/ARM/_Library/u8x8_d_st7565.c **** 	break;
 943:/Users/imashio/Electronics/ARM/_Library/u8x8_d_st7565.c ****       case U8X8_MSG_DISPLAY_SET_FLIP_MODE:
 944:/Users/imashio/Electronics/ARM/_Library/u8x8_d_st7565.c **** 	if ( arg_int == 0 )
 945:/Users/imashio/Electronics/ARM/_Library/u8x8_d_st7565.c **** 	{
 946:/Users/imashio/Electronics/ARM/_Library/u8x8_d_st7565.c **** 	  u8x8_cad_SendSequence(u8x8, u8x8_d_st7565_flip0_seq);
 947:/Users/imashio/Electronics/ARM/_Library/u8x8_d_st7565.c **** 	  u8x8->x_offset = u8x8->display_info->default_x_offset;
 948:/Users/imashio/Electronics/ARM/_Library/u8x8_d_st7565.c **** 	}
 949:/Users/imashio/Electronics/ARM/_Library/u8x8_d_st7565.c **** 	else
 950:/Users/imashio/Electronics/ARM/_Library/u8x8_d_st7565.c **** 	{
 951:/Users/imashio/Electronics/ARM/_Library/u8x8_d_st7565.c **** 	  u8x8_cad_SendSequence(u8x8, u8x8_d_st7565_flip1_seq);
 952:/Users/imashio/Electronics/ARM/_Library/u8x8_d_st7565.c **** 	  u8x8->x_offset = u8x8->display_info->flipmode_x_offset;
 953:/Users/imashio/Electronics/ARM/_Library/u8x8_d_st7565.c **** 	}	
 954:/Users/imashio/Electronics/ARM/_Library/u8x8_d_st7565.c **** 	break;
 955:/Users/imashio/Electronics/ARM/_Library/u8x8_d_st7565.c ****       default:
 956:/Users/imashio/Electronics/ARM/_Library/u8x8_d_st7565.c **** 	return 0;		/* msg unknown */
 957:/Users/imashio/Electronics/ARM/_Library/u8x8_d_st7565.c ****     }
 958:/Users/imashio/Electronics/ARM/_Library/u8x8_d_st7565.c ****   }
ARM GAS  /var/folders/v3/wysfpd052nz8jkbx04pk0ym80000gn/T//ccFzeRvn.s 			page 40


 959:/Users/imashio/Electronics/ARM/_Library/u8x8_d_st7565.c ****   return 1;
 960:/Users/imashio/Electronics/ARM/_Library/u8x8_d_st7565.c **** }
 1153              		.loc 1 960 0
 1154 001a 70BD     		pop	{r4, r5, r6, pc}
 1155              	.LVL138:
 1156              	.L121:
 959:/Users/imashio/Electronics/ARM/_Library/u8x8_d_st7565.c **** }
 1157              		.loc 1 959 0
 1158 001c 0120     		movs	r0, #1
 1159              		.loc 1 960 0
 1160 001e 70BD     		pop	{r4, r5, r6, pc}
 1161              	.LVL139:
 1162              	.L117:
 940:/Users/imashio/Electronics/ARM/_Library/u8x8_d_st7565.c **** 	u8x8_cad_SendSequence(u8x8, u8x8_d_st7565_dogm132_init_seq);
 1163              		.loc 1 940 0
 1164 0020 2846     		mov	r0, r5
 1165 0022 FFF7FEFF 		bl	u8x8_d_helper_display_init
 1166              	.LVL140:
 941:/Users/imashio/Electronics/ARM/_Library/u8x8_d_st7565.c **** 	break;
 1167              		.loc 1 941 0
 1168 0026 2846     		mov	r0, r5
 1169 0028 0E49     		ldr	r1, .L125
 1170 002a FFF7FEFF 		bl	u8x8_cad_SendSequence
 1171              	.LVL141:
 959:/Users/imashio/Electronics/ARM/_Library/u8x8_d_st7565.c **** }
 1172              		.loc 1 959 0
 1173 002e 0120     		movs	r0, #1
 1174              		.loc 1 960 0
 1175 0030 70BD     		pop	{r4, r5, r6, pc}
 1176              	.LVL142:
 1177              	.L123:
 937:/Users/imashio/Electronics/ARM/_Library/u8x8_d_st7565.c **** 	break;
 1178              		.loc 1 937 0
 1179 0032 2846     		mov	r0, r5
 1180 0034 0C49     		ldr	r1, .L125+4
 1181 0036 FFF7FEFF 		bl	u8x8_d_helper_display_setup_memory
 1182              	.LVL143:
 959:/Users/imashio/Electronics/ARM/_Library/u8x8_d_st7565.c **** }
 1183              		.loc 1 959 0
 1184 003a 0120     		movs	r0, #1
 1185              		.loc 1 960 0
 1186 003c 70BD     		pop	{r4, r5, r6, pc}
 1187              	.LVL144:
 1188              	.L118:
 944:/Users/imashio/Electronics/ARM/_Library/u8x8_d_st7565.c **** 	{
 1189              		.loc 1 944 0
 1190 003e 46B1     		cbz	r6, .L124
 951:/Users/imashio/Electronics/ARM/_Library/u8x8_d_st7565.c **** 	  u8x8->x_offset = u8x8->display_info->flipmode_x_offset;
 1191              		.loc 1 951 0
 1192 0040 2846     		mov	r0, r5
 1193 0042 0A49     		ldr	r1, .L125+8
 1194 0044 FFF7FEFF 		bl	u8x8_cad_SendSequence
 1195              	.LVL145:
 952:/Users/imashio/Electronics/ARM/_Library/u8x8_d_st7565.c **** 	}	
 1196              		.loc 1 952 0
 1197 0048 2B68     		ldr	r3, [r5]
 1198 004a DB7C     		ldrb	r3, [r3, #19]	@ zero_extendqisi2
ARM GAS  /var/folders/v3/wysfpd052nz8jkbx04pk0ym80000gn/T//ccFzeRvn.s 			page 41


 1199 004c AB77     		strb	r3, [r5, #30]
 959:/Users/imashio/Electronics/ARM/_Library/u8x8_d_st7565.c **** }
 1200              		.loc 1 959 0
 1201 004e 0120     		movs	r0, #1
 1202              		.loc 1 960 0
 1203 0050 70BD     		pop	{r4, r5, r6, pc}
 1204              	.LVL146:
 1205              	.L124:
 946:/Users/imashio/Electronics/ARM/_Library/u8x8_d_st7565.c **** 	  u8x8->x_offset = u8x8->display_info->default_x_offset;
 1206              		.loc 1 946 0
 1207 0052 2846     		mov	r0, r5
 1208 0054 0649     		ldr	r1, .L125+12
 1209 0056 FFF7FEFF 		bl	u8x8_cad_SendSequence
 1210              	.LVL147:
 947:/Users/imashio/Electronics/ARM/_Library/u8x8_d_st7565.c **** 	}
 1211              		.loc 1 947 0
 1212 005a 2B68     		ldr	r3, [r5]
 1213 005c 9B7C     		ldrb	r3, [r3, #18]	@ zero_extendqisi2
 1214 005e AB77     		strb	r3, [r5, #30]
 959:/Users/imashio/Electronics/ARM/_Library/u8x8_d_st7565.c **** }
 1215              		.loc 1 959 0
 1216 0060 0120     		movs	r0, #1
 1217              		.loc 1 960 0
 1218 0062 70BD     		pop	{r4, r5, r6, pc}
 1219              	.LVL148:
 1220              	.L126:
 1221              		.align	2
 1222              	.L125:
 1223 0064 00000000 		.word	.LANCHOR21
 1224 0068 00000000 		.word	.LANCHOR20
 1225 006c 00000000 		.word	.LANCHOR5
 1226 0070 00000000 		.word	.LANCHOR4
 1227              		.cfi_endproc
 1228              	.LFE9:
 1230              		.section	.rodata.u8x8_d_nt7534_tg12864r_init_seq,"a",%progbits
 1231              		.align	2
 1232              		.set	.LANCHOR19,. + 0
 1235              	u8x8_d_nt7534_tg12864r_init_seq:
 1236 0000 18       		.byte	24
 1237 0001 15       		.byte	21
 1238 0002 E2       		.byte	-30
 1239 0003 15       		.byte	21
 1240 0004 AE       		.byte	-82
 1241 0005 15       		.byte	21
 1242 0006 60       		.byte	96
 1243 0007 15       		.byte	21
 1244 0008 A0       		.byte	-96
 1245 0009 15       		.byte	21
 1246 000a C8       		.byte	-56
 1247 000b 15       		.byte	21
 1248 000c A6       		.byte	-90
 1249 000d 15       		.byte	21
 1250 000e A3       		.byte	-93
 1251 000f 15       		.byte	21
 1252 0010 2F       		.byte	47
 1253 0011 15       		.byte	21
 1254 0012 27       		.byte	39
ARM GAS  /var/folders/v3/wysfpd052nz8jkbx04pk0ym80000gn/T//ccFzeRvn.s 			page 42


 1255 0013 15       		.byte	21
 1256 0014 81       		.byte	-127
 1257 0015 16       		.byte	22
 1258 0016 09       		.byte	9
 1259 0017 15       		.byte	21
 1260 0018 AE       		.byte	-82
 1261 0019 15       		.byte	21
 1262 001a A5       		.byte	-91
 1263 001b 19       		.byte	25
 1264 001c FF       		.byte	-1
 1265              		.section	.rodata.u8x8_d_st7565_64128n_init_seq,"a",%progbits
 1266              		.align	2
 1267              		.set	.LANCHOR7,. + 0
 1270              	u8x8_d_st7565_64128n_init_seq:
 1271 0000 18       		.byte	24
 1272 0001 15       		.byte	21
 1273 0002 E2       		.byte	-30
 1274 0003 15       		.byte	21
 1275 0004 A2       		.byte	-94
 1276 0005 15       		.byte	21
 1277 0006 A1       		.byte	-95
 1278 0007 15       		.byte	21
 1279 0008 C0       		.byte	-64
 1280 0009 15       		.byte	21
 1281 000a 40       		.byte	64
 1282 000b 15       		.byte	21
 1283 000c 2C       		.byte	44
 1284 000d 15       		.byte	21
 1285 000e 2E       		.byte	46
 1286 000f 15       		.byte	21
 1287 0010 2F       		.byte	47
 1288 0011 15       		.byte	21
 1289 0012 10       		.byte	16
 1290 0013 15       		.byte	21
 1291 0014 A6       		.byte	-90
 1292 0015 15       		.byte	21
 1293 0016 81       		.byte	-127
 1294 0017 15       		.byte	21
 1295 0018 1E       		.byte	30
 1296 0019 15       		.byte	21
 1297 001a AE       		.byte	-82
 1298 001b 19       		.byte	25
 1299 001c FF       		.byte	-1
 1300              		.section	.rodata.u8x8_d_st7565_dogm128_init_seq,"a",%progbits
 1301              		.align	2
 1302              		.set	.LANCHOR3,. + 0
 1305              	u8x8_d_st7565_dogm128_init_seq:
 1306 0000 18       		.byte	24
 1307 0001 15       		.byte	21
 1308 0002 E2       		.byte	-30
 1309 0003 15       		.byte	21
 1310 0004 AE       		.byte	-82
 1311 0005 15       		.byte	21
 1312 0006 40       		.byte	64
 1313 0007 15       		.byte	21
 1314 0008 A1       		.byte	-95
 1315 0009 15       		.byte	21
ARM GAS  /var/folders/v3/wysfpd052nz8jkbx04pk0ym80000gn/T//ccFzeRvn.s 			page 43


 1316 000a C0       		.byte	-64
 1317 000b 15       		.byte	21
 1318 000c A6       		.byte	-90
 1319 000d 15       		.byte	21
 1320 000e A2       		.byte	-94
 1321 000f 15       		.byte	21
 1322 0010 2F       		.byte	47
 1323 0011 15       		.byte	21
 1324 0012 F8       		.byte	-8
 1325 0013 16       		.byte	22
 1326 0014 00       		.byte	0
 1327 0015 15       		.byte	21
 1328 0016 27       		.byte	39
 1329 0017 15       		.byte	21
 1330 0018 81       		.byte	-127
 1331 0019 16       		.byte	22
 1332 001a 18       		.byte	24
 1333 001b 15       		.byte	21
 1334 001c AE       		.byte	-82
 1335 001d 15       		.byte	21
 1336 001e A5       		.byte	-91
 1337 001f 19       		.byte	25
 1338 0020 FF       		.byte	-1
 1339              		.section	.rodata.u8x8_d_st7565_dogm132_init_seq,"a",%progbits
 1340              		.align	2
 1341              		.set	.LANCHOR21,. + 0
 1344              	u8x8_d_st7565_dogm132_init_seq:
 1345 0000 18       		.byte	24
 1346 0001 15       		.byte	21
 1347 0002 E2       		.byte	-30
 1348 0003 15       		.byte	21
 1349 0004 AE       		.byte	-82
 1350 0005 15       		.byte	21
 1351 0006 40       		.byte	64
 1352 0007 15       		.byte	21
 1353 0008 A1       		.byte	-95
 1354 0009 15       		.byte	21
 1355 000a C0       		.byte	-64
 1356 000b 15       		.byte	21
 1357 000c A6       		.byte	-90
 1358 000d 15       		.byte	21
 1359 000e A2       		.byte	-94
 1360 000f 15       		.byte	21
 1361 0010 2F       		.byte	47
 1362 0011 15       		.byte	21
 1363 0012 F8       		.byte	-8
 1364 0013 16       		.byte	22
 1365 0014 00       		.byte	0
 1366 0015 15       		.byte	21
 1367 0016 23       		.byte	35
 1368 0017 15       		.byte	21
 1369 0018 81       		.byte	-127
 1370 0019 16       		.byte	22
 1371 001a 1F       		.byte	31
 1372 001b 15       		.byte	21
 1373 001c AE       		.byte	-82
 1374 001d 15       		.byte	21
ARM GAS  /var/folders/v3/wysfpd052nz8jkbx04pk0ym80000gn/T//ccFzeRvn.s 			page 44


 1375 001e A5       		.byte	-91
 1376 001f 19       		.byte	25
 1377 0020 FF       		.byte	-1
 1378              		.section	.rodata.u8x8_d_st7565_erc12864_init_seq,"a",%progbits
 1379              		.align	2
 1380              		.set	.LANCHOR18,. + 0
 1383              	u8x8_d_st7565_erc12864_init_seq:
 1384 0000 18       		.byte	24
 1385 0001 15       		.byte	21
 1386 0002 E2       		.byte	-30
 1387 0003 15       		.byte	21
 1388 0004 AE       		.byte	-82
 1389 0005 15       		.byte	21
 1390 0006 40       		.byte	64
 1391 0007 15       		.byte	21
 1392 0008 A0       		.byte	-96
 1393 0009 15       		.byte	21
 1394 000a C8       		.byte	-56
 1395 000b 15       		.byte	21
 1396 000c A6       		.byte	-90
 1397 000d 15       		.byte	21
 1398 000e A3       		.byte	-93
 1399 000f 15       		.byte	21
 1400 0010 2F       		.byte	47
 1401 0011 15       		.byte	21
 1402 0012 F8       		.byte	-8
 1403 0013 16       		.byte	22
 1404 0014 00       		.byte	0
 1405 0015 15       		.byte	21
 1406 0016 27       		.byte	39
 1407 0017 15       		.byte	21
 1408 0018 81       		.byte	-127
 1409 0019 16       		.byte	22
 1410 001a 18       		.byte	24
 1411 001b 15       		.byte	21
 1412 001c AE       		.byte	-82
 1413 001d 15       		.byte	21
 1414 001e A5       		.byte	-91
 1415 001f 19       		.byte	25
 1416 0020 FF       		.byte	-1
 1417              		.section	.rodata.u8x8_d_st7565_flip0_seq,"a",%progbits
 1418              		.align	2
 1419              		.set	.LANCHOR4,. + 0
 1422              	u8x8_d_st7565_flip0_seq:
 1423 0000 18       		.byte	24
 1424 0001 15       		.byte	21
 1425 0002 A1       		.byte	-95
 1426 0003 15       		.byte	21
 1427 0004 C0       		.byte	-64
 1428 0005 19       		.byte	25
 1429 0006 FF       		.byte	-1
 1430              		.section	.rodata.u8x8_d_st7565_flip1_seq,"a",%progbits
 1431              		.align	2
 1432              		.set	.LANCHOR5,. + 0
 1435              	u8x8_d_st7565_flip1_seq:
 1436 0000 18       		.byte	24
 1437 0001 15       		.byte	21
ARM GAS  /var/folders/v3/wysfpd052nz8jkbx04pk0ym80000gn/T//ccFzeRvn.s 			page 45


 1438 0002 A0       		.byte	-96
 1439 0003 15       		.byte	21
 1440 0004 C8       		.byte	-56
 1441 0005 19       		.byte	25
 1442 0006 FF       		.byte	-1
 1443              		.section	.rodata.u8x8_d_st7565_lm6059_init_seq,"a",%progbits
 1444              		.align	2
 1445              		.set	.LANCHOR16,. + 0
 1448              	u8x8_d_st7565_lm6059_init_seq:
 1449 0000 18       		.byte	24
 1450 0001 15       		.byte	21
 1451 0002 E2       		.byte	-30
 1452 0003 15       		.byte	21
 1453 0004 AE       		.byte	-82
 1454 0005 15       		.byte	21
 1455 0006 60       		.byte	96
 1456 0007 15       		.byte	21
 1457 0008 A0       		.byte	-96
 1458 0009 15       		.byte	21
 1459 000a C8       		.byte	-56
 1460 000b 15       		.byte	21
 1461 000c A6       		.byte	-90
 1462 000d 15       		.byte	21
 1463 000e A3       		.byte	-93
 1464 000f 15       		.byte	21
 1465 0010 2F       		.byte	47
 1466 0011 15       		.byte	21
 1467 0012 F8       		.byte	-8
 1468 0013 16       		.byte	22
 1469 0014 00       		.byte	0
 1470 0015 15       		.byte	21
 1471 0016 27       		.byte	39
 1472 0017 15       		.byte	21
 1473 0018 81       		.byte	-127
 1474 0019 16       		.byte	22
 1475 001a 18       		.byte	24
 1476 001b 15       		.byte	21
 1477 001c AE       		.byte	-82
 1478 001d 15       		.byte	21
 1479 001e A5       		.byte	-91
 1480 001f 19       		.byte	25
 1481 0020 FF       		.byte	-1
 1482              		.section	.rodata.u8x8_d_st7565_nhd_c12832_init_seq,"a",%progbits
 1483              		.align	2
 1484              		.set	.LANCHOR12,. + 0
 1487              	u8x8_d_st7565_nhd_c12832_init_seq:
 1488 0000 18       		.byte	24
 1489 0001 15       		.byte	21
 1490 0002 E2       		.byte	-30
 1491 0003 15       		.byte	21
 1492 0004 AE       		.byte	-82
 1493 0005 15       		.byte	21
 1494 0006 40       		.byte	64
 1495 0007 15       		.byte	21
 1496 0008 A1       		.byte	-95
 1497 0009 15       		.byte	21
 1498 000a C0       		.byte	-64
ARM GAS  /var/folders/v3/wysfpd052nz8jkbx04pk0ym80000gn/T//ccFzeRvn.s 			page 46


 1499 000b 15       		.byte	21
 1500 000c A6       		.byte	-90
 1501 000d 15       		.byte	21
 1502 000e A2       		.byte	-94
 1503 000f 15       		.byte	21
 1504 0010 2F       		.byte	47
 1505 0011 15       		.byte	21
 1506 0012 F8       		.byte	-8
 1507 0013 16       		.byte	22
 1508 0014 00       		.byte	0
 1509 0015 15       		.byte	21
 1510 0016 23       		.byte	35
 1511 0017 15       		.byte	21
 1512 0018 81       		.byte	-127
 1513 0019 16       		.byte	22
 1514 001a 0A       		.byte	10
 1515 001b 15       		.byte	21
 1516 001c AE       		.byte	-82
 1517 001d 15       		.byte	21
 1518 001e A5       		.byte	-91
 1519 001f 19       		.byte	25
 1520 0020 FF       		.byte	-1
 1521              		.section	.rodata.u8x8_d_st7565_nhd_c12864_init_seq,"a",%progbits
 1522              		.align	2
 1523              		.set	.LANCHOR14,. + 0
 1526              	u8x8_d_st7565_nhd_c12864_init_seq:
 1527 0000 18       		.byte	24
 1528 0001 15       		.byte	21
 1529 0002 E2       		.byte	-30
 1530 0003 15       		.byte	21
 1531 0004 AE       		.byte	-82
 1532 0005 15       		.byte	21
 1533 0006 40       		.byte	64
 1534 0007 15       		.byte	21
 1535 0008 A1       		.byte	-95
 1536 0009 15       		.byte	21
 1537 000a C0       		.byte	-64
 1538 000b 15       		.byte	21
 1539 000c A6       		.byte	-90
 1540 000d 15       		.byte	21
 1541 000e A2       		.byte	-94
 1542 000f 15       		.byte	21
 1543 0010 2F       		.byte	47
 1544 0011 15       		.byte	21
 1545 0012 F8       		.byte	-8
 1546 0013 16       		.byte	22
 1547 0014 00       		.byte	0
 1548 0015 15       		.byte	21
 1549 0016 23       		.byte	35
 1550 0017 15       		.byte	21
 1551 0018 81       		.byte	-127
 1552 0019 16       		.byte	22
 1553 001a B4       		.byte	-76
 1554 001b 15       		.byte	21
 1555 001c AE       		.byte	-82
 1556 001d 15       		.byte	21
 1557 001e A5       		.byte	-91
ARM GAS  /var/folders/v3/wysfpd052nz8jkbx04pk0ym80000gn/T//ccFzeRvn.s 			page 47


 1558 001f 19       		.byte	25
 1559 0020 FF       		.byte	-1
 1560              		.section	.rodata.u8x8_d_st7565_powersave0_seq,"a",%progbits
 1561              		.align	2
 1562              		.set	.LANCHOR0,. + 0
 1565              	u8x8_d_st7565_powersave0_seq:
 1566 0000 18       		.byte	24
 1567 0001 15       		.byte	21
 1568 0002 A4       		.byte	-92
 1569 0003 15       		.byte	21
 1570 0004 AF       		.byte	-81
 1571 0005 19       		.byte	25
 1572 0006 FF       		.byte	-1
 1573              		.section	.rodata.u8x8_d_st7565_powersave1_seq,"a",%progbits
 1574              		.align	2
 1575              		.set	.LANCHOR1,. + 0
 1578              	u8x8_d_st7565_powersave1_seq:
 1579 0000 18       		.byte	24
 1580 0001 15       		.byte	21
 1581 0002 AE       		.byte	-82
 1582 0003 15       		.byte	21
 1583 0004 A5       		.byte	-91
 1584 0005 19       		.byte	25
 1585 0006 FF       		.byte	-1
 1586              		.section	.rodata.u8x8_d_st7565_zflip0_seq,"a",%progbits
 1587              		.align	2
 1588              		.set	.LANCHOR9,. + 0
 1591              	u8x8_d_st7565_zflip0_seq:
 1592 0000 18       		.byte	24
 1593 0001 15       		.byte	21
 1594 0002 A1       		.byte	-95
 1595 0003 15       		.byte	21
 1596 0004 C8       		.byte	-56
 1597 0005 19       		.byte	25
 1598 0006 FF       		.byte	-1
 1599              		.section	.rodata.u8x8_d_st7565_zflip1_seq,"a",%progbits
 1600              		.align	2
 1601              		.set	.LANCHOR10,. + 0
 1604              	u8x8_d_st7565_zflip1_seq:
 1605 0000 18       		.byte	24
 1606 0001 15       		.byte	21
 1607 0002 A0       		.byte	-96
 1608 0003 15       		.byte	21
 1609 0004 C0       		.byte	-64
 1610 0005 19       		.byte	25
 1611 0006 FF       		.byte	-1
 1612              		.section	.rodata.u8x8_d_st7565_zolen_128x64_init_seq,"a",%progbits
 1613              		.align	2
 1614              		.set	.LANCHOR8,. + 0
 1617              	u8x8_d_st7565_zolen_128x64_init_seq:
 1618 0000 18       		.byte	24
 1619 0001 15       		.byte	21
 1620 0002 E2       		.byte	-30
 1621 0003 15       		.byte	21
 1622 0004 AE       		.byte	-82
 1623 0005 15       		.byte	21
 1624 0006 40       		.byte	64
ARM GAS  /var/folders/v3/wysfpd052nz8jkbx04pk0ym80000gn/T//ccFzeRvn.s 			page 48


 1625 0007 15       		.byte	21
 1626 0008 A1       		.byte	-95
 1627 0009 15       		.byte	21
 1628 000a C8       		.byte	-56
 1629 000b 15       		.byte	21
 1630 000c A6       		.byte	-90
 1631 000d 15       		.byte	21
 1632 000e A2       		.byte	-94
 1633 000f 15       		.byte	21
 1634 0010 2F       		.byte	47
 1635 0011 15       		.byte	21
 1636 0012 F8       		.byte	-8
 1637 0013 16       		.byte	22
 1638 0014 00       		.byte	0
 1639 0015 15       		.byte	21
 1640 0016 27       		.byte	39
 1641 0017 15       		.byte	21
 1642 0018 81       		.byte	-127
 1643 0019 16       		.byte	22
 1644 001a 07       		.byte	7
 1645 001b 15       		.byte	21
 1646 001c AE       		.byte	-82
 1647 001d 15       		.byte	21
 1648 001e A5       		.byte	-91
 1649 001f 19       		.byte	25
 1650 0020 FF       		.byte	-1
 1651              		.section	.rodata.u8x8_st7565_128x32_display_info,"a",%progbits
 1652              		.align	2
 1653              		.set	.LANCHOR11,. + 0
 1656              	u8x8_st7565_128x32_display_info:
 1657 0000 00       		.byte	0
 1658 0001 01       		.byte	1
 1659 0002 96       		.byte	-106
 1660 0003 32       		.byte	50
 1661 0004 01       		.byte	1
 1662 0005 01       		.byte	1
 1663 0006 32       		.byte	50
 1664 0007 78       		.byte	120
 1665 0008 00093D00 		.word	4000000
 1666 000c 00       		.byte	0
 1667 000d 04       		.byte	4
 1668 000e 28       		.byte	40
 1669 000f 50       		.byte	80
 1670 0010 10       		.byte	16
 1671 0011 04       		.byte	4
 1672 0012 04       		.byte	4
 1673 0013 00       		.byte	0
 1674 0014 8000     		.short	128
 1675 0016 2000     		.short	32
 1676              		.section	.rodata.u8x8_st7565_128x64_display_info,"a",%progbits
 1677              		.align	2
 1678              		.set	.LANCHOR2,. + 0
 1681              	u8x8_st7565_128x64_display_info:
 1682 0000 00       		.byte	0
 1683 0001 01       		.byte	1
 1684 0002 96       		.byte	-106
 1685 0003 32       		.byte	50
ARM GAS  /var/folders/v3/wysfpd052nz8jkbx04pk0ym80000gn/T//ccFzeRvn.s 			page 49


 1686 0004 01       		.byte	1
 1687 0005 01       		.byte	1
 1688 0006 32       		.byte	50
 1689 0007 78       		.byte	120
 1690 0008 00093D00 		.word	4000000
 1691 000c 00       		.byte	0
 1692 000d 04       		.byte	4
 1693 000e 28       		.byte	40
 1694 000f 50       		.byte	80
 1695 0010 10       		.byte	16
 1696 0011 08       		.byte	8
 1697 0012 00       		.byte	0
 1698 0013 04       		.byte	4
 1699 0014 8000     		.short	128
 1700 0016 4000     		.short	64
 1701              		.section	.rodata.u8x8_st7565_64128n_display_info,"a",%progbits
 1702              		.align	2
 1703              		.set	.LANCHOR6,. + 0
 1706              	u8x8_st7565_64128n_display_info:
 1707 0000 00       		.byte	0
 1708 0001 01       		.byte	1
 1709 0002 96       		.byte	-106
 1710 0003 32       		.byte	50
 1711 0004 01       		.byte	1
 1712 0005 01       		.byte	1
 1713 0006 32       		.byte	50
 1714 0007 78       		.byte	120
 1715 0008 00093D00 		.word	4000000
 1716 000c 00       		.byte	0
 1717 000d 04       		.byte	4
 1718 000e 28       		.byte	40
 1719 000f 50       		.byte	80
 1720 0010 10       		.byte	16
 1721 0011 08       		.byte	8
 1722 0012 04       		.byte	4
 1723 0013 00       		.byte	0
 1724 0014 8000     		.short	128
 1725 0016 4000     		.short	64
 1726              		.section	.rodata.u8x8_st7565_dogm132_display_info,"a",%progbits
 1727              		.align	2
 1728              		.set	.LANCHOR20,. + 0
 1731              	u8x8_st7565_dogm132_display_info:
 1732 0000 00       		.byte	0
 1733 0001 01       		.byte	1
 1734 0002 96       		.byte	-106
 1735 0003 32       		.byte	50
 1736 0004 01       		.byte	1
 1737 0005 01       		.byte	1
 1738 0006 32       		.byte	50
 1739 0007 78       		.byte	120
 1740 0008 00093D00 		.word	4000000
 1741 000c 00       		.byte	0
 1742 000d 04       		.byte	4
 1743 000e 28       		.byte	40
 1744 000f 50       		.byte	80
 1745 0010 11       		.byte	17
 1746 0011 04       		.byte	4
ARM GAS  /var/folders/v3/wysfpd052nz8jkbx04pk0ym80000gn/T//ccFzeRvn.s 			page 50


 1747 0012 00       		.byte	0
 1748 0013 00       		.byte	0
 1749 0014 8400     		.short	132
 1750 0016 2000     		.short	32
 1751              		.section	.rodata.u8x8_st7565_erc12864_display_info,"a",%progbits
 1752              		.align	2
 1753              		.set	.LANCHOR17,. + 0
 1756              	u8x8_st7565_erc12864_display_info:
 1757 0000 00       		.byte	0
 1758 0001 01       		.byte	1
 1759 0002 96       		.byte	-106
 1760 0003 32       		.byte	50
 1761 0004 01       		.byte	1
 1762 0005 01       		.byte	1
 1763 0006 32       		.byte	50
 1764 0007 78       		.byte	120
 1765 0008 00093D00 		.word	4000000
 1766 000c 00       		.byte	0
 1767 000d 04       		.byte	4
 1768 000e 28       		.byte	40
 1769 000f 50       		.byte	80
 1770 0010 10       		.byte	16
 1771 0011 08       		.byte	8
 1772 0012 00       		.byte	0
 1773 0013 04       		.byte	4
 1774 0014 8000     		.short	128
 1775 0016 4000     		.short	64
 1776              		.section	.rodata.u8x8_st7565_lm6059_display_info,"a",%progbits
 1777              		.align	2
 1778              		.set	.LANCHOR15,. + 0
 1781              	u8x8_st7565_lm6059_display_info:
 1782 0000 00       		.byte	0
 1783 0001 01       		.byte	1
 1784 0002 96       		.byte	-106
 1785 0003 32       		.byte	50
 1786 0004 01       		.byte	1
 1787 0005 01       		.byte	1
 1788 0006 32       		.byte	50
 1789 0007 78       		.byte	120
 1790 0008 00093D00 		.word	4000000
 1791 000c 00       		.byte	0
 1792 000d 04       		.byte	4
 1793 000e 28       		.byte	40
 1794 000f 50       		.byte	80
 1795 0010 10       		.byte	16
 1796 0011 08       		.byte	8
 1797 0012 01       		.byte	1
 1798 0013 03       		.byte	3
 1799 0014 8000     		.short	128
 1800 0016 4000     		.short	64
 1801              		.section	.rodata.u8x8_st7565_nhd_c12864_display_info,"a",%progbits
 1802              		.align	2
 1803              		.set	.LANCHOR13,. + 0
 1806              	u8x8_st7565_nhd_c12864_display_info:
 1807 0000 00       		.byte	0
 1808 0001 01       		.byte	1
 1809 0002 96       		.byte	-106
ARM GAS  /var/folders/v3/wysfpd052nz8jkbx04pk0ym80000gn/T//ccFzeRvn.s 			page 51


 1810 0003 32       		.byte	50
 1811 0004 01       		.byte	1
 1812 0005 01       		.byte	1
 1813 0006 32       		.byte	50
 1814 0007 78       		.byte	120
 1815 0008 00093D00 		.word	4000000
 1816 000c 00       		.byte	0
 1817 000d 04       		.byte	4
 1818 000e 28       		.byte	40
 1819 000f 50       		.byte	80
 1820 0010 10       		.byte	16
 1821 0011 08       		.byte	8
 1822 0012 04       		.byte	4
 1823 0013 00       		.byte	0
 1824 0014 8000     		.short	128
 1825 0016 4000     		.short	64
 1826              		.text
 1827              	.Letext0:
 1828              		.file 2 "/usr/local/gcc-arm-none-eabi-7-2018-q2-update/arm-none-eabi/include/machine/_default_type
 1829              		.file 3 "/usr/local/gcc-arm-none-eabi-7-2018-q2-update/arm-none-eabi/include/sys/_stdint.h"
 1830              		.file 4 "/Users/imashio/Electronics/ARM/_Library/u8x8.h"
ARM GAS  /var/folders/v3/wysfpd052nz8jkbx04pk0ym80000gn/T//ccFzeRvn.s 			page 52

