ARM GAS  /var/folders/v3/wysfpd052nz8jkbx04pk0ym80000gn/T//cceVxJuU.s 			page 1


   1              		.cpu cortex-m4
   2              		.eabi_attribute 27, 1
   3              		.eabi_attribute 28, 1
   4              		.eabi_attribute 20, 1
   5              		.eabi_attribute 21, 1
   6              		.eabi_attribute 23, 3
   7              		.eabi_attribute 24, 1
   8              		.eabi_attribute 25, 1
   9              		.eabi_attribute 26, 1
  10              		.eabi_attribute 30, 2
  11              		.eabi_attribute 34, 1
  12              		.eabi_attribute 18, 4
  13              		.file	"u8x8_d_pcf8812.c"
  14              		.text
  15              	.Ltext0:
  16              		.cfi_sections	.debug_frame
  17              		.section	.text.u8x8_d_pcf8812_96x65,"ax",%progbits
  18              		.align	1
  19              		.p2align 2,,3
  20              		.global	u8x8_d_pcf8812_96x65
  21              		.syntax unified
  22              		.thumb
  23              		.thumb_func
  24              		.fpu fpv4-sp-d16
  26              	u8x8_d_pcf8812_96x65:
  27              	.LFB1:
  28              		.file 1 "/Users/imashio/Electronics/ARM/_Library/u8x8_d_pcf8812.c"
   1:/Users/imashio/Electronics/ARM/_Library/u8x8_d_pcf8812.c **** /*
   2:/Users/imashio/Electronics/ARM/_Library/u8x8_d_pcf8812.c **** 
   3:/Users/imashio/Electronics/ARM/_Library/u8x8_d_pcf8812.c ****   u8x8_d_pcf8812.c
   4:/Users/imashio/Electronics/ARM/_Library/u8x8_d_pcf8812.c ****   
   5:/Users/imashio/Electronics/ARM/_Library/u8x8_d_pcf8812.c ****   pcf8812: 65x102
   6:/Users/imashio/Electronics/ARM/_Library/u8x8_d_pcf8812.c ****   pcf8814: 65x96
   7:/Users/imashio/Electronics/ARM/_Library/u8x8_d_pcf8812.c **** 
   8:/Users/imashio/Electronics/ARM/_Library/u8x8_d_pcf8812.c ****   Universal 8bit Graphics Library (https://github.com/olikraus/u8g2/)
   9:/Users/imashio/Electronics/ARM/_Library/u8x8_d_pcf8812.c **** 
  10:/Users/imashio/Electronics/ARM/_Library/u8x8_d_pcf8812.c ****   Copyright (c) 2017, olikraus@gmail.com
  11:/Users/imashio/Electronics/ARM/_Library/u8x8_d_pcf8812.c ****   All rights reserved.
  12:/Users/imashio/Electronics/ARM/_Library/u8x8_d_pcf8812.c **** 
  13:/Users/imashio/Electronics/ARM/_Library/u8x8_d_pcf8812.c ****   Redistribution and use in source and binary forms, with or without modification, 
  14:/Users/imashio/Electronics/ARM/_Library/u8x8_d_pcf8812.c ****   are permitted provided that the following conditions are met:
  15:/Users/imashio/Electronics/ARM/_Library/u8x8_d_pcf8812.c **** 
  16:/Users/imashio/Electronics/ARM/_Library/u8x8_d_pcf8812.c ****   * Redistributions of source code must retain the above copyright notice, this list 
  17:/Users/imashio/Electronics/ARM/_Library/u8x8_d_pcf8812.c ****     of conditions and the following disclaimer.
  18:/Users/imashio/Electronics/ARM/_Library/u8x8_d_pcf8812.c ****     
  19:/Users/imashio/Electronics/ARM/_Library/u8x8_d_pcf8812.c ****   * Redistributions in binary form must reproduce the above copyright notice, this 
  20:/Users/imashio/Electronics/ARM/_Library/u8x8_d_pcf8812.c ****     list of conditions and the following disclaimer in the documentation and/or other 
  21:/Users/imashio/Electronics/ARM/_Library/u8x8_d_pcf8812.c ****     materials provided with the distribution.
  22:/Users/imashio/Electronics/ARM/_Library/u8x8_d_pcf8812.c **** 
  23:/Users/imashio/Electronics/ARM/_Library/u8x8_d_pcf8812.c ****   THIS SOFTWARE IS PROVIDED BY THE COPYRIGHT HOLDERS AND 
  24:/Users/imashio/Electronics/ARM/_Library/u8x8_d_pcf8812.c ****   CONTRIBUTORS "AS IS" AND ANY EXPRESS OR IMPLIED WARRANTIES, 
  25:/Users/imashio/Electronics/ARM/_Library/u8x8_d_pcf8812.c ****   INCLUDING, BUT NOT LIMITED TO, THE IMPLIED WARRANTIES OF 
  26:/Users/imashio/Electronics/ARM/_Library/u8x8_d_pcf8812.c ****   MERCHANTABILITY AND FITNESS FOR A PARTICULAR PURPOSE ARE 
  27:/Users/imashio/Electronics/ARM/_Library/u8x8_d_pcf8812.c ****   DISCLAIMED. IN NO EVENT SHALL THE COPYRIGHT HOLDER OR 
  28:/Users/imashio/Electronics/ARM/_Library/u8x8_d_pcf8812.c ****   CONTRIBUTORS BE LIABLE FOR ANY DIRECT, INDIRECT, INCIDENTAL, 
  29:/Users/imashio/Electronics/ARM/_Library/u8x8_d_pcf8812.c ****   SPECIAL, EXEMPLARY, OR CONSEQUENTIAL DAMAGES (INCLUDING, BUT 
  30:/Users/imashio/Electronics/ARM/_Library/u8x8_d_pcf8812.c ****   NOT LIMITED TO, PROCUREMENT OF SUBSTITUTE GOODS OR SERVICES; 
ARM GAS  /var/folders/v3/wysfpd052nz8jkbx04pk0ym80000gn/T//cceVxJuU.s 			page 2


  31:/Users/imashio/Electronics/ARM/_Library/u8x8_d_pcf8812.c ****   LOSS OF USE, DATA, OR PROFITS; OR BUSINESS INTERRUPTION) HOWEVER 
  32:/Users/imashio/Electronics/ARM/_Library/u8x8_d_pcf8812.c ****   CAUSED AND ON ANY THEORY OF LIABILITY, WHETHER IN CONTRACT, 
  33:/Users/imashio/Electronics/ARM/_Library/u8x8_d_pcf8812.c ****   STRICT LIABILITY, OR TORT (INCLUDING NEGLIGENCE OR OTHERWISE) 
  34:/Users/imashio/Electronics/ARM/_Library/u8x8_d_pcf8812.c ****   ARISING IN ANY WAY OUT OF THE USE OF THIS SOFTWARE, EVEN IF 
  35:/Users/imashio/Electronics/ARM/_Library/u8x8_d_pcf8812.c ****   ADVISED OF THE POSSIBILITY OF SUCH DAMAGE.  
  36:/Users/imashio/Electronics/ARM/_Library/u8x8_d_pcf8812.c ****   
  37:/Users/imashio/Electronics/ARM/_Library/u8x8_d_pcf8812.c **** */
  38:/Users/imashio/Electronics/ARM/_Library/u8x8_d_pcf8812.c **** 
  39:/Users/imashio/Electronics/ARM/_Library/u8x8_d_pcf8812.c **** 
  40:/Users/imashio/Electronics/ARM/_Library/u8x8_d_pcf8812.c **** #include "u8x8.h"
  41:/Users/imashio/Electronics/ARM/_Library/u8x8_d_pcf8812.c **** 
  42:/Users/imashio/Electronics/ARM/_Library/u8x8_d_pcf8812.c **** 
  43:/Users/imashio/Electronics/ARM/_Library/u8x8_d_pcf8812.c **** 
  44:/Users/imashio/Electronics/ARM/_Library/u8x8_d_pcf8812.c **** static const uint8_t u8x8_d_pcf8812_96x65_init_seq[] = {
  45:/Users/imashio/Electronics/ARM/_Library/u8x8_d_pcf8812.c ****     
  46:/Users/imashio/Electronics/ARM/_Library/u8x8_d_pcf8812.c ****   U8X8_START_TRANSFER(),             	/* enable chip, delay is part of the transfer start */
  47:/Users/imashio/Electronics/ARM/_Library/u8x8_d_pcf8812.c ****   
  48:/Users/imashio/Electronics/ARM/_Library/u8x8_d_pcf8812.c ****   U8X8_C(0x020),		                /* activate chip (PD=0), horizontal increment (V=0), enter normal
  49:/Users/imashio/Electronics/ARM/_Library/u8x8_d_pcf8812.c ****   U8X8_C(0x008),		                /* blank display */
  50:/Users/imashio/Electronics/ARM/_Library/u8x8_d_pcf8812.c ****   
  51:/Users/imashio/Electronics/ARM/_Library/u8x8_d_pcf8812.c ****   U8X8_C(0x021),		                /* activate chip (PD=0), horizontal increment (V=0), enter extend
  52:/Users/imashio/Electronics/ARM/_Library/u8x8_d_pcf8812.c ****   U8X8_C(0x006),		                /* temp. control: b10 = 2 */
  53:/Users/imashio/Electronics/ARM/_Library/u8x8_d_pcf8812.c ****   U8X8_C(0x013),		                /* bias system, 0x010..0x07 1:48 */
  54:/Users/imashio/Electronics/ARM/_Library/u8x8_d_pcf8812.c ****   U8X8_C(0x09f),				/* contrast setting, 0..127 */
  55:/Users/imashio/Electronics/ARM/_Library/u8x8_d_pcf8812.c ****   //U8X8_CA(0x020 | 2, 0x080 | 0),				/* contrast setting, pcf8814 */
  56:/Users/imashio/Electronics/ARM/_Library/u8x8_d_pcf8812.c **** 
  57:/Users/imashio/Electronics/ARM/_Library/u8x8_d_pcf8812.c ****   U8X8_C(0x024),		                /* deactivate chip (PD=1), horizontal increment (V=0), enter norm
  58:/Users/imashio/Electronics/ARM/_Library/u8x8_d_pcf8812.c ****     
  59:/Users/imashio/Electronics/ARM/_Library/u8x8_d_pcf8812.c ****   U8X8_END_TRANSFER(),             	/* disable chip */
  60:/Users/imashio/Electronics/ARM/_Library/u8x8_d_pcf8812.c ****   U8X8_END()             			/* end of sequence */
  61:/Users/imashio/Electronics/ARM/_Library/u8x8_d_pcf8812.c **** };
  62:/Users/imashio/Electronics/ARM/_Library/u8x8_d_pcf8812.c **** 
  63:/Users/imashio/Electronics/ARM/_Library/u8x8_d_pcf8812.c **** static const uint8_t u8x8_d_pcf8812_96x65_powersave0_seq[] = {
  64:/Users/imashio/Electronics/ARM/_Library/u8x8_d_pcf8812.c ****   U8X8_START_TRANSFER(),             	/* enable chip, delay is part of the transfer start */
  65:/Users/imashio/Electronics/ARM/_Library/u8x8_d_pcf8812.c ****   U8X8_C(0x020),		                /* power on */
  66:/Users/imashio/Electronics/ARM/_Library/u8x8_d_pcf8812.c ****   U8X8_C(0x00c),		                /* display on */
  67:/Users/imashio/Electronics/ARM/_Library/u8x8_d_pcf8812.c ****   U8X8_END_TRANSFER(),             	/* disable chip */
  68:/Users/imashio/Electronics/ARM/_Library/u8x8_d_pcf8812.c ****   U8X8_END()             			/* end of sequence */
  69:/Users/imashio/Electronics/ARM/_Library/u8x8_d_pcf8812.c **** };
  70:/Users/imashio/Electronics/ARM/_Library/u8x8_d_pcf8812.c **** 
  71:/Users/imashio/Electronics/ARM/_Library/u8x8_d_pcf8812.c **** static const uint8_t u8x8_d_pcf8812_96x65_powersave1_seq[] = {
  72:/Users/imashio/Electronics/ARM/_Library/u8x8_d_pcf8812.c ****   U8X8_START_TRANSFER(),             	/* enable chip, delay is part of the transfer start */
  73:/Users/imashio/Electronics/ARM/_Library/u8x8_d_pcf8812.c ****   U8X8_C(0x020),		                /* power on */
  74:/Users/imashio/Electronics/ARM/_Library/u8x8_d_pcf8812.c ****   U8X8_C(0x008),		                /* blank display */
  75:/Users/imashio/Electronics/ARM/_Library/u8x8_d_pcf8812.c ****   U8X8_C(0x024),		                /* power down */
  76:/Users/imashio/Electronics/ARM/_Library/u8x8_d_pcf8812.c ****   U8X8_END_TRANSFER(),             	/* disable chip */
  77:/Users/imashio/Electronics/ARM/_Library/u8x8_d_pcf8812.c ****   U8X8_END()             			/* end of sequence */
  78:/Users/imashio/Electronics/ARM/_Library/u8x8_d_pcf8812.c **** };
  79:/Users/imashio/Electronics/ARM/_Library/u8x8_d_pcf8812.c **** 
  80:/Users/imashio/Electronics/ARM/_Library/u8x8_d_pcf8812.c **** 
  81:/Users/imashio/Electronics/ARM/_Library/u8x8_d_pcf8812.c **** static uint8_t u8x8_d_pcf8812_96x65_generic(u8x8_t *u8x8, uint8_t msg, uint8_t arg_int, void *arg_p
  82:/Users/imashio/Electronics/ARM/_Library/u8x8_d_pcf8812.c **** {
  83:/Users/imashio/Electronics/ARM/_Library/u8x8_d_pcf8812.c ****   uint8_t x, c;
  84:/Users/imashio/Electronics/ARM/_Library/u8x8_d_pcf8812.c ****   uint8_t *ptr;
  85:/Users/imashio/Electronics/ARM/_Library/u8x8_d_pcf8812.c ****   switch(msg)
  86:/Users/imashio/Electronics/ARM/_Library/u8x8_d_pcf8812.c ****   {
  87:/Users/imashio/Electronics/ARM/_Library/u8x8_d_pcf8812.c ****     /* handled by the calling function
ARM GAS  /var/folders/v3/wysfpd052nz8jkbx04pk0ym80000gn/T//cceVxJuU.s 			page 3


  88:/Users/imashio/Electronics/ARM/_Library/u8x8_d_pcf8812.c ****     case U8X8_MSG_DISPLAY_SETUP_MEMORY:
  89:/Users/imashio/Electronics/ARM/_Library/u8x8_d_pcf8812.c ****       u8x8_d_helper_display_setup_memory(u8x8, &u8x8_pcf8812_96x65_display_info);
  90:/Users/imashio/Electronics/ARM/_Library/u8x8_d_pcf8812.c ****       break;
  91:/Users/imashio/Electronics/ARM/_Library/u8x8_d_pcf8812.c ****     */
  92:/Users/imashio/Electronics/ARM/_Library/u8x8_d_pcf8812.c ****     case U8X8_MSG_DISPLAY_INIT:
  93:/Users/imashio/Electronics/ARM/_Library/u8x8_d_pcf8812.c ****       u8x8_d_helper_display_init(u8x8);
  94:/Users/imashio/Electronics/ARM/_Library/u8x8_d_pcf8812.c ****       u8x8_cad_SendSequence(u8x8, u8x8_d_pcf8812_96x65_init_seq);    
  95:/Users/imashio/Electronics/ARM/_Library/u8x8_d_pcf8812.c ****       break;
  96:/Users/imashio/Electronics/ARM/_Library/u8x8_d_pcf8812.c ****     case U8X8_MSG_DISPLAY_SET_POWER_SAVE:
  97:/Users/imashio/Electronics/ARM/_Library/u8x8_d_pcf8812.c ****       if ( arg_int == 0 )
  98:/Users/imashio/Electronics/ARM/_Library/u8x8_d_pcf8812.c **** 	u8x8_cad_SendSequence(u8x8, u8x8_d_pcf8812_96x65_powersave0_seq);
  99:/Users/imashio/Electronics/ARM/_Library/u8x8_d_pcf8812.c ****       else
 100:/Users/imashio/Electronics/ARM/_Library/u8x8_d_pcf8812.c **** 	u8x8_cad_SendSequence(u8x8, u8x8_d_pcf8812_96x65_powersave1_seq);
 101:/Users/imashio/Electronics/ARM/_Library/u8x8_d_pcf8812.c ****       break;
 102:/Users/imashio/Electronics/ARM/_Library/u8x8_d_pcf8812.c **** /*
 103:/Users/imashio/Electronics/ARM/_Library/u8x8_d_pcf8812.c ****     case U8X8_MSG_DISPLAY_SET_FLIP_MODE:
 104:/Users/imashio/Electronics/ARM/_Library/u8x8_d_pcf8812.c ****       if ( arg_int == 0 )
 105:/Users/imashio/Electronics/ARM/_Library/u8x8_d_pcf8812.c ****       {
 106:/Users/imashio/Electronics/ARM/_Library/u8x8_d_pcf8812.c **** 	u8x8_cad_SendSequence(u8x8, u8x8_d_pcf8812_96x65_flip0_seq);
 107:/Users/imashio/Electronics/ARM/_Library/u8x8_d_pcf8812.c **** 	u8x8->x_offset = u8x8->display_info->default_x_offset;
 108:/Users/imashio/Electronics/ARM/_Library/u8x8_d_pcf8812.c ****       }
 109:/Users/imashio/Electronics/ARM/_Library/u8x8_d_pcf8812.c ****       else
 110:/Users/imashio/Electronics/ARM/_Library/u8x8_d_pcf8812.c ****       {
 111:/Users/imashio/Electronics/ARM/_Library/u8x8_d_pcf8812.c **** 	u8x8_cad_SendSequence(u8x8, u8x8_d_pcf8812_96x65_flip1_seq);
 112:/Users/imashio/Electronics/ARM/_Library/u8x8_d_pcf8812.c **** 	u8x8->x_offset = u8x8->display_info->flipmode_x_offset;
 113:/Users/imashio/Electronics/ARM/_Library/u8x8_d_pcf8812.c ****       }
 114:/Users/imashio/Electronics/ARM/_Library/u8x8_d_pcf8812.c ****       break;
 115:/Users/imashio/Electronics/ARM/_Library/u8x8_d_pcf8812.c **** */
 116:/Users/imashio/Electronics/ARM/_Library/u8x8_d_pcf8812.c **** #ifdef U8X8_WITH_SET_CONTRAST
 117:/Users/imashio/Electronics/ARM/_Library/u8x8_d_pcf8812.c ****     case U8X8_MSG_DISPLAY_SET_CONTRAST:
 118:/Users/imashio/Electronics/ARM/_Library/u8x8_d_pcf8812.c ****       u8x8_cad_StartTransfer(u8x8);
 119:/Users/imashio/Electronics/ARM/_Library/u8x8_d_pcf8812.c ****       u8x8_cad_SendCmd(u8x8, 0x021 );    /* command mode, extended function set */
 120:/Users/imashio/Electronics/ARM/_Library/u8x8_d_pcf8812.c ****       u8x8_cad_SendArg(u8x8, (arg_int>>1)|0x80 );	/* 0..127 for contrast */
 121:/Users/imashio/Electronics/ARM/_Library/u8x8_d_pcf8812.c ****       u8x8_cad_EndTransfer(u8x8);
 122:/Users/imashio/Electronics/ARM/_Library/u8x8_d_pcf8812.c ****       break;
 123:/Users/imashio/Electronics/ARM/_Library/u8x8_d_pcf8812.c **** #endif
 124:/Users/imashio/Electronics/ARM/_Library/u8x8_d_pcf8812.c ****     case U8X8_MSG_DISPLAY_DRAW_TILE:
 125:/Users/imashio/Electronics/ARM/_Library/u8x8_d_pcf8812.c ****       u8x8_cad_StartTransfer(u8x8);
 126:/Users/imashio/Electronics/ARM/_Library/u8x8_d_pcf8812.c ****       x = ((u8x8_tile_t *)arg_ptr)->x_pos;    
 127:/Users/imashio/Electronics/ARM/_Library/u8x8_d_pcf8812.c ****       x *= 8;
 128:/Users/imashio/Electronics/ARM/_Library/u8x8_d_pcf8812.c ****       x += u8x8->x_offset;
 129:/Users/imashio/Electronics/ARM/_Library/u8x8_d_pcf8812.c ****     
 130:/Users/imashio/Electronics/ARM/_Library/u8x8_d_pcf8812.c ****       u8x8_cad_SendCmd(u8x8, 0x020 );	/* activate chip (PD=0), horizontal increment (V=0), enter no
 131:/Users/imashio/Electronics/ARM/_Library/u8x8_d_pcf8812.c ****       u8x8_cad_SendCmd(u8x8, 0x080 | x);
 132:/Users/imashio/Electronics/ARM/_Library/u8x8_d_pcf8812.c ****       u8x8_cad_SendCmd(u8x8, 0x040 | ((u8x8_tile_t *)arg_ptr)->y_pos);
 133:/Users/imashio/Electronics/ARM/_Library/u8x8_d_pcf8812.c ****       
 134:/Users/imashio/Electronics/ARM/_Library/u8x8_d_pcf8812.c ****       do
 135:/Users/imashio/Electronics/ARM/_Library/u8x8_d_pcf8812.c ****       {
 136:/Users/imashio/Electronics/ARM/_Library/u8x8_d_pcf8812.c **** 	c = ((u8x8_tile_t *)arg_ptr)->cnt;
 137:/Users/imashio/Electronics/ARM/_Library/u8x8_d_pcf8812.c **** 	ptr = ((u8x8_tile_t *)arg_ptr)->tile_ptr;
 138:/Users/imashio/Electronics/ARM/_Library/u8x8_d_pcf8812.c **** 	u8x8_cad_SendData(u8x8, c*8, ptr); 	/* note: SendData can not handle more than 255 bytes */
 139:/Users/imashio/Electronics/ARM/_Library/u8x8_d_pcf8812.c **** 	/*
 140:/Users/imashio/Electronics/ARM/_Library/u8x8_d_pcf8812.c **** 	do
 141:/Users/imashio/Electronics/ARM/_Library/u8x8_d_pcf8812.c **** 	{
 142:/Users/imashio/Electronics/ARM/_Library/u8x8_d_pcf8812.c **** 	  u8x8_cad_SendData(u8x8, 8, ptr);
 143:/Users/imashio/Electronics/ARM/_Library/u8x8_d_pcf8812.c **** 	  ptr += 8;
 144:/Users/imashio/Electronics/ARM/_Library/u8x8_d_pcf8812.c **** 	  c--;
ARM GAS  /var/folders/v3/wysfpd052nz8jkbx04pk0ym80000gn/T//cceVxJuU.s 			page 4


 145:/Users/imashio/Electronics/ARM/_Library/u8x8_d_pcf8812.c **** 	} while( c > 0 );
 146:/Users/imashio/Electronics/ARM/_Library/u8x8_d_pcf8812.c **** 	*/
 147:/Users/imashio/Electronics/ARM/_Library/u8x8_d_pcf8812.c **** 	arg_int--;
 148:/Users/imashio/Electronics/ARM/_Library/u8x8_d_pcf8812.c ****       } while( arg_int > 0 );
 149:/Users/imashio/Electronics/ARM/_Library/u8x8_d_pcf8812.c ****       
 150:/Users/imashio/Electronics/ARM/_Library/u8x8_d_pcf8812.c ****       u8x8_cad_EndTransfer(u8x8);
 151:/Users/imashio/Electronics/ARM/_Library/u8x8_d_pcf8812.c ****       break;
 152:/Users/imashio/Electronics/ARM/_Library/u8x8_d_pcf8812.c ****     default:
 153:/Users/imashio/Electronics/ARM/_Library/u8x8_d_pcf8812.c ****       return 0;
 154:/Users/imashio/Electronics/ARM/_Library/u8x8_d_pcf8812.c ****   }
 155:/Users/imashio/Electronics/ARM/_Library/u8x8_d_pcf8812.c ****   return 1;
 156:/Users/imashio/Electronics/ARM/_Library/u8x8_d_pcf8812.c **** }
 157:/Users/imashio/Electronics/ARM/_Library/u8x8_d_pcf8812.c **** 
 158:/Users/imashio/Electronics/ARM/_Library/u8x8_d_pcf8812.c **** 
 159:/Users/imashio/Electronics/ARM/_Library/u8x8_d_pcf8812.c **** static const u8x8_display_info_t u8x8_pcf8812_96x65_display_info =
 160:/Users/imashio/Electronics/ARM/_Library/u8x8_d_pcf8812.c **** {
 161:/Users/imashio/Electronics/ARM/_Library/u8x8_d_pcf8812.c ****   /* chip_enable_level = */ 0,
 162:/Users/imashio/Electronics/ARM/_Library/u8x8_d_pcf8812.c ****   /* chip_disable_level = */ 1,
 163:/Users/imashio/Electronics/ARM/_Library/u8x8_d_pcf8812.c ****   
 164:/Users/imashio/Electronics/ARM/_Library/u8x8_d_pcf8812.c ****   /* post_chip_enable_wait_ns = */ 100,
 165:/Users/imashio/Electronics/ARM/_Library/u8x8_d_pcf8812.c ****   /* pre_chip_disable_wait_ns = */ 100,
 166:/Users/imashio/Electronics/ARM/_Library/u8x8_d_pcf8812.c ****   /* reset_pulse_width_ms = */ 100, 
 167:/Users/imashio/Electronics/ARM/_Library/u8x8_d_pcf8812.c ****   /* post_reset_wait_ms = */ 100, 
 168:/Users/imashio/Electronics/ARM/_Library/u8x8_d_pcf8812.c ****   /* sda_setup_time_ns = */ 100,	
 169:/Users/imashio/Electronics/ARM/_Library/u8x8_d_pcf8812.c ****   /* sck_pulse_width_ns = */ 100,	
 170:/Users/imashio/Electronics/ARM/_Library/u8x8_d_pcf8812.c ****   /* sck_clock_hz = */ 4000000UL,	/* since Arduino 1.6.0, the SPI bus speed in Hz. Should be  10000
 171:/Users/imashio/Electronics/ARM/_Library/u8x8_d_pcf8812.c ****   /* spi_mode = */ 0,		/* active high, rising edge */
 172:/Users/imashio/Electronics/ARM/_Library/u8x8_d_pcf8812.c ****   /* i2c_bus_clock_100kHz = */ 4,
 173:/Users/imashio/Electronics/ARM/_Library/u8x8_d_pcf8812.c ****   /* data_setup_time_ns = */ 40,
 174:/Users/imashio/Electronics/ARM/_Library/u8x8_d_pcf8812.c ****   /* write_pulse_width_ns = */ 150,	
 175:/Users/imashio/Electronics/ARM/_Library/u8x8_d_pcf8812.c ****   /* tile_width = */ 12,
 176:/Users/imashio/Electronics/ARM/_Library/u8x8_d_pcf8812.c ****   /* tile_hight = */ 9,
 177:/Users/imashio/Electronics/ARM/_Library/u8x8_d_pcf8812.c ****   /* default_x_offset = */ 0,
 178:/Users/imashio/Electronics/ARM/_Library/u8x8_d_pcf8812.c ****   /* flipmode_x_offset = */ 0,
 179:/Users/imashio/Electronics/ARM/_Library/u8x8_d_pcf8812.c ****   /* pixel_width = */ 96,
 180:/Users/imashio/Electronics/ARM/_Library/u8x8_d_pcf8812.c ****   /* pixel_height = */ 65
 181:/Users/imashio/Electronics/ARM/_Library/u8x8_d_pcf8812.c **** };
 182:/Users/imashio/Electronics/ARM/_Library/u8x8_d_pcf8812.c **** 
 183:/Users/imashio/Electronics/ARM/_Library/u8x8_d_pcf8812.c **** uint8_t u8x8_d_pcf8812_96x65(u8x8_t *u8x8, uint8_t msg, uint8_t arg_int, void *arg_ptr)
 184:/Users/imashio/Electronics/ARM/_Library/u8x8_d_pcf8812.c **** {
  29              		.loc 1 184 0
  30              		.cfi_startproc
  31              		@ args = 0, pretend = 0, frame = 0
  32              		@ frame_needed = 0, uses_anonymous_args = 0
  33              	.LVL0:
 185:/Users/imashio/Electronics/ARM/_Library/u8x8_d_pcf8812.c ****     if ( msg == U8X8_MSG_DISPLAY_SETUP_MEMORY )
  34              		.loc 1 185 0
  35 0000 0929     		cmp	r1, #9
 184:/Users/imashio/Electronics/ARM/_Library/u8x8_d_pcf8812.c ****     if ( msg == U8X8_MSG_DISPLAY_SETUP_MEMORY )
  36              		.loc 1 184 0
  37 0002 F8B5     		push	{r3, r4, r5, r6, r7, lr}
  38              	.LCFI0:
  39              		.cfi_def_cfa_offset 24
  40              		.cfi_offset 3, -24
  41              		.cfi_offset 4, -20
  42              		.cfi_offset 5, -16
  43              		.cfi_offset 6, -12
ARM GAS  /var/folders/v3/wysfpd052nz8jkbx04pk0ym80000gn/T//cceVxJuU.s 			page 5


  44              		.cfi_offset 7, -8
  45              		.cfi_offset 14, -4
  46              		.loc 1 185 0
  47 0004 0AD0     		beq	.L15
  48              	.LBB4:
  49              	.LBB5:
  85:/Users/imashio/Electronics/ARM/_Library/u8x8_d_pcf8812.c ****   {
  50              		.loc 1 85 0
  51 0006 0A39     		subs	r1, r1, #10
  52              	.LVL1:
  53 0008 1446     		mov	r4, r2
  54 000a 1D46     		mov	r5, r3
  55 000c 0646     		mov	r6, r0
  56              	.LVL2:
  57 000e 0529     		cmp	r1, #5
  58 0010 50D8     		bhi	.L11
  59 0012 DFE801F0 		tbb	[pc, r1]
  60              	.LVL3:
  61              	.L5:
  62 0016 30       		.byte	(.L4-.L5)/2
  63 0017 38       		.byte	(.L6-.L5)/2
  64 0018 4F       		.byte	(.L11-.L5)/2
  65 0019 4F       		.byte	(.L11-.L5)/2
  66 001a 3E       		.byte	(.L7-.L5)/2
  67 001b 08       		.byte	(.L8-.L5)/2
  68              		.p2align 1
  69              	.L15:
  70              	.LBE5:
  71              	.LBE4:
 186:/Users/imashio/Electronics/ARM/_Library/u8x8_d_pcf8812.c ****     {
 187:/Users/imashio/Electronics/ARM/_Library/u8x8_d_pcf8812.c ****       u8x8_d_helper_display_setup_memory(u8x8, &u8x8_pcf8812_96x65_display_info);
  72              		.loc 1 187 0
  73 001c 2949     		ldr	r1, .L16
  74              	.LVL4:
  75 001e FFF7FEFF 		bl	u8x8_d_helper_display_setup_memory
  76              	.LVL5:
 188:/Users/imashio/Electronics/ARM/_Library/u8x8_d_pcf8812.c ****       return 1;
  77              		.loc 1 188 0
  78 0022 0120     		movs	r0, #1
 189:/Users/imashio/Electronics/ARM/_Library/u8x8_d_pcf8812.c ****     }
 190:/Users/imashio/Electronics/ARM/_Library/u8x8_d_pcf8812.c ****     return u8x8_d_pcf8812_96x65_generic(u8x8, msg, arg_int, arg_ptr);
 191:/Users/imashio/Electronics/ARM/_Library/u8x8_d_pcf8812.c **** }
  79              		.loc 1 191 0
  80 0024 F8BD     		pop	{r3, r4, r5, r6, r7, pc}
  81              	.LVL6:
  82              	.L8:
  83              	.LBB12:
  84              	.LBB6:
 125:/Users/imashio/Electronics/ARM/_Library/u8x8_d_pcf8812.c ****       x = ((u8x8_tile_t *)arg_ptr)->x_pos;    
  85              		.loc 1 125 0
  86 0026 FFF7FEFF 		bl	u8x8_cad_StartTransfer
  87              	.LVL7:
 126:/Users/imashio/Electronics/ARM/_Library/u8x8_d_pcf8812.c ****       x *= 8;
  88              		.loc 1 126 0
  89 002a 6B79     		ldrb	r3, [r5, #5]	@ zero_extendqisi2
  90              	.LVL8:
 128:/Users/imashio/Electronics/ARM/_Library/u8x8_d_pcf8812.c ****     
ARM GAS  /var/folders/v3/wysfpd052nz8jkbx04pk0ym80000gn/T//cceVxJuU.s 			page 6


  91              		.loc 1 128 0
  92 002c B77F     		ldrb	r7, [r6, #30]	@ zero_extendqisi2
  93 002e 07EBC307 		add	r7, r7, r3, lsl #3
 130:/Users/imashio/Electronics/ARM/_Library/u8x8_d_pcf8812.c ****       u8x8_cad_SendCmd(u8x8, 0x080 | x);
  94              		.loc 1 130 0
  95 0032 2021     		movs	r1, #32
 128:/Users/imashio/Electronics/ARM/_Library/u8x8_d_pcf8812.c ****     
  96              		.loc 1 128 0
  97 0034 07F0FF07 		and	r7, r7, #255
  98              	.LVL9:
 130:/Users/imashio/Electronics/ARM/_Library/u8x8_d_pcf8812.c ****       u8x8_cad_SendCmd(u8x8, 0x080 | x);
  99              		.loc 1 130 0
 100 0038 3046     		mov	r0, r6
 101 003a FFF7FEFF 		bl	u8x8_cad_SendCmd
 102              	.LVL10:
 131:/Users/imashio/Electronics/ARM/_Library/u8x8_d_pcf8812.c ****       u8x8_cad_SendCmd(u8x8, 0x040 | ((u8x8_tile_t *)arg_ptr)->y_pos);
 103              		.loc 1 131 0
 104 003e 47F08001 		orr	r1, r7, #128
 105 0042 3046     		mov	r0, r6
 106 0044 FFF7FEFF 		bl	u8x8_cad_SendCmd
 107              	.LVL11:
 132:/Users/imashio/Electronics/ARM/_Library/u8x8_d_pcf8812.c ****       
 108              		.loc 1 132 0
 109 0048 A979     		ldrb	r1, [r5, #6]	@ zero_extendqisi2
 110 004a 3046     		mov	r0, r6
 111 004c 41F04001 		orr	r1, r1, #64
 112 0050 FFF7FEFF 		bl	u8x8_cad_SendCmd
 113              	.LVL12:
 114              	.L10:
 138:/Users/imashio/Electronics/ARM/_Library/u8x8_d_pcf8812.c **** 	/*
 115              		.loc 1 138 0
 116 0054 2979     		ldrb	r1, [r5, #4]	@ zero_extendqisi2
 117 0056 2A68     		ldr	r2, [r5]
 118 0058 C900     		lsls	r1, r1, #3
 119 005a 01F0F801 		and	r1, r1, #248
 120 005e 3046     		mov	r0, r6
 147:/Users/imashio/Electronics/ARM/_Library/u8x8_d_pcf8812.c ****       } while( arg_int > 0 );
 121              		.loc 1 147 0
 122 0060 013C     		subs	r4, r4, #1
 123              	.LVL13:
 138:/Users/imashio/Electronics/ARM/_Library/u8x8_d_pcf8812.c **** 	/*
 124              		.loc 1 138 0
 125 0062 FFF7FEFF 		bl	u8x8_cad_SendData
 126              	.LVL14:
 148:/Users/imashio/Electronics/ARM/_Library/u8x8_d_pcf8812.c ****       
 127              		.loc 1 148 0
 128 0066 14F0FF04 		ands	r4, r4, #255
 129              	.LVL15:
 130 006a F3D1     		bne	.L10
 150:/Users/imashio/Electronics/ARM/_Library/u8x8_d_pcf8812.c ****       break;
 131              		.loc 1 150 0
 132 006c 3046     		mov	r0, r6
 133 006e FFF7FEFF 		bl	u8x8_cad_EndTransfer
 134              	.LVL16:
 155:/Users/imashio/Electronics/ARM/_Library/u8x8_d_pcf8812.c **** }
 135              		.loc 1 155 0
 136 0072 0120     		movs	r0, #1
ARM GAS  /var/folders/v3/wysfpd052nz8jkbx04pk0ym80000gn/T//cceVxJuU.s 			page 7


 137              	.LBE6:
 138              	.LBE12:
 139              		.loc 1 191 0
 140 0074 F8BD     		pop	{r3, r4, r5, r6, r7, pc}
 141              	.LVL17:
 142              	.L4:
 143              	.LBB13:
 144              	.LBB7:
  93:/Users/imashio/Electronics/ARM/_Library/u8x8_d_pcf8812.c ****       u8x8_cad_SendSequence(u8x8, u8x8_d_pcf8812_96x65_init_seq);    
 145              		.loc 1 93 0
 146 0076 FFF7FEFF 		bl	u8x8_d_helper_display_init
 147              	.LVL18:
  94:/Users/imashio/Electronics/ARM/_Library/u8x8_d_pcf8812.c ****       break;
 148              		.loc 1 94 0
 149 007a 3046     		mov	r0, r6
 150 007c 1249     		ldr	r1, .L16+4
 151 007e FFF7FEFF 		bl	u8x8_cad_SendSequence
 152              	.LVL19:
 155:/Users/imashio/Electronics/ARM/_Library/u8x8_d_pcf8812.c **** }
 153              		.loc 1 155 0
 154 0082 0120     		movs	r0, #1
 155              	.LBE7:
 156              	.LBE13:
 157              		.loc 1 191 0
 158 0084 F8BD     		pop	{r3, r4, r5, r6, r7, pc}
 159              	.LVL20:
 160              	.L6:
 161              	.LBB14:
 162              	.LBB8:
  97:/Users/imashio/Electronics/ARM/_Library/u8x8_d_pcf8812.c **** 	u8x8_cad_SendSequence(u8x8, u8x8_d_pcf8812_96x65_powersave0_seq);
 163              		.loc 1 97 0
 164 0086 BAB9     		cbnz	r2, .L9
  98:/Users/imashio/Electronics/ARM/_Library/u8x8_d_pcf8812.c ****       else
 165              		.loc 1 98 0
 166 0088 1049     		ldr	r1, .L16+8
 167 008a FFF7FEFF 		bl	u8x8_cad_SendSequence
 168              	.LVL21:
 155:/Users/imashio/Electronics/ARM/_Library/u8x8_d_pcf8812.c **** }
 169              		.loc 1 155 0
 170 008e 0120     		movs	r0, #1
 171              	.LBE8:
 172              	.LBE14:
 173              		.loc 1 191 0
 174 0090 F8BD     		pop	{r3, r4, r5, r6, r7, pc}
 175              	.LVL22:
 176              	.L7:
 177              	.LBB15:
 178              	.LBB9:
 118:/Users/imashio/Electronics/ARM/_Library/u8x8_d_pcf8812.c ****       u8x8_cad_SendCmd(u8x8, 0x021 );    /* command mode, extended function set */
 179              		.loc 1 118 0
 180 0092 FFF7FEFF 		bl	u8x8_cad_StartTransfer
 181              	.LVL23:
 119:/Users/imashio/Electronics/ARM/_Library/u8x8_d_pcf8812.c ****       u8x8_cad_SendArg(u8x8, (arg_int>>1)|0x80 );	/* 0..127 for contrast */
 182              		.loc 1 119 0
 183 0096 2121     		movs	r1, #33
 184 0098 3046     		mov	r0, r6
 185 009a FFF7FEFF 		bl	u8x8_cad_SendCmd
ARM GAS  /var/folders/v3/wysfpd052nz8jkbx04pk0ym80000gn/T//cceVxJuU.s 			page 8


 186              	.LVL24:
 120:/Users/imashio/Electronics/ARM/_Library/u8x8_d_pcf8812.c ****       u8x8_cad_EndTransfer(u8x8);
 187              		.loc 1 120 0
 188 009e 6108     		lsrs	r1, r4, #1
 189 00a0 41F08001 		orr	r1, r1, #128
 190 00a4 3046     		mov	r0, r6
 191 00a6 FFF7FEFF 		bl	u8x8_cad_SendArg
 192              	.LVL25:
 121:/Users/imashio/Electronics/ARM/_Library/u8x8_d_pcf8812.c ****       break;
 193              		.loc 1 121 0
 194 00aa 3046     		mov	r0, r6
 195 00ac FFF7FEFF 		bl	u8x8_cad_EndTransfer
 196              	.LVL26:
 155:/Users/imashio/Electronics/ARM/_Library/u8x8_d_pcf8812.c **** }
 197              		.loc 1 155 0
 198 00b0 0120     		movs	r0, #1
 199              	.LBE9:
 200              	.LBE15:
 201              		.loc 1 191 0
 202 00b2 F8BD     		pop	{r3, r4, r5, r6, r7, pc}
 203              	.LVL27:
 204              	.L11:
 205              	.LBB16:
 206              	.LBB10:
 153:/Users/imashio/Electronics/ARM/_Library/u8x8_d_pcf8812.c ****   }
 207              		.loc 1 153 0
 208 00b4 0020     		movs	r0, #0
 209              	.LVL28:
 210              	.LBE10:
 211              	.LBE16:
 212              		.loc 1 191 0
 213 00b6 F8BD     		pop	{r3, r4, r5, r6, r7, pc}
 214              	.LVL29:
 215              	.L9:
 216              	.LBB17:
 217              	.LBB11:
 100:/Users/imashio/Electronics/ARM/_Library/u8x8_d_pcf8812.c ****       break;
 218              		.loc 1 100 0
 219 00b8 0549     		ldr	r1, .L16+12
 220 00ba FFF7FEFF 		bl	u8x8_cad_SendSequence
 221              	.LVL30:
 155:/Users/imashio/Electronics/ARM/_Library/u8x8_d_pcf8812.c **** }
 222              		.loc 1 155 0
 223 00be 0120     		movs	r0, #1
 224              	.LBE11:
 225              	.LBE17:
 226              		.loc 1 191 0
 227 00c0 F8BD     		pop	{r3, r4, r5, r6, r7, pc}
 228              	.LVL31:
 229              	.L17:
 230 00c2 00BF     		.align	2
 231              	.L16:
 232 00c4 00000000 		.word	.LANCHOR0
 233 00c8 00000000 		.word	.LANCHOR1
 234 00cc 00000000 		.word	.LANCHOR2
 235 00d0 00000000 		.word	.LANCHOR3
 236              		.cfi_endproc
ARM GAS  /var/folders/v3/wysfpd052nz8jkbx04pk0ym80000gn/T//cceVxJuU.s 			page 9


 237              	.LFE1:
 239              		.section	.rodata.u8x8_d_pcf8812_96x65_init_seq,"a",%progbits
 240              		.align	2
 241              		.set	.LANCHOR1,. + 0
 244              	u8x8_d_pcf8812_96x65_init_seq:
 245 0000 18       		.byte	24
 246 0001 15       		.byte	21
 247 0002 20       		.byte	32
 248 0003 15       		.byte	21
 249 0004 08       		.byte	8
 250 0005 15       		.byte	21
 251 0006 21       		.byte	33
 252 0007 15       		.byte	21
 253 0008 06       		.byte	6
 254 0009 15       		.byte	21
 255 000a 13       		.byte	19
 256 000b 15       		.byte	21
 257 000c 9F       		.byte	-97
 258 000d 15       		.byte	21
 259 000e 24       		.byte	36
 260 000f 19       		.byte	25
 261 0010 FF       		.byte	-1
 262              		.section	.rodata.u8x8_d_pcf8812_96x65_powersave0_seq,"a",%progbits
 263              		.align	2
 264              		.set	.LANCHOR2,. + 0
 267              	u8x8_d_pcf8812_96x65_powersave0_seq:
 268 0000 18       		.byte	24
 269 0001 15       		.byte	21
 270 0002 20       		.byte	32
 271 0003 15       		.byte	21
 272 0004 0C       		.byte	12
 273 0005 19       		.byte	25
 274 0006 FF       		.byte	-1
 275              		.section	.rodata.u8x8_d_pcf8812_96x65_powersave1_seq,"a",%progbits
 276              		.align	2
 277              		.set	.LANCHOR3,. + 0
 280              	u8x8_d_pcf8812_96x65_powersave1_seq:
 281 0000 18       		.byte	24
 282 0001 15       		.byte	21
 283 0002 20       		.byte	32
 284 0003 15       		.byte	21
 285 0004 08       		.byte	8
 286 0005 15       		.byte	21
 287 0006 24       		.byte	36
 288 0007 19       		.byte	25
 289 0008 FF       		.byte	-1
 290              		.section	.rodata.u8x8_pcf8812_96x65_display_info,"a",%progbits
 291              		.align	2
 292              		.set	.LANCHOR0,. + 0
 295              	u8x8_pcf8812_96x65_display_info:
 296 0000 00       		.byte	0
 297 0001 01       		.byte	1
 298 0002 64       		.byte	100
 299 0003 64       		.byte	100
 300 0004 64       		.byte	100
 301 0005 64       		.byte	100
 302 0006 64       		.byte	100
ARM GAS  /var/folders/v3/wysfpd052nz8jkbx04pk0ym80000gn/T//cceVxJuU.s 			page 10


 303 0007 64       		.byte	100
 304 0008 00093D00 		.word	4000000
 305 000c 00       		.byte	0
 306 000d 04       		.byte	4
 307 000e 28       		.byte	40
 308 000f 96       		.byte	-106
 309 0010 0C       		.byte	12
 310 0011 09       		.byte	9
 311 0012 00       		.byte	0
 312 0013 00       		.byte	0
 313 0014 6000     		.short	96
 314 0016 4100     		.short	65
 315              		.text
 316              	.Letext0:
 317              		.file 2 "/usr/local/gcc-arm-none-eabi-7-2018-q2-update/arm-none-eabi/include/machine/_default_type
 318              		.file 3 "/usr/local/gcc-arm-none-eabi-7-2018-q2-update/arm-none-eabi/include/sys/_stdint.h"
 319              		.file 4 "/Users/imashio/Electronics/ARM/_Library/u8x8.h"
ARM GAS  /var/folders/v3/wysfpd052nz8jkbx04pk0ym80000gn/T//cceVxJuU.s 			page 11

