ARM GAS  /var/folders/v3/wysfpd052nz8jkbx04pk0ym80000gn/T//ccWvX4gk.s 			page 1


   1              		.cpu cortex-m4
   2              		.eabi_attribute 27, 1
   3              		.eabi_attribute 28, 1
   4              		.eabi_attribute 20, 1
   5              		.eabi_attribute 21, 1
   6              		.eabi_attribute 23, 3
   7              		.eabi_attribute 24, 1
   8              		.eabi_attribute 25, 1
   9              		.eabi_attribute 26, 1
  10              		.eabi_attribute 30, 2
  11              		.eabi_attribute 34, 1
  12              		.eabi_attribute 18, 4
  13              		.file	"u8x8_u8toa.c"
  14              		.text
  15              	.Ltext0:
  16              		.cfi_sections	.debug_frame
  17              		.section	.text.u8x8_u8toap,"ax",%progbits
  18              		.align	1
  19              		.p2align 2,,3
  20              		.global	u8x8_u8toap
  21              		.syntax unified
  22              		.thumb
  23              		.thumb_func
  24              		.fpu fpv4-sp-d16
  26              	u8x8_u8toap:
  27              	.LFB0:
  28              		.file 1 "/Users/imashio/Electronics/ARM/_Library/u8x8_u8toa.c"
   1:/Users/imashio/Electronics/ARM/_Library/u8x8_u8toa.c **** /*
   2:/Users/imashio/Electronics/ARM/_Library/u8x8_u8toa.c **** 
   3:/Users/imashio/Electronics/ARM/_Library/u8x8_u8toa.c ****   u8x8_u8toa.c
   4:/Users/imashio/Electronics/ARM/_Library/u8x8_u8toa.c **** 
   5:/Users/imashio/Electronics/ARM/_Library/u8x8_u8toa.c ****   Universal 8bit Graphics Library (https://github.com/olikraus/u8g2/)
   6:/Users/imashio/Electronics/ARM/_Library/u8x8_u8toa.c **** 
   7:/Users/imashio/Electronics/ARM/_Library/u8x8_u8toa.c ****   Copyright (c) 2016, olikraus@gmail.com
   8:/Users/imashio/Electronics/ARM/_Library/u8x8_u8toa.c ****   All rights reserved.
   9:/Users/imashio/Electronics/ARM/_Library/u8x8_u8toa.c **** 
  10:/Users/imashio/Electronics/ARM/_Library/u8x8_u8toa.c ****   Redistribution and use in source and binary forms, with or without modification, 
  11:/Users/imashio/Electronics/ARM/_Library/u8x8_u8toa.c ****   are permitted provided that the following conditions are met:
  12:/Users/imashio/Electronics/ARM/_Library/u8x8_u8toa.c **** 
  13:/Users/imashio/Electronics/ARM/_Library/u8x8_u8toa.c ****   * Redistributions of source code must retain the above copyright notice, this list 
  14:/Users/imashio/Electronics/ARM/_Library/u8x8_u8toa.c ****     of conditions and the following disclaimer.
  15:/Users/imashio/Electronics/ARM/_Library/u8x8_u8toa.c ****     
  16:/Users/imashio/Electronics/ARM/_Library/u8x8_u8toa.c ****   * Redistributions in binary form must reproduce the above copyright notice, this 
  17:/Users/imashio/Electronics/ARM/_Library/u8x8_u8toa.c ****     list of conditions and the following disclaimer in the documentation and/or other 
  18:/Users/imashio/Electronics/ARM/_Library/u8x8_u8toa.c ****     materials provided with the distribution.
  19:/Users/imashio/Electronics/ARM/_Library/u8x8_u8toa.c **** 
  20:/Users/imashio/Electronics/ARM/_Library/u8x8_u8toa.c ****   THIS SOFTWARE IS PROVIDED BY THE COPYRIGHT HOLDERS AND 
  21:/Users/imashio/Electronics/ARM/_Library/u8x8_u8toa.c ****   CONTRIBUTORS "AS IS" AND ANY EXPRESS OR IMPLIED WARRANTIES, 
  22:/Users/imashio/Electronics/ARM/_Library/u8x8_u8toa.c ****   INCLUDING, BUT NOT LIMITED TO, THE IMPLIED WARRANTIES OF 
  23:/Users/imashio/Electronics/ARM/_Library/u8x8_u8toa.c ****   MERCHANTABILITY AND FITNESS FOR A PARTICULAR PURPOSE ARE 
  24:/Users/imashio/Electronics/ARM/_Library/u8x8_u8toa.c ****   DISCLAIMED. IN NO EVENT SHALL THE COPYRIGHT HOLDER OR 
  25:/Users/imashio/Electronics/ARM/_Library/u8x8_u8toa.c ****   CONTRIBUTORS BE LIABLE FOR ANY DIRECT, INDIRECT, INCIDENTAL, 
  26:/Users/imashio/Electronics/ARM/_Library/u8x8_u8toa.c ****   SPECIAL, EXEMPLARY, OR CONSEQUENTIAL DAMAGES (INCLUDING, BUT 
  27:/Users/imashio/Electronics/ARM/_Library/u8x8_u8toa.c ****   NOT LIMITED TO, PROCUREMENT OF SUBSTITUTE GOODS OR SERVICES; 
  28:/Users/imashio/Electronics/ARM/_Library/u8x8_u8toa.c ****   LOSS OF USE, DATA, OR PROFITS; OR BUSINESS INTERRUPTION) HOWEVER 
  29:/Users/imashio/Electronics/ARM/_Library/u8x8_u8toa.c ****   CAUSED AND ON ANY THEORY OF LIABILITY, WHETHER IN CONTRACT, 
  30:/Users/imashio/Electronics/ARM/_Library/u8x8_u8toa.c ****   STRICT LIABILITY, OR TORT (INCLUDING NEGLIGENCE OR OTHERWISE) 
ARM GAS  /var/folders/v3/wysfpd052nz8jkbx04pk0ym80000gn/T//ccWvX4gk.s 			page 2


  31:/Users/imashio/Electronics/ARM/_Library/u8x8_u8toa.c ****   ARISING IN ANY WAY OUT OF THE USE OF THIS SOFTWARE, EVEN IF 
  32:/Users/imashio/Electronics/ARM/_Library/u8x8_u8toa.c ****   ADVISED OF THE POSSIBILITY OF SUCH DAMAGE.  
  33:/Users/imashio/Electronics/ARM/_Library/u8x8_u8toa.c ****   
  34:/Users/imashio/Electronics/ARM/_Library/u8x8_u8toa.c **** */
  35:/Users/imashio/Electronics/ARM/_Library/u8x8_u8toa.c **** 
  36:/Users/imashio/Electronics/ARM/_Library/u8x8_u8toa.c **** 
  37:/Users/imashio/Electronics/ARM/_Library/u8x8_u8toa.c **** #include "u8x8.h"
  38:/Users/imashio/Electronics/ARM/_Library/u8x8_u8toa.c **** 
  39:/Users/imashio/Electronics/ARM/_Library/u8x8_u8toa.c **** static const unsigned char u8x8_u8toa_tab[3]  = { 100, 10, 1 } ;
  40:/Users/imashio/Electronics/ARM/_Library/u8x8_u8toa.c **** const char *u8x8_u8toap(char * dest, uint8_t v)
  41:/Users/imashio/Electronics/ARM/_Library/u8x8_u8toa.c **** {
  29              		.loc 1 41 0
  30              		.cfi_startproc
  31              		@ args = 0, pretend = 0, frame = 0
  32              		@ frame_needed = 0, uses_anonymous_args = 0
  33              		@ link register save eliminated.
  34              	.LVL0:
  35 0000 70B4     		push	{r4, r5, r6}
  36              	.LCFI0:
  37              		.cfi_def_cfa_offset 12
  38              		.cfi_offset 4, -12
  39              		.cfi_offset 5, -8
  40              		.cfi_offset 6, -4
  41 0002 0C4D     		ldr	r5, .L10
  42 0004 441E     		subs	r4, r0, #1
  43 0006 861C     		adds	r6, r0, #2
  44              		.loc 1 41 0
  45 0008 6422     		movs	r2, #100
  46              	.LVL1:
  47              	.L5:
  42:/Users/imashio/Electronics/ARM/_Library/u8x8_u8toa.c ****   uint8_t pos;
  43:/Users/imashio/Electronics/ARM/_Library/u8x8_u8toa.c ****   uint8_t d;
  44:/Users/imashio/Electronics/ARM/_Library/u8x8_u8toa.c ****   uint8_t c;
  45:/Users/imashio/Electronics/ARM/_Library/u8x8_u8toa.c ****   for( pos = 0; pos < 3; pos++ )
  46:/Users/imashio/Electronics/ARM/_Library/u8x8_u8toa.c ****   {
  47:/Users/imashio/Electronics/ARM/_Library/u8x8_u8toa.c ****       d = '0';
  48:/Users/imashio/Electronics/ARM/_Library/u8x8_u8toa.c ****       c = *(u8x8_u8toa_tab+pos);
  49:/Users/imashio/Electronics/ARM/_Library/u8x8_u8toa.c ****       while( v >= c )
  48              		.loc 1 49 0
  49 000a 8A42     		cmp	r2, r1
  47:/Users/imashio/Electronics/ARM/_Library/u8x8_u8toa.c ****       c = *(u8x8_u8toa_tab+pos);
  50              		.loc 1 47 0
  51 000c 4FF03003 		mov	r3, #48
  52              		.loc 1 49 0
  53 0010 05D8     		bhi	.L2
  54              	.LVL2:
  55              	.L3:
  50:/Users/imashio/Electronics/ARM/_Library/u8x8_u8toa.c ****       {
  51:/Users/imashio/Electronics/ARM/_Library/u8x8_u8toa.c **** 	v -= c;
  56              		.loc 1 51 0
  57 0012 891A     		subs	r1, r1, r2
  58              	.LVL3:
  59 0014 C9B2     		uxtb	r1, r1
  60              	.LVL4:
  52:/Users/imashio/Electronics/ARM/_Library/u8x8_u8toa.c **** 	d++;
  61              		.loc 1 52 0
  62 0016 0133     		adds	r3, r3, #1
ARM GAS  /var/folders/v3/wysfpd052nz8jkbx04pk0ym80000gn/T//ccWvX4gk.s 			page 3


  63              	.LVL5:
  49:/Users/imashio/Electronics/ARM/_Library/u8x8_u8toa.c ****       {
  64              		.loc 1 49 0
  65 0018 9142     		cmp	r1, r2
  66              		.loc 1 52 0
  67 001a DBB2     		uxtb	r3, r3
  68              	.LVL6:
  49:/Users/imashio/Electronics/ARM/_Library/u8x8_u8toa.c ****       {
  69              		.loc 1 49 0
  70 001c F9D2     		bcs	.L3
  71              	.LVL7:
  72              	.L2:
  53:/Users/imashio/Electronics/ARM/_Library/u8x8_u8toa.c ****       }
  54:/Users/imashio/Electronics/ARM/_Library/u8x8_u8toa.c ****       dest[pos] = d;
  73              		.loc 1 54 0 discriminator 2
  74 001e 04F8013F 		strb	r3, [r4, #1]!
  75              	.LVL8:
  45:/Users/imashio/Electronics/ARM/_Library/u8x8_u8toa.c ****   {
  76              		.loc 1 45 0 discriminator 2
  77 0022 B442     		cmp	r4, r6
  78 0024 02D0     		beq	.L4
  79 0026 15F8012F 		ldrb	r2, [r5, #1]!	@ zero_extendqisi2
  80              	.LVL9:
  81 002a EEE7     		b	.L5
  82              	.LVL10:
  83              	.L4:
  55:/Users/imashio/Electronics/ARM/_Library/u8x8_u8toa.c ****   }  
  56:/Users/imashio/Electronics/ARM/_Library/u8x8_u8toa.c ****   dest[3] = '\0';
  84              		.loc 1 56 0
  85 002c 0023     		movs	r3, #0
  86 002e C370     		strb	r3, [r0, #3]
  57:/Users/imashio/Electronics/ARM/_Library/u8x8_u8toa.c ****   return dest;
  58:/Users/imashio/Electronics/ARM/_Library/u8x8_u8toa.c **** }
  87              		.loc 1 58 0
  88 0030 70BC     		pop	{r4, r5, r6}
  89              	.LCFI1:
  90              		.cfi_restore 6
  91              		.cfi_restore 5
  92              		.cfi_restore 4
  93              		.cfi_def_cfa_offset 0
  94              	.LVL11:
  95 0032 7047     		bx	lr
  96              	.L11:
  97              		.align	2
  98              	.L10:
  99 0034 00000000 		.word	.LANCHOR0
 100              		.cfi_endproc
 101              	.LFE0:
 103              		.section	.text.u8x8_u8toa,"ax",%progbits
 104              		.align	1
 105              		.p2align 2,,3
 106              		.global	u8x8_u8toa
 107              		.syntax unified
 108              		.thumb
 109              		.thumb_func
 110              		.fpu fpv4-sp-d16
 112              	u8x8_u8toa:
ARM GAS  /var/folders/v3/wysfpd052nz8jkbx04pk0ym80000gn/T//ccWvX4gk.s 			page 4


 113              	.LFB1:
  59:/Users/imashio/Electronics/ARM/_Library/u8x8_u8toa.c **** 
  60:/Users/imashio/Electronics/ARM/_Library/u8x8_u8toa.c **** /* v = value, d = number of digits */
  61:/Users/imashio/Electronics/ARM/_Library/u8x8_u8toa.c **** const char *u8x8_u8toa(uint8_t v, uint8_t d)
  62:/Users/imashio/Electronics/ARM/_Library/u8x8_u8toa.c **** {
 114              		.loc 1 62 0
 115              		.cfi_startproc
 116              		@ args = 0, pretend = 0, frame = 0
 117              		@ frame_needed = 0, uses_anonymous_args = 0
 118              		@ link register save eliminated.
 119              	.LVL12:
  63:/Users/imashio/Electronics/ARM/_Library/u8x8_u8toa.c ****   static char buf[4];
  64:/Users/imashio/Electronics/ARM/_Library/u8x8_u8toa.c ****   d = 3-d;
 120              		.loc 1 64 0
 121 0000 C1F10301 		rsb	r1, r1, #3
 122              	.LVL13:
 123              	.LBB4:
 124              	.LBB5:
  49:/Users/imashio/Electronics/ARM/_Library/u8x8_u8toa.c ****       {
 125              		.loc 1 49 0
 126 0004 6328     		cmp	r0, #99
 127              	.LBE5:
 128              	.LBE4:
  62:/Users/imashio/Electronics/ARM/_Library/u8x8_u8toa.c ****   static char buf[4];
 129              		.loc 1 62 0
 130 0006 10B4     		push	{r4}
 131              	.LCFI2:
 132              		.cfi_def_cfa_offset 4
 133              		.cfi_offset 4, -4
 134              		.loc 1 64 0
 135 0008 C9B2     		uxtb	r1, r1
 136              	.LVL14:
 137              	.LBB8:
 138              	.LBB6:
  49:/Users/imashio/Electronics/ARM/_Library/u8x8_u8toa.c ****       {
 139              		.loc 1 49 0
 140 000a 23D9     		bls	.L18
  51:/Users/imashio/Electronics/ARM/_Library/u8x8_u8toa.c **** 	d++;
 141              		.loc 1 51 0
 142 000c A0F16403 		sub	r3, r0, #100
 143 0010 DBB2     		uxtb	r3, r3
 144              	.LVL15:
  49:/Users/imashio/Electronics/ARM/_Library/u8x8_u8toa.c ****       {
 145              		.loc 1 49 0
 146 0012 632B     		cmp	r3, #99
 147 0014 20D9     		bls	.L19
  51:/Users/imashio/Electronics/ARM/_Library/u8x8_u8toa.c **** 	d++;
 148              		.loc 1 51 0
 149 0016 3830     		adds	r0, r0, #56
 150              	.LVL16:
 151 0018 C0B2     		uxtb	r0, r0
 152              	.LVL17:
  52:/Users/imashio/Electronics/ARM/_Library/u8x8_u8toa.c ****       }
 153              		.loc 1 52 0
 154 001a 3223     		movs	r3, #50
 155              	.LVL18:
 156              	.L13:
ARM GAS  /var/folders/v3/wysfpd052nz8jkbx04pk0ym80000gn/T//ccWvX4gk.s 			page 5


  54:/Users/imashio/Electronics/ARM/_Library/u8x8_u8toa.c ****   }  
 157              		.loc 1 54 0
 158 001c 104A     		ldr	r2, .L25
  49:/Users/imashio/Electronics/ARM/_Library/u8x8_u8toa.c ****       {
 159              		.loc 1 49 0
 160 001e 0928     		cmp	r0, #9
  54:/Users/imashio/Electronics/ARM/_Library/u8x8_u8toa.c ****   }  
 161              		.loc 1 54 0
 162 0020 1370     		strb	r3, [r2]
 163              	.LVL19:
  47:/Users/imashio/Electronics/ARM/_Library/u8x8_u8toa.c ****       c = *(u8x8_u8toa_tab+pos);
 164              		.loc 1 47 0
 165 0022 4FF03003 		mov	r3, #48
  49:/Users/imashio/Electronics/ARM/_Library/u8x8_u8toa.c ****       {
 166              		.loc 1 49 0
 167 0026 05D9     		bls	.L14
 168              	.LVL20:
 169              	.L15:
  51:/Users/imashio/Electronics/ARM/_Library/u8x8_u8toa.c **** 	d++;
 170              		.loc 1 51 0
 171 0028 0A38     		subs	r0, r0, #10
 172              	.LVL21:
 173 002a C0B2     		uxtb	r0, r0
 174              	.LVL22:
  52:/Users/imashio/Electronics/ARM/_Library/u8x8_u8toa.c ****       }
 175              		.loc 1 52 0
 176 002c 0133     		adds	r3, r3, #1
 177              	.LVL23:
  49:/Users/imashio/Electronics/ARM/_Library/u8x8_u8toa.c ****       {
 178              		.loc 1 49 0
 179 002e 0928     		cmp	r0, #9
  52:/Users/imashio/Electronics/ARM/_Library/u8x8_u8toa.c ****       }
 180              		.loc 1 52 0
 181 0030 DBB2     		uxtb	r3, r3
 182              	.LVL24:
  49:/Users/imashio/Electronics/ARM/_Library/u8x8_u8toa.c ****       {
 183              		.loc 1 49 0
 184 0032 F9D8     		bhi	.L15
 185              	.LVL25:
 186              	.L14:
  54:/Users/imashio/Electronics/ARM/_Library/u8x8_u8toa.c ****   }  
 187              		.loc 1 54 0
 188 0034 5370     		strb	r3, [r2, #1]
 189              	.LVL26:
  47:/Users/imashio/Electronics/ARM/_Library/u8x8_u8toa.c ****       c = *(u8x8_u8toa_tab+pos);
 190              		.loc 1 47 0
 191 0036 3023     		movs	r3, #48
  49:/Users/imashio/Electronics/ARM/_Library/u8x8_u8toa.c ****       {
 192              		.loc 1 49 0
 193 0038 28B1     		cbz	r0, .L16
 194              	.LVL27:
 195              	.L17:
  51:/Users/imashio/Electronics/ARM/_Library/u8x8_u8toa.c **** 	d++;
 196              		.loc 1 51 0
 197 003a 0138     		subs	r0, r0, #1
 198              	.LVL28:
  52:/Users/imashio/Electronics/ARM/_Library/u8x8_u8toa.c ****       }
ARM GAS  /var/folders/v3/wysfpd052nz8jkbx04pk0ym80000gn/T//ccWvX4gk.s 			page 6


 199              		.loc 1 52 0
 200 003c 0133     		adds	r3, r3, #1
 201              	.LVL29:
  49:/Users/imashio/Electronics/ARM/_Library/u8x8_u8toa.c ****       {
 202              		.loc 1 49 0
 203 003e 10F0FF00 		ands	r0, r0, #255
 204              	.LVL30:
  52:/Users/imashio/Electronics/ARM/_Library/u8x8_u8toa.c ****       }
 205              		.loc 1 52 0
 206 0042 DBB2     		uxtb	r3, r3
 207              	.LVL31:
  49:/Users/imashio/Electronics/ARM/_Library/u8x8_u8toa.c ****       {
 208              		.loc 1 49 0
 209 0044 F9D1     		bne	.L17
 210              	.LVL32:
 211              	.L16:
  56:/Users/imashio/Electronics/ARM/_Library/u8x8_u8toa.c ****   return dest;
 212              		.loc 1 56 0
 213 0046 0024     		movs	r4, #0
  54:/Users/imashio/Electronics/ARM/_Library/u8x8_u8toa.c ****   }  
 214              		.loc 1 54 0
 215 0048 9370     		strb	r3, [r2, #2]
 216              	.LVL33:
  56:/Users/imashio/Electronics/ARM/_Library/u8x8_u8toa.c ****   return dest;
 217              		.loc 1 56 0
 218 004a D470     		strb	r4, [r2, #3]
 219              	.LVL34:
 220              	.LBE6:
 221              	.LBE8:
  65:/Users/imashio/Electronics/ARM/_Library/u8x8_u8toa.c ****   return u8x8_u8toap(buf, v) + d;
  66:/Users/imashio/Electronics/ARM/_Library/u8x8_u8toa.c **** }
 222              		.loc 1 66 0
 223 004c 5018     		adds	r0, r2, r1
 224 004e 5DF8044B 		ldr	r4, [sp], #4
 225              	.LCFI3:
 226              		.cfi_remember_state
 227              		.cfi_restore 4
 228              		.cfi_def_cfa_offset 0
 229 0052 7047     		bx	lr
 230              	.LVL35:
 231              	.L18:
 232              	.LCFI4:
 233              		.cfi_restore_state
 234              	.LBB9:
 235              	.LBB7:
  47:/Users/imashio/Electronics/ARM/_Library/u8x8_u8toa.c ****       c = *(u8x8_u8toa_tab+pos);
 236              		.loc 1 47 0
 237 0054 3023     		movs	r3, #48
 238 0056 E1E7     		b	.L13
 239              	.LVL36:
 240              	.L19:
  49:/Users/imashio/Electronics/ARM/_Library/u8x8_u8toa.c ****       {
 241              		.loc 1 49 0
 242 0058 1846     		mov	r0, r3
 243              	.LVL37:
  52:/Users/imashio/Electronics/ARM/_Library/u8x8_u8toa.c ****       }
 244              		.loc 1 52 0
ARM GAS  /var/folders/v3/wysfpd052nz8jkbx04pk0ym80000gn/T//ccWvX4gk.s 			page 7


 245 005a 3123     		movs	r3, #49
 246              	.LVL38:
 247 005c DEE7     		b	.L13
 248              	.L26:
 249 005e 00BF     		.align	2
 250              	.L25:
 251 0060 00000000 		.word	.LANCHOR1
 252              	.LBE7:
 253              	.LBE9:
 254              		.cfi_endproc
 255              	.LFE1:
 257              		.section	.bss.buf.6271,"aw",%nobits
 258              		.align	2
 259              		.set	.LANCHOR1,. + 0
 262              	buf.6271:
 263 0000 00000000 		.space	4
 264              		.section	.rodata.u8x8_u8toa_tab,"a",%progbits
 265              		.align	2
 266              		.set	.LANCHOR0,. + 0
 269              	u8x8_u8toa_tab:
 270 0000 64       		.byte	100
 271 0001 0A       		.byte	10
 272 0002 01       		.byte	1
 273              		.text
 274              	.Letext0:
 275              		.file 2 "/usr/local/gcc-arm-none-eabi-7-2018-q2-update/arm-none-eabi/include/machine/_default_type
 276              		.file 3 "/usr/local/gcc-arm-none-eabi-7-2018-q2-update/arm-none-eabi/include/sys/_stdint.h"
 277              		.file 4 "/Users/imashio/Electronics/ARM/_Library/u8x8.h"
ARM GAS  /var/folders/v3/wysfpd052nz8jkbx04pk0ym80000gn/T//ccWvX4gk.s 			page 8

