ARM GAS  /var/folders/v3/wysfpd052nz8jkbx04pk0ym80000gn/T//ccdqMCmt.s 			page 1


   1              		.cpu cortex-m4
   2              		.eabi_attribute 27, 1
   3              		.eabi_attribute 28, 1
   4              		.eabi_attribute 20, 1
   5              		.eabi_attribute 21, 1
   6              		.eabi_attribute 23, 3
   7              		.eabi_attribute 24, 1
   8              		.eabi_attribute 25, 1
   9              		.eabi_attribute 26, 1
  10              		.eabi_attribute 30, 2
  11              		.eabi_attribute 34, 1
  12              		.eabi_attribute 18, 4
  13              		.file	"u8x8_u16toa.c"
  14              		.text
  15              	.Ltext0:
  16              		.cfi_sections	.debug_frame
  17              		.section	.text.u8x8_u16toap,"ax",%progbits
  18              		.align	1
  19              		.p2align 2,,3
  20              		.global	u8x8_u16toap
  21              		.syntax unified
  22              		.thumb
  23              		.thumb_func
  24              		.fpu fpv4-sp-d16
  26              	u8x8_u16toap:
  27              	.LFB0:
  28              		.file 1 "/Users/imashio/Electronics/ARM/_Library/u8x8_u16toa.c"
   1:/Users/imashio/Electronics/ARM/_Library/u8x8_u16toa.c **** /*
   2:/Users/imashio/Electronics/ARM/_Library/u8x8_u16toa.c **** 
   3:/Users/imashio/Electronics/ARM/_Library/u8x8_u16toa.c ****   u8x8_u16toa.c
   4:/Users/imashio/Electronics/ARM/_Library/u8x8_u16toa.c **** 
   5:/Users/imashio/Electronics/ARM/_Library/u8x8_u16toa.c ****   Universal 8bit Graphics Library (https://github.com/olikraus/u8g2/)
   6:/Users/imashio/Electronics/ARM/_Library/u8x8_u16toa.c **** 
   7:/Users/imashio/Electronics/ARM/_Library/u8x8_u16toa.c ****   Copyright (c) 2016, olikraus@gmail.com
   8:/Users/imashio/Electronics/ARM/_Library/u8x8_u16toa.c ****   All rights reserved.
   9:/Users/imashio/Electronics/ARM/_Library/u8x8_u16toa.c **** 
  10:/Users/imashio/Electronics/ARM/_Library/u8x8_u16toa.c ****   Redistribution and use in source and binary forms, with or without modification, 
  11:/Users/imashio/Electronics/ARM/_Library/u8x8_u16toa.c ****   are permitted provided that the following conditions are met:
  12:/Users/imashio/Electronics/ARM/_Library/u8x8_u16toa.c **** 
  13:/Users/imashio/Electronics/ARM/_Library/u8x8_u16toa.c ****   * Redistributions of source code must retain the above copyright notice, this list 
  14:/Users/imashio/Electronics/ARM/_Library/u8x8_u16toa.c ****     of conditions and the following disclaimer.
  15:/Users/imashio/Electronics/ARM/_Library/u8x8_u16toa.c ****     
  16:/Users/imashio/Electronics/ARM/_Library/u8x8_u16toa.c ****   * Redistributions in binary form must reproduce the above copyright notice, this 
  17:/Users/imashio/Electronics/ARM/_Library/u8x8_u16toa.c ****     list of conditions and the following disclaimer in the documentation and/or other 
  18:/Users/imashio/Electronics/ARM/_Library/u8x8_u16toa.c ****     materials provided with the distribution.
  19:/Users/imashio/Electronics/ARM/_Library/u8x8_u16toa.c **** 
  20:/Users/imashio/Electronics/ARM/_Library/u8x8_u16toa.c ****   THIS SOFTWARE IS PROVIDED BY THE COPYRIGHT HOLDERS AND 
  21:/Users/imashio/Electronics/ARM/_Library/u8x8_u16toa.c ****   CONTRIBUTORS "AS IS" AND ANY EXPRESS OR IMPLIED WARRANTIES, 
  22:/Users/imashio/Electronics/ARM/_Library/u8x8_u16toa.c ****   INCLUDING, BUT NOT LIMITED TO, THE IMPLIED WARRANTIES OF 
  23:/Users/imashio/Electronics/ARM/_Library/u8x8_u16toa.c ****   MERCHANTABILITY AND FITNESS FOR A PARTICULAR PURPOSE ARE 
  24:/Users/imashio/Electronics/ARM/_Library/u8x8_u16toa.c ****   DISCLAIMED. IN NO EVENT SHALL THE COPYRIGHT HOLDER OR 
  25:/Users/imashio/Electronics/ARM/_Library/u8x8_u16toa.c ****   CONTRIBUTORS BE LIABLE FOR ANY DIRECT, INDIRECT, INCIDENTAL, 
  26:/Users/imashio/Electronics/ARM/_Library/u8x8_u16toa.c ****   SPECIAL, EXEMPLARY, OR CONSEQUENTIAL DAMAGES (INCLUDING, BUT 
  27:/Users/imashio/Electronics/ARM/_Library/u8x8_u16toa.c ****   NOT LIMITED TO, PROCUREMENT OF SUBSTITUTE GOODS OR SERVICES; 
  28:/Users/imashio/Electronics/ARM/_Library/u8x8_u16toa.c ****   LOSS OF USE, DATA, OR PROFITS; OR BUSINESS INTERRUPTION) HOWEVER 
  29:/Users/imashio/Electronics/ARM/_Library/u8x8_u16toa.c ****   CAUSED AND ON ANY THEORY OF LIABILITY, WHETHER IN CONTRACT, 
  30:/Users/imashio/Electronics/ARM/_Library/u8x8_u16toa.c ****   STRICT LIABILITY, OR TORT (INCLUDING NEGLIGENCE OR OTHERWISE) 
ARM GAS  /var/folders/v3/wysfpd052nz8jkbx04pk0ym80000gn/T//ccdqMCmt.s 			page 2


  31:/Users/imashio/Electronics/ARM/_Library/u8x8_u16toa.c ****   ARISING IN ANY WAY OUT OF THE USE OF THIS SOFTWARE, EVEN IF 
  32:/Users/imashio/Electronics/ARM/_Library/u8x8_u16toa.c ****   ADVISED OF THE POSSIBILITY OF SUCH DAMAGE.  
  33:/Users/imashio/Electronics/ARM/_Library/u8x8_u16toa.c **** 
  34:/Users/imashio/Electronics/ARM/_Library/u8x8_u16toa.c ****   
  35:/Users/imashio/Electronics/ARM/_Library/u8x8_u16toa.c **** */
  36:/Users/imashio/Electronics/ARM/_Library/u8x8_u16toa.c **** 
  37:/Users/imashio/Electronics/ARM/_Library/u8x8_u16toa.c **** 
  38:/Users/imashio/Electronics/ARM/_Library/u8x8_u16toa.c **** #include "u8x8.h"
  39:/Users/imashio/Electronics/ARM/_Library/u8x8_u16toa.c **** 
  40:/Users/imashio/Electronics/ARM/_Library/u8x8_u16toa.c **** const char *u8x8_u16toap(char * dest, uint16_t v)
  41:/Users/imashio/Electronics/ARM/_Library/u8x8_u16toa.c **** {
  29              		.loc 1 41 0
  30              		.cfi_startproc
  31              		@ args = 0, pretend = 0, frame = 0
  32              		@ frame_needed = 0, uses_anonymous_args = 0
  33              		@ link register save eliminated.
  34              	.LVL0:
  35 0000 70B4     		push	{r4, r5, r6}
  36              	.LCFI0:
  37              		.cfi_def_cfa_offset 12
  38              		.cfi_offset 4, -12
  39              		.cfi_offset 5, -8
  40              		.cfi_offset 6, -4
  42:/Users/imashio/Electronics/ARM/_Library/u8x8_u16toa.c ****   uint8_t pos;
  43:/Users/imashio/Electronics/ARM/_Library/u8x8_u16toa.c ****   uint8_t d;
  44:/Users/imashio/Electronics/ARM/_Library/u8x8_u16toa.c ****   uint16_t c;
  45:/Users/imashio/Electronics/ARM/_Library/u8x8_u16toa.c ****   c = 10000;
  46:/Users/imashio/Electronics/ARM/_Library/u8x8_u16toa.c ****   for( pos = 0; pos < 5; pos++ )
  47:/Users/imashio/Electronics/ARM/_Library/u8x8_u16toa.c ****   {
  48:/Users/imashio/Electronics/ARM/_Library/u8x8_u16toa.c ****       d = '0';
  49:/Users/imashio/Electronics/ARM/_Library/u8x8_u16toa.c ****       while( v >= c )
  50:/Users/imashio/Electronics/ARM/_Library/u8x8_u16toa.c ****       {
  51:/Users/imashio/Electronics/ARM/_Library/u8x8_u16toa.c **** 	v -= c;
  52:/Users/imashio/Electronics/ARM/_Library/u8x8_u16toa.c **** 	d++;
  53:/Users/imashio/Electronics/ARM/_Library/u8x8_u16toa.c ****       }
  54:/Users/imashio/Electronics/ARM/_Library/u8x8_u16toa.c ****       dest[pos] = d;
  55:/Users/imashio/Electronics/ARM/_Library/u8x8_u16toa.c ****       c /= 10;
  41              		.loc 1 55 0
  42 0002 0D4D     		ldr	r5, .L10
  43 0004 441E     		subs	r4, r0, #1
  44 0006 061D     		adds	r6, r0, #4
  45:/Users/imashio/Electronics/ARM/_Library/u8x8_u16toa.c ****   for( pos = 0; pos < 5; pos++ )
  45              		.loc 1 45 0
  46 0008 42F21072 		movw	r2, #10000
  47              	.LVL1:
  48              	.L2:
  49:/Users/imashio/Electronics/ARM/_Library/u8x8_u16toa.c ****       {
  49              		.loc 1 49 0
  50 000c 9142     		cmp	r1, r2
  48:/Users/imashio/Electronics/ARM/_Library/u8x8_u16toa.c ****       while( v >= c )
  51              		.loc 1 48 0
  52 000e 4FF03003 		mov	r3, #48
  49:/Users/imashio/Electronics/ARM/_Library/u8x8_u16toa.c ****       {
  53              		.loc 1 49 0
  54 0012 05D3     		bcc	.L5
  55              	.LVL2:
  56              	.L3:
ARM GAS  /var/folders/v3/wysfpd052nz8jkbx04pk0ym80000gn/T//ccdqMCmt.s 			page 3


  51:/Users/imashio/Electronics/ARM/_Library/u8x8_u16toa.c **** 	d++;
  57              		.loc 1 51 0
  58 0014 891A     		subs	r1, r1, r2
  59              	.LVL3:
  60 0016 89B2     		uxth	r1, r1
  61              	.LVL4:
  52:/Users/imashio/Electronics/ARM/_Library/u8x8_u16toa.c ****       }
  62              		.loc 1 52 0
  63 0018 0133     		adds	r3, r3, #1
  64              	.LVL5:
  49:/Users/imashio/Electronics/ARM/_Library/u8x8_u16toa.c ****       {
  65              		.loc 1 49 0
  66 001a 9142     		cmp	r1, r2
  52:/Users/imashio/Electronics/ARM/_Library/u8x8_u16toa.c ****       }
  67              		.loc 1 52 0
  68 001c DBB2     		uxtb	r3, r3
  69              	.LVL6:
  49:/Users/imashio/Electronics/ARM/_Library/u8x8_u16toa.c ****       {
  70              		.loc 1 49 0
  71 001e F9D2     		bcs	.L3
  72              	.LVL7:
  73              	.L5:
  54:/Users/imashio/Electronics/ARM/_Library/u8x8_u16toa.c ****       c /= 10;
  74              		.loc 1 54 0 discriminator 2
  75 0020 04F8013F 		strb	r3, [r4, #1]!
  76              		.loc 1 55 0 discriminator 2
  77 0024 A5FB0232 		umull	r3, r2, r5, r2
  78              	.LVL8:
  46:/Users/imashio/Electronics/ARM/_Library/u8x8_u16toa.c ****   {
  79              		.loc 1 46 0 discriminator 2
  80 0028 B442     		cmp	r4, r6
  81              		.loc 1 55 0 discriminator 2
  82 002a 4FEAD202 		lsr	r2, r2, #3
  83              	.LVL9:
  46:/Users/imashio/Electronics/ARM/_Library/u8x8_u16toa.c ****   {
  84              		.loc 1 46 0 discriminator 2
  85 002e EDD1     		bne	.L2
  56:/Users/imashio/Electronics/ARM/_Library/u8x8_u16toa.c ****   }  
  57:/Users/imashio/Electronics/ARM/_Library/u8x8_u16toa.c ****   dest[5] = '\0';
  86              		.loc 1 57 0
  87 0030 0023     		movs	r3, #0
  88 0032 4371     		strb	r3, [r0, #5]
  58:/Users/imashio/Electronics/ARM/_Library/u8x8_u16toa.c ****   return dest;
  59:/Users/imashio/Electronics/ARM/_Library/u8x8_u16toa.c **** }
  89              		.loc 1 59 0
  90 0034 70BC     		pop	{r4, r5, r6}
  91              	.LCFI1:
  92              		.cfi_restore 6
  93              		.cfi_restore 5
  94              		.cfi_restore 4
  95              		.cfi_def_cfa_offset 0
  96 0036 7047     		bx	lr
  97              	.L11:
  98              		.align	2
  99              	.L10:
 100 0038 CDCCCCCC 		.word	-858993459
 101              		.cfi_endproc
ARM GAS  /var/folders/v3/wysfpd052nz8jkbx04pk0ym80000gn/T//ccdqMCmt.s 			page 4


 102              	.LFE0:
 104              		.section	.text.u8x8_u16toa,"ax",%progbits
 105              		.align	1
 106              		.p2align 2,,3
 107              		.global	u8x8_u16toa
 108              		.syntax unified
 109              		.thumb
 110              		.thumb_func
 111              		.fpu fpv4-sp-d16
 113              	u8x8_u16toa:
 114              	.LFB1:
  60:/Users/imashio/Electronics/ARM/_Library/u8x8_u16toa.c **** 
  61:/Users/imashio/Electronics/ARM/_Library/u8x8_u16toa.c **** /* v = value, d = number of digits */
  62:/Users/imashio/Electronics/ARM/_Library/u8x8_u16toa.c **** const char *u8x8_u16toa(uint16_t v, uint8_t d)
  63:/Users/imashio/Electronics/ARM/_Library/u8x8_u16toa.c **** {
 115              		.loc 1 63 0
 116              		.cfi_startproc
 117              		@ args = 0, pretend = 0, frame = 0
 118              		@ frame_needed = 0, uses_anonymous_args = 0
 119              		@ link register save eliminated.
 120              	.LVL10:
 121 0000 F0B4     		push	{r4, r5, r6, r7}
 122              	.LCFI2:
 123              		.cfi_def_cfa_offset 16
 124              		.cfi_offset 4, -16
 125              		.cfi_offset 5, -12
 126              		.cfi_offset 6, -8
 127              		.cfi_offset 7, -4
 128 0002 104E     		ldr	r6, .L20
 129              	.LBB4:
 130              	.LBB5:
  55:/Users/imashio/Electronics/ARM/_Library/u8x8_u16toa.c ****   }  
 131              		.loc 1 55 0
 132 0004 104D     		ldr	r5, .L20+4
 133              	.LBE5:
 134              	.LBE4:
  64:/Users/imashio/Electronics/ARM/_Library/u8x8_u16toa.c ****   static char buf[6];
  65:/Users/imashio/Electronics/ARM/_Library/u8x8_u16toa.c ****   d = 5-d;
 135              		.loc 1 65 0
 136 0006 C1F10501 		rsb	r1, r1, #5
 137              	.LVL11:
 138 000a CFB2     		uxtb	r7, r1
 139              	.LVL12:
 140 000c 741D     		adds	r4, r6, #5
 141 000e 3146     		mov	r1, r6
 142              	.LBB8:
 143              	.LBB6:
  45:/Users/imashio/Electronics/ARM/_Library/u8x8_u16toa.c ****   for( pos = 0; pos < 5; pos++ )
 144              		.loc 1 45 0
 145 0010 42F21072 		movw	r2, #10000
 146              	.LVL13:
 147              	.L13:
  49:/Users/imashio/Electronics/ARM/_Library/u8x8_u16toa.c ****       {
 148              		.loc 1 49 0
 149 0014 8242     		cmp	r2, r0
  48:/Users/imashio/Electronics/ARM/_Library/u8x8_u16toa.c ****       while( v >= c )
 150              		.loc 1 48 0
ARM GAS  /var/folders/v3/wysfpd052nz8jkbx04pk0ym80000gn/T//ccdqMCmt.s 			page 5


 151 0016 4FF03003 		mov	r3, #48
  49:/Users/imashio/Electronics/ARM/_Library/u8x8_u16toa.c ****       {
 152              		.loc 1 49 0
 153 001a 05D8     		bhi	.L16
 154              	.LVL14:
 155              	.L14:
  51:/Users/imashio/Electronics/ARM/_Library/u8x8_u16toa.c **** 	d++;
 156              		.loc 1 51 0
 157 001c 801A     		subs	r0, r0, r2
 158              	.LVL15:
 159 001e 80B2     		uxth	r0, r0
 160              	.LVL16:
  52:/Users/imashio/Electronics/ARM/_Library/u8x8_u16toa.c ****       }
 161              		.loc 1 52 0
 162 0020 0133     		adds	r3, r3, #1
 163              	.LVL17:
  49:/Users/imashio/Electronics/ARM/_Library/u8x8_u16toa.c ****       {
 164              		.loc 1 49 0
 165 0022 9042     		cmp	r0, r2
  52:/Users/imashio/Electronics/ARM/_Library/u8x8_u16toa.c ****       }
 166              		.loc 1 52 0
 167 0024 DBB2     		uxtb	r3, r3
 168              	.LVL18:
  49:/Users/imashio/Electronics/ARM/_Library/u8x8_u16toa.c ****       {
 169              		.loc 1 49 0
 170 0026 F9D2     		bcs	.L14
 171              	.LVL19:
 172              	.L16:
  54:/Users/imashio/Electronics/ARM/_Library/u8x8_u16toa.c ****       c /= 10;
 173              		.loc 1 54 0
 174 0028 01F8013B 		strb	r3, [r1], #1
 175              	.LVL20:
  55:/Users/imashio/Electronics/ARM/_Library/u8x8_u16toa.c ****   }  
 176              		.loc 1 55 0
 177 002c A5FB0232 		umull	r3, r2, r5, r2
 178              	.LVL21:
  46:/Users/imashio/Electronics/ARM/_Library/u8x8_u16toa.c ****   {
 179              		.loc 1 46 0
 180 0030 A142     		cmp	r1, r4
  55:/Users/imashio/Electronics/ARM/_Library/u8x8_u16toa.c ****   }  
 181              		.loc 1 55 0
 182 0032 4FEAD202 		lsr	r2, r2, #3
 183              	.LVL22:
  46:/Users/imashio/Electronics/ARM/_Library/u8x8_u16toa.c ****   {
 184              		.loc 1 46 0
 185 0036 EDD1     		bne	.L13
  57:/Users/imashio/Electronics/ARM/_Library/u8x8_u16toa.c ****   return dest;
 186              		.loc 1 57 0
 187 0038 0023     		movs	r3, #0
 188              	.LBE6:
 189              	.LBE8:
  66:/Users/imashio/Electronics/ARM/_Library/u8x8_u16toa.c ****   return u8x8_u16toap(buf, v) + d;
  67:/Users/imashio/Electronics/ARM/_Library/u8x8_u16toa.c **** }
 190              		.loc 1 67 0
 191 003a F019     		adds	r0, r6, r7
 192              	.LVL23:
 193              	.LBB9:
ARM GAS  /var/folders/v3/wysfpd052nz8jkbx04pk0ym80000gn/T//ccdqMCmt.s 			page 6


 194              	.LBB7:
  57:/Users/imashio/Electronics/ARM/_Library/u8x8_u16toa.c ****   return dest;
 195              		.loc 1 57 0
 196 003c 7371     		strb	r3, [r6, #5]
 197              	.LVL24:
 198              	.LBE7:
 199              	.LBE9:
 200              		.loc 1 67 0
 201 003e F0BC     		pop	{r4, r5, r6, r7}
 202              	.LCFI3:
 203              		.cfi_restore 7
 204              		.cfi_restore 6
 205              		.cfi_restore 5
 206              		.cfi_restore 4
 207              		.cfi_def_cfa_offset 0
 208              	.LVL25:
 209 0040 7047     		bx	lr
 210              	.L21:
 211 0042 00BF     		.align	2
 212              	.L20:
 213 0044 00000000 		.word	.LANCHOR0
 214 0048 CDCCCCCC 		.word	-858993459
 215              		.cfi_endproc
 216              	.LFE1:
 218              		.section	.bss.buf.6270,"aw",%nobits
 219              		.align	2
 220              		.set	.LANCHOR0,. + 0
 223              	buf.6270:
 224 0000 00000000 		.space	6
 224      0000
 225              		.text
 226              	.Letext0:
 227              		.file 2 "/usr/local/gcc-arm-none-eabi-7-2018-q2-update/arm-none-eabi/include/machine/_default_type
 228              		.file 3 "/usr/local/gcc-arm-none-eabi-7-2018-q2-update/arm-none-eabi/include/sys/_stdint.h"
 229              		.file 4 "/Users/imashio/Electronics/ARM/_Library/u8x8.h"
ARM GAS  /var/folders/v3/wysfpd052nz8jkbx04pk0ym80000gn/T//ccdqMCmt.s 			page 7

