ARM GAS  /var/folders/v3/wysfpd052nz8jkbx04pk0ym80000gn/T//ccBfghp5.s 			page 1


   1              		.cpu cortex-m4
   2              		.eabi_attribute 27, 1
   3              		.eabi_attribute 28, 1
   4              		.eabi_attribute 20, 1
   5              		.eabi_attribute 21, 1
   6              		.eabi_attribute 23, 3
   7              		.eabi_attribute 24, 1
   8              		.eabi_attribute 25, 1
   9              		.eabi_attribute 26, 1
  10              		.eabi_attribute 30, 1
  11              		.eabi_attribute 34, 1
  12              		.eabi_attribute 18, 4
  13              		.file	"u8x8_d_uc1638.c"
  14              		.text
  15              	.Ltext0:
  16              		.cfi_sections	.debug_frame
  17              		.section	.text.u8x8_d_uc1638_common,"ax",%progbits
  18              		.align	1
  19              		.global	u8x8_d_uc1638_common
  20              		.syntax unified
  21              		.thumb
  22              		.thumb_func
  23              		.fpu fpv4-sp-d16
  25              	u8x8_d_uc1638_common:
  26              	.LFB0:
  27              		.file 1 "/Users/imashio/Electronics/ARM/_Library/u8x8_d_uc1638.c"
   1:/Users/imashio/Electronics/ARM/_Library/u8x8_d_uc1638.c **** /*
   2:/Users/imashio/Electronics/ARM/_Library/u8x8_d_uc1638.c **** 
   3:/Users/imashio/Electronics/ARM/_Library/u8x8_d_uc1638.c ****   u8x8_d_uc1638.c
   4:/Users/imashio/Electronics/ARM/_Library/u8x8_d_uc1638.c ****   
   5:/Users/imashio/Electronics/ARM/_Library/u8x8_d_uc1638.c ****   Universal 8bit Graphics Library (https://github.com/olikraus/u8g2/)
   6:/Users/imashio/Electronics/ARM/_Library/u8x8_d_uc1638.c **** 
   7:/Users/imashio/Electronics/ARM/_Library/u8x8_d_uc1638.c ****   Copyright (c) 2016, olikraus@gmail.com
   8:/Users/imashio/Electronics/ARM/_Library/u8x8_d_uc1638.c ****   All rights reserved.
   9:/Users/imashio/Electronics/ARM/_Library/u8x8_d_uc1638.c **** 
  10:/Users/imashio/Electronics/ARM/_Library/u8x8_d_uc1638.c ****   Redistribution and use in source and binary forms, with or without modification, 
  11:/Users/imashio/Electronics/ARM/_Library/u8x8_d_uc1638.c ****   are permitted provided that the following conditions are met:
  12:/Users/imashio/Electronics/ARM/_Library/u8x8_d_uc1638.c **** 
  13:/Users/imashio/Electronics/ARM/_Library/u8x8_d_uc1638.c ****   * Redistributions of source code must retain the above copyright notice, this list 
  14:/Users/imashio/Electronics/ARM/_Library/u8x8_d_uc1638.c ****     of conditions and the following disclaimer.
  15:/Users/imashio/Electronics/ARM/_Library/u8x8_d_uc1638.c ****     
  16:/Users/imashio/Electronics/ARM/_Library/u8x8_d_uc1638.c ****   * Redistributions in binary form must reproduce the above copyright notice, this 
  17:/Users/imashio/Electronics/ARM/_Library/u8x8_d_uc1638.c ****     list of conditions and the following disclaimer in the documentation and/or other 
  18:/Users/imashio/Electronics/ARM/_Library/u8x8_d_uc1638.c ****     materials provided with the distribution.
  19:/Users/imashio/Electronics/ARM/_Library/u8x8_d_uc1638.c **** 
  20:/Users/imashio/Electronics/ARM/_Library/u8x8_d_uc1638.c ****   THIS SOFTWARE IS PROVIDED BY THE COPYRIGHT HOLDERS AND 
  21:/Users/imashio/Electronics/ARM/_Library/u8x8_d_uc1638.c ****   CONTRIBUTORS "AS IS" AND ANY EXPRESS OR IMPLIED WARRANTIES, 
  22:/Users/imashio/Electronics/ARM/_Library/u8x8_d_uc1638.c ****   INCLUDING, BUT NOT LIMITED TO, THE IMPLIED WARRANTIES OF 
  23:/Users/imashio/Electronics/ARM/_Library/u8x8_d_uc1638.c ****   MERCHANTABILITY AND FITNESS FOR A PARTICULAR PURPOSE ARE 
  24:/Users/imashio/Electronics/ARM/_Library/u8x8_d_uc1638.c ****   DISCLAIMED. IN NO EVENT SHALL THE COPYRIGHT HOLDER OR 
  25:/Users/imashio/Electronics/ARM/_Library/u8x8_d_uc1638.c ****   CONTRIBUTORS BE LIABLE FOR ANY DIRECT, INDIRECT, INCIDENTAL, 
  26:/Users/imashio/Electronics/ARM/_Library/u8x8_d_uc1638.c ****   SPECIAL, EXEMPLARY, OR CONSEQUENTIAL DAMAGES (INCLUDING, BUT 
  27:/Users/imashio/Electronics/ARM/_Library/u8x8_d_uc1638.c ****   NOT LIMITED TO, PROCUREMENT OF SUBSTITUTE GOODS OR SERVICES; 
  28:/Users/imashio/Electronics/ARM/_Library/u8x8_d_uc1638.c ****   LOSS OF USE, DATA, OR PROFITS; OR BUSINESS INTERRUPTION) HOWEVER 
  29:/Users/imashio/Electronics/ARM/_Library/u8x8_d_uc1638.c ****   CAUSED AND ON ANY THEORY OF LIABILITY, WHETHER IN CONTRACT, 
  30:/Users/imashio/Electronics/ARM/_Library/u8x8_d_uc1638.c ****   STRICT LIABILITY, OR TORT (INCLUDING NEGLIGENCE OR OTHERWISE) 
  31:/Users/imashio/Electronics/ARM/_Library/u8x8_d_uc1638.c ****   ARISING IN ANY WAY OUT OF THE USE OF THIS SOFTWARE, EVEN IF 
ARM GAS  /var/folders/v3/wysfpd052nz8jkbx04pk0ym80000gn/T//ccBfghp5.s 			page 2


  32:/Users/imashio/Electronics/ARM/_Library/u8x8_d_uc1638.c ****   ADVISED OF THE POSSIBILITY OF SUCH DAMAGE.  
  33:/Users/imashio/Electronics/ARM/_Library/u8x8_d_uc1638.c **** 
  34:/Users/imashio/Electronics/ARM/_Library/u8x8_d_uc1638.c **** 
  35:/Users/imashio/Electronics/ARM/_Library/u8x8_d_uc1638.c ****   
  36:/Users/imashio/Electronics/ARM/_Library/u8x8_d_uc1638.c **** */
  37:/Users/imashio/Electronics/ARM/_Library/u8x8_d_uc1638.c **** #include "u8x8.h"
  38:/Users/imashio/Electronics/ARM/_Library/u8x8_d_uc1638.c **** 
  39:/Users/imashio/Electronics/ARM/_Library/u8x8_d_uc1638.c **** 
  40:/Users/imashio/Electronics/ARM/_Library/u8x8_d_uc1638.c **** 
  41:/Users/imashio/Electronics/ARM/_Library/u8x8_d_uc1638.c **** 
  42:/Users/imashio/Electronics/ARM/_Library/u8x8_d_uc1638.c **** 
  43:/Users/imashio/Electronics/ARM/_Library/u8x8_d_uc1638.c **** static const uint8_t u8x8_d_uc1638_powersave0_seq[] = {
  44:/Users/imashio/Electronics/ARM/_Library/u8x8_d_uc1638.c ****   U8X8_START_TRANSFER(),             	/* enable chip, delay is part of the transfer start */
  45:/Users/imashio/Electronics/ARM/_Library/u8x8_d_uc1638.c ****   U8X8_CA(0x0c9, 0x0ad),		                /* display on */   /* UC1638 B/W mode */
  46:/Users/imashio/Electronics/ARM/_Library/u8x8_d_uc1638.c ****   U8X8_END_TRANSFER(),             	/* disable chip */
  47:/Users/imashio/Electronics/ARM/_Library/u8x8_d_uc1638.c ****   U8X8_END()             			/* end of sequence */
  48:/Users/imashio/Electronics/ARM/_Library/u8x8_d_uc1638.c **** };
  49:/Users/imashio/Electronics/ARM/_Library/u8x8_d_uc1638.c **** 
  50:/Users/imashio/Electronics/ARM/_Library/u8x8_d_uc1638.c **** static const uint8_t u8x8_d_uc1638_powersave1_seq[] = {
  51:/Users/imashio/Electronics/ARM/_Library/u8x8_d_uc1638.c ****   U8X8_START_TRANSFER(),             	/* enable chip, delay is part of the transfer start */
  52:/Users/imashio/Electronics/ARM/_Library/u8x8_d_uc1638.c ****   U8X8_CA(0x0c9, 0x0ac),		                /* display off */   /* UC1638 */
  53:/Users/imashio/Electronics/ARM/_Library/u8x8_d_uc1638.c ****   U8X8_END_TRANSFER(),             	/* disable chip */
  54:/Users/imashio/Electronics/ARM/_Library/u8x8_d_uc1638.c ****   U8X8_END()             			/* end of sequence */
  55:/Users/imashio/Electronics/ARM/_Library/u8x8_d_uc1638.c **** };
  56:/Users/imashio/Electronics/ARM/_Library/u8x8_d_uc1638.c **** 
  57:/Users/imashio/Electronics/ARM/_Library/u8x8_d_uc1638.c **** static const uint8_t u8x8_d_uc1638_flip0_seq[] = {
  58:/Users/imashio/Electronics/ARM/_Library/u8x8_d_uc1638.c ****   U8X8_START_TRANSFER(),             	/* enable chip, delay is part of the transfer start */
  59:/Users/imashio/Electronics/ARM/_Library/u8x8_d_uc1638.c ****   U8X8_C(0x0c4),            	/* LCD Mapping */    /* UC1638*/
  60:/Users/imashio/Electronics/ARM/_Library/u8x8_d_uc1638.c ****   U8X8_END_TRANSFER(),             	/* disable chip */
  61:/Users/imashio/Electronics/ARM/_Library/u8x8_d_uc1638.c ****   U8X8_END()             			/* end of sequence */
  62:/Users/imashio/Electronics/ARM/_Library/u8x8_d_uc1638.c **** };
  63:/Users/imashio/Electronics/ARM/_Library/u8x8_d_uc1638.c **** 
  64:/Users/imashio/Electronics/ARM/_Library/u8x8_d_uc1638.c **** static const uint8_t u8x8_d_uc1638_flip1_seq[] = {
  65:/Users/imashio/Electronics/ARM/_Library/u8x8_d_uc1638.c ****   U8X8_START_TRANSFER(),             	/* enable chip, delay is part of the transfer start */
  66:/Users/imashio/Electronics/ARM/_Library/u8x8_d_uc1638.c ****   U8X8_C(0x0c2),            	/* LCD Mapping */    /* UC1638*/
  67:/Users/imashio/Electronics/ARM/_Library/u8x8_d_uc1638.c ****   U8X8_END_TRANSFER(),             	/* disable chip */
  68:/Users/imashio/Electronics/ARM/_Library/u8x8_d_uc1638.c ****   U8X8_END()             			/* end of sequence */
  69:/Users/imashio/Electronics/ARM/_Library/u8x8_d_uc1638.c **** };
  70:/Users/imashio/Electronics/ARM/_Library/u8x8_d_uc1638.c **** 
  71:/Users/imashio/Electronics/ARM/_Library/u8x8_d_uc1638.c **** 
  72:/Users/imashio/Electronics/ARM/_Library/u8x8_d_uc1638.c **** uint8_t u8x8_d_uc1638_common(u8x8_t *u8x8, uint8_t msg, uint8_t arg_int, void *arg_ptr)
  73:/Users/imashio/Electronics/ARM/_Library/u8x8_d_uc1638.c **** {
  28              		.loc 1 73 0
  29              		.cfi_startproc
  30              		@ args = 0, pretend = 0, frame = 0
  31              		@ frame_needed = 0, uses_anonymous_args = 0
  32              	.LVL0:
  33 0000 F8B5     		push	{r3, r4, r5, r6, r7, lr}
  34              	.LCFI0:
  35              		.cfi_def_cfa_offset 24
  36              		.cfi_offset 3, -24
  37              		.cfi_offset 4, -20
  38              		.cfi_offset 5, -16
  39              		.cfi_offset 6, -12
  40              		.cfi_offset 7, -8
  41              		.cfi_offset 14, -4
  42 0002 0546     		mov	r5, r0
ARM GAS  /var/folders/v3/wysfpd052nz8jkbx04pk0ym80000gn/T//ccBfghp5.s 			page 3


  43 0004 1446     		mov	r4, r2
  44 0006 1F46     		mov	r7, r3
  74:/Users/imashio/Electronics/ARM/_Library/u8x8_d_uc1638.c ****   uint8_t x, y, c;
  75:/Users/imashio/Electronics/ARM/_Library/u8x8_d_uc1638.c ****   uint8_t *ptr;
  76:/Users/imashio/Electronics/ARM/_Library/u8x8_d_uc1638.c ****   switch(msg)
  45              		.loc 1 76 0
  46 0008 0B39     		subs	r1, r1, #11
  47              	.LVL1:
  48 000a 0429     		cmp	r1, #4
  49 000c 65D8     		bhi	.L11
  50 000e DFE801F0 		tbb	[pc, r1]
  51              	.LVL2:
  52              	.L4:
  53 0012 39       		.byte	(.L3-.L4)/2
  54 0013 64       		.byte	(.L11-.L4)/2
  55 0014 44       		.byte	(.L5-.L4)/2
  56 0015 55       		.byte	(.L6-.L4)/2
  57 0016 03       		.byte	(.L7-.L4)/2
  58 0017 00       		.p2align 1
  59              	.L7:
  77:/Users/imashio/Electronics/ARM/_Library/u8x8_d_uc1638.c ****   {
  78:/Users/imashio/Electronics/ARM/_Library/u8x8_d_uc1638.c ****     case U8X8_MSG_DISPLAY_DRAW_TILE:
  79:/Users/imashio/Electronics/ARM/_Library/u8x8_d_uc1638.c ****       u8x8_cad_StartTransfer(u8x8);
  60              		.loc 1 79 0
  61 0018 FFF7FEFF 		bl	u8x8_cad_StartTransfer
  62              	.LVL3:
  80:/Users/imashio/Electronics/ARM/_Library/u8x8_d_uc1638.c ****     
  81:/Users/imashio/Electronics/ARM/_Library/u8x8_d_uc1638.c ****       x = ((u8x8_tile_t *)arg_ptr)->x_pos;
  63              		.loc 1 81 0
  64 001c 7E79     		ldrb	r6, [r7, #5]	@ zero_extendqisi2
  65              	.LVL4:
  82:/Users/imashio/Electronics/ARM/_Library/u8x8_d_uc1638.c ****       x *= 8;
  66              		.loc 1 82 0
  67 001e F600     		lsls	r6, r6, #3
  68              	.LVL5:
  69 0020 F6B2     		uxtb	r6, r6
  70              	.LVL6:
  83:/Users/imashio/Electronics/ARM/_Library/u8x8_d_uc1638.c **** 
  84:/Users/imashio/Electronics/ARM/_Library/u8x8_d_uc1638.c ****       u8x8_cad_SendCmd(u8x8, 0x004);  /* UC1638 */
  71              		.loc 1 84 0
  72 0022 0421     		movs	r1, #4
  73 0024 2846     		mov	r0, r5
  74 0026 FFF7FEFF 		bl	u8x8_cad_SendCmd
  75              	.LVL7:
  85:/Users/imashio/Electronics/ARM/_Library/u8x8_d_uc1638.c ****       u8x8_cad_SendArg(u8x8, x);
  76              		.loc 1 85 0
  77 002a 3146     		mov	r1, r6
  78 002c 2846     		mov	r0, r5
  79 002e FFF7FEFF 		bl	u8x8_cad_SendArg
  80              	.LVL8:
  86:/Users/imashio/Electronics/ARM/_Library/u8x8_d_uc1638.c ****     
  87:/Users/imashio/Electronics/ARM/_Library/u8x8_d_uc1638.c ****       y = ((u8x8_tile_t *)arg_ptr)->y_pos;
  81              		.loc 1 87 0
  82 0032 BB79     		ldrb	r3, [r7, #6]	@ zero_extendqisi2
  83              	.LVL9:
  88:/Users/imashio/Electronics/ARM/_Library/u8x8_d_uc1638.c ****       y += u8x8->x_offset;
  84              		.loc 1 88 0
ARM GAS  /var/folders/v3/wysfpd052nz8jkbx04pk0ym80000gn/T//ccBfghp5.s 			page 4


  85 0034 AE7F     		ldrb	r6, [r5, #30]	@ zero_extendqisi2
  86              	.LVL10:
  87 0036 1E44     		add	r6, r6, r3
  88 0038 F6B2     		uxtb	r6, r6
  89              	.LVL11:
  89:/Users/imashio/Electronics/ARM/_Library/u8x8_d_uc1638.c ****       y *= 2;		/* for B/W mode, use only every second page */
  90              		.loc 1 89 0
  91 003a 7600     		lsls	r6, r6, #1
  92              	.LVL12:
  93 003c F6B2     		uxtb	r6, r6
  94              	.LVL13:
  90:/Users/imashio/Electronics/ARM/_Library/u8x8_d_uc1638.c **** 
  91:/Users/imashio/Electronics/ARM/_Library/u8x8_d_uc1638.c ****       u8x8_cad_SendCmd(u8x8, 0x060 | (y&15));  /* UC1638 */
  95              		.loc 1 91 0
  96 003e 06F00E01 		and	r1, r6, #14
  97 0042 41F06001 		orr	r1, r1, #96
  98 0046 2846     		mov	r0, r5
  99 0048 FFF7FEFF 		bl	u8x8_cad_SendCmd
 100              	.LVL14:
  92:/Users/imashio/Electronics/ARM/_Library/u8x8_d_uc1638.c ****       u8x8_cad_SendCmd(u8x8, 0x070 | (y>>4));  /* UC1638 */
 101              		.loc 1 92 0
 102 004c 3109     		lsrs	r1, r6, #4
 103 004e 41F07001 		orr	r1, r1, #112
 104 0052 2846     		mov	r0, r5
 105 0054 FFF7FEFF 		bl	u8x8_cad_SendCmd
 106              	.LVL15:
  93:/Users/imashio/Electronics/ARM/_Library/u8x8_d_uc1638.c ****     
  94:/Users/imashio/Electronics/ARM/_Library/u8x8_d_uc1638.c ****     
  95:/Users/imashio/Electronics/ARM/_Library/u8x8_d_uc1638.c ****       u8x8_cad_SendCmd(u8x8, 0x001); /* UC1638 */
 107              		.loc 1 95 0
 108 0058 0121     		movs	r1, #1
 109 005a 2846     		mov	r0, r5
 110 005c FFF7FEFF 		bl	u8x8_cad_SendCmd
 111              	.LVL16:
  96:/Users/imashio/Electronics/ARM/_Library/u8x8_d_uc1638.c ****       c = ((u8x8_tile_t *)arg_ptr)->cnt;
 112              		.loc 1 96 0
 113 0060 3E79     		ldrb	r6, [r7, #4]	@ zero_extendqisi2
 114              	.LVL17:
  97:/Users/imashio/Electronics/ARM/_Library/u8x8_d_uc1638.c ****       c *= 8;
 115              		.loc 1 97 0
 116 0062 F600     		lsls	r6, r6, #3
 117              	.LVL18:
 118 0064 F6B2     		uxtb	r6, r6
 119              	.LVL19:
  98:/Users/imashio/Electronics/ARM/_Library/u8x8_d_uc1638.c ****       ptr = ((u8x8_tile_t *)arg_ptr)->tile_ptr;
 120              		.loc 1 98 0
 121 0066 3F68     		ldr	r7, [r7]
 122              	.LVL20:
 123              	.L8:
  99:/Users/imashio/Electronics/ARM/_Library/u8x8_d_uc1638.c ****       do
 100:/Users/imashio/Electronics/ARM/_Library/u8x8_d_uc1638.c ****       {
 101:/Users/imashio/Electronics/ARM/_Library/u8x8_d_uc1638.c **** 	u8x8_cad_SendData(u8x8, c, ptr);	/* note: SendData can not handle more than 255 bytes */
 124              		.loc 1 101 0 discriminator 1
 125 0068 3A46     		mov	r2, r7
 126 006a 3146     		mov	r1, r6
 127 006c 2846     		mov	r0, r5
 128 006e FFF7FEFF 		bl	u8x8_cad_SendData
ARM GAS  /var/folders/v3/wysfpd052nz8jkbx04pk0ym80000gn/T//ccBfghp5.s 			page 5


 129              	.LVL21:
 102:/Users/imashio/Electronics/ARM/_Library/u8x8_d_uc1638.c **** 	arg_int--;
 130              		.loc 1 102 0 discriminator 1
 131 0072 013C     		subs	r4, r4, #1
 132              	.LVL22:
 103:/Users/imashio/Electronics/ARM/_Library/u8x8_d_uc1638.c ****       } while( arg_int > 0 );
 133              		.loc 1 103 0 discriminator 1
 134 0074 14F0FF04 		ands	r4, r4, #255
 135              	.LVL23:
 136 0078 F6D1     		bne	.L8
 104:/Users/imashio/Electronics/ARM/_Library/u8x8_d_uc1638.c ****       
 105:/Users/imashio/Electronics/ARM/_Library/u8x8_d_uc1638.c ****       u8x8_cad_EndTransfer(u8x8);
 137              		.loc 1 105 0
 138 007a 2846     		mov	r0, r5
 139 007c FFF7FEFF 		bl	u8x8_cad_EndTransfer
 140              	.LVL24:
 106:/Users/imashio/Electronics/ARM/_Library/u8x8_d_uc1638.c ****       break;
 107:/Users/imashio/Electronics/ARM/_Library/u8x8_d_uc1638.c ****     /*	handled in the calling procedure 
 108:/Users/imashio/Electronics/ARM/_Library/u8x8_d_uc1638.c ****     case U8X8_MSG_DISPLAY_SETUP_MEMORY:
 109:/Users/imashio/Electronics/ARM/_Library/u8x8_d_uc1638.c ****       u8x8_d_helper_display_setup_memory(u8x8, &u8x8_uc1638_128x64_display_info);
 110:/Users/imashio/Electronics/ARM/_Library/u8x8_d_uc1638.c ****       break;
 111:/Users/imashio/Electronics/ARM/_Library/u8x8_d_uc1638.c ****     case U8X8_MSG_DISPLAY_INIT:
 112:/Users/imashio/Electronics/ARM/_Library/u8x8_d_uc1638.c ****       u8x8_d_helper_display_init(u8x8);
 113:/Users/imashio/Electronics/ARM/_Library/u8x8_d_uc1638.c ****       u8x8_cad_SendSequence(u8x8, u8x8_d_uc1701_dogs102_init_seq);
 114:/Users/imashio/Electronics/ARM/_Library/u8x8_d_uc1638.c ****       break;
 115:/Users/imashio/Electronics/ARM/_Library/u8x8_d_uc1638.c ****     */
 116:/Users/imashio/Electronics/ARM/_Library/u8x8_d_uc1638.c ****     case U8X8_MSG_DISPLAY_SET_POWER_SAVE:
 117:/Users/imashio/Electronics/ARM/_Library/u8x8_d_uc1638.c ****       if ( arg_int == 0 )
 118:/Users/imashio/Electronics/ARM/_Library/u8x8_d_uc1638.c **** 	u8x8_cad_SendSequence(u8x8, u8x8_d_uc1638_powersave0_seq);
 119:/Users/imashio/Electronics/ARM/_Library/u8x8_d_uc1638.c ****       else
 120:/Users/imashio/Electronics/ARM/_Library/u8x8_d_uc1638.c **** 	u8x8_cad_SendSequence(u8x8, u8x8_d_uc1638_powersave1_seq);
 121:/Users/imashio/Electronics/ARM/_Library/u8x8_d_uc1638.c ****       break;
 122:/Users/imashio/Electronics/ARM/_Library/u8x8_d_uc1638.c ****     case U8X8_MSG_DISPLAY_SET_FLIP_MODE:
 123:/Users/imashio/Electronics/ARM/_Library/u8x8_d_uc1638.c ****       if ( arg_int == 0 )
 124:/Users/imashio/Electronics/ARM/_Library/u8x8_d_uc1638.c ****       {
 125:/Users/imashio/Electronics/ARM/_Library/u8x8_d_uc1638.c **** 	u8x8_cad_SendSequence(u8x8, u8x8_d_uc1638_flip0_seq);
 126:/Users/imashio/Electronics/ARM/_Library/u8x8_d_uc1638.c **** 	u8x8->x_offset = u8x8->display_info->default_x_offset;
 127:/Users/imashio/Electronics/ARM/_Library/u8x8_d_uc1638.c ****       }
 128:/Users/imashio/Electronics/ARM/_Library/u8x8_d_uc1638.c ****       else
 129:/Users/imashio/Electronics/ARM/_Library/u8x8_d_uc1638.c ****       {
 130:/Users/imashio/Electronics/ARM/_Library/u8x8_d_uc1638.c **** 	u8x8_cad_SendSequence(u8x8, u8x8_d_uc1638_flip1_seq);
 131:/Users/imashio/Electronics/ARM/_Library/u8x8_d_uc1638.c **** 	u8x8->x_offset = u8x8->display_info->flipmode_x_offset;
 132:/Users/imashio/Electronics/ARM/_Library/u8x8_d_uc1638.c ****       }	
 133:/Users/imashio/Electronics/ARM/_Library/u8x8_d_uc1638.c ****       break;
 134:/Users/imashio/Electronics/ARM/_Library/u8x8_d_uc1638.c **** #ifdef U8X8_WITH_SET_CONTRAST
 135:/Users/imashio/Electronics/ARM/_Library/u8x8_d_uc1638.c ****     case U8X8_MSG_DISPLAY_SET_CONTRAST:
 136:/Users/imashio/Electronics/ARM/_Library/u8x8_d_uc1638.c ****       u8x8_cad_StartTransfer(u8x8);
 137:/Users/imashio/Electronics/ARM/_Library/u8x8_d_uc1638.c ****       u8x8_cad_SendCmd(u8x8, 0x081 );
 138:/Users/imashio/Electronics/ARM/_Library/u8x8_d_uc1638.c ****       u8x8_cad_SendArg(u8x8, arg_int  );	/* uc1638 has range from 0 to 255 */
 139:/Users/imashio/Electronics/ARM/_Library/u8x8_d_uc1638.c ****       u8x8_cad_EndTransfer(u8x8);
 140:/Users/imashio/Electronics/ARM/_Library/u8x8_d_uc1638.c ****       break;
 141:/Users/imashio/Electronics/ARM/_Library/u8x8_d_uc1638.c **** #endif
 142:/Users/imashio/Electronics/ARM/_Library/u8x8_d_uc1638.c ****     default:
 143:/Users/imashio/Electronics/ARM/_Library/u8x8_d_uc1638.c ****       return 0;
 144:/Users/imashio/Electronics/ARM/_Library/u8x8_d_uc1638.c ****   }
 145:/Users/imashio/Electronics/ARM/_Library/u8x8_d_uc1638.c ****   return 1;
 141              		.loc 1 145 0
ARM GAS  /var/folders/v3/wysfpd052nz8jkbx04pk0ym80000gn/T//ccBfghp5.s 			page 6


 142 0080 0120     		movs	r0, #1
 143              	.LVL25:
 144              	.L2:
 146:/Users/imashio/Electronics/ARM/_Library/u8x8_d_uc1638.c **** }
 145              		.loc 1 146 0
 146 0082 F8BD     		pop	{r3, r4, r5, r6, r7, pc}
 147              	.LVL26:
 148              	.L3:
 117:/Users/imashio/Electronics/ARM/_Library/u8x8_d_uc1638.c **** 	u8x8_cad_SendSequence(u8x8, u8x8_d_uc1638_powersave0_seq);
 149              		.loc 1 117 0
 150 0084 22B9     		cbnz	r2, .L9
 118:/Users/imashio/Electronics/ARM/_Library/u8x8_d_uc1638.c ****       else
 151              		.loc 1 118 0
 152 0086 1649     		ldr	r1, .L13
 153 0088 FFF7FEFF 		bl	u8x8_cad_SendSequence
 154              	.LVL27:
 145:/Users/imashio/Electronics/ARM/_Library/u8x8_d_uc1638.c **** }
 155              		.loc 1 145 0
 156 008c 0120     		movs	r0, #1
 157 008e F8E7     		b	.L2
 158              	.LVL28:
 159              	.L9:
 120:/Users/imashio/Electronics/ARM/_Library/u8x8_d_uc1638.c ****       break;
 160              		.loc 1 120 0
 161 0090 1449     		ldr	r1, .L13+4
 162 0092 FFF7FEFF 		bl	u8x8_cad_SendSequence
 163              	.LVL29:
 145:/Users/imashio/Electronics/ARM/_Library/u8x8_d_uc1638.c **** }
 164              		.loc 1 145 0
 165 0096 0120     		movs	r0, #1
 166 0098 F3E7     		b	.L2
 167              	.LVL30:
 168              	.L5:
 123:/Users/imashio/Electronics/ARM/_Library/u8x8_d_uc1638.c ****       {
 169              		.loc 1 123 0
 170 009a 3AB9     		cbnz	r2, .L10
 125:/Users/imashio/Electronics/ARM/_Library/u8x8_d_uc1638.c **** 	u8x8->x_offset = u8x8->display_info->default_x_offset;
 171              		.loc 1 125 0
 172 009c 1249     		ldr	r1, .L13+8
 173 009e FFF7FEFF 		bl	u8x8_cad_SendSequence
 174              	.LVL31:
 126:/Users/imashio/Electronics/ARM/_Library/u8x8_d_uc1638.c ****       }
 175              		.loc 1 126 0
 176 00a2 2B68     		ldr	r3, [r5]
 177 00a4 9B7C     		ldrb	r3, [r3, #18]	@ zero_extendqisi2
 178 00a6 AB77     		strb	r3, [r5, #30]
 145:/Users/imashio/Electronics/ARM/_Library/u8x8_d_uc1638.c **** }
 179              		.loc 1 145 0
 180 00a8 0120     		movs	r0, #1
 181 00aa EAE7     		b	.L2
 182              	.LVL32:
 183              	.L10:
 130:/Users/imashio/Electronics/ARM/_Library/u8x8_d_uc1638.c **** 	u8x8->x_offset = u8x8->display_info->flipmode_x_offset;
 184              		.loc 1 130 0
 185 00ac 0F49     		ldr	r1, .L13+12
 186 00ae FFF7FEFF 		bl	u8x8_cad_SendSequence
 187              	.LVL33:
ARM GAS  /var/folders/v3/wysfpd052nz8jkbx04pk0ym80000gn/T//ccBfghp5.s 			page 7


 131:/Users/imashio/Electronics/ARM/_Library/u8x8_d_uc1638.c ****       }	
 188              		.loc 1 131 0
 189 00b2 2B68     		ldr	r3, [r5]
 190 00b4 DB7C     		ldrb	r3, [r3, #19]	@ zero_extendqisi2
 191 00b6 AB77     		strb	r3, [r5, #30]
 145:/Users/imashio/Electronics/ARM/_Library/u8x8_d_uc1638.c **** }
 192              		.loc 1 145 0
 193 00b8 0120     		movs	r0, #1
 194 00ba E2E7     		b	.L2
 195              	.LVL34:
 196              	.L6:
 136:/Users/imashio/Electronics/ARM/_Library/u8x8_d_uc1638.c ****       u8x8_cad_SendCmd(u8x8, 0x081 );
 197              		.loc 1 136 0
 198 00bc FFF7FEFF 		bl	u8x8_cad_StartTransfer
 199              	.LVL35:
 137:/Users/imashio/Electronics/ARM/_Library/u8x8_d_uc1638.c ****       u8x8_cad_SendArg(u8x8, arg_int  );	/* uc1638 has range from 0 to 255 */
 200              		.loc 1 137 0
 201 00c0 8121     		movs	r1, #129
 202 00c2 2846     		mov	r0, r5
 203 00c4 FFF7FEFF 		bl	u8x8_cad_SendCmd
 204              	.LVL36:
 138:/Users/imashio/Electronics/ARM/_Library/u8x8_d_uc1638.c ****       u8x8_cad_EndTransfer(u8x8);
 205              		.loc 1 138 0
 206 00c8 2146     		mov	r1, r4
 207 00ca 2846     		mov	r0, r5
 208 00cc FFF7FEFF 		bl	u8x8_cad_SendArg
 209              	.LVL37:
 139:/Users/imashio/Electronics/ARM/_Library/u8x8_d_uc1638.c ****       break;
 210              		.loc 1 139 0
 211 00d0 2846     		mov	r0, r5
 212 00d2 FFF7FEFF 		bl	u8x8_cad_EndTransfer
 213              	.LVL38:
 145:/Users/imashio/Electronics/ARM/_Library/u8x8_d_uc1638.c **** }
 214              		.loc 1 145 0
 215 00d6 0120     		movs	r0, #1
 140:/Users/imashio/Electronics/ARM/_Library/u8x8_d_uc1638.c **** #endif
 216              		.loc 1 140 0
 217 00d8 D3E7     		b	.L2
 218              	.LVL39:
 219              	.L11:
 143:/Users/imashio/Electronics/ARM/_Library/u8x8_d_uc1638.c ****   }
 220              		.loc 1 143 0
 221 00da 0020     		movs	r0, #0
 222              	.LVL40:
 223 00dc D1E7     		b	.L2
 224              	.L14:
 225 00de 00BF     		.align	2
 226              	.L13:
 227 00e0 00000000 		.word	.LANCHOR0
 228 00e4 00000000 		.word	.LANCHOR1
 229 00e8 00000000 		.word	.LANCHOR2
 230 00ec 00000000 		.word	.LANCHOR3
 231              		.cfi_endproc
 232              	.LFE0:
 234              		.section	.text.u8x8_d_uc1638_160x128,"ax",%progbits
 235              		.align	1
 236              		.global	u8x8_d_uc1638_160x128
ARM GAS  /var/folders/v3/wysfpd052nz8jkbx04pk0ym80000gn/T//ccBfghp5.s 			page 8


 237              		.syntax unified
 238              		.thumb
 239              		.thumb_func
 240              		.fpu fpv4-sp-d16
 242              	u8x8_d_uc1638_160x128:
 243              	.LFB1:
 147:/Users/imashio/Electronics/ARM/_Library/u8x8_d_uc1638.c **** 
 148:/Users/imashio/Electronics/ARM/_Library/u8x8_d_uc1638.c **** 
 149:/Users/imashio/Electronics/ARM/_Library/u8x8_d_uc1638.c **** /*================================================*/
 150:/Users/imashio/Electronics/ARM/_Library/u8x8_d_uc1638.c **** /* uc1638 160x128 */
 151:/Users/imashio/Electronics/ARM/_Library/u8x8_d_uc1638.c **** 
 152:/Users/imashio/Electronics/ARM/_Library/u8x8_d_uc1638.c **** /* values taken from uc1608 */
 153:/Users/imashio/Electronics/ARM/_Library/u8x8_d_uc1638.c **** static const u8x8_display_info_t u8x8_uc1638_160x128_display_info =
 154:/Users/imashio/Electronics/ARM/_Library/u8x8_d_uc1638.c **** {
 155:/Users/imashio/Electronics/ARM/_Library/u8x8_d_uc1638.c ****   /* chip_enable_level = */ 1,	/* uc1638 has high active CS */
 156:/Users/imashio/Electronics/ARM/_Library/u8x8_d_uc1638.c ****   /* chip_disable_level = */ 0,
 157:/Users/imashio/Electronics/ARM/_Library/u8x8_d_uc1638.c ****   
 158:/Users/imashio/Electronics/ARM/_Library/u8x8_d_uc1638.c ****   /* post_chip_enable_wait_ns = */ 10,	/* */
 159:/Users/imashio/Electronics/ARM/_Library/u8x8_d_uc1638.c ****   /* pre_chip_disable_wait_ns = */ 20,	/* */
 160:/Users/imashio/Electronics/ARM/_Library/u8x8_d_uc1638.c ****   /* reset_pulse_width_ms = */ 5, 	/* */
 161:/Users/imashio/Electronics/ARM/_Library/u8x8_d_uc1638.c ****   /* post_reset_wait_ms = */ 150, 	
 162:/Users/imashio/Electronics/ARM/_Library/u8x8_d_uc1638.c ****   /* sda_setup_time_ns = */ 30,		/* */
 163:/Users/imashio/Electronics/ARM/_Library/u8x8_d_uc1638.c ****   /* sck_pulse_width_ns = */ 65,	/* */
 164:/Users/imashio/Electronics/ARM/_Library/u8x8_d_uc1638.c ****   /* sck_clock_hz = */ 1000000UL,	/* since Arduino 1.6.0, the SPI bus speed in Hz. Should be  10000
 165:/Users/imashio/Electronics/ARM/_Library/u8x8_d_uc1638.c ****   /* spi_mode = */ 3,		/* active high, rising edge */
 166:/Users/imashio/Electronics/ARM/_Library/u8x8_d_uc1638.c ****   /* i2c_bus_clock_100kHz = */ 4,
 167:/Users/imashio/Electronics/ARM/_Library/u8x8_d_uc1638.c ****   /* data_setup_time_ns = */ 30,	/*  */
 168:/Users/imashio/Electronics/ARM/_Library/u8x8_d_uc1638.c ****   /* write_pulse_width_ns = */ 35,	/*  */
 169:/Users/imashio/Electronics/ARM/_Library/u8x8_d_uc1638.c ****   /* tile_width = */ 20,		/* width of 20*8=160 pixel */
 170:/Users/imashio/Electronics/ARM/_Library/u8x8_d_uc1638.c ****   /* tile_hight = */ 16,
 171:/Users/imashio/Electronics/ARM/_Library/u8x8_d_uc1638.c ****   /* default_x_offset = */ 0,	/*  */
 172:/Users/imashio/Electronics/ARM/_Library/u8x8_d_uc1638.c ****   /* flipmode_x_offset = */ 0,	/* */
 173:/Users/imashio/Electronics/ARM/_Library/u8x8_d_uc1638.c ****   /* pixel_width = */ 160,
 174:/Users/imashio/Electronics/ARM/_Library/u8x8_d_uc1638.c ****   /* pixel_height = */ 128
 175:/Users/imashio/Electronics/ARM/_Library/u8x8_d_uc1638.c **** };
 176:/Users/imashio/Electronics/ARM/_Library/u8x8_d_uc1638.c **** 
 177:/Users/imashio/Electronics/ARM/_Library/u8x8_d_uc1638.c **** static const uint8_t u8x8_d_uc1638_160x128_init_seq[] = {
 178:/Users/imashio/Electronics/ARM/_Library/u8x8_d_uc1638.c ****     
 179:/Users/imashio/Electronics/ARM/_Library/u8x8_d_uc1638.c ****   U8X8_START_TRANSFER(),             	/* enable chip, delay is part of the transfer start */
 180:/Users/imashio/Electronics/ARM/_Library/u8x8_d_uc1638.c **** 
 181:/Users/imashio/Electronics/ARM/_Library/u8x8_d_uc1638.c ****   U8X8_CA(0x0e1, 0x0e2),		/* software reset */    /* UC1638*/
 182:/Users/imashio/Electronics/ARM/_Library/u8x8_d_uc1638.c ****   U8X8_DLY(5),					/* 5 ms */	
 183:/Users/imashio/Electronics/ARM/_Library/u8x8_d_uc1638.c **** 
 184:/Users/imashio/Electronics/ARM/_Library/u8x8_d_uc1638.c ****   U8X8_C(0x024),            		/*	 set temp comp*/
 185:/Users/imashio/Electronics/ARM/_Library/u8x8_d_uc1638.c ****   U8X8_C(0x0c0),            		/*	mirror y and mirror x */  /* WAS: c2 */
 186:/Users/imashio/Electronics/ARM/_Library/u8x8_d_uc1638.c ****   U8X8_C(0x0a2),            		/*	line rate */
 187:/Users/imashio/Electronics/ARM/_Library/u8x8_d_uc1638.c ****   U8X8_C(0x0d6),            		/*	gray scale 2 */
 188:/Users/imashio/Electronics/ARM/_Library/u8x8_d_uc1638.c ****   U8X8_C(0x0eb),            		/*	 set bias*/
 189:/Users/imashio/Electronics/ARM/_Library/u8x8_d_uc1638.c ****   U8X8_C(0x095),            		/*	 set 1 bit per pixel, pattern 0*/
 190:/Users/imashio/Electronics/ARM/_Library/u8x8_d_uc1638.c ****   U8X8_C(0x089),            		/*	 set auto increment, low bits are AC2 AC1 AC0 */  /* WAS 89 */
 191:/Users/imashio/Electronics/ARM/_Library/u8x8_d_uc1638.c **** 
 192:/Users/imashio/Electronics/ARM/_Library/u8x8_d_uc1638.c **** 
 193:/Users/imashio/Electronics/ARM/_Library/u8x8_d_uc1638.c ****   U8X8_CA(0x081, 0x0a0),		/* set contrast */    /* UC1638*/
 194:/Users/imashio/Electronics/ARM/_Library/u8x8_d_uc1638.c ****   
 195:/Users/imashio/Electronics/ARM/_Library/u8x8_d_uc1638.c ****   
 196:/Users/imashio/Electronics/ARM/_Library/u8x8_d_uc1638.c ****   U8X8_END_TRANSFER(),             	/* disable chip */
 197:/Users/imashio/Electronics/ARM/_Library/u8x8_d_uc1638.c ****   U8X8_END()             			/* end of sequence */
ARM GAS  /var/folders/v3/wysfpd052nz8jkbx04pk0ym80000gn/T//ccBfghp5.s 			page 9


 198:/Users/imashio/Electronics/ARM/_Library/u8x8_d_uc1638.c **** };
 199:/Users/imashio/Electronics/ARM/_Library/u8x8_d_uc1638.c **** 
 200:/Users/imashio/Electronics/ARM/_Library/u8x8_d_uc1638.c **** uint8_t u8x8_d_uc1638_160x128(u8x8_t *u8x8, uint8_t msg, uint8_t arg_int, void *arg_ptr)
 201:/Users/imashio/Electronics/ARM/_Library/u8x8_d_uc1638.c **** {
 244              		.loc 1 201 0
 245              		.cfi_startproc
 246              		@ args = 0, pretend = 0, frame = 0
 247              		@ frame_needed = 0, uses_anonymous_args = 0
 248              	.LVL41:
 249 0000 38B5     		push	{r3, r4, r5, lr}
 250              	.LCFI1:
 251              		.cfi_def_cfa_offset 16
 252              		.cfi_offset 3, -16
 253              		.cfi_offset 4, -12
 254              		.cfi_offset 5, -8
 255              		.cfi_offset 14, -4
 256 0002 0546     		mov	r5, r0
 257 0004 0C46     		mov	r4, r1
 202:/Users/imashio/Electronics/ARM/_Library/u8x8_d_uc1638.c ****   /* call common procedure first and handle messages there */
 203:/Users/imashio/Electronics/ARM/_Library/u8x8_d_uc1638.c ****   if ( u8x8_d_uc1638_common(u8x8, msg, arg_int, arg_ptr) == 0 )
 258              		.loc 1 203 0
 259 0006 FFF7FEFF 		bl	u8x8_d_uc1638_common
 260              	.LVL42:
 261 000a 98B9     		cbnz	r0, .L19
 262 000c 0346     		mov	r3, r0
 204:/Users/imashio/Electronics/ARM/_Library/u8x8_d_uc1638.c ****   {
 205:/Users/imashio/Electronics/ARM/_Library/u8x8_d_uc1638.c ****     /* msg not handled, then try here */
 206:/Users/imashio/Electronics/ARM/_Library/u8x8_d_uc1638.c ****     switch(msg)
 263              		.loc 1 206 0
 264 000e 092C     		cmp	r4, #9
 265 0010 0AD0     		beq	.L17
 266 0012 0A2C     		cmp	r4, #10
 267 0014 0FD1     		bne	.L16
 207:/Users/imashio/Electronics/ARM/_Library/u8x8_d_uc1638.c ****     {
 208:/Users/imashio/Electronics/ARM/_Library/u8x8_d_uc1638.c ****       case U8X8_MSG_DISPLAY_SETUP_MEMORY:
 209:/Users/imashio/Electronics/ARM/_Library/u8x8_d_uc1638.c **** 	u8x8_d_helper_display_setup_memory(u8x8, &u8x8_uc1638_160x128_display_info);
 210:/Users/imashio/Electronics/ARM/_Library/u8x8_d_uc1638.c **** 	break;
 211:/Users/imashio/Electronics/ARM/_Library/u8x8_d_uc1638.c ****       case U8X8_MSG_DISPLAY_INIT:
 212:/Users/imashio/Electronics/ARM/_Library/u8x8_d_uc1638.c **** 	u8x8_d_helper_display_init(u8x8);
 268              		.loc 1 212 0
 269 0016 2846     		mov	r0, r5
 270 0018 FFF7FEFF 		bl	u8x8_d_helper_display_init
 271              	.LVL43:
 213:/Users/imashio/Electronics/ARM/_Library/u8x8_d_uc1638.c **** 	u8x8_cad_SendSequence(u8x8, u8x8_d_uc1638_160x128_init_seq);
 272              		.loc 1 213 0
 273 001c 0749     		ldr	r1, .L21
 274 001e 2846     		mov	r0, r5
 275 0020 FFF7FEFF 		bl	u8x8_cad_SendSequence
 276              	.LVL44:
 214:/Users/imashio/Electronics/ARM/_Library/u8x8_d_uc1638.c **** 	break;
 215:/Users/imashio/Electronics/ARM/_Library/u8x8_d_uc1638.c ****       default:
 216:/Users/imashio/Electronics/ARM/_Library/u8x8_d_uc1638.c **** 	return 0;		/* msg unknown */
 217:/Users/imashio/Electronics/ARM/_Library/u8x8_d_uc1638.c ****     }
 218:/Users/imashio/Electronics/ARM/_Library/u8x8_d_uc1638.c ****   }
 219:/Users/imashio/Electronics/ARM/_Library/u8x8_d_uc1638.c ****   return 1;
 277              		.loc 1 219 0
 278 0024 0123     		movs	r3, #1
ARM GAS  /var/folders/v3/wysfpd052nz8jkbx04pk0ym80000gn/T//ccBfghp5.s 			page 10


 214:/Users/imashio/Electronics/ARM/_Library/u8x8_d_uc1638.c **** 	break;
 279              		.loc 1 214 0
 280 0026 06E0     		b	.L16
 281              	.L17:
 209:/Users/imashio/Electronics/ARM/_Library/u8x8_d_uc1638.c **** 	break;
 282              		.loc 1 209 0
 283 0028 0549     		ldr	r1, .L21+4
 284 002a 2846     		mov	r0, r5
 285 002c FFF7FEFF 		bl	u8x8_d_helper_display_setup_memory
 286              	.LVL45:
 287              		.loc 1 219 0
 288 0030 0123     		movs	r3, #1
 210:/Users/imashio/Electronics/ARM/_Library/u8x8_d_uc1638.c ****       case U8X8_MSG_DISPLAY_INIT:
 289              		.loc 1 210 0
 290 0032 00E0     		b	.L16
 291              	.L19:
 292              		.loc 1 219 0
 293 0034 0123     		movs	r3, #1
 294              	.L16:
 220:/Users/imashio/Electronics/ARM/_Library/u8x8_d_uc1638.c **** }
 295              		.loc 1 220 0
 296 0036 1846     		mov	r0, r3
 297 0038 38BD     		pop	{r3, r4, r5, pc}
 298              	.LVL46:
 299              	.L22:
 300 003a 00BF     		.align	2
 301              	.L21:
 302 003c 00000000 		.word	.LANCHOR5
 303 0040 00000000 		.word	.LANCHOR4
 304              		.cfi_endproc
 305              	.LFE1:
 307              		.section	.rodata.u8x8_d_uc1638_160x128_init_seq,"a",%progbits
 308              		.align	2
 309              		.set	.LANCHOR5,. + 0
 312              	u8x8_d_uc1638_160x128_init_seq:
 313 0000 18       		.byte	24
 314 0001 15       		.byte	21
 315 0002 E1       		.byte	-31
 316 0003 16       		.byte	22
 317 0004 E2       		.byte	-30
 318 0005 FE       		.byte	-2
 319 0006 05       		.byte	5
 320 0007 15       		.byte	21
 321 0008 24       		.byte	36
 322 0009 15       		.byte	21
 323 000a C0       		.byte	-64
 324 000b 15       		.byte	21
 325 000c A2       		.byte	-94
 326 000d 15       		.byte	21
 327 000e D6       		.byte	-42
 328 000f 15       		.byte	21
 329 0010 EB       		.byte	-21
 330 0011 15       		.byte	21
 331 0012 95       		.byte	-107
 332 0013 15       		.byte	21
 333 0014 89       		.byte	-119
 334 0015 15       		.byte	21
ARM GAS  /var/folders/v3/wysfpd052nz8jkbx04pk0ym80000gn/T//ccBfghp5.s 			page 11


 335 0016 81       		.byte	-127
 336 0017 16       		.byte	22
 337 0018 A0       		.byte	-96
 338 0019 19       		.byte	25
 339 001a FF       		.byte	-1
 340              		.section	.rodata.u8x8_d_uc1638_flip0_seq,"a",%progbits
 341              		.align	2
 342              		.set	.LANCHOR2,. + 0
 345              	u8x8_d_uc1638_flip0_seq:
 346 0000 18       		.byte	24
 347 0001 15       		.byte	21
 348 0002 C4       		.byte	-60
 349 0003 19       		.byte	25
 350 0004 FF       		.byte	-1
 351              		.section	.rodata.u8x8_d_uc1638_flip1_seq,"a",%progbits
 352              		.align	2
 353              		.set	.LANCHOR3,. + 0
 356              	u8x8_d_uc1638_flip1_seq:
 357 0000 18       		.byte	24
 358 0001 15       		.byte	21
 359 0002 C2       		.byte	-62
 360 0003 19       		.byte	25
 361 0004 FF       		.byte	-1
 362              		.section	.rodata.u8x8_d_uc1638_powersave0_seq,"a",%progbits
 363              		.align	2
 364              		.set	.LANCHOR0,. + 0
 367              	u8x8_d_uc1638_powersave0_seq:
 368 0000 18       		.byte	24
 369 0001 15       		.byte	21
 370 0002 C9       		.byte	-55
 371 0003 16       		.byte	22
 372 0004 AD       		.byte	-83
 373 0005 19       		.byte	25
 374 0006 FF       		.byte	-1
 375              		.section	.rodata.u8x8_d_uc1638_powersave1_seq,"a",%progbits
 376              		.align	2
 377              		.set	.LANCHOR1,. + 0
 380              	u8x8_d_uc1638_powersave1_seq:
 381 0000 18       		.byte	24
 382 0001 15       		.byte	21
 383 0002 C9       		.byte	-55
 384 0003 16       		.byte	22
 385 0004 AC       		.byte	-84
 386 0005 19       		.byte	25
 387 0006 FF       		.byte	-1
 388              		.section	.rodata.u8x8_uc1638_160x128_display_info,"a",%progbits
 389              		.align	2
 390              		.set	.LANCHOR4,. + 0
 393              	u8x8_uc1638_160x128_display_info:
 394 0000 01       		.byte	1
 395 0001 00       		.byte	0
 396 0002 0A       		.byte	10
 397 0003 14       		.byte	20
 398 0004 05       		.byte	5
 399 0005 96       		.byte	-106
 400 0006 1E       		.byte	30
 401 0007 41       		.byte	65
ARM GAS  /var/folders/v3/wysfpd052nz8jkbx04pk0ym80000gn/T//ccBfghp5.s 			page 12


 402 0008 40420F00 		.word	1000000
 403 000c 03       		.byte	3
 404 000d 04       		.byte	4
 405 000e 1E       		.byte	30
 406 000f 23       		.byte	35
 407 0010 14       		.byte	20
 408 0011 10       		.byte	16
 409 0012 00       		.byte	0
 410 0013 00       		.byte	0
 411 0014 A000     		.short	160
 412 0016 8000     		.short	128
 413              		.text
 414              	.Letext0:
 415              		.file 2 "/usr/local/gcc-arm-none-eabi-7-2018-q2-update/arm-none-eabi/include/machine/_default_type
 416              		.file 3 "/usr/local/gcc-arm-none-eabi-7-2018-q2-update/arm-none-eabi/include/sys/_stdint.h"
 417              		.file 4 "/Users/imashio/Electronics/ARM/_Library/u8x8.h"
ARM GAS  /var/folders/v3/wysfpd052nz8jkbx04pk0ym80000gn/T//ccBfghp5.s 			page 13


DEFINED SYMBOLS
                            *ABS*:0000000000000000 u8x8_d_uc1638.c
/var/folders/v3/wysfpd052nz8jkbx04pk0ym80000gn/T//ccBfghp5.s:18     .text.u8x8_d_uc1638_common:0000000000000000 $t
/var/folders/v3/wysfpd052nz8jkbx04pk0ym80000gn/T//ccBfghp5.s:25     .text.u8x8_d_uc1638_common:0000000000000000 u8x8_d_uc1638_common
/var/folders/v3/wysfpd052nz8jkbx04pk0ym80000gn/T//ccBfghp5.s:53     .text.u8x8_d_uc1638_common:0000000000000012 $d
/var/folders/v3/wysfpd052nz8jkbx04pk0ym80000gn/T//ccBfghp5.s:227    .text.u8x8_d_uc1638_common:00000000000000e0 $d
/var/folders/v3/wysfpd052nz8jkbx04pk0ym80000gn/T//ccBfghp5.s:235    .text.u8x8_d_uc1638_160x128:0000000000000000 $t
/var/folders/v3/wysfpd052nz8jkbx04pk0ym80000gn/T//ccBfghp5.s:242    .text.u8x8_d_uc1638_160x128:0000000000000000 u8x8_d_uc1638_160x128
/var/folders/v3/wysfpd052nz8jkbx04pk0ym80000gn/T//ccBfghp5.s:302    .text.u8x8_d_uc1638_160x128:000000000000003c $d
/var/folders/v3/wysfpd052nz8jkbx04pk0ym80000gn/T//ccBfghp5.s:308    .rodata.u8x8_d_uc1638_160x128_init_seq:0000000000000000 $d
/var/folders/v3/wysfpd052nz8jkbx04pk0ym80000gn/T//ccBfghp5.s:312    .rodata.u8x8_d_uc1638_160x128_init_seq:0000000000000000 u8x8_d_uc1638_160x128_init_seq
/var/folders/v3/wysfpd052nz8jkbx04pk0ym80000gn/T//ccBfghp5.s:341    .rodata.u8x8_d_uc1638_flip0_seq:0000000000000000 $d
/var/folders/v3/wysfpd052nz8jkbx04pk0ym80000gn/T//ccBfghp5.s:345    .rodata.u8x8_d_uc1638_flip0_seq:0000000000000000 u8x8_d_uc1638_flip0_seq
/var/folders/v3/wysfpd052nz8jkbx04pk0ym80000gn/T//ccBfghp5.s:352    .rodata.u8x8_d_uc1638_flip1_seq:0000000000000000 $d
/var/folders/v3/wysfpd052nz8jkbx04pk0ym80000gn/T//ccBfghp5.s:356    .rodata.u8x8_d_uc1638_flip1_seq:0000000000000000 u8x8_d_uc1638_flip1_seq
/var/folders/v3/wysfpd052nz8jkbx04pk0ym80000gn/T//ccBfghp5.s:363    .rodata.u8x8_d_uc1638_powersave0_seq:0000000000000000 $d
/var/folders/v3/wysfpd052nz8jkbx04pk0ym80000gn/T//ccBfghp5.s:367    .rodata.u8x8_d_uc1638_powersave0_seq:0000000000000000 u8x8_d_uc1638_powersave0_seq
/var/folders/v3/wysfpd052nz8jkbx04pk0ym80000gn/T//ccBfghp5.s:376    .rodata.u8x8_d_uc1638_powersave1_seq:0000000000000000 $d
/var/folders/v3/wysfpd052nz8jkbx04pk0ym80000gn/T//ccBfghp5.s:380    .rodata.u8x8_d_uc1638_powersave1_seq:0000000000000000 u8x8_d_uc1638_powersave1_seq
/var/folders/v3/wysfpd052nz8jkbx04pk0ym80000gn/T//ccBfghp5.s:389    .rodata.u8x8_uc1638_160x128_display_info:0000000000000000 $d
/var/folders/v3/wysfpd052nz8jkbx04pk0ym80000gn/T//ccBfghp5.s:393    .rodata.u8x8_uc1638_160x128_display_info:0000000000000000 u8x8_uc1638_160x128_display_info
/var/folders/v3/wysfpd052nz8jkbx04pk0ym80000gn/T//ccBfghp5.s:58     .text.u8x8_d_uc1638_common:0000000000000017 $d
/var/folders/v3/wysfpd052nz8jkbx04pk0ym80000gn/T//ccBfghp5.s:58     .text.u8x8_d_uc1638_common:0000000000000018 $t

UNDEFINED SYMBOLS
u8x8_cad_StartTransfer
u8x8_cad_SendCmd
u8x8_cad_SendArg
u8x8_cad_SendData
u8x8_cad_EndTransfer
u8x8_cad_SendSequence
u8x8_d_helper_display_init
u8x8_d_helper_display_setup_memory
