ARM GAS  /var/folders/v3/wysfpd052nz8jkbx04pk0ym80000gn/T//ccbm4AxD.s 			page 1


   1              		.cpu cortex-m4
   2              		.eabi_attribute 27, 1
   3              		.eabi_attribute 28, 1
   4              		.eabi_attribute 20, 1
   5              		.eabi_attribute 21, 1
   6              		.eabi_attribute 23, 3
   7              		.eabi_attribute 24, 1
   8              		.eabi_attribute 25, 1
   9              		.eabi_attribute 26, 1
  10              		.eabi_attribute 30, 1
  11              		.eabi_attribute 34, 1
  12              		.eabi_attribute 18, 4
  13              		.file	"u8x8_d_sbn1661.c"
  14              		.text
  15              	.Ltext0:
  16              		.cfi_sections	.debug_frame
  17              		.section	.text.u8x8_d_sbn1661_122x32,"ax",%progbits
  18              		.align	1
  19              		.global	u8x8_d_sbn1661_122x32
  20              		.syntax unified
  21              		.thumb
  22              		.thumb_func
  23              		.fpu fpv4-sp-d16
  25              	u8x8_d_sbn1661_122x32:
  26              	.LFB1:
  27              		.file 1 "/Users/imashio/Electronics/ARM/_Library/u8x8_d_sbn1661.c"
   1:/Users/imashio/Electronics/ARM/_Library/u8x8_d_sbn1661.c **** /*
   2:/Users/imashio/Electronics/ARM/_Library/u8x8_d_sbn1661.c **** 
   3:/Users/imashio/Electronics/ARM/_Library/u8x8_d_sbn1661.c ****   u8x8_d_sbn1661.c 
   4:/Users/imashio/Electronics/ARM/_Library/u8x8_d_sbn1661.c ****   
   5:/Users/imashio/Electronics/ARM/_Library/u8x8_d_sbn1661.c ****   SED1520 / SBN1661 122x32 5V LCD
   6:/Users/imashio/Electronics/ARM/_Library/u8x8_d_sbn1661.c ****   
   7:/Users/imashio/Electronics/ARM/_Library/u8x8_d_sbn1661.c ****   Universal 8bit Graphics Library (https://github.com/olikraus/u8g2/)
   8:/Users/imashio/Electronics/ARM/_Library/u8x8_d_sbn1661.c **** 
   9:/Users/imashio/Electronics/ARM/_Library/u8x8_d_sbn1661.c ****   Copyright (c) 2016, olikraus@gmail.com
  10:/Users/imashio/Electronics/ARM/_Library/u8x8_d_sbn1661.c ****   All rights reserved.
  11:/Users/imashio/Electronics/ARM/_Library/u8x8_d_sbn1661.c **** 
  12:/Users/imashio/Electronics/ARM/_Library/u8x8_d_sbn1661.c ****   Redistribution and use in source and binary forms, with or without modification, 
  13:/Users/imashio/Electronics/ARM/_Library/u8x8_d_sbn1661.c ****   are permitted provided that the following conditions are met:
  14:/Users/imashio/Electronics/ARM/_Library/u8x8_d_sbn1661.c **** 
  15:/Users/imashio/Electronics/ARM/_Library/u8x8_d_sbn1661.c ****   * Redistributions of source code must retain the above copyright notice, this list 
  16:/Users/imashio/Electronics/ARM/_Library/u8x8_d_sbn1661.c ****     of conditions and the following disclaimer.
  17:/Users/imashio/Electronics/ARM/_Library/u8x8_d_sbn1661.c ****     
  18:/Users/imashio/Electronics/ARM/_Library/u8x8_d_sbn1661.c ****   * Redistributions in binary form must reproduce the above copyright notice, this 
  19:/Users/imashio/Electronics/ARM/_Library/u8x8_d_sbn1661.c ****     list of conditions and the following disclaimer in the documentation and/or other 
  20:/Users/imashio/Electronics/ARM/_Library/u8x8_d_sbn1661.c ****     materials provided with the distribution.
  21:/Users/imashio/Electronics/ARM/_Library/u8x8_d_sbn1661.c **** 
  22:/Users/imashio/Electronics/ARM/_Library/u8x8_d_sbn1661.c ****   THIS SOFTWARE IS PROVIDED BY THE COPYRIGHT HOLDERS AND 
  23:/Users/imashio/Electronics/ARM/_Library/u8x8_d_sbn1661.c ****   CONTRIBUTORS "AS IS" AND ANY EXPRESS OR IMPLIED WARRANTIES, 
  24:/Users/imashio/Electronics/ARM/_Library/u8x8_d_sbn1661.c ****   INCLUDING, BUT NOT LIMITED TO, THE IMPLIED WARRANTIES OF 
  25:/Users/imashio/Electronics/ARM/_Library/u8x8_d_sbn1661.c ****   MERCHANTABILITY AND FITNESS FOR A PARTICULAR PURPOSE ARE 
  26:/Users/imashio/Electronics/ARM/_Library/u8x8_d_sbn1661.c ****   DISCLAIMED. IN NO EVENT SHALL THE COPYRIGHT HOLDER OR 
  27:/Users/imashio/Electronics/ARM/_Library/u8x8_d_sbn1661.c ****   CONTRIBUTORS BE LIABLE FOR ANY DIRECT, INDIRECT, INCIDENTAL, 
  28:/Users/imashio/Electronics/ARM/_Library/u8x8_d_sbn1661.c ****   SPECIAL, EXEMPLARY, OR CONSEQUENTIAL DAMAGES (INCLUDING, BUT 
  29:/Users/imashio/Electronics/ARM/_Library/u8x8_d_sbn1661.c ****   NOT LIMITED TO, PROCUREMENT OF SUBSTITUTE GOODS OR SERVICES; 
  30:/Users/imashio/Electronics/ARM/_Library/u8x8_d_sbn1661.c ****   LOSS OF USE, DATA, OR PROFITS; OR BUSINESS INTERRUPTION) HOWEVER 
  31:/Users/imashio/Electronics/ARM/_Library/u8x8_d_sbn1661.c ****   CAUSED AND ON ANY THEORY OF LIABILITY, WHETHER IN CONTRACT, 
ARM GAS  /var/folders/v3/wysfpd052nz8jkbx04pk0ym80000gn/T//ccbm4AxD.s 			page 2


  32:/Users/imashio/Electronics/ARM/_Library/u8x8_d_sbn1661.c ****   STRICT LIABILITY, OR TORT (INCLUDING NEGLIGENCE OR OTHERWISE) 
  33:/Users/imashio/Electronics/ARM/_Library/u8x8_d_sbn1661.c ****   ARISING IN ANY WAY OUT OF THE USE OF THIS SOFTWARE, EVEN IF 
  34:/Users/imashio/Electronics/ARM/_Library/u8x8_d_sbn1661.c ****   ADVISED OF THE POSSIBILITY OF SUCH DAMAGE.  
  35:/Users/imashio/Electronics/ARM/_Library/u8x8_d_sbn1661.c **** 
  36:/Users/imashio/Electronics/ARM/_Library/u8x8_d_sbn1661.c ****   
  37:/Users/imashio/Electronics/ARM/_Library/u8x8_d_sbn1661.c **** */
  38:/Users/imashio/Electronics/ARM/_Library/u8x8_d_sbn1661.c **** #include "u8x8.h"
  39:/Users/imashio/Electronics/ARM/_Library/u8x8_d_sbn1661.c **** 
  40:/Users/imashio/Electronics/ARM/_Library/u8x8_d_sbn1661.c **** 
  41:/Users/imashio/Electronics/ARM/_Library/u8x8_d_sbn1661.c **** 
  42:/Users/imashio/Electronics/ARM/_Library/u8x8_d_sbn1661.c **** 
  43:/Users/imashio/Electronics/ARM/_Library/u8x8_d_sbn1661.c **** static const uint8_t u8x8_d_sbn1661_init_seq[] = {
  44:/Users/imashio/Electronics/ARM/_Library/u8x8_d_sbn1661.c ****   U8X8_C(0x0c0),		                /* display start at line 0  */  
  45:/Users/imashio/Electronics/ARM/_Library/u8x8_d_sbn1661.c ****   U8X8_C(0x0a0),		                /* a0: ADC forward, a1: ADC reverse */  
  46:/Users/imashio/Electronics/ARM/_Library/u8x8_d_sbn1661.c ****   U8X8_C(0x0a4),		                /* a4: normal driving, a5: power save */  
  47:/Users/imashio/Electronics/ARM/_Library/u8x8_d_sbn1661.c ****   U8X8_C(0x0a9),		                /* a8: 1/16, a9: 1/32 duty */  
  48:/Users/imashio/Electronics/ARM/_Library/u8x8_d_sbn1661.c **** 
  49:/Users/imashio/Electronics/ARM/_Library/u8x8_d_sbn1661.c ****   //U8X8_C(0x0af),				/* display on */
  50:/Users/imashio/Electronics/ARM/_Library/u8x8_d_sbn1661.c ****   
  51:/Users/imashio/Electronics/ARM/_Library/u8x8_d_sbn1661.c ****   U8X8_END()             			/* end of sequence */
  52:/Users/imashio/Electronics/ARM/_Library/u8x8_d_sbn1661.c **** };
  53:/Users/imashio/Electronics/ARM/_Library/u8x8_d_sbn1661.c **** 
  54:/Users/imashio/Electronics/ARM/_Library/u8x8_d_sbn1661.c **** static const uint8_t u8x8_d_sbn1661_powersave0_seq[] = {
  55:/Users/imashio/Electronics/ARM/_Library/u8x8_d_sbn1661.c ****   U8X8_C(0x0af),		                /* display on */
  56:/Users/imashio/Electronics/ARM/_Library/u8x8_d_sbn1661.c ****   U8X8_END()             			/* end of sequence */
  57:/Users/imashio/Electronics/ARM/_Library/u8x8_d_sbn1661.c **** };
  58:/Users/imashio/Electronics/ARM/_Library/u8x8_d_sbn1661.c **** 
  59:/Users/imashio/Electronics/ARM/_Library/u8x8_d_sbn1661.c **** static const uint8_t u8x8_d_sbn1661_powersave1_seq[] = {
  60:/Users/imashio/Electronics/ARM/_Library/u8x8_d_sbn1661.c ****   U8X8_C(0x0ae),		                /* display off */
  61:/Users/imashio/Electronics/ARM/_Library/u8x8_d_sbn1661.c ****   U8X8_END()             			/* end of sequence */
  62:/Users/imashio/Electronics/ARM/_Library/u8x8_d_sbn1661.c **** };
  63:/Users/imashio/Electronics/ARM/_Library/u8x8_d_sbn1661.c **** 
  64:/Users/imashio/Electronics/ARM/_Library/u8x8_d_sbn1661.c **** 
  65:/Users/imashio/Electronics/ARM/_Library/u8x8_d_sbn1661.c **** struct u8x8_sbn1661_vars
  66:/Users/imashio/Electronics/ARM/_Library/u8x8_d_sbn1661.c **** {
  67:/Users/imashio/Electronics/ARM/_Library/u8x8_d_sbn1661.c ****   uint8_t *ptr;
  68:/Users/imashio/Electronics/ARM/_Library/u8x8_d_sbn1661.c ****   uint8_t x;
  69:/Users/imashio/Electronics/ARM/_Library/u8x8_d_sbn1661.c ****   uint8_t c;
  70:/Users/imashio/Electronics/ARM/_Library/u8x8_d_sbn1661.c ****   uint8_t arg_int;
  71:/Users/imashio/Electronics/ARM/_Library/u8x8_d_sbn1661.c **** };
  72:/Users/imashio/Electronics/ARM/_Library/u8x8_d_sbn1661.c **** 
  73:/Users/imashio/Electronics/ARM/_Library/u8x8_d_sbn1661.c **** static void u8x8_sbn1661_out(u8x8_t *u8x8, struct u8x8_sbn1661_vars *v, void *arg_ptr)
  74:/Users/imashio/Electronics/ARM/_Library/u8x8_d_sbn1661.c **** {
  75:/Users/imashio/Electronics/ARM/_Library/u8x8_d_sbn1661.c ****   uint8_t cnt;
  76:/Users/imashio/Electronics/ARM/_Library/u8x8_d_sbn1661.c ****   u8x8_cad_SendCmd(u8x8, 0x000 | ((v->x << 3) & 63) );
  77:/Users/imashio/Electronics/ARM/_Library/u8x8_d_sbn1661.c ****   u8x8_cad_SendCmd(u8x8, 0x0b8 | (((u8x8_tile_t *)arg_ptr)->y_pos));
  78:/Users/imashio/Electronics/ARM/_Library/u8x8_d_sbn1661.c ****   
  79:/Users/imashio/Electronics/ARM/_Library/u8x8_d_sbn1661.c ****   while( v->arg_int > 0 )
  80:/Users/imashio/Electronics/ARM/_Library/u8x8_d_sbn1661.c ****   {
  81:/Users/imashio/Electronics/ARM/_Library/u8x8_d_sbn1661.c ****       /* calculate tiles to next boundary (end or chip limit) */
  82:/Users/imashio/Electronics/ARM/_Library/u8x8_d_sbn1661.c ****       cnt = v->x;
  83:/Users/imashio/Electronics/ARM/_Library/u8x8_d_sbn1661.c ****       cnt += 8;
  84:/Users/imashio/Electronics/ARM/_Library/u8x8_d_sbn1661.c ****       cnt &= 0x0f8;
  85:/Users/imashio/Electronics/ARM/_Library/u8x8_d_sbn1661.c ****       cnt -= v->x;
  86:/Users/imashio/Electronics/ARM/_Library/u8x8_d_sbn1661.c ****             
  87:/Users/imashio/Electronics/ARM/_Library/u8x8_d_sbn1661.c ****       if ( cnt > v->c )
  88:/Users/imashio/Electronics/ARM/_Library/u8x8_d_sbn1661.c **** 	cnt = v->c;
ARM GAS  /var/folders/v3/wysfpd052nz8jkbx04pk0ym80000gn/T//ccbm4AxD.s 			page 3


  89:/Users/imashio/Electronics/ARM/_Library/u8x8_d_sbn1661.c ****     
  90:/Users/imashio/Electronics/ARM/_Library/u8x8_d_sbn1661.c ****       /* of course we still could use cnt=1 here... */
  91:/Users/imashio/Electronics/ARM/_Library/u8x8_d_sbn1661.c ****       /* but setting cnt to 1 is not very efficient */
  92:/Users/imashio/Electronics/ARM/_Library/u8x8_d_sbn1661.c ****       //cnt = 1;
  93:/Users/imashio/Electronics/ARM/_Library/u8x8_d_sbn1661.c ****     
  94:/Users/imashio/Electronics/ARM/_Library/u8x8_d_sbn1661.c ****       v->x +=cnt;
  95:/Users/imashio/Electronics/ARM/_Library/u8x8_d_sbn1661.c ****       v->c-=cnt;
  96:/Users/imashio/Electronics/ARM/_Library/u8x8_d_sbn1661.c ****       cnt<<=3;
  97:/Users/imashio/Electronics/ARM/_Library/u8x8_d_sbn1661.c ****       u8x8_cad_SendData(u8x8, cnt, v->ptr);	/* note: SendData can not handle more than 255 bytes */
  98:/Users/imashio/Electronics/ARM/_Library/u8x8_d_sbn1661.c ****       v->ptr += cnt;
  99:/Users/imashio/Electronics/ARM/_Library/u8x8_d_sbn1661.c ****     
 100:/Users/imashio/Electronics/ARM/_Library/u8x8_d_sbn1661.c ****       if ( v->c == 0 )
 101:/Users/imashio/Electronics/ARM/_Library/u8x8_d_sbn1661.c ****       {
 102:/Users/imashio/Electronics/ARM/_Library/u8x8_d_sbn1661.c **** 	v->ptr = ((u8x8_tile_t *)arg_ptr)->tile_ptr;
 103:/Users/imashio/Electronics/ARM/_Library/u8x8_d_sbn1661.c **** 	v->c = ((u8x8_tile_t *)arg_ptr)->cnt;
 104:/Users/imashio/Electronics/ARM/_Library/u8x8_d_sbn1661.c **** 	v->arg_int--;
 105:/Users/imashio/Electronics/ARM/_Library/u8x8_d_sbn1661.c ****       }
 106:/Users/imashio/Electronics/ARM/_Library/u8x8_d_sbn1661.c ****       if ( ((v->x) & 7) == 0 )
 107:/Users/imashio/Electronics/ARM/_Library/u8x8_d_sbn1661.c **** 	break;       
 108:/Users/imashio/Electronics/ARM/_Library/u8x8_d_sbn1661.c ****   } 
 109:/Users/imashio/Electronics/ARM/_Library/u8x8_d_sbn1661.c **** }
 110:/Users/imashio/Electronics/ARM/_Library/u8x8_d_sbn1661.c **** 
 111:/Users/imashio/Electronics/ARM/_Library/u8x8_d_sbn1661.c **** 
 112:/Users/imashio/Electronics/ARM/_Library/u8x8_d_sbn1661.c **** static const u8x8_display_info_t u8x8_sbn1661_122x32_display_info =
 113:/Users/imashio/Electronics/ARM/_Library/u8x8_d_sbn1661.c **** {
 114:/Users/imashio/Electronics/ARM/_Library/u8x8_d_sbn1661.c ****   /* chip_enable_level = */ 0,		/* sbn1661: Not used */
 115:/Users/imashio/Electronics/ARM/_Library/u8x8_d_sbn1661.c ****   /* chip_disable_level = */ 1,		/* sbn1661: Not used */
 116:/Users/imashio/Electronics/ARM/_Library/u8x8_d_sbn1661.c ****   
 117:/Users/imashio/Electronics/ARM/_Library/u8x8_d_sbn1661.c ****   /* post_chip_enable_wait_ns = */ 100,
 118:/Users/imashio/Electronics/ARM/_Library/u8x8_d_sbn1661.c ****   /* pre_chip_disable_wait_ns = */ 20,
 119:/Users/imashio/Electronics/ARM/_Library/u8x8_d_sbn1661.c ****   /* reset_pulse_width_ms = */ 1, 
 120:/Users/imashio/Electronics/ARM/_Library/u8x8_d_sbn1661.c ****   /* post_reset_wait_ms = */ 6, 		/*  */
 121:/Users/imashio/Electronics/ARM/_Library/u8x8_d_sbn1661.c ****   /* sda_setup_time_ns = */ 12,		
 122:/Users/imashio/Electronics/ARM/_Library/u8x8_d_sbn1661.c ****   /* sck_pulse_width_ns = */ 75,	/* sbn1661: Not used */
 123:/Users/imashio/Electronics/ARM/_Library/u8x8_d_sbn1661.c ****   /* sck_clock_hz = */ 4000000UL,	/* sbn1661: Not used */
 124:/Users/imashio/Electronics/ARM/_Library/u8x8_d_sbn1661.c ****   /* spi_mode = */ 0,				/* active high, rising edge */
 125:/Users/imashio/Electronics/ARM/_Library/u8x8_d_sbn1661.c ****   /* i2c_bus_clock_100kHz = */ 4,	/* sbn1661: Not used */
 126:/Users/imashio/Electronics/ARM/_Library/u8x8_d_sbn1661.c ****   /* data_setup_time_ns = */ 200,
 127:/Users/imashio/Electronics/ARM/_Library/u8x8_d_sbn1661.c ****   /* write_pulse_width_ns = */ 200,	/*  */
 128:/Users/imashio/Electronics/ARM/_Library/u8x8_d_sbn1661.c ****   /* tile_width = */ 16,		/* width of 16*8=128 pixel */
 129:/Users/imashio/Electronics/ARM/_Library/u8x8_d_sbn1661.c ****   /* tile_hight = */ 4,
 130:/Users/imashio/Electronics/ARM/_Library/u8x8_d_sbn1661.c ****   /* default_x_offset = */ 0,
 131:/Users/imashio/Electronics/ARM/_Library/u8x8_d_sbn1661.c ****   /* flipmode_x_offset = */ 0,
 132:/Users/imashio/Electronics/ARM/_Library/u8x8_d_sbn1661.c ****   /* pixel_width = */ 122,
 133:/Users/imashio/Electronics/ARM/_Library/u8x8_d_sbn1661.c ****   /* pixel_height = */ 32
 134:/Users/imashio/Electronics/ARM/_Library/u8x8_d_sbn1661.c **** };
 135:/Users/imashio/Electronics/ARM/_Library/u8x8_d_sbn1661.c **** 
 136:/Users/imashio/Electronics/ARM/_Library/u8x8_d_sbn1661.c **** uint8_t u8x8_d_sbn1661_122x32(u8x8_t *u8x8, uint8_t msg, uint8_t arg_int, void *arg_ptr)
 137:/Users/imashio/Electronics/ARM/_Library/u8x8_d_sbn1661.c **** {
  28              		.loc 1 137 0
  29              		.cfi_startproc
  30              		@ args = 0, pretend = 0, frame = 0
  31              		@ frame_needed = 0, uses_anonymous_args = 0
  32              	.LVL0:
  33 0000 F8B5     		push	{r3, r4, r5, r6, r7, lr}
  34              	.LCFI0:
  35              		.cfi_def_cfa_offset 24
ARM GAS  /var/folders/v3/wysfpd052nz8jkbx04pk0ym80000gn/T//ccbm4AxD.s 			page 4


  36              		.cfi_offset 3, -24
  37              		.cfi_offset 4, -20
  38              		.cfi_offset 5, -16
  39              		.cfi_offset 6, -12
  40              		.cfi_offset 7, -8
  41              		.cfi_offset 14, -4
  42 0002 0446     		mov	r4, r0
  43 0004 1D46     		mov	r5, r3
 138:/Users/imashio/Electronics/ARM/_Library/u8x8_d_sbn1661.c ****   uint8_t *ptr;
 139:/Users/imashio/Electronics/ARM/_Library/u8x8_d_sbn1661.c ****   //uint8_t x;
 140:/Users/imashio/Electronics/ARM/_Library/u8x8_d_sbn1661.c ****   //uint8_t c;
 141:/Users/imashio/Electronics/ARM/_Library/u8x8_d_sbn1661.c ****   
 142:/Users/imashio/Electronics/ARM/_Library/u8x8_d_sbn1661.c ****   switch(msg)
  44              		.loc 1 142 0
  45 0006 0939     		subs	r1, r1, #9
  46              	.LVL1:
  47 0008 0629     		cmp	r1, #6
  48 000a 00F2AE80 		bhi	.L9
  49 000e DFE801F0 		tbb	[pc, r1]
  50              	.LVL2:
  51              	.L4:
  52 0012 04       		.byte	(.L3-.L4)/2
  53 0013 09       		.byte	(.L5-.L4)/2
  54 0014 2E       		.byte	(.L6-.L4)/2
  55 0015 AC       		.byte	(.L9-.L4)/2
  56 0016 AC       		.byte	(.L9-.L4)/2
  57 0017 AC       		.byte	(.L9-.L4)/2
  58 0018 73       		.byte	(.L7-.L4)/2
  59 0019 00       		.p2align 1
  60              	.L3:
 143:/Users/imashio/Electronics/ARM/_Library/u8x8_d_sbn1661.c ****   {
 144:/Users/imashio/Electronics/ARM/_Library/u8x8_d_sbn1661.c ****     case U8X8_MSG_DISPLAY_SETUP_MEMORY:
 145:/Users/imashio/Electronics/ARM/_Library/u8x8_d_sbn1661.c ****       u8x8_d_helper_display_setup_memory(u8x8, &u8x8_sbn1661_122x32_display_info);
  61              		.loc 1 145 0
  62 001a 5549     		ldr	r1, .L11
  63 001c FFF7FEFF 		bl	u8x8_d_helper_display_setup_memory
  64              	.LVL3:
 146:/Users/imashio/Electronics/ARM/_Library/u8x8_d_sbn1661.c ****       break;
 147:/Users/imashio/Electronics/ARM/_Library/u8x8_d_sbn1661.c ****     case U8X8_MSG_DISPLAY_INIT:
 148:/Users/imashio/Electronics/ARM/_Library/u8x8_d_sbn1661.c ****       u8x8_d_helper_display_init(u8x8);
 149:/Users/imashio/Electronics/ARM/_Library/u8x8_d_sbn1661.c ****     
 150:/Users/imashio/Electronics/ARM/_Library/u8x8_d_sbn1661.c ****       u8x8->cad_cb(u8x8, U8X8_MSG_CAD_START_TRANSFER, 0, NULL);
 151:/Users/imashio/Electronics/ARM/_Library/u8x8_d_sbn1661.c ****       u8x8_cad_SendSequence(u8x8, u8x8_d_sbn1661_init_seq);
 152:/Users/imashio/Electronics/ARM/_Library/u8x8_d_sbn1661.c ****       u8x8->cad_cb(u8x8, U8X8_MSG_CAD_END_TRANSFER, 0, NULL);
 153:/Users/imashio/Electronics/ARM/_Library/u8x8_d_sbn1661.c ****     
 154:/Users/imashio/Electronics/ARM/_Library/u8x8_d_sbn1661.c ****       u8x8->cad_cb(u8x8, U8X8_MSG_CAD_START_TRANSFER, 1, NULL);
 155:/Users/imashio/Electronics/ARM/_Library/u8x8_d_sbn1661.c ****       u8x8_cad_SendSequence(u8x8, u8x8_d_sbn1661_init_seq);
 156:/Users/imashio/Electronics/ARM/_Library/u8x8_d_sbn1661.c ****       u8x8->cad_cb(u8x8, U8X8_MSG_CAD_END_TRANSFER, 1, NULL);
 157:/Users/imashio/Electronics/ARM/_Library/u8x8_d_sbn1661.c ****       break;
 158:/Users/imashio/Electronics/ARM/_Library/u8x8_d_sbn1661.c ****     case U8X8_MSG_DISPLAY_SET_POWER_SAVE:
 159:/Users/imashio/Electronics/ARM/_Library/u8x8_d_sbn1661.c ****       
 160:/Users/imashio/Electronics/ARM/_Library/u8x8_d_sbn1661.c ****       if ( arg_int == 0 )
 161:/Users/imashio/Electronics/ARM/_Library/u8x8_d_sbn1661.c ****       {
 162:/Users/imashio/Electronics/ARM/_Library/u8x8_d_sbn1661.c **** 	u8x8->cad_cb(u8x8, U8X8_MSG_CAD_START_TRANSFER, 0, NULL);
 163:/Users/imashio/Electronics/ARM/_Library/u8x8_d_sbn1661.c **** 	u8x8_cad_SendSequence(u8x8, u8x8_d_sbn1661_powersave0_seq);
 164:/Users/imashio/Electronics/ARM/_Library/u8x8_d_sbn1661.c **** 	u8x8->cad_cb(u8x8, U8X8_MSG_CAD_END_TRANSFER, 0, NULL);
 165:/Users/imashio/Electronics/ARM/_Library/u8x8_d_sbn1661.c **** 
ARM GAS  /var/folders/v3/wysfpd052nz8jkbx04pk0ym80000gn/T//ccbm4AxD.s 			page 5


 166:/Users/imashio/Electronics/ARM/_Library/u8x8_d_sbn1661.c **** 	u8x8->cad_cb(u8x8, U8X8_MSG_CAD_START_TRANSFER, 1, NULL);
 167:/Users/imashio/Electronics/ARM/_Library/u8x8_d_sbn1661.c **** 	u8x8_cad_SendSequence(u8x8, u8x8_d_sbn1661_powersave0_seq);
 168:/Users/imashio/Electronics/ARM/_Library/u8x8_d_sbn1661.c **** 	u8x8->cad_cb(u8x8, U8X8_MSG_CAD_END_TRANSFER, 1, NULL);	
 169:/Users/imashio/Electronics/ARM/_Library/u8x8_d_sbn1661.c ****       }
 170:/Users/imashio/Electronics/ARM/_Library/u8x8_d_sbn1661.c ****       else
 171:/Users/imashio/Electronics/ARM/_Library/u8x8_d_sbn1661.c ****       {
 172:/Users/imashio/Electronics/ARM/_Library/u8x8_d_sbn1661.c **** 	u8x8->cad_cb(u8x8, U8X8_MSG_CAD_START_TRANSFER, 0, NULL);
 173:/Users/imashio/Electronics/ARM/_Library/u8x8_d_sbn1661.c **** 	u8x8_cad_SendSequence(u8x8, u8x8_d_sbn1661_powersave1_seq);
 174:/Users/imashio/Electronics/ARM/_Library/u8x8_d_sbn1661.c **** 	u8x8->cad_cb(u8x8, U8X8_MSG_CAD_END_TRANSFER, 0, NULL);
 175:/Users/imashio/Electronics/ARM/_Library/u8x8_d_sbn1661.c **** 	
 176:/Users/imashio/Electronics/ARM/_Library/u8x8_d_sbn1661.c **** 	u8x8->cad_cb(u8x8, U8X8_MSG_CAD_START_TRANSFER, 1, NULL);
 177:/Users/imashio/Electronics/ARM/_Library/u8x8_d_sbn1661.c **** 	u8x8_cad_SendSequence(u8x8, u8x8_d_sbn1661_powersave1_seq);
 178:/Users/imashio/Electronics/ARM/_Library/u8x8_d_sbn1661.c **** 	u8x8->cad_cb(u8x8, U8X8_MSG_CAD_END_TRANSFER, 1, NULL);
 179:/Users/imashio/Electronics/ARM/_Library/u8x8_d_sbn1661.c **** 	
 180:/Users/imashio/Electronics/ARM/_Library/u8x8_d_sbn1661.c ****       }
 181:/Users/imashio/Electronics/ARM/_Library/u8x8_d_sbn1661.c ****       break;
 182:/Users/imashio/Electronics/ARM/_Library/u8x8_d_sbn1661.c ****     case U8X8_MSG_DISPLAY_DRAW_TILE:
 183:/Users/imashio/Electronics/ARM/_Library/u8x8_d_sbn1661.c **** 
 184:/Users/imashio/Electronics/ARM/_Library/u8x8_d_sbn1661.c ****       ptr = ((u8x8_tile_t *)arg_ptr)->tile_ptr;
 185:/Users/imashio/Electronics/ARM/_Library/u8x8_d_sbn1661.c ****       // x and c are ignored (u8g2 only)
 186:/Users/imashio/Electronics/ARM/_Library/u8x8_d_sbn1661.c ****       //x = ((u8x8_tile_t *)arg_ptr)->x_pos;
 187:/Users/imashio/Electronics/ARM/_Library/u8x8_d_sbn1661.c ****       //c = ((u8x8_tile_t *)arg_ptr)->cnt;
 188:/Users/imashio/Electronics/ARM/_Library/u8x8_d_sbn1661.c ****       
 189:/Users/imashio/Electronics/ARM/_Library/u8x8_d_sbn1661.c ****       u8x8->cad_cb(u8x8, U8X8_MSG_CAD_START_TRANSFER, 0, NULL);
 190:/Users/imashio/Electronics/ARM/_Library/u8x8_d_sbn1661.c ****       u8x8_cad_SendCmd(u8x8, 0x000 | 0);		// column 0
 191:/Users/imashio/Electronics/ARM/_Library/u8x8_d_sbn1661.c ****       u8x8_cad_SendCmd(u8x8, 0x0b8 | (((u8x8_tile_t *)arg_ptr)->y_pos));
 192:/Users/imashio/Electronics/ARM/_Library/u8x8_d_sbn1661.c ****       u8x8_cad_SendData(u8x8, 61, ptr);	/* note: SendData can not handle more than 255 bytes */    
 193:/Users/imashio/Electronics/ARM/_Library/u8x8_d_sbn1661.c ****       u8x8->cad_cb(u8x8, U8X8_MSG_CAD_END_TRANSFER, 0, NULL);
 194:/Users/imashio/Electronics/ARM/_Library/u8x8_d_sbn1661.c **** 
 195:/Users/imashio/Electronics/ARM/_Library/u8x8_d_sbn1661.c ****       ptr += 61;
 196:/Users/imashio/Electronics/ARM/_Library/u8x8_d_sbn1661.c ****       
 197:/Users/imashio/Electronics/ARM/_Library/u8x8_d_sbn1661.c ****       u8x8->cad_cb(u8x8, U8X8_MSG_CAD_START_TRANSFER, 1, NULL);
 198:/Users/imashio/Electronics/ARM/_Library/u8x8_d_sbn1661.c ****       u8x8_cad_SendCmd(u8x8, 0x000 | 0);		// column 0
 199:/Users/imashio/Electronics/ARM/_Library/u8x8_d_sbn1661.c ****       u8x8_cad_SendCmd(u8x8, 0x0b8 | (((u8x8_tile_t *)arg_ptr)->y_pos));
 200:/Users/imashio/Electronics/ARM/_Library/u8x8_d_sbn1661.c ****     
 201:/Users/imashio/Electronics/ARM/_Library/u8x8_d_sbn1661.c ****       u8x8_cad_SendData(u8x8, 61, ptr);	/* note: SendData can not handle more than 255 bytes */    
 202:/Users/imashio/Electronics/ARM/_Library/u8x8_d_sbn1661.c ****       u8x8->cad_cb(u8x8, U8X8_MSG_CAD_END_TRANSFER, 1, NULL);
 203:/Users/imashio/Electronics/ARM/_Library/u8x8_d_sbn1661.c ****     
 204:/Users/imashio/Electronics/ARM/_Library/u8x8_d_sbn1661.c ****       break;
 205:/Users/imashio/Electronics/ARM/_Library/u8x8_d_sbn1661.c ****     default:
 206:/Users/imashio/Electronics/ARM/_Library/u8x8_d_sbn1661.c ****       return 0;
 207:/Users/imashio/Electronics/ARM/_Library/u8x8_d_sbn1661.c ****   }
 208:/Users/imashio/Electronics/ARM/_Library/u8x8_d_sbn1661.c ****   return 1;
  65              		.loc 1 208 0
  66 0020 0120     		movs	r0, #1
  67              	.LVL4:
  68              	.L2:
 209:/Users/imashio/Electronics/ARM/_Library/u8x8_d_sbn1661.c **** }
  69              		.loc 1 209 0
  70 0022 F8BD     		pop	{r3, r4, r5, r6, r7, pc}
  71              	.LVL5:
  72              	.L5:
 148:/Users/imashio/Electronics/ARM/_Library/u8x8_d_sbn1661.c ****     
  73              		.loc 1 148 0
  74 0024 FFF7FEFF 		bl	u8x8_d_helper_display_init
  75              	.LVL6:
 150:/Users/imashio/Electronics/ARM/_Library/u8x8_d_sbn1661.c ****       u8x8_cad_SendSequence(u8x8, u8x8_d_sbn1661_init_seq);
ARM GAS  /var/folders/v3/wysfpd052nz8jkbx04pk0ym80000gn/T//ccbm4AxD.s 			page 6


  76              		.loc 1 150 0
  77 0028 E568     		ldr	r5, [r4, #12]
  78              	.LVL7:
  79 002a 0023     		movs	r3, #0
  80 002c 1A46     		mov	r2, r3
  81 002e 1821     		movs	r1, #24
  82 0030 2046     		mov	r0, r4
  83 0032 A847     		blx	r5
  84              	.LVL8:
 151:/Users/imashio/Electronics/ARM/_Library/u8x8_d_sbn1661.c ****       u8x8->cad_cb(u8x8, U8X8_MSG_CAD_END_TRANSFER, 0, NULL);
  85              		.loc 1 151 0
  86 0034 4F4D     		ldr	r5, .L11+4
  87 0036 2946     		mov	r1, r5
  88 0038 2046     		mov	r0, r4
  89 003a FFF7FEFF 		bl	u8x8_cad_SendSequence
  90              	.LVL9:
 152:/Users/imashio/Electronics/ARM/_Library/u8x8_d_sbn1661.c ****     
  91              		.loc 1 152 0
  92 003e E668     		ldr	r6, [r4, #12]
  93 0040 0023     		movs	r3, #0
  94 0042 1A46     		mov	r2, r3
  95 0044 1921     		movs	r1, #25
  96 0046 2046     		mov	r0, r4
  97 0048 B047     		blx	r6
  98              	.LVL10:
 154:/Users/imashio/Electronics/ARM/_Library/u8x8_d_sbn1661.c ****       u8x8_cad_SendSequence(u8x8, u8x8_d_sbn1661_init_seq);
  99              		.loc 1 154 0
 100 004a E668     		ldr	r6, [r4, #12]
 101 004c 0023     		movs	r3, #0
 102 004e 0122     		movs	r2, #1
 103 0050 1821     		movs	r1, #24
 104 0052 2046     		mov	r0, r4
 105 0054 B047     		blx	r6
 106              	.LVL11:
 155:/Users/imashio/Electronics/ARM/_Library/u8x8_d_sbn1661.c ****       u8x8->cad_cb(u8x8, U8X8_MSG_CAD_END_TRANSFER, 1, NULL);
 107              		.loc 1 155 0
 108 0056 2946     		mov	r1, r5
 109 0058 2046     		mov	r0, r4
 110 005a FFF7FEFF 		bl	u8x8_cad_SendSequence
 111              	.LVL12:
 156:/Users/imashio/Electronics/ARM/_Library/u8x8_d_sbn1661.c ****       break;
 112              		.loc 1 156 0
 113 005e E568     		ldr	r5, [r4, #12]
 114 0060 0023     		movs	r3, #0
 115 0062 0122     		movs	r2, #1
 116 0064 1921     		movs	r1, #25
 117 0066 2046     		mov	r0, r4
 118 0068 A847     		blx	r5
 119              	.LVL13:
 208:/Users/imashio/Electronics/ARM/_Library/u8x8_d_sbn1661.c **** }
 120              		.loc 1 208 0
 121 006a 0120     		movs	r0, #1
 157:/Users/imashio/Electronics/ARM/_Library/u8x8_d_sbn1661.c ****     case U8X8_MSG_DISPLAY_SET_POWER_SAVE:
 122              		.loc 1 157 0
 123 006c D9E7     		b	.L2
 124              	.LVL14:
 125              	.L6:
ARM GAS  /var/folders/v3/wysfpd052nz8jkbx04pk0ym80000gn/T//ccbm4AxD.s 			page 7


 160:/Users/imashio/Electronics/ARM/_Library/u8x8_d_sbn1661.c ****       {
 126              		.loc 1 160 0
 127 006e 0ABB     		cbnz	r2, .L8
 162:/Users/imashio/Electronics/ARM/_Library/u8x8_d_sbn1661.c **** 	u8x8_cad_SendSequence(u8x8, u8x8_d_sbn1661_powersave0_seq);
 128              		.loc 1 162 0
 129 0070 C568     		ldr	r5, [r0, #12]
 130              	.LVL15:
 131 0072 0023     		movs	r3, #0
 132 0074 1A46     		mov	r2, r3
 133              	.LVL16:
 134 0076 1821     		movs	r1, #24
 135 0078 A847     		blx	r5
 136              	.LVL17:
 163:/Users/imashio/Electronics/ARM/_Library/u8x8_d_sbn1661.c **** 	u8x8->cad_cb(u8x8, U8X8_MSG_CAD_END_TRANSFER, 0, NULL);
 137              		.loc 1 163 0
 138 007a 3F4D     		ldr	r5, .L11+8
 139 007c 2946     		mov	r1, r5
 140 007e 2046     		mov	r0, r4
 141 0080 FFF7FEFF 		bl	u8x8_cad_SendSequence
 142              	.LVL18:
 164:/Users/imashio/Electronics/ARM/_Library/u8x8_d_sbn1661.c **** 
 143              		.loc 1 164 0
 144 0084 E668     		ldr	r6, [r4, #12]
 145 0086 0023     		movs	r3, #0
 146 0088 1A46     		mov	r2, r3
 147 008a 1921     		movs	r1, #25
 148 008c 2046     		mov	r0, r4
 149 008e B047     		blx	r6
 150              	.LVL19:
 166:/Users/imashio/Electronics/ARM/_Library/u8x8_d_sbn1661.c **** 	u8x8_cad_SendSequence(u8x8, u8x8_d_sbn1661_powersave0_seq);
 151              		.loc 1 166 0
 152 0090 E668     		ldr	r6, [r4, #12]
 153 0092 0023     		movs	r3, #0
 154 0094 0122     		movs	r2, #1
 155 0096 1821     		movs	r1, #24
 156 0098 2046     		mov	r0, r4
 157 009a B047     		blx	r6
 158              	.LVL20:
 167:/Users/imashio/Electronics/ARM/_Library/u8x8_d_sbn1661.c **** 	u8x8->cad_cb(u8x8, U8X8_MSG_CAD_END_TRANSFER, 1, NULL);	
 159              		.loc 1 167 0
 160 009c 2946     		mov	r1, r5
 161 009e 2046     		mov	r0, r4
 162 00a0 FFF7FEFF 		bl	u8x8_cad_SendSequence
 163              	.LVL21:
 168:/Users/imashio/Electronics/ARM/_Library/u8x8_d_sbn1661.c ****       }
 164              		.loc 1 168 0
 165 00a4 E568     		ldr	r5, [r4, #12]
 166 00a6 0023     		movs	r3, #0
 167 00a8 0122     		movs	r2, #1
 168 00aa 1921     		movs	r1, #25
 169 00ac 2046     		mov	r0, r4
 170 00ae A847     		blx	r5
 171              	.LVL22:
 208:/Users/imashio/Electronics/ARM/_Library/u8x8_d_sbn1661.c **** }
 172              		.loc 1 208 0
 173 00b0 0120     		movs	r0, #1
 174 00b2 B6E7     		b	.L2
ARM GAS  /var/folders/v3/wysfpd052nz8jkbx04pk0ym80000gn/T//ccbm4AxD.s 			page 8


 175              	.LVL23:
 176              	.L8:
 172:/Users/imashio/Electronics/ARM/_Library/u8x8_d_sbn1661.c **** 	u8x8_cad_SendSequence(u8x8, u8x8_d_sbn1661_powersave1_seq);
 177              		.loc 1 172 0
 178 00b4 C568     		ldr	r5, [r0, #12]
 179              	.LVL24:
 180 00b6 0023     		movs	r3, #0
 181 00b8 1A46     		mov	r2, r3
 182              	.LVL25:
 183 00ba 1821     		movs	r1, #24
 184 00bc A847     		blx	r5
 185              	.LVL26:
 173:/Users/imashio/Electronics/ARM/_Library/u8x8_d_sbn1661.c **** 	u8x8->cad_cb(u8x8, U8X8_MSG_CAD_END_TRANSFER, 0, NULL);
 186              		.loc 1 173 0
 187 00be 2F4D     		ldr	r5, .L11+12
 188 00c0 2946     		mov	r1, r5
 189 00c2 2046     		mov	r0, r4
 190 00c4 FFF7FEFF 		bl	u8x8_cad_SendSequence
 191              	.LVL27:
 174:/Users/imashio/Electronics/ARM/_Library/u8x8_d_sbn1661.c **** 	
 192              		.loc 1 174 0
 193 00c8 E668     		ldr	r6, [r4, #12]
 194 00ca 0023     		movs	r3, #0
 195 00cc 1A46     		mov	r2, r3
 196 00ce 1921     		movs	r1, #25
 197 00d0 2046     		mov	r0, r4
 198 00d2 B047     		blx	r6
 199              	.LVL28:
 176:/Users/imashio/Electronics/ARM/_Library/u8x8_d_sbn1661.c **** 	u8x8_cad_SendSequence(u8x8, u8x8_d_sbn1661_powersave1_seq);
 200              		.loc 1 176 0
 201 00d4 E668     		ldr	r6, [r4, #12]
 202 00d6 0023     		movs	r3, #0
 203 00d8 0122     		movs	r2, #1
 204 00da 1821     		movs	r1, #24
 205 00dc 2046     		mov	r0, r4
 206 00de B047     		blx	r6
 207              	.LVL29:
 177:/Users/imashio/Electronics/ARM/_Library/u8x8_d_sbn1661.c **** 	u8x8->cad_cb(u8x8, U8X8_MSG_CAD_END_TRANSFER, 1, NULL);
 208              		.loc 1 177 0
 209 00e0 2946     		mov	r1, r5
 210 00e2 2046     		mov	r0, r4
 211 00e4 FFF7FEFF 		bl	u8x8_cad_SendSequence
 212              	.LVL30:
 178:/Users/imashio/Electronics/ARM/_Library/u8x8_d_sbn1661.c **** 	
 213              		.loc 1 178 0
 214 00e8 E568     		ldr	r5, [r4, #12]
 215 00ea 0023     		movs	r3, #0
 216 00ec 0122     		movs	r2, #1
 217 00ee 1921     		movs	r1, #25
 218 00f0 2046     		mov	r0, r4
 219 00f2 A847     		blx	r5
 220              	.LVL31:
 208:/Users/imashio/Electronics/ARM/_Library/u8x8_d_sbn1661.c **** }
 221              		.loc 1 208 0
 222 00f4 0120     		movs	r0, #1
 223 00f6 94E7     		b	.L2
 224              	.LVL32:
ARM GAS  /var/folders/v3/wysfpd052nz8jkbx04pk0ym80000gn/T//ccbm4AxD.s 			page 9


 225              	.L7:
 184:/Users/imashio/Electronics/ARM/_Library/u8x8_d_sbn1661.c ****       // x and c are ignored (u8g2 only)
 226              		.loc 1 184 0
 227 00f8 2E68     		ldr	r6, [r5]
 228              	.LVL33:
 189:/Users/imashio/Electronics/ARM/_Library/u8x8_d_sbn1661.c ****       u8x8_cad_SendCmd(u8x8, 0x000 | 0);		// column 0
 229              		.loc 1 189 0
 230 00fa C768     		ldr	r7, [r0, #12]
 231 00fc 0023     		movs	r3, #0
 232 00fe 1A46     		mov	r2, r3
 233              	.LVL34:
 234 0100 1821     		movs	r1, #24
 235 0102 B847     		blx	r7
 236              	.LVL35:
 190:/Users/imashio/Electronics/ARM/_Library/u8x8_d_sbn1661.c ****       u8x8_cad_SendCmd(u8x8, 0x0b8 | (((u8x8_tile_t *)arg_ptr)->y_pos));
 237              		.loc 1 190 0
 238 0104 0021     		movs	r1, #0
 239 0106 2046     		mov	r0, r4
 240 0108 FFF7FEFF 		bl	u8x8_cad_SendCmd
 241              	.LVL36:
 191:/Users/imashio/Electronics/ARM/_Library/u8x8_d_sbn1661.c ****       u8x8_cad_SendData(u8x8, 61, ptr);	/* note: SendData can not handle more than 255 bytes */    
 242              		.loc 1 191 0
 243 010c A979     		ldrb	r1, [r5, #6]	@ zero_extendqisi2
 244 010e 41F0B801 		orr	r1, r1, #184
 245 0112 2046     		mov	r0, r4
 246 0114 FFF7FEFF 		bl	u8x8_cad_SendCmd
 247              	.LVL37:
 192:/Users/imashio/Electronics/ARM/_Library/u8x8_d_sbn1661.c ****       u8x8->cad_cb(u8x8, U8X8_MSG_CAD_END_TRANSFER, 0, NULL);
 248              		.loc 1 192 0
 249 0118 3246     		mov	r2, r6
 250 011a 3D21     		movs	r1, #61
 251 011c 2046     		mov	r0, r4
 252 011e FFF7FEFF 		bl	u8x8_cad_SendData
 253              	.LVL38:
 193:/Users/imashio/Electronics/ARM/_Library/u8x8_d_sbn1661.c **** 
 254              		.loc 1 193 0
 255 0122 E768     		ldr	r7, [r4, #12]
 256 0124 0023     		movs	r3, #0
 257 0126 1A46     		mov	r2, r3
 258 0128 1921     		movs	r1, #25
 259 012a 2046     		mov	r0, r4
 260 012c B847     		blx	r7
 261              	.LVL39:
 195:/Users/imashio/Electronics/ARM/_Library/u8x8_d_sbn1661.c ****       
 262              		.loc 1 195 0
 263 012e 3D36     		adds	r6, r6, #61
 264              	.LVL40:
 197:/Users/imashio/Electronics/ARM/_Library/u8x8_d_sbn1661.c ****       u8x8_cad_SendCmd(u8x8, 0x000 | 0);		// column 0
 265              		.loc 1 197 0
 266 0130 E768     		ldr	r7, [r4, #12]
 267 0132 0023     		movs	r3, #0
 268 0134 0122     		movs	r2, #1
 269 0136 1821     		movs	r1, #24
 270 0138 2046     		mov	r0, r4
 271 013a B847     		blx	r7
 272              	.LVL41:
 198:/Users/imashio/Electronics/ARM/_Library/u8x8_d_sbn1661.c ****       u8x8_cad_SendCmd(u8x8, 0x0b8 | (((u8x8_tile_t *)arg_ptr)->y_pos));
ARM GAS  /var/folders/v3/wysfpd052nz8jkbx04pk0ym80000gn/T//ccbm4AxD.s 			page 10


 273              		.loc 1 198 0
 274 013c 0021     		movs	r1, #0
 275 013e 2046     		mov	r0, r4
 276 0140 FFF7FEFF 		bl	u8x8_cad_SendCmd
 277              	.LVL42:
 199:/Users/imashio/Electronics/ARM/_Library/u8x8_d_sbn1661.c ****     
 278              		.loc 1 199 0
 279 0144 A979     		ldrb	r1, [r5, #6]	@ zero_extendqisi2
 280 0146 41F0B801 		orr	r1, r1, #184
 281 014a 2046     		mov	r0, r4
 282 014c FFF7FEFF 		bl	u8x8_cad_SendCmd
 283              	.LVL43:
 201:/Users/imashio/Electronics/ARM/_Library/u8x8_d_sbn1661.c ****       u8x8->cad_cb(u8x8, U8X8_MSG_CAD_END_TRANSFER, 1, NULL);
 284              		.loc 1 201 0
 285 0150 3246     		mov	r2, r6
 286 0152 3D21     		movs	r1, #61
 287 0154 2046     		mov	r0, r4
 288 0156 FFF7FEFF 		bl	u8x8_cad_SendData
 289              	.LVL44:
 202:/Users/imashio/Electronics/ARM/_Library/u8x8_d_sbn1661.c ****     
 290              		.loc 1 202 0
 291 015a E568     		ldr	r5, [r4, #12]
 292              	.LVL45:
 293 015c 0023     		movs	r3, #0
 294 015e 0122     		movs	r2, #1
 295 0160 1921     		movs	r1, #25
 296 0162 2046     		mov	r0, r4
 297 0164 A847     		blx	r5
 298              	.LVL46:
 208:/Users/imashio/Electronics/ARM/_Library/u8x8_d_sbn1661.c **** }
 299              		.loc 1 208 0
 300 0166 0120     		movs	r0, #1
 204:/Users/imashio/Electronics/ARM/_Library/u8x8_d_sbn1661.c ****     default:
 301              		.loc 1 204 0
 302 0168 5BE7     		b	.L2
 303              	.LVL47:
 304              	.L9:
 206:/Users/imashio/Electronics/ARM/_Library/u8x8_d_sbn1661.c ****   }
 305              		.loc 1 206 0
 306 016a 0020     		movs	r0, #0
 307              	.LVL48:
 308 016c 59E7     		b	.L2
 309              	.L12:
 310 016e 00BF     		.align	2
 311              	.L11:
 312 0170 00000000 		.word	.LANCHOR0
 313 0174 00000000 		.word	.LANCHOR1
 314 0178 00000000 		.word	.LANCHOR2
 315 017c 00000000 		.word	.LANCHOR3
 316              		.cfi_endproc
 317              	.LFE1:
 319              		.section	.text.u8x8_d_sed1520_122x32,"ax",%progbits
 320              		.align	1
 321              		.global	u8x8_d_sed1520_122x32
 322              		.syntax unified
 323              		.thumb
 324              		.thumb_func
ARM GAS  /var/folders/v3/wysfpd052nz8jkbx04pk0ym80000gn/T//ccbm4AxD.s 			page 11


 325              		.fpu fpv4-sp-d16
 327              	u8x8_d_sed1520_122x32:
 328              	.LFB2:
 210:/Users/imashio/Electronics/ARM/_Library/u8x8_d_sbn1661.c **** 
 211:/Users/imashio/Electronics/ARM/_Library/u8x8_d_sbn1661.c **** uint8_t u8x8_d_sed1520_122x32(u8x8_t *u8x8, uint8_t msg, uint8_t arg_int, void *arg_ptr)
 212:/Users/imashio/Electronics/ARM/_Library/u8x8_d_sbn1661.c **** {
 329              		.loc 1 212 0
 330              		.cfi_startproc
 331              		@ args = 0, pretend = 0, frame = 0
 332              		@ frame_needed = 0, uses_anonymous_args = 0
 333              	.LVL49:
 334 0000 08B5     		push	{r3, lr}
 335              	.LCFI1:
 336              		.cfi_def_cfa_offset 8
 337              		.cfi_offset 3, -8
 338              		.cfi_offset 14, -4
 213:/Users/imashio/Electronics/ARM/_Library/u8x8_d_sbn1661.c ****   return u8x8_d_sbn1661_122x32(u8x8, msg, arg_int, arg_ptr);
 339              		.loc 1 213 0
 340 0002 FFF7FEFF 		bl	u8x8_d_sbn1661_122x32
 341              	.LVL50:
 214:/Users/imashio/Electronics/ARM/_Library/u8x8_d_sbn1661.c **** 
 215:/Users/imashio/Electronics/ARM/_Library/u8x8_d_sbn1661.c **** }
 342              		.loc 1 215 0
 343 0006 08BD     		pop	{r3, pc}
 344              		.cfi_endproc
 345              	.LFE2:
 347              		.section	.rodata.u8x8_d_sbn1661_init_seq,"a",%progbits
 348              		.align	2
 349              		.set	.LANCHOR1,. + 0
 352              	u8x8_d_sbn1661_init_seq:
 353 0000 15       		.byte	21
 354 0001 C0       		.byte	-64
 355 0002 15       		.byte	21
 356 0003 A0       		.byte	-96
 357 0004 15       		.byte	21
 358 0005 A4       		.byte	-92
 359 0006 15       		.byte	21
 360 0007 A9       		.byte	-87
 361 0008 FF       		.byte	-1
 362              		.section	.rodata.u8x8_d_sbn1661_powersave0_seq,"a",%progbits
 363              		.align	2
 364              		.set	.LANCHOR2,. + 0
 367              	u8x8_d_sbn1661_powersave0_seq:
 368 0000 15       		.byte	21
 369 0001 AF       		.byte	-81
 370 0002 FF       		.byte	-1
 371              		.section	.rodata.u8x8_d_sbn1661_powersave1_seq,"a",%progbits
 372              		.align	2
 373              		.set	.LANCHOR3,. + 0
 376              	u8x8_d_sbn1661_powersave1_seq:
 377 0000 15       		.byte	21
 378 0001 AE       		.byte	-82
 379 0002 FF       		.byte	-1
 380              		.section	.rodata.u8x8_sbn1661_122x32_display_info,"a",%progbits
 381              		.align	2
 382              		.set	.LANCHOR0,. + 0
 385              	u8x8_sbn1661_122x32_display_info:
ARM GAS  /var/folders/v3/wysfpd052nz8jkbx04pk0ym80000gn/T//ccbm4AxD.s 			page 12


 386 0000 00       		.byte	0
 387 0001 01       		.byte	1
 388 0002 64       		.byte	100
 389 0003 14       		.byte	20
 390 0004 01       		.byte	1
 391 0005 06       		.byte	6
 392 0006 0C       		.byte	12
 393 0007 4B       		.byte	75
 394 0008 00093D00 		.word	4000000
 395 000c 00       		.byte	0
 396 000d 04       		.byte	4
 397 000e C8       		.byte	-56
 398 000f C8       		.byte	-56
 399 0010 10       		.byte	16
 400 0011 04       		.byte	4
 401 0012 00       		.byte	0
 402 0013 00       		.byte	0
 403 0014 7A00     		.short	122
 404 0016 2000     		.short	32
 405              		.text
 406              	.Letext0:
 407              		.file 2 "/usr/local/gcc-arm-none-eabi-7-2018-q2-update/arm-none-eabi/include/machine/_default_type
 408              		.file 3 "/usr/local/gcc-arm-none-eabi-7-2018-q2-update/arm-none-eabi/include/sys/_stdint.h"
 409              		.file 4 "/Users/imashio/Electronics/ARM/_Library/u8x8.h"
ARM GAS  /var/folders/v3/wysfpd052nz8jkbx04pk0ym80000gn/T//ccbm4AxD.s 			page 13

