ARM GAS  /var/folders/v3/wysfpd052nz8jkbx04pk0ym80000gn/T//ccW4ekMf.s 			page 1


   1              		.cpu cortex-m4
   2              		.eabi_attribute 27, 1
   3              		.eabi_attribute 28, 1
   4              		.eabi_attribute 20, 1
   5              		.eabi_attribute 21, 1
   6              		.eabi_attribute 23, 3
   7              		.eabi_attribute 24, 1
   8              		.eabi_attribute 25, 1
   9              		.eabi_attribute 26, 1
  10              		.eabi_attribute 30, 2
  11              		.eabi_attribute 34, 1
  12              		.eabi_attribute 18, 4
  13              		.file	"u8x8_display.c"
  14              		.text
  15              	.Ltext0:
  16              		.cfi_sections	.debug_frame
  17              		.section	.text.u8x8_d_helper_display_setup_memory,"ax",%progbits
  18              		.align	1
  19              		.p2align 2,,3
  20              		.global	u8x8_d_helper_display_setup_memory
  21              		.syntax unified
  22              		.thumb
  23              		.thumb_func
  24              		.fpu fpv4-sp-d16
  26              	u8x8_d_helper_display_setup_memory:
  27              	.LFB0:
  28              		.file 1 "/Users/imashio/Electronics/ARM/_Library/u8x8_display.c"
   1:/Users/imashio/Electronics/ARM/_Library/u8x8_display.c **** /*
   2:/Users/imashio/Electronics/ARM/_Library/u8x8_display.c ****   
   3:/Users/imashio/Electronics/ARM/_Library/u8x8_display.c ****   u8x8_display.c
   4:/Users/imashio/Electronics/ARM/_Library/u8x8_display.c ****   
   5:/Users/imashio/Electronics/ARM/_Library/u8x8_display.c ****   Universal 8bit Graphics Library (https://github.com/olikraus/u8g2/)
   6:/Users/imashio/Electronics/ARM/_Library/u8x8_display.c **** 
   7:/Users/imashio/Electronics/ARM/_Library/u8x8_display.c ****   Copyright (c) 2016, olikraus@gmail.com
   8:/Users/imashio/Electronics/ARM/_Library/u8x8_display.c ****   All rights reserved.
   9:/Users/imashio/Electronics/ARM/_Library/u8x8_display.c **** 
  10:/Users/imashio/Electronics/ARM/_Library/u8x8_display.c ****   Redistribution and use in source and binary forms, with or without modification, 
  11:/Users/imashio/Electronics/ARM/_Library/u8x8_display.c ****   are permitted provided that the following conditions are met:
  12:/Users/imashio/Electronics/ARM/_Library/u8x8_display.c **** 
  13:/Users/imashio/Electronics/ARM/_Library/u8x8_display.c ****   * Redistributions of source code must retain the above copyright notice, this list 
  14:/Users/imashio/Electronics/ARM/_Library/u8x8_display.c ****     of conditions and the following disclaimer.
  15:/Users/imashio/Electronics/ARM/_Library/u8x8_display.c ****     
  16:/Users/imashio/Electronics/ARM/_Library/u8x8_display.c ****   * Redistributions in binary form must reproduce the above copyright notice, this 
  17:/Users/imashio/Electronics/ARM/_Library/u8x8_display.c ****     list of conditions and the following disclaimer in the documentation and/or other 
  18:/Users/imashio/Electronics/ARM/_Library/u8x8_display.c ****     materials provided with the distribution.
  19:/Users/imashio/Electronics/ARM/_Library/u8x8_display.c **** 
  20:/Users/imashio/Electronics/ARM/_Library/u8x8_display.c ****   THIS SOFTWARE IS PROVIDED BY THE COPYRIGHT HOLDERS AND 
  21:/Users/imashio/Electronics/ARM/_Library/u8x8_display.c ****   CONTRIBUTORS "AS IS" AND ANY EXPRESS OR IMPLIED WARRANTIES, 
  22:/Users/imashio/Electronics/ARM/_Library/u8x8_display.c ****   INCLUDING, BUT NOT LIMITED TO, THE IMPLIED WARRANTIES OF 
  23:/Users/imashio/Electronics/ARM/_Library/u8x8_display.c ****   MERCHANTABILITY AND FITNESS FOR A PARTICULAR PURPOSE ARE 
  24:/Users/imashio/Electronics/ARM/_Library/u8x8_display.c ****   DISCLAIMED. IN NO EVENT SHALL THE COPYRIGHT HOLDER OR 
  25:/Users/imashio/Electronics/ARM/_Library/u8x8_display.c ****   CONTRIBUTORS BE LIABLE FOR ANY DIRECT, INDIRECT, INCIDENTAL, 
  26:/Users/imashio/Electronics/ARM/_Library/u8x8_display.c ****   SPECIAL, EXEMPLARY, OR CONSEQUENTIAL DAMAGES (INCLUDING, BUT 
  27:/Users/imashio/Electronics/ARM/_Library/u8x8_display.c ****   NOT LIMITED TO, PROCUREMENT OF SUBSTITUTE GOODS OR SERVICES; 
  28:/Users/imashio/Electronics/ARM/_Library/u8x8_display.c ****   LOSS OF USE, DATA, OR PROFITS; OR BUSINESS INTERRUPTION) HOWEVER 
  29:/Users/imashio/Electronics/ARM/_Library/u8x8_display.c ****   CAUSED AND ON ANY THEORY OF LIABILITY, WHETHER IN CONTRACT, 
  30:/Users/imashio/Electronics/ARM/_Library/u8x8_display.c ****   STRICT LIABILITY, OR TORT (INCLUDING NEGLIGENCE OR OTHERWISE) 
ARM GAS  /var/folders/v3/wysfpd052nz8jkbx04pk0ym80000gn/T//ccW4ekMf.s 			page 2


  31:/Users/imashio/Electronics/ARM/_Library/u8x8_display.c ****   ARISING IN ANY WAY OUT OF THE USE OF THIS SOFTWARE, EVEN IF 
  32:/Users/imashio/Electronics/ARM/_Library/u8x8_display.c ****   ADVISED OF THE POSSIBILITY OF SUCH DAMAGE.  
  33:/Users/imashio/Electronics/ARM/_Library/u8x8_display.c ****   
  34:/Users/imashio/Electronics/ARM/_Library/u8x8_display.c ****   
  35:/Users/imashio/Electronics/ARM/_Library/u8x8_display.c ****   Abstraction layer for the graphics controller.
  36:/Users/imashio/Electronics/ARM/_Library/u8x8_display.c ****   Main goal is the placement of a 8x8 pixel block (tile) on the display.
  37:/Users/imashio/Electronics/ARM/_Library/u8x8_display.c ****   
  38:/Users/imashio/Electronics/ARM/_Library/u8x8_display.c **** */
  39:/Users/imashio/Electronics/ARM/_Library/u8x8_display.c **** 
  40:/Users/imashio/Electronics/ARM/_Library/u8x8_display.c **** 
  41:/Users/imashio/Electronics/ARM/_Library/u8x8_display.c **** #include "u8x8.h"
  42:/Users/imashio/Electronics/ARM/_Library/u8x8_display.c **** 
  43:/Users/imashio/Electronics/ARM/_Library/u8x8_display.c **** 
  44:/Users/imashio/Electronics/ARM/_Library/u8x8_display.c **** /*==========================================*/
  45:/Users/imashio/Electronics/ARM/_Library/u8x8_display.c **** /* internal library function */
  46:/Users/imashio/Electronics/ARM/_Library/u8x8_display.c **** 
  47:/Users/imashio/Electronics/ARM/_Library/u8x8_display.c **** /*
  48:/Users/imashio/Electronics/ARM/_Library/u8x8_display.c ****   this is a helper function for the U8X8_MSG_DISPLAY_SETUP_MEMORY function.
  49:/Users/imashio/Electronics/ARM/_Library/u8x8_display.c ****   It can be called within the display callback function to carry out the usual standard tasks.
  50:/Users/imashio/Electronics/ARM/_Library/u8x8_display.c ****   
  51:/Users/imashio/Electronics/ARM/_Library/u8x8_display.c **** */
  52:/Users/imashio/Electronics/ARM/_Library/u8x8_display.c **** void u8x8_d_helper_display_setup_memory(u8x8_t *u8x8, const u8x8_display_info_t *display_info)
  53:/Users/imashio/Electronics/ARM/_Library/u8x8_display.c **** {
  29              		.loc 1 53 0
  30              		.cfi_startproc
  31              		@ args = 0, pretend = 0, frame = 0
  32              		@ frame_needed = 0, uses_anonymous_args = 0
  33              		@ link register save eliminated.
  34              	.LVL0:
  54:/Users/imashio/Electronics/ARM/_Library/u8x8_display.c ****       /* 1) set display info struct */
  55:/Users/imashio/Electronics/ARM/_Library/u8x8_display.c ****       u8x8->display_info = display_info;
  35              		.loc 1 55 0
  36 0000 0160     		str	r1, [r0]
  56:/Users/imashio/Electronics/ARM/_Library/u8x8_display.c ****       u8x8->x_offset = u8x8->display_info->default_x_offset;
  37              		.loc 1 56 0
  38 0002 8B7C     		ldrb	r3, [r1, #18]	@ zero_extendqisi2
  39 0004 8377     		strb	r3, [r0, #30]
  57:/Users/imashio/Electronics/ARM/_Library/u8x8_display.c **** }
  40              		.loc 1 57 0
  41 0006 7047     		bx	lr
  42              		.cfi_endproc
  43              	.LFE0:
  45              		.section	.text.u8x8_d_helper_display_init,"ax",%progbits
  46              		.align	1
  47              		.p2align 2,,3
  48              		.global	u8x8_d_helper_display_init
  49              		.syntax unified
  50              		.thumb
  51              		.thumb_func
  52              		.fpu fpv4-sp-d16
  54              	u8x8_d_helper_display_init:
  55              	.LFB1:
  58:/Users/imashio/Electronics/ARM/_Library/u8x8_display.c **** 
  59:/Users/imashio/Electronics/ARM/_Library/u8x8_display.c **** /*
  60:/Users/imashio/Electronics/ARM/_Library/u8x8_display.c ****   this is a helper function for the U8X8_MSG_DISPLAY_INIT function.
  61:/Users/imashio/Electronics/ARM/_Library/u8x8_display.c ****   It can be called within the display callback function to carry out the usual standard tasks.
  62:/Users/imashio/Electronics/ARM/_Library/u8x8_display.c ****   
ARM GAS  /var/folders/v3/wysfpd052nz8jkbx04pk0ym80000gn/T//ccW4ekMf.s 			page 3


  63:/Users/imashio/Electronics/ARM/_Library/u8x8_display.c **** */
  64:/Users/imashio/Electronics/ARM/_Library/u8x8_display.c **** void u8x8_d_helper_display_init(u8x8_t *u8x8)
  65:/Users/imashio/Electronics/ARM/_Library/u8x8_display.c **** {
  56              		.loc 1 65 0
  57              		.cfi_startproc
  58              		@ args = 0, pretend = 0, frame = 0
  59              		@ frame_needed = 0, uses_anonymous_args = 0
  60              	.LVL1:
  61 0000 38B5     		push	{r3, r4, r5, lr}
  62              	.LCFI0:
  63              		.cfi_def_cfa_offset 16
  64              		.cfi_offset 3, -16
  65              		.cfi_offset 4, -12
  66              		.cfi_offset 5, -8
  67              		.cfi_offset 14, -4
  66:/Users/imashio/Electronics/ARM/_Library/u8x8_display.c ****       /* 2) apply port directions to the GPIO lines and apply default values for the IO lines*/
  67:/Users/imashio/Electronics/ARM/_Library/u8x8_display.c ****       u8x8_gpio_Init(u8x8);
  68              		.loc 1 67 0
  69 0002 0023     		movs	r3, #0
  65:/Users/imashio/Electronics/ARM/_Library/u8x8_display.c ****       /* 2) apply port directions to the GPIO lines and apply default values for the IO lines*/
  70              		.loc 1 65 0
  71 0004 0446     		mov	r4, r0
  72              		.loc 1 67 0
  73 0006 1A46     		mov	r2, r3
  74 0008 4569     		ldr	r5, [r0, #20]
  75 000a 2821     		movs	r1, #40
  76 000c A847     		blx	r5
  77              	.LVL2:
  68:/Users/imashio/Electronics/ARM/_Library/u8x8_display.c ****       u8x8_cad_Init(u8x8);
  78              		.loc 1 68 0
  79 000e 0023     		movs	r3, #0
  80 0010 1A46     		mov	r2, r3
  81 0012 E568     		ldr	r5, [r4, #12]
  82 0014 2046     		mov	r0, r4
  83 0016 1421     		movs	r1, #20
  84 0018 A847     		blx	r5
  85              	.LVL3:
  69:/Users/imashio/Electronics/ARM/_Library/u8x8_display.c **** 
  70:/Users/imashio/Electronics/ARM/_Library/u8x8_display.c ****       /* 3) do reset */
  71:/Users/imashio/Electronics/ARM/_Library/u8x8_display.c ****       u8x8_gpio_SetReset(u8x8, 1);
  86              		.loc 1 71 0
  87 001a 2046     		mov	r0, r4
  88 001c 0122     		movs	r2, #1
  89 001e 4B21     		movs	r1, #75
  90 0020 FFF7FEFF 		bl	u8x8_gpio_call
  91              	.LVL4:
  72:/Users/imashio/Electronics/ARM/_Library/u8x8_display.c ****       u8x8_gpio_Delay(u8x8, U8X8_MSG_DELAY_MILLI, u8x8->display_info->reset_pulse_width_ms);
  92              		.loc 1 72 0
  93 0024 2368     		ldr	r3, [r4]
  94 0026 2046     		mov	r0, r4
  95 0028 1A79     		ldrb	r2, [r3, #4]	@ zero_extendqisi2
  96 002a 2921     		movs	r1, #41
  97 002c FFF7FEFF 		bl	u8x8_gpio_call
  98              	.LVL5:
  73:/Users/imashio/Electronics/ARM/_Library/u8x8_display.c ****       u8x8_gpio_SetReset(u8x8, 0);
  99              		.loc 1 73 0
 100 0030 2046     		mov	r0, r4
ARM GAS  /var/folders/v3/wysfpd052nz8jkbx04pk0ym80000gn/T//ccW4ekMf.s 			page 4


 101 0032 0022     		movs	r2, #0
 102 0034 4B21     		movs	r1, #75
 103 0036 FFF7FEFF 		bl	u8x8_gpio_call
 104              	.LVL6:
  74:/Users/imashio/Electronics/ARM/_Library/u8x8_display.c ****       u8x8_gpio_Delay(u8x8, U8X8_MSG_DELAY_MILLI, u8x8->display_info->reset_pulse_width_ms);
 105              		.loc 1 74 0
 106 003a 2368     		ldr	r3, [r4]
 107 003c 2046     		mov	r0, r4
 108 003e 1A79     		ldrb	r2, [r3, #4]	@ zero_extendqisi2
 109 0040 2921     		movs	r1, #41
 110 0042 FFF7FEFF 		bl	u8x8_gpio_call
 111              	.LVL7:
  75:/Users/imashio/Electronics/ARM/_Library/u8x8_display.c ****       u8x8_gpio_SetReset(u8x8, 1);
 112              		.loc 1 75 0
 113 0046 2046     		mov	r0, r4
 114 0048 0122     		movs	r2, #1
 115 004a 4B21     		movs	r1, #75
 116 004c FFF7FEFF 		bl	u8x8_gpio_call
 117              	.LVL8:
  76:/Users/imashio/Electronics/ARM/_Library/u8x8_display.c ****       u8x8_gpio_Delay(u8x8, U8X8_MSG_DELAY_MILLI, u8x8->display_info->post_reset_wait_ms);
 118              		.loc 1 76 0
 119 0050 2368     		ldr	r3, [r4]
 120 0052 2046     		mov	r0, r4
 121 0054 5A79     		ldrb	r2, [r3, #5]	@ zero_extendqisi2
 122 0056 2921     		movs	r1, #41
  77:/Users/imashio/Electronics/ARM/_Library/u8x8_display.c **** }    
 123              		.loc 1 77 0
 124 0058 BDE83840 		pop	{r3, r4, r5, lr}
 125              	.LCFI1:
 126              		.cfi_restore 14
 127              		.cfi_restore 5
 128              		.cfi_restore 4
 129              		.cfi_restore 3
 130              		.cfi_def_cfa_offset 0
 131              	.LVL9:
  76:/Users/imashio/Electronics/ARM/_Library/u8x8_display.c ****       u8x8_gpio_Delay(u8x8, U8X8_MSG_DELAY_MILLI, u8x8->display_info->post_reset_wait_ms);
 132              		.loc 1 76 0
 133 005c FFF7FEBF 		b	u8x8_gpio_call
 134              	.LVL10:
 135              		.cfi_endproc
 136              	.LFE1:
 138              		.section	.text.u8x8_DrawTile,"ax",%progbits
 139              		.align	1
 140              		.p2align 2,,3
 141              		.global	u8x8_DrawTile
 142              		.syntax unified
 143              		.thumb
 144              		.thumb_func
 145              		.fpu fpv4-sp-d16
 147              	u8x8_DrawTile:
 148              	.LFB2:
  78:/Users/imashio/Electronics/ARM/_Library/u8x8_display.c **** 
  79:/Users/imashio/Electronics/ARM/_Library/u8x8_display.c **** /*==========================================*/
  80:/Users/imashio/Electronics/ARM/_Library/u8x8_display.c **** /* official functions */
  81:/Users/imashio/Electronics/ARM/_Library/u8x8_display.c **** 
  82:/Users/imashio/Electronics/ARM/_Library/u8x8_display.c **** uint8_t u8x8_DrawTile(u8x8_t *u8x8, uint8_t x, uint8_t y, uint8_t cnt, uint8_t *tile_ptr)
  83:/Users/imashio/Electronics/ARM/_Library/u8x8_display.c **** {
ARM GAS  /var/folders/v3/wysfpd052nz8jkbx04pk0ym80000gn/T//ccW4ekMf.s 			page 5


 149              		.loc 1 83 0
 150              		.cfi_startproc
 151              		@ args = 4, pretend = 0, frame = 8
 152              		@ frame_needed = 0, uses_anonymous_args = 0
 153              	.LVL11:
 154 0000 30B5     		push	{r4, r5, lr}
 155              	.LCFI2:
 156              		.cfi_def_cfa_offset 12
 157              		.cfi_offset 4, -12
 158              		.cfi_offset 5, -8
 159              		.cfi_offset 14, -4
 160 0002 83B0     		sub	sp, sp, #12
 161              	.LCFI3:
 162              		.cfi_def_cfa_offset 24
  84:/Users/imashio/Electronics/ARM/_Library/u8x8_display.c ****   u8x8_tile_t tile;
  85:/Users/imashio/Electronics/ARM/_Library/u8x8_display.c ****   tile.x_pos = x;
  86:/Users/imashio/Electronics/ARM/_Library/u8x8_display.c ****   tile.y_pos = y;
  87:/Users/imashio/Electronics/ARM/_Library/u8x8_display.c ****   tile.cnt = cnt;
  88:/Users/imashio/Electronics/ARM/_Library/u8x8_display.c ****   tile.tile_ptr = tile_ptr;
 163              		.loc 1 88 0
 164 0004 02AC     		add	r4, sp, #8
  83:/Users/imashio/Electronics/ARM/_Library/u8x8_display.c ****   u8x8_tile_t tile;
 165              		.loc 1 83 0
 166 0006 069D     		ldr	r5, [sp, #24]
 167              		.loc 1 88 0
 168 0008 44F8085D 		str	r5, [r4, #-8]!
  85:/Users/imashio/Electronics/ARM/_Library/u8x8_display.c ****   tile.y_pos = y;
 169              		.loc 1 85 0
 170 000c 8DF80510 		strb	r1, [sp, #5]
  86:/Users/imashio/Electronics/ARM/_Library/u8x8_display.c ****   tile.cnt = cnt;
 171              		.loc 1 86 0
 172 0010 8DF80620 		strb	r2, [sp, #6]
  87:/Users/imashio/Electronics/ARM/_Library/u8x8_display.c ****   tile.tile_ptr = tile_ptr;
 173              		.loc 1 87 0
 174 0014 8DF80430 		strb	r3, [sp, #4]
  89:/Users/imashio/Electronics/ARM/_Library/u8x8_display.c ****   return u8x8->display_cb(u8x8, U8X8_MSG_DISPLAY_DRAW_TILE, 1, (void *)&tile);
 175              		.loc 1 89 0
 176 0018 8568     		ldr	r5, [r0, #8]
 177 001a 2346     		mov	r3, r4
 178              	.LVL12:
 179 001c 0122     		movs	r2, #1
 180              	.LVL13:
 181 001e 0F21     		movs	r1, #15
 182              	.LVL14:
 183 0020 A847     		blx	r5
 184              	.LVL15:
  90:/Users/imashio/Electronics/ARM/_Library/u8x8_display.c **** }
 185              		.loc 1 90 0
 186 0022 03B0     		add	sp, sp, #12
 187              	.LCFI4:
 188              		.cfi_def_cfa_offset 12
 189              		@ sp needed
 190 0024 30BD     		pop	{r4, r5, pc}
 191              		.cfi_endproc
 192              	.LFE2:
 194 0026 00BF     		.section	.text.u8x8_SetupMemory,"ax",%progbits
 195              		.align	1
ARM GAS  /var/folders/v3/wysfpd052nz8jkbx04pk0ym80000gn/T//ccW4ekMf.s 			page 6


 196              		.p2align 2,,3
 197              		.global	u8x8_SetupMemory
 198              		.syntax unified
 199              		.thumb
 200              		.thumb_func
 201              		.fpu fpv4-sp-d16
 203              	u8x8_SetupMemory:
 204              	.LFB3:
  91:/Users/imashio/Electronics/ARM/_Library/u8x8_display.c **** 
  92:/Users/imashio/Electronics/ARM/_Library/u8x8_display.c **** /* should be implemented as macro */
  93:/Users/imashio/Electronics/ARM/_Library/u8x8_display.c **** void u8x8_SetupMemory(u8x8_t *u8x8)
  94:/Users/imashio/Electronics/ARM/_Library/u8x8_display.c **** {
 205              		.loc 1 94 0
 206              		.cfi_startproc
 207              		@ args = 0, pretend = 0, frame = 0
 208              		@ frame_needed = 0, uses_anonymous_args = 0
 209              		@ link register save eliminated.
 210              	.LVL16:
 211 0000 10B4     		push	{r4}
 212              	.LCFI5:
 213              		.cfi_def_cfa_offset 4
 214              		.cfi_offset 4, -4
  95:/Users/imashio/Electronics/ARM/_Library/u8x8_display.c ****   u8x8->display_cb(u8x8, U8X8_MSG_DISPLAY_SETUP_MEMORY, 0, NULL);  
 215              		.loc 1 95 0
 216 0002 8468     		ldr	r4, [r0, #8]
 217 0004 0023     		movs	r3, #0
 218 0006 A446     		mov	ip, r4
 219 0008 1A46     		mov	r2, r3
 220 000a 0921     		movs	r1, #9
  96:/Users/imashio/Electronics/ARM/_Library/u8x8_display.c **** }
 221              		.loc 1 96 0
 222 000c 5DF8044B 		ldr	r4, [sp], #4
 223              	.LCFI6:
 224              		.cfi_restore 4
 225              		.cfi_def_cfa_offset 0
  95:/Users/imashio/Electronics/ARM/_Library/u8x8_display.c ****   u8x8->display_cb(u8x8, U8X8_MSG_DISPLAY_SETUP_MEMORY, 0, NULL);  
 226              		.loc 1 95 0
 227 0010 6047     		bx	ip
 228              	.LVL17:
 229              		.cfi_endproc
 230              	.LFE3:
 232 0012 00BF     		.section	.text.u8x8_InitDisplay,"ax",%progbits
 233              		.align	1
 234              		.p2align 2,,3
 235              		.global	u8x8_InitDisplay
 236              		.syntax unified
 237              		.thumb
 238              		.thumb_func
 239              		.fpu fpv4-sp-d16
 241              	u8x8_InitDisplay:
 242              	.LFB4:
  97:/Users/imashio/Electronics/ARM/_Library/u8x8_display.c **** 
  98:/Users/imashio/Electronics/ARM/_Library/u8x8_display.c **** void u8x8_InitDisplay(u8x8_t *u8x8)
  99:/Users/imashio/Electronics/ARM/_Library/u8x8_display.c **** {
 243              		.loc 1 99 0
 244              		.cfi_startproc
 245              		@ args = 0, pretend = 0, frame = 0
ARM GAS  /var/folders/v3/wysfpd052nz8jkbx04pk0ym80000gn/T//ccW4ekMf.s 			page 7


 246              		@ frame_needed = 0, uses_anonymous_args = 0
 247              		@ link register save eliminated.
 248              	.LVL18:
 249 0000 10B4     		push	{r4}
 250              	.LCFI7:
 251              		.cfi_def_cfa_offset 4
 252              		.cfi_offset 4, -4
 100:/Users/imashio/Electronics/ARM/_Library/u8x8_display.c ****   u8x8->display_cb(u8x8, U8X8_MSG_DISPLAY_INIT, 0, NULL);  
 253              		.loc 1 100 0
 254 0002 8468     		ldr	r4, [r0, #8]
 255 0004 0023     		movs	r3, #0
 256 0006 A446     		mov	ip, r4
 257 0008 1A46     		mov	r2, r3
 258 000a 0A21     		movs	r1, #10
 101:/Users/imashio/Electronics/ARM/_Library/u8x8_display.c **** }
 259              		.loc 1 101 0
 260 000c 5DF8044B 		ldr	r4, [sp], #4
 261              	.LCFI8:
 262              		.cfi_restore 4
 263              		.cfi_def_cfa_offset 0
 100:/Users/imashio/Electronics/ARM/_Library/u8x8_display.c ****   u8x8->display_cb(u8x8, U8X8_MSG_DISPLAY_INIT, 0, NULL);  
 264              		.loc 1 100 0
 265 0010 6047     		bx	ip
 266              	.LVL19:
 267              		.cfi_endproc
 268              	.LFE4:
 270 0012 00BF     		.section	.text.u8x8_SetPowerSave,"ax",%progbits
 271              		.align	1
 272              		.p2align 2,,3
 273              		.global	u8x8_SetPowerSave
 274              		.syntax unified
 275              		.thumb
 276              		.thumb_func
 277              		.fpu fpv4-sp-d16
 279              	u8x8_SetPowerSave:
 280              	.LFB5:
 102:/Users/imashio/Electronics/ARM/_Library/u8x8_display.c **** 
 103:/Users/imashio/Electronics/ARM/_Library/u8x8_display.c **** void u8x8_SetPowerSave(u8x8_t *u8x8, uint8_t is_enable)
 104:/Users/imashio/Electronics/ARM/_Library/u8x8_display.c **** {
 281              		.loc 1 104 0
 282              		.cfi_startproc
 283              		@ args = 0, pretend = 0, frame = 0
 284              		@ frame_needed = 0, uses_anonymous_args = 0
 285              		@ link register save eliminated.
 286              	.LVL20:
 287 0000 10B4     		push	{r4}
 288              	.LCFI9:
 289              		.cfi_def_cfa_offset 4
 290              		.cfi_offset 4, -4
 105:/Users/imashio/Electronics/ARM/_Library/u8x8_display.c ****   u8x8->display_cb(u8x8, U8X8_MSG_DISPLAY_SET_POWER_SAVE, is_enable, NULL);  
 291              		.loc 1 105 0
 292 0002 8468     		ldr	r4, [r0, #8]
 293 0004 0A46     		mov	r2, r1
 294 0006 A446     		mov	ip, r4
 295 0008 0023     		movs	r3, #0
 296 000a 0B21     		movs	r1, #11
 297              	.LVL21:
ARM GAS  /var/folders/v3/wysfpd052nz8jkbx04pk0ym80000gn/T//ccW4ekMf.s 			page 8


 106:/Users/imashio/Electronics/ARM/_Library/u8x8_display.c **** }
 298              		.loc 1 106 0
 299 000c 5DF8044B 		ldr	r4, [sp], #4
 300              	.LCFI10:
 301              		.cfi_restore 4
 302              		.cfi_def_cfa_offset 0
 105:/Users/imashio/Electronics/ARM/_Library/u8x8_display.c ****   u8x8->display_cb(u8x8, U8X8_MSG_DISPLAY_SET_POWER_SAVE, is_enable, NULL);  
 303              		.loc 1 105 0
 304 0010 6047     		bx	ip
 305              	.LVL22:
 306              		.cfi_endproc
 307              	.LFE5:
 309 0012 00BF     		.section	.text.u8x8_SetFlipMode,"ax",%progbits
 310              		.align	1
 311              		.p2align 2,,3
 312              		.global	u8x8_SetFlipMode
 313              		.syntax unified
 314              		.thumb
 315              		.thumb_func
 316              		.fpu fpv4-sp-d16
 318              	u8x8_SetFlipMode:
 319              	.LFB6:
 107:/Users/imashio/Electronics/ARM/_Library/u8x8_display.c **** 
 108:/Users/imashio/Electronics/ARM/_Library/u8x8_display.c **** void u8x8_SetFlipMode(u8x8_t *u8x8, uint8_t mode)
 109:/Users/imashio/Electronics/ARM/_Library/u8x8_display.c **** {
 320              		.loc 1 109 0
 321              		.cfi_startproc
 322              		@ args = 0, pretend = 0, frame = 0
 323              		@ frame_needed = 0, uses_anonymous_args = 0
 324              		@ link register save eliminated.
 325              	.LVL23:
 326 0000 10B4     		push	{r4}
 327              	.LCFI11:
 328              		.cfi_def_cfa_offset 4
 329              		.cfi_offset 4, -4
 110:/Users/imashio/Electronics/ARM/_Library/u8x8_display.c ****   u8x8->display_cb(u8x8, U8X8_MSG_DISPLAY_SET_FLIP_MODE, mode, NULL);  
 330              		.loc 1 110 0
 331 0002 8468     		ldr	r4, [r0, #8]
 332 0004 0A46     		mov	r2, r1
 333 0006 A446     		mov	ip, r4
 334 0008 0023     		movs	r3, #0
 335 000a 0D21     		movs	r1, #13
 336              	.LVL24:
 111:/Users/imashio/Electronics/ARM/_Library/u8x8_display.c **** }
 337              		.loc 1 111 0
 338 000c 5DF8044B 		ldr	r4, [sp], #4
 339              	.LCFI12:
 340              		.cfi_restore 4
 341              		.cfi_def_cfa_offset 0
 110:/Users/imashio/Electronics/ARM/_Library/u8x8_display.c ****   u8x8->display_cb(u8x8, U8X8_MSG_DISPLAY_SET_FLIP_MODE, mode, NULL);  
 342              		.loc 1 110 0
 343 0010 6047     		bx	ip
 344              	.LVL25:
 345              		.cfi_endproc
 346              	.LFE6:
 348 0012 00BF     		.section	.text.u8x8_SetContrast,"ax",%progbits
 349              		.align	1
ARM GAS  /var/folders/v3/wysfpd052nz8jkbx04pk0ym80000gn/T//ccW4ekMf.s 			page 9


 350              		.p2align 2,,3
 351              		.global	u8x8_SetContrast
 352              		.syntax unified
 353              		.thumb
 354              		.thumb_func
 355              		.fpu fpv4-sp-d16
 357              	u8x8_SetContrast:
 358              	.LFB7:
 112:/Users/imashio/Electronics/ARM/_Library/u8x8_display.c **** 
 113:/Users/imashio/Electronics/ARM/_Library/u8x8_display.c **** void u8x8_SetContrast(u8x8_t *u8x8, uint8_t value)
 114:/Users/imashio/Electronics/ARM/_Library/u8x8_display.c **** {
 359              		.loc 1 114 0
 360              		.cfi_startproc
 361              		@ args = 0, pretend = 0, frame = 0
 362              		@ frame_needed = 0, uses_anonymous_args = 0
 363              		@ link register save eliminated.
 364              	.LVL26:
 365 0000 10B4     		push	{r4}
 366              	.LCFI13:
 367              		.cfi_def_cfa_offset 4
 368              		.cfi_offset 4, -4
 115:/Users/imashio/Electronics/ARM/_Library/u8x8_display.c ****   u8x8->display_cb(u8x8, U8X8_MSG_DISPLAY_SET_CONTRAST, value, NULL);  
 369              		.loc 1 115 0
 370 0002 8468     		ldr	r4, [r0, #8]
 371 0004 0A46     		mov	r2, r1
 372 0006 A446     		mov	ip, r4
 373 0008 0023     		movs	r3, #0
 374 000a 0E21     		movs	r1, #14
 375              	.LVL27:
 116:/Users/imashio/Electronics/ARM/_Library/u8x8_display.c **** }
 376              		.loc 1 116 0
 377 000c 5DF8044B 		ldr	r4, [sp], #4
 378              	.LCFI14:
 379              		.cfi_restore 4
 380              		.cfi_def_cfa_offset 0
 115:/Users/imashio/Electronics/ARM/_Library/u8x8_display.c ****   u8x8->display_cb(u8x8, U8X8_MSG_DISPLAY_SET_CONTRAST, value, NULL);  
 381              		.loc 1 115 0
 382 0010 6047     		bx	ip
 383              	.LVL28:
 384              		.cfi_endproc
 385              	.LFE7:
 387 0012 00BF     		.section	.text.u8x8_RefreshDisplay,"ax",%progbits
 388              		.align	1
 389              		.p2align 2,,3
 390              		.global	u8x8_RefreshDisplay
 391              		.syntax unified
 392              		.thumb
 393              		.thumb_func
 394              		.fpu fpv4-sp-d16
 396              	u8x8_RefreshDisplay:
 397              	.LFB8:
 117:/Users/imashio/Electronics/ARM/_Library/u8x8_display.c **** 
 118:/Users/imashio/Electronics/ARM/_Library/u8x8_display.c **** void u8x8_RefreshDisplay(u8x8_t *u8x8)
 119:/Users/imashio/Electronics/ARM/_Library/u8x8_display.c **** {
 398              		.loc 1 119 0
 399              		.cfi_startproc
 400              		@ args = 0, pretend = 0, frame = 0
ARM GAS  /var/folders/v3/wysfpd052nz8jkbx04pk0ym80000gn/T//ccW4ekMf.s 			page 10


 401              		@ frame_needed = 0, uses_anonymous_args = 0
 402              		@ link register save eliminated.
 403              	.LVL29:
 404 0000 10B4     		push	{r4}
 405              	.LCFI15:
 406              		.cfi_def_cfa_offset 4
 407              		.cfi_offset 4, -4
 120:/Users/imashio/Electronics/ARM/_Library/u8x8_display.c ****   u8x8->display_cb(u8x8, U8X8_MSG_DISPLAY_REFRESH, 0, NULL);  
 408              		.loc 1 120 0
 409 0002 8468     		ldr	r4, [r0, #8]
 410 0004 0023     		movs	r3, #0
 411 0006 A446     		mov	ip, r4
 412 0008 1A46     		mov	r2, r3
 413 000a 1021     		movs	r1, #16
 121:/Users/imashio/Electronics/ARM/_Library/u8x8_display.c **** }
 414              		.loc 1 121 0
 415 000c 5DF8044B 		ldr	r4, [sp], #4
 416              	.LCFI16:
 417              		.cfi_restore 4
 418              		.cfi_def_cfa_offset 0
 120:/Users/imashio/Electronics/ARM/_Library/u8x8_display.c ****   u8x8->display_cb(u8x8, U8X8_MSG_DISPLAY_REFRESH, 0, NULL);  
 419              		.loc 1 120 0
 420 0010 6047     		bx	ip
 421              	.LVL30:
 422              		.cfi_endproc
 423              	.LFE8:
 425 0012 00BF     		.section	.text.u8x8_ClearDisplayWithTile,"ax",%progbits
 426              		.align	1
 427              		.p2align 2,,3
 428              		.global	u8x8_ClearDisplayWithTile
 429              		.syntax unified
 430              		.thumb
 431              		.thumb_func
 432              		.fpu fpv4-sp-d16
 434              	u8x8_ClearDisplayWithTile:
 435              	.LFB9:
 122:/Users/imashio/Electronics/ARM/_Library/u8x8_display.c **** 
 123:/Users/imashio/Electronics/ARM/_Library/u8x8_display.c **** void u8x8_ClearDisplayWithTile(u8x8_t *u8x8, const uint8_t *buf)
 124:/Users/imashio/Electronics/ARM/_Library/u8x8_display.c **** {
 436              		.loc 1 124 0
 437              		.cfi_startproc
 438              		@ args = 0, pretend = 0, frame = 8
 439              		@ frame_needed = 0, uses_anonymous_args = 0
 440              	.LVL31:
 441 0000 70B5     		push	{r4, r5, r6, lr}
 442              	.LCFI17:
 443              		.cfi_def_cfa_offset 16
 444              		.cfi_offset 4, -16
 445              		.cfi_offset 5, -12
 446              		.cfi_offset 6, -8
 447              		.cfi_offset 14, -4
 448 0002 82B0     		sub	sp, sp, #8
 449              	.LCFI18:
 450              		.cfi_def_cfa_offset 24
 125:/Users/imashio/Electronics/ARM/_Library/u8x8_display.c ****   u8x8_tile_t tile;
 126:/Users/imashio/Electronics/ARM/_Library/u8x8_display.c ****   uint8_t h;
 127:/Users/imashio/Electronics/ARM/_Library/u8x8_display.c **** 
ARM GAS  /var/folders/v3/wysfpd052nz8jkbx04pk0ym80000gn/T//ccW4ekMf.s 			page 11


 128:/Users/imashio/Electronics/ARM/_Library/u8x8_display.c ****   tile.x_pos = 0;
 129:/Users/imashio/Electronics/ARM/_Library/u8x8_display.c ****   tile.cnt = 1;
 451              		.loc 1 129 0
 452 0004 0122     		movs	r2, #1
 130:/Users/imashio/Electronics/ARM/_Library/u8x8_display.c ****   tile.tile_ptr = (uint8_t *)buf;		/* tile_ptr should be const, but isn't */
 131:/Users/imashio/Electronics/ARM/_Library/u8x8_display.c ****   
 132:/Users/imashio/Electronics/ARM/_Library/u8x8_display.c ****   h = u8x8->display_info->tile_height;
 453              		.loc 1 132 0
 454 0006 0368     		ldr	r3, [r0]
 129:/Users/imashio/Electronics/ARM/_Library/u8x8_display.c ****   tile.tile_ptr = (uint8_t *)buf;		/* tile_ptr should be const, but isn't */
 455              		.loc 1 129 0
 456 0008 ADF80420 		strh	r2, [sp, #4]	@ movhi
 128:/Users/imashio/Electronics/ARM/_Library/u8x8_display.c ****   tile.cnt = 1;
 457              		.loc 1 128 0
 458 000c 0022     		movs	r2, #0
 124:/Users/imashio/Electronics/ARM/_Library/u8x8_display.c ****   u8x8_tile_t tile;
 459              		.loc 1 124 0
 460 000e 0446     		mov	r4, r0
 130:/Users/imashio/Electronics/ARM/_Library/u8x8_display.c ****   
 461              		.loc 1 130 0
 462 0010 0091     		str	r1, [sp]
 463              		.loc 1 132 0
 464 0012 5E7C     		ldrb	r6, [r3, #17]	@ zero_extendqisi2
 465              	.LVL32:
 128:/Users/imashio/Electronics/ARM/_Library/u8x8_display.c ****   tile.cnt = 1;
 466              		.loc 1 128 0
 467 0014 8DF80620 		strb	r2, [sp, #6]
 468 0018 00E0     		b	.L21
 469              	.LVL33:
 470              	.L23:
 471 001a 2368     		ldr	r3, [r4]
 472              	.L21:
 133:/Users/imashio/Electronics/ARM/_Library/u8x8_display.c ****   tile.y_pos = 0;
 134:/Users/imashio/Electronics/ARM/_Library/u8x8_display.c ****   do
 135:/Users/imashio/Electronics/ARM/_Library/u8x8_display.c ****   {
 136:/Users/imashio/Electronics/ARM/_Library/u8x8_display.c ****     u8x8->display_cb(u8x8, U8X8_MSG_DISPLAY_DRAW_TILE, u8x8->display_info->tile_width, (void *)&til
 473              		.loc 1 136 0 discriminator 1
 474 001c 1A7C     		ldrb	r2, [r3, #16]	@ zero_extendqisi2
 475 001e A568     		ldr	r5, [r4, #8]
 476 0020 6B46     		mov	r3, sp
 477 0022 0F21     		movs	r1, #15
 478 0024 2046     		mov	r0, r4
 479 0026 A847     		blx	r5
 480              	.LVL34:
 137:/Users/imashio/Electronics/ARM/_Library/u8x8_display.c ****     tile.y_pos++;
 481              		.loc 1 137 0 discriminator 1
 482 0028 9DF80630 		ldrb	r3, [sp, #6]	@ zero_extendqisi2
 483 002c 0133     		adds	r3, r3, #1
 484 002e DBB2     		uxtb	r3, r3
 138:/Users/imashio/Electronics/ARM/_Library/u8x8_display.c ****   } while( tile.y_pos < h );
 485              		.loc 1 138 0 discriminator 1
 486 0030 B342     		cmp	r3, r6
 137:/Users/imashio/Electronics/ARM/_Library/u8x8_display.c ****     tile.y_pos++;
 487              		.loc 1 137 0 discriminator 1
 488 0032 8DF80630 		strb	r3, [sp, #6]
 489              		.loc 1 138 0 discriminator 1
 490 0036 F0D3     		bcc	.L23
ARM GAS  /var/folders/v3/wysfpd052nz8jkbx04pk0ym80000gn/T//ccW4ekMf.s 			page 12


 139:/Users/imashio/Electronics/ARM/_Library/u8x8_display.c **** }
 491              		.loc 1 139 0
 492 0038 02B0     		add	sp, sp, #8
 493              	.LCFI19:
 494              		.cfi_def_cfa_offset 16
 495              		@ sp needed
 496 003a 70BD     		pop	{r4, r5, r6, pc}
 497              		.cfi_endproc
 498              	.LFE9:
 500              		.section	.text.u8x8_ClearDisplay,"ax",%progbits
 501              		.align	1
 502              		.p2align 2,,3
 503              		.global	u8x8_ClearDisplay
 504              		.syntax unified
 505              		.thumb
 506              		.thumb_func
 507              		.fpu fpv4-sp-d16
 509              	u8x8_ClearDisplay:
 510              	.LFB10:
 140:/Users/imashio/Electronics/ARM/_Library/u8x8_display.c **** 
 141:/Users/imashio/Electronics/ARM/_Library/u8x8_display.c **** void u8x8_ClearDisplay(u8x8_t *u8x8)
 142:/Users/imashio/Electronics/ARM/_Library/u8x8_display.c **** {
 511              		.loc 1 142 0
 512              		.cfi_startproc
 513              		@ args = 0, pretend = 0, frame = 8
 514              		@ frame_needed = 0, uses_anonymous_args = 0
 515              	.LVL35:
 516 0000 00B5     		push	{lr}
 517              	.LCFI20:
 518              		.cfi_def_cfa_offset 4
 519              		.cfi_offset 14, -4
 520 0002 83B0     		sub	sp, sp, #12
 521              	.LCFI21:
 522              		.cfi_def_cfa_offset 16
 143:/Users/imashio/Electronics/ARM/_Library/u8x8_display.c ****   uint8_t buf[8] = { 0, 0, 0, 0, 0, 0, 0, 0 };
 523              		.loc 1 143 0
 524 0004 0023     		movs	r3, #0
 144:/Users/imashio/Electronics/ARM/_Library/u8x8_display.c ****   u8x8_ClearDisplayWithTile(u8x8, buf);
 525              		.loc 1 144 0
 526 0006 6946     		mov	r1, sp
 143:/Users/imashio/Electronics/ARM/_Library/u8x8_display.c ****   uint8_t buf[8] = { 0, 0, 0, 0, 0, 0, 0, 0 };
 527              		.loc 1 143 0
 528 0008 CDE90033 		strd	r3, r3, [sp]
 529              		.loc 1 144 0
 530 000c FFF7FEFF 		bl	u8x8_ClearDisplayWithTile
 531              	.LVL36:
 145:/Users/imashio/Electronics/ARM/_Library/u8x8_display.c **** }
 532              		.loc 1 145 0
 533 0010 03B0     		add	sp, sp, #12
 534              	.LCFI22:
 535              		.cfi_def_cfa_offset 4
 536              		@ sp needed
 537 0012 5DF804FB 		ldr	pc, [sp], #4
 538              		.cfi_endproc
 539              	.LFE10:
 541 0016 00BF     		.section	.text.u8x8_FillDisplay,"ax",%progbits
 542              		.align	1
ARM GAS  /var/folders/v3/wysfpd052nz8jkbx04pk0ym80000gn/T//ccW4ekMf.s 			page 13


 543              		.p2align 2,,3
 544              		.global	u8x8_FillDisplay
 545              		.syntax unified
 546              		.thumb
 547              		.thumb_func
 548              		.fpu fpv4-sp-d16
 550              	u8x8_FillDisplay:
 551              	.LFB11:
 146:/Users/imashio/Electronics/ARM/_Library/u8x8_display.c **** 
 147:/Users/imashio/Electronics/ARM/_Library/u8x8_display.c **** void u8x8_FillDisplay(u8x8_t *u8x8)
 148:/Users/imashio/Electronics/ARM/_Library/u8x8_display.c **** {
 552              		.loc 1 148 0
 553              		.cfi_startproc
 554              		@ args = 0, pretend = 0, frame = 8
 555              		@ frame_needed = 0, uses_anonymous_args = 0
 556              	.LVL37:
 557 0000 00B5     		push	{lr}
 558              	.LCFI23:
 559              		.cfi_def_cfa_offset 4
 560              		.cfi_offset 14, -4
 149:/Users/imashio/Electronics/ARM/_Library/u8x8_display.c ****   uint8_t buf[8] = { 255, 255, 255, 255, 255, 255, 255, 255 };
 561              		.loc 1 149 0
 562 0002 074B     		ldr	r3, .L28
 148:/Users/imashio/Electronics/ARM/_Library/u8x8_display.c ****   uint8_t buf[8] = { 255, 255, 255, 255, 255, 255, 255, 255 };
 563              		.loc 1 148 0
 564 0004 0246     		mov	r2, r0
 565              		.loc 1 149 0
 566 0006 93E80300 		ldm	r3, {r0, r1}
 567              	.LVL38:
 148:/Users/imashio/Electronics/ARM/_Library/u8x8_display.c ****   uint8_t buf[8] = { 255, 255, 255, 255, 255, 255, 255, 255 };
 568              		.loc 1 148 0
 569 000a 83B0     		sub	sp, sp, #12
 570              	.LCFI24:
 571              		.cfi_def_cfa_offset 16
 572              		.loc 1 149 0
 573 000c 6B46     		mov	r3, sp
 574 000e 83E80300 		stm	r3, {r0, r1}
 150:/Users/imashio/Electronics/ARM/_Library/u8x8_display.c ****   u8x8_ClearDisplayWithTile(u8x8, buf);
 575              		.loc 1 150 0
 576 0012 1946     		mov	r1, r3
 577 0014 1046     		mov	r0, r2
 578 0016 FFF7FEFF 		bl	u8x8_ClearDisplayWithTile
 579              	.LVL39:
 151:/Users/imashio/Electronics/ARM/_Library/u8x8_display.c **** }
 580              		.loc 1 151 0
 581 001a 03B0     		add	sp, sp, #12
 582              	.LCFI25:
 583              		.cfi_def_cfa_offset 4
 584              		@ sp needed
 585 001c 5DF804FB 		ldr	pc, [sp], #4
 586              	.L29:
 587              		.align	2
 588              	.L28:
 589 0020 00000000 		.word	.LANCHOR0
 590              		.cfi_endproc
 591              	.LFE11:
 593              		.section	.text.u8x8_ClearLine,"ax",%progbits
ARM GAS  /var/folders/v3/wysfpd052nz8jkbx04pk0ym80000gn/T//ccW4ekMf.s 			page 14


 594              		.align	1
 595              		.p2align 2,,3
 596              		.global	u8x8_ClearLine
 597              		.syntax unified
 598              		.thumb
 599              		.thumb_func
 600              		.fpu fpv4-sp-d16
 602              	u8x8_ClearLine:
 603              	.LFB12:
 152:/Users/imashio/Electronics/ARM/_Library/u8x8_display.c **** 
 153:/Users/imashio/Electronics/ARM/_Library/u8x8_display.c **** void u8x8_ClearLine(u8x8_t *u8x8, uint8_t line)
 154:/Users/imashio/Electronics/ARM/_Library/u8x8_display.c **** {
 604              		.loc 1 154 0
 605              		.cfi_startproc
 606              		@ args = 0, pretend = 0, frame = 16
 607              		@ frame_needed = 0, uses_anonymous_args = 0
 608              	.LVL40:
 609 0000 30B5     		push	{r4, r5, lr}
 610              	.LCFI26:
 611              		.cfi_def_cfa_offset 12
 612              		.cfi_offset 4, -12
 613              		.cfi_offset 5, -8
 614              		.cfi_offset 14, -4
 155:/Users/imashio/Electronics/ARM/_Library/u8x8_display.c ****   uint8_t buf[8] = { 0, 0, 0, 0, 0, 0, 0, 0 };
 156:/Users/imashio/Electronics/ARM/_Library/u8x8_display.c ****   u8x8_tile_t tile;
 157:/Users/imashio/Electronics/ARM/_Library/u8x8_display.c ****   if ( line < u8x8->display_info->tile_height )
 615              		.loc 1 157 0
 616 0002 0468     		ldr	r4, [r0]
 617 0004 657C     		ldrb	r5, [r4, #17]	@ zero_extendqisi2
 154:/Users/imashio/Electronics/ARM/_Library/u8x8_display.c ****   uint8_t buf[8] = { 0, 0, 0, 0, 0, 0, 0, 0 };
 618              		.loc 1 154 0
 619 0006 85B0     		sub	sp, sp, #20
 620              	.LCFI27:
 621              		.cfi_def_cfa_offset 32
 155:/Users/imashio/Electronics/ARM/_Library/u8x8_display.c ****   uint8_t buf[8] = { 0, 0, 0, 0, 0, 0, 0, 0 };
 622              		.loc 1 155 0
 623 0008 0022     		movs	r2, #0
 624              		.loc 1 157 0
 625 000a 8D42     		cmp	r5, r1
 155:/Users/imashio/Electronics/ARM/_Library/u8x8_display.c ****   uint8_t buf[8] = { 0, 0, 0, 0, 0, 0, 0, 0 };
 626              		.loc 1 155 0
 627 000c CDE90022 		strd	r2, r2, [sp]
 628              		.loc 1 157 0
 629 0010 0BD9     		bls	.L30
 158:/Users/imashio/Electronics/ARM/_Library/u8x8_display.c ****   {
 159:/Users/imashio/Electronics/ARM/_Library/u8x8_display.c ****     tile.x_pos = 0;
 160:/Users/imashio/Electronics/ARM/_Library/u8x8_display.c ****     tile.y_pos = line;
 161:/Users/imashio/Electronics/ARM/_Library/u8x8_display.c ****     tile.cnt = 1;
 162:/Users/imashio/Electronics/ARM/_Library/u8x8_display.c ****     tile.tile_ptr = (uint8_t *)buf;		/* tile_ptr should be const, but isn't */
 630              		.loc 1 162 0
 631 0012 04AB     		add	r3, sp, #16
 160:/Users/imashio/Electronics/ARM/_Library/u8x8_display.c ****     tile.cnt = 1;
 632              		.loc 1 160 0
 633 0014 8DF80E10 		strb	r1, [sp, #14]
 161:/Users/imashio/Electronics/ARM/_Library/u8x8_display.c ****     tile.tile_ptr = (uint8_t *)buf;		/* tile_ptr should be const, but isn't */
 634              		.loc 1 161 0
 635 0018 0121     		movs	r1, #1
ARM GAS  /var/folders/v3/wysfpd052nz8jkbx04pk0ym80000gn/T//ccW4ekMf.s 			page 15


 636              	.LVL41:
 637 001a ADF80C10 		strh	r1, [sp, #12]	@ movhi
 638              		.loc 1 162 0
 639 001e 43F808DD 		str	sp, [r3, #-8]!
 163:/Users/imashio/Electronics/ARM/_Library/u8x8_display.c ****     u8x8->display_cb(u8x8, U8X8_MSG_DISPLAY_DRAW_TILE, u8x8->display_info->tile_width, (void *)&til
 640              		.loc 1 163 0
 641 0022 8568     		ldr	r5, [r0, #8]
 642 0024 227C     		ldrb	r2, [r4, #16]	@ zero_extendqisi2
 643 0026 0F21     		movs	r1, #15
 644 0028 A847     		blx	r5
 645              	.LVL42:
 646              	.L30:
 164:/Users/imashio/Electronics/ARM/_Library/u8x8_display.c ****   }  
 165:/Users/imashio/Electronics/ARM/_Library/u8x8_display.c **** }...
 647              		.loc 1 165 0
 648 002a 05B0     		add	sp, sp, #20
 649              	.LCFI28:
 650              		.cfi_def_cfa_offset 12
 651              		@ sp needed
 652 002c 30BD     		pop	{r4, r5, pc}
 653              		.cfi_endproc
 654              	.LFE12:
 656 002e 00BF     		.section	.rodata
 657              		.align	2
 658              		.set	.LANCHOR0,. + 0
 659              	.LC0:
 660 0000 FF       		.byte	-1
 661 0001 FF       		.byte	-1
 662 0002 FF       		.byte	-1
 663 0003 FF       		.byte	-1
 664 0004 FF       		.byte	-1
 665 0005 FF       		.byte	-1
 666 0006 FF       		.byte	-1
 667 0007 FF       		.byte	-1
 668              		.text
 669              	.Letext0:
 670              		.file 2 "/usr/local/gcc-arm-none-eabi-7-2018-q2-update/arm-none-eabi/include/machine/_default_type
 671              		.file 3 "/usr/local/gcc-arm-none-eabi-7-2018-q2-update/arm-none-eabi/include/sys/_stdint.h"
 672              		.file 4 "/Users/imashio/Electronics/ARM/_Library/u8x8.h"
ARM GAS  /var/folders/v3/wysfpd052nz8jkbx04pk0ym80000gn/T//ccW4ekMf.s 			page 16


DEFINED SYMBOLS
                            *ABS*:0000000000000000 u8x8_display.c
/var/folders/v3/wysfpd052nz8jkbx04pk0ym80000gn/T//ccW4ekMf.s:18     .text.u8x8_d_helper_display_setup_memory:0000000000000000 $t
/var/folders/v3/wysfpd052nz8jkbx04pk0ym80000gn/T//ccW4ekMf.s:26     .text.u8x8_d_helper_display_setup_memory:0000000000000000 u8x8_d_helper_display_setup_memory
/var/folders/v3/wysfpd052nz8jkbx04pk0ym80000gn/T//ccW4ekMf.s:46     .text.u8x8_d_helper_display_init:0000000000000000 $t
/var/folders/v3/wysfpd052nz8jkbx04pk0ym80000gn/T//ccW4ekMf.s:54     .text.u8x8_d_helper_display_init:0000000000000000 u8x8_d_helper_display_init
/var/folders/v3/wysfpd052nz8jkbx04pk0ym80000gn/T//ccW4ekMf.s:139    .text.u8x8_DrawTile:0000000000000000 $t
/var/folders/v3/wysfpd052nz8jkbx04pk0ym80000gn/T//ccW4ekMf.s:147    .text.u8x8_DrawTile:0000000000000000 u8x8_DrawTile
/var/folders/v3/wysfpd052nz8jkbx04pk0ym80000gn/T//ccW4ekMf.s:195    .text.u8x8_SetupMemory:0000000000000000 $t
/var/folders/v3/wysfpd052nz8jkbx04pk0ym80000gn/T//ccW4ekMf.s:203    .text.u8x8_SetupMemory:0000000000000000 u8x8_SetupMemory
/var/folders/v3/wysfpd052nz8jkbx04pk0ym80000gn/T//ccW4ekMf.s:233    .text.u8x8_InitDisplay:0000000000000000 $t
/var/folders/v3/wysfpd052nz8jkbx04pk0ym80000gn/T//ccW4ekMf.s:241    .text.u8x8_InitDisplay:0000000000000000 u8x8_InitDisplay
/var/folders/v3/wysfpd052nz8jkbx04pk0ym80000gn/T//ccW4ekMf.s:271    .text.u8x8_SetPowerSave:0000000000000000 $t
/var/folders/v3/wysfpd052nz8jkbx04pk0ym80000gn/T//ccW4ekMf.s:279    .text.u8x8_SetPowerSave:0000000000000000 u8x8_SetPowerSave
/var/folders/v3/wysfpd052nz8jkbx04pk0ym80000gn/T//ccW4ekMf.s:310    .text.u8x8_SetFlipMode:0000000000000000 $t
/var/folders/v3/wysfpd052nz8jkbx04pk0ym80000gn/T//ccW4ekMf.s:318    .text.u8x8_SetFlipMode:0000000000000000 u8x8_SetFlipMode
/var/folders/v3/wysfpd052nz8jkbx04pk0ym80000gn/T//ccW4ekMf.s:349    .text.u8x8_SetContrast:0000000000000000 $t
/var/folders/v3/wysfpd052nz8jkbx04pk0ym80000gn/T//ccW4ekMf.s:357    .text.u8x8_SetContrast:0000000000000000 u8x8_SetContrast
/var/folders/v3/wysfpd052nz8jkbx04pk0ym80000gn/T//ccW4ekMf.s:388    .text.u8x8_RefreshDisplay:0000000000000000 $t
/var/folders/v3/wysfpd052nz8jkbx04pk0ym80000gn/T//ccW4ekMf.s:396    .text.u8x8_RefreshDisplay:0000000000000000 u8x8_RefreshDisplay
/var/folders/v3/wysfpd052nz8jkbx04pk0ym80000gn/T//ccW4ekMf.s:426    .text.u8x8_ClearDisplayWithTile:0000000000000000 $t
/var/folders/v3/wysfpd052nz8jkbx04pk0ym80000gn/T//ccW4ekMf.s:434    .text.u8x8_ClearDisplayWithTile:0000000000000000 u8x8_ClearDisplayWithTile
/var/folders/v3/wysfpd052nz8jkbx04pk0ym80000gn/T//ccW4ekMf.s:501    .text.u8x8_ClearDisplay:0000000000000000 $t
/var/folders/v3/wysfpd052nz8jkbx04pk0ym80000gn/T//ccW4ekMf.s:509    .text.u8x8_ClearDisplay:0000000000000000 u8x8_ClearDisplay
/var/folders/v3/wysfpd052nz8jkbx04pk0ym80000gn/T//ccW4ekMf.s:542    .text.u8x8_FillDisplay:0000000000000000 $t
/var/folders/v3/wysfpd052nz8jkbx04pk0ym80000gn/T//ccW4ekMf.s:550    .text.u8x8_FillDisplay:0000000000000000 u8x8_FillDisplay
/var/folders/v3/wysfpd052nz8jkbx04pk0ym80000gn/T//ccW4ekMf.s:589    .text.u8x8_FillDisplay:0000000000000020 $d
/var/folders/v3/wysfpd052nz8jkbx04pk0ym80000gn/T//ccW4ekMf.s:594    .text.u8x8_ClearLine:0000000000000000 $t
/var/folders/v3/wysfpd052nz8jkbx04pk0ym80000gn/T//ccW4ekMf.s:602    .text.u8x8_ClearLine:0000000000000000 u8x8_ClearLine
/var/folders/v3/wysfpd052nz8jkbx04pk0ym80000gn/T//ccW4ekMf.s:657    .rodata:0000000000000000 $d

UNDEFINED SYMBOLS
u8x8_gpio_call
