ARM GAS  /var/folders/v3/wysfpd052nz8jkbx04pk0ym80000gn/T//ccbNg1Lz.s 			page 1


   1              		.cpu cortex-m4
   2              		.eabi_attribute 27, 1
   3              		.eabi_attribute 28, 1
   4              		.eabi_attribute 20, 1
   5              		.eabi_attribute 21, 1
   6              		.eabi_attribute 23, 3
   7              		.eabi_attribute 24, 1
   8              		.eabi_attribute 25, 1
   9              		.eabi_attribute 26, 1
  10              		.eabi_attribute 30, 2
  11              		.eabi_attribute 34, 1
  12              		.eabi_attribute 18, 4
  13              		.file	"u8x8_d_lc7981.c"
  14              		.text
  15              	.Ltext0:
  16              		.cfi_sections	.debug_frame
  17              		.section	.text.u8x8_d_lc7981_common.isra.0.part.1,"ax",%progbits
  18              		.align	1
  19              		.p2align 2,,3
  20              		.syntax unified
  21              		.thumb
  22              		.thumb_func
  23              		.fpu fpv4-sp-d16
  25              	u8x8_d_lc7981_common.isra.0.part.1:
  26              	.LFB6:
  27              		.file 1 "/Users/imashio/Electronics/ARM/_Library/u8x8_d_lc7981.c"
   1:/Users/imashio/Electronics/ARM/_Library/u8x8_d_lc7981.c **** /*
   2:/Users/imashio/Electronics/ARM/_Library/u8x8_d_lc7981.c **** 
   3:/Users/imashio/Electronics/ARM/_Library/u8x8_d_lc7981.c ****   u8x8_d_lc7981.c
   4:/Users/imashio/Electronics/ARM/_Library/u8x8_d_lc7981.c ****   
   5:/Users/imashio/Electronics/ARM/_Library/u8x8_d_lc7981.c ****   Universal 8bit Graphics Library (https://github.com/olikraus/u8g2/)
   6:/Users/imashio/Electronics/ARM/_Library/u8x8_d_lc7981.c **** 
   7:/Users/imashio/Electronics/ARM/_Library/u8x8_d_lc7981.c ****   Copyright (c) 2016, olikraus@gmail.com
   8:/Users/imashio/Electronics/ARM/_Library/u8x8_d_lc7981.c ****   All rights reserved.
   9:/Users/imashio/Electronics/ARM/_Library/u8x8_d_lc7981.c **** 
  10:/Users/imashio/Electronics/ARM/_Library/u8x8_d_lc7981.c ****   Redistribution and use in source and binary forms, with or without modification, 
  11:/Users/imashio/Electronics/ARM/_Library/u8x8_d_lc7981.c ****   are permitted provided that the following conditions are met:
  12:/Users/imashio/Electronics/ARM/_Library/u8x8_d_lc7981.c **** 
  13:/Users/imashio/Electronics/ARM/_Library/u8x8_d_lc7981.c ****   * Redistributions of source code must retain the above copyright notice, this list 
  14:/Users/imashio/Electronics/ARM/_Library/u8x8_d_lc7981.c ****     of conditions and the following disclaimer.
  15:/Users/imashio/Electronics/ARM/_Library/u8x8_d_lc7981.c ****     
  16:/Users/imashio/Electronics/ARM/_Library/u8x8_d_lc7981.c ****   * Redistributions in binary form must reproduce the above copyright notice, this 
  17:/Users/imashio/Electronics/ARM/_Library/u8x8_d_lc7981.c ****     list of conditions and the following disclaimer in the documentation and/or other 
  18:/Users/imashio/Electronics/ARM/_Library/u8x8_d_lc7981.c ****     materials provided with the distribution.
  19:/Users/imashio/Electronics/ARM/_Library/u8x8_d_lc7981.c **** 
  20:/Users/imashio/Electronics/ARM/_Library/u8x8_d_lc7981.c ****   THIS SOFTWARE IS PROVIDED BY THE COPYRIGHT HOLDERS AND 
  21:/Users/imashio/Electronics/ARM/_Library/u8x8_d_lc7981.c ****   CONTRIBUTORS "AS IS" AND ANY EXPRESS OR IMPLIED WARRANTIES, 
  22:/Users/imashio/Electronics/ARM/_Library/u8x8_d_lc7981.c ****   INCLUDING, BUT NOT LIMITED TO, THE IMPLIED WARRANTIES OF 
  23:/Users/imashio/Electronics/ARM/_Library/u8x8_d_lc7981.c ****   MERCHANTABILITY AND FITNESS FOR A PARTICULAR PURPOSE ARE 
  24:/Users/imashio/Electronics/ARM/_Library/u8x8_d_lc7981.c ****   DISCLAIMED. IN NO EVENT SHALL THE COPYRIGHT HOLDER OR 
  25:/Users/imashio/Electronics/ARM/_Library/u8x8_d_lc7981.c ****   CONTRIBUTORS BE LIABLE FOR ANY DIRECT, INDIRECT, INCIDENTAL, 
  26:/Users/imashio/Electronics/ARM/_Library/u8x8_d_lc7981.c ****   SPECIAL, EXEMPLARY, OR CONSEQUENTIAL DAMAGES (INCLUDING, BUT 
  27:/Users/imashio/Electronics/ARM/_Library/u8x8_d_lc7981.c ****   NOT LIMITED TO, PROCUREMENT OF SUBSTITUTE GOODS OR SERVICES; 
  28:/Users/imashio/Electronics/ARM/_Library/u8x8_d_lc7981.c ****   LOSS OF USE, DATA, OR PROFITS; OR BUSINESS INTERRUPTION) HOWEVER 
  29:/Users/imashio/Electronics/ARM/_Library/u8x8_d_lc7981.c ****   CAUSED AND ON ANY THEORY OF LIABILITY, WHETHER IN CONTRACT, 
  30:/Users/imashio/Electronics/ARM/_Library/u8x8_d_lc7981.c ****   STRICT LIABILITY, OR TORT (INCLUDING NEGLIGENCE OR OTHERWISE) 
  31:/Users/imashio/Electronics/ARM/_Library/u8x8_d_lc7981.c ****   ARISING IN ANY WAY OUT OF THE USE OF THIS SOFTWARE, EVEN IF 
ARM GAS  /var/folders/v3/wysfpd052nz8jkbx04pk0ym80000gn/T//ccbNg1Lz.s 			page 2


  32:/Users/imashio/Electronics/ARM/_Library/u8x8_d_lc7981.c ****   ADVISED OF THE POSSIBILITY OF SUCH DAMAGE.  
  33:/Users/imashio/Electronics/ARM/_Library/u8x8_d_lc7981.c **** 
  34:/Users/imashio/Electronics/ARM/_Library/u8x8_d_lc7981.c **** 
  35:/Users/imashio/Electronics/ARM/_Library/u8x8_d_lc7981.c ****   
  36:/Users/imashio/Electronics/ARM/_Library/u8x8_d_lc7981.c **** */
  37:/Users/imashio/Electronics/ARM/_Library/u8x8_d_lc7981.c **** #include "u8x8.h"
  38:/Users/imashio/Electronics/ARM/_Library/u8x8_d_lc7981.c **** 
  39:/Users/imashio/Electronics/ARM/_Library/u8x8_d_lc7981.c **** 
  40:/Users/imashio/Electronics/ARM/_Library/u8x8_d_lc7981.c **** 
  41:/Users/imashio/Electronics/ARM/_Library/u8x8_d_lc7981.c **** 
  42:/Users/imashio/Electronics/ARM/_Library/u8x8_d_lc7981.c **** /* no powersave mode for the LC7981 */
  43:/Users/imashio/Electronics/ARM/_Library/u8x8_d_lc7981.c **** static const uint8_t u8x8_d_lc7981_powersave0_seq[] = {
  44:/Users/imashio/Electronics/ARM/_Library/u8x8_d_lc7981.c ****   U8X8_START_TRANSFER(),             	/* enable chip, delay is part of the transfer start */
  45:/Users/imashio/Electronics/ARM/_Library/u8x8_d_lc7981.c ****   U8X8_END_TRANSFER(),             	/* disable chip */
  46:/Users/imashio/Electronics/ARM/_Library/u8x8_d_lc7981.c ****   U8X8_END()             			/* end of sequence */
  47:/Users/imashio/Electronics/ARM/_Library/u8x8_d_lc7981.c **** };
  48:/Users/imashio/Electronics/ARM/_Library/u8x8_d_lc7981.c **** 
  49:/Users/imashio/Electronics/ARM/_Library/u8x8_d_lc7981.c **** static const uint8_t u8x8_d_lc7981_powersave1_seq[] = {
  50:/Users/imashio/Electronics/ARM/_Library/u8x8_d_lc7981.c ****   U8X8_START_TRANSFER(),             	/* enable chip, delay is part of the transfer start */
  51:/Users/imashio/Electronics/ARM/_Library/u8x8_d_lc7981.c ****   U8X8_END_TRANSFER(),             	/* disable chip */
  52:/Users/imashio/Electronics/ARM/_Library/u8x8_d_lc7981.c ****   U8X8_END()             			/* end of sequence */
  53:/Users/imashio/Electronics/ARM/_Library/u8x8_d_lc7981.c **** };
  54:/Users/imashio/Electronics/ARM/_Library/u8x8_d_lc7981.c **** 
  55:/Users/imashio/Electronics/ARM/_Library/u8x8_d_lc7981.c **** /* no hardware flip for the LC7981 */
  56:/Users/imashio/Electronics/ARM/_Library/u8x8_d_lc7981.c **** static const uint8_t u8x8_d_lc7981_flip0_seq[] = {
  57:/Users/imashio/Electronics/ARM/_Library/u8x8_d_lc7981.c ****   U8X8_START_TRANSFER(),             	/* enable chip, delay is part of the transfer start */
  58:/Users/imashio/Electronics/ARM/_Library/u8x8_d_lc7981.c ****   U8X8_END_TRANSFER(),             	/* disable chip */
  59:/Users/imashio/Electronics/ARM/_Library/u8x8_d_lc7981.c ****   U8X8_END()             			/* end of sequence */
  60:/Users/imashio/Electronics/ARM/_Library/u8x8_d_lc7981.c **** };
  61:/Users/imashio/Electronics/ARM/_Library/u8x8_d_lc7981.c **** 
  62:/Users/imashio/Electronics/ARM/_Library/u8x8_d_lc7981.c **** static const uint8_t u8x8_d_lc7981_flip1_seq[] = {
  63:/Users/imashio/Electronics/ARM/_Library/u8x8_d_lc7981.c ****   U8X8_START_TRANSFER(),             	/* enable chip, delay is part of the transfer start */
  64:/Users/imashio/Electronics/ARM/_Library/u8x8_d_lc7981.c ****   U8X8_END_TRANSFER(),             	/* disable chip */
  65:/Users/imashio/Electronics/ARM/_Library/u8x8_d_lc7981.c ****   U8X8_END()             			/* end of sequence */
  66:/Users/imashio/Electronics/ARM/_Library/u8x8_d_lc7981.c **** };
  67:/Users/imashio/Electronics/ARM/_Library/u8x8_d_lc7981.c **** 
  68:/Users/imashio/Electronics/ARM/_Library/u8x8_d_lc7981.c **** 
  69:/Users/imashio/Electronics/ARM/_Library/u8x8_d_lc7981.c **** /* http://graphics.stanford.edu/~seander/bithacks.html */
  70:/Users/imashio/Electronics/ARM/_Library/u8x8_d_lc7981.c **** static uint8_t reverse_byte(uint8_t v)
  71:/Users/imashio/Electronics/ARM/_Library/u8x8_d_lc7981.c **** {
  72:/Users/imashio/Electronics/ARM/_Library/u8x8_d_lc7981.c ****   // if ( v != 0 && v != 255 )  does not help much
  73:/Users/imashio/Electronics/ARM/_Library/u8x8_d_lc7981.c ****   {
  74:/Users/imashio/Electronics/ARM/_Library/u8x8_d_lc7981.c ****     // swap odd and even bits
  75:/Users/imashio/Electronics/ARM/_Library/u8x8_d_lc7981.c ****     v = ((v >> 1) & 0x055) | ((v & 0x055) << 1);
  76:/Users/imashio/Electronics/ARM/_Library/u8x8_d_lc7981.c ****     // swap consecutive pairs
  77:/Users/imashio/Electronics/ARM/_Library/u8x8_d_lc7981.c ****     v = ((v >> 2) & 0x033) | ((v & 0x033) << 2);
  78:/Users/imashio/Electronics/ARM/_Library/u8x8_d_lc7981.c ****     // swap nibbles ... 
  79:/Users/imashio/Electronics/ARM/_Library/u8x8_d_lc7981.c ****     v = ((v >> 4) & 0x00F) | ((v & 0x00F) << 4);
  80:/Users/imashio/Electronics/ARM/_Library/u8x8_d_lc7981.c ****   }
  81:/Users/imashio/Electronics/ARM/_Library/u8x8_d_lc7981.c ****   return v;
  82:/Users/imashio/Electronics/ARM/_Library/u8x8_d_lc7981.c **** }
  83:/Users/imashio/Electronics/ARM/_Library/u8x8_d_lc7981.c **** 
  84:/Users/imashio/Electronics/ARM/_Library/u8x8_d_lc7981.c **** static uint8_t u8x8_d_lc7981_common(u8x8_t *u8x8, uint8_t msg, U8X8_UNUSED uint8_t arg_int, void *a
  28              		.loc 1 84 0
  29              		.cfi_startproc
  30              		@ args = 0, pretend = 0, frame = 0
  31              		@ frame_needed = 0, uses_anonymous_args = 0
ARM GAS  /var/folders/v3/wysfpd052nz8jkbx04pk0ym80000gn/T//ccbNg1Lz.s 			page 3


  32              	.LVL0:
  33 0000 2DE9F047 		push	{r4, r5, r6, r7, r8, r9, r10, lr}
  34              	.LCFI0:
  35              		.cfi_def_cfa_offset 32
  36              		.cfi_offset 4, -32
  37              		.cfi_offset 5, -28
  38              		.cfi_offset 6, -24
  39              		.cfi_offset 7, -20
  40              		.cfi_offset 8, -16
  41              		.cfi_offset 9, -12
  42              		.cfi_offset 10, -8
  43              		.cfi_offset 14, -4
  85:/Users/imashio/Electronics/ARM/_Library/u8x8_d_lc7981.c **** {
  86:/Users/imashio/Electronics/ARM/_Library/u8x8_d_lc7981.c ****   uint8_t c, i, j;
  87:/Users/imashio/Electronics/ARM/_Library/u8x8_d_lc7981.c ****   uint16_t y;
  88:/Users/imashio/Electronics/ARM/_Library/u8x8_d_lc7981.c ****   uint8_t *ptr;
  89:/Users/imashio/Electronics/ARM/_Library/u8x8_d_lc7981.c ****   switch(msg)
  90:/Users/imashio/Electronics/ARM/_Library/u8x8_d_lc7981.c ****   {
  91:/Users/imashio/Electronics/ARM/_Library/u8x8_d_lc7981.c ****     case U8X8_MSG_DISPLAY_DRAW_TILE:
  92:/Users/imashio/Electronics/ARM/_Library/u8x8_d_lc7981.c ****       y = (((u8x8_tile_t *)arg_ptr)->y_pos);
  93:/Users/imashio/Electronics/ARM/_Library/u8x8_d_lc7981.c ****       y*=8;
  94:/Users/imashio/Electronics/ARM/_Library/u8x8_d_lc7981.c ****       y*= u8x8->display_info->tile_width;
  44              		.loc 1 94 0
  45 0004 0268     		ldr	r2, [r0]
  92:/Users/imashio/Electronics/ARM/_Library/u8x8_d_lc7981.c ****       y*=8;
  46              		.loc 1 92 0
  47 0006 8B79     		ldrb	r3, [r1, #6]	@ zero_extendqisi2
  48              		.loc 1 94 0
  49 0008 177C     		ldrb	r7, [r2, #16]	@ zero_extendqisi2
  84:/Users/imashio/Electronics/ARM/_Library/u8x8_d_lc7981.c **** {
  50              		.loc 1 84 0
  51 000a 0D46     		mov	r5, r1
  52              	.LVL1:
  53 000c 07FB03F7 		mul	r7, r7, r3
  54 0010 0446     		mov	r4, r0
  95:/Users/imashio/Electronics/ARM/_Library/u8x8_d_lc7981.c ****       /* x = ((u8x8_tile_t *)arg_ptr)->x_pos; x is ignored... no u8x8 support */
  96:/Users/imashio/Electronics/ARM/_Library/u8x8_d_lc7981.c ****       u8x8_cad_StartTransfer(u8x8);
  55              		.loc 1 96 0
  56 0012 FFF7FEFF 		bl	u8x8_cad_StartTransfer
  57              	.LVL2:
  97:/Users/imashio/Electronics/ARM/_Library/u8x8_d_lc7981.c ****       /* 
  98:/Users/imashio/Electronics/ARM/_Library/u8x8_d_lc7981.c **** 	Tile structure is reused here for the t6963, however u8x8 is not supported 
  99:/Users/imashio/Electronics/ARM/_Library/u8x8_d_lc7981.c **** 	tile_ptr points to data which has cnt*8 bytes (same as SSD1306 tiles)
 100:/Users/imashio/Electronics/ARM/_Library/u8x8_d_lc7981.c **** 	Buffer is expected to have 8 lines of code fitting to the t6963 internal memory
 101:/Users/imashio/Electronics/ARM/_Library/u8x8_d_lc7981.c **** 	"cnt" includes the number of horizontal bytes. width is equal to cnt*8
 102:/Users/imashio/Electronics/ARM/_Library/u8x8_d_lc7981.c **** 	
 103:/Users/imashio/Electronics/ARM/_Library/u8x8_d_lc7981.c **** 	x is assumed to be zero
 104:/Users/imashio/Electronics/ARM/_Library/u8x8_d_lc7981.c ****     
 105:/Users/imashio/Electronics/ARM/_Library/u8x8_d_lc7981.c **** 	TODO: Consider arg_int, however arg_int is not used by u8g2
 106:/Users/imashio/Electronics/ARM/_Library/u8x8_d_lc7981.c ****       */
 107:/Users/imashio/Electronics/ARM/_Library/u8x8_d_lc7981.c ****       c = ((u8x8_tile_t *)arg_ptr)->cnt;	/* number of tiles */
  58              		.loc 1 107 0
  59 0016 95F80490 		ldrb	r9, [r5, #4]	@ zero_extendqisi2
 108:/Users/imashio/Electronics/ARM/_Library/u8x8_d_lc7981.c ****       ptr = ((u8x8_tile_t *)arg_ptr)->tile_ptr;	/* data ptr to the tiles */
  60              		.loc 1 108 0
  61 001a D5F800A0 		ldr	r10, [r5]
  62 001e 09F1FF38 		add	r8, r9, #-1
ARM GAS  /var/folders/v3/wysfpd052nz8jkbx04pk0ym80000gn/T//ccbNg1Lz.s 			page 4


  94:/Users/imashio/Electronics/ARM/_Library/u8x8_d_lc7981.c ****       /* x = ((u8x8_tile_t *)arg_ptr)->x_pos; x is ignored... no u8x8 support */
  63              		.loc 1 94 0
  64 0022 FF00     		lsls	r7, r7, #3
  65 0024 5FFA88F8 		uxtb	r8, r8
  66 0028 BFB2     		uxth	r7, r7
  67              	.LVL3:
  68 002a 08F10108 		add	r8, r8, #1
  69              		.loc 1 108 0
  70 002e 0826     		movs	r6, #8
  71              	.LVL4:
  72              	.L4:
 109:/Users/imashio/Electronics/ARM/_Library/u8x8_d_lc7981.c ****       for( i = 0; i < 8; i++ )
 110:/Users/imashio/Electronics/ARM/_Library/u8x8_d_lc7981.c ****       {
 111:/Users/imashio/Electronics/ARM/_Library/u8x8_d_lc7981.c **** 	u8x8_cad_SendCmd(u8x8, 0x0a );	/* display ram (cursor) address low byte */
  73              		.loc 1 111 0
  74 0030 0A21     		movs	r1, #10
  75 0032 2046     		mov	r0, r4
  76 0034 FFF7FEFF 		bl	u8x8_cad_SendCmd
  77              	.LVL5:
 112:/Users/imashio/Electronics/ARM/_Library/u8x8_d_lc7981.c **** 	u8x8_cad_SendArg(u8x8, y&255);
  78              		.loc 1 112 0
  79 0038 F9B2     		uxtb	r1, r7
  80 003a 2046     		mov	r0, r4
  81 003c FFF7FEFF 		bl	u8x8_cad_SendArg
  82              	.LVL6:
 113:/Users/imashio/Electronics/ARM/_Library/u8x8_d_lc7981.c **** 	u8x8_cad_SendCmd(u8x8, 0x0b );	/* display ram (cursor) address high byte */
  83              		.loc 1 113 0
  84 0040 0B21     		movs	r1, #11
  85 0042 2046     		mov	r0, r4
  86 0044 FFF7FEFF 		bl	u8x8_cad_SendCmd
  87              	.LVL7:
 114:/Users/imashio/Electronics/ARM/_Library/u8x8_d_lc7981.c **** 	u8x8_cad_SendArg(u8x8, y>>8);
  88              		.loc 1 114 0
  89 0048 390A     		lsrs	r1, r7, #8
  90 004a 2046     		mov	r0, r4
  91 004c FFF7FEFF 		bl	u8x8_cad_SendArg
  92              	.LVL8:
 115:/Users/imashio/Electronics/ARM/_Library/u8x8_d_lc7981.c **** 	
 116:/Users/imashio/Electronics/ARM/_Library/u8x8_d_lc7981.c **** 	u8x8_cad_SendCmd(u8x8, 0x0c );	/* write start */
  93              		.loc 1 116 0
  94 0050 0C21     		movs	r1, #12
  95 0052 2046     		mov	r0, r4
  96 0054 FFF7FEFF 		bl	u8x8_cad_SendCmd
  97              	.LVL9:
 117:/Users/imashio/Electronics/ARM/_Library/u8x8_d_lc7981.c **** 	/*
 118:/Users/imashio/Electronics/ARM/_Library/u8x8_d_lc7981.c **** 	  The LC7981 has the MSB at the right position, which is exactly the opposite to the T6963.
 119:/Users/imashio/Electronics/ARM/_Library/u8x8_d_lc7981.c **** 	  Instead of writing a third hvline procedure for this device, we just revert the bytes before 
 120:/Users/imashio/Electronics/ARM/_Library/u8x8_d_lc7981.c **** 	  transmit. This is slow because:
 121:/Users/imashio/Electronics/ARM/_Library/u8x8_d_lc7981.c **** 	    - the bit reverse itself
 122:/Users/imashio/Electronics/ARM/_Library/u8x8_d_lc7981.c **** 	    - the single byte transfer 
 123:/Users/imashio/Electronics/ARM/_Library/u8x8_d_lc7981.c **** 	   The one byte is transmitted via SendArg, which is ok, because CAD = 100
 124:/Users/imashio/Electronics/ARM/_Library/u8x8_d_lc7981.c **** 	*/
 125:/Users/imashio/Electronics/ARM/_Library/u8x8_d_lc7981.c **** 	for( j = 0; j < c; j++ )
  98              		.loc 1 125 0
  99 0058 B9F1000F 		cmp	r9, #0
 100 005c 1AD0     		beq	.L2
 101 005e 0AEB0805 		add	r5, r10, r8
ARM GAS  /var/folders/v3/wysfpd052nz8jkbx04pk0ym80000gn/T//ccbNg1Lz.s 			page 5


 102              	.LVL10:
 103              	.L3:
 126:/Users/imashio/Electronics/ARM/_Library/u8x8_d_lc7981.c **** 	  u8x8_cad_SendArg(u8x8, reverse_byte(*ptr++));
 104              		.loc 1 126 0
 105 0062 1AF8012B 		ldrb	r2, [r10], #1	@ zero_extendqisi2
 106              	.LVL11:
 107              	.LBB14:
 108              	.LBB15:
  75:/Users/imashio/Electronics/ARM/_Library/u8x8_d_lc7981.c ****     // swap consecutive pairs
 109              		.loc 1 75 0
 110 0066 5108     		lsrs	r1, r2, #1
 111 0068 5300     		lsls	r3, r2, #1
 112 006a 01F05501 		and	r1, r1, #85
 113 006e 03F0AA03 		and	r3, r3, #170
 114 0072 0B43     		orrs	r3, r3, r1
 115              	.LVL12:
  77:/Users/imashio/Electronics/ARM/_Library/u8x8_d_lc7981.c ****     // swap nibbles ... 
 116              		.loc 1 77 0
 117 0074 9A08     		lsrs	r2, r3, #2
 118 0076 9900     		lsls	r1, r3, #2
 119 0078 01F0CC01 		and	r1, r1, #204
 120 007c 02F03303 		and	r3, r2, #51
 121              	.LVL13:
 122 0080 1943     		orrs	r1, r1, r3
 123              	.LVL14:
  79:/Users/imashio/Electronics/ARM/_Library/u8x8_d_lc7981.c ****   }
 124              		.loc 1 79 0
 125 0082 0B01     		lsls	r3, r1, #4
 126 0084 43EA1111 		orr	r1, r3, r1, lsr #4
 127              	.LBE15:
 128              	.LBE14:
 129              		.loc 1 126 0
 130 0088 C9B2     		uxtb	r1, r1
 131 008a 2046     		mov	r0, r4
 132 008c FFF7FEFF 		bl	u8x8_cad_SendArg
 133              	.LVL15:
 125:/Users/imashio/Electronics/ARM/_Library/u8x8_d_lc7981.c **** 	  u8x8_cad_SendArg(u8x8, reverse_byte(*ptr++));
 134              		.loc 1 125 0
 135 0090 AA45     		cmp	r10, r5
 136 0092 E6D1     		bne	.L3
 137              	.LVL16:
 138              	.L2:
 127:/Users/imashio/Electronics/ARM/_Library/u8x8_d_lc7981.c **** 	
 128:/Users/imashio/Electronics/ARM/_Library/u8x8_d_lc7981.c **** 	//u8x8_cad_SendData(u8x8, c, ptr);	/* note: SendData can not handle more than 255 bytes, send one 
 129:/Users/imashio/Electronics/ARM/_Library/u8x8_d_lc7981.c **** 	//ptr += u8x8->display_info->tile_width;
 130:/Users/imashio/Electronics/ARM/_Library/u8x8_d_lc7981.c **** 	
 131:/Users/imashio/Electronics/ARM/_Library/u8x8_d_lc7981.c **** 	y += u8x8->display_info->tile_width;
 139              		.loc 1 131 0
 140 0094 2368     		ldr	r3, [r4]
 141 0096 1B7C     		ldrb	r3, [r3, #16]	@ zero_extendqisi2
 142 0098 013E     		subs	r6, r6, #1
 143              	.LVL17:
 144 009a 1F44     		add	r7, r7, r3
 145              	.LVL18:
 109:/Users/imashio/Electronics/ARM/_Library/u8x8_d_lc7981.c ****       {
 146              		.loc 1 109 0
 147 009c 16F0FF06 		ands	r6, r6, #255
ARM GAS  /var/folders/v3/wysfpd052nz8jkbx04pk0ym80000gn/T//ccbNg1Lz.s 			page 6


 148              		.loc 1 131 0
 149 00a0 BFB2     		uxth	r7, r7
 150              	.LVL19:
 109:/Users/imashio/Electronics/ARM/_Library/u8x8_d_lc7981.c ****       {
 151              		.loc 1 109 0
 152 00a2 C5D1     		bne	.L4
 132:/Users/imashio/Electronics/ARM/_Library/u8x8_d_lc7981.c ****       }
 133:/Users/imashio/Electronics/ARM/_Library/u8x8_d_lc7981.c **** 
 134:/Users/imashio/Electronics/ARM/_Library/u8x8_d_lc7981.c ****       u8x8_cad_EndTransfer(u8x8);
 153              		.loc 1 134 0
 154 00a4 2046     		mov	r0, r4
 155 00a6 FFF7FEFF 		bl	u8x8_cad_EndTransfer
 156              	.LVL20:
 135:/Users/imashio/Electronics/ARM/_Library/u8x8_d_lc7981.c ****       break;
 136:/Users/imashio/Electronics/ARM/_Library/u8x8_d_lc7981.c ****     /*	handled in the calling procedure 
 137:/Users/imashio/Electronics/ARM/_Library/u8x8_d_lc7981.c ****     case U8X8_MSG_DISPLAY_SETUP_MEMORY:
 138:/Users/imashio/Electronics/ARM/_Library/u8x8_d_lc7981.c ****       u8x8_d_helper_display_setup_memory(u8x8, &u8x8_lc7981_128x64_display_info);
 139:/Users/imashio/Electronics/ARM/_Library/u8x8_d_lc7981.c ****       break;
 140:/Users/imashio/Electronics/ARM/_Library/u8x8_d_lc7981.c ****     case U8X8_MSG_DISPLAY_INIT:
 141:/Users/imashio/Electronics/ARM/_Library/u8x8_d_lc7981.c ****       u8x8_d_helper_display_init(u8x8);
 142:/Users/imashio/Electronics/ARM/_Library/u8x8_d_lc7981.c ****       u8x8_cad_SendSequence(u8x8, u8x8_d_uc1701_dogs102_init_seq);
 143:/Users/imashio/Electronics/ARM/_Library/u8x8_d_lc7981.c ****       break;
 144:/Users/imashio/Electronics/ARM/_Library/u8x8_d_lc7981.c ****     */
 145:/Users/imashio/Electronics/ARM/_Library/u8x8_d_lc7981.c ****     /* power save is not there... 
 146:/Users/imashio/Electronics/ARM/_Library/u8x8_d_lc7981.c ****     case U8X8_MSG_DISPLAY_SET_POWER_SAVE:
 147:/Users/imashio/Electronics/ARM/_Library/u8x8_d_lc7981.c ****       if ( arg_int == 0 )
 148:/Users/imashio/Electronics/ARM/_Library/u8x8_d_lc7981.c **** 	u8x8_cad_SendSequence(u8x8, u8x8_d_lc7981_powersave0_seq);
 149:/Users/imashio/Electronics/ARM/_Library/u8x8_d_lc7981.c ****       else
 150:/Users/imashio/Electronics/ARM/_Library/u8x8_d_lc7981.c **** 	u8x8_cad_SendSequence(u8x8, u8x8_d_lc7981_powersave1_seq);
 151:/Users/imashio/Electronics/ARM/_Library/u8x8_d_lc7981.c ****       break;
 152:/Users/imashio/Electronics/ARM/_Library/u8x8_d_lc7981.c ****     */
 153:/Users/imashio/Electronics/ARM/_Library/u8x8_d_lc7981.c ****     /* hardware flip not is not available
 154:/Users/imashio/Electronics/ARM/_Library/u8x8_d_lc7981.c ****     case U8X8_MSG_DISPLAY_SET_FLIP_MODE:
 155:/Users/imashio/Electronics/ARM/_Library/u8x8_d_lc7981.c ****       if ( arg_int == 0 )
 156:/Users/imashio/Electronics/ARM/_Library/u8x8_d_lc7981.c ****       {
 157:/Users/imashio/Electronics/ARM/_Library/u8x8_d_lc7981.c **** 	u8x8_cad_SendSequence(u8x8, u8x8_d_lc7981_flip0_seq);
 158:/Users/imashio/Electronics/ARM/_Library/u8x8_d_lc7981.c **** 	u8x8->x_offset = u8x8->display_info->default_x_offset;
 159:/Users/imashio/Electronics/ARM/_Library/u8x8_d_lc7981.c ****       }
 160:/Users/imashio/Electronics/ARM/_Library/u8x8_d_lc7981.c ****       else
 161:/Users/imashio/Electronics/ARM/_Library/u8x8_d_lc7981.c ****       {
 162:/Users/imashio/Electronics/ARM/_Library/u8x8_d_lc7981.c **** 	u8x8_cad_SendSequence(u8x8, u8x8_d_lc7981_flip1_seq);
 163:/Users/imashio/Electronics/ARM/_Library/u8x8_d_lc7981.c **** 	u8x8->x_offset = u8x8->display_info->flipmode_x_offset;
 164:/Users/imashio/Electronics/ARM/_Library/u8x8_d_lc7981.c ****       }	
 165:/Users/imashio/Electronics/ARM/_Library/u8x8_d_lc7981.c ****       break;
 166:/Users/imashio/Electronics/ARM/_Library/u8x8_d_lc7981.c ****     */
 167:/Users/imashio/Electronics/ARM/_Library/u8x8_d_lc7981.c **** #ifdef U8X8_WITH_SET_CONTRAST
 168:/Users/imashio/Electronics/ARM/_Library/u8x8_d_lc7981.c ****     /* no contrast setting :-(
 169:/Users/imashio/Electronics/ARM/_Library/u8x8_d_lc7981.c ****     case U8X8_MSG_DISPLAY_SET_CONTRAST:
 170:/Users/imashio/Electronics/ARM/_Library/u8x8_d_lc7981.c ****       u8x8_cad_StartTransfer(u8x8);
 171:/Users/imashio/Electronics/ARM/_Library/u8x8_d_lc7981.c ****       u8x8_cad_SendCmd(u8x8, 0x081 );
 172:/Users/imashio/Electronics/ARM/_Library/u8x8_d_lc7981.c ****       u8x8_cad_SendArg(u8x8, arg_int  );
 173:/Users/imashio/Electronics/ARM/_Library/u8x8_d_lc7981.c ****       u8x8_cad_EndTransfer(u8x8);
 174:/Users/imashio/Electronics/ARM/_Library/u8x8_d_lc7981.c ****       break;
 175:/Users/imashio/Electronics/ARM/_Library/u8x8_d_lc7981.c ****   */
 176:/Users/imashio/Electronics/ARM/_Library/u8x8_d_lc7981.c **** #endif
 177:/Users/imashio/Electronics/ARM/_Library/u8x8_d_lc7981.c ****     default:
 178:/Users/imashio/Electronics/ARM/_Library/u8x8_d_lc7981.c ****       return 0;
ARM GAS  /var/folders/v3/wysfpd052nz8jkbx04pk0ym80000gn/T//ccbNg1Lz.s 			page 7


 179:/Users/imashio/Electronics/ARM/_Library/u8x8_d_lc7981.c ****   }
 180:/Users/imashio/Electronics/ARM/_Library/u8x8_d_lc7981.c ****   return 1;
 181:/Users/imashio/Electronics/ARM/_Library/u8x8_d_lc7981.c **** }
 157              		.loc 1 181 0
 158 00aa 0120     		movs	r0, #1
 159 00ac BDE8F087 		pop	{r4, r5, r6, r7, r8, r9, r10, pc}
 160              		.cfi_endproc
 161              	.LFE6:
 163              		.section	.text.u8x8_d_lc7981_160x80,"ax",%progbits
 164              		.align	1
 165              		.p2align 2,,3
 166              		.global	u8x8_d_lc7981_160x80
 167              		.syntax unified
 168              		.thumb
 169              		.thumb_func
 170              		.fpu fpv4-sp-d16
 172              	u8x8_d_lc7981_160x80:
 173              	.LFB2:
 182:/Users/imashio/Electronics/ARM/_Library/u8x8_d_lc7981.c **** 
 183:/Users/imashio/Electronics/ARM/_Library/u8x8_d_lc7981.c **** /*================================================*/
 184:/Users/imashio/Electronics/ARM/_Library/u8x8_d_lc7981.c **** /* LC7981 160x80 LCD*/
 185:/Users/imashio/Electronics/ARM/_Library/u8x8_d_lc7981.c **** 
 186:/Users/imashio/Electronics/ARM/_Library/u8x8_d_lc7981.c **** static const u8x8_display_info_t u8x8_lc7981_160x80_display_info =
 187:/Users/imashio/Electronics/ARM/_Library/u8x8_d_lc7981.c **** {
 188:/Users/imashio/Electronics/ARM/_Library/u8x8_d_lc7981.c ****   /* chip_enable_level = */ 0,	/* LC7981 has a low active CS*/
 189:/Users/imashio/Electronics/ARM/_Library/u8x8_d_lc7981.c ****   /* chip_disable_level = */ 1,
 190:/Users/imashio/Electronics/ARM/_Library/u8x8_d_lc7981.c ****   
 191:/Users/imashio/Electronics/ARM/_Library/u8x8_d_lc7981.c ****   /* from here... */
 192:/Users/imashio/Electronics/ARM/_Library/u8x8_d_lc7981.c ****   /* post_chip_enable_wait_ns = */ 20,	
 193:/Users/imashio/Electronics/ARM/_Library/u8x8_d_lc7981.c ****   /* pre_chip_disable_wait_ns = */ 20,	
 194:/Users/imashio/Electronics/ARM/_Library/u8x8_d_lc7981.c ****   /* reset_pulse_width_ms = */ 1, 	
 195:/Users/imashio/Electronics/ARM/_Library/u8x8_d_lc7981.c ****   /* post_reset_wait_ms = */ 10, 	
 196:/Users/imashio/Electronics/ARM/_Library/u8x8_d_lc7981.c ****   /* sda_setup_time_ns = */ 30,		
 197:/Users/imashio/Electronics/ARM/_Library/u8x8_d_lc7981.c ****   /* sck_pulse_width_ns = */ 65,	/* half of cycle time  */
 198:/Users/imashio/Electronics/ARM/_Library/u8x8_d_lc7981.c ****   /* sck_clock_hz = */ 4000000UL,	/* since Arduino 1.6.0, the SPI bus speed in Hz. Should be  10000
 199:/Users/imashio/Electronics/ARM/_Library/u8x8_d_lc7981.c ****   /* spi_mode = */ 0,		/* active high, rising edge */
 200:/Users/imashio/Electronics/ARM/_Library/u8x8_d_lc7981.c ****   /* i2c_bus_clock_100kHz = */ 4,
 201:/Users/imashio/Electronics/ARM/_Library/u8x8_d_lc7981.c ****   /* ... to here, values are ignored, because this is a parallel interface only */
 202:/Users/imashio/Electronics/ARM/_Library/u8x8_d_lc7981.c ****   
 203:/Users/imashio/Electronics/ARM/_Library/u8x8_d_lc7981.c ****   /* data_setup_time_ns = */ 220,	
 204:/Users/imashio/Electronics/ARM/_Library/u8x8_d_lc7981.c ****   /* write_pulse_width_ns = */ 20,	
 205:/Users/imashio/Electronics/ARM/_Library/u8x8_d_lc7981.c ****   /* tile_width = */ 20,		/* width of 20*8=160 pixel */
 206:/Users/imashio/Electronics/ARM/_Library/u8x8_d_lc7981.c ****   /* tile_hight = */ 10,
 207:/Users/imashio/Electronics/ARM/_Library/u8x8_d_lc7981.c ****   /* default_x_offset = */ 0,	
 208:/Users/imashio/Electronics/ARM/_Library/u8x8_d_lc7981.c ****   /* flipmode_x_offset = */ 0,	
 209:/Users/imashio/Electronics/ARM/_Library/u8x8_d_lc7981.c ****   /* pixel_width = */ 160,
 210:/Users/imashio/Electronics/ARM/_Library/u8x8_d_lc7981.c ****   /* pixel_height = */ 80
 211:/Users/imashio/Electronics/ARM/_Library/u8x8_d_lc7981.c **** };
 212:/Users/imashio/Electronics/ARM/_Library/u8x8_d_lc7981.c **** 
 213:/Users/imashio/Electronics/ARM/_Library/u8x8_d_lc7981.c **** static const uint8_t u8x8_d_lc7981_160x80_init_seq[] = {
 214:/Users/imashio/Electronics/ARM/_Library/u8x8_d_lc7981.c ****     
 215:/Users/imashio/Electronics/ARM/_Library/u8x8_d_lc7981.c ****   U8X8_START_TRANSFER(),             	/* enable chip, delay is part of the transfer start */
 216:/Users/imashio/Electronics/ARM/_Library/u8x8_d_lc7981.c ****   
 217:/Users/imashio/Electronics/ARM/_Library/u8x8_d_lc7981.c ****   U8X8_DLY(50),
 218:/Users/imashio/Electronics/ARM/_Library/u8x8_d_lc7981.c **** 
 219:/Users/imashio/Electronics/ARM/_Library/u8x8_d_lc7981.c ****   U8X8_CA(0x00, 0x32),			/* display on (bit 5), master mode on (bit 4), graphics mode on (bit 1) */
 220:/Users/imashio/Electronics/ARM/_Library/u8x8_d_lc7981.c ****   U8X8_CA(0x01, 0x07),			/* character/bits per pixel pitch */
ARM GAS  /var/folders/v3/wysfpd052nz8jkbx04pk0ym80000gn/T//ccbNg1Lz.s 			page 8


 221:/Users/imashio/Electronics/ARM/_Library/u8x8_d_lc7981.c ****   U8X8_CA(0x02, 160/8-1),		/* number of chars/byte width of the screen */
 222:/Users/imashio/Electronics/ARM/_Library/u8x8_d_lc7981.c ****   U8X8_CA(0x03, 0x50),			/* time division:  50 (1/80 duty cycle) */
 223:/Users/imashio/Electronics/ARM/_Library/u8x8_d_lc7981.c ****   U8X8_CA(0x08, 0x00),			/* display start low */
 224:/Users/imashio/Electronics/ARM/_Library/u8x8_d_lc7981.c ****   U8X8_CA(0x09, 0x00),			/* display start high */
 225:/Users/imashio/Electronics/ARM/_Library/u8x8_d_lc7981.c **** 
 226:/Users/imashio/Electronics/ARM/_Library/u8x8_d_lc7981.c ****   U8X8_DLY(10),
 227:/Users/imashio/Electronics/ARM/_Library/u8x8_d_lc7981.c ****   
 228:/Users/imashio/Electronics/ARM/_Library/u8x8_d_lc7981.c ****   U8X8_END_TRANSFER(),             	/* disable chip */
 229:/Users/imashio/Electronics/ARM/_Library/u8x8_d_lc7981.c ****   U8X8_END()             			/* end of sequence */
 230:/Users/imashio/Electronics/ARM/_Library/u8x8_d_lc7981.c **** };
 231:/Users/imashio/Electronics/ARM/_Library/u8x8_d_lc7981.c **** 
 232:/Users/imashio/Electronics/ARM/_Library/u8x8_d_lc7981.c **** uint8_t u8x8_d_lc7981_160x80(u8x8_t *u8x8, uint8_t msg, uint8_t arg_int, void *arg_ptr)
 233:/Users/imashio/Electronics/ARM/_Library/u8x8_d_lc7981.c **** {
 174              		.loc 1 233 0
 175              		.cfi_startproc
 176              		@ args = 0, pretend = 0, frame = 0
 177              		@ frame_needed = 0, uses_anonymous_args = 0
 178              	.LVL21:
 179              	.LBB16:
 180              	.LBB17:
  89:/Users/imashio/Electronics/ARM/_Library/u8x8_d_lc7981.c ****   {
 181              		.loc 1 89 0
 182 0000 0F29     		cmp	r1, #15
 183              	.LBE17:
 184              	.LBE16:
 185              		.loc 1 233 0
 186 0002 10B5     		push	{r4, lr}
 187              	.LCFI1:
 188              		.cfi_def_cfa_offset 8
 189              		.cfi_offset 4, -8
 190              		.cfi_offset 14, -4
 191              	.LBB20:
 192              	.LBB18:
  89:/Users/imashio/Electronics/ARM/_Library/u8x8_d_lc7981.c ****   {
 193              		.loc 1 89 0
 194 0004 11D0     		beq	.L22
 195              	.LBE18:
 196              	.LBE20:
 234:/Users/imashio/Electronics/ARM/_Library/u8x8_d_lc7981.c ****   /* call common procedure first and handle messages there */
 235:/Users/imashio/Electronics/ARM/_Library/u8x8_d_lc7981.c ****   if ( u8x8_d_lc7981_common(u8x8, msg, arg_int, arg_ptr) == 0 )
 236:/Users/imashio/Electronics/ARM/_Library/u8x8_d_lc7981.c ****   {
 237:/Users/imashio/Electronics/ARM/_Library/u8x8_d_lc7981.c ****     /* msg not handled, then try here */
 238:/Users/imashio/Electronics/ARM/_Library/u8x8_d_lc7981.c ****     switch(msg)
 197              		.loc 1 238 0
 198 0006 0929     		cmp	r1, #9
 199 0008 0AD0     		beq	.L16
 200 000a 0A29     		cmp	r1, #10
 201 000c 14D1     		bne	.L23
 202 000e 0446     		mov	r4, r0
 239:/Users/imashio/Electronics/ARM/_Library/u8x8_d_lc7981.c ****     {
 240:/Users/imashio/Electronics/ARM/_Library/u8x8_d_lc7981.c ****       case U8X8_MSG_DISPLAY_SETUP_MEMORY:
 241:/Users/imashio/Electronics/ARM/_Library/u8x8_d_lc7981.c **** 	u8x8_d_helper_display_setup_memory(u8x8, &u8x8_lc7981_160x80_display_info);
 242:/Users/imashio/Electronics/ARM/_Library/u8x8_d_lc7981.c **** 	break;
 243:/Users/imashio/Electronics/ARM/_Library/u8x8_d_lc7981.c ****       case U8X8_MSG_DISPLAY_INIT:
 244:/Users/imashio/Electronics/ARM/_Library/u8x8_d_lc7981.c **** 	u8x8_d_helper_display_init(u8x8);
 203              		.loc 1 244 0
 204 0010 FFF7FEFF 		bl	u8x8_d_helper_display_init
ARM GAS  /var/folders/v3/wysfpd052nz8jkbx04pk0ym80000gn/T//ccbNg1Lz.s 			page 9


 205              	.LVL22:
 245:/Users/imashio/Electronics/ARM/_Library/u8x8_d_lc7981.c **** 	u8x8_cad_SendSequence(u8x8, u8x8_d_lc7981_160x80_init_seq);
 206              		.loc 1 245 0
 207 0014 2046     		mov	r0, r4
 208 0016 0949     		ldr	r1, .L24
 209 0018 FFF7FEFF 		bl	u8x8_cad_SendSequence
 210              	.LVL23:
 246:/Users/imashio/Electronics/ARM/_Library/u8x8_d_lc7981.c **** 	break;
 247:/Users/imashio/Electronics/ARM/_Library/u8x8_d_lc7981.c ****       default:
 248:/Users/imashio/Electronics/ARM/_Library/u8x8_d_lc7981.c **** 	return 0;		/* msg unknown */
 249:/Users/imashio/Electronics/ARM/_Library/u8x8_d_lc7981.c ****     }
 250:/Users/imashio/Electronics/ARM/_Library/u8x8_d_lc7981.c ****   }
 251:/Users/imashio/Electronics/ARM/_Library/u8x8_d_lc7981.c ****   return 1;
 211              		.loc 1 251 0
 212 001c 0120     		movs	r0, #1
 252:/Users/imashio/Electronics/ARM/_Library/u8x8_d_lc7981.c **** }
 213              		.loc 1 252 0
 214 001e 10BD     		pop	{r4, pc}
 215              	.LVL24:
 216              	.L16:
 241:/Users/imashio/Electronics/ARM/_Library/u8x8_d_lc7981.c **** 	break;
 217              		.loc 1 241 0
 218 0020 0749     		ldr	r1, .L24+4
 219              	.LVL25:
 220 0022 FFF7FEFF 		bl	u8x8_d_helper_display_setup_memory
 221              	.LVL26:
 251:/Users/imashio/Electronics/ARM/_Library/u8x8_d_lc7981.c **** }
 222              		.loc 1 251 0
 223 0026 0120     		movs	r0, #1
 224              		.loc 1 252 0
 225 0028 10BD     		pop	{r4, pc}
 226              	.LVL27:
 227              	.L22:
 228              	.LBB21:
 229              	.LBB19:
 230 002a 1946     		mov	r1, r3
 231              	.LVL28:
 232 002c FFF7FEFF 		bl	u8x8_d_lc7981_common.isra.0.part.1
 233              	.LVL29:
 234              	.LBE19:
 235              	.LBE21:
 248:/Users/imashio/Electronics/ARM/_Library/u8x8_d_lc7981.c ****     }
 236              		.loc 1 248 0
 237 0030 0030     		adds	r0, r0, #0
 238 0032 18BF     		it	ne
 239 0034 0120     		movne	r0, #1
 240              		.loc 1 252 0
 241 0036 10BD     		pop	{r4, pc}
 242              	.LVL30:
 243              	.L23:
 248:/Users/imashio/Electronics/ARM/_Library/u8x8_d_lc7981.c ****     }
 244              		.loc 1 248 0
 245 0038 0020     		movs	r0, #0
 246              	.LVL31:
 247              		.loc 1 252 0
 248 003a 10BD     		pop	{r4, pc}
 249              	.L25:
ARM GAS  /var/folders/v3/wysfpd052nz8jkbx04pk0ym80000gn/T//ccbNg1Lz.s 			page 10


 250              		.align	2
 251              	.L24:
 252 003c 00000000 		.word	.LANCHOR1
 253 0040 00000000 		.word	.LANCHOR0
 254              		.cfi_endproc
 255              	.LFE2:
 257              		.section	.text.u8x8_d_lc7981_160x160,"ax",%progbits
 258              		.align	1
 259              		.p2align 2,,3
 260              		.global	u8x8_d_lc7981_160x160
 261              		.syntax unified
 262              		.thumb
 263              		.thumb_func
 264              		.fpu fpv4-sp-d16
 266              	u8x8_d_lc7981_160x160:
 267              	.LFB3:
 253:/Users/imashio/Electronics/ARM/_Library/u8x8_d_lc7981.c **** 
 254:/Users/imashio/Electronics/ARM/_Library/u8x8_d_lc7981.c **** 
 255:/Users/imashio/Electronics/ARM/_Library/u8x8_d_lc7981.c **** /*================================================*/
 256:/Users/imashio/Electronics/ARM/_Library/u8x8_d_lc7981.c **** /* LC7981 160x160 LCD*/
 257:/Users/imashio/Electronics/ARM/_Library/u8x8_d_lc7981.c **** 
 258:/Users/imashio/Electronics/ARM/_Library/u8x8_d_lc7981.c **** static const u8x8_display_info_t u8x8_lc7981_160x160_display_info =
 259:/Users/imashio/Electronics/ARM/_Library/u8x8_d_lc7981.c **** {
 260:/Users/imashio/Electronics/ARM/_Library/u8x8_d_lc7981.c ****   /* chip_enable_level = */ 0,	/* LC7981 has a low active CS*/
 261:/Users/imashio/Electronics/ARM/_Library/u8x8_d_lc7981.c ****   /* chip_disable_level = */ 1,
 262:/Users/imashio/Electronics/ARM/_Library/u8x8_d_lc7981.c ****   
 263:/Users/imashio/Electronics/ARM/_Library/u8x8_d_lc7981.c ****   /* from here... */
 264:/Users/imashio/Electronics/ARM/_Library/u8x8_d_lc7981.c ****   /* post_chip_enable_wait_ns = */ 20,	
 265:/Users/imashio/Electronics/ARM/_Library/u8x8_d_lc7981.c ****   /* pre_chip_disable_wait_ns = */ 20,	
 266:/Users/imashio/Electronics/ARM/_Library/u8x8_d_lc7981.c ****   /* reset_pulse_width_ms = */ 1, 	
 267:/Users/imashio/Electronics/ARM/_Library/u8x8_d_lc7981.c ****   /* post_reset_wait_ms = */ 10, 	
 268:/Users/imashio/Electronics/ARM/_Library/u8x8_d_lc7981.c ****   /* sda_setup_time_ns = */ 30,		
 269:/Users/imashio/Electronics/ARM/_Library/u8x8_d_lc7981.c ****   /* sck_pulse_width_ns = */ 65,	/* half of cycle time  */
 270:/Users/imashio/Electronics/ARM/_Library/u8x8_d_lc7981.c ****   /* sck_clock_hz = */ 4000000UL,	/* since Arduino 1.6.0, the SPI bus speed in Hz. Should be  10000
 271:/Users/imashio/Electronics/ARM/_Library/u8x8_d_lc7981.c ****   /* spi_mode = */ 0,		/* active high, rising edge */
 272:/Users/imashio/Electronics/ARM/_Library/u8x8_d_lc7981.c ****   /* i2c_bus_clock_100kHz = */ 4,
 273:/Users/imashio/Electronics/ARM/_Library/u8x8_d_lc7981.c ****   /* ... to here, values are ignored, because this is a parallel interface only */
 274:/Users/imashio/Electronics/ARM/_Library/u8x8_d_lc7981.c ****   
 275:/Users/imashio/Electronics/ARM/_Library/u8x8_d_lc7981.c ****   /* data_setup_time_ns = */ 220,	
 276:/Users/imashio/Electronics/ARM/_Library/u8x8_d_lc7981.c ****   /* write_pulse_width_ns = */ 20,	
 277:/Users/imashio/Electronics/ARM/_Library/u8x8_d_lc7981.c ****   /* tile_width = */ 20,		/* width of 20*8=160 pixel */
 278:/Users/imashio/Electronics/ARM/_Library/u8x8_d_lc7981.c ****   /* tile_hight = */ 20,
 279:/Users/imashio/Electronics/ARM/_Library/u8x8_d_lc7981.c ****   /* default_x_offset = */ 0,	
 280:/Users/imashio/Electronics/ARM/_Library/u8x8_d_lc7981.c ****   /* flipmode_x_offset = */ 0,	
 281:/Users/imashio/Electronics/ARM/_Library/u8x8_d_lc7981.c ****   /* pixel_width = */ 160,
 282:/Users/imashio/Electronics/ARM/_Library/u8x8_d_lc7981.c ****   /* pixel_height = */ 160
 283:/Users/imashio/Electronics/ARM/_Library/u8x8_d_lc7981.c **** };
 284:/Users/imashio/Electronics/ARM/_Library/u8x8_d_lc7981.c **** 
 285:/Users/imashio/Electronics/ARM/_Library/u8x8_d_lc7981.c **** static const uint8_t u8x8_d_lc7981_160x160_init_seq[] = {
 286:/Users/imashio/Electronics/ARM/_Library/u8x8_d_lc7981.c ****     
 287:/Users/imashio/Electronics/ARM/_Library/u8x8_d_lc7981.c ****   U8X8_START_TRANSFER(),             	/* enable chip, delay is part of the transfer start */
 288:/Users/imashio/Electronics/ARM/_Library/u8x8_d_lc7981.c ****   
 289:/Users/imashio/Electronics/ARM/_Library/u8x8_d_lc7981.c ****   U8X8_DLY(50),
 290:/Users/imashio/Electronics/ARM/_Library/u8x8_d_lc7981.c **** 
 291:/Users/imashio/Electronics/ARM/_Library/u8x8_d_lc7981.c ****   U8X8_CA(0x00, 0x32),			/* display on (bit 5), master mode on (bit 4), graphics mode on (bit 1) */
 292:/Users/imashio/Electronics/ARM/_Library/u8x8_d_lc7981.c ****   U8X8_CA(0x01, 0x07),			/* character/bits per pixel pitch */
 293:/Users/imashio/Electronics/ARM/_Library/u8x8_d_lc7981.c ****   U8X8_CA(0x02, 160/8-1),		/* number of chars/byte width of the screen */
ARM GAS  /var/folders/v3/wysfpd052nz8jkbx04pk0ym80000gn/T//ccbNg1Lz.s 			page 11


 294:/Users/imashio/Electronics/ARM/_Library/u8x8_d_lc7981.c ****   U8X8_CA(0x03, 159),			/* time division */
 295:/Users/imashio/Electronics/ARM/_Library/u8x8_d_lc7981.c ****   U8X8_CA(0x08, 0x00),			/* display start low */
 296:/Users/imashio/Electronics/ARM/_Library/u8x8_d_lc7981.c ****   U8X8_CA(0x09, 0x00),			/* display start high */
 297:/Users/imashio/Electronics/ARM/_Library/u8x8_d_lc7981.c **** 
 298:/Users/imashio/Electronics/ARM/_Library/u8x8_d_lc7981.c ****   U8X8_DLY(10),
 299:/Users/imashio/Electronics/ARM/_Library/u8x8_d_lc7981.c ****   
 300:/Users/imashio/Electronics/ARM/_Library/u8x8_d_lc7981.c ****   U8X8_END_TRANSFER(),             	/* disable chip */
 301:/Users/imashio/Electronics/ARM/_Library/u8x8_d_lc7981.c ****   U8X8_END()             			/* end of sequence */
 302:/Users/imashio/Electronics/ARM/_Library/u8x8_d_lc7981.c **** };
 303:/Users/imashio/Electronics/ARM/_Library/u8x8_d_lc7981.c **** 
 304:/Users/imashio/Electronics/ARM/_Library/u8x8_d_lc7981.c **** uint8_t u8x8_d_lc7981_160x160(u8x8_t *u8x8, uint8_t msg, uint8_t arg_int, void *arg_ptr)
 305:/Users/imashio/Electronics/ARM/_Library/u8x8_d_lc7981.c **** {
 268              		.loc 1 305 0
 269              		.cfi_startproc
 270              		@ args = 0, pretend = 0, frame = 0
 271              		@ frame_needed = 0, uses_anonymous_args = 0
 272              	.LVL32:
 273              	.LBB22:
 274              	.LBB23:
  89:/Users/imashio/Electronics/ARM/_Library/u8x8_d_lc7981.c ****   {
 275              		.loc 1 89 0
 276 0000 0F29     		cmp	r1, #15
 277              	.LBE23:
 278              	.LBE22:
 279              		.loc 1 305 0
 280 0002 10B5     		push	{r4, lr}
 281              	.LCFI2:
 282              		.cfi_def_cfa_offset 8
 283              		.cfi_offset 4, -8
 284              		.cfi_offset 14, -4
 285              	.LBB26:
 286              	.LBB24:
  89:/Users/imashio/Electronics/ARM/_Library/u8x8_d_lc7981.c ****   {
 287              		.loc 1 89 0
 288 0004 11D0     		beq	.L36
 289              	.LBE24:
 290              	.LBE26:
 306:/Users/imashio/Electronics/ARM/_Library/u8x8_d_lc7981.c ****   /* call common procedure first and handle messages there */
 307:/Users/imashio/Electronics/ARM/_Library/u8x8_d_lc7981.c ****   if ( u8x8_d_lc7981_common(u8x8, msg, arg_int, arg_ptr) == 0 )
 308:/Users/imashio/Electronics/ARM/_Library/u8x8_d_lc7981.c ****   {
 309:/Users/imashio/Electronics/ARM/_Library/u8x8_d_lc7981.c ****     /* msg not handled, then try here */
 310:/Users/imashio/Electronics/ARM/_Library/u8x8_d_lc7981.c ****     switch(msg)
 291              		.loc 1 310 0
 292 0006 0929     		cmp	r1, #9
 293 0008 0AD0     		beq	.L30
 294 000a 0A29     		cmp	r1, #10
 295 000c 14D1     		bne	.L37
 296 000e 0446     		mov	r4, r0
 311:/Users/imashio/Electronics/ARM/_Library/u8x8_d_lc7981.c ****     {
 312:/Users/imashio/Electronics/ARM/_Library/u8x8_d_lc7981.c ****       case U8X8_MSG_DISPLAY_SETUP_MEMORY:
 313:/Users/imashio/Electronics/ARM/_Library/u8x8_d_lc7981.c **** 	u8x8_d_helper_display_setup_memory(u8x8, &u8x8_lc7981_160x160_display_info);
 314:/Users/imashio/Electronics/ARM/_Library/u8x8_d_lc7981.c **** 	break;
 315:/Users/imashio/Electronics/ARM/_Library/u8x8_d_lc7981.c ****       case U8X8_MSG_DISPLAY_INIT:
 316:/Users/imashio/Electronics/ARM/_Library/u8x8_d_lc7981.c **** 	u8x8_d_helper_display_init(u8x8);
 297              		.loc 1 316 0
 298 0010 FFF7FEFF 		bl	u8x8_d_helper_display_init
 299              	.LVL33:
ARM GAS  /var/folders/v3/wysfpd052nz8jkbx04pk0ym80000gn/T//ccbNg1Lz.s 			page 12


 317:/Users/imashio/Electronics/ARM/_Library/u8x8_d_lc7981.c **** 	u8x8_cad_SendSequence(u8x8, u8x8_d_lc7981_160x160_init_seq);
 300              		.loc 1 317 0
 301 0014 2046     		mov	r0, r4
 302 0016 0949     		ldr	r1, .L38
 303 0018 FFF7FEFF 		bl	u8x8_cad_SendSequence
 304              	.LVL34:
 318:/Users/imashio/Electronics/ARM/_Library/u8x8_d_lc7981.c **** 	break;
 319:/Users/imashio/Electronics/ARM/_Library/u8x8_d_lc7981.c ****       default:
 320:/Users/imashio/Electronics/ARM/_Library/u8x8_d_lc7981.c **** 	return 0;		/* msg unknown */
 321:/Users/imashio/Electronics/ARM/_Library/u8x8_d_lc7981.c ****     }
 322:/Users/imashio/Electronics/ARM/_Library/u8x8_d_lc7981.c ****   }
 323:/Users/imashio/Electronics/ARM/_Library/u8x8_d_lc7981.c ****   return 1;
 305              		.loc 1 323 0
 306 001c 0120     		movs	r0, #1
 324:/Users/imashio/Electronics/ARM/_Library/u8x8_d_lc7981.c **** }
 307              		.loc 1 324 0
 308 001e 10BD     		pop	{r4, pc}
 309              	.LVL35:
 310              	.L30:
 313:/Users/imashio/Electronics/ARM/_Library/u8x8_d_lc7981.c **** 	break;
 311              		.loc 1 313 0
 312 0020 0749     		ldr	r1, .L38+4
 313              	.LVL36:
 314 0022 FFF7FEFF 		bl	u8x8_d_helper_display_setup_memory
 315              	.LVL37:
 323:/Users/imashio/Electronics/ARM/_Library/u8x8_d_lc7981.c **** }
 316              		.loc 1 323 0
 317 0026 0120     		movs	r0, #1
 318              		.loc 1 324 0
 319 0028 10BD     		pop	{r4, pc}
 320              	.LVL38:
 321              	.L36:
 322              	.LBB27:
 323              	.LBB25:
 324 002a 1946     		mov	r1, r3
 325              	.LVL39:
 326 002c FFF7FEFF 		bl	u8x8_d_lc7981_common.isra.0.part.1
 327              	.LVL40:
 328              	.LBE25:
 329              	.LBE27:
 320:/Users/imashio/Electronics/ARM/_Library/u8x8_d_lc7981.c ****     }
 330              		.loc 1 320 0
 331 0030 0030     		adds	r0, r0, #0
 332 0032 18BF     		it	ne
 333 0034 0120     		movne	r0, #1
 334              		.loc 1 324 0
 335 0036 10BD     		pop	{r4, pc}
 336              	.LVL41:
 337              	.L37:
 320:/Users/imashio/Electronics/ARM/_Library/u8x8_d_lc7981.c ****     }
 338              		.loc 1 320 0
 339 0038 0020     		movs	r0, #0
 340              	.LVL42:
 341              		.loc 1 324 0
 342 003a 10BD     		pop	{r4, pc}
 343              	.L39:
 344              		.align	2
ARM GAS  /var/folders/v3/wysfpd052nz8jkbx04pk0ym80000gn/T//ccbNg1Lz.s 			page 13


 345              	.L38:
 346 003c 00000000 		.word	.LANCHOR3
 347 0040 00000000 		.word	.LANCHOR2
 348              		.cfi_endproc
 349              	.LFE3:
 351              		.section	.text.u8x8_d_lc7981_240x128,"ax",%progbits
 352              		.align	1
 353              		.p2align 2,,3
 354              		.global	u8x8_d_lc7981_240x128
 355              		.syntax unified
 356              		.thumb
 357              		.thumb_func
 358              		.fpu fpv4-sp-d16
 360              	u8x8_d_lc7981_240x128:
 361              	.LFB4:
 325:/Users/imashio/Electronics/ARM/_Library/u8x8_d_lc7981.c **** 
 326:/Users/imashio/Electronics/ARM/_Library/u8x8_d_lc7981.c **** 
 327:/Users/imashio/Electronics/ARM/_Library/u8x8_d_lc7981.c **** /*================================================*/
 328:/Users/imashio/Electronics/ARM/_Library/u8x8_d_lc7981.c **** /* LC7981 240x128 LCD*/
 329:/Users/imashio/Electronics/ARM/_Library/u8x8_d_lc7981.c **** 
 330:/Users/imashio/Electronics/ARM/_Library/u8x8_d_lc7981.c **** /* 
 331:/Users/imashio/Electronics/ARM/_Library/u8x8_d_lc7981.c **** 
 332:/Users/imashio/Electronics/ARM/_Library/u8x8_d_lc7981.c **** */
 333:/Users/imashio/Electronics/ARM/_Library/u8x8_d_lc7981.c **** static const u8x8_display_info_t u8x8_lc7981_240x128_display_info =
 334:/Users/imashio/Electronics/ARM/_Library/u8x8_d_lc7981.c **** {
 335:/Users/imashio/Electronics/ARM/_Library/u8x8_d_lc7981.c ****   /* chip_enable_level = */ 0,	/* LC7981 has a low active CS*/
 336:/Users/imashio/Electronics/ARM/_Library/u8x8_d_lc7981.c ****   /* chip_disable_level = */ 1,
 337:/Users/imashio/Electronics/ARM/_Library/u8x8_d_lc7981.c ****   
 338:/Users/imashio/Electronics/ARM/_Library/u8x8_d_lc7981.c ****   /* from here... */
 339:/Users/imashio/Electronics/ARM/_Library/u8x8_d_lc7981.c ****   /* post_chip_enable_wait_ns = */ 20,	
 340:/Users/imashio/Electronics/ARM/_Library/u8x8_d_lc7981.c ****   /* pre_chip_disable_wait_ns = */ 20,	
 341:/Users/imashio/Electronics/ARM/_Library/u8x8_d_lc7981.c ****   /* reset_pulse_width_ms = */ 1, 	
 342:/Users/imashio/Electronics/ARM/_Library/u8x8_d_lc7981.c ****   /* post_reset_wait_ms = */ 10, 	
 343:/Users/imashio/Electronics/ARM/_Library/u8x8_d_lc7981.c ****   /* sda_setup_time_ns = */ 30,		
 344:/Users/imashio/Electronics/ARM/_Library/u8x8_d_lc7981.c ****   /* sck_pulse_width_ns = */ 65,	/* half of cycle time  */
 345:/Users/imashio/Electronics/ARM/_Library/u8x8_d_lc7981.c ****   /* sck_clock_hz = */ 4000000UL,	/* since Arduino 1.6.0, the SPI bus speed in Hz. Should be  10000
 346:/Users/imashio/Electronics/ARM/_Library/u8x8_d_lc7981.c ****   /* spi_mode = */ 0,		/* active high, rising edge */
 347:/Users/imashio/Electronics/ARM/_Library/u8x8_d_lc7981.c ****   /* i2c_bus_clock_100kHz = */ 4,
 348:/Users/imashio/Electronics/ARM/_Library/u8x8_d_lc7981.c ****   /* ... to here, values are ignored, because this is a parallel interface only */
 349:/Users/imashio/Electronics/ARM/_Library/u8x8_d_lc7981.c ****   
 350:/Users/imashio/Electronics/ARM/_Library/u8x8_d_lc7981.c ****   /* data_setup_time_ns = */ 220,	
 351:/Users/imashio/Electronics/ARM/_Library/u8x8_d_lc7981.c ****   /* write_pulse_width_ns = */ 20,	
 352:/Users/imashio/Electronics/ARM/_Library/u8x8_d_lc7981.c ****   /* tile_width = */ 30,		/* width of 30*8=240 pixel */
 353:/Users/imashio/Electronics/ARM/_Library/u8x8_d_lc7981.c ****   /* tile_hight = */ 16,
 354:/Users/imashio/Electronics/ARM/_Library/u8x8_d_lc7981.c ****   /* default_x_offset = */ 0,	
 355:/Users/imashio/Electronics/ARM/_Library/u8x8_d_lc7981.c ****   /* flipmode_x_offset = */ 0,	
 356:/Users/imashio/Electronics/ARM/_Library/u8x8_d_lc7981.c ****   /* pixel_width = */ 240,
 357:/Users/imashio/Electronics/ARM/_Library/u8x8_d_lc7981.c ****   /* pixel_height = */ 128
 358:/Users/imashio/Electronics/ARM/_Library/u8x8_d_lc7981.c **** };
 359:/Users/imashio/Electronics/ARM/_Library/u8x8_d_lc7981.c **** 
 360:/Users/imashio/Electronics/ARM/_Library/u8x8_d_lc7981.c **** static const uint8_t u8x8_d_lc7981_240x128_init_seq[] = {
 361:/Users/imashio/Electronics/ARM/_Library/u8x8_d_lc7981.c ****     
 362:/Users/imashio/Electronics/ARM/_Library/u8x8_d_lc7981.c ****   U8X8_START_TRANSFER(),             	/* enable chip, delay is part of the transfer start */
 363:/Users/imashio/Electronics/ARM/_Library/u8x8_d_lc7981.c ****   
 364:/Users/imashio/Electronics/ARM/_Library/u8x8_d_lc7981.c ****   U8X8_DLY(50),
 365:/Users/imashio/Electronics/ARM/_Library/u8x8_d_lc7981.c **** 
 366:/Users/imashio/Electronics/ARM/_Library/u8x8_d_lc7981.c ****   U8X8_CA(0x00, 0x32),			/* display on (bit 5), master mode on (bit 4), graphics mode on (bit 1) */
ARM GAS  /var/folders/v3/wysfpd052nz8jkbx04pk0ym80000gn/T//ccbNg1Lz.s 			page 14


 367:/Users/imashio/Electronics/ARM/_Library/u8x8_d_lc7981.c ****   U8X8_CA(0x01, 0x07),			/* character/bits per pixel pitch */
 368:/Users/imashio/Electronics/ARM/_Library/u8x8_d_lc7981.c ****   U8X8_CA(0x02, 240/8-1),		/* number of chars/byte width of the screen */
 369:/Users/imashio/Electronics/ARM/_Library/u8x8_d_lc7981.c ****   U8X8_CA(0x03, 0x7f),			/* time division */
 370:/Users/imashio/Electronics/ARM/_Library/u8x8_d_lc7981.c ****   U8X8_CA(0x08, 0x00),			/* display start low */
 371:/Users/imashio/Electronics/ARM/_Library/u8x8_d_lc7981.c ****   U8X8_CA(0x09, 0x00),			/* display start high */
 372:/Users/imashio/Electronics/ARM/_Library/u8x8_d_lc7981.c **** 
 373:/Users/imashio/Electronics/ARM/_Library/u8x8_d_lc7981.c ****   U8X8_DLY(10),
 374:/Users/imashio/Electronics/ARM/_Library/u8x8_d_lc7981.c ****   
 375:/Users/imashio/Electronics/ARM/_Library/u8x8_d_lc7981.c ****   U8X8_END_TRANSFER(),             	/* disable chip */
 376:/Users/imashio/Electronics/ARM/_Library/u8x8_d_lc7981.c ****   U8X8_END()             			/* end of sequence */
 377:/Users/imashio/Electronics/ARM/_Library/u8x8_d_lc7981.c **** };
 378:/Users/imashio/Electronics/ARM/_Library/u8x8_d_lc7981.c **** 
 379:/Users/imashio/Electronics/ARM/_Library/u8x8_d_lc7981.c **** uint8_t u8x8_d_lc7981_240x128(u8x8_t *u8x8, uint8_t msg, uint8_t arg_int, void *arg_ptr)
 380:/Users/imashio/Electronics/ARM/_Library/u8x8_d_lc7981.c **** {
 362              		.loc 1 380 0
 363              		.cfi_startproc
 364              		@ args = 0, pretend = 0, frame = 0
 365              		@ frame_needed = 0, uses_anonymous_args = 0
 366              	.LVL43:
 367              	.LBB28:
 368              	.LBB29:
  89:/Users/imashio/Electronics/ARM/_Library/u8x8_d_lc7981.c ****   {
 369              		.loc 1 89 0
 370 0000 0F29     		cmp	r1, #15
 371              	.LBE29:
 372              	.LBE28:
 373              		.loc 1 380 0
 374 0002 10B5     		push	{r4, lr}
 375              	.LCFI3:
 376              		.cfi_def_cfa_offset 8
 377              		.cfi_offset 4, -8
 378              		.cfi_offset 14, -4
 379              	.LBB32:
 380              	.LBB30:
  89:/Users/imashio/Electronics/ARM/_Library/u8x8_d_lc7981.c ****   {
 381              		.loc 1 89 0
 382 0004 11D0     		beq	.L50
 383              	.LBE30:
 384              	.LBE32:
 381:/Users/imashio/Electronics/ARM/_Library/u8x8_d_lc7981.c ****   /* call common procedure first and handle messages there */
 382:/Users/imashio/Electronics/ARM/_Library/u8x8_d_lc7981.c ****   if ( u8x8_d_lc7981_common(u8x8, msg, arg_int, arg_ptr) == 0 )
 383:/Users/imashio/Electronics/ARM/_Library/u8x8_d_lc7981.c ****   {
 384:/Users/imashio/Electronics/ARM/_Library/u8x8_d_lc7981.c ****     /* msg not handled, then try here */
 385:/Users/imashio/Electronics/ARM/_Library/u8x8_d_lc7981.c ****     switch(msg)
 385              		.loc 1 385 0
 386 0006 0929     		cmp	r1, #9
 387 0008 0AD0     		beq	.L44
 388 000a 0A29     		cmp	r1, #10
 389 000c 14D1     		bne	.L51
 390 000e 0446     		mov	r4, r0
 386:/Users/imashio/Electronics/ARM/_Library/u8x8_d_lc7981.c ****     {
 387:/Users/imashio/Electronics/ARM/_Library/u8x8_d_lc7981.c ****       case U8X8_MSG_DISPLAY_SETUP_MEMORY:
 388:/Users/imashio/Electronics/ARM/_Library/u8x8_d_lc7981.c **** 	u8x8_d_helper_display_setup_memory(u8x8, &u8x8_lc7981_240x128_display_info);
 389:/Users/imashio/Electronics/ARM/_Library/u8x8_d_lc7981.c **** 	break;
 390:/Users/imashio/Electronics/ARM/_Library/u8x8_d_lc7981.c ****       case U8X8_MSG_DISPLAY_INIT:
 391:/Users/imashio/Electronics/ARM/_Library/u8x8_d_lc7981.c **** 	u8x8_d_helper_display_init(u8x8);
 391              		.loc 1 391 0
ARM GAS  /var/folders/v3/wysfpd052nz8jkbx04pk0ym80000gn/T//ccbNg1Lz.s 			page 15


 392 0010 FFF7FEFF 		bl	u8x8_d_helper_display_init
 393              	.LVL44:
 392:/Users/imashio/Electronics/ARM/_Library/u8x8_d_lc7981.c **** 	u8x8_cad_SendSequence(u8x8, u8x8_d_lc7981_240x128_init_seq);
 394              		.loc 1 392 0
 395 0014 2046     		mov	r0, r4
 396 0016 0949     		ldr	r1, .L52
 397 0018 FFF7FEFF 		bl	u8x8_cad_SendSequence
 398              	.LVL45:
 393:/Users/imashio/Electronics/ARM/_Library/u8x8_d_lc7981.c **** 	break;
 394:/Users/imashio/Electronics/ARM/_Library/u8x8_d_lc7981.c ****       default:
 395:/Users/imashio/Electronics/ARM/_Library/u8x8_d_lc7981.c **** 	return 0;		/* msg unknown */
 396:/Users/imashio/Electronics/ARM/_Library/u8x8_d_lc7981.c ****     }
 397:/Users/imashio/Electronics/ARM/_Library/u8x8_d_lc7981.c ****   }
 398:/Users/imashio/Electronics/ARM/_Library/u8x8_d_lc7981.c ****   return 1;
 399              		.loc 1 398 0
 400 001c 0120     		movs	r0, #1
 399:/Users/imashio/Electronics/ARM/_Library/u8x8_d_lc7981.c **** }
 401              		.loc 1 399 0
 402 001e 10BD     		pop	{r4, pc}
 403              	.LVL46:
 404              	.L44:
 388:/Users/imashio/Electronics/ARM/_Library/u8x8_d_lc7981.c **** 	break;
 405              		.loc 1 388 0
 406 0020 0749     		ldr	r1, .L52+4
 407              	.LVL47:
 408 0022 FFF7FEFF 		bl	u8x8_d_helper_display_setup_memory
 409              	.LVL48:
 398:/Users/imashio/Electronics/ARM/_Library/u8x8_d_lc7981.c **** }
 410              		.loc 1 398 0
 411 0026 0120     		movs	r0, #1
 412              		.loc 1 399 0
 413 0028 10BD     		pop	{r4, pc}
 414              	.LVL49:
 415              	.L50:
 416              	.LBB33:
 417              	.LBB31:
 418 002a 1946     		mov	r1, r3
 419              	.LVL50:
 420 002c FFF7FEFF 		bl	u8x8_d_lc7981_common.isra.0.part.1
 421              	.LVL51:
 422              	.LBE31:
 423              	.LBE33:
 395:/Users/imashio/Electronics/ARM/_Library/u8x8_d_lc7981.c ****     }
 424              		.loc 1 395 0
 425 0030 0030     		adds	r0, r0, #0
 426 0032 18BF     		it	ne
 427 0034 0120     		movne	r0, #1
 428              		.loc 1 399 0
 429 0036 10BD     		pop	{r4, pc}
 430              	.LVL52:
 431              	.L51:
 395:/Users/imashio/Electronics/ARM/_Library/u8x8_d_lc7981.c ****     }
 432              		.loc 1 395 0
 433 0038 0020     		movs	r0, #0
 434              	.LVL53:
 435              		.loc 1 399 0
 436 003a 10BD     		pop	{r4, pc}
ARM GAS  /var/folders/v3/wysfpd052nz8jkbx04pk0ym80000gn/T//ccbNg1Lz.s 			page 16


 437              	.L53:
 438              		.align	2
 439              	.L52:
 440 003c 00000000 		.word	.LANCHOR5
 441 0040 00000000 		.word	.LANCHOR4
 442              		.cfi_endproc
 443              	.LFE4:
 445              		.section	.rodata.u8x8_d_lc7981_160x160_init_seq,"a",%progbits
 446              		.align	2
 447              		.set	.LANCHOR3,. + 0
 450              	u8x8_d_lc7981_160x160_init_seq:
 451 0000 18       		.byte	24
 452 0001 FE       		.byte	-2
 453 0002 32       		.byte	50
 454 0003 15       		.byte	21
 455 0004 00       		.byte	0
 456 0005 16       		.byte	22
 457 0006 32       		.byte	50
 458 0007 15       		.byte	21
 459 0008 01       		.byte	1
 460 0009 16       		.byte	22
 461 000a 07       		.byte	7
 462 000b 15       		.byte	21
 463 000c 02       		.byte	2
 464 000d 16       		.byte	22
 465 000e 13       		.byte	19
 466 000f 15       		.byte	21
 467 0010 03       		.byte	3
 468 0011 16       		.byte	22
 469 0012 9F       		.byte	-97
 470 0013 15       		.byte	21
 471 0014 08       		.byte	8
 472 0015 16       		.byte	22
 473 0016 00       		.byte	0
 474 0017 15       		.byte	21
 475 0018 09       		.byte	9
 476 0019 16       		.byte	22
 477 001a 00       		.byte	0
 478 001b FE       		.byte	-2
 479 001c 0A       		.byte	10
 480 001d 19       		.byte	25
 481 001e FF       		.byte	-1
 482              		.section	.rodata.u8x8_d_lc7981_160x80_init_seq,"a",%progbits
 483              		.align	2
 484              		.set	.LANCHOR1,. + 0
 487              	u8x8_d_lc7981_160x80_init_seq:
 488 0000 18       		.byte	24
 489 0001 FE       		.byte	-2
 490 0002 32       		.byte	50
 491 0003 15       		.byte	21
 492 0004 00       		.byte	0
 493 0005 16       		.byte	22
 494 0006 32       		.byte	50
 495 0007 15       		.byte	21
 496 0008 01       		.byte	1
 497 0009 16       		.byte	22
 498 000a 07       		.byte	7
ARM GAS  /var/folders/v3/wysfpd052nz8jkbx04pk0ym80000gn/T//ccbNg1Lz.s 			page 17


 499 000b 15       		.byte	21
 500 000c 02       		.byte	2
 501 000d 16       		.byte	22
 502 000e 13       		.byte	19
 503 000f 15       		.byte	21
 504 0010 03       		.byte	3
 505 0011 16       		.byte	22
 506 0012 50       		.byte	80
 507 0013 15       		.byte	21
 508 0014 08       		.byte	8
 509 0015 16       		.byte	22
 510 0016 00       		.byte	0
 511 0017 15       		.byte	21
 512 0018 09       		.byte	9
 513 0019 16       		.byte	22
 514 001a 00       		.byte	0
 515 001b FE       		.byte	-2
 516 001c 0A       		.byte	10
 517 001d 19       		.byte	25
 518 001e FF       		.byte	-1
 519              		.section	.rodata.u8x8_d_lc7981_240x128_init_seq,"a",%progbits
 520              		.align	2
 521              		.set	.LANCHOR5,. + 0
 524              	u8x8_d_lc7981_240x128_init_seq:
 525 0000 18       		.byte	24
 526 0001 FE       		.byte	-2
 527 0002 32       		.byte	50
 528 0003 15       		.byte	21
 529 0004 00       		.byte	0
 530 0005 16       		.byte	22
 531 0006 32       		.byte	50
 532 0007 15       		.byte	21
 533 0008 01       		.byte	1
 534 0009 16       		.byte	22
 535 000a 07       		.byte	7
 536 000b 15       		.byte	21
 537 000c 02       		.byte	2
 538 000d 16       		.byte	22
 539 000e 1D       		.byte	29
 540 000f 15       		.byte	21
 541 0010 03       		.byte	3
 542 0011 16       		.byte	22
 543 0012 7F       		.byte	127
 544 0013 15       		.byte	21
 545 0014 08       		.byte	8
 546 0015 16       		.byte	22
 547 0016 00       		.byte	0
 548 0017 15       		.byte	21
 549 0018 09       		.byte	9
 550 0019 16       		.byte	22
 551 001a 00       		.byte	0
 552 001b FE       		.byte	-2
 553 001c 0A       		.byte	10
 554 001d 19       		.byte	25
 555 001e FF       		.byte	-1
 556              		.section	.rodata.u8x8_lc7981_160x160_display_info,"a",%progbits
 557              		.align	2
ARM GAS  /var/folders/v3/wysfpd052nz8jkbx04pk0ym80000gn/T//ccbNg1Lz.s 			page 18


 558              		.set	.LANCHOR2,. + 0
 561              	u8x8_lc7981_160x160_display_info:
 562 0000 00       		.byte	0
 563 0001 01       		.byte	1
 564 0002 14       		.byte	20
 565 0003 14       		.byte	20
 566 0004 01       		.byte	1
 567 0005 0A       		.byte	10
 568 0006 1E       		.byte	30
 569 0007 41       		.byte	65
 570 0008 00093D00 		.word	4000000
 571 000c 00       		.byte	0
 572 000d 04       		.byte	4
 573 000e DC       		.byte	-36
 574 000f 14       		.byte	20
 575 0010 14       		.byte	20
 576 0011 14       		.byte	20
 577 0012 00       		.byte	0
 578 0013 00       		.byte	0
 579 0014 A000     		.short	160
 580 0016 A000     		.short	160
 581              		.section	.rodata.u8x8_lc7981_160x80_display_info,"a",%progbits
 582              		.align	2
 583              		.set	.LANCHOR0,. + 0
 586              	u8x8_lc7981_160x80_display_info:
 587 0000 00       		.byte	0
 588 0001 01       		.byte	1
 589 0002 14       		.byte	20
 590 0003 14       		.byte	20
 591 0004 01       		.byte	1
 592 0005 0A       		.byte	10
 593 0006 1E       		.byte	30
 594 0007 41       		.byte	65
 595 0008 00093D00 		.word	4000000
 596 000c 00       		.byte	0
 597 000d 04       		.byte	4
 598 000e DC       		.byte	-36
 599 000f 14       		.byte	20
 600 0010 14       		.byte	20
 601 0011 0A       		.byte	10
 602 0012 00       		.byte	0
 603 0013 00       		.byte	0
 604 0014 A000     		.short	160
 605 0016 5000     		.short	80
 606              		.section	.rodata.u8x8_lc7981_240x128_display_info,"a",%progbits
 607              		.align	2
 608              		.set	.LANCHOR4,. + 0
 611              	u8x8_lc7981_240x128_display_info:
 612 0000 00       		.byte	0
 613 0001 01       		.byte	1
 614 0002 14       		.byte	20
 615 0003 14       		.byte	20
 616 0004 01       		.byte	1
 617 0005 0A       		.byte	10
 618 0006 1E       		.byte	30
 619 0007 41       		.byte	65
 620 0008 00093D00 		.word	4000000
ARM GAS  /var/folders/v3/wysfpd052nz8jkbx04pk0ym80000gn/T//ccbNg1Lz.s 			page 19


 621 000c 00       		.byte	0
 622 000d 04       		.byte	4
 623 000e DC       		.byte	-36
 624 000f 14       		.byte	20
 625 0010 1E       		.byte	30
 626 0011 10       		.byte	16
 627 0012 00       		.byte	0
 628 0013 00       		.byte	0
 629 0014 F000     		.short	240
 630 0016 8000     		.short	128
 631              		.text
 632              	.Letext0:
 633              		.file 2 "/usr/local/gcc-arm-none-eabi-7-2018-q2-update/arm-none-eabi/include/machine/_default_type
 634              		.file 3 "/usr/local/gcc-arm-none-eabi-7-2018-q2-update/arm-none-eabi/include/sys/_stdint.h"
 635              		.file 4 "/Users/imashio/Electronics/ARM/_Library/u8x8.h"
ARM GAS  /var/folders/v3/wysfpd052nz8jkbx04pk0ym80000gn/T//ccbNg1Lz.s 			page 20

