ARM GAS  /var/folders/v3/wysfpd052nz8jkbx04pk0ym80000gn/T//ccURiBND.s 			page 1


   1              		.cpu cortex-m4
   2              		.eabi_attribute 27, 1
   3              		.eabi_attribute 28, 1
   4              		.eabi_attribute 20, 1
   5              		.eabi_attribute 21, 1
   6              		.eabi_attribute 23, 3
   7              		.eabi_attribute 24, 1
   8              		.eabi_attribute 25, 1
   9              		.eabi_attribute 26, 1
  10              		.eabi_attribute 30, 2
  11              		.eabi_attribute 34, 1
  12              		.eabi_attribute 18, 4
  13              		.file	"u8x8_d_t6963.c"
  14              		.text
  15              	.Ltext0:
  16              		.cfi_sections	.debug_frame
  17              		.section	.text.u8x8_d_t6963_common,"ax",%progbits
  18              		.align	1
  19              		.p2align 2,,3
  20              		.global	u8x8_d_t6963_common
  21              		.syntax unified
  22              		.thumb
  23              		.thumb_func
  24              		.fpu fpv4-sp-d16
  26              	u8x8_d_t6963_common:
  27              	.LFB0:
  28              		.file 1 "/Users/imashio/Electronics/ARM/_Library/u8x8_d_t6963.c"
   1:/Users/imashio/Electronics/ARM/_Library/u8x8_d_t6963.c **** /*
   2:/Users/imashio/Electronics/ARM/_Library/u8x8_d_t6963.c **** 
   3:/Users/imashio/Electronics/ARM/_Library/u8x8_d_t6963.c ****   u8x8_d_t6963.c
   4:/Users/imashio/Electronics/ARM/_Library/u8x8_d_t6963.c ****   
   5:/Users/imashio/Electronics/ARM/_Library/u8x8_d_t6963.c ****   Universal 8bit Graphics Library (https://github.com/olikraus/u8g2/)
   6:/Users/imashio/Electronics/ARM/_Library/u8x8_d_t6963.c **** 
   7:/Users/imashio/Electronics/ARM/_Library/u8x8_d_t6963.c ****   Copyright (c) 2016, olikraus@gmail.com
   8:/Users/imashio/Electronics/ARM/_Library/u8x8_d_t6963.c ****   All rights reserved.
   9:/Users/imashio/Electronics/ARM/_Library/u8x8_d_t6963.c **** 
  10:/Users/imashio/Electronics/ARM/_Library/u8x8_d_t6963.c ****   Redistribution and use in source and binary forms, with or without modification, 
  11:/Users/imashio/Electronics/ARM/_Library/u8x8_d_t6963.c ****   are permitted provided that the following conditions are met:
  12:/Users/imashio/Electronics/ARM/_Library/u8x8_d_t6963.c **** 
  13:/Users/imashio/Electronics/ARM/_Library/u8x8_d_t6963.c ****   * Redistributions of source code must retain the above copyright notice, this list 
  14:/Users/imashio/Electronics/ARM/_Library/u8x8_d_t6963.c ****     of conditions and the following disclaimer.
  15:/Users/imashio/Electronics/ARM/_Library/u8x8_d_t6963.c ****     
  16:/Users/imashio/Electronics/ARM/_Library/u8x8_d_t6963.c ****   * Redistributions in binary form must reproduce the above copyright notice, this 
  17:/Users/imashio/Electronics/ARM/_Library/u8x8_d_t6963.c ****     list of conditions and the following disclaimer in the documentation and/or other 
  18:/Users/imashio/Electronics/ARM/_Library/u8x8_d_t6963.c ****     materials provided with the distribution.
  19:/Users/imashio/Electronics/ARM/_Library/u8x8_d_t6963.c **** 
  20:/Users/imashio/Electronics/ARM/_Library/u8x8_d_t6963.c ****   THIS SOFTWARE IS PROVIDED BY THE COPYRIGHT HOLDERS AND 
  21:/Users/imashio/Electronics/ARM/_Library/u8x8_d_t6963.c ****   CONTRIBUTORS "AS IS" AND ANY EXPRESS OR IMPLIED WARRANTIES, 
  22:/Users/imashio/Electronics/ARM/_Library/u8x8_d_t6963.c ****   INCLUDING, BUT NOT LIMITED TO, THE IMPLIED WARRANTIES OF 
  23:/Users/imashio/Electronics/ARM/_Library/u8x8_d_t6963.c ****   MERCHANTABILITY AND FITNESS FOR A PARTICULAR PURPOSE ARE 
  24:/Users/imashio/Electronics/ARM/_Library/u8x8_d_t6963.c ****   DISCLAIMED. IN NO EVENT SHALL THE COPYRIGHT HOLDER OR 
  25:/Users/imashio/Electronics/ARM/_Library/u8x8_d_t6963.c ****   CONTRIBUTORS BE LIABLE FOR ANY DIRECT, INDIRECT, INCIDENTAL, 
  26:/Users/imashio/Electronics/ARM/_Library/u8x8_d_t6963.c ****   SPECIAL, EXEMPLARY, OR CONSEQUENTIAL DAMAGES (INCLUDING, BUT 
  27:/Users/imashio/Electronics/ARM/_Library/u8x8_d_t6963.c ****   NOT LIMITED TO, PROCUREMENT OF SUBSTITUTE GOODS OR SERVICES; 
  28:/Users/imashio/Electronics/ARM/_Library/u8x8_d_t6963.c ****   LOSS OF USE, DATA, OR PROFITS; OR BUSINESS INTERRUPTION) HOWEVER 
  29:/Users/imashio/Electronics/ARM/_Library/u8x8_d_t6963.c ****   CAUSED AND ON ANY THEORY OF LIABILITY, WHETHER IN CONTRACT, 
  30:/Users/imashio/Electronics/ARM/_Library/u8x8_d_t6963.c ****   STRICT LIABILITY, OR TORT (INCLUDING NEGLIGENCE OR OTHERWISE) 
ARM GAS  /var/folders/v3/wysfpd052nz8jkbx04pk0ym80000gn/T//ccURiBND.s 			page 2


  31:/Users/imashio/Electronics/ARM/_Library/u8x8_d_t6963.c ****   ARISING IN ANY WAY OUT OF THE USE OF THIS SOFTWARE, EVEN IF 
  32:/Users/imashio/Electronics/ARM/_Library/u8x8_d_t6963.c ****   ADVISED OF THE POSSIBILITY OF SUCH DAMAGE.  
  33:/Users/imashio/Electronics/ARM/_Library/u8x8_d_t6963.c **** 
  34:/Users/imashio/Electronics/ARM/_Library/u8x8_d_t6963.c **** 
  35:/Users/imashio/Electronics/ARM/_Library/u8x8_d_t6963.c ****   The t6963 controller does not support hardware graphics flip.
  36:/Users/imashio/Electronics/ARM/_Library/u8x8_d_t6963.c ****   Contrast adjustment is done by an external resistor --> no support for contrast adjustment
  37:/Users/imashio/Electronics/ARM/_Library/u8x8_d_t6963.c ****   
  38:/Users/imashio/Electronics/ARM/_Library/u8x8_d_t6963.c ****   
  39:/Users/imashio/Electronics/ARM/_Library/u8x8_d_t6963.c **** */
  40:/Users/imashio/Electronics/ARM/_Library/u8x8_d_t6963.c **** #include "u8x8.h"
  41:/Users/imashio/Electronics/ARM/_Library/u8x8_d_t6963.c **** 
  42:/Users/imashio/Electronics/ARM/_Library/u8x8_d_t6963.c **** 
  43:/Users/imashio/Electronics/ARM/_Library/u8x8_d_t6963.c **** 
  44:/Users/imashio/Electronics/ARM/_Library/u8x8_d_t6963.c **** static const uint8_t u8x8_d_t6963_powersave0_seq[] = {
  45:/Users/imashio/Electronics/ARM/_Library/u8x8_d_t6963.c ****   U8X8_START_TRANSFER(),             	/* enable chip, delay is part of the transfer start */
  46:/Users/imashio/Electronics/ARM/_Library/u8x8_d_t6963.c ****   U8X8_C(0x098),                            /* mode register: Display Mode, Graphics on, Text off, 
  47:/Users/imashio/Electronics/ARM/_Library/u8x8_d_t6963.c ****   U8X8_END_TRANSFER(),             	/* disable chip */
  48:/Users/imashio/Electronics/ARM/_Library/u8x8_d_t6963.c ****   U8X8_END()             			/* end of sequence */
  49:/Users/imashio/Electronics/ARM/_Library/u8x8_d_t6963.c **** };
  50:/Users/imashio/Electronics/ARM/_Library/u8x8_d_t6963.c **** 
  51:/Users/imashio/Electronics/ARM/_Library/u8x8_d_t6963.c **** static const uint8_t u8x8_d_t6963_powersave1_seq[] = {
  52:/Users/imashio/Electronics/ARM/_Library/u8x8_d_t6963.c ****   U8X8_START_TRANSFER(),             	/* enable chip, delay is part of the transfer start */
  53:/Users/imashio/Electronics/ARM/_Library/u8x8_d_t6963.c ****   U8X8_C(0x090),                             /* All Off */
  54:/Users/imashio/Electronics/ARM/_Library/u8x8_d_t6963.c ****   U8X8_END_TRANSFER(),             	/* disable chip */
  55:/Users/imashio/Electronics/ARM/_Library/u8x8_d_t6963.c ****   U8X8_END()             			/* end of sequence */
  56:/Users/imashio/Electronics/ARM/_Library/u8x8_d_t6963.c **** };
  57:/Users/imashio/Electronics/ARM/_Library/u8x8_d_t6963.c **** 
  58:/Users/imashio/Electronics/ARM/_Library/u8x8_d_t6963.c **** 
  59:/Users/imashio/Electronics/ARM/_Library/u8x8_d_t6963.c **** uint8_t u8x8_d_t6963_common(u8x8_t *u8x8, uint8_t msg, uint8_t arg_int, void *arg_ptr)
  60:/Users/imashio/Electronics/ARM/_Library/u8x8_d_t6963.c **** {
  29              		.loc 1 60 0
  30              		.cfi_startproc
  31              		@ args = 0, pretend = 0, frame = 0
  32              		@ frame_needed = 0, uses_anonymous_args = 0
  33              	.LVL0:
  61:/Users/imashio/Electronics/ARM/_Library/u8x8_d_t6963.c ****   uint8_t c, i;
  62:/Users/imashio/Electronics/ARM/_Library/u8x8_d_t6963.c ****   uint16_t y;
  63:/Users/imashio/Electronics/ARM/_Library/u8x8_d_t6963.c ****   uint8_t *ptr;
  64:/Users/imashio/Electronics/ARM/_Library/u8x8_d_t6963.c ****   switch(msg)
  34              		.loc 1 64 0
  35 0000 0B29     		cmp	r1, #11
  60:/Users/imashio/Electronics/ARM/_Library/u8x8_d_t6963.c ****   uint8_t c, i;
  36              		.loc 1 60 0
  37 0002 2DE9F041 		push	{r4, r5, r6, r7, r8, lr}
  38              	.LCFI0:
  39              		.cfi_def_cfa_offset 24
  40              		.cfi_offset 4, -24
  41              		.cfi_offset 5, -20
  42              		.cfi_offset 6, -16
  43              		.cfi_offset 7, -12
  44              		.cfi_offset 8, -8
  45              		.cfi_offset 14, -4
  46              		.loc 1 64 0
  47 0006 3BD0     		beq	.L3
  48 0008 0F29     		cmp	r1, #15
  49 000a 36D1     		bne	.L12
  50              	.LVL1:
ARM GAS  /var/folders/v3/wysfpd052nz8jkbx04pk0ym80000gn/T//ccURiBND.s 			page 3


  51              	.LBB4:
  52              	.LBB5:
  65:/Users/imashio/Electronics/ARM/_Library/u8x8_d_t6963.c ****   {
  66:/Users/imashio/Electronics/ARM/_Library/u8x8_d_t6963.c ****     /* U8X8_MSG_DISPLAY_SETUP_MEMORY is handled by the calling function */
  67:/Users/imashio/Electronics/ARM/_Library/u8x8_d_t6963.c ****     /*
  68:/Users/imashio/Electronics/ARM/_Library/u8x8_d_t6963.c ****     case U8X8_MSG_DISPLAY_SETUP_MEMORY:
  69:/Users/imashio/Electronics/ARM/_Library/u8x8_d_t6963.c ****       break;
  70:/Users/imashio/Electronics/ARM/_Library/u8x8_d_t6963.c ****     case U8X8_MSG_DISPLAY_INIT:
  71:/Users/imashio/Electronics/ARM/_Library/u8x8_d_t6963.c ****       break;
  72:/Users/imashio/Electronics/ARM/_Library/u8x8_d_t6963.c ****     */
  73:/Users/imashio/Electronics/ARM/_Library/u8x8_d_t6963.c ****     case U8X8_MSG_DISPLAY_SET_POWER_SAVE:
  74:/Users/imashio/Electronics/ARM/_Library/u8x8_d_t6963.c ****       if ( arg_int == 0 )
  75:/Users/imashio/Electronics/ARM/_Library/u8x8_d_t6963.c **** 	u8x8_cad_SendSequence(u8x8, u8x8_d_t6963_powersave0_seq);
  76:/Users/imashio/Electronics/ARM/_Library/u8x8_d_t6963.c ****       else
  77:/Users/imashio/Electronics/ARM/_Library/u8x8_d_t6963.c **** 	u8x8_cad_SendSequence(u8x8, u8x8_d_t6963_powersave1_seq);
  78:/Users/imashio/Electronics/ARM/_Library/u8x8_d_t6963.c ****       break;
  79:/Users/imashio/Electronics/ARM/_Library/u8x8_d_t6963.c ****     case U8X8_MSG_DISPLAY_DRAW_TILE:
  80:/Users/imashio/Electronics/ARM/_Library/u8x8_d_t6963.c ****       y = (((u8x8_tile_t *)arg_ptr)->y_pos);
  81:/Users/imashio/Electronics/ARM/_Library/u8x8_d_t6963.c ****       y*=8;
  82:/Users/imashio/Electronics/ARM/_Library/u8x8_d_t6963.c ****       y*= u8x8->display_info->tile_width;
  53              		.loc 1 82 0
  54 000c 0268     		ldr	r2, [r0]
  55              	.LVL2:
  56 000e 1E46     		mov	r6, r3
  57 0010 157C     		ldrb	r5, [r2, #16]	@ zero_extendqisi2
  80:/Users/imashio/Electronics/ARM/_Library/u8x8_d_t6963.c ****       y*=8;
  58              		.loc 1 80 0
  59 0012 9B79     		ldrb	r3, [r3, #6]	@ zero_extendqisi2
  60              	.LVL3:
  61 0014 05FB03F5 		mul	r5, r5, r3
  62              		.loc 1 82 0
  63 0018 ED00     		lsls	r5, r5, #3
  64 001a 0446     		mov	r4, r0
  65 001c ADB2     		uxth	r5, r5
  66              	.LVL4:
  83:/Users/imashio/Electronics/ARM/_Library/u8x8_d_t6963.c ****       /* x = ((u8x8_tile_t *)arg_ptr)->x_pos; x is ignored... no u8x8 support */
  84:/Users/imashio/Electronics/ARM/_Library/u8x8_d_t6963.c ****       //u8x8->gpio_and_delay_cb(u8x8, U8X8_MSG_DELAY_NANO, 200, NULL);	/* extra dely required */
  85:/Users/imashio/Electronics/ARM/_Library/u8x8_d_t6963.c ****       u8x8_cad_StartTransfer(u8x8);
  67              		.loc 1 85 0
  68 001e FFF7FEFF 		bl	u8x8_cad_StartTransfer
  69              	.LVL5:
  86:/Users/imashio/Electronics/ARM/_Library/u8x8_d_t6963.c ****       //u8x8->gpio_and_delay_cb(u8x8, U8X8_MSG_DELAY_NANO, 200, NULL);	/* extra dely required */
  87:/Users/imashio/Electronics/ARM/_Library/u8x8_d_t6963.c ****       /* 
  88:/Users/imashio/Electronics/ARM/_Library/u8x8_d_t6963.c **** 	Tile structure is reused here for the t6963, however u8x8 is not supported 
  89:/Users/imashio/Electronics/ARM/_Library/u8x8_d_t6963.c **** 	tile_ptr points to data which has cnt*8 bytes (same as SSD1306 tiles)
  90:/Users/imashio/Electronics/ARM/_Library/u8x8_d_t6963.c **** 	Buffer is expected to have 8 lines of code fitting to the t6963 internal memory
  91:/Users/imashio/Electronics/ARM/_Library/u8x8_d_t6963.c **** 	"cnt" includes the number of horizontal bytes. width is equal to cnt*8
  92:/Users/imashio/Electronics/ARM/_Library/u8x8_d_t6963.c **** 	
  93:/Users/imashio/Electronics/ARM/_Library/u8x8_d_t6963.c **** 	TODO: Consider arg_int, however arg_int is not used by u8g2
  94:/Users/imashio/Electronics/ARM/_Library/u8x8_d_t6963.c ****       */
  95:/Users/imashio/Electronics/ARM/_Library/u8x8_d_t6963.c ****       c = ((u8x8_tile_t *)arg_ptr)->cnt;	/* number of tiles */
  70              		.loc 1 95 0
  71 0022 96F80480 		ldrb	r8, [r6, #4]	@ zero_extendqisi2
  72              	.LVL6:
  96:/Users/imashio/Electronics/ARM/_Library/u8x8_d_t6963.c ****       ptr = ((u8x8_tile_t *)arg_ptr)->tile_ptr;	/* data ptr to the tiles */
  73              		.loc 1 96 0
  74 0026 3768     		ldr	r7, [r6]
ARM GAS  /var/folders/v3/wysfpd052nz8jkbx04pk0ym80000gn/T//ccURiBND.s 			page 4


  75              	.LVL7:
  76 0028 0826     		movs	r6, #8
  77              	.LVL8:
  78              	.L6:
  97:/Users/imashio/Electronics/ARM/_Library/u8x8_d_t6963.c ****       for( i = 0; i < 8; i++ )
  98:/Users/imashio/Electronics/ARM/_Library/u8x8_d_t6963.c ****       {
  99:/Users/imashio/Electronics/ARM/_Library/u8x8_d_t6963.c **** 	u8x8_cad_SendArg(u8x8, y&255);
  79              		.loc 1 99 0
  80 002a E9B2     		uxtb	r1, r5
  81 002c 2046     		mov	r0, r4
  82 002e FFF7FEFF 		bl	u8x8_cad_SendArg
  83              	.LVL9:
 100:/Users/imashio/Electronics/ARM/_Library/u8x8_d_t6963.c **** 	u8x8_cad_SendArg(u8x8, y>>8);
  84              		.loc 1 100 0
  85 0032 290A     		lsrs	r1, r5, #8
  86 0034 2046     		mov	r0, r4
  87 0036 FFF7FEFF 		bl	u8x8_cad_SendArg
  88              	.LVL10:
 101:/Users/imashio/Electronics/ARM/_Library/u8x8_d_t6963.c **** 	u8x8_cad_SendCmd(u8x8, 0x024 );	/* set adr */
  89              		.loc 1 101 0
  90 003a 2421     		movs	r1, #36
  91 003c 2046     		mov	r0, r4
  92 003e FFF7FEFF 		bl	u8x8_cad_SendCmd
  93              	.LVL11:
 102:/Users/imashio/Electronics/ARM/_Library/u8x8_d_t6963.c **** 	u8x8_cad_SendCmd(u8x8, 0x0b0 );	/* auto write start */
  94              		.loc 1 102 0
  95 0042 B021     		movs	r1, #176
  96 0044 2046     		mov	r0, r4
  97 0046 FFF7FEFF 		bl	u8x8_cad_SendCmd
  98              	.LVL12:
 103:/Users/imashio/Electronics/ARM/_Library/u8x8_d_t6963.c **** 	
 104:/Users/imashio/Electronics/ARM/_Library/u8x8_d_t6963.c **** 	
 105:/Users/imashio/Electronics/ARM/_Library/u8x8_d_t6963.c **** 	//c = ((u8x8_tile_t *)arg_ptr)->cnt;	/* number of tiles */
 106:/Users/imashio/Electronics/ARM/_Library/u8x8_d_t6963.c **** 	u8x8_cad_SendData(u8x8, c, ptr);	/* note: SendData can not handle more than 255 bytes, send one li
  99              		.loc 1 106 0
 100 004a 3A46     		mov	r2, r7
 101 004c 4146     		mov	r1, r8
 102 004e 2046     		mov	r0, r4
 103 0050 FFF7FEFF 		bl	u8x8_cad_SendData
 104              	.LVL13:
 107:/Users/imashio/Electronics/ARM/_Library/u8x8_d_t6963.c **** 	
 108:/Users/imashio/Electronics/ARM/_Library/u8x8_d_t6963.c **** 	u8x8_cad_SendCmd(u8x8, 0x0b2 );	/* auto write reset */
 105              		.loc 1 108 0
 106 0054 B221     		movs	r1, #178
 107 0056 2046     		mov	r0, r4
 108 0058 FFF7FEFF 		bl	u8x8_cad_SendCmd
 109              	.LVL14:
 109:/Users/imashio/Electronics/ARM/_Library/u8x8_d_t6963.c **** 	ptr += u8x8->display_info->tile_width;
 110              		.loc 1 109 0
 111 005c 2368     		ldr	r3, [r4]
 112 005e 1A7C     		ldrb	r2, [r3, #16]	@ zero_extendqisi2
 113 0060 731E     		subs	r3, r6, #1
 110:/Users/imashio/Electronics/ARM/_Library/u8x8_d_t6963.c **** 	y += u8x8->display_info->tile_width;
 114              		.loc 1 110 0
 115 0062 1544     		add	r5, r5, r2
 116              	.LVL15:
  97:/Users/imashio/Electronics/ARM/_Library/u8x8_d_t6963.c ****       {
ARM GAS  /var/folders/v3/wysfpd052nz8jkbx04pk0ym80000gn/T//ccURiBND.s 			page 5


 117              		.loc 1 97 0
 118 0064 13F0FF06 		ands	r6, r3, #255
 119              	.LVL16:
 120              		.loc 1 110 0
 121 0068 ADB2     		uxth	r5, r5
 109:/Users/imashio/Electronics/ARM/_Library/u8x8_d_t6963.c **** 	ptr += u8x8->display_info->tile_width;
 122              		.loc 1 109 0
 123 006a 1744     		add	r7, r7, r2
 124              	.LVL17:
  97:/Users/imashio/Electronics/ARM/_Library/u8x8_d_t6963.c ****       {
 125              		.loc 1 97 0
 126 006c DDD1     		bne	.L6
 111:/Users/imashio/Electronics/ARM/_Library/u8x8_d_t6963.c ****       }
 112:/Users/imashio/Electronics/ARM/_Library/u8x8_d_t6963.c **** 
 113:/Users/imashio/Electronics/ARM/_Library/u8x8_d_t6963.c ****       u8x8_cad_EndTransfer(u8x8);
 127              		.loc 1 113 0
 128 006e 2046     		mov	r0, r4
 129 0070 FFF7FEFF 		bl	u8x8_cad_EndTransfer
 130              	.LVL18:
 131 0074 0120     		movs	r0, #1
 132              	.LBE5:
 133              	.LBE4:
 114:/Users/imashio/Electronics/ARM/_Library/u8x8_d_t6963.c ****       //u8x8->gpio_and_delay_cb(u8x8, U8X8_MSG_DELAY_NANO, 200, NULL);	/* extra dely required */
 115:/Users/imashio/Electronics/ARM/_Library/u8x8_d_t6963.c **** 
 116:/Users/imashio/Electronics/ARM/_Library/u8x8_d_t6963.c ****       break;
 117:/Users/imashio/Electronics/ARM/_Library/u8x8_d_t6963.c ****     default:
 118:/Users/imashio/Electronics/ARM/_Library/u8x8_d_t6963.c ****       return 0;
 119:/Users/imashio/Electronics/ARM/_Library/u8x8_d_t6963.c ****   }
 120:/Users/imashio/Electronics/ARM/_Library/u8x8_d_t6963.c ****   return 1;
 121:/Users/imashio/Electronics/ARM/_Library/u8x8_d_t6963.c **** }
 134              		.loc 1 121 0
 135 0076 BDE8F081 		pop	{r4, r5, r6, r7, r8, pc}
 136              	.LVL19:
 137              	.L12:
 118:/Users/imashio/Electronics/ARM/_Library/u8x8_d_t6963.c ****   }
 138              		.loc 1 118 0
 139 007a 0020     		movs	r0, #0
 140              	.LVL20:
 141              		.loc 1 121 0
 142 007c BDE8F081 		pop	{r4, r5, r6, r7, r8, pc}
 143              	.LVL21:
 144              	.L3:
  74:/Users/imashio/Electronics/ARM/_Library/u8x8_d_t6963.c **** 	u8x8_cad_SendSequence(u8x8, u8x8_d_t6963_powersave0_seq);
 145              		.loc 1 74 0
 146 0080 2AB9     		cbnz	r2, .L5
  75:/Users/imashio/Electronics/ARM/_Library/u8x8_d_t6963.c ****       else
 147              		.loc 1 75 0
 148 0082 0649     		ldr	r1, .L13
 149              	.LVL22:
 150 0084 FFF7FEFF 		bl	u8x8_cad_SendSequence
 151              	.LVL23:
 120:/Users/imashio/Electronics/ARM/_Library/u8x8_d_t6963.c **** }
 152              		.loc 1 120 0
 153 0088 0120     		movs	r0, #1
 154              		.loc 1 121 0
 155 008a BDE8F081 		pop	{r4, r5, r6, r7, r8, pc}
 156              	.LVL24:
ARM GAS  /var/folders/v3/wysfpd052nz8jkbx04pk0ym80000gn/T//ccURiBND.s 			page 6


 157              	.L5:
  77:/Users/imashio/Electronics/ARM/_Library/u8x8_d_t6963.c ****       break;
 158              		.loc 1 77 0
 159 008e 0449     		ldr	r1, .L13+4
 160              	.LVL25:
 161 0090 FFF7FEFF 		bl	u8x8_cad_SendSequence
 162              	.LVL26:
 120:/Users/imashio/Electronics/ARM/_Library/u8x8_d_t6963.c **** }
 163              		.loc 1 120 0
 164 0094 0120     		movs	r0, #1
 165              		.loc 1 121 0
 166 0096 BDE8F081 		pop	{r4, r5, r6, r7, r8, pc}
 167              	.L14:
 168 009a 00BF     		.align	2
 169              	.L13:
 170 009c 00000000 		.word	.LANCHOR0
 171 00a0 00000000 		.word	.LANCHOR1
 172              		.cfi_endproc
 173              	.LFE0:
 175              		.section	.text.u8x8_d_t6963_240x128,"ax",%progbits
 176              		.align	1
 177              		.p2align 2,,3
 178              		.global	u8x8_d_t6963_240x128
 179              		.syntax unified
 180              		.thumb
 181              		.thumb_func
 182              		.fpu fpv4-sp-d16
 184              	u8x8_d_t6963_240x128:
 185              	.LFB1:
 122:/Users/imashio/Electronics/ARM/_Library/u8x8_d_t6963.c **** 
 123:/Users/imashio/Electronics/ARM/_Library/u8x8_d_t6963.c **** /*=============================================*/
 124:/Users/imashio/Electronics/ARM/_Library/u8x8_d_t6963.c **** 
 125:/Users/imashio/Electronics/ARM/_Library/u8x8_d_t6963.c **** 
 126:/Users/imashio/Electronics/ARM/_Library/u8x8_d_t6963.c **** static const u8x8_display_info_t u8x8_t6963_240x128_display_info =
 127:/Users/imashio/Electronics/ARM/_Library/u8x8_d_t6963.c **** {
 128:/Users/imashio/Electronics/ARM/_Library/u8x8_d_t6963.c ****   /* chip_enable_level = */ 0,
 129:/Users/imashio/Electronics/ARM/_Library/u8x8_d_t6963.c ****   /* chip_disable_level = */ 1,
 130:/Users/imashio/Electronics/ARM/_Library/u8x8_d_t6963.c ****   
 131:/Users/imashio/Electronics/ARM/_Library/u8x8_d_t6963.c ****   /* post_chip_enable_wait_ns = */ 110,	/* T6963 Datasheet p30 */
 132:/Users/imashio/Electronics/ARM/_Library/u8x8_d_t6963.c ****   /* pre_chip_disable_wait_ns = */ 100,	/* T6963 Datasheet p30 */
 133:/Users/imashio/Electronics/ARM/_Library/u8x8_d_t6963.c ****   /* reset_pulse_width_ms = */ 1, 
 134:/Users/imashio/Electronics/ARM/_Library/u8x8_d_t6963.c ****   /* post_reset_wait_ms = */ 6, 
 135:/Users/imashio/Electronics/ARM/_Library/u8x8_d_t6963.c ****   /* sda_setup_time_ns = */ 20,		
 136:/Users/imashio/Electronics/ARM/_Library/u8x8_d_t6963.c ****   /* sck_pulse_width_ns = */  140,	
 137:/Users/imashio/Electronics/ARM/_Library/u8x8_d_t6963.c ****   /* sck_clock_hz = */ 1000000UL,	/* since Arduino 1.6.0, the SPI bus speed in Hz. Should be  10000
 138:/Users/imashio/Electronics/ARM/_Library/u8x8_d_t6963.c ****   /* spi_mode = */ 0,		
 139:/Users/imashio/Electronics/ARM/_Library/u8x8_d_t6963.c ****   /* i2c_bus_clock_100kHz = */ 4,
 140:/Users/imashio/Electronics/ARM/_Library/u8x8_d_t6963.c ****   /* data_setup_time_ns = */ 80,
 141:/Users/imashio/Electronics/ARM/_Library/u8x8_d_t6963.c ****   /* write_pulse_width_ns = */ 80,
 142:/Users/imashio/Electronics/ARM/_Library/u8x8_d_t6963.c ****   /* tile_width = */ 30,
 143:/Users/imashio/Electronics/ARM/_Library/u8x8_d_t6963.c ****   /* tile_hight = */ 16,
 144:/Users/imashio/Electronics/ARM/_Library/u8x8_d_t6963.c ****   /* default_x_offset = */ 0,
 145:/Users/imashio/Electronics/ARM/_Library/u8x8_d_t6963.c ****   /* flipmode_x_offset = */ 0,
 146:/Users/imashio/Electronics/ARM/_Library/u8x8_d_t6963.c ****   /* pixel_width = */ 240,
 147:/Users/imashio/Electronics/ARM/_Library/u8x8_d_t6963.c ****   /* pixel_height = */ 128
 148:/Users/imashio/Electronics/ARM/_Library/u8x8_d_t6963.c **** };
 149:/Users/imashio/Electronics/ARM/_Library/u8x8_d_t6963.c **** 
ARM GAS  /var/folders/v3/wysfpd052nz8jkbx04pk0ym80000gn/T//ccURiBND.s 			page 7


 150:/Users/imashio/Electronics/ARM/_Library/u8x8_d_t6963.c **** /* 240x128 */
 151:/Users/imashio/Electronics/ARM/_Library/u8x8_d_t6963.c **** static const uint8_t u8x8_d_t6963_240x128_init_seq[] = {
 152:/Users/imashio/Electronics/ARM/_Library/u8x8_d_t6963.c ****   U8X8_DLY(100),
 153:/Users/imashio/Electronics/ARM/_Library/u8x8_d_t6963.c ****   U8X8_START_TRANSFER(),             	/* enable chip, delay is part of the transfer start */
 154:/Users/imashio/Electronics/ARM/_Library/u8x8_d_t6963.c ****   U8X8_DLY(100),
 155:/Users/imashio/Electronics/ARM/_Library/u8x8_d_t6963.c ****   
 156:/Users/imashio/Electronics/ARM/_Library/u8x8_d_t6963.c ****   U8X8_AAC(0x00,0x00,0x021),	/* low, high, set cursor pos */
 157:/Users/imashio/Electronics/ARM/_Library/u8x8_d_t6963.c ****   U8X8_AAC(0x00,0x00,0x022),	/* low, high, set offset */
 158:/Users/imashio/Electronics/ARM/_Library/u8x8_d_t6963.c ****   U8X8_AAC(0x00,0x00,0x040),	/* low, high, set text home */
 159:/Users/imashio/Electronics/ARM/_Library/u8x8_d_t6963.c ****   U8X8_AAC(240/8,0x00,0x041),	/* low, high, set text columns */
 160:/Users/imashio/Electronics/ARM/_Library/u8x8_d_t6963.c ****   U8X8_AAC(0x00,0x00,0x042),	/* low, high, graphics home */  
 161:/Users/imashio/Electronics/ARM/_Library/u8x8_d_t6963.c ****   U8X8_AAC(240/8,0x00,0x043),	/* low, high, graphics columns */
 162:/Users/imashio/Electronics/ARM/_Library/u8x8_d_t6963.c ****   U8X8_DLY(2),					/* delay 2ms */
 163:/Users/imashio/Electronics/ARM/_Library/u8x8_d_t6963.c ****   // mode set
 164:/Users/imashio/Electronics/ARM/_Library/u8x8_d_t6963.c ****   // 0x080: Internal CG, OR Mode
 165:/Users/imashio/Electronics/ARM/_Library/u8x8_d_t6963.c ****   // 0x081: Internal CG, EXOR Mode
 166:/Users/imashio/Electronics/ARM/_Library/u8x8_d_t6963.c ****   // 0x083: Internal CG, AND Mode
 167:/Users/imashio/Electronics/ARM/_Library/u8x8_d_t6963.c ****   // 0x088: External CG, OR Mode
 168:/Users/imashio/Electronics/ARM/_Library/u8x8_d_t6963.c ****   // 0x089: External CG, EXOR Mode
 169:/Users/imashio/Electronics/ARM/_Library/u8x8_d_t6963.c ****   // 0x08B: External CG, AND Mode
 170:/Users/imashio/Electronics/ARM/_Library/u8x8_d_t6963.c ****   U8X8_C(0x080),            			/* mode register: OR Mode, Internal Character Mode */
 171:/Users/imashio/Electronics/ARM/_Library/u8x8_d_t6963.c ****   // display mode
 172:/Users/imashio/Electronics/ARM/_Library/u8x8_d_t6963.c ****   // 0x090: Display off
 173:/Users/imashio/Electronics/ARM/_Library/u8x8_d_t6963.c ****   // 0x094: Graphic off, text on, cursor off, blink off
 174:/Users/imashio/Electronics/ARM/_Library/u8x8_d_t6963.c ****   // 0x096: Graphic off, text on, cursor on, blink off
 175:/Users/imashio/Electronics/ARM/_Library/u8x8_d_t6963.c ****   // 0x097: Graphic off, text on, cursor on, blink on
 176:/Users/imashio/Electronics/ARM/_Library/u8x8_d_t6963.c ****   // 0x098: Graphic on, text off, cursor off, blink off
 177:/Users/imashio/Electronics/ARM/_Library/u8x8_d_t6963.c ****   // 0x09a: Graphic on, text off, cursor on, blink off
 178:/Users/imashio/Electronics/ARM/_Library/u8x8_d_t6963.c ****   // ...
 179:/Users/imashio/Electronics/ARM/_Library/u8x8_d_t6963.c ****   // 0x09c: Graphic on, text on, cursor off, blink off
 180:/Users/imashio/Electronics/ARM/_Library/u8x8_d_t6963.c ****   // 0x09f: Graphic on, text on, cursor on, blink on
 181:/Users/imashio/Electronics/ARM/_Library/u8x8_d_t6963.c ****   U8X8_C(0x090),                             /* All Off */
 182:/Users/imashio/Electronics/ARM/_Library/u8x8_d_t6963.c ****   U8X8_AAC(0x00,0x00,0x024),	/* low, high, set adr pointer */
 183:/Users/imashio/Electronics/ARM/_Library/u8x8_d_t6963.c ****   
 184:/Users/imashio/Electronics/ARM/_Library/u8x8_d_t6963.c ****   U8X8_DLY(100),
 185:/Users/imashio/Electronics/ARM/_Library/u8x8_d_t6963.c ****   U8X8_END_TRANSFER(),             	/* disable chip */
 186:/Users/imashio/Electronics/ARM/_Library/u8x8_d_t6963.c ****   U8X8_DLY(100),
 187:/Users/imashio/Electronics/ARM/_Library/u8x8_d_t6963.c **** };
 188:/Users/imashio/Electronics/ARM/_Library/u8x8_d_t6963.c **** 
 189:/Users/imashio/Electronics/ARM/_Library/u8x8_d_t6963.c **** uint8_t u8x8_d_t6963_240x128(u8x8_t *u8x8, uint8_t msg, uint8_t arg_int, void *arg_ptr)
 190:/Users/imashio/Electronics/ARM/_Library/u8x8_d_t6963.c **** {
 186              		.loc 1 190 0
 187              		.cfi_startproc
 188              		@ args = 0, pretend = 0, frame = 0
 189              		@ frame_needed = 0, uses_anonymous_args = 0
 190              	.LVL27:
 191:/Users/imashio/Electronics/ARM/_Library/u8x8_d_t6963.c ****   switch(msg)
 191              		.loc 1 191 0
 192 0000 0929     		cmp	r1, #9
 190:/Users/imashio/Electronics/ARM/_Library/u8x8_d_t6963.c ****   switch(msg)
 193              		.loc 1 190 0
 194 0002 70B5     		push	{r4, r5, r6, lr}
 195              	.LCFI1:
 196              		.cfi_def_cfa_offset 16
 197              		.cfi_offset 4, -16
 198              		.cfi_offset 5, -12
 199              		.cfi_offset 6, -8
ARM GAS  /var/folders/v3/wysfpd052nz8jkbx04pk0ym80000gn/T//ccURiBND.s 			page 8


 200              		.cfi_offset 14, -4
 201              		.loc 1 191 0
 202 0004 0ED0     		beq	.L17
 203 0006 0A29     		cmp	r1, #10
 204 0008 08D1     		bne	.L22
 205 000a 0546     		mov	r5, r0
 192:/Users/imashio/Electronics/ARM/_Library/u8x8_d_t6963.c ****   {
 193:/Users/imashio/Electronics/ARM/_Library/u8x8_d_t6963.c ****     case U8X8_MSG_DISPLAY_SETUP_MEMORY:
 194:/Users/imashio/Electronics/ARM/_Library/u8x8_d_t6963.c ****       u8x8_d_helper_display_setup_memory(u8x8, &u8x8_t6963_240x128_display_info);
 195:/Users/imashio/Electronics/ARM/_Library/u8x8_d_t6963.c ****       break;
 196:/Users/imashio/Electronics/ARM/_Library/u8x8_d_t6963.c ****     case U8X8_MSG_DISPLAY_INIT:
 197:/Users/imashio/Electronics/ARM/_Library/u8x8_d_t6963.c ****       u8x8_d_helper_display_init(u8x8);
 206              		.loc 1 197 0
 207 000c FFF7FEFF 		bl	u8x8_d_helper_display_init
 208              	.LVL28:
 198:/Users/imashio/Electronics/ARM/_Library/u8x8_d_t6963.c ****       u8x8_cad_SendSequence(u8x8, u8x8_d_t6963_240x128_init_seq);
 209              		.loc 1 198 0
 210 0010 2846     		mov	r0, r5
 211 0012 0749     		ldr	r1, .L23
 212 0014 FFF7FEFF 		bl	u8x8_cad_SendSequence
 213              	.LVL29:
 199:/Users/imashio/Electronics/ARM/_Library/u8x8_d_t6963.c ****       break;
 200:/Users/imashio/Electronics/ARM/_Library/u8x8_d_t6963.c ****     default:
 201:/Users/imashio/Electronics/ARM/_Library/u8x8_d_t6963.c ****       return u8x8_d_t6963_common(u8x8, msg, arg_int, arg_ptr);
 202:/Users/imashio/Electronics/ARM/_Library/u8x8_d_t6963.c ****   }
 203:/Users/imashio/Electronics/ARM/_Library/u8x8_d_t6963.c ****   return 1;
 204:/Users/imashio/Electronics/ARM/_Library/u8x8_d_t6963.c **** }
 214              		.loc 1 204 0
 215 0018 0120     		movs	r0, #1
 216 001a 70BD     		pop	{r4, r5, r6, pc}
 217              	.LVL30:
 218              	.L22:
 219 001c BDE87040 		pop	{r4, r5, r6, lr}
 220              	.LCFI2:
 221              		.cfi_remember_state
 222              		.cfi_restore 14
 223              		.cfi_restore 6
 224              		.cfi_restore 5
 225              		.cfi_restore 4
 226              		.cfi_def_cfa_offset 0
 201:/Users/imashio/Electronics/ARM/_Library/u8x8_d_t6963.c ****   }
 227              		.loc 1 201 0
 228 0020 FFF7FEBF 		b	u8x8_d_t6963_common
 229              	.LVL31:
 230              	.L17:
 231              	.LCFI3:
 232              		.cfi_restore_state
 194:/Users/imashio/Electronics/ARM/_Library/u8x8_d_t6963.c ****       break;
 233              		.loc 1 194 0
 234 0024 0349     		ldr	r1, .L23+4
 235              	.LVL32:
 236 0026 FFF7FEFF 		bl	u8x8_d_helper_display_setup_memory
 237              	.LVL33:
 238              		.loc 1 204 0
 239 002a 0120     		movs	r0, #1
 240 002c 70BD     		pop	{r4, r5, r6, pc}
 241              	.L24:
ARM GAS  /var/folders/v3/wysfpd052nz8jkbx04pk0ym80000gn/T//ccURiBND.s 			page 9


 242 002e 00BF     		.align	2
 243              	.L23:
 244 0030 00000000 		.word	.LANCHOR3
 245 0034 00000000 		.word	.LANCHOR2
 246              		.cfi_endproc
 247              	.LFE1:
 249              		.section	.text.u8x8_d_t6963_240x64,"ax",%progbits
 250              		.align	1
 251              		.p2align 2,,3
 252              		.global	u8x8_d_t6963_240x64
 253              		.syntax unified
 254              		.thumb
 255              		.thumb_func
 256              		.fpu fpv4-sp-d16
 258              	u8x8_d_t6963_240x64:
 259              	.LFB2:
 205:/Users/imashio/Electronics/ARM/_Library/u8x8_d_t6963.c **** 
 206:/Users/imashio/Electronics/ARM/_Library/u8x8_d_t6963.c **** 
 207:/Users/imashio/Electronics/ARM/_Library/u8x8_d_t6963.c **** 
 208:/Users/imashio/Electronics/ARM/_Library/u8x8_d_t6963.c **** /*=============================================*/
 209:/Users/imashio/Electronics/ARM/_Library/u8x8_d_t6963.c **** 
 210:/Users/imashio/Electronics/ARM/_Library/u8x8_d_t6963.c **** static const u8x8_display_info_t u8x8_t6963_240x64_display_info =
 211:/Users/imashio/Electronics/ARM/_Library/u8x8_d_t6963.c **** {
 212:/Users/imashio/Electronics/ARM/_Library/u8x8_d_t6963.c ****   /* chip_enable_level = */ 0,
 213:/Users/imashio/Electronics/ARM/_Library/u8x8_d_t6963.c ****   /* chip_disable_level = */ 1,
 214:/Users/imashio/Electronics/ARM/_Library/u8x8_d_t6963.c ****   
 215:/Users/imashio/Electronics/ARM/_Library/u8x8_d_t6963.c ****   /* post_chip_enable_wait_ns = */ 110,	/* T6963 Datasheet p30 */
 216:/Users/imashio/Electronics/ARM/_Library/u8x8_d_t6963.c ****   /* pre_chip_disable_wait_ns = */ 100,	/* T6963 Datasheet p30 */
 217:/Users/imashio/Electronics/ARM/_Library/u8x8_d_t6963.c ****   /* reset_pulse_width_ms = */ 1, 
 218:/Users/imashio/Electronics/ARM/_Library/u8x8_d_t6963.c ****   /* post_reset_wait_ms = */ 6, 
 219:/Users/imashio/Electronics/ARM/_Library/u8x8_d_t6963.c ****   /* sda_setup_time_ns = */ 20,		
 220:/Users/imashio/Electronics/ARM/_Library/u8x8_d_t6963.c ****   /* sck_pulse_width_ns = */  140,	
 221:/Users/imashio/Electronics/ARM/_Library/u8x8_d_t6963.c ****   /* sck_clock_hz = */ 1000000UL,	/* since Arduino 1.6.0, the SPI bus speed in Hz. Should be  10000
 222:/Users/imashio/Electronics/ARM/_Library/u8x8_d_t6963.c ****   /* spi_mode = */ 0,		
 223:/Users/imashio/Electronics/ARM/_Library/u8x8_d_t6963.c ****   /* i2c_bus_clock_100kHz = */ 4,
 224:/Users/imashio/Electronics/ARM/_Library/u8x8_d_t6963.c ****   /* data_setup_time_ns = */ 80,
 225:/Users/imashio/Electronics/ARM/_Library/u8x8_d_t6963.c ****   /* write_pulse_width_ns = */ 80,
 226:/Users/imashio/Electronics/ARM/_Library/u8x8_d_t6963.c ****   /* tile_width = */ 30,
 227:/Users/imashio/Electronics/ARM/_Library/u8x8_d_t6963.c ****   /* tile_hight = */ 8,
 228:/Users/imashio/Electronics/ARM/_Library/u8x8_d_t6963.c ****   /* default_x_offset = */ 0,
 229:/Users/imashio/Electronics/ARM/_Library/u8x8_d_t6963.c ****   /* flipmode_x_offset = */ 0,
 230:/Users/imashio/Electronics/ARM/_Library/u8x8_d_t6963.c ****   /* pixel_width = */ 240,
 231:/Users/imashio/Electronics/ARM/_Library/u8x8_d_t6963.c ****   /* pixel_height = */ 64
 232:/Users/imashio/Electronics/ARM/_Library/u8x8_d_t6963.c **** };
 233:/Users/imashio/Electronics/ARM/_Library/u8x8_d_t6963.c **** 
 234:/Users/imashio/Electronics/ARM/_Library/u8x8_d_t6963.c **** 
 235:/Users/imashio/Electronics/ARM/_Library/u8x8_d_t6963.c **** /* 240x64 */
 236:/Users/imashio/Electronics/ARM/_Library/u8x8_d_t6963.c **** static const uint8_t u8x8_d_t6963_240x64_init_seq[] = {
 237:/Users/imashio/Electronics/ARM/_Library/u8x8_d_t6963.c ****   U8X8_DLY(100),
 238:/Users/imashio/Electronics/ARM/_Library/u8x8_d_t6963.c ****   U8X8_START_TRANSFER(),             	/* enable chip, delay is part of the transfer start */
 239:/Users/imashio/Electronics/ARM/_Library/u8x8_d_t6963.c ****   U8X8_DLY(100),
 240:/Users/imashio/Electronics/ARM/_Library/u8x8_d_t6963.c ****   
 241:/Users/imashio/Electronics/ARM/_Library/u8x8_d_t6963.c ****   U8X8_AAC(0x00,0x00,0x021),	/* low, high, set cursor pos */
 242:/Users/imashio/Electronics/ARM/_Library/u8x8_d_t6963.c ****   U8X8_AAC(0x00,0x00,0x022),	/* low, high, set offset */
 243:/Users/imashio/Electronics/ARM/_Library/u8x8_d_t6963.c ****   U8X8_AAC(0x00,0x00,0x040),	/* low, high, set text home */
 244:/Users/imashio/Electronics/ARM/_Library/u8x8_d_t6963.c ****   U8X8_AAC(240/8,0x00,0x041),	/* low, high, set text columns */
 245:/Users/imashio/Electronics/ARM/_Library/u8x8_d_t6963.c ****   U8X8_AAC(0x00,0x00,0x042),	/* low, high, graphics home */  
ARM GAS  /var/folders/v3/wysfpd052nz8jkbx04pk0ym80000gn/T//ccURiBND.s 			page 10


 246:/Users/imashio/Electronics/ARM/_Library/u8x8_d_t6963.c ****   U8X8_AAC(240/8,0x00,0x043),	/* low, high, graphics columns */
 247:/Users/imashio/Electronics/ARM/_Library/u8x8_d_t6963.c ****   U8X8_DLY(2),					/* delay 2ms */
 248:/Users/imashio/Electronics/ARM/_Library/u8x8_d_t6963.c ****   // mode set
 249:/Users/imashio/Electronics/ARM/_Library/u8x8_d_t6963.c ****   // 0x080: Internal CG, OR Mode
 250:/Users/imashio/Electronics/ARM/_Library/u8x8_d_t6963.c ****   // 0x081: Internal CG, EXOR Mode
 251:/Users/imashio/Electronics/ARM/_Library/u8x8_d_t6963.c ****   // 0x083: Internal CG, AND Mode
 252:/Users/imashio/Electronics/ARM/_Library/u8x8_d_t6963.c ****   // 0x088: External CG, OR Mode
 253:/Users/imashio/Electronics/ARM/_Library/u8x8_d_t6963.c ****   // 0x089: External CG, EXOR Mode
 254:/Users/imashio/Electronics/ARM/_Library/u8x8_d_t6963.c ****   // 0x08B: External CG, AND Mode
 255:/Users/imashio/Electronics/ARM/_Library/u8x8_d_t6963.c ****   U8X8_C(0x080),            			/* mode register: OR Mode, Internal Character Mode */
 256:/Users/imashio/Electronics/ARM/_Library/u8x8_d_t6963.c ****   // display mode
 257:/Users/imashio/Electronics/ARM/_Library/u8x8_d_t6963.c ****   // 0x090: Display off
 258:/Users/imashio/Electronics/ARM/_Library/u8x8_d_t6963.c ****   // 0x094: Graphic off, text on, cursor off, blink off
 259:/Users/imashio/Electronics/ARM/_Library/u8x8_d_t6963.c ****   // 0x096: Graphic off, text on, cursor on, blink off
 260:/Users/imashio/Electronics/ARM/_Library/u8x8_d_t6963.c ****   // 0x097: Graphic off, text on, cursor on, blink on
 261:/Users/imashio/Electronics/ARM/_Library/u8x8_d_t6963.c ****   // 0x098: Graphic on, text off, cursor off, blink off
 262:/Users/imashio/Electronics/ARM/_Library/u8x8_d_t6963.c ****   // 0x09a: Graphic on, text off, cursor on, blink off
 263:/Users/imashio/Electronics/ARM/_Library/u8x8_d_t6963.c ****   // ...
 264:/Users/imashio/Electronics/ARM/_Library/u8x8_d_t6963.c ****   // 0x09c: Graphic on, text on, cursor off, blink off
 265:/Users/imashio/Electronics/ARM/_Library/u8x8_d_t6963.c ****   // 0x09f: Graphic on, text on, cursor on, blink on
 266:/Users/imashio/Electronics/ARM/_Library/u8x8_d_t6963.c ****   U8X8_C(0x090),                             /* All Off */
 267:/Users/imashio/Electronics/ARM/_Library/u8x8_d_t6963.c ****   U8X8_AAC(0x00,0x00,0x024),	/* low, high, set adr pointer */
 268:/Users/imashio/Electronics/ARM/_Library/u8x8_d_t6963.c ****   
 269:/Users/imashio/Electronics/ARM/_Library/u8x8_d_t6963.c ****   U8X8_DLY(100),
 270:/Users/imashio/Electronics/ARM/_Library/u8x8_d_t6963.c ****   U8X8_END_TRANSFER(),             	/* disable chip */
 271:/Users/imashio/Electronics/ARM/_Library/u8x8_d_t6963.c ****   U8X8_DLY(100),
 272:/Users/imashio/Electronics/ARM/_Library/u8x8_d_t6963.c **** };
 273:/Users/imashio/Electronics/ARM/_Library/u8x8_d_t6963.c **** 
 274:/Users/imashio/Electronics/ARM/_Library/u8x8_d_t6963.c **** uint8_t u8x8_d_t6963_240x64(u8x8_t *u8x8, uint8_t msg, uint8_t arg_int, void *arg_ptr)
 275:/Users/imashio/Electronics/ARM/_Library/u8x8_d_t6963.c **** {
 260              		.loc 1 275 0
 261              		.cfi_startproc
 262              		@ args = 0, pretend = 0, frame = 0
 263              		@ frame_needed = 0, uses_anonymous_args = 0
 264              	.LVL34:
 276:/Users/imashio/Electronics/ARM/_Library/u8x8_d_t6963.c ****   switch(msg)
 265              		.loc 1 276 0
 266 0000 0929     		cmp	r1, #9
 275:/Users/imashio/Electronics/ARM/_Library/u8x8_d_t6963.c ****   switch(msg)
 267              		.loc 1 275 0
 268 0002 70B5     		push	{r4, r5, r6, lr}
 269              	.LCFI4:
 270              		.cfi_def_cfa_offset 16
 271              		.cfi_offset 4, -16
 272              		.cfi_offset 5, -12
 273              		.cfi_offset 6, -8
 274              		.cfi_offset 14, -4
 275              		.loc 1 276 0
 276 0004 0ED0     		beq	.L27
 277 0006 0A29     		cmp	r1, #10
 278 0008 08D1     		bne	.L32
 279 000a 0546     		mov	r5, r0
 277:/Users/imashio/Electronics/ARM/_Library/u8x8_d_t6963.c ****   {
 278:/Users/imashio/Electronics/ARM/_Library/u8x8_d_t6963.c ****     case U8X8_MSG_DISPLAY_SETUP_MEMORY:
 279:/Users/imashio/Electronics/ARM/_Library/u8x8_d_t6963.c ****       u8x8_d_helper_display_setup_memory(u8x8, &u8x8_t6963_240x64_display_info);
 280:/Users/imashio/Electronics/ARM/_Library/u8x8_d_t6963.c ****       break;
 281:/Users/imashio/Electronics/ARM/_Library/u8x8_d_t6963.c ****     case U8X8_MSG_DISPLAY_INIT:
ARM GAS  /var/folders/v3/wysfpd052nz8jkbx04pk0ym80000gn/T//ccURiBND.s 			page 11


 282:/Users/imashio/Electronics/ARM/_Library/u8x8_d_t6963.c ****       u8x8_d_helper_display_init(u8x8);
 280              		.loc 1 282 0
 281 000c FFF7FEFF 		bl	u8x8_d_helper_display_init
 282              	.LVL35:
 283:/Users/imashio/Electronics/ARM/_Library/u8x8_d_t6963.c ****       u8x8_cad_SendSequence(u8x8, u8x8_d_t6963_240x64_init_seq);
 283              		.loc 1 283 0
 284 0010 2846     		mov	r0, r5
 285 0012 0749     		ldr	r1, .L33
 286 0014 FFF7FEFF 		bl	u8x8_cad_SendSequence
 287              	.LVL36:
 284:/Users/imashio/Electronics/ARM/_Library/u8x8_d_t6963.c ****       break;
 285:/Users/imashio/Electronics/ARM/_Library/u8x8_d_t6963.c ****     default:
 286:/Users/imashio/Electronics/ARM/_Library/u8x8_d_t6963.c ****       return u8x8_d_t6963_common(u8x8, msg, arg_int, arg_ptr);
 287:/Users/imashio/Electronics/ARM/_Library/u8x8_d_t6963.c ****   }
 288:/Users/imashio/Electronics/ARM/_Library/u8x8_d_t6963.c ****   return 1;
 289:/Users/imashio/Electronics/ARM/_Library/u8x8_d_t6963.c **** }
 288              		.loc 1 289 0
 289 0018 0120     		movs	r0, #1
 290 001a 70BD     		pop	{r4, r5, r6, pc}
 291              	.LVL37:
 292              	.L32:
 293 001c BDE87040 		pop	{r4, r5, r6, lr}
 294              	.LCFI5:
 295              		.cfi_remember_state
 296              		.cfi_restore 14
 297              		.cfi_restore 6
 298              		.cfi_restore 5
 299              		.cfi_restore 4
 300              		.cfi_def_cfa_offset 0
 286:/Users/imashio/Electronics/ARM/_Library/u8x8_d_t6963.c ****   }
 301              		.loc 1 286 0
 302 0020 FFF7FEBF 		b	u8x8_d_t6963_common
 303              	.LVL38:
 304              	.L27:
 305              	.LCFI6:
 306              		.cfi_restore_state
 279:/Users/imashio/Electronics/ARM/_Library/u8x8_d_t6963.c ****       break;
 307              		.loc 1 279 0
 308 0024 0349     		ldr	r1, .L33+4
 309              	.LVL39:
 310 0026 FFF7FEFF 		bl	u8x8_d_helper_display_setup_memory
 311              	.LVL40:
 312              		.loc 1 289 0
 313 002a 0120     		movs	r0, #1
 314 002c 70BD     		pop	{r4, r5, r6, pc}
 315              	.L34:
 316 002e 00BF     		.align	2
 317              	.L33:
 318 0030 00000000 		.word	.LANCHOR5
 319 0034 00000000 		.word	.LANCHOR4
 320              		.cfi_endproc
 321              	.LFE2:
 323              		.section	.text.u8x8_d_t6963_256x64,"ax",%progbits
 324              		.align	1
 325              		.p2align 2,,3
 326              		.global	u8x8_d_t6963_256x64
 327              		.syntax unified
ARM GAS  /var/folders/v3/wysfpd052nz8jkbx04pk0ym80000gn/T//ccURiBND.s 			page 12


 328              		.thumb
 329              		.thumb_func
 330              		.fpu fpv4-sp-d16
 332              	u8x8_d_t6963_256x64:
 333              	.LFB3:
 290:/Users/imashio/Electronics/ARM/_Library/u8x8_d_t6963.c **** 
 291:/Users/imashio/Electronics/ARM/_Library/u8x8_d_t6963.c **** 
 292:/Users/imashio/Electronics/ARM/_Library/u8x8_d_t6963.c **** 
 293:/Users/imashio/Electronics/ARM/_Library/u8x8_d_t6963.c **** /*=============================================*/
 294:/Users/imashio/Electronics/ARM/_Library/u8x8_d_t6963.c **** 
 295:/Users/imashio/Electronics/ARM/_Library/u8x8_d_t6963.c **** 
 296:/Users/imashio/Electronics/ARM/_Library/u8x8_d_t6963.c **** 
 297:/Users/imashio/Electronics/ARM/_Library/u8x8_d_t6963.c **** static const u8x8_display_info_t u8x8_t6963_256x64_display_info =
 298:/Users/imashio/Electronics/ARM/_Library/u8x8_d_t6963.c **** {
 299:/Users/imashio/Electronics/ARM/_Library/u8x8_d_t6963.c ****   /* chip_enable_level = */ 0,
 300:/Users/imashio/Electronics/ARM/_Library/u8x8_d_t6963.c ****   /* chip_disable_level = */ 1,
 301:/Users/imashio/Electronics/ARM/_Library/u8x8_d_t6963.c ****   
 302:/Users/imashio/Electronics/ARM/_Library/u8x8_d_t6963.c ****   /* post_chip_enable_wait_ns = */ 110,	/* T6963 Datasheet p30 */
 303:/Users/imashio/Electronics/ARM/_Library/u8x8_d_t6963.c ****   /* pre_chip_disable_wait_ns = */ 100,	/* T6963 Datasheet p30 */
 304:/Users/imashio/Electronics/ARM/_Library/u8x8_d_t6963.c ****   /* reset_pulse_width_ms = */ 1, 
 305:/Users/imashio/Electronics/ARM/_Library/u8x8_d_t6963.c ****   /* post_reset_wait_ms = */ 6, 
 306:/Users/imashio/Electronics/ARM/_Library/u8x8_d_t6963.c ****   /* sda_setup_time_ns = */ 20,		
 307:/Users/imashio/Electronics/ARM/_Library/u8x8_d_t6963.c ****   /* sck_pulse_width_ns = */  140,	
 308:/Users/imashio/Electronics/ARM/_Library/u8x8_d_t6963.c ****   /* sck_clock_hz = */ 1000000UL,	/* since Arduino 1.6.0, the SPI bus speed in Hz. Should be  10000
 309:/Users/imashio/Electronics/ARM/_Library/u8x8_d_t6963.c ****   /* spi_mode = */ 0,		
 310:/Users/imashio/Electronics/ARM/_Library/u8x8_d_t6963.c ****   /* i2c_bus_clock_100kHz = */ 4,
 311:/Users/imashio/Electronics/ARM/_Library/u8x8_d_t6963.c ****   /* data_setup_time_ns = */ 80,
 312:/Users/imashio/Electronics/ARM/_Library/u8x8_d_t6963.c ****   /* write_pulse_width_ns = */ 80,
 313:/Users/imashio/Electronics/ARM/_Library/u8x8_d_t6963.c ****   /* tile_width = */ 32,
 314:/Users/imashio/Electronics/ARM/_Library/u8x8_d_t6963.c ****   /* tile_hight = */ 8,
 315:/Users/imashio/Electronics/ARM/_Library/u8x8_d_t6963.c ****   /* default_x_offset = */ 0,
 316:/Users/imashio/Electronics/ARM/_Library/u8x8_d_t6963.c ****   /* flipmode_x_offset = */ 0,
 317:/Users/imashio/Electronics/ARM/_Library/u8x8_d_t6963.c ****   /* pixel_width = */ 256,
 318:/Users/imashio/Electronics/ARM/_Library/u8x8_d_t6963.c ****   /* pixel_height = */ 64
 319:/Users/imashio/Electronics/ARM/_Library/u8x8_d_t6963.c **** };
 320:/Users/imashio/Electronics/ARM/_Library/u8x8_d_t6963.c **** 
 321:/Users/imashio/Electronics/ARM/_Library/u8x8_d_t6963.c **** /* 256x64 */
 322:/Users/imashio/Electronics/ARM/_Library/u8x8_d_t6963.c **** static const uint8_t u8x8_d_t6963_256x64_init_seq[] = {
 323:/Users/imashio/Electronics/ARM/_Library/u8x8_d_t6963.c ****   U8X8_DLY(100),
 324:/Users/imashio/Electronics/ARM/_Library/u8x8_d_t6963.c ****   U8X8_START_TRANSFER(),             	/* enable chip, delay is part of the transfer start */
 325:/Users/imashio/Electronics/ARM/_Library/u8x8_d_t6963.c ****   U8X8_DLY(100),
 326:/Users/imashio/Electronics/ARM/_Library/u8x8_d_t6963.c ****   
 327:/Users/imashio/Electronics/ARM/_Library/u8x8_d_t6963.c ****   U8X8_AAC(0x00,0x00,0x021),	/* low, high, set cursor pos */
 328:/Users/imashio/Electronics/ARM/_Library/u8x8_d_t6963.c ****   U8X8_AAC(0x00,0x00,0x022),	/* low, high, set offset */
 329:/Users/imashio/Electronics/ARM/_Library/u8x8_d_t6963.c ****   U8X8_AAC(0x00,0x00,0x040),	/* low, high, set text home */
 330:/Users/imashio/Electronics/ARM/_Library/u8x8_d_t6963.c ****   U8X8_AAC(256/8,0x00,0x041),	/* low, high, set text columns */
 331:/Users/imashio/Electronics/ARM/_Library/u8x8_d_t6963.c ****   U8X8_AAC(0x00,0x00,0x042),	/* low, high, graphics home */  
 332:/Users/imashio/Electronics/ARM/_Library/u8x8_d_t6963.c ****   U8X8_AAC(256/8,0x00,0x043),	/* low, high, graphics columns */
 333:/Users/imashio/Electronics/ARM/_Library/u8x8_d_t6963.c ****   U8X8_DLY(2),					/* delay 2ms */
 334:/Users/imashio/Electronics/ARM/_Library/u8x8_d_t6963.c ****   // mode set
 335:/Users/imashio/Electronics/ARM/_Library/u8x8_d_t6963.c ****   // 0x080: Internal CG, OR Mode
 336:/Users/imashio/Electronics/ARM/_Library/u8x8_d_t6963.c ****   // 0x081: Internal CG, EXOR Mode
 337:/Users/imashio/Electronics/ARM/_Library/u8x8_d_t6963.c ****   // 0x083: Internal CG, AND Mode
 338:/Users/imashio/Electronics/ARM/_Library/u8x8_d_t6963.c ****   // 0x088: External CG, OR Mode
 339:/Users/imashio/Electronics/ARM/_Library/u8x8_d_t6963.c ****   // 0x089: External CG, EXOR Mode
 340:/Users/imashio/Electronics/ARM/_Library/u8x8_d_t6963.c ****   // 0x08B: External CG, AND Mode
 341:/Users/imashio/Electronics/ARM/_Library/u8x8_d_t6963.c ****   U8X8_C(0x080),            			/* mode register: OR Mode, Internal Character Mode */
ARM GAS  /var/folders/v3/wysfpd052nz8jkbx04pk0ym80000gn/T//ccURiBND.s 			page 13


 342:/Users/imashio/Electronics/ARM/_Library/u8x8_d_t6963.c ****   // display mode
 343:/Users/imashio/Electronics/ARM/_Library/u8x8_d_t6963.c ****   // 0x090: Display off
 344:/Users/imashio/Electronics/ARM/_Library/u8x8_d_t6963.c ****   // 0x094: Graphic off, text on, cursor off, blink off
 345:/Users/imashio/Electronics/ARM/_Library/u8x8_d_t6963.c ****   // 0x096: Graphic off, text on, cursor on, blink off
 346:/Users/imashio/Electronics/ARM/_Library/u8x8_d_t6963.c ****   // 0x097: Graphic off, text on, cursor on, blink on
 347:/Users/imashio/Electronics/ARM/_Library/u8x8_d_t6963.c ****   // 0x098: Graphic on, text off, cursor off, blink off
 348:/Users/imashio/Electronics/ARM/_Library/u8x8_d_t6963.c ****   // 0x09a: Graphic on, text off, cursor on, blink off
 349:/Users/imashio/Electronics/ARM/_Library/u8x8_d_t6963.c ****   // ...
 350:/Users/imashio/Electronics/ARM/_Library/u8x8_d_t6963.c ****   // 0x09c: Graphic on, text on, cursor off, blink off
 351:/Users/imashio/Electronics/ARM/_Library/u8x8_d_t6963.c ****   // 0x09f: Graphic on, text on, cursor on, blink on
 352:/Users/imashio/Electronics/ARM/_Library/u8x8_d_t6963.c ****   U8X8_C(0x090),                             /* All Off */
 353:/Users/imashio/Electronics/ARM/_Library/u8x8_d_t6963.c ****   U8X8_AAC(0x00,0x00,0x024),	/* low, high, set adr pointer */
 354:/Users/imashio/Electronics/ARM/_Library/u8x8_d_t6963.c ****   
 355:/Users/imashio/Electronics/ARM/_Library/u8x8_d_t6963.c ****   U8X8_DLY(100),
 356:/Users/imashio/Electronics/ARM/_Library/u8x8_d_t6963.c ****   U8X8_END_TRANSFER(),             	/* disable chip */
 357:/Users/imashio/Electronics/ARM/_Library/u8x8_d_t6963.c ****   U8X8_DLY(100),
 358:/Users/imashio/Electronics/ARM/_Library/u8x8_d_t6963.c **** };
 359:/Users/imashio/Electronics/ARM/_Library/u8x8_d_t6963.c **** 
 360:/Users/imashio/Electronics/ARM/_Library/u8x8_d_t6963.c **** uint8_t u8x8_d_t6963_256x64(u8x8_t *u8x8, uint8_t msg, uint8_t arg_int, void *arg_ptr)
 361:/Users/imashio/Electronics/ARM/_Library/u8x8_d_t6963.c **** {
 334              		.loc 1 361 0
 335              		.cfi_startproc
 336              		@ args = 0, pretend = 0, frame = 0
 337              		@ frame_needed = 0, uses_anonymous_args = 0
 338              	.LVL41:
 362:/Users/imashio/Electronics/ARM/_Library/u8x8_d_t6963.c ****   switch(msg)
 339              		.loc 1 362 0
 340 0000 0929     		cmp	r1, #9
 361:/Users/imashio/Electronics/ARM/_Library/u8x8_d_t6963.c ****   switch(msg)
 341              		.loc 1 361 0
 342 0002 70B5     		push	{r4, r5, r6, lr}
 343              	.LCFI7:
 344              		.cfi_def_cfa_offset 16
 345              		.cfi_offset 4, -16
 346              		.cfi_offset 5, -12
 347              		.cfi_offset 6, -8
 348              		.cfi_offset 14, -4
 349              		.loc 1 362 0
 350 0004 0ED0     		beq	.L37
 351 0006 0A29     		cmp	r1, #10
 352 0008 08D1     		bne	.L42
 353 000a 0546     		mov	r5, r0
 363:/Users/imashio/Electronics/ARM/_Library/u8x8_d_t6963.c ****   {
 364:/Users/imashio/Electronics/ARM/_Library/u8x8_d_t6963.c ****     case U8X8_MSG_DISPLAY_SETUP_MEMORY:
 365:/Users/imashio/Electronics/ARM/_Library/u8x8_d_t6963.c ****       u8x8_d_helper_display_setup_memory(u8x8, &u8x8_t6963_256x64_display_info);
 366:/Users/imashio/Electronics/ARM/_Library/u8x8_d_t6963.c ****       break;
 367:/Users/imashio/Electronics/ARM/_Library/u8x8_d_t6963.c ****     case U8X8_MSG_DISPLAY_INIT:
 368:/Users/imashio/Electronics/ARM/_Library/u8x8_d_t6963.c ****       u8x8_d_helper_display_init(u8x8);
 354              		.loc 1 368 0
 355 000c FFF7FEFF 		bl	u8x8_d_helper_display_init
 356              	.LVL42:
 369:/Users/imashio/Electronics/ARM/_Library/u8x8_d_t6963.c ****       u8x8_cad_SendSequence(u8x8, u8x8_d_t6963_256x64_init_seq);
 357              		.loc 1 369 0
 358 0010 2846     		mov	r0, r5
 359 0012 0749     		ldr	r1, .L43
 360 0014 FFF7FEFF 		bl	u8x8_cad_SendSequence
 361              	.LVL43:
ARM GAS  /var/folders/v3/wysfpd052nz8jkbx04pk0ym80000gn/T//ccURiBND.s 			page 14


 370:/Users/imashio/Electronics/ARM/_Library/u8x8_d_t6963.c ****       break;
 371:/Users/imashio/Electronics/ARM/_Library/u8x8_d_t6963.c ****     default:
 372:/Users/imashio/Electronics/ARM/_Library/u8x8_d_t6963.c ****       return u8x8_d_t6963_common(u8x8, msg, arg_int, arg_ptr);
 373:/Users/imashio/Electronics/ARM/_Library/u8x8_d_t6963.c ****   }
 374:/Users/imashio/Electronics/ARM/_Library/u8x8_d_t6963.c ****   return 1;
 375:/Users/imashio/Electronics/ARM/_Library/u8x8_d_t6963.c **** }
 362              		.loc 1 375 0
 363 0018 0120     		movs	r0, #1
 364 001a 70BD     		pop	{r4, r5, r6, pc}
 365              	.LVL44:
 366              	.L42:
 367 001c BDE87040 		pop	{r4, r5, r6, lr}
 368              	.LCFI8:
 369              		.cfi_remember_state
 370              		.cfi_restore 14
 371              		.cfi_restore 6
 372              		.cfi_restore 5
 373              		.cfi_restore 4
 374              		.cfi_def_cfa_offset 0
 372:/Users/imashio/Electronics/ARM/_Library/u8x8_d_t6963.c ****   }
 375              		.loc 1 372 0
 376 0020 FFF7FEBF 		b	u8x8_d_t6963_common
 377              	.LVL45:
 378              	.L37:
 379              	.LCFI9:
 380              		.cfi_restore_state
 365:/Users/imashio/Electronics/ARM/_Library/u8x8_d_t6963.c ****       break;
 381              		.loc 1 365 0
 382 0024 0349     		ldr	r1, .L43+4
 383              	.LVL46:
 384 0026 FFF7FEFF 		bl	u8x8_d_helper_display_setup_memory
 385              	.LVL47:
 386              		.loc 1 375 0
 387 002a 0120     		movs	r0, #1
 388 002c 70BD     		pop	{r4, r5, r6, pc}
 389              	.L44:
 390 002e 00BF     		.align	2
 391              	.L43:
 392 0030 00000000 		.word	.LANCHOR7
 393 0034 00000000 		.word	.LANCHOR6
 394              		.cfi_endproc
 395              	.LFE3:
 397              		.section	.text.u8x8_d_t6963_128x64,"ax",%progbits
 398              		.align	1
 399              		.p2align 2,,3
 400              		.global	u8x8_d_t6963_128x64
 401              		.syntax unified
 402              		.thumb
 403              		.thumb_func
 404              		.fpu fpv4-sp-d16
 406              	u8x8_d_t6963_128x64:
 407              	.LFB4:
 376:/Users/imashio/Electronics/ARM/_Library/u8x8_d_t6963.c **** 
 377:/Users/imashio/Electronics/ARM/_Library/u8x8_d_t6963.c **** 
 378:/Users/imashio/Electronics/ARM/_Library/u8x8_d_t6963.c **** /*=============================================*/
 379:/Users/imashio/Electronics/ARM/_Library/u8x8_d_t6963.c **** 
 380:/Users/imashio/Electronics/ARM/_Library/u8x8_d_t6963.c **** static const u8x8_display_info_t u8x8_t6963_128x64_display_info =
ARM GAS  /var/folders/v3/wysfpd052nz8jkbx04pk0ym80000gn/T//ccURiBND.s 			page 15


 381:/Users/imashio/Electronics/ARM/_Library/u8x8_d_t6963.c **** {
 382:/Users/imashio/Electronics/ARM/_Library/u8x8_d_t6963.c ****   /* chip_enable_level = */ 1,
 383:/Users/imashio/Electronics/ARM/_Library/u8x8_d_t6963.c ****   /* chip_disable_level = */ 0,
 384:/Users/imashio/Electronics/ARM/_Library/u8x8_d_t6963.c ****   
 385:/Users/imashio/Electronics/ARM/_Library/u8x8_d_t6963.c ****   /* post_chip_enable_wait_ns = */ 10,	/* T6963 Datasheet p30 */
 386:/Users/imashio/Electronics/ARM/_Library/u8x8_d_t6963.c ****   /* pre_chip_disable_wait_ns = */ 100,	/* T6963 Datasheet p30 */
 387:/Users/imashio/Electronics/ARM/_Library/u8x8_d_t6963.c ****   /* reset_pulse_width_ms = */ 1, 
 388:/Users/imashio/Electronics/ARM/_Library/u8x8_d_t6963.c ****   /* post_reset_wait_ms = */ 6, 
 389:/Users/imashio/Electronics/ARM/_Library/u8x8_d_t6963.c ****   /* sda_setup_time_ns = */ 20,		
 390:/Users/imashio/Electronics/ARM/_Library/u8x8_d_t6963.c ****   /* sck_pulse_width_ns = */  140,	
 391:/Users/imashio/Electronics/ARM/_Library/u8x8_d_t6963.c ****   /* sck_clock_hz = */ 1000000UL,	/* since Arduino 1.6.0, the SPI bus speed in Hz. Should be  10000
 392:/Users/imashio/Electronics/ARM/_Library/u8x8_d_t6963.c ****   /* spi_mode = */ 0,		
 393:/Users/imashio/Electronics/ARM/_Library/u8x8_d_t6963.c ****   /* i2c_bus_clock_100kHz = */ 4,
 394:/Users/imashio/Electronics/ARM/_Library/u8x8_d_t6963.c ****   /* data_setup_time_ns = */ 80,
 395:/Users/imashio/Electronics/ARM/_Library/u8x8_d_t6963.c ****   /* write_pulse_width_ns = */ 80,
 396:/Users/imashio/Electronics/ARM/_Library/u8x8_d_t6963.c ****   /* tile_width = */ 16,
 397:/Users/imashio/Electronics/ARM/_Library/u8x8_d_t6963.c ****   /* tile_hight = */ 8,
 398:/Users/imashio/Electronics/ARM/_Library/u8x8_d_t6963.c ****   /* default_x_offset = */ 0,
 399:/Users/imashio/Electronics/ARM/_Library/u8x8_d_t6963.c ****   /* flipmode_x_offset = */ 0,
 400:/Users/imashio/Electronics/ARM/_Library/u8x8_d_t6963.c ****   /* pixel_width = */ 128,
 401:/Users/imashio/Electronics/ARM/_Library/u8x8_d_t6963.c ****   /* pixel_height = */ 64
 402:/Users/imashio/Electronics/ARM/_Library/u8x8_d_t6963.c **** };
 403:/Users/imashio/Electronics/ARM/_Library/u8x8_d_t6963.c **** 
 404:/Users/imashio/Electronics/ARM/_Library/u8x8_d_t6963.c **** /* 128x64 */
 405:/Users/imashio/Electronics/ARM/_Library/u8x8_d_t6963.c **** static const uint8_t u8x8_d_t6963_128x64_init_seq[] = {
 406:/Users/imashio/Electronics/ARM/_Library/u8x8_d_t6963.c ****   U8X8_DLY(100),
 407:/Users/imashio/Electronics/ARM/_Library/u8x8_d_t6963.c ****   U8X8_START_TRANSFER(),             	/* enable chip, delay is part of the transfer start */
 408:/Users/imashio/Electronics/ARM/_Library/u8x8_d_t6963.c ****   U8X8_DLY(100),
 409:/Users/imashio/Electronics/ARM/_Library/u8x8_d_t6963.c ****   
 410:/Users/imashio/Electronics/ARM/_Library/u8x8_d_t6963.c ****   U8X8_AAC(0x00,0x00,0x021),	/* low, high, set cursor pos */
 411:/Users/imashio/Electronics/ARM/_Library/u8x8_d_t6963.c ****   U8X8_AAC(0x00,0x00,0x022),	/* low, high, set offset */
 412:/Users/imashio/Electronics/ARM/_Library/u8x8_d_t6963.c ****   U8X8_AAC(0x00,0x00,0x040),	/* low, high, set text home */
 413:/Users/imashio/Electronics/ARM/_Library/u8x8_d_t6963.c ****   U8X8_AAC(128/8,0x00,0x041),	/* low, high, set text columns */
 414:/Users/imashio/Electronics/ARM/_Library/u8x8_d_t6963.c ****   U8X8_AAC(0x00,0x00,0x042),	/* low, high, graphics home */  
 415:/Users/imashio/Electronics/ARM/_Library/u8x8_d_t6963.c ****   U8X8_AAC(128/8,0x00,0x043),	/* low, high, graphics columns */
 416:/Users/imashio/Electronics/ARM/_Library/u8x8_d_t6963.c ****   U8X8_DLY(2),					/* delay 2ms */
 417:/Users/imashio/Electronics/ARM/_Library/u8x8_d_t6963.c ****   // mode set
 418:/Users/imashio/Electronics/ARM/_Library/u8x8_d_t6963.c ****   // 0x080: Internal CG, OR Mode
 419:/Users/imashio/Electronics/ARM/_Library/u8x8_d_t6963.c ****   // 0x081: Internal CG, EXOR Mode
 420:/Users/imashio/Electronics/ARM/_Library/u8x8_d_t6963.c ****   // 0x083: Internal CG, AND Mode
 421:/Users/imashio/Electronics/ARM/_Library/u8x8_d_t6963.c ****   // 0x088: External CG, OR Mode
 422:/Users/imashio/Electronics/ARM/_Library/u8x8_d_t6963.c ****   // 0x089: External CG, EXOR Mode
 423:/Users/imashio/Electronics/ARM/_Library/u8x8_d_t6963.c ****   // 0x08B: External CG, AND Mode
 424:/Users/imashio/Electronics/ARM/_Library/u8x8_d_t6963.c ****   U8X8_C(0x080),            			/* mode register: OR Mode, Internal Character Mode */
 425:/Users/imashio/Electronics/ARM/_Library/u8x8_d_t6963.c ****   // display mode
 426:/Users/imashio/Electronics/ARM/_Library/u8x8_d_t6963.c ****   // 0x090: Display off
 427:/Users/imashio/Electronics/ARM/_Library/u8x8_d_t6963.c ****   // 0x094: Graphic off, text on, cursor off, blink off
 428:/Users/imashio/Electronics/ARM/_Library/u8x8_d_t6963.c ****   // 0x096: Graphic off, text on, cursor on, blink off
 429:/Users/imashio/Electronics/ARM/_Library/u8x8_d_t6963.c ****   // 0x097: Graphic off, text on, cursor on, blink on
 430:/Users/imashio/Electronics/ARM/_Library/u8x8_d_t6963.c ****   // 0x098: Graphic on, text off, cursor off, blink off
 431:/Users/imashio/Electronics/ARM/_Library/u8x8_d_t6963.c ****   // 0x09a: Graphic on, text off, cursor on, blink off
 432:/Users/imashio/Electronics/ARM/_Library/u8x8_d_t6963.c ****   // ...
 433:/Users/imashio/Electronics/ARM/_Library/u8x8_d_t6963.c ****   // 0x09c: Graphic on, text on, cursor off, blink off
 434:/Users/imashio/Electronics/ARM/_Library/u8x8_d_t6963.c ****   // 0x09f: Graphic on, text on, cursor on, blink on
 435:/Users/imashio/Electronics/ARM/_Library/u8x8_d_t6963.c ****   U8X8_C(0x090),                             /* All Off */
 436:/Users/imashio/Electronics/ARM/_Library/u8x8_d_t6963.c ****   U8X8_AAC(0x00,0x00,0x024),	/* low, high, set adr pointer */
 437:/Users/imashio/Electronics/ARM/_Library/u8x8_d_t6963.c ****   
ARM GAS  /var/folders/v3/wysfpd052nz8jkbx04pk0ym80000gn/T//ccURiBND.s 			page 16


 438:/Users/imashio/Electronics/ARM/_Library/u8x8_d_t6963.c ****   U8X8_DLY(100),
 439:/Users/imashio/Electronics/ARM/_Library/u8x8_d_t6963.c ****   U8X8_END_TRANSFER(),             	/* disable chip */
 440:/Users/imashio/Electronics/ARM/_Library/u8x8_d_t6963.c ****   U8X8_DLY(100),
 441:/Users/imashio/Electronics/ARM/_Library/u8x8_d_t6963.c **** };
 442:/Users/imashio/Electronics/ARM/_Library/u8x8_d_t6963.c **** 
 443:/Users/imashio/Electronics/ARM/_Library/u8x8_d_t6963.c **** uint8_t u8x8_d_t6963_128x64(u8x8_t *u8x8, uint8_t msg, uint8_t arg_int, void *arg_ptr)
 444:/Users/imashio/Electronics/ARM/_Library/u8x8_d_t6963.c **** {
 408              		.loc 1 444 0
 409              		.cfi_startproc
 410              		@ args = 0, pretend = 0, frame = 0
 411              		@ frame_needed = 0, uses_anonymous_args = 0
 412              	.LVL48:
 445:/Users/imashio/Electronics/ARM/_Library/u8x8_d_t6963.c ****   switch(msg)
 413              		.loc 1 445 0
 414 0000 0929     		cmp	r1, #9
 444:/Users/imashio/Electronics/ARM/_Library/u8x8_d_t6963.c ****   switch(msg)
 415              		.loc 1 444 0
 416 0002 70B5     		push	{r4, r5, r6, lr}
 417              	.LCFI10:
 418              		.cfi_def_cfa_offset 16
 419              		.cfi_offset 4, -16
 420              		.cfi_offset 5, -12
 421              		.cfi_offset 6, -8
 422              		.cfi_offset 14, -4
 423              		.loc 1 445 0
 424 0004 0ED0     		beq	.L47
 425 0006 0A29     		cmp	r1, #10
 426 0008 08D1     		bne	.L52
 427 000a 0546     		mov	r5, r0
 446:/Users/imashio/Electronics/ARM/_Library/u8x8_d_t6963.c ****   {
 447:/Users/imashio/Electronics/ARM/_Library/u8x8_d_t6963.c ****     case U8X8_MSG_DISPLAY_SETUP_MEMORY:
 448:/Users/imashio/Electronics/ARM/_Library/u8x8_d_t6963.c ****       u8x8_d_helper_display_setup_memory(u8x8, &u8x8_t6963_128x64_display_info);
 449:/Users/imashio/Electronics/ARM/_Library/u8x8_d_t6963.c ****       break;
 450:/Users/imashio/Electronics/ARM/_Library/u8x8_d_t6963.c ****     case U8X8_MSG_DISPLAY_INIT:
 451:/Users/imashio/Electronics/ARM/_Library/u8x8_d_t6963.c ****       u8x8_d_helper_display_init(u8x8);
 428              		.loc 1 451 0
 429 000c FFF7FEFF 		bl	u8x8_d_helper_display_init
 430              	.LVL49:
 452:/Users/imashio/Electronics/ARM/_Library/u8x8_d_t6963.c ****       u8x8_cad_SendSequence(u8x8, u8x8_d_t6963_128x64_init_seq);
 431              		.loc 1 452 0
 432 0010 2846     		mov	r0, r5
 433 0012 0749     		ldr	r1, .L53
 434 0014 FFF7FEFF 		bl	u8x8_cad_SendSequence
 435              	.LVL50:
 453:/Users/imashio/Electronics/ARM/_Library/u8x8_d_t6963.c ****       break;
 454:/Users/imashio/Electronics/ARM/_Library/u8x8_d_t6963.c ****     default:
 455:/Users/imashio/Electronics/ARM/_Library/u8x8_d_t6963.c ****       return u8x8_d_t6963_common(u8x8, msg, arg_int, arg_ptr);
 456:/Users/imashio/Electronics/ARM/_Library/u8x8_d_t6963.c ****   }
 457:/Users/imashio/Electronics/ARM/_Library/u8x8_d_t6963.c ****   return 1;
 458:/Users/imashio/Electronics/ARM/_Library/u8x8_d_t6963.c **** }
 436              		.loc 1 458 0
 437 0018 0120     		movs	r0, #1
 438 001a 70BD     		pop	{r4, r5, r6, pc}
 439              	.LVL51:
 440              	.L52:
 441 001c BDE87040 		pop	{r4, r5, r6, lr}
 442              	.LCFI11:
ARM GAS  /var/folders/v3/wysfpd052nz8jkbx04pk0ym80000gn/T//ccURiBND.s 			page 17


 443              		.cfi_remember_state
 444              		.cfi_restore 14
 445              		.cfi_restore 6
 446              		.cfi_restore 5
 447              		.cfi_restore 4
 448              		.cfi_def_cfa_offset 0
 455:/Users/imashio/Electronics/ARM/_Library/u8x8_d_t6963.c ****   }
 449              		.loc 1 455 0
 450 0020 FFF7FEBF 		b	u8x8_d_t6963_common
 451              	.LVL52:
 452              	.L47:
 453              	.LCFI12:
 454              		.cfi_restore_state
 448:/Users/imashio/Electronics/ARM/_Library/u8x8_d_t6963.c ****       break;
 455              		.loc 1 448 0
 456 0024 0349     		ldr	r1, .L53+4
 457              	.LVL53:
 458 0026 FFF7FEFF 		bl	u8x8_d_helper_display_setup_memory
 459              	.LVL54:
 460              		.loc 1 458 0
 461 002a 0120     		movs	r0, #1
 462 002c 70BD     		pop	{r4, r5, r6, pc}
 463              	.L54:
 464 002e 00BF     		.align	2
 465              	.L53:
 466 0030 00000000 		.word	.LANCHOR9
 467 0034 00000000 		.word	.LANCHOR8
 468              		.cfi_endproc
 469              	.LFE4:
 471              		.section	.rodata.u8x8_d_t6963_128x64_init_seq,"a",%progbits
 472              		.align	2
 473              		.set	.LANCHOR9,. + 0
 476              	u8x8_d_t6963_128x64_init_seq:
 477 0000 FE       		.byte	-2
 478 0001 64       		.byte	100
 479 0002 18       		.byte	24
 480 0003 FE       		.byte	-2
 481 0004 64       		.byte	100
 482 0005 16       		.byte	22
 483 0006 00       		.byte	0
 484 0007 16       		.byte	22
 485 0008 00       		.byte	0
 486 0009 15       		.byte	21
 487 000a 21       		.byte	33
 488 000b 16       		.byte	22
 489 000c 00       		.byte	0
 490 000d 16       		.byte	22
 491 000e 00       		.byte	0
 492 000f 15       		.byte	21
 493 0010 22       		.byte	34
 494 0011 16       		.byte	22
 495 0012 00       		.byte	0
 496 0013 16       		.byte	22
 497 0014 00       		.byte	0
 498 0015 15       		.byte	21
 499 0016 40       		.byte	64
 500 0017 16       		.byte	22
ARM GAS  /var/folders/v3/wysfpd052nz8jkbx04pk0ym80000gn/T//ccURiBND.s 			page 18


 501 0018 10       		.byte	16
 502 0019 16       		.byte	22
 503 001a 00       		.byte	0
 504 001b 15       		.byte	21
 505 001c 41       		.byte	65
 506 001d 16       		.byte	22
 507 001e 00       		.byte	0
 508 001f 16       		.byte	22
 509 0020 00       		.byte	0
 510 0021 15       		.byte	21
 511 0022 42       		.byte	66
 512 0023 16       		.byte	22
 513 0024 10       		.byte	16
 514 0025 16       		.byte	22
 515 0026 00       		.byte	0
 516 0027 15       		.byte	21
 517 0028 43       		.byte	67
 518 0029 FE       		.byte	-2
 519 002a 02       		.byte	2
 520 002b 15       		.byte	21
 521 002c 80       		.byte	-128
 522 002d 15       		.byte	21
 523 002e 90       		.byte	-112
 524 002f 16       		.byte	22
 525 0030 00       		.byte	0
 526 0031 16       		.byte	22
 527 0032 00       		.byte	0
 528 0033 15       		.byte	21
 529 0034 24       		.byte	36
 530 0035 FE       		.byte	-2
 531 0036 64       		.byte	100
 532 0037 19       		.byte	25
 533 0038 FE       		.byte	-2
 534 0039 64       		.byte	100
 535              		.section	.rodata.u8x8_d_t6963_240x128_init_seq,"a",%progbits
 536              		.align	2
 537              		.set	.LANCHOR3,. + 0
 540              	u8x8_d_t6963_240x128_init_seq:
 541 0000 FE       		.byte	-2
 542 0001 64       		.byte	100
 543 0002 18       		.byte	24
 544 0003 FE       		.byte	-2
 545 0004 64       		.byte	100
 546 0005 16       		.byte	22
 547 0006 00       		.byte	0
 548 0007 16       		.byte	22
 549 0008 00       		.byte	0
 550 0009 15       		.byte	21
 551 000a 21       		.byte	33
 552 000b 16       		.byte	22
 553 000c 00       		.byte	0
 554 000d 16       		.byte	22
 555 000e 00       		.byte	0
 556 000f 15       		.byte	21
 557 0010 22       		.byte	34
 558 0011 16       		.byte	22
 559 0012 00       		.byte	0
ARM GAS  /var/folders/v3/wysfpd052nz8jkbx04pk0ym80000gn/T//ccURiBND.s 			page 19


 560 0013 16       		.byte	22
 561 0014 00       		.byte	0
 562 0015 15       		.byte	21
 563 0016 40       		.byte	64
 564 0017 16       		.byte	22
 565 0018 1E       		.byte	30
 566 0019 16       		.byte	22
 567 001a 00       		.byte	0
 568 001b 15       		.byte	21
 569 001c 41       		.byte	65
 570 001d 16       		.byte	22
 571 001e 00       		.byte	0
 572 001f 16       		.byte	22
 573 0020 00       		.byte	0
 574 0021 15       		.byte	21
 575 0022 42       		.byte	66
 576 0023 16       		.byte	22
 577 0024 1E       		.byte	30
 578 0025 16       		.byte	22
 579 0026 00       		.byte	0
 580 0027 15       		.byte	21
 581 0028 43       		.byte	67
 582 0029 FE       		.byte	-2
 583 002a 02       		.byte	2
 584 002b 15       		.byte	21
 585 002c 80       		.byte	-128
 586 002d 15       		.byte	21
 587 002e 90       		.byte	-112
 588 002f 16       		.byte	22
 589 0030 00       		.byte	0
 590 0031 16       		.byte	22
 591 0032 00       		.byte	0
 592 0033 15       		.byte	21
 593 0034 24       		.byte	36
 594 0035 FE       		.byte	-2
 595 0036 64       		.byte	100
 596 0037 19       		.byte	25
 597 0038 FE       		.byte	-2
 598 0039 64       		.byte	100
 599              		.section	.rodata.u8x8_d_t6963_240x64_init_seq,"a",%progbits
 600              		.align	2
 601              		.set	.LANCHOR5,. + 0
 604              	u8x8_d_t6963_240x64_init_seq:
 605 0000 FE       		.byte	-2
 606 0001 64       		.byte	100
 607 0002 18       		.byte	24
 608 0003 FE       		.byte	-2
 609 0004 64       		.byte	100
 610 0005 16       		.byte	22
 611 0006 00       		.byte	0
 612 0007 16       		.byte	22
 613 0008 00       		.byte	0
 614 0009 15       		.byte	21
 615 000a 21       		.byte	33
 616 000b 16       		.byte	22
 617 000c 00       		.byte	0
 618 000d 16       		.byte	22
ARM GAS  /var/folders/v3/wysfpd052nz8jkbx04pk0ym80000gn/T//ccURiBND.s 			page 20


 619 000e 00       		.byte	0
 620 000f 15       		.byte	21
 621 0010 22       		.byte	34
 622 0011 16       		.byte	22
 623 0012 00       		.byte	0
 624 0013 16       		.byte	22
 625 0014 00       		.byte	0
 626 0015 15       		.byte	21
 627 0016 40       		.byte	64
 628 0017 16       		.byte	22
 629 0018 1E       		.byte	30
 630 0019 16       		.byte	22
 631 001a 00       		.byte	0
 632 001b 15       		.byte	21
 633 001c 41       		.byte	65
 634 001d 16       		.byte	22
 635 001e 00       		.byte	0
 636 001f 16       		.byte	22
 637 0020 00       		.byte	0
 638 0021 15       		.byte	21
 639 0022 42       		.byte	66
 640 0023 16       		.byte	22
 641 0024 1E       		.byte	30
 642 0025 16       		.byte	22
 643 0026 00       		.byte	0
 644 0027 15       		.byte	21
 645 0028 43       		.byte	67
 646 0029 FE       		.byte	-2
 647 002a 02       		.byte	2
 648 002b 15       		.byte	21
 649 002c 80       		.byte	-128
 650 002d 15       		.byte	21
 651 002e 90       		.byte	-112
 652 002f 16       		.byte	22
 653 0030 00       		.byte	0
 654 0031 16       		.byte	22
 655 0032 00       		.byte	0
 656 0033 15       		.byte	21
 657 0034 24       		.byte	36
 658 0035 FE       		.byte	-2
 659 0036 64       		.byte	100
 660 0037 19       		.byte	25
 661 0038 FE       		.byte	-2
 662 0039 64       		.byte	100
 663              		.section	.rodata.u8x8_d_t6963_256x64_init_seq,"a",%progbits
 664              		.align	2
 665              		.set	.LANCHOR7,. + 0
 668              	u8x8_d_t6963_256x64_init_seq:
 669 0000 FE       		.byte	-2
 670 0001 64       		.byte	100
 671 0002 18       		.byte	24
 672 0003 FE       		.byte	-2
 673 0004 64       		.byte	100
 674 0005 16       		.byte	22
 675 0006 00       		.byte	0
 676 0007 16       		.byte	22
 677 0008 00       		.byte	0
ARM GAS  /var/folders/v3/wysfpd052nz8jkbx04pk0ym80000gn/T//ccURiBND.s 			page 21


 678 0009 15       		.byte	21
 679 000a 21       		.byte	33
 680 000b 16       		.byte	22
 681 000c 00       		.byte	0
 682 000d 16       		.byte	22
 683 000e 00       		.byte	0
 684 000f 15       		.byte	21
 685 0010 22       		.byte	34
 686 0011 16       		.byte	22
 687 0012 00       		.byte	0
 688 0013 16       		.byte	22
 689 0014 00       		.byte	0
 690 0015 15       		.byte	21
 691 0016 40       		.byte	64
 692 0017 16       		.byte	22
 693 0018 20       		.byte	32
 694 0019 16       		.byte	22
 695 001a 00       		.byte	0
 696 001b 15       		.byte	21
 697 001c 41       		.byte	65
 698 001d 16       		.byte	22
 699 001e 00       		.byte	0
 700 001f 16       		.byte	22
 701 0020 00       		.byte	0
 702 0021 15       		.byte	21
 703 0022 42       		.byte	66
 704 0023 16       		.byte	22
 705 0024 20       		.byte	32
 706 0025 16       		.byte	22
 707 0026 00       		.byte	0
 708 0027 15       		.byte	21
 709 0028 43       		.byte	67
 710 0029 FE       		.byte	-2
 711 002a 02       		.byte	2
 712 002b 15       		.byte	21
 713 002c 80       		.byte	-128
 714 002d 15       		.byte	21
 715 002e 90       		.byte	-112
 716 002f 16       		.byte	22
 717 0030 00       		.byte	0
 718 0031 16       		.byte	22
 719 0032 00       		.byte	0
 720 0033 15       		.byte	21
 721 0034 24       		.byte	36
 722 0035 FE       		.byte	-2
 723 0036 64       		.byte	100
 724 0037 19       		.byte	25
 725 0038 FE       		.byte	-2
 726 0039 64       		.byte	100
 727              		.section	.rodata.u8x8_d_t6963_powersave0_seq,"a",%progbits
 728              		.align	2
 729              		.set	.LANCHOR0,. + 0
 732              	u8x8_d_t6963_powersave0_seq:
 733 0000 18       		.byte	24
 734 0001 15       		.byte	21
 735 0002 98       		.byte	-104
 736 0003 19       		.byte	25
ARM GAS  /var/folders/v3/wysfpd052nz8jkbx04pk0ym80000gn/T//ccURiBND.s 			page 22


 737 0004 FF       		.byte	-1
 738              		.section	.rodata.u8x8_d_t6963_powersave1_seq,"a",%progbits
 739              		.align	2
 740              		.set	.LANCHOR1,. + 0
 743              	u8x8_d_t6963_powersave1_seq:
 744 0000 18       		.byte	24
 745 0001 15       		.byte	21
 746 0002 90       		.byte	-112
 747 0003 19       		.byte	25
 748 0004 FF       		.byte	-1
 749              		.section	.rodata.u8x8_t6963_128x64_display_info,"a",%progbits
 750              		.align	2
 751              		.set	.LANCHOR8,. + 0
 754              	u8x8_t6963_128x64_display_info:
 755 0000 01       		.byte	1
 756 0001 00       		.byte	0
 757 0002 0A       		.byte	10
 758 0003 64       		.byte	100
 759 0004 01       		.byte	1
 760 0005 06       		.byte	6
 761 0006 14       		.byte	20
 762 0007 8C       		.byte	-116
 763 0008 40420F00 		.word	1000000
 764 000c 00       		.byte	0
 765 000d 04       		.byte	4
 766 000e 50       		.byte	80
 767 000f 50       		.byte	80
 768 0010 10       		.byte	16
 769 0011 08       		.byte	8
 770 0012 00       		.byte	0
 771 0013 00       		.byte	0
 772 0014 8000     		.short	128
 773 0016 4000     		.short	64
 774              		.section	.rodata.u8x8_t6963_240x128_display_info,"a",%progbits
 775              		.align	2
 776              		.set	.LANCHOR2,. + 0
 779              	u8x8_t6963_240x128_display_info:
 780 0000 00       		.byte	0
 781 0001 01       		.byte	1
 782 0002 6E       		.byte	110
 783 0003 64       		.byte	100
 784 0004 01       		.byte	1
 785 0005 06       		.byte	6
 786 0006 14       		.byte	20
 787 0007 8C       		.byte	-116
 788 0008 40420F00 		.word	1000000
 789 000c 00       		.byte	0
 790 000d 04       		.byte	4
 791 000e 50       		.byte	80
 792 000f 50       		.byte	80
 793 0010 1E       		.byte	30
 794 0011 10       		.byte	16
 795 0012 00       		.byte	0
 796 0013 00       		.byte	0
 797 0014 F000     		.short	240
 798 0016 8000     		.short	128
 799              		.section	.rodata.u8x8_t6963_240x64_display_info,"a",%progbits
ARM GAS  /var/folders/v3/wysfpd052nz8jkbx04pk0ym80000gn/T//ccURiBND.s 			page 23


 800              		.align	2
 801              		.set	.LANCHOR4,. + 0
 804              	u8x8_t6963_240x64_display_info:
 805 0000 00       		.byte	0
 806 0001 01       		.byte	1
 807 0002 6E       		.byte	110
 808 0003 64       		.byte	100
 809 0004 01       		.byte	1
 810 0005 06       		.byte	6
 811 0006 14       		.byte	20
 812 0007 8C       		.byte	-116
 813 0008 40420F00 		.word	1000000
 814 000c 00       		.byte	0
 815 000d 04       		.byte	4
 816 000e 50       		.byte	80
 817 000f 50       		.byte	80
 818 0010 1E       		.byte	30
 819 0011 08       		.byte	8
 820 0012 00       		.byte	0
 821 0013 00       		.byte	0
 822 0014 F000     		.short	240
 823 0016 4000     		.short	64
 824              		.section	.rodata.u8x8_t6963_256x64_display_info,"a",%progbits
 825              		.align	2
 826              		.set	.LANCHOR6,. + 0
 829              	u8x8_t6963_256x64_display_info:
 830 0000 00       		.byte	0
 831 0001 01       		.byte	1
 832 0002 6E       		.byte	110
 833 0003 64       		.byte	100
 834 0004 01       		.byte	1
 835 0005 06       		.byte	6
 836 0006 14       		.byte	20
 837 0007 8C       		.byte	-116
 838 0008 40420F00 		.word	1000000
 839 000c 00       		.byte	0
 840 000d 04       		.byte	4
 841 000e 50       		.byte	80
 842 000f 50       		.byte	80
 843 0010 20       		.byte	32
 844 0011 08       		.byte	8
 845 0012 00       		.byte	0
 846 0013 00       		.byte	0
 847 0014 0001     		.short	256
 848 0016 4000     		.short	64
 849              		.text
 850              	.Letext0:
 851              		.file 2 "/usr/local/gcc-arm-none-eabi-7-2018-q2-update/arm-none-eabi/include/machine/_default_type
 852              		.file 3 "/usr/local/gcc-arm-none-eabi-7-2018-q2-update/arm-none-eabi/include/sys/_stdint.h"
 853              		.file 4 "/Users/imashio/Electronics/ARM/_Library/u8x8.h"
ARM GAS  /var/folders/v3/wysfpd052nz8jkbx04pk0ym80000gn/T//ccURiBND.s 			page 24

