ARM GAS  /var/folders/v3/wysfpd052nz8jkbx04pk0ym80000gn/T//cc9qYHin.s 			page 1


   1              		.cpu cortex-m4
   2              		.eabi_attribute 27, 1
   3              		.eabi_attribute 28, 1
   4              		.eabi_attribute 20, 1
   5              		.eabi_attribute 21, 1
   6              		.eabi_attribute 23, 3
   7              		.eabi_attribute 24, 1
   8              		.eabi_attribute 25, 1
   9              		.eabi_attribute 26, 1
  10              		.eabi_attribute 30, 2
  11              		.eabi_attribute 34, 1
  12              		.eabi_attribute 18, 4
  13              		.file	"u8x8_d_uc1638.c"
  14              		.text
  15              	.Ltext0:
  16              		.cfi_sections	.debug_frame
  17              		.section	.text.u8x8_d_uc1638_common,"ax",%progbits
  18              		.align	1
  19              		.p2align 2,,3
  20              		.global	u8x8_d_uc1638_common
  21              		.syntax unified
  22              		.thumb
  23              		.thumb_func
  24              		.fpu fpv4-sp-d16
  26              	u8x8_d_uc1638_common:
  27              	.LFB0:
  28              		.file 1 "/Users/imashio/Electronics/ARM/_Library/u8x8_d_uc1638.c"
   1:/Users/imashio/Electronics/ARM/_Library/u8x8_d_uc1638.c **** /*
   2:/Users/imashio/Electronics/ARM/_Library/u8x8_d_uc1638.c **** 
   3:/Users/imashio/Electronics/ARM/_Library/u8x8_d_uc1638.c ****   u8x8_d_uc1638.c
   4:/Users/imashio/Electronics/ARM/_Library/u8x8_d_uc1638.c ****   
   5:/Users/imashio/Electronics/ARM/_Library/u8x8_d_uc1638.c ****   Universal 8bit Graphics Library (https://github.com/olikraus/u8g2/)
   6:/Users/imashio/Electronics/ARM/_Library/u8x8_d_uc1638.c **** 
   7:/Users/imashio/Electronics/ARM/_Library/u8x8_d_uc1638.c ****   Copyright (c) 2016, olikraus@gmail.com
   8:/Users/imashio/Electronics/ARM/_Library/u8x8_d_uc1638.c ****   All rights reserved.
   9:/Users/imashio/Electronics/ARM/_Library/u8x8_d_uc1638.c **** 
  10:/Users/imashio/Electronics/ARM/_Library/u8x8_d_uc1638.c ****   Redistribution and use in source and binary forms, with or without modification, 
  11:/Users/imashio/Electronics/ARM/_Library/u8x8_d_uc1638.c ****   are permitted provided that the following conditions are met:
  12:/Users/imashio/Electronics/ARM/_Library/u8x8_d_uc1638.c **** 
  13:/Users/imashio/Electronics/ARM/_Library/u8x8_d_uc1638.c ****   * Redistributions of source code must retain the above copyright notice, this list 
  14:/Users/imashio/Electronics/ARM/_Library/u8x8_d_uc1638.c ****     of conditions and the following disclaimer.
  15:/Users/imashio/Electronics/ARM/_Library/u8x8_d_uc1638.c ****     
  16:/Users/imashio/Electronics/ARM/_Library/u8x8_d_uc1638.c ****   * Redistributions in binary form must reproduce the above copyright notice, this 
  17:/Users/imashio/Electronics/ARM/_Library/u8x8_d_uc1638.c ****     list of conditions and the following disclaimer in the documentation and/or other 
  18:/Users/imashio/Electronics/ARM/_Library/u8x8_d_uc1638.c ****     materials provided with the distribution.
  19:/Users/imashio/Electronics/ARM/_Library/u8x8_d_uc1638.c **** 
  20:/Users/imashio/Electronics/ARM/_Library/u8x8_d_uc1638.c ****   THIS SOFTWARE IS PROVIDED BY THE COPYRIGHT HOLDERS AND 
  21:/Users/imashio/Electronics/ARM/_Library/u8x8_d_uc1638.c ****   CONTRIBUTORS "AS IS" AND ANY EXPRESS OR IMPLIED WARRANTIES, 
  22:/Users/imashio/Electronics/ARM/_Library/u8x8_d_uc1638.c ****   INCLUDING, BUT NOT LIMITED TO, THE IMPLIED WARRANTIES OF 
  23:/Users/imashio/Electronics/ARM/_Library/u8x8_d_uc1638.c ****   MERCHANTABILITY AND FITNESS FOR A PARTICULAR PURPOSE ARE 
  24:/Users/imashio/Electronics/ARM/_Library/u8x8_d_uc1638.c ****   DISCLAIMED. IN NO EVENT SHALL THE COPYRIGHT HOLDER OR 
  25:/Users/imashio/Electronics/ARM/_Library/u8x8_d_uc1638.c ****   CONTRIBUTORS BE LIABLE FOR ANY DIRECT, INDIRECT, INCIDENTAL, 
  26:/Users/imashio/Electronics/ARM/_Library/u8x8_d_uc1638.c ****   SPECIAL, EXEMPLARY, OR CONSEQUENTIAL DAMAGES (INCLUDING, BUT 
  27:/Users/imashio/Electronics/ARM/_Library/u8x8_d_uc1638.c ****   NOT LIMITED TO, PROCUREMENT OF SUBSTITUTE GOODS OR SERVICES; 
  28:/Users/imashio/Electronics/ARM/_Library/u8x8_d_uc1638.c ****   LOSS OF USE, DATA, OR PROFITS; OR BUSINESS INTERRUPTION) HOWEVER 
  29:/Users/imashio/Electronics/ARM/_Library/u8x8_d_uc1638.c ****   CAUSED AND ON ANY THEORY OF LIABILITY, WHETHER IN CONTRACT, 
  30:/Users/imashio/Electronics/ARM/_Library/u8x8_d_uc1638.c ****   STRICT LIABILITY, OR TORT (INCLUDING NEGLIGENCE OR OTHERWISE) 
ARM GAS  /var/folders/v3/wysfpd052nz8jkbx04pk0ym80000gn/T//cc9qYHin.s 			page 2


  31:/Users/imashio/Electronics/ARM/_Library/u8x8_d_uc1638.c ****   ARISING IN ANY WAY OUT OF THE USE OF THIS SOFTWARE, EVEN IF 
  32:/Users/imashio/Electronics/ARM/_Library/u8x8_d_uc1638.c ****   ADVISED OF THE POSSIBILITY OF SUCH DAMAGE.  
  33:/Users/imashio/Electronics/ARM/_Library/u8x8_d_uc1638.c **** 
  34:/Users/imashio/Electronics/ARM/_Library/u8x8_d_uc1638.c **** 
  35:/Users/imashio/Electronics/ARM/_Library/u8x8_d_uc1638.c ****   
  36:/Users/imashio/Electronics/ARM/_Library/u8x8_d_uc1638.c **** */
  37:/Users/imashio/Electronics/ARM/_Library/u8x8_d_uc1638.c **** #include "u8x8.h"
  38:/Users/imashio/Electronics/ARM/_Library/u8x8_d_uc1638.c **** 
  39:/Users/imashio/Electronics/ARM/_Library/u8x8_d_uc1638.c **** 
  40:/Users/imashio/Electronics/ARM/_Library/u8x8_d_uc1638.c **** 
  41:/Users/imashio/Electronics/ARM/_Library/u8x8_d_uc1638.c **** 
  42:/Users/imashio/Electronics/ARM/_Library/u8x8_d_uc1638.c **** 
  43:/Users/imashio/Electronics/ARM/_Library/u8x8_d_uc1638.c **** static const uint8_t u8x8_d_uc1638_powersave0_seq[] = {
  44:/Users/imashio/Electronics/ARM/_Library/u8x8_d_uc1638.c ****   U8X8_START_TRANSFER(),             	/* enable chip, delay is part of the transfer start */
  45:/Users/imashio/Electronics/ARM/_Library/u8x8_d_uc1638.c ****   U8X8_CA(0x0c9, 0x0ad),		                /* display on */   /* UC1638 B/W mode */
  46:/Users/imashio/Electronics/ARM/_Library/u8x8_d_uc1638.c ****   U8X8_END_TRANSFER(),             	/* disable chip */
  47:/Users/imashio/Electronics/ARM/_Library/u8x8_d_uc1638.c ****   U8X8_END()             			/* end of sequence */
  48:/Users/imashio/Electronics/ARM/_Library/u8x8_d_uc1638.c **** };
  49:/Users/imashio/Electronics/ARM/_Library/u8x8_d_uc1638.c **** 
  50:/Users/imashio/Electronics/ARM/_Library/u8x8_d_uc1638.c **** static const uint8_t u8x8_d_uc1638_powersave1_seq[] = {
  51:/Users/imashio/Electronics/ARM/_Library/u8x8_d_uc1638.c ****   U8X8_START_TRANSFER(),             	/* enable chip, delay is part of the transfer start */
  52:/Users/imashio/Electronics/ARM/_Library/u8x8_d_uc1638.c ****   U8X8_CA(0x0c9, 0x0ac),		                /* display off */   /* UC1638 */
  53:/Users/imashio/Electronics/ARM/_Library/u8x8_d_uc1638.c ****   U8X8_END_TRANSFER(),             	/* disable chip */
  54:/Users/imashio/Electronics/ARM/_Library/u8x8_d_uc1638.c ****   U8X8_END()             			/* end of sequence */
  55:/Users/imashio/Electronics/ARM/_Library/u8x8_d_uc1638.c **** };
  56:/Users/imashio/Electronics/ARM/_Library/u8x8_d_uc1638.c **** 
  57:/Users/imashio/Electronics/ARM/_Library/u8x8_d_uc1638.c **** static const uint8_t u8x8_d_uc1638_flip0_seq[] = {
  58:/Users/imashio/Electronics/ARM/_Library/u8x8_d_uc1638.c ****   U8X8_START_TRANSFER(),             	/* enable chip, delay is part of the transfer start */
  59:/Users/imashio/Electronics/ARM/_Library/u8x8_d_uc1638.c ****   U8X8_C(0x0c4),            	/* LCD Mapping */    /* UC1638*/
  60:/Users/imashio/Electronics/ARM/_Library/u8x8_d_uc1638.c ****   U8X8_END_TRANSFER(),             	/* disable chip */
  61:/Users/imashio/Electronics/ARM/_Library/u8x8_d_uc1638.c ****   U8X8_END()             			/* end of sequence */
  62:/Users/imashio/Electronics/ARM/_Library/u8x8_d_uc1638.c **** };
  63:/Users/imashio/Electronics/ARM/_Library/u8x8_d_uc1638.c **** 
  64:/Users/imashio/Electronics/ARM/_Library/u8x8_d_uc1638.c **** static const uint8_t u8x8_d_uc1638_flip1_seq[] = {
  65:/Users/imashio/Electronics/ARM/_Library/u8x8_d_uc1638.c ****   U8X8_START_TRANSFER(),             	/* enable chip, delay is part of the transfer start */
  66:/Users/imashio/Electronics/ARM/_Library/u8x8_d_uc1638.c ****   U8X8_C(0x0c2),            	/* LCD Mapping */    /* UC1638*/
  67:/Users/imashio/Electronics/ARM/_Library/u8x8_d_uc1638.c ****   U8X8_END_TRANSFER(),             	/* disable chip */
  68:/Users/imashio/Electronics/ARM/_Library/u8x8_d_uc1638.c ****   U8X8_END()             			/* end of sequence */
  69:/Users/imashio/Electronics/ARM/_Library/u8x8_d_uc1638.c **** };
  70:/Users/imashio/Electronics/ARM/_Library/u8x8_d_uc1638.c **** 
  71:/Users/imashio/Electronics/ARM/_Library/u8x8_d_uc1638.c **** 
  72:/Users/imashio/Electronics/ARM/_Library/u8x8_d_uc1638.c **** uint8_t u8x8_d_uc1638_common(u8x8_t *u8x8, uint8_t msg, uint8_t arg_int, void *arg_ptr)
  73:/Users/imashio/Electronics/ARM/_Library/u8x8_d_uc1638.c **** {
  29              		.loc 1 73 0
  30              		.cfi_startproc
  31              		@ args = 0, pretend = 0, frame = 0
  32              		@ frame_needed = 0, uses_anonymous_args = 0
  33              	.LVL0:
  74:/Users/imashio/Electronics/ARM/_Library/u8x8_d_uc1638.c ****   uint8_t x, y, c;
  75:/Users/imashio/Electronics/ARM/_Library/u8x8_d_uc1638.c ****   uint8_t *ptr;
  76:/Users/imashio/Electronics/ARM/_Library/u8x8_d_uc1638.c ****   switch(msg)
  34              		.loc 1 76 0
  35 0000 0B39     		subs	r1, r1, #11
  36              	.LVL1:
  73:/Users/imashio/Electronics/ARM/_Library/u8x8_d_uc1638.c ****   uint8_t x, y, c;
  37              		.loc 1 73 0
  38 0002 F8B5     		push	{r3, r4, r5, r6, r7, lr}
ARM GAS  /var/folders/v3/wysfpd052nz8jkbx04pk0ym80000gn/T//cc9qYHin.s 			page 3


  39              	.LCFI0:
  40              		.cfi_def_cfa_offset 24
  41              		.cfi_offset 3, -24
  42              		.cfi_offset 4, -20
  43              		.cfi_offset 5, -16
  44              		.cfi_offset 6, -12
  45              		.cfi_offset 7, -8
  46              		.cfi_offset 14, -4
  73:/Users/imashio/Electronics/ARM/_Library/u8x8_d_uc1638.c ****   uint8_t x, y, c;
  47              		.loc 1 73 0
  48 0004 0546     		mov	r5, r0
  49 0006 1446     		mov	r4, r2
  50 0008 1F46     		mov	r7, r3
  51              		.loc 1 76 0
  52 000a 0429     		cmp	r1, #4
  53 000c 58D8     		bhi	.L11
  54 000e DFE801F0 		tbb	[pc, r1]
  55              	.LVL2:
  56              	.L4:
  57 0012 48       		.byte	(.L3-.L4)/2
  58 0013 57       		.byte	(.L11-.L4)/2
  59 0014 4E       		.byte	(.L5-.L4)/2
  60 0015 39       		.byte	(.L6-.L4)/2
  61 0016 03       		.byte	(.L7-.L4)/2
  62 0017 00       		.p2align 1
  63              	.L7:
  77:/Users/imashio/Electronics/ARM/_Library/u8x8_d_uc1638.c ****   {
  78:/Users/imashio/Electronics/ARM/_Library/u8x8_d_uc1638.c ****     case U8X8_MSG_DISPLAY_DRAW_TILE:
  79:/Users/imashio/Electronics/ARM/_Library/u8x8_d_uc1638.c ****       u8x8_cad_StartTransfer(u8x8);
  64              		.loc 1 79 0
  65 0018 FFF7FEFF 		bl	u8x8_cad_StartTransfer
  66              	.LVL3:
  80:/Users/imashio/Electronics/ARM/_Library/u8x8_d_uc1638.c ****     
  81:/Users/imashio/Electronics/ARM/_Library/u8x8_d_uc1638.c ****       x = ((u8x8_tile_t *)arg_ptr)->x_pos;
  67              		.loc 1 81 0
  68 001c 7E79     		ldrb	r6, [r7, #5]	@ zero_extendqisi2
  69              	.LVL4:
  82:/Users/imashio/Electronics/ARM/_Library/u8x8_d_uc1638.c ****       x *= 8;
  83:/Users/imashio/Electronics/ARM/_Library/u8x8_d_uc1638.c **** 
  84:/Users/imashio/Electronics/ARM/_Library/u8x8_d_uc1638.c ****       u8x8_cad_SendCmd(u8x8, 0x004);  /* UC1638 */
  70              		.loc 1 84 0
  71 001e 0421     		movs	r1, #4
  72 0020 2846     		mov	r0, r5
  73 0022 FFF7FEFF 		bl	u8x8_cad_SendCmd
  74              	.LVL5:
  82:/Users/imashio/Electronics/ARM/_Library/u8x8_d_uc1638.c ****       x *= 8;
  75              		.loc 1 82 0
  76 0026 F100     		lsls	r1, r6, #3
  85:/Users/imashio/Electronics/ARM/_Library/u8x8_d_uc1638.c ****       u8x8_cad_SendArg(u8x8, x);
  77              		.loc 1 85 0
  78 0028 01F0F801 		and	r1, r1, #248
  79 002c 2846     		mov	r0, r5
  80 002e FFF7FEFF 		bl	u8x8_cad_SendArg
  81              	.LVL6:
  86:/Users/imashio/Electronics/ARM/_Library/u8x8_d_uc1638.c ****     
  87:/Users/imashio/Electronics/ARM/_Library/u8x8_d_uc1638.c ****       y = ((u8x8_tile_t *)arg_ptr)->y_pos;
  88:/Users/imashio/Electronics/ARM/_Library/u8x8_d_uc1638.c ****       y += u8x8->x_offset;
ARM GAS  /var/folders/v3/wysfpd052nz8jkbx04pk0ym80000gn/T//cc9qYHin.s 			page 4


  82              		.loc 1 88 0
  83 0032 AB7F     		ldrb	r3, [r5, #30]	@ zero_extendqisi2
  87:/Users/imashio/Electronics/ARM/_Library/u8x8_d_uc1638.c ****       y += u8x8->x_offset;
  84              		.loc 1 87 0
  85 0034 BE79     		ldrb	r6, [r7, #6]	@ zero_extendqisi2
  86              	.LVL7:
  87              		.loc 1 88 0
  88 0036 1E44     		add	r6, r6, r3
  89              	.LVL8:
  89:/Users/imashio/Electronics/ARM/_Library/u8x8_d_uc1638.c ****       y *= 2;		/* for B/W mode, use only every second page */
  90              		.loc 1 89 0
  91 0038 7600     		lsls	r6, r6, #1
  92              	.LVL9:
  93 003a 06F0FE06 		and	r6, r6, #254
  94              	.LVL10:
  90:/Users/imashio/Electronics/ARM/_Library/u8x8_d_uc1638.c **** 
  91:/Users/imashio/Electronics/ARM/_Library/u8x8_d_uc1638.c ****       u8x8_cad_SendCmd(u8x8, 0x060 | (y&15));  /* UC1638 */
  95              		.loc 1 91 0
  96 003e 06F00F01 		and	r1, r6, #15
  97 0042 41F06001 		orr	r1, r1, #96
  98 0046 2846     		mov	r0, r5
  99 0048 FFF7FEFF 		bl	u8x8_cad_SendCmd
 100              	.LVL11:
  92:/Users/imashio/Electronics/ARM/_Library/u8x8_d_uc1638.c ****       u8x8_cad_SendCmd(u8x8, 0x070 | (y>>4));  /* UC1638 */
 101              		.loc 1 92 0
 102 004c 3109     		lsrs	r1, r6, #4
 103 004e 41F07001 		orr	r1, r1, #112
 104 0052 2846     		mov	r0, r5
 105 0054 FFF7FEFF 		bl	u8x8_cad_SendCmd
 106              	.LVL12:
  93:/Users/imashio/Electronics/ARM/_Library/u8x8_d_uc1638.c ****     
  94:/Users/imashio/Electronics/ARM/_Library/u8x8_d_uc1638.c ****     
  95:/Users/imashio/Electronics/ARM/_Library/u8x8_d_uc1638.c ****       u8x8_cad_SendCmd(u8x8, 0x001); /* UC1638 */
 107              		.loc 1 95 0
 108 0058 0121     		movs	r1, #1
 109 005a 2846     		mov	r0, r5
 110 005c FFF7FEFF 		bl	u8x8_cad_SendCmd
 111              	.LVL13:
  96:/Users/imashio/Electronics/ARM/_Library/u8x8_d_uc1638.c ****       c = ((u8x8_tile_t *)arg_ptr)->cnt;
 112              		.loc 1 96 0
 113 0060 3E79     		ldrb	r6, [r7, #4]	@ zero_extendqisi2
 114              	.LVL14:
  97:/Users/imashio/Electronics/ARM/_Library/u8x8_d_uc1638.c ****       c *= 8;
  98:/Users/imashio/Electronics/ARM/_Library/u8x8_d_uc1638.c ****       ptr = ((u8x8_tile_t *)arg_ptr)->tile_ptr;
 115              		.loc 1 98 0
 116 0062 3F68     		ldr	r7, [r7]
 117              	.LVL15:
  97:/Users/imashio/Electronics/ARM/_Library/u8x8_d_uc1638.c ****       c *= 8;
 118              		.loc 1 97 0
 119 0064 F600     		lsls	r6, r6, #3
 120              	.LVL16:
 121 0066 F6B2     		uxtb	r6, r6
 122              	.LVL17:
 123              	.L8:
  99:/Users/imashio/Electronics/ARM/_Library/u8x8_d_uc1638.c ****       do
 100:/Users/imashio/Electronics/ARM/_Library/u8x8_d_uc1638.c ****       {
 101:/Users/imashio/Electronics/ARM/_Library/u8x8_d_uc1638.c **** 	u8x8_cad_SendData(u8x8, c, ptr);	/* note: SendData can not handle more than 255 bytes */
ARM GAS  /var/folders/v3/wysfpd052nz8jkbx04pk0ym80000gn/T//cc9qYHin.s 			page 5


 124              		.loc 1 101 0 discriminator 1
 125 0068 3A46     		mov	r2, r7
 126 006a 3146     		mov	r1, r6
 127 006c 2846     		mov	r0, r5
 102:/Users/imashio/Electronics/ARM/_Library/u8x8_d_uc1638.c **** 	arg_int--;
 128              		.loc 1 102 0 discriminator 1
 129 006e 013C     		subs	r4, r4, #1
 130              	.LVL18:
 101:/Users/imashio/Electronics/ARM/_Library/u8x8_d_uc1638.c **** 	arg_int--;
 131              		.loc 1 101 0 discriminator 1
 132 0070 FFF7FEFF 		bl	u8x8_cad_SendData
 133              	.LVL19:
 103:/Users/imashio/Electronics/ARM/_Library/u8x8_d_uc1638.c ****       } while( arg_int > 0 );
 134              		.loc 1 103 0 discriminator 1
 135 0074 14F0FF04 		ands	r4, r4, #255
 136              	.LVL20:
 137 0078 F6D1     		bne	.L8
 104:/Users/imashio/Electronics/ARM/_Library/u8x8_d_uc1638.c ****       
 105:/Users/imashio/Electronics/ARM/_Library/u8x8_d_uc1638.c ****       u8x8_cad_EndTransfer(u8x8);
 106:/Users/imashio/Electronics/ARM/_Library/u8x8_d_uc1638.c ****       break;
 107:/Users/imashio/Electronics/ARM/_Library/u8x8_d_uc1638.c ****     /*	handled in the calling procedure 
 108:/Users/imashio/Electronics/ARM/_Library/u8x8_d_uc1638.c ****     case U8X8_MSG_DISPLAY_SETUP_MEMORY:
 109:/Users/imashio/Electronics/ARM/_Library/u8x8_d_uc1638.c ****       u8x8_d_helper_display_setup_memory(u8x8, &u8x8_uc1638_128x64_display_info);
 110:/Users/imashio/Electronics/ARM/_Library/u8x8_d_uc1638.c ****       break;
 111:/Users/imashio/Electronics/ARM/_Library/u8x8_d_uc1638.c ****     case U8X8_MSG_DISPLAY_INIT:
 112:/Users/imashio/Electronics/ARM/_Library/u8x8_d_uc1638.c ****       u8x8_d_helper_display_init(u8x8);
 113:/Users/imashio/Electronics/ARM/_Library/u8x8_d_uc1638.c ****       u8x8_cad_SendSequence(u8x8, u8x8_d_uc1701_dogs102_init_seq);
 114:/Users/imashio/Electronics/ARM/_Library/u8x8_d_uc1638.c ****       break;
 115:/Users/imashio/Electronics/ARM/_Library/u8x8_d_uc1638.c ****     */
 116:/Users/imashio/Electronics/ARM/_Library/u8x8_d_uc1638.c ****     case U8X8_MSG_DISPLAY_SET_POWER_SAVE:
 117:/Users/imashio/Electronics/ARM/_Library/u8x8_d_uc1638.c ****       if ( arg_int == 0 )
 118:/Users/imashio/Electronics/ARM/_Library/u8x8_d_uc1638.c **** 	u8x8_cad_SendSequence(u8x8, u8x8_d_uc1638_powersave0_seq);
 119:/Users/imashio/Electronics/ARM/_Library/u8x8_d_uc1638.c ****       else
 120:/Users/imashio/Electronics/ARM/_Library/u8x8_d_uc1638.c **** 	u8x8_cad_SendSequence(u8x8, u8x8_d_uc1638_powersave1_seq);
 121:/Users/imashio/Electronics/ARM/_Library/u8x8_d_uc1638.c ****       break;
 122:/Users/imashio/Electronics/ARM/_Library/u8x8_d_uc1638.c ****     case U8X8_MSG_DISPLAY_SET_FLIP_MODE:
 123:/Users/imashio/Electronics/ARM/_Library/u8x8_d_uc1638.c ****       if ( arg_int == 0 )
 124:/Users/imashio/Electronics/ARM/_Library/u8x8_d_uc1638.c ****       {
 125:/Users/imashio/Electronics/ARM/_Library/u8x8_d_uc1638.c **** 	u8x8_cad_SendSequence(u8x8, u8x8_d_uc1638_flip0_seq);
 126:/Users/imashio/Electronics/ARM/_Library/u8x8_d_uc1638.c **** 	u8x8->x_offset = u8x8->display_info->default_x_offset;
 127:/Users/imashio/Electronics/ARM/_Library/u8x8_d_uc1638.c ****       }
 128:/Users/imashio/Electronics/ARM/_Library/u8x8_d_uc1638.c ****       else
 129:/Users/imashio/Electronics/ARM/_Library/u8x8_d_uc1638.c ****       {
 130:/Users/imashio/Electronics/ARM/_Library/u8x8_d_uc1638.c **** 	u8x8_cad_SendSequence(u8x8, u8x8_d_uc1638_flip1_seq);
 131:/Users/imashio/Electronics/ARM/_Library/u8x8_d_uc1638.c **** 	u8x8->x_offset = u8x8->display_info->flipmode_x_offset;
 132:/Users/imashio/Electronics/ARM/_Library/u8x8_d_uc1638.c ****       }	
 133:/Users/imashio/Electronics/ARM/_Library/u8x8_d_uc1638.c ****       break;
 134:/Users/imashio/Electronics/ARM/_Library/u8x8_d_uc1638.c **** #ifdef U8X8_WITH_SET_CONTRAST
 135:/Users/imashio/Electronics/ARM/_Library/u8x8_d_uc1638.c ****     case U8X8_MSG_DISPLAY_SET_CONTRAST:
 136:/Users/imashio/Electronics/ARM/_Library/u8x8_d_uc1638.c ****       u8x8_cad_StartTransfer(u8x8);
 137:/Users/imashio/Electronics/ARM/_Library/u8x8_d_uc1638.c ****       u8x8_cad_SendCmd(u8x8, 0x081 );
 138:/Users/imashio/Electronics/ARM/_Library/u8x8_d_uc1638.c ****       u8x8_cad_SendArg(u8x8, arg_int  );	/* uc1638 has range from 0 to 255 */
 139:/Users/imashio/Electronics/ARM/_Library/u8x8_d_uc1638.c ****       u8x8_cad_EndTransfer(u8x8);
 138              		.loc 1 139 0
 139 007a 2846     		mov	r0, r5
 140 007c FFF7FEFF 		bl	u8x8_cad_EndTransfer
 141              	.LVL21:
ARM GAS  /var/folders/v3/wysfpd052nz8jkbx04pk0ym80000gn/T//cc9qYHin.s 			page 6


 140:/Users/imashio/Electronics/ARM/_Library/u8x8_d_uc1638.c ****       break;
 141:/Users/imashio/Electronics/ARM/_Library/u8x8_d_uc1638.c **** #endif
 142:/Users/imashio/Electronics/ARM/_Library/u8x8_d_uc1638.c ****     default:
 143:/Users/imashio/Electronics/ARM/_Library/u8x8_d_uc1638.c ****       return 0;
 144:/Users/imashio/Electronics/ARM/_Library/u8x8_d_uc1638.c ****   }
 145:/Users/imashio/Electronics/ARM/_Library/u8x8_d_uc1638.c ****   return 1;
 142              		.loc 1 145 0
 143 0080 0120     		movs	r0, #1
 146:/Users/imashio/Electronics/ARM/_Library/u8x8_d_uc1638.c **** }
 144              		.loc 1 146 0
 145 0082 F8BD     		pop	{r3, r4, r5, r6, r7, pc}
 146              	.LVL22:
 147              	.L6:
 136:/Users/imashio/Electronics/ARM/_Library/u8x8_d_uc1638.c ****       u8x8_cad_SendCmd(u8x8, 0x081 );
 148              		.loc 1 136 0
 149 0084 FFF7FEFF 		bl	u8x8_cad_StartTransfer
 150              	.LVL23:
 137:/Users/imashio/Electronics/ARM/_Library/u8x8_d_uc1638.c ****       u8x8_cad_SendArg(u8x8, arg_int  );	/* uc1638 has range from 0 to 255 */
 151              		.loc 1 137 0
 152 0088 8121     		movs	r1, #129
 153 008a 2846     		mov	r0, r5
 154 008c FFF7FEFF 		bl	u8x8_cad_SendCmd
 155              	.LVL24:
 138:/Users/imashio/Electronics/ARM/_Library/u8x8_d_uc1638.c ****       u8x8_cad_EndTransfer(u8x8);
 156              		.loc 1 138 0
 157 0090 2146     		mov	r1, r4
 158 0092 2846     		mov	r0, r5
 159 0094 FFF7FEFF 		bl	u8x8_cad_SendArg
 160              	.LVL25:
 139:/Users/imashio/Electronics/ARM/_Library/u8x8_d_uc1638.c ****       break;
 161              		.loc 1 139 0
 162 0098 2846     		mov	r0, r5
 163 009a FFF7FEFF 		bl	u8x8_cad_EndTransfer
 164              	.LVL26:
 145:/Users/imashio/Electronics/ARM/_Library/u8x8_d_uc1638.c **** }
 165              		.loc 1 145 0
 166 009e 0120     		movs	r0, #1
 167              		.loc 1 146 0
 168 00a0 F8BD     		pop	{r3, r4, r5, r6, r7, pc}
 169              	.LVL27:
 170              	.L3:
 117:/Users/imashio/Electronics/ARM/_Library/u8x8_d_uc1638.c **** 	u8x8_cad_SendSequence(u8x8, u8x8_d_uc1638_powersave0_seq);
 171              		.loc 1 117 0
 172 00a2 BAB9     		cbnz	r2, .L9
 118:/Users/imashio/Electronics/ARM/_Library/u8x8_d_uc1638.c ****       else
 173              		.loc 1 118 0
 174 00a4 0E49     		ldr	r1, .L16
 175 00a6 FFF7FEFF 		bl	u8x8_cad_SendSequence
 176              	.LVL28:
 145:/Users/imashio/Electronics/ARM/_Library/u8x8_d_uc1638.c **** }
 177              		.loc 1 145 0
 178 00aa 0120     		movs	r0, #1
 179              		.loc 1 146 0
 180 00ac F8BD     		pop	{r3, r4, r5, r6, r7, pc}
 181              	.LVL29:
 182              	.L5:
 123:/Users/imashio/Electronics/ARM/_Library/u8x8_d_uc1638.c ****       {
ARM GAS  /var/folders/v3/wysfpd052nz8jkbx04pk0ym80000gn/T//cc9qYHin.s 			page 7


 183              		.loc 1 123 0
 184 00ae 4AB9     		cbnz	r2, .L10
 125:/Users/imashio/Electronics/ARM/_Library/u8x8_d_uc1638.c **** 	u8x8->x_offset = u8x8->display_info->default_x_offset;
 185              		.loc 1 125 0
 186 00b0 0C49     		ldr	r1, .L16+4
 187 00b2 FFF7FEFF 		bl	u8x8_cad_SendSequence
 188              	.LVL30:
 126:/Users/imashio/Electronics/ARM/_Library/u8x8_d_uc1638.c ****       }
 189              		.loc 1 126 0
 190 00b6 2B68     		ldr	r3, [r5]
 191 00b8 9B7C     		ldrb	r3, [r3, #18]	@ zero_extendqisi2
 192 00ba AB77     		strb	r3, [r5, #30]
 145:/Users/imashio/Electronics/ARM/_Library/u8x8_d_uc1638.c **** }
 193              		.loc 1 145 0
 194 00bc 0120     		movs	r0, #1
 195              		.loc 1 146 0
 196 00be F8BD     		pop	{r3, r4, r5, r6, r7, pc}
 197              	.LVL31:
 198              	.L11:
 143:/Users/imashio/Electronics/ARM/_Library/u8x8_d_uc1638.c ****   }
 199              		.loc 1 143 0
 200 00c0 0020     		movs	r0, #0
 201              	.LVL32:
 202              		.loc 1 146 0
 203 00c2 F8BD     		pop	{r3, r4, r5, r6, r7, pc}
 204              	.LVL33:
 205              	.L10:
 130:/Users/imashio/Electronics/ARM/_Library/u8x8_d_uc1638.c **** 	u8x8->x_offset = u8x8->display_info->flipmode_x_offset;
 206              		.loc 1 130 0
 207 00c4 0849     		ldr	r1, .L16+8
 208 00c6 FFF7FEFF 		bl	u8x8_cad_SendSequence
 209              	.LVL34:
 131:/Users/imashio/Electronics/ARM/_Library/u8x8_d_uc1638.c ****       }	
 210              		.loc 1 131 0
 211 00ca 2B68     		ldr	r3, [r5]
 212 00cc DB7C     		ldrb	r3, [r3, #19]	@ zero_extendqisi2
 213 00ce AB77     		strb	r3, [r5, #30]
 145:/Users/imashio/Electronics/ARM/_Library/u8x8_d_uc1638.c **** }
 214              		.loc 1 145 0
 215 00d0 0120     		movs	r0, #1
 216              		.loc 1 146 0
 217 00d2 F8BD     		pop	{r3, r4, r5, r6, r7, pc}
 218              	.LVL35:
 219              	.L9:
 120:/Users/imashio/Electronics/ARM/_Library/u8x8_d_uc1638.c ****       break;
 220              		.loc 1 120 0
 221 00d4 0549     		ldr	r1, .L16+12
 222 00d6 FFF7FEFF 		bl	u8x8_cad_SendSequence
 223              	.LVL36:
 145:/Users/imashio/Electronics/ARM/_Library/u8x8_d_uc1638.c **** }
 224              		.loc 1 145 0
 225 00da 0120     		movs	r0, #1
 226              		.loc 1 146 0
 227 00dc F8BD     		pop	{r3, r4, r5, r6, r7, pc}
 228              	.LVL37:
 229              	.L17:
 230 00de 00BF     		.align	2
ARM GAS  /var/folders/v3/wysfpd052nz8jkbx04pk0ym80000gn/T//cc9qYHin.s 			page 8


 231              	.L16:
 232 00e0 00000000 		.word	.LANCHOR0
 233 00e4 00000000 		.word	.LANCHOR2
 234 00e8 00000000 		.word	.LANCHOR3
 235 00ec 00000000 		.word	.LANCHOR1
 236              		.cfi_endproc
 237              	.LFE0:
 239              		.section	.text.u8x8_d_uc1638_160x128,"ax",%progbits
 240              		.align	1
 241              		.p2align 2,,3
 242              		.global	u8x8_d_uc1638_160x128
 243              		.syntax unified
 244              		.thumb
 245              		.thumb_func
 246              		.fpu fpv4-sp-d16
 248              	u8x8_d_uc1638_160x128:
 249              	.LFB1:
 147:/Users/imashio/Electronics/ARM/_Library/u8x8_d_uc1638.c **** 
 148:/Users/imashio/Electronics/ARM/_Library/u8x8_d_uc1638.c **** 
 149:/Users/imashio/Electronics/ARM/_Library/u8x8_d_uc1638.c **** /*================================================*/
 150:/Users/imashio/Electronics/ARM/_Library/u8x8_d_uc1638.c **** /* uc1638 160x128 */
 151:/Users/imashio/Electronics/ARM/_Library/u8x8_d_uc1638.c **** 
 152:/Users/imashio/Electronics/ARM/_Library/u8x8_d_uc1638.c **** /* values taken from uc1608 */
 153:/Users/imashio/Electronics/ARM/_Library/u8x8_d_uc1638.c **** static const u8x8_display_info_t u8x8_uc1638_160x128_display_info =
 154:/Users/imashio/Electronics/ARM/_Library/u8x8_d_uc1638.c **** {
 155:/Users/imashio/Electronics/ARM/_Library/u8x8_d_uc1638.c ****   /* chip_enable_level = */ 1,	/* uc1638 has high active CS */
 156:/Users/imashio/Electronics/ARM/_Library/u8x8_d_uc1638.c ****   /* chip_disable_level = */ 0,
 157:/Users/imashio/Electronics/ARM/_Library/u8x8_d_uc1638.c ****   
 158:/Users/imashio/Electronics/ARM/_Library/u8x8_d_uc1638.c ****   /* post_chip_enable_wait_ns = */ 10,	/* */
 159:/Users/imashio/Electronics/ARM/_Library/u8x8_d_uc1638.c ****   /* pre_chip_disable_wait_ns = */ 20,	/* */
 160:/Users/imashio/Electronics/ARM/_Library/u8x8_d_uc1638.c ****   /* reset_pulse_width_ms = */ 5, 	/* */
 161:/Users/imashio/Electronics/ARM/_Library/u8x8_d_uc1638.c ****   /* post_reset_wait_ms = */ 150, 	
 162:/Users/imashio/Electronics/ARM/_Library/u8x8_d_uc1638.c ****   /* sda_setup_time_ns = */ 30,		/* */
 163:/Users/imashio/Electronics/ARM/_Library/u8x8_d_uc1638.c ****   /* sck_pulse_width_ns = */ 65,	/* */
 164:/Users/imashio/Electronics/ARM/_Library/u8x8_d_uc1638.c ****   /* sck_clock_hz = */ 1000000UL,	/* since Arduino 1.6.0, the SPI bus speed in Hz. Should be  10000
 165:/Users/imashio/Electronics/ARM/_Library/u8x8_d_uc1638.c ****   /* spi_mode = */ 3,		/* active high, rising edge */
 166:/Users/imashio/Electronics/ARM/_Library/u8x8_d_uc1638.c ****   /* i2c_bus_clock_100kHz = */ 4,
 167:/Users/imashio/Electronics/ARM/_Library/u8x8_d_uc1638.c ****   /* data_setup_time_ns = */ 30,	/*  */
 168:/Users/imashio/Electronics/ARM/_Library/u8x8_d_uc1638.c ****   /* write_pulse_width_ns = */ 35,	/*  */
 169:/Users/imashio/Electronics/ARM/_Library/u8x8_d_uc1638.c ****   /* tile_width = */ 20,		/* width of 20*8=160 pixel */
 170:/Users/imashio/Electronics/ARM/_Library/u8x8_d_uc1638.c ****   /* tile_hight = */ 16,
 171:/Users/imashio/Electronics/ARM/_Library/u8x8_d_uc1638.c ****   /* default_x_offset = */ 0,	/*  */
 172:/Users/imashio/Electronics/ARM/_Library/u8x8_d_uc1638.c ****   /* flipmode_x_offset = */ 0,	/* */
 173:/Users/imashio/Electronics/ARM/_Library/u8x8_d_uc1638.c ****   /* pixel_width = */ 160,
 174:/Users/imashio/Electronics/ARM/_Library/u8x8_d_uc1638.c ****   /* pixel_height = */ 128
 175:/Users/imashio/Electronics/ARM/_Library/u8x8_d_uc1638.c **** };
 176:/Users/imashio/Electronics/ARM/_Library/u8x8_d_uc1638.c **** 
 177:/Users/imashio/Electronics/ARM/_Library/u8x8_d_uc1638.c **** static const uint8_t u8x8_d_uc1638_160x128_init_seq[] = {
 178:/Users/imashio/Electronics/ARM/_Library/u8x8_d_uc1638.c ****     
 179:/Users/imashio/Electronics/ARM/_Library/u8x8_d_uc1638.c ****   U8X8_START_TRANSFER(),             	/* enable chip, delay is part of the transfer start */
 180:/Users/imashio/Electronics/ARM/_Library/u8x8_d_uc1638.c **** 
 181:/Users/imashio/Electronics/ARM/_Library/u8x8_d_uc1638.c ****   U8X8_CA(0x0e1, 0x0e2),		/* software reset */    /* UC1638*/
 182:/Users/imashio/Electronics/ARM/_Library/u8x8_d_uc1638.c ****   U8X8_DLY(5),					/* 5 ms */	
 183:/Users/imashio/Electronics/ARM/_Library/u8x8_d_uc1638.c **** 
 184:/Users/imashio/Electronics/ARM/_Library/u8x8_d_uc1638.c ****   U8X8_C(0x024),            		/*	 set temp comp*/
 185:/Users/imashio/Electronics/ARM/_Library/u8x8_d_uc1638.c ****   U8X8_C(0x0c0),            		/*	mirror y and mirror x */  /* WAS: c2 */
 186:/Users/imashio/Electronics/ARM/_Library/u8x8_d_uc1638.c ****   U8X8_C(0x0a2),            		/*	line rate */
ARM GAS  /var/folders/v3/wysfpd052nz8jkbx04pk0ym80000gn/T//cc9qYHin.s 			page 9


 187:/Users/imashio/Electronics/ARM/_Library/u8x8_d_uc1638.c ****   U8X8_C(0x0d6),            		/*	gray scale 2 */
 188:/Users/imashio/Electronics/ARM/_Library/u8x8_d_uc1638.c ****   U8X8_C(0x0eb),            		/*	 set bias*/
 189:/Users/imashio/Electronics/ARM/_Library/u8x8_d_uc1638.c ****   U8X8_C(0x095),            		/*	 set 1 bit per pixel, pattern 0*/
 190:/Users/imashio/Electronics/ARM/_Library/u8x8_d_uc1638.c ****   U8X8_C(0x089),            		/*	 set auto increment, low bits are AC2 AC1 AC0 */  /* WAS 89 */
 191:/Users/imashio/Electronics/ARM/_Library/u8x8_d_uc1638.c **** 
 192:/Users/imashio/Electronics/ARM/_Library/u8x8_d_uc1638.c **** 
 193:/Users/imashio/Electronics/ARM/_Library/u8x8_d_uc1638.c ****   U8X8_CA(0x081, 0x0a0),		/* set contrast */    /* UC1638*/
 194:/Users/imashio/Electronics/ARM/_Library/u8x8_d_uc1638.c ****   
 195:/Users/imashio/Electronics/ARM/_Library/u8x8_d_uc1638.c ****   
 196:/Users/imashio/Electronics/ARM/_Library/u8x8_d_uc1638.c ****   U8X8_END_TRANSFER(),             	/* disable chip */
 197:/Users/imashio/Electronics/ARM/_Library/u8x8_d_uc1638.c ****   U8X8_END()             			/* end of sequence */
 198:/Users/imashio/Electronics/ARM/_Library/u8x8_d_uc1638.c **** };
 199:/Users/imashio/Electronics/ARM/_Library/u8x8_d_uc1638.c **** 
 200:/Users/imashio/Electronics/ARM/_Library/u8x8_d_uc1638.c **** uint8_t u8x8_d_uc1638_160x128(u8x8_t *u8x8, uint8_t msg, uint8_t arg_int, void *arg_ptr)
 201:/Users/imashio/Electronics/ARM/_Library/u8x8_d_uc1638.c **** {
 250              		.loc 1 201 0
 251              		.cfi_startproc
 252              		@ args = 0, pretend = 0, frame = 0
 253              		@ frame_needed = 0, uses_anonymous_args = 0
 254              	.LVL38:
 255 0000 38B5     		push	{r3, r4, r5, lr}
 256              	.LCFI1:
 257              		.cfi_def_cfa_offset 16
 258              		.cfi_offset 3, -16
 259              		.cfi_offset 4, -12
 260              		.cfi_offset 5, -8
 261              		.cfi_offset 14, -4
 262              		.loc 1 201 0
 263 0002 0546     		mov	r5, r0
 264 0004 0C46     		mov	r4, r1
 202:/Users/imashio/Electronics/ARM/_Library/u8x8_d_uc1638.c ****   /* call common procedure first and handle messages there */
 203:/Users/imashio/Electronics/ARM/_Library/u8x8_d_uc1638.c ****   if ( u8x8_d_uc1638_common(u8x8, msg, arg_int, arg_ptr) == 0 )
 265              		.loc 1 203 0
 266 0006 FFF7FEFF 		bl	u8x8_d_uc1638_common
 267              	.LVL39:
 268 000a 60B9     		cbnz	r0, .L22
 204:/Users/imashio/Electronics/ARM/_Library/u8x8_d_uc1638.c ****   {
 205:/Users/imashio/Electronics/ARM/_Library/u8x8_d_uc1638.c ****     /* msg not handled, then try here */
 206:/Users/imashio/Electronics/ARM/_Library/u8x8_d_uc1638.c ****     switch(msg)
 269              		.loc 1 206 0
 270 000c 092C     		cmp	r4, #9
 271 000e 0CD0     		beq	.L20
 272 0010 0A2C     		cmp	r4, #10
 273 0012 07D1     		bne	.L19
 207:/Users/imashio/Electronics/ARM/_Library/u8x8_d_uc1638.c ****     {
 208:/Users/imashio/Electronics/ARM/_Library/u8x8_d_uc1638.c ****       case U8X8_MSG_DISPLAY_SETUP_MEMORY:
 209:/Users/imashio/Electronics/ARM/_Library/u8x8_d_uc1638.c **** 	u8x8_d_helper_display_setup_memory(u8x8, &u8x8_uc1638_160x128_display_info);
 210:/Users/imashio/Electronics/ARM/_Library/u8x8_d_uc1638.c **** 	break;
 211:/Users/imashio/Electronics/ARM/_Library/u8x8_d_uc1638.c ****       case U8X8_MSG_DISPLAY_INIT:
 212:/Users/imashio/Electronics/ARM/_Library/u8x8_d_uc1638.c **** 	u8x8_d_helper_display_init(u8x8);
 274              		.loc 1 212 0
 275 0014 2846     		mov	r0, r5
 276 0016 FFF7FEFF 		bl	u8x8_d_helper_display_init
 277              	.LVL40:
 213:/Users/imashio/Electronics/ARM/_Library/u8x8_d_uc1638.c **** 	u8x8_cad_SendSequence(u8x8, u8x8_d_uc1638_160x128_init_seq);
 278              		.loc 1 213 0
 279 001a 2846     		mov	r0, r5
ARM GAS  /var/folders/v3/wysfpd052nz8jkbx04pk0ym80000gn/T//cc9qYHin.s 			page 10


 280 001c 0649     		ldr	r1, .L24
 281 001e FFF7FEFF 		bl	u8x8_cad_SendSequence
 282              	.LVL41:
 214:/Users/imashio/Electronics/ARM/_Library/u8x8_d_uc1638.c **** 	break;
 215:/Users/imashio/Electronics/ARM/_Library/u8x8_d_uc1638.c ****       default:
 216:/Users/imashio/Electronics/ARM/_Library/u8x8_d_uc1638.c **** 	return 0;		/* msg unknown */
 217:/Users/imashio/Electronics/ARM/_Library/u8x8_d_uc1638.c ****     }
 218:/Users/imashio/Electronics/ARM/_Library/u8x8_d_uc1638.c ****   }
 219:/Users/imashio/Electronics/ARM/_Library/u8x8_d_uc1638.c ****   return 1;
 283              		.loc 1 219 0
 284 0022 0120     		movs	r0, #1
 285              	.L19:
 220:/Users/imashio/Electronics/ARM/_Library/u8x8_d_uc1638.c **** }
 286              		.loc 1 220 0
 287 0024 38BD     		pop	{r3, r4, r5, pc}
 288              	.LVL42:
 289              	.L22:
 219:/Users/imashio/Electronics/ARM/_Library/u8x8_d_uc1638.c **** }
 290              		.loc 1 219 0
 291 0026 0120     		movs	r0, #1
 292              		.loc 1 220 0
 293 0028 38BD     		pop	{r3, r4, r5, pc}
 294              	.LVL43:
 295              	.L20:
 209:/Users/imashio/Electronics/ARM/_Library/u8x8_d_uc1638.c **** 	break;
 296              		.loc 1 209 0
 297 002a 2846     		mov	r0, r5
 298 002c 0349     		ldr	r1, .L24+4
 299 002e FFF7FEFF 		bl	u8x8_d_helper_display_setup_memory
 300              	.LVL44:
 219:/Users/imashio/Electronics/ARM/_Library/u8x8_d_uc1638.c **** }
 301              		.loc 1 219 0
 302 0032 0120     		movs	r0, #1
 303              		.loc 1 220 0
 304 0034 38BD     		pop	{r3, r4, r5, pc}
 305              	.LVL45:
 306              	.L25:
 307 0036 00BF     		.align	2
 308              	.L24:
 309 0038 00000000 		.word	.LANCHOR5
 310 003c 00000000 		.word	.LANCHOR4
 311              		.cfi_endproc
 312              	.LFE1:
 314              		.section	.rodata.u8x8_d_uc1638_160x128_init_seq,"a",%progbits
 315              		.align	2
 316              		.set	.LANCHOR5,. + 0
 319              	u8x8_d_uc1638_160x128_init_seq:
 320 0000 18       		.byte	24
 321 0001 15       		.byte	21
 322 0002 E1       		.byte	-31
 323 0003 16       		.byte	22
 324 0004 E2       		.byte	-30
 325 0005 FE       		.byte	-2
 326 0006 05       		.byte	5
 327 0007 15       		.byte	21
 328 0008 24       		.byte	36
 329 0009 15       		.byte	21
ARM GAS  /var/folders/v3/wysfpd052nz8jkbx04pk0ym80000gn/T//cc9qYHin.s 			page 11


 330 000a C0       		.byte	-64
 331 000b 15       		.byte	21
 332 000c A2       		.byte	-94
 333 000d 15       		.byte	21
 334 000e D6       		.byte	-42
 335 000f 15       		.byte	21
 336 0010 EB       		.byte	-21
 337 0011 15       		.byte	21
 338 0012 95       		.byte	-107
 339 0013 15       		.byte	21
 340 0014 89       		.byte	-119
 341 0015 15       		.byte	21
 342 0016 81       		.byte	-127
 343 0017 16       		.byte	22
 344 0018 A0       		.byte	-96
 345 0019 19       		.byte	25
 346 001a FF       		.byte	-1
 347              		.section	.rodata.u8x8_d_uc1638_flip0_seq,"a",%progbits
 348              		.align	2
 349              		.set	.LANCHOR2,. + 0
 352              	u8x8_d_uc1638_flip0_seq:
 353 0000 18       		.byte	24
 354 0001 15       		.byte	21
 355 0002 C4       		.byte	-60
 356 0003 19       		.byte	25
 357 0004 FF       		.byte	-1
 358              		.section	.rodata.u8x8_d_uc1638_flip1_seq,"a",%progbits
 359              		.align	2
 360              		.set	.LANCHOR3,. + 0
 363              	u8x8_d_uc1638_flip1_seq:
 364 0000 18       		.byte	24
 365 0001 15       		.byte	21
 366 0002 C2       		.byte	-62
 367 0003 19       		.byte	25
 368 0004 FF       		.byte	-1
 369              		.section	.rodata.u8x8_d_uc1638_powersave0_seq,"a",%progbits
 370              		.align	2
 371              		.set	.LANCHOR0,. + 0
 374              	u8x8_d_uc1638_powersave0_seq:
 375 0000 18       		.byte	24
 376 0001 15       		.byte	21
 377 0002 C9       		.byte	-55
 378 0003 16       		.byte	22
 379 0004 AD       		.byte	-83
 380 0005 19       		.byte	25
 381 0006 FF       		.byte	-1
 382              		.section	.rodata.u8x8_d_uc1638_powersave1_seq,"a",%progbits
 383              		.align	2
 384              		.set	.LANCHOR1,. + 0
 387              	u8x8_d_uc1638_powersave1_seq:
 388 0000 18       		.byte	24
 389 0001 15       		.byte	21
 390 0002 C9       		.byte	-55
 391 0003 16       		.byte	22
 392 0004 AC       		.byte	-84
 393 0005 19       		.byte	25
 394 0006 FF       		.byte	-1
ARM GAS  /var/folders/v3/wysfpd052nz8jkbx04pk0ym80000gn/T//cc9qYHin.s 			page 12


 395              		.section	.rodata.u8x8_uc1638_160x128_display_info,"a",%progbits
 396              		.align	2
 397              		.set	.LANCHOR4,. + 0
 400              	u8x8_uc1638_160x128_display_info:
 401 0000 01       		.byte	1
 402 0001 00       		.byte	0
 403 0002 0A       		.byte	10
 404 0003 14       		.byte	20
 405 0004 05       		.byte	5
 406 0005 96       		.byte	-106
 407 0006 1E       		.byte	30
 408 0007 41       		.byte	65
 409 0008 40420F00 		.word	1000000
 410 000c 03       		.byte	3
 411 000d 04       		.byte	4
 412 000e 1E       		.byte	30
 413 000f 23       		.byte	35
 414 0010 14       		.byte	20
 415 0011 10       		.byte	16
 416 0012 00       		.byte	0
 417 0013 00       		.byte	0
 418 0014 A000     		.short	160
 419 0016 8000     		.short	128
 420              		.text
 421              	.Letext0:
 422              		.file 2 "/usr/local/gcc-arm-none-eabi-7-2018-q2-update/arm-none-eabi/include/machine/_default_type
 423              		.file 3 "/usr/local/gcc-arm-none-eabi-7-2018-q2-update/arm-none-eabi/include/sys/_stdint.h"
 424              		.file 4 "/Users/imashio/Electronics/ARM/_Library/u8x8.h"
ARM GAS  /var/folders/v3/wysfpd052nz8jkbx04pk0ym80000gn/T//cc9qYHin.s 			page 13

