ARM GAS  /var/folders/v3/wysfpd052nz8jkbx04pk0ym80000gn/T//ccaAAksX.s 			page 1


   1              		.cpu cortex-m4
   2              		.eabi_attribute 27, 1
   3              		.eabi_attribute 28, 1
   4              		.eabi_attribute 20, 1
   5              		.eabi_attribute 21, 1
   6              		.eabi_attribute 23, 3
   7              		.eabi_attribute 24, 1
   8              		.eabi_attribute 25, 1
   9              		.eabi_attribute 26, 1
  10              		.eabi_attribute 30, 2
  11              		.eabi_attribute 34, 1
  12              		.eabi_attribute 18, 4
  13              		.file	"u8x8_d_sed1330.c"
  14              		.text
  15              	.Ltext0:
  16              		.cfi_sections	.debug_frame
  17              		.section	.text.u8x8_d_sed1330_common,"ax",%progbits
  18              		.align	1
  19              		.p2align 2,,3
  20              		.global	u8x8_d_sed1330_common
  21              		.syntax unified
  22              		.thumb
  23              		.thumb_func
  24              		.fpu fpv4-sp-d16
  26              	u8x8_d_sed1330_common:
  27              	.LFB0:
  28              		.file 1 "/Users/imashio/Electronics/ARM/_Library/u8x8_d_sed1330.c"
   1:/Users/imashio/Electronics/ARM/_Library/u8x8_d_sed1330.c **** /*
   2:/Users/imashio/Electronics/ARM/_Library/u8x8_d_sed1330.c **** 
   3:/Users/imashio/Electronics/ARM/_Library/u8x8_d_sed1330.c ****   u8x8_d_sed1330.c
   4:/Users/imashio/Electronics/ARM/_Library/u8x8_d_sed1330.c ****   
   5:/Users/imashio/Electronics/ARM/_Library/u8x8_d_sed1330.c ****   Universal 8bit Graphics Library (https://github.com/olikraus/u8g2/)
   6:/Users/imashio/Electronics/ARM/_Library/u8x8_d_sed1330.c **** 
   7:/Users/imashio/Electronics/ARM/_Library/u8x8_d_sed1330.c ****   Copyright (c) 2016, olikraus@gmail.com
   8:/Users/imashio/Electronics/ARM/_Library/u8x8_d_sed1330.c ****   All rights reserved.
   9:/Users/imashio/Electronics/ARM/_Library/u8x8_d_sed1330.c **** 
  10:/Users/imashio/Electronics/ARM/_Library/u8x8_d_sed1330.c ****   Redistribution and use in source and binary forms, with or without modification, 
  11:/Users/imashio/Electronics/ARM/_Library/u8x8_d_sed1330.c ****   are permitted provided that the following conditions are met:
  12:/Users/imashio/Electronics/ARM/_Library/u8x8_d_sed1330.c **** 
  13:/Users/imashio/Electronics/ARM/_Library/u8x8_d_sed1330.c ****   * Redistributions of source code must retain the above copyright notice, this list 
  14:/Users/imashio/Electronics/ARM/_Library/u8x8_d_sed1330.c ****     of conditions and the following disclaimer.
  15:/Users/imashio/Electronics/ARM/_Library/u8x8_d_sed1330.c ****     
  16:/Users/imashio/Electronics/ARM/_Library/u8x8_d_sed1330.c ****   * Redistributions in binary form must reproduce the above copyright notice, this 
  17:/Users/imashio/Electronics/ARM/_Library/u8x8_d_sed1330.c ****     list of conditions and the following disclaimer in the documentation and/or other 
  18:/Users/imashio/Electronics/ARM/_Library/u8x8_d_sed1330.c ****     materials provided with the distribution.
  19:/Users/imashio/Electronics/ARM/_Library/u8x8_d_sed1330.c **** 
  20:/Users/imashio/Electronics/ARM/_Library/u8x8_d_sed1330.c ****   THIS SOFTWARE IS PROVIDED BY THE COPYRIGHT HOLDERS AND 
  21:/Users/imashio/Electronics/ARM/_Library/u8x8_d_sed1330.c ****   CONTRIBUTORS "AS IS" AND ANY EXPRESS OR IMPLIED WARRANTIES, 
  22:/Users/imashio/Electronics/ARM/_Library/u8x8_d_sed1330.c ****   INCLUDING, BUT NOT LIMITED TO, THE IMPLIED WARRANTIES OF 
  23:/Users/imashio/Electronics/ARM/_Library/u8x8_d_sed1330.c ****   MERCHANTABILITY AND FITNESS FOR A PARTICULAR PURPOSE ARE 
  24:/Users/imashio/Electronics/ARM/_Library/u8x8_d_sed1330.c ****   DISCLAIMED. IN NO EVENT SHALL THE COPYRIGHT HOLDER OR 
  25:/Users/imashio/Electronics/ARM/_Library/u8x8_d_sed1330.c ****   CONTRIBUTORS BE LIABLE FOR ANY DIRECT, INDIRECT, INCIDENTAL, 
  26:/Users/imashio/Electronics/ARM/_Library/u8x8_d_sed1330.c ****   SPECIAL, EXEMPLARY, OR CONSEQUENTIAL DAMAGES (INCLUDING, BUT 
  27:/Users/imashio/Electronics/ARM/_Library/u8x8_d_sed1330.c ****   NOT LIMITED TO, PROCUREMENT OF SUBSTITUTE GOODS OR SERVICES; 
  28:/Users/imashio/Electronics/ARM/_Library/u8x8_d_sed1330.c ****   LOSS OF USE, DATA, OR PROFITS; OR BUSINESS INTERRUPTION) HOWEVER 
  29:/Users/imashio/Electronics/ARM/_Library/u8x8_d_sed1330.c ****   CAUSED AND ON ANY THEORY OF LIABILITY, WHETHER IN CONTRACT, 
  30:/Users/imashio/Electronics/ARM/_Library/u8x8_d_sed1330.c ****   STRICT LIABILITY, OR TORT (INCLUDING NEGLIGENCE OR OTHERWISE) 
ARM GAS  /var/folders/v3/wysfpd052nz8jkbx04pk0ym80000gn/T//ccaAAksX.s 			page 2


  31:/Users/imashio/Electronics/ARM/_Library/u8x8_d_sed1330.c ****   ARISING IN ANY WAY OUT OF THE USE OF THIS SOFTWARE, EVEN IF 
  32:/Users/imashio/Electronics/ARM/_Library/u8x8_d_sed1330.c ****   ADVISED OF THE POSSIBILITY OF SUCH DAMAGE.  
  33:/Users/imashio/Electronics/ARM/_Library/u8x8_d_sed1330.c **** 
  34:/Users/imashio/Electronics/ARM/_Library/u8x8_d_sed1330.c **** 
  35:/Users/imashio/Electronics/ARM/_Library/u8x8_d_sed1330.c ****   The device might also work with the RA8835, SED1335 and SED1336 controller.
  36:/Users/imashio/Electronics/ARM/_Library/u8x8_d_sed1330.c ****   The following devices might be compatible:
  37:/Users/imashio/Electronics/ARM/_Library/u8x8_d_sed1330.c ****     RA8835
  38:/Users/imashio/Electronics/ARM/_Library/u8x8_d_sed1330.c ****     SED1330
  39:/Users/imashio/Electronics/ARM/_Library/u8x8_d_sed1330.c ****     SED1335
  40:/Users/imashio/Electronics/ARM/_Library/u8x8_d_sed1330.c ****     S1D13700
  41:/Users/imashio/Electronics/ARM/_Library/u8x8_d_sed1330.c **** 
  42:/Users/imashio/Electronics/ARM/_Library/u8x8_d_sed1330.c **** 
  43:/Users/imashio/Electronics/ARM/_Library/u8x8_d_sed1330.c **** */
  44:/Users/imashio/Electronics/ARM/_Library/u8x8_d_sed1330.c **** #include "u8x8.h"
  45:/Users/imashio/Electronics/ARM/_Library/u8x8_d_sed1330.c **** 
  46:/Users/imashio/Electronics/ARM/_Library/u8x8_d_sed1330.c **** 
  47:/Users/imashio/Electronics/ARM/_Library/u8x8_d_sed1330.c **** 
  48:/Users/imashio/Electronics/ARM/_Library/u8x8_d_sed1330.c **** static const uint8_t u8x8_d_sed1330_powersave0_seq[] = {
  49:/Users/imashio/Electronics/ARM/_Library/u8x8_d_sed1330.c ****   U8X8_START_TRANSFER(),             	/* enable chip, delay is part of the transfer start */
  50:/Users/imashio/Electronics/ARM/_Library/u8x8_d_sed1330.c ****   U8X8_CA(0x040, 0x030),		/* sys init (0x040) with one arg, where 0x030 is a wild guess */
  51:/Users/imashio/Electronics/ARM/_Library/u8x8_d_sed1330.c ****   U8X8_CA(0x059, 0x004),               /* send display on command (hex 0x059, see p37 ) */
  52:/Users/imashio/Electronics/ARM/_Library/u8x8_d_sed1330.c **** 							/* display cmd has one arg: 01010100 should enable all three blocks, but disable the cursor*
  53:/Users/imashio/Electronics/ARM/_Library/u8x8_d_sed1330.c ****   
  54:/Users/imashio/Electronics/ARM/_Library/u8x8_d_sed1330.c ****   U8X8_END_TRANSFER(),             	/* disable chip */
  55:/Users/imashio/Electronics/ARM/_Library/u8x8_d_sed1330.c ****   U8X8_END()             			/* end of sequence */
  56:/Users/imashio/Electronics/ARM/_Library/u8x8_d_sed1330.c **** };
  57:/Users/imashio/Electronics/ARM/_Library/u8x8_d_sed1330.c **** 
  58:/Users/imashio/Electronics/ARM/_Library/u8x8_d_sed1330.c **** static const uint8_t u8x8_d_sed1330_powersave1_seq[] = {
  59:/Users/imashio/Electronics/ARM/_Library/u8x8_d_sed1330.c ****   U8X8_START_TRANSFER(),             	/* enable chip, delay is part of the transfer start */
  60:/Users/imashio/Electronics/ARM/_Library/u8x8_d_sed1330.c ****   U8X8_CA(0x058, 0x000),               /* send display off command (hex 0x059, see p37) and turn of
  61:/Users/imashio/Electronics/ARM/_Library/u8x8_d_sed1330.c ****   /* maybe send a sleep in cmd */
  62:/Users/imashio/Electronics/ARM/_Library/u8x8_d_sed1330.c ****   //U8X8_C(0x053)				/* sleep in: 0x053 */
  63:/Users/imashio/Electronics/ARM/_Library/u8x8_d_sed1330.c ****   U8X8_END_TRANSFER(),             	/* disable chip */
  64:/Users/imashio/Electronics/ARM/_Library/u8x8_d_sed1330.c ****   U8X8_END()             			/* end of sequence */
  65:/Users/imashio/Electronics/ARM/_Library/u8x8_d_sed1330.c **** };
  66:/Users/imashio/Electronics/ARM/_Library/u8x8_d_sed1330.c **** 
  67:/Users/imashio/Electronics/ARM/_Library/u8x8_d_sed1330.c **** 
  68:/Users/imashio/Electronics/ARM/_Library/u8x8_d_sed1330.c **** uint8_t u8x8_d_sed1330_common(u8x8_t *u8x8, uint8_t msg, uint8_t arg_int, void *arg_ptr)
  69:/Users/imashio/Electronics/ARM/_Library/u8x8_d_sed1330.c **** {
  29              		.loc 1 69 0
  30              		.cfi_startproc
  31              		@ args = 0, pretend = 0, frame = 0
  32              		@ frame_needed = 0, uses_anonymous_args = 0
  33              	.LVL0:
  70:/Users/imashio/Electronics/ARM/_Library/u8x8_d_sed1330.c ****   uint8_t c, i;
  71:/Users/imashio/Electronics/ARM/_Library/u8x8_d_sed1330.c ****   uint16_t y;
  72:/Users/imashio/Electronics/ARM/_Library/u8x8_d_sed1330.c ****   uint8_t *ptr;
  73:/Users/imashio/Electronics/ARM/_Library/u8x8_d_sed1330.c ****   switch(msg)
  34              		.loc 1 73 0
  35 0000 0B29     		cmp	r1, #11
  69:/Users/imashio/Electronics/ARM/_Library/u8x8_d_sed1330.c ****   uint8_t c, i;
  36              		.loc 1 69 0
  37 0002 2DE9F041 		push	{r4, r5, r6, r7, r8, lr}
  38              	.LCFI0:
  39              		.cfi_def_cfa_offset 24
  40              		.cfi_offset 4, -24
  41              		.cfi_offset 5, -20
ARM GAS  /var/folders/v3/wysfpd052nz8jkbx04pk0ym80000gn/T//ccaAAksX.s 			page 3


  42              		.cfi_offset 6, -16
  43              		.cfi_offset 7, -12
  44              		.cfi_offset 8, -8
  45              		.cfi_offset 14, -4
  46              		.loc 1 73 0
  47 0006 3FD0     		beq	.L3
  48 0008 0F29     		cmp	r1, #15
  49 000a 3AD1     		bne	.L12
  50              	.LVL1:
  51              	.LBB4:
  52              	.LBB5:
  74:/Users/imashio/Electronics/ARM/_Library/u8x8_d_sed1330.c ****   {
  75:/Users/imashio/Electronics/ARM/_Library/u8x8_d_sed1330.c ****     /* U8X8_MSG_DISPLAY_SETUP_MEMORY is handled by the calling function */
  76:/Users/imashio/Electronics/ARM/_Library/u8x8_d_sed1330.c ****     /*
  77:/Users/imashio/Electronics/ARM/_Library/u8x8_d_sed1330.c ****     case U8X8_MSG_DISPLAY_SETUP_MEMORY:
  78:/Users/imashio/Electronics/ARM/_Library/u8x8_d_sed1330.c ****       break;
  79:/Users/imashio/Electronics/ARM/_Library/u8x8_d_sed1330.c ****     case U8X8_MSG_DISPLAY_INIT:
  80:/Users/imashio/Electronics/ARM/_Library/u8x8_d_sed1330.c ****       break;
  81:/Users/imashio/Electronics/ARM/_Library/u8x8_d_sed1330.c ****     */
  82:/Users/imashio/Electronics/ARM/_Library/u8x8_d_sed1330.c ****     case U8X8_MSG_DISPLAY_SET_POWER_SAVE:
  83:/Users/imashio/Electronics/ARM/_Library/u8x8_d_sed1330.c ****       if ( arg_int == 0 )
  84:/Users/imashio/Electronics/ARM/_Library/u8x8_d_sed1330.c **** 	u8x8_cad_SendSequence(u8x8, u8x8_d_sed1330_powersave0_seq);
  85:/Users/imashio/Electronics/ARM/_Library/u8x8_d_sed1330.c ****       else
  86:/Users/imashio/Electronics/ARM/_Library/u8x8_d_sed1330.c **** 	u8x8_cad_SendSequence(u8x8, u8x8_d_sed1330_powersave1_seq);
  87:/Users/imashio/Electronics/ARM/_Library/u8x8_d_sed1330.c ****       break;
  88:/Users/imashio/Electronics/ARM/_Library/u8x8_d_sed1330.c ****     case U8X8_MSG_DISPLAY_DRAW_TILE:
  89:/Users/imashio/Electronics/ARM/_Library/u8x8_d_sed1330.c ****       y = (((u8x8_tile_t *)arg_ptr)->y_pos);
  90:/Users/imashio/Electronics/ARM/_Library/u8x8_d_sed1330.c ****       y*=8;
  91:/Users/imashio/Electronics/ARM/_Library/u8x8_d_sed1330.c ****       y*= u8x8->display_info->tile_width;
  53              		.loc 1 91 0
  54 000c 0268     		ldr	r2, [r0]
  55              	.LVL2:
  56 000e 1E46     		mov	r6, r3
  57 0010 157C     		ldrb	r5, [r2, #16]	@ zero_extendqisi2
  89:/Users/imashio/Electronics/ARM/_Library/u8x8_d_sed1330.c ****       y*=8;
  58              		.loc 1 89 0
  59 0012 9B79     		ldrb	r3, [r3, #6]	@ zero_extendqisi2
  60              	.LVL3:
  61 0014 05FB03F5 		mul	r5, r5, r3
  62              		.loc 1 91 0
  63 0018 ED00     		lsls	r5, r5, #3
  64 001a 0446     		mov	r4, r0
  65 001c ADB2     		uxth	r5, r5
  66              	.LVL4:
  92:/Users/imashio/Electronics/ARM/_Library/u8x8_d_sed1330.c ****     
  93:/Users/imashio/Electronics/ARM/_Library/u8x8_d_sed1330.c ****       u8x8_cad_StartTransfer(u8x8);
  67              		.loc 1 93 0
  68 001e FFF7FEFF 		bl	u8x8_cad_StartTransfer
  69              	.LVL5:
  94:/Users/imashio/Electronics/ARM/_Library/u8x8_d_sed1330.c ****     
  95:/Users/imashio/Electronics/ARM/_Library/u8x8_d_sed1330.c ****       c = ((u8x8_tile_t *)arg_ptr)->cnt;	/* number of tiles */
  70              		.loc 1 95 0
  71 0022 96F80480 		ldrb	r8, [r6, #4]	@ zero_extendqisi2
  72              	.LVL6:
  96:/Users/imashio/Electronics/ARM/_Library/u8x8_d_sed1330.c ****       ptr = ((u8x8_tile_t *)arg_ptr)->tile_ptr;	/* data ptr to the tiles */
  73              		.loc 1 96 0
  74 0026 3768     		ldr	r7, [r6]
ARM GAS  /var/folders/v3/wysfpd052nz8jkbx04pk0ym80000gn/T//ccaAAksX.s 			page 4


  75              	.LVL7:
  76 0028 0826     		movs	r6, #8
  77              	.LVL8:
  78              	.L6:
  97:/Users/imashio/Electronics/ARM/_Library/u8x8_d_sed1330.c ****       for( i = 0; i < 8; i++ )
  98:/Users/imashio/Electronics/ARM/_Library/u8x8_d_sed1330.c ****       {
  99:/Users/imashio/Electronics/ARM/_Library/u8x8_d_sed1330.c **** 	u8x8_cad_SendCmd(u8x8, 0x046 );	/* CSRW command*/
  79              		.loc 1 99 0
  80 002a 4621     		movs	r1, #70
  81 002c 2046     		mov	r0, r4
  82 002e FFF7FEFF 		bl	u8x8_cad_SendCmd
  83              	.LVL9:
 100:/Users/imashio/Electronics/ARM/_Library/u8x8_d_sed1330.c **** 	u8x8_cad_SendArg(u8x8, y&255);		/* CSRW low adr byte */
  84              		.loc 1 100 0
  85 0032 E9B2     		uxtb	r1, r5
  86 0034 2046     		mov	r0, r4
  87 0036 FFF7FEFF 		bl	u8x8_cad_SendArg
  88              	.LVL10:
 101:/Users/imashio/Electronics/ARM/_Library/u8x8_d_sed1330.c **** 	u8x8_cad_SendArg(u8x8, y>>8);		/* CSRW high adr byte */
  89              		.loc 1 101 0
  90 003a 290A     		lsrs	r1, r5, #8
  91 003c 2046     		mov	r0, r4
  92 003e FFF7FEFF 		bl	u8x8_cad_SendArg
  93              	.LVL11:
 102:/Users/imashio/Electronics/ARM/_Library/u8x8_d_sed1330.c **** 	u8x8_cad_SendCmd(u8x8, 0x042 );	/* MWRITE */
  94              		.loc 1 102 0
  95 0042 4221     		movs	r1, #66
  96 0044 2046     		mov	r0, r4
  97 0046 FFF7FEFF 		bl	u8x8_cad_SendCmd
  98              	.LVL12:
 103:/Users/imashio/Electronics/ARM/_Library/u8x8_d_sed1330.c **** 	
 104:/Users/imashio/Electronics/ARM/_Library/u8x8_d_sed1330.c **** 	u8x8_cad_SendData(u8x8, c, ptr);	/* note: SendData can not handle more than 255 bytes, send one li
  99              		.loc 1 104 0
 100 004a 3A46     		mov	r2, r7
 101 004c 4146     		mov	r1, r8
 102 004e 2046     		mov	r0, r4
 103 0050 FFF7FEFF 		bl	u8x8_cad_SendData
 104              	.LVL13:
 105:/Users/imashio/Electronics/ARM/_Library/u8x8_d_sed1330.c **** 	
 106:/Users/imashio/Electronics/ARM/_Library/u8x8_d_sed1330.c **** 	ptr += u8x8->display_info->tile_width;
 105              		.loc 1 106 0
 106 0054 2368     		ldr	r3, [r4]
 107 0056 1A7C     		ldrb	r2, [r3, #16]	@ zero_extendqisi2
 108 0058 731E     		subs	r3, r6, #1
 107:/Users/imashio/Electronics/ARM/_Library/u8x8_d_sed1330.c **** 	y += u8x8->display_info->tile_width;
 109              		.loc 1 107 0
 110 005a 1544     		add	r5, r5, r2
 111              	.LVL14:
  97:/Users/imashio/Electronics/ARM/_Library/u8x8_d_sed1330.c ****       {
 112              		.loc 1 97 0
 113 005c 13F0FF06 		ands	r6, r3, #255
 114              	.LVL15:
 115              		.loc 1 107 0
 116 0060 ADB2     		uxth	r5, r5
 106:/Users/imashio/Electronics/ARM/_Library/u8x8_d_sed1330.c **** 	y += u8x8->display_info->tile_width;
 117              		.loc 1 106 0
 118 0062 1744     		add	r7, r7, r2
ARM GAS  /var/folders/v3/wysfpd052nz8jkbx04pk0ym80000gn/T//ccaAAksX.s 			page 5


 119              	.LVL16:
  97:/Users/imashio/Electronics/ARM/_Library/u8x8_d_sed1330.c ****       {
 120              		.loc 1 97 0
 121 0064 E1D1     		bne	.L6
 108:/Users/imashio/Electronics/ARM/_Library/u8x8_d_sed1330.c ****       }
 109:/Users/imashio/Electronics/ARM/_Library/u8x8_d_sed1330.c **** 
 110:/Users/imashio/Electronics/ARM/_Library/u8x8_d_sed1330.c ****       /* sometimes the display switches off... so just sent a display on command */
 111:/Users/imashio/Electronics/ARM/_Library/u8x8_d_sed1330.c ****       u8x8_cad_SendCmd(u8x8, 0x059 );	/* display on */
 122              		.loc 1 111 0
 123 0066 5921     		movs	r1, #89
 124 0068 2046     		mov	r0, r4
 125 006a FFF7FEFF 		bl	u8x8_cad_SendCmd
 126              	.LVL17:
 112:/Users/imashio/Electronics/ARM/_Library/u8x8_d_sed1330.c ****       u8x8_cad_SendArg(u8x8, 0x004);	/* arg for display on */
 127              		.loc 1 112 0
 128 006e 0421     		movs	r1, #4
 129 0070 2046     		mov	r0, r4
 130 0072 FFF7FEFF 		bl	u8x8_cad_SendArg
 131              	.LVL18:
 113:/Users/imashio/Electronics/ARM/_Library/u8x8_d_sed1330.c **** 
 114:/Users/imashio/Electronics/ARM/_Library/u8x8_d_sed1330.c ****       u8x8_cad_EndTransfer(u8x8);
 132              		.loc 1 114 0
 133 0076 2046     		mov	r0, r4
 134 0078 FFF7FEFF 		bl	u8x8_cad_EndTransfer
 135              	.LVL19:
 136 007c 0120     		movs	r0, #1
 137              	.LBE5:
 138              	.LBE4:
 115:/Users/imashio/Electronics/ARM/_Library/u8x8_d_sed1330.c ****       //u8x8->gpio_and_delay_cb(u8x8, U8X8_MSG_DELAY_NANO, 200, NULL);	/* extra dely required */
 116:/Users/imashio/Electronics/ARM/_Library/u8x8_d_sed1330.c **** 
 117:/Users/imashio/Electronics/ARM/_Library/u8x8_d_sed1330.c ****       break;
 118:/Users/imashio/Electronics/ARM/_Library/u8x8_d_sed1330.c ****     default:
 119:/Users/imashio/Electronics/ARM/_Library/u8x8_d_sed1330.c ****       return 0;
 120:/Users/imashio/Electronics/ARM/_Library/u8x8_d_sed1330.c ****   }
 121:/Users/imashio/Electronics/ARM/_Library/u8x8_d_sed1330.c ****   return 1;
 122:/Users/imashio/Electronics/ARM/_Library/u8x8_d_sed1330.c **** }
 139              		.loc 1 122 0
 140 007e BDE8F081 		pop	{r4, r5, r6, r7, r8, pc}
 141              	.LVL20:
 142              	.L12:
 119:/Users/imashio/Electronics/ARM/_Library/u8x8_d_sed1330.c ****   }
 143              		.loc 1 119 0
 144 0082 0020     		movs	r0, #0
 145              	.LVL21:
 146              		.loc 1 122 0
 147 0084 BDE8F081 		pop	{r4, r5, r6, r7, r8, pc}
 148              	.LVL22:
 149              	.L3:
  83:/Users/imashio/Electronics/ARM/_Library/u8x8_d_sed1330.c **** 	u8x8_cad_SendSequence(u8x8, u8x8_d_sed1330_powersave0_seq);
 150              		.loc 1 83 0
 151 0088 2AB9     		cbnz	r2, .L5
  84:/Users/imashio/Electronics/ARM/_Library/u8x8_d_sed1330.c ****       else
 152              		.loc 1 84 0
 153 008a 0649     		ldr	r1, .L13
 154              	.LVL23:
 155 008c FFF7FEFF 		bl	u8x8_cad_SendSequence
 156              	.LVL24:
ARM GAS  /var/folders/v3/wysfpd052nz8jkbx04pk0ym80000gn/T//ccaAAksX.s 			page 6


 121:/Users/imashio/Electronics/ARM/_Library/u8x8_d_sed1330.c **** }
 157              		.loc 1 121 0
 158 0090 0120     		movs	r0, #1
 159              		.loc 1 122 0
 160 0092 BDE8F081 		pop	{r4, r5, r6, r7, r8, pc}
 161              	.LVL25:
 162              	.L5:
  86:/Users/imashio/Electronics/ARM/_Library/u8x8_d_sed1330.c ****       break;
 163              		.loc 1 86 0
 164 0096 0449     		ldr	r1, .L13+4
 165              	.LVL26:
 166 0098 FFF7FEFF 		bl	u8x8_cad_SendSequence
 167              	.LVL27:
 121:/Users/imashio/Electronics/ARM/_Library/u8x8_d_sed1330.c **** }
 168              		.loc 1 121 0
 169 009c 0120     		movs	r0, #1
 170              		.loc 1 122 0
 171 009e BDE8F081 		pop	{r4, r5, r6, r7, r8, pc}
 172              	.L14:
 173 00a2 00BF     		.align	2
 174              	.L13:
 175 00a4 00000000 		.word	.LANCHOR0
 176 00a8 00000000 		.word	.LANCHOR1
 177              		.cfi_endproc
 178              	.LFE0:
 180              		.section	.text.u8x8_d_sed1330_240x128,"ax",%progbits
 181              		.align	1
 182              		.p2align 2,,3
 183              		.global	u8x8_d_sed1330_240x128
 184              		.syntax unified
 185              		.thumb
 186              		.thumb_func
 187              		.fpu fpv4-sp-d16
 189              	u8x8_d_sed1330_240x128:
 190              	.LFB1:
 123:/Users/imashio/Electronics/ARM/_Library/u8x8_d_sed1330.c **** 
 124:/Users/imashio/Electronics/ARM/_Library/u8x8_d_sed1330.c **** /*=============================================*/
 125:/Users/imashio/Electronics/ARM/_Library/u8x8_d_sed1330.c **** 
 126:/Users/imashio/Electronics/ARM/_Library/u8x8_d_sed1330.c **** 
 127:/Users/imashio/Electronics/ARM/_Library/u8x8_d_sed1330.c **** static const u8x8_display_info_t u8x8_sed1330_240x128_display_info =
 128:/Users/imashio/Electronics/ARM/_Library/u8x8_d_sed1330.c **** {
 129:/Users/imashio/Electronics/ARM/_Library/u8x8_d_sed1330.c ****   /* chip_enable_level = */ 0,
 130:/Users/imashio/Electronics/ARM/_Library/u8x8_d_sed1330.c ****   /* chip_disable_level = */ 1,
 131:/Users/imashio/Electronics/ARM/_Library/u8x8_d_sed1330.c ****   
 132:/Users/imashio/Electronics/ARM/_Library/u8x8_d_sed1330.c ****   /* post_chip_enable_wait_ns = */ 30,	/* G242CX Datasheet p5 */
 133:/Users/imashio/Electronics/ARM/_Library/u8x8_d_sed1330.c ****   /* pre_chip_disable_wait_ns = */ 10,	/* G242CX Datasheet p5 */
 134:/Users/imashio/Electronics/ARM/_Library/u8x8_d_sed1330.c ****   /* reset_pulse_width_ms = */ 1, 
 135:/Users/imashio/Electronics/ARM/_Library/u8x8_d_sed1330.c ****   /* post_reset_wait_ms = */ 6, 
 136:/Users/imashio/Electronics/ARM/_Library/u8x8_d_sed1330.c ****   /* sda_setup_time_ns = */ 20,		
 137:/Users/imashio/Electronics/ARM/_Library/u8x8_d_sed1330.c ****   /* sck_pulse_width_ns = */  140,	
 138:/Users/imashio/Electronics/ARM/_Library/u8x8_d_sed1330.c ****   /* sck_clock_hz = */ 1000000UL,	/* since Arduino 1.6.0, the SPI bus speed in Hz. Should be  10000
 139:/Users/imashio/Electronics/ARM/_Library/u8x8_d_sed1330.c ****   /* spi_mode = */ 0,		
 140:/Users/imashio/Electronics/ARM/_Library/u8x8_d_sed1330.c ****   /* i2c_bus_clock_100kHz = */ 4,
 141:/Users/imashio/Electronics/ARM/_Library/u8x8_d_sed1330.c ****   /* data_setup_time_ns = */ 120,		/* G242CX Datasheet p5 */
 142:/Users/imashio/Electronics/ARM/_Library/u8x8_d_sed1330.c ****   /* write_pulse_width_ns = */ 220,		/* G242CX Datasheet p5 */
 143:/Users/imashio/Electronics/ARM/_Library/u8x8_d_sed1330.c ****   /* tile_width = */ 0x01e,
 144:/Users/imashio/Electronics/ARM/_Library/u8x8_d_sed1330.c ****   /* tile_hight = */ 16,
ARM GAS  /var/folders/v3/wysfpd052nz8jkbx04pk0ym80000gn/T//ccaAAksX.s 			page 7


 145:/Users/imashio/Electronics/ARM/_Library/u8x8_d_sed1330.c ****   /* default_x_offset = */ 0,
 146:/Users/imashio/Electronics/ARM/_Library/u8x8_d_sed1330.c ****   /* flipmode_x_offset = */ 0,
 147:/Users/imashio/Electronics/ARM/_Library/u8x8_d_sed1330.c ****   /* pixel_width = */ 240,
 148:/Users/imashio/Electronics/ARM/_Library/u8x8_d_sed1330.c ****   /* pixel_height = */ 128
 149:/Users/imashio/Electronics/ARM/_Library/u8x8_d_sed1330.c **** };
 150:/Users/imashio/Electronics/ARM/_Library/u8x8_d_sed1330.c **** 
 151:/Users/imashio/Electronics/ARM/_Library/u8x8_d_sed1330.c **** /* 240x128 Seiko G242C */
 152:/Users/imashio/Electronics/ARM/_Library/u8x8_d_sed1330.c **** static const uint8_t u8x8_d_sed1330_240x128_init_seq[] = {
 153:/Users/imashio/Electronics/ARM/_Library/u8x8_d_sed1330.c ****   U8X8_DLY(100),
 154:/Users/imashio/Electronics/ARM/_Library/u8x8_d_sed1330.c ****   U8X8_START_TRANSFER(),             	/* enable chip, delay is part of the transfer start */
 155:/Users/imashio/Electronics/ARM/_Library/u8x8_d_sed1330.c ****   U8X8_DLY(100),
 156:/Users/imashio/Electronics/ARM/_Library/u8x8_d_sed1330.c **** 
 157:/Users/imashio/Electronics/ARM/_Library/u8x8_d_sed1330.c ****   /* system init command, see also u8x8_d_sed1330_powersave0_seq */
 158:/Users/imashio/Electronics/ARM/_Library/u8x8_d_sed1330.c ****   U8X8_CA(0x040, 0x030),		/* sys init (0x040) with one arg, where 0x030 is a wild guess */
 159:/Users/imashio/Electronics/ARM/_Library/u8x8_d_sed1330.c ****   /* system init has total 8 parameters, so 7 more are here */
 160:/Users/imashio/Electronics/ARM/_Library/u8x8_d_sed1330.c ****   U8X8_A(0x087),				/* no idea here... WF (topmost bit) is set to one because it is suggested in th
 161:/Users/imashio/Electronics/ARM/_Library/u8x8_d_sed1330.c ****   U8X8_A(0x007),				/* FY: height of a char+1, does not matter here (hopefully), because we use gra
 162:/Users/imashio/Electronics/ARM/_Library/u8x8_d_sed1330.c ****   U8X8_A(0x01d),				/* C/R: this could be the number of horizontal bytes - 1 (Value confirmed with 
 163:/Users/imashio/Electronics/ARM/_Library/u8x8_d_sed1330.c ****   U8X8_A(0x050),					/* TC/R: According to app notes fOSC=6Mhz fFF=70Hz --> TC/R = 74d*/
 164:/Users/imashio/Electronics/ARM/_Library/u8x8_d_sed1330.c ****   U8X8_A(0x080),				/* L/F: Lines per frame - 1, probably this is the height of the display - 1 (va
 165:/Users/imashio/Electronics/ARM/_Library/u8x8_d_sed1330.c ****   U8X8_A(0x01e),				/* Low byte of the virtual screen size. (Value confirmed with app notes p41)   
 166:/Users/imashio/Electronics/ARM/_Library/u8x8_d_sed1330.c ****   U8X8_A(0),					/* High byte of the virtual screen size, see also section 9.1.2 */
 167:/Users/imashio/Electronics/ARM/_Library/u8x8_d_sed1330.c **** 	
 168:/Users/imashio/Electronics/ARM/_Library/u8x8_d_sed1330.c ****   U8X8_C(0x044),				/* SCROLL */
 169:/Users/imashio/Electronics/ARM/_Library/u8x8_d_sed1330.c ****   U8X8_A(0x000),				
 170:/Users/imashio/Electronics/ARM/_Library/u8x8_d_sed1330.c ****   U8X8_A(0x000),				
 171:/Users/imashio/Electronics/ARM/_Library/u8x8_d_sed1330.c ****   U8X8_A(0x080),
 172:/Users/imashio/Electronics/ARM/_Library/u8x8_d_sed1330.c ****   U8X8_A(0x000),
 173:/Users/imashio/Electronics/ARM/_Library/u8x8_d_sed1330.c ****   U8X8_A(0x040),
 174:/Users/imashio/Electronics/ARM/_Library/u8x8_d_sed1330.c ****   U8X8_A(0x080),
 175:/Users/imashio/Electronics/ARM/_Library/u8x8_d_sed1330.c ****   U8X8_A(0x000),
 176:/Users/imashio/Electronics/ARM/_Library/u8x8_d_sed1330.c ****   U8X8_A(0x000),
 177:/Users/imashio/Electronics/ARM/_Library/u8x8_d_sed1330.c ****   U8X8_A(0x000),
 178:/Users/imashio/Electronics/ARM/_Library/u8x8_d_sed1330.c ****   U8X8_A(0x000),
 179:/Users/imashio/Electronics/ARM/_Library/u8x8_d_sed1330.c **** 	
 180:/Users/imashio/Electronics/ARM/_Library/u8x8_d_sed1330.c ****   U8X8_CA(0x05a, 0),			/* HDOT SCR: Horizontal dotwise scroll... set to 0 */
 181:/Users/imashio/Electronics/ARM/_Library/u8x8_d_sed1330.c **** 	
 182:/Users/imashio/Electronics/ARM/_Library/u8x8_d_sed1330.c ****   U8X8_CA(0x05b, 0x0c),			/* OVLAY: 2-layer, all graphics, OR between layer 1 and 2 */
 183:/Users/imashio/Electronics/ARM/_Library/u8x8_d_sed1330.c **** 
 184:/Users/imashio/Electronics/ARM/_Library/u8x8_d_sed1330.c **** 
 185:/Users/imashio/Electronics/ARM/_Library/u8x8_d_sed1330.c ****   U8X8_DLY(100),
 186:/Users/imashio/Electronics/ARM/_Library/u8x8_d_sed1330.c ****   U8X8_END_TRANSFER(),             	/* disable chip */
 187:/Users/imashio/Electronics/ARM/_Library/u8x8_d_sed1330.c ****   U8X8_DLY(100),
 188:/Users/imashio/Electronics/ARM/_Library/u8x8_d_sed1330.c **** };
 189:/Users/imashio/Electronics/ARM/_Library/u8x8_d_sed1330.c **** 
 190:/Users/imashio/Electronics/ARM/_Library/u8x8_d_sed1330.c **** /* RA8835 NHD-240128BZ */
 191:/Users/imashio/Electronics/ARM/_Library/u8x8_d_sed1330.c **** static const uint8_t u8x8_d_rh8835_nhd_240128_init_seq[] = {
 192:/Users/imashio/Electronics/ARM/_Library/u8x8_d_sed1330.c ****   U8X8_DLY(100),
 193:/Users/imashio/Electronics/ARM/_Library/u8x8_d_sed1330.c ****   U8X8_START_TRANSFER(),             	/* enable chip, delay is part of the transfer start */
 194:/Users/imashio/Electronics/ARM/_Library/u8x8_d_sed1330.c ****   U8X8_DLY(100),
 195:/Users/imashio/Electronics/ARM/_Library/u8x8_d_sed1330.c **** 
 196:/Users/imashio/Electronics/ARM/_Library/u8x8_d_sed1330.c ****   /* system init command, see also u8x8_d_sed1330_powersave0_seq */
 197:/Users/imashio/Electronics/ARM/_Library/u8x8_d_sed1330.c ****   U8X8_CA(0x040, 0x030),		/* sys init (0x040) with one arg, where 0x030 is a wild guess */
 198:/Users/imashio/Electronics/ARM/_Library/u8x8_d_sed1330.c ****   /* system init has total 8 parameters, so 7 more are here */
 199:/Users/imashio/Electronics/ARM/_Library/u8x8_d_sed1330.c ****   U8X8_A(0x087),				/* no idea here... WF (topmost bit) is set to one because it is suggested in th
 200:/Users/imashio/Electronics/ARM/_Library/u8x8_d_sed1330.c ****   U8X8_A(0x007),				/* FY: height of a char+1, does not matter here (hopefully), because we use gra
 201:/Users/imashio/Electronics/ARM/_Library/u8x8_d_sed1330.c ****   U8X8_A(0x01d),				/* C/R: this could be the number of horizontal bytes - 1 (Value confirmed with 
ARM GAS  /var/folders/v3/wysfpd052nz8jkbx04pk0ym80000gn/T//ccaAAksX.s 			page 8


 202:/Users/imashio/Electronics/ARM/_Library/u8x8_d_sed1330.c ****   U8X8_A(0x050),					/* TC/R: According to app notes fOSC=6Mhz fFF=70Hz --> TC/R = 74d*/
 203:/Users/imashio/Electronics/ARM/_Library/u8x8_d_sed1330.c ****   U8X8_A(0x080),				/* L/F: Lines per frame - 1, probably this is the height of the display - 1 (va
 204:/Users/imashio/Electronics/ARM/_Library/u8x8_d_sed1330.c ****   U8X8_A(0x01e),				/* Low byte of the virtual screen size. (Value confirmed with app notes p41)   
 205:/Users/imashio/Electronics/ARM/_Library/u8x8_d_sed1330.c ****   U8X8_A(0),					/* High byte of the virtual screen size, see also section 9.1.2 */
 206:/Users/imashio/Electronics/ARM/_Library/u8x8_d_sed1330.c **** 
 207:/Users/imashio/Electronics/ARM/_Library/u8x8_d_sed1330.c ****   U8X8_C(0x044),				/* SCROLL */
 208:/Users/imashio/Electronics/ARM/_Library/u8x8_d_sed1330.c ****   U8X8_A(0x000),				
 209:/Users/imashio/Electronics/ARM/_Library/u8x8_d_sed1330.c ****   U8X8_A(0x000),				
 210:/Users/imashio/Electronics/ARM/_Library/u8x8_d_sed1330.c ****   U8X8_A(0x080),
 211:/Users/imashio/Electronics/ARM/_Library/u8x8_d_sed1330.c ****   U8X8_A(0x000),
 212:/Users/imashio/Electronics/ARM/_Library/u8x8_d_sed1330.c ****   U8X8_A(0x040),
 213:/Users/imashio/Electronics/ARM/_Library/u8x8_d_sed1330.c ****   U8X8_A(0x080),
 214:/Users/imashio/Electronics/ARM/_Library/u8x8_d_sed1330.c ****   U8X8_A(0x000),
 215:/Users/imashio/Electronics/ARM/_Library/u8x8_d_sed1330.c ****   U8X8_A(0x000),
 216:/Users/imashio/Electronics/ARM/_Library/u8x8_d_sed1330.c ****   U8X8_A(0x000),
 217:/Users/imashio/Electronics/ARM/_Library/u8x8_d_sed1330.c ****   U8X8_A(0x000),
 218:/Users/imashio/Electronics/ARM/_Library/u8x8_d_sed1330.c **** 	
 219:/Users/imashio/Electronics/ARM/_Library/u8x8_d_sed1330.c ****   //U8X8_CA(0x05a, 0),			/* HDOT SCR: Horizontal dotwise scroll... set to 0 */
 220:/Users/imashio/Electronics/ARM/_Library/u8x8_d_sed1330.c **** 	
 221:/Users/imashio/Electronics/ARM/_Library/u8x8_d_sed1330.c ****   U8X8_CA(0x05b, 0x0c),			/* OVLAY: 2-layer, all graphics, OR between layer 1 and 2 */
 222:/Users/imashio/Electronics/ARM/_Library/u8x8_d_sed1330.c **** 
 223:/Users/imashio/Electronics/ARM/_Library/u8x8_d_sed1330.c ****   //U8X8_CA(0x059, 0x04),               /* send display on command (hex 0x059, see p37 ) */
 224:/Users/imashio/Electronics/ARM/_Library/u8x8_d_sed1330.c ****   
 225:/Users/imashio/Electronics/ARM/_Library/u8x8_d_sed1330.c ****   U8X8_DLY(100),
 226:/Users/imashio/Electronics/ARM/_Library/u8x8_d_sed1330.c ****   U8X8_END_TRANSFER(),             	/* disable chip */
 227:/Users/imashio/Electronics/ARM/_Library/u8x8_d_sed1330.c ****   U8X8_DLY(100),
 228:/Users/imashio/Electronics/ARM/_Library/u8x8_d_sed1330.c ****   
 229:/Users/imashio/Electronics/ARM/_Library/u8x8_d_sed1330.c **** };
 230:/Users/imashio/Electronics/ARM/_Library/u8x8_d_sed1330.c **** 
 231:/Users/imashio/Electronics/ARM/_Library/u8x8_d_sed1330.c **** 
 232:/Users/imashio/Electronics/ARM/_Library/u8x8_d_sed1330.c **** uint8_t u8x8_d_sed1330_240x128(u8x8_t *u8x8, uint8_t msg, uint8_t arg_int, void *arg_ptr)
 233:/Users/imashio/Electronics/ARM/_Library/u8x8_d_sed1330.c **** {
 191              		.loc 1 233 0
 192              		.cfi_startproc
 193              		@ args = 0, pretend = 0, frame = 0
 194              		@ frame_needed = 0, uses_anonymous_args = 0
 195              	.LVL28:
 234:/Users/imashio/Electronics/ARM/_Library/u8x8_d_sed1330.c ****   switch(msg)
 196              		.loc 1 234 0
 197 0000 0929     		cmp	r1, #9
 233:/Users/imashio/Electronics/ARM/_Library/u8x8_d_sed1330.c ****   switch(msg)
 198              		.loc 1 233 0
 199 0002 70B5     		push	{r4, r5, r6, lr}
 200              	.LCFI1:
 201              		.cfi_def_cfa_offset 16
 202              		.cfi_offset 4, -16
 203              		.cfi_offset 5, -12
 204              		.cfi_offset 6, -8
 205              		.cfi_offset 14, -4
 206              		.loc 1 234 0
 207 0004 0ED0     		beq	.L17
 208 0006 0A29     		cmp	r1, #10
 209 0008 08D1     		bne	.L22
 210 000a 0546     		mov	r5, r0
 235:/Users/imashio/Electronics/ARM/_Library/u8x8_d_sed1330.c ****   {
 236:/Users/imashio/Electronics/ARM/_Library/u8x8_d_sed1330.c ****     case U8X8_MSG_DISPLAY_SETUP_MEMORY:
 237:/Users/imashio/Electronics/ARM/_Library/u8x8_d_sed1330.c ****       u8x8_d_helper_display_setup_memory(u8x8, &u8x8_sed1330_240x128_display_info);
ARM GAS  /var/folders/v3/wysfpd052nz8jkbx04pk0ym80000gn/T//ccaAAksX.s 			page 9


 238:/Users/imashio/Electronics/ARM/_Library/u8x8_d_sed1330.c ****       break;
 239:/Users/imashio/Electronics/ARM/_Library/u8x8_d_sed1330.c ****     case U8X8_MSG_DISPLAY_INIT:
 240:/Users/imashio/Electronics/ARM/_Library/u8x8_d_sed1330.c ****       u8x8_d_helper_display_init(u8x8);
 211              		.loc 1 240 0
 212 000c FFF7FEFF 		bl	u8x8_d_helper_display_init
 213              	.LVL29:
 241:/Users/imashio/Electronics/ARM/_Library/u8x8_d_sed1330.c ****       u8x8_cad_SendSequence(u8x8, u8x8_d_sed1330_240x128_init_seq);
 214              		.loc 1 241 0
 215 0010 2846     		mov	r0, r5
 216 0012 0749     		ldr	r1, .L23
 217 0014 FFF7FEFF 		bl	u8x8_cad_SendSequence
 218              	.LVL30:
 242:/Users/imashio/Electronics/ARM/_Library/u8x8_d_sed1330.c ****       break;
 243:/Users/imashio/Electronics/ARM/_Library/u8x8_d_sed1330.c ****     default:
 244:/Users/imashio/Electronics/ARM/_Library/u8x8_d_sed1330.c ****       return u8x8_d_sed1330_common(u8x8, msg, arg_int, arg_ptr);
 245:/Users/imashio/Electronics/ARM/_Library/u8x8_d_sed1330.c ****   }
 246:/Users/imashio/Electronics/ARM/_Library/u8x8_d_sed1330.c ****   return 1;
 247:/Users/imashio/Electronics/ARM/_Library/u8x8_d_sed1330.c **** }
 219              		.loc 1 247 0
 220 0018 0120     		movs	r0, #1
 221 001a 70BD     		pop	{r4, r5, r6, pc}
 222              	.LVL31:
 223              	.L22:
 224 001c BDE87040 		pop	{r4, r5, r6, lr}
 225              	.LCFI2:
 226              		.cfi_remember_state
 227              		.cfi_restore 14
 228              		.cfi_restore 6
 229              		.cfi_restore 5
 230              		.cfi_restore 4
 231              		.cfi_def_cfa_offset 0
 244:/Users/imashio/Electronics/ARM/_Library/u8x8_d_sed1330.c ****   }
 232              		.loc 1 244 0
 233 0020 FFF7FEBF 		b	u8x8_d_sed1330_common
 234              	.LVL32:
 235              	.L17:
 236              	.LCFI3:
 237              		.cfi_restore_state
 237:/Users/imashio/Electronics/ARM/_Library/u8x8_d_sed1330.c ****       break;
 238              		.loc 1 237 0
 239 0024 0349     		ldr	r1, .L23+4
 240              	.LVL33:
 241 0026 FFF7FEFF 		bl	u8x8_d_helper_display_setup_memory
 242              	.LVL34:
 243              		.loc 1 247 0
 244 002a 0120     		movs	r0, #1
 245 002c 70BD     		pop	{r4, r5, r6, pc}
 246              	.L24:
 247 002e 00BF     		.align	2
 248              	.L23:
 249 0030 00000000 		.word	.LANCHOR3
 250 0034 00000000 		.word	.LANCHOR2
 251              		.cfi_endproc
 252              	.LFE1:
 254              		.section	.text.u8x8_d_ra8835_nhd_240x128,"ax",%progbits
 255              		.align	1
 256              		.p2align 2,,3
ARM GAS  /var/folders/v3/wysfpd052nz8jkbx04pk0ym80000gn/T//ccaAAksX.s 			page 10


 257              		.global	u8x8_d_ra8835_nhd_240x128
 258              		.syntax unified
 259              		.thumb
 260              		.thumb_func
 261              		.fpu fpv4-sp-d16
 263              	u8x8_d_ra8835_nhd_240x128:
 264              	.LFB2:
 248:/Users/imashio/Electronics/ARM/_Library/u8x8_d_sed1330.c **** 
 249:/Users/imashio/Electronics/ARM/_Library/u8x8_d_sed1330.c **** 
 250:/Users/imashio/Electronics/ARM/_Library/u8x8_d_sed1330.c **** uint8_t u8x8_d_ra8835_nhd_240x128(u8x8_t *u8x8, uint8_t msg, uint8_t arg_int, void *arg_ptr)
 251:/Users/imashio/Electronics/ARM/_Library/u8x8_d_sed1330.c **** {
 265              		.loc 1 251 0
 266              		.cfi_startproc
 267              		@ args = 0, pretend = 0, frame = 0
 268              		@ frame_needed = 0, uses_anonymous_args = 0
 269              	.LVL35:
 252:/Users/imashio/Electronics/ARM/_Library/u8x8_d_sed1330.c ****   switch(msg)
 270              		.loc 1 252 0
 271 0000 0929     		cmp	r1, #9
 251:/Users/imashio/Electronics/ARM/_Library/u8x8_d_sed1330.c ****   switch(msg)
 272              		.loc 1 251 0
 273 0002 70B5     		push	{r4, r5, r6, lr}
 274              	.LCFI4:
 275              		.cfi_def_cfa_offset 16
 276              		.cfi_offset 4, -16
 277              		.cfi_offset 5, -12
 278              		.cfi_offset 6, -8
 279              		.cfi_offset 14, -4
 280              		.loc 1 252 0
 281 0004 0ED0     		beq	.L27
 282 0006 0A29     		cmp	r1, #10
 283 0008 08D1     		bne	.L32
 284 000a 0546     		mov	r5, r0
 253:/Users/imashio/Electronics/ARM/_Library/u8x8_d_sed1330.c ****   {
 254:/Users/imashio/Electronics/ARM/_Library/u8x8_d_sed1330.c ****     case U8X8_MSG_DISPLAY_SETUP_MEMORY:
 255:/Users/imashio/Electronics/ARM/_Library/u8x8_d_sed1330.c ****       u8x8_d_helper_display_setup_memory(u8x8, &u8x8_sed1330_240x128_display_info);
 256:/Users/imashio/Electronics/ARM/_Library/u8x8_d_sed1330.c ****       break;
 257:/Users/imashio/Electronics/ARM/_Library/u8x8_d_sed1330.c ****     case U8X8_MSG_DISPLAY_INIT:
 258:/Users/imashio/Electronics/ARM/_Library/u8x8_d_sed1330.c ****       u8x8_d_helper_display_init(u8x8);
 285              		.loc 1 258 0
 286 000c FFF7FEFF 		bl	u8x8_d_helper_display_init
 287              	.LVL36:
 259:/Users/imashio/Electronics/ARM/_Library/u8x8_d_sed1330.c ****       u8x8_cad_SendSequence(u8x8, u8x8_d_rh8835_nhd_240128_init_seq);
 288              		.loc 1 259 0
 289 0010 2846     		mov	r0, r5
 290 0012 0749     		ldr	r1, .L33
 291 0014 FFF7FEFF 		bl	u8x8_cad_SendSequence
 292              	.LVL37:
 260:/Users/imashio/Electronics/ARM/_Library/u8x8_d_sed1330.c ****       break;
 261:/Users/imashio/Electronics/ARM/_Library/u8x8_d_sed1330.c ****     default:
 262:/Users/imashio/Electronics/ARM/_Library/u8x8_d_sed1330.c ****       return u8x8_d_sed1330_common(u8x8, msg, arg_int, arg_ptr);
 263:/Users/imashio/Electronics/ARM/_Library/u8x8_d_sed1330.c ****   }
 264:/Users/imashio/Electronics/ARM/_Library/u8x8_d_sed1330.c ****   return 1;
 265:/Users/imashio/Electronics/ARM/_Library/u8x8_d_sed1330.c **** }
 293              		.loc 1 265 0
 294 0018 0120     		movs	r0, #1
 295 001a 70BD     		pop	{r4, r5, r6, pc}
ARM GAS  /var/folders/v3/wysfpd052nz8jkbx04pk0ym80000gn/T//ccaAAksX.s 			page 11


 296              	.LVL38:
 297              	.L32:
 298 001c BDE87040 		pop	{r4, r5, r6, lr}
 299              	.LCFI5:
 300              		.cfi_remember_state
 301              		.cfi_restore 14
 302              		.cfi_restore 6
 303              		.cfi_restore 5
 304              		.cfi_restore 4
 305              		.cfi_def_cfa_offset 0
 262:/Users/imashio/Electronics/ARM/_Library/u8x8_d_sed1330.c ****   }
 306              		.loc 1 262 0
 307 0020 FFF7FEBF 		b	u8x8_d_sed1330_common
 308              	.LVL39:
 309              	.L27:
 310              	.LCFI6:
 311              		.cfi_restore_state
 255:/Users/imashio/Electronics/ARM/_Library/u8x8_d_sed1330.c ****       break;
 312              		.loc 1 255 0
 313 0024 0349     		ldr	r1, .L33+4
 314              	.LVL40:
 315 0026 FFF7FEFF 		bl	u8x8_d_helper_display_setup_memory
 316              	.LVL41:
 317              		.loc 1 265 0
 318 002a 0120     		movs	r0, #1
 319 002c 70BD     		pop	{r4, r5, r6, pc}
 320              	.L34:
 321 002e 00BF     		.align	2
 322              	.L33:
 323 0030 00000000 		.word	.LANCHOR4
 324 0034 00000000 		.word	.LANCHOR2
 325              		.cfi_endproc
 326              	.LFE2:
 328              		.section	.text.u8x8_d_ra8835_320x240,"ax",%progbits
 329              		.align	1
 330              		.p2align 2,,3
 331              		.global	u8x8_d_ra8835_320x240
 332              		.syntax unified
 333              		.thumb
 334              		.thumb_func
 335              		.fpu fpv4-sp-d16
 337              	u8x8_d_ra8835_320x240:
 338              	.LFB3:
 266:/Users/imashio/Electronics/ARM/_Library/u8x8_d_sed1330.c **** 
 267:/Users/imashio/Electronics/ARM/_Library/u8x8_d_sed1330.c **** 
 268:/Users/imashio/Electronics/ARM/_Library/u8x8_d_sed1330.c **** 
 269:/Users/imashio/Electronics/ARM/_Library/u8x8_d_sed1330.c **** /*=============================================*/
 270:/Users/imashio/Electronics/ARM/_Library/u8x8_d_sed1330.c **** 
 271:/Users/imashio/Electronics/ARM/_Library/u8x8_d_sed1330.c **** 
 272:/Users/imashio/Electronics/ARM/_Library/u8x8_d_sed1330.c **** static const u8x8_display_info_t u8x8_sed1330_320x240_display_info =
 273:/Users/imashio/Electronics/ARM/_Library/u8x8_d_sed1330.c **** {
 274:/Users/imashio/Electronics/ARM/_Library/u8x8_d_sed1330.c ****   /* chip_enable_level = */ 0,
 275:/Users/imashio/Electronics/ARM/_Library/u8x8_d_sed1330.c ****   /* chip_disable_level = */ 1,
 276:/Users/imashio/Electronics/ARM/_Library/u8x8_d_sed1330.c ****   
 277:/Users/imashio/Electronics/ARM/_Library/u8x8_d_sed1330.c ****   /* post_chip_enable_wait_ns = */ 30,	/* G242CX Datasheet p5 */
 278:/Users/imashio/Electronics/ARM/_Library/u8x8_d_sed1330.c ****   /* pre_chip_disable_wait_ns = */ 10,	/* G242CX Datasheet p5 */
 279:/Users/imashio/Electronics/ARM/_Library/u8x8_d_sed1330.c ****   /* reset_pulse_width_ms = */ 1, 
ARM GAS  /var/folders/v3/wysfpd052nz8jkbx04pk0ym80000gn/T//ccaAAksX.s 			page 12


 280:/Users/imashio/Electronics/ARM/_Library/u8x8_d_sed1330.c ****   /* post_reset_wait_ms = */ 6, 
 281:/Users/imashio/Electronics/ARM/_Library/u8x8_d_sed1330.c ****   /* sda_setup_time_ns = */ 20,		
 282:/Users/imashio/Electronics/ARM/_Library/u8x8_d_sed1330.c ****   /* sck_pulse_width_ns = */  140,	
 283:/Users/imashio/Electronics/ARM/_Library/u8x8_d_sed1330.c ****   /* sck_clock_hz = */ 1000000UL,	/* since Arduino 1.6.0, the SPI bus speed in Hz. Should be  10000
 284:/Users/imashio/Electronics/ARM/_Library/u8x8_d_sed1330.c ****   /* spi_mode = */ 0,		
 285:/Users/imashio/Electronics/ARM/_Library/u8x8_d_sed1330.c ****   /* i2c_bus_clock_100kHz = */ 4,
 286:/Users/imashio/Electronics/ARM/_Library/u8x8_d_sed1330.c ****   /* data_setup_time_ns = */ 120,		/* G242CX Datasheet p5 */
 287:/Users/imashio/Electronics/ARM/_Library/u8x8_d_sed1330.c ****   /* write_pulse_width_ns = */ 220,		/* G242CX Datasheet p5 */
 288:/Users/imashio/Electronics/ARM/_Library/u8x8_d_sed1330.c ****   /* tile_width = */ 40,
 289:/Users/imashio/Electronics/ARM/_Library/u8x8_d_sed1330.c ****   /* tile_hight = */ 30,
 290:/Users/imashio/Electronics/ARM/_Library/u8x8_d_sed1330.c ****   /* default_x_offset = */ 0,
 291:/Users/imashio/Electronics/ARM/_Library/u8x8_d_sed1330.c ****   /* flipmode_x_offset = */ 0,
 292:/Users/imashio/Electronics/ARM/_Library/u8x8_d_sed1330.c ****   /* pixel_width = */ 320,
 293:/Users/imashio/Electronics/ARM/_Library/u8x8_d_sed1330.c ****   /* pixel_height = */ 240
 294:/Users/imashio/Electronics/ARM/_Library/u8x8_d_sed1330.c **** };
 295:/Users/imashio/Electronics/ARM/_Library/u8x8_d_sed1330.c **** 
 296:/Users/imashio/Electronics/ARM/_Library/u8x8_d_sed1330.c **** static const uint8_t u8x8_d_sed1330_320x240_init_seq[] = {
 297:/Users/imashio/Electronics/ARM/_Library/u8x8_d_sed1330.c ****   U8X8_DLY(100),
 298:/Users/imashio/Electronics/ARM/_Library/u8x8_d_sed1330.c ****   U8X8_START_TRANSFER(),             	/* enable chip, delay is part of the transfer start */
 299:/Users/imashio/Electronics/ARM/_Library/u8x8_d_sed1330.c ****   U8X8_DLY(100),
 300:/Users/imashio/Electronics/ARM/_Library/u8x8_d_sed1330.c **** 
 301:/Users/imashio/Electronics/ARM/_Library/u8x8_d_sed1330.c ****   /* system init command, see also u8x8_d_sed1330_powersave0_seq */
 302:/Users/imashio/Electronics/ARM/_Library/u8x8_d_sed1330.c ****   U8X8_CA(0x040, 0x030),		/* sys init (0x040) with one arg, where 0x030 is a wild guess */
 303:/Users/imashio/Electronics/ARM/_Library/u8x8_d_sed1330.c ****   /* system init has total 8 parameters, so 7 more are here */
 304:/Users/imashio/Electronics/ARM/_Library/u8x8_d_sed1330.c ****   U8X8_A(0x087),				/* no idea here... WF (topmost bit) is set to one because it is suggested in th
 305:/Users/imashio/Electronics/ARM/_Library/u8x8_d_sed1330.c ****   U8X8_A(0x007),				/* FY: height of a char+1, does not matter here (hopefully), because we use gra
 306:/Users/imashio/Electronics/ARM/_Library/u8x8_d_sed1330.c ****   U8X8_A(0x027),	/* 40-1 */		/* C/R: this could be the number of horizontal bytes - 1 (Value confir
 307:/Users/imashio/Electronics/ARM/_Library/u8x8_d_sed1330.c ****   U8X8_A(0x039),					/* TC/R: According to app notes fOSC=6Mhz fFF=70Hz --> TC/R = 74d*/
 308:/Users/imashio/Electronics/ARM/_Library/u8x8_d_sed1330.c ****   U8X8_A(0x0ef),				/* L/F: Lines per frame - 1, probably this is the height of the display - 1 (va
 309:/Users/imashio/Electronics/ARM/_Library/u8x8_d_sed1330.c ****   U8X8_A(0x028),				/* Low byte of the virtual screen size. (Value confirmed with app notes p41)   
 310:/Users/imashio/Electronics/ARM/_Library/u8x8_d_sed1330.c ****   U8X8_A(0),					/* High byte of the virtual screen size, see also section 9.1.2 */
 311:/Users/imashio/Electronics/ARM/_Library/u8x8_d_sed1330.c **** 	
 312:/Users/imashio/Electronics/ARM/_Library/u8x8_d_sed1330.c ****   U8X8_C(0x044),				/* SCROLL */
 313:/Users/imashio/Electronics/ARM/_Library/u8x8_d_sed1330.c ****   U8X8_A(0x000),				
 314:/Users/imashio/Electronics/ARM/_Library/u8x8_d_sed1330.c ****   U8X8_A(0x000),				
 315:/Users/imashio/Electronics/ARM/_Library/u8x8_d_sed1330.c ****   U8X8_A(0x0ef),
 316:/Users/imashio/Electronics/ARM/_Library/u8x8_d_sed1330.c ****   U8X8_A(0x0b0),
 317:/Users/imashio/Electronics/ARM/_Library/u8x8_d_sed1330.c ****   U8X8_A(0x004),
 318:/Users/imashio/Electronics/ARM/_Library/u8x8_d_sed1330.c ****   U8X8_A(0x0ef),
 319:/Users/imashio/Electronics/ARM/_Library/u8x8_d_sed1330.c ****   U8X8_A(0x000),
 320:/Users/imashio/Electronics/ARM/_Library/u8x8_d_sed1330.c ****   U8X8_A(0x000),
 321:/Users/imashio/Electronics/ARM/_Library/u8x8_d_sed1330.c ****   U8X8_A(0x000),
 322:/Users/imashio/Electronics/ARM/_Library/u8x8_d_sed1330.c ****   U8X8_A(0x000),
 323:/Users/imashio/Electronics/ARM/_Library/u8x8_d_sed1330.c **** 	
 324:/Users/imashio/Electronics/ARM/_Library/u8x8_d_sed1330.c ****   U8X8_CA(0x05a, 0),			/* HDOT SCR: Horizontal dotwise scroll... set to 0 */
 325:/Users/imashio/Electronics/ARM/_Library/u8x8_d_sed1330.c **** 	
 326:/Users/imashio/Electronics/ARM/_Library/u8x8_d_sed1330.c ****   U8X8_CA(0x05b, 0x0c),			/* OVLAY: 2-layer, all graphics, OR between layer 1 and 2 */
 327:/Users/imashio/Electronics/ARM/_Library/u8x8_d_sed1330.c **** 
 328:/Users/imashio/Electronics/ARM/_Library/u8x8_d_sed1330.c **** 
 329:/Users/imashio/Electronics/ARM/_Library/u8x8_d_sed1330.c ****   U8X8_DLY(100),
 330:/Users/imashio/Electronics/ARM/_Library/u8x8_d_sed1330.c ****   U8X8_END_TRANSFER(),             	/* disable chip */
 331:/Users/imashio/Electronics/ARM/_Library/u8x8_d_sed1330.c ****   U8X8_DLY(100),
 332:/Users/imashio/Electronics/ARM/_Library/u8x8_d_sed1330.c **** };
 333:/Users/imashio/Electronics/ARM/_Library/u8x8_d_sed1330.c **** 
 334:/Users/imashio/Electronics/ARM/_Library/u8x8_d_sed1330.c **** 
 335:/Users/imashio/Electronics/ARM/_Library/u8x8_d_sed1330.c **** 
 336:/Users/imashio/Electronics/ARM/_Library/u8x8_d_sed1330.c **** uint8_t u8x8_d_ra8835_320x240(u8x8_t *u8x8, uint8_t msg, uint8_t arg_int, void *arg_ptr)
ARM GAS  /var/folders/v3/wysfpd052nz8jkbx04pk0ym80000gn/T//ccaAAksX.s 			page 13


 337:/Users/imashio/Electronics/ARM/_Library/u8x8_d_sed1330.c **** {
 339              		.loc 1 337 0
 340              		.cfi_startproc
 341              		@ args = 0, pretend = 0, frame = 0
 342              		@ frame_needed = 0, uses_anonymous_args = 0
 343              	.LVL42:
 338:/Users/imashio/Electronics/ARM/_Library/u8x8_d_sed1330.c ****   switch(msg)
 344              		.loc 1 338 0
 345 0000 0929     		cmp	r1, #9
 337:/Users/imashio/Electronics/ARM/_Library/u8x8_d_sed1330.c ****   switch(msg)
 346              		.loc 1 337 0
 347 0002 70B5     		push	{r4, r5, r6, lr}
 348              	.LCFI7:
 349              		.cfi_def_cfa_offset 16
 350              		.cfi_offset 4, -16
 351              		.cfi_offset 5, -12
 352              		.cfi_offset 6, -8
 353              		.cfi_offset 14, -4
 354              		.loc 1 338 0
 355 0004 0ED0     		beq	.L37
 356 0006 0A29     		cmp	r1, #10
 357 0008 08D1     		bne	.L42
 358 000a 0546     		mov	r5, r0
 339:/Users/imashio/Electronics/ARM/_Library/u8x8_d_sed1330.c ****   {
 340:/Users/imashio/Electronics/ARM/_Library/u8x8_d_sed1330.c ****     case U8X8_MSG_DISPLAY_SETUP_MEMORY:
 341:/Users/imashio/Electronics/ARM/_Library/u8x8_d_sed1330.c ****       u8x8_d_helper_display_setup_memory(u8x8, &u8x8_sed1330_320x240_display_info);
 342:/Users/imashio/Electronics/ARM/_Library/u8x8_d_sed1330.c ****       break;
 343:/Users/imashio/Electronics/ARM/_Library/u8x8_d_sed1330.c ****     case U8X8_MSG_DISPLAY_INIT:
 344:/Users/imashio/Electronics/ARM/_Library/u8x8_d_sed1330.c ****       u8x8_d_helper_display_init(u8x8);
 359              		.loc 1 344 0
 360 000c FFF7FEFF 		bl	u8x8_d_helper_display_init
 361              	.LVL43:
 345:/Users/imashio/Electronics/ARM/_Library/u8x8_d_sed1330.c ****       u8x8_cad_SendSequence(u8x8, u8x8_d_sed1330_320x240_init_seq);
 362              		.loc 1 345 0
 363 0010 2846     		mov	r0, r5
 364 0012 0749     		ldr	r1, .L43
 365 0014 FFF7FEFF 		bl	u8x8_cad_SendSequence
 366              	.LVL44:
 346:/Users/imashio/Electronics/ARM/_Library/u8x8_d_sed1330.c ****       break;
 347:/Users/imashio/Electronics/ARM/_Library/u8x8_d_sed1330.c ****     default:
 348:/Users/imashio/Electronics/ARM/_Library/u8x8_d_sed1330.c ****       return u8x8_d_sed1330_common(u8x8, msg, arg_int, arg_ptr);
 349:/Users/imashio/Electronics/ARM/_Library/u8x8_d_sed1330.c ****   }
 350:/Users/imashio/Electronics/ARM/_Library/u8x8_d_sed1330.c ****   return 1;
 351:/Users/imashio/Electronics/ARM/_Library/u8x8_d_sed1330.c **** }
 367              		.loc 1 351 0
 368 0018 0120     		movs	r0, #1
 369 001a 70BD     		pop	{r4, r5, r6, pc}
 370              	.LVL45:
 371              	.L42:
 372 001c BDE87040 		pop	{r4, r5, r6, lr}
 373              	.LCFI8:
 374              		.cfi_remember_state
 375              		.cfi_restore 14
 376              		.cfi_restore 6
 377              		.cfi_restore 5
 378              		.cfi_restore 4
 379              		.cfi_def_cfa_offset 0
ARM GAS  /var/folders/v3/wysfpd052nz8jkbx04pk0ym80000gn/T//ccaAAksX.s 			page 14


 348:/Users/imashio/Electronics/ARM/_Library/u8x8_d_sed1330.c ****   }
 380              		.loc 1 348 0
 381 0020 FFF7FEBF 		b	u8x8_d_sed1330_common
 382              	.LVL46:
 383              	.L37:
 384              	.LCFI9:
 385              		.cfi_restore_state
 341:/Users/imashio/Electronics/ARM/_Library/u8x8_d_sed1330.c ****       break;
 386              		.loc 1 341 0
 387 0024 0349     		ldr	r1, .L43+4
 388              	.LVL47:
 389 0026 FFF7FEFF 		bl	u8x8_d_helper_display_setup_memory
 390              	.LVL48:
 391              		.loc 1 351 0
 392 002a 0120     		movs	r0, #1
 393 002c 70BD     		pop	{r4, r5, r6, pc}
 394              	.L44:
 395 002e 00BF     		.align	2
 396              	.L43:
 397 0030 00000000 		.word	.LANCHOR6
 398 0034 00000000 		.word	.LANCHOR5
 399              		.cfi_endproc
 400              	.LFE3:
 402              		.section	.rodata.u8x8_d_rh8835_nhd_240128_init_seq,"a",%progbits
 403              		.align	2
 404              		.set	.LANCHOR4,. + 0
 407              	u8x8_d_rh8835_nhd_240128_init_seq:
 408 0000 FE       		.byte	-2
 409 0001 64       		.byte	100
 410 0002 18       		.byte	24
 411 0003 FE       		.byte	-2
 412 0004 64       		.byte	100
 413 0005 15       		.byte	21
 414 0006 40       		.byte	64
 415 0007 16       		.byte	22
 416 0008 30       		.byte	48
 417 0009 16       		.byte	22
 418 000a 87       		.byte	-121
 419 000b 16       		.byte	22
 420 000c 07       		.byte	7
 421 000d 16       		.byte	22
 422 000e 1D       		.byte	29
 423 000f 16       		.byte	22
 424 0010 50       		.byte	80
 425 0011 16       		.byte	22
 426 0012 80       		.byte	-128
 427 0013 16       		.byte	22
 428 0014 1E       		.byte	30
 429 0015 16       		.byte	22
 430 0016 00       		.byte	0
 431 0017 15       		.byte	21
 432 0018 44       		.byte	68
 433 0019 16       		.byte	22
 434 001a 00       		.byte	0
 435 001b 16       		.byte	22
 436 001c 00       		.byte	0
 437 001d 16       		.byte	22
ARM GAS  /var/folders/v3/wysfpd052nz8jkbx04pk0ym80000gn/T//ccaAAksX.s 			page 15


 438 001e 80       		.byte	-128
 439 001f 16       		.byte	22
 440 0020 00       		.byte	0
 441 0021 16       		.byte	22
 442 0022 40       		.byte	64
 443 0023 16       		.byte	22
 444 0024 80       		.byte	-128
 445 0025 16       		.byte	22
 446 0026 00       		.byte	0
 447 0027 16       		.byte	22
 448 0028 00       		.byte	0
 449 0029 16       		.byte	22
 450 002a 00       		.byte	0
 451 002b 16       		.byte	22
 452 002c 00       		.byte	0
 453 002d 15       		.byte	21
 454 002e 5B       		.byte	91
 455 002f 16       		.byte	22
 456 0030 0C       		.byte	12
 457 0031 FE       		.byte	-2
 458 0032 64       		.byte	100
 459 0033 19       		.byte	25
 460 0034 FE       		.byte	-2
 461 0035 64       		.byte	100
 462              		.section	.rodata.u8x8_d_sed1330_240x128_init_seq,"a",%progbits
 463              		.align	2
 464              		.set	.LANCHOR3,. + 0
 467              	u8x8_d_sed1330_240x128_init_seq:
 468 0000 FE       		.byte	-2
 469 0001 64       		.byte	100
 470 0002 18       		.byte	24
 471 0003 FE       		.byte	-2
 472 0004 64       		.byte	100
 473 0005 15       		.byte	21
 474 0006 40       		.byte	64
 475 0007 16       		.byte	22
 476 0008 30       		.byte	48
 477 0009 16       		.byte	22
 478 000a 87       		.byte	-121
 479 000b 16       		.byte	22
 480 000c 07       		.byte	7
 481 000d 16       		.byte	22
 482 000e 1D       		.byte	29
 483 000f 16       		.byte	22
 484 0010 50       		.byte	80
 485 0011 16       		.byte	22
 486 0012 80       		.byte	-128
 487 0013 16       		.byte	22
 488 0014 1E       		.byte	30
 489 0015 16       		.byte	22
 490 0016 00       		.byte	0
 491 0017 15       		.byte	21
 492 0018 44       		.byte	68
 493 0019 16       		.byte	22
 494 001a 00       		.byte	0
 495 001b 16       		.byte	22
 496 001c 00       		.byte	0
ARM GAS  /var/folders/v3/wysfpd052nz8jkbx04pk0ym80000gn/T//ccaAAksX.s 			page 16


 497 001d 16       		.byte	22
 498 001e 80       		.byte	-128
 499 001f 16       		.byte	22
 500 0020 00       		.byte	0
 501 0021 16       		.byte	22
 502 0022 40       		.byte	64
 503 0023 16       		.byte	22
 504 0024 80       		.byte	-128
 505 0025 16       		.byte	22
 506 0026 00       		.byte	0
 507 0027 16       		.byte	22
 508 0028 00       		.byte	0
 509 0029 16       		.byte	22
 510 002a 00       		.byte	0
 511 002b 16       		.byte	22
 512 002c 00       		.byte	0
 513 002d 15       		.byte	21
 514 002e 5A       		.byte	90
 515 002f 16       		.byte	22
 516 0030 00       		.byte	0
 517 0031 15       		.byte	21
 518 0032 5B       		.byte	91
 519 0033 16       		.byte	22
 520 0034 0C       		.byte	12
 521 0035 FE       		.byte	-2
 522 0036 64       		.byte	100
 523 0037 19       		.byte	25
 524 0038 FE       		.byte	-2
 525 0039 64       		.byte	100
 526              		.section	.rodata.u8x8_d_sed1330_320x240_init_seq,"a",%progbits
 527              		.align	2
 528              		.set	.LANCHOR6,. + 0
 531              	u8x8_d_sed1330_320x240_init_seq:
 532 0000 FE       		.byte	-2
 533 0001 64       		.byte	100
 534 0002 18       		.byte	24
 535 0003 FE       		.byte	-2
 536 0004 64       		.byte	100
 537 0005 15       		.byte	21
 538 0006 40       		.byte	64
 539 0007 16       		.byte	22
 540 0008 30       		.byte	48
 541 0009 16       		.byte	22
 542 000a 87       		.byte	-121
 543 000b 16       		.byte	22
 544 000c 07       		.byte	7
 545 000d 16       		.byte	22
 546 000e 27       		.byte	39
 547 000f 16       		.byte	22
 548 0010 39       		.byte	57
 549 0011 16       		.byte	22
 550 0012 EF       		.byte	-17
 551 0013 16       		.byte	22
 552 0014 28       		.byte	40
 553 0015 16       		.byte	22
 554 0016 00       		.byte	0
 555 0017 15       		.byte	21
ARM GAS  /var/folders/v3/wysfpd052nz8jkbx04pk0ym80000gn/T//ccaAAksX.s 			page 17


 556 0018 44       		.byte	68
 557 0019 16       		.byte	22
 558 001a 00       		.byte	0
 559 001b 16       		.byte	22
 560 001c 00       		.byte	0
 561 001d 16       		.byte	22
 562 001e EF       		.byte	-17
 563 001f 16       		.byte	22
 564 0020 B0       		.byte	-80
 565 0021 16       		.byte	22
 566 0022 04       		.byte	4
 567 0023 16       		.byte	22
 568 0024 EF       		.byte	-17
 569 0025 16       		.byte	22
 570 0026 00       		.byte	0
 571 0027 16       		.byte	22
 572 0028 00       		.byte	0
 573 0029 16       		.byte	22
 574 002a 00       		.byte	0
 575 002b 16       		.byte	22
 576 002c 00       		.byte	0
 577 002d 15       		.byte	21
 578 002e 5A       		.byte	90
 579 002f 16       		.byte	22
 580 0030 00       		.byte	0
 581 0031 15       		.byte	21
 582 0032 5B       		.byte	91
 583 0033 16       		.byte	22
 584 0034 0C       		.byte	12
 585 0035 FE       		.byte	-2
 586 0036 64       		.byte	100
 587 0037 19       		.byte	25
 588 0038 FE       		.byte	-2
 589 0039 64       		.byte	100
 590              		.section	.rodata.u8x8_d_sed1330_powersave0_seq,"a",%progbits
 591              		.align	2
 592              		.set	.LANCHOR0,. + 0
 595              	u8x8_d_sed1330_powersave0_seq:
 596 0000 18       		.byte	24
 597 0001 15       		.byte	21
 598 0002 40       		.byte	64
 599 0003 16       		.byte	22
 600 0004 30       		.byte	48
 601 0005 15       		.byte	21
 602 0006 59       		.byte	89
 603 0007 16       		.byte	22
 604 0008 04       		.byte	4
 605 0009 19       		.byte	25
 606 000a FF       		.byte	-1
 607              		.section	.rodata.u8x8_d_sed1330_powersave1_seq,"a",%progbits
 608              		.align	2
 609              		.set	.LANCHOR1,. + 0
 612              	u8x8_d_sed1330_powersave1_seq:
 613 0000 18       		.byte	24
 614 0001 15       		.byte	21
 615 0002 58       		.byte	88
 616 0003 16       		.byte	22
ARM GAS  /var/folders/v3/wysfpd052nz8jkbx04pk0ym80000gn/T//ccaAAksX.s 			page 18


 617 0004 00       		.byte	0
 618 0005 19       		.byte	25
 619 0006 FF       		.byte	-1
 620              		.section	.rodata.u8x8_sed1330_240x128_display_info,"a",%progbits
 621              		.align	2
 622              		.set	.LANCHOR2,. + 0
 625              	u8x8_sed1330_240x128_display_info:
 626 0000 00       		.byte	0
 627 0001 01       		.byte	1
 628 0002 1E       		.byte	30
 629 0003 0A       		.byte	10
 630 0004 01       		.byte	1
 631 0005 06       		.byte	6
 632 0006 14       		.byte	20
 633 0007 8C       		.byte	-116
 634 0008 40420F00 		.word	1000000
 635 000c 00       		.byte	0
 636 000d 04       		.byte	4
 637 000e 78       		.byte	120
 638 000f DC       		.byte	-36
 639 0010 1E       		.byte	30
 640 0011 10       		.byte	16
 641 0012 00       		.byte	0
 642 0013 00       		.byte	0
 643 0014 F000     		.short	240
 644 0016 8000     		.short	128
 645              		.section	.rodata.u8x8_sed1330_320x240_display_info,"a",%progbits
 646              		.align	2
 647              		.set	.LANCHOR5,. + 0
 650              	u8x8_sed1330_320x240_display_info:
 651 0000 00       		.byte	0
 652 0001 01       		.byte	1
 653 0002 1E       		.byte	30
 654 0003 0A       		.byte	10
 655 0004 01       		.byte	1
 656 0005 06       		.byte	6
 657 0006 14       		.byte	20
 658 0007 8C       		.byte	-116
 659 0008 40420F00 		.word	1000000
 660 000c 00       		.byte	0
 661 000d 04       		.byte	4
 662 000e 78       		.byte	120
 663 000f DC       		.byte	-36
 664 0010 28       		.byte	40
 665 0011 1E       		.byte	30
 666 0012 00       		.byte	0
 667 0013 00       		.byte	0
 668 0014 4001     		.short	320
 669 0016 F000     		.short	240
 670              		.text
 671              	.Letext0:
 672              		.file 2 "/usr/local/gcc-arm-none-eabi-7-2018-q2-update/arm-none-eabi/include/machine/_default_type
 673              		.file 3 "/usr/local/gcc-arm-none-eabi-7-2018-q2-update/arm-none-eabi/include/sys/_stdint.h"
 674              		.file 4 "/Users/imashio/Electronics/ARM/_Library/u8x8.h"
ARM GAS  /var/folders/v3/wysfpd052nz8jkbx04pk0ym80000gn/T//ccaAAksX.s 			page 19

