ARM GAS  /var/folders/v3/wysfpd052nz8jkbx04pk0ym80000gn/T//ccPSmOY8.s 			page 1


   1              		.cpu cortex-m4
   2              		.eabi_attribute 27, 1
   3              		.eabi_attribute 28, 1
   4              		.eabi_attribute 20, 1
   5              		.eabi_attribute 21, 1
   6              		.eabi_attribute 23, 3
   7              		.eabi_attribute 24, 1
   8              		.eabi_attribute 25, 1
   9              		.eabi_attribute 26, 1
  10              		.eabi_attribute 30, 2
  11              		.eabi_attribute 34, 1
  12              		.eabi_attribute 18, 4
  13              		.file	"u8x8_d_ssd1306_64x48.c"
  14              		.text
  15              	.Ltext0:
  16              		.cfi_sections	.debug_frame
  17              		.section	.text.u8x8_d_ssd1306_64x48_er,"ax",%progbits
  18              		.align	1
  19              		.p2align 2,,3
  20              		.global	u8x8_d_ssd1306_64x48_er
  21              		.syntax unified
  22              		.thumb
  23              		.thumb_func
  24              		.fpu fpv4-sp-d16
  26              	u8x8_d_ssd1306_64x48_er:
  27              	.LFB1:
  28              		.file 1 "/Users/imashio/Electronics/ARM/_Library/u8x8_d_ssd1306_64x48.c"
   1:/Users/imashio/Electronics/ARM/_Library/u8x8_d_ssd1306_64x48.c **** /*
   2:/Users/imashio/Electronics/ARM/_Library/u8x8_d_ssd1306_64x48.c **** 
   3:/Users/imashio/Electronics/ARM/_Library/u8x8_d_ssd1306_64x48.c ****   u8x8_d_ssd1306_64x48.c
   4:/Users/imashio/Electronics/ARM/_Library/u8x8_d_ssd1306_64x48.c **** 
   5:/Users/imashio/Electronics/ARM/_Library/u8x8_d_ssd1306_64x48.c ****   Universal 8bit Graphics Library (https://github.com/olikraus/u8g2/)
   6:/Users/imashio/Electronics/ARM/_Library/u8x8_d_ssd1306_64x48.c **** 
   7:/Users/imashio/Electronics/ARM/_Library/u8x8_d_ssd1306_64x48.c ****   Copyright (c) 2016, olikraus@gmail.com
   8:/Users/imashio/Electronics/ARM/_Library/u8x8_d_ssd1306_64x48.c ****   All rights reserved.
   9:/Users/imashio/Electronics/ARM/_Library/u8x8_d_ssd1306_64x48.c **** 
  10:/Users/imashio/Electronics/ARM/_Library/u8x8_d_ssd1306_64x48.c ****   Redistribution and use in source and binary forms, with or without modification, 
  11:/Users/imashio/Electronics/ARM/_Library/u8x8_d_ssd1306_64x48.c ****   are permitted provided that the following conditions are met:
  12:/Users/imashio/Electronics/ARM/_Library/u8x8_d_ssd1306_64x48.c **** 
  13:/Users/imashio/Electronics/ARM/_Library/u8x8_d_ssd1306_64x48.c ****   * Redistributions of source code must retain the above copyright notice, this list 
  14:/Users/imashio/Electronics/ARM/_Library/u8x8_d_ssd1306_64x48.c ****     of conditions and the following disclaimer.
  15:/Users/imashio/Electronics/ARM/_Library/u8x8_d_ssd1306_64x48.c ****     
  16:/Users/imashio/Electronics/ARM/_Library/u8x8_d_ssd1306_64x48.c ****   * Redistributions in binary form must reproduce the above copyright notice, this 
  17:/Users/imashio/Electronics/ARM/_Library/u8x8_d_ssd1306_64x48.c ****     list of conditions and the following disclaimer in the documentation and/or other 
  18:/Users/imashio/Electronics/ARM/_Library/u8x8_d_ssd1306_64x48.c ****     materials provided with the distribution.
  19:/Users/imashio/Electronics/ARM/_Library/u8x8_d_ssd1306_64x48.c **** 
  20:/Users/imashio/Electronics/ARM/_Library/u8x8_d_ssd1306_64x48.c ****   THIS SOFTWARE IS PROVIDED BY THE COPYRIGHT HOLDERS AND 
  21:/Users/imashio/Electronics/ARM/_Library/u8x8_d_ssd1306_64x48.c ****   CONTRIBUTORS "AS IS" AND ANY EXPRESS OR IMPLIED WARRANTIES, 
  22:/Users/imashio/Electronics/ARM/_Library/u8x8_d_ssd1306_64x48.c ****   INCLUDING, BUT NOT LIMITED TO, THE IMPLIED WARRANTIES OF 
  23:/Users/imashio/Electronics/ARM/_Library/u8x8_d_ssd1306_64x48.c ****   MERCHANTABILITY AND FITNESS FOR A PARTICULAR PURPOSE ARE 
  24:/Users/imashio/Electronics/ARM/_Library/u8x8_d_ssd1306_64x48.c ****   DISCLAIMED. IN NO EVENT SHALL THE COPYRIGHT HOLDER OR 
  25:/Users/imashio/Electronics/ARM/_Library/u8x8_d_ssd1306_64x48.c ****   CONTRIBUTORS BE LIABLE FOR ANY DIRECT, INDIRECT, INCIDENTAL, 
  26:/Users/imashio/Electronics/ARM/_Library/u8x8_d_ssd1306_64x48.c ****   SPECIAL, EXEMPLARY, OR CONSEQUENTIAL DAMAGES (INCLUDING, BUT 
  27:/Users/imashio/Electronics/ARM/_Library/u8x8_d_ssd1306_64x48.c ****   NOT LIMITED TO, PROCUREMENT OF SUBSTITUTE GOODS OR SERVICES; 
  28:/Users/imashio/Electronics/ARM/_Library/u8x8_d_ssd1306_64x48.c ****   LOSS OF USE, DATA, OR PROFITS; OR BUSINESS INTERRUPTION) HOWEVER 
  29:/Users/imashio/Electronics/ARM/_Library/u8x8_d_ssd1306_64x48.c ****   CAUSED AND ON ANY THEORY OF LIABILITY, WHETHER IN CONTRACT, 
  30:/Users/imashio/Electronics/ARM/_Library/u8x8_d_ssd1306_64x48.c ****   STRICT LIABILITY, OR TORT (INCLUDING NEGLIGENCE OR OTHERWISE) 
ARM GAS  /var/folders/v3/wysfpd052nz8jkbx04pk0ym80000gn/T//ccPSmOY8.s 			page 2


  31:/Users/imashio/Electronics/ARM/_Library/u8x8_d_ssd1306_64x48.c ****   ARISING IN ANY WAY OUT OF THE USE OF THIS SOFTWARE, EVEN IF 
  32:/Users/imashio/Electronics/ARM/_Library/u8x8_d_ssd1306_64x48.c ****   ADVISED OF THE POSSIBILITY OF SUCH DAMAGE.  
  33:/Users/imashio/Electronics/ARM/_Library/u8x8_d_ssd1306_64x48.c ****   
  34:/Users/imashio/Electronics/ARM/_Library/u8x8_d_ssd1306_64x48.c **** */
  35:/Users/imashio/Electronics/ARM/_Library/u8x8_d_ssd1306_64x48.c **** 
  36:/Users/imashio/Electronics/ARM/_Library/u8x8_d_ssd1306_64x48.c **** 
  37:/Users/imashio/Electronics/ARM/_Library/u8x8_d_ssd1306_64x48.c **** #include "u8x8.h"
  38:/Users/imashio/Electronics/ARM/_Library/u8x8_d_ssd1306_64x48.c **** 
  39:/Users/imashio/Electronics/ARM/_Library/u8x8_d_ssd1306_64x48.c **** 
  40:/Users/imashio/Electronics/ARM/_Library/u8x8_d_ssd1306_64x48.c **** 
  41:/Users/imashio/Electronics/ARM/_Library/u8x8_d_ssd1306_64x48.c **** /* EastRising 0.66 OLED */
  42:/Users/imashio/Electronics/ARM/_Library/u8x8_d_ssd1306_64x48.c **** static const uint8_t u8x8_d_ssd1306_64x48_er_init_seq[] = {
  43:/Users/imashio/Electronics/ARM/_Library/u8x8_d_ssd1306_64x48.c ****     
  44:/Users/imashio/Electronics/ARM/_Library/u8x8_d_ssd1306_64x48.c ****   U8X8_START_TRANSFER(),             	/* enable chip, delay is part of the transfer start */
  45:/Users/imashio/Electronics/ARM/_Library/u8x8_d_ssd1306_64x48.c ****   
  46:/Users/imashio/Electronics/ARM/_Library/u8x8_d_ssd1306_64x48.c ****   
  47:/Users/imashio/Electronics/ARM/_Library/u8x8_d_ssd1306_64x48.c ****   U8X8_C(0x0ae),		                /* display off */
  48:/Users/imashio/Electronics/ARM/_Library/u8x8_d_ssd1306_64x48.c ****   U8X8_CA(0x0d5, 0x080),		/* clock divide ratio (0x00=1) and oscillator frequency (0x8) */
  49:/Users/imashio/Electronics/ARM/_Library/u8x8_d_ssd1306_64x48.c ****   U8X8_CA(0x0a8, 0x02f),		/* multiplex ratio, 0.66 OLED: changed from 0x1f to 0x2f */
  50:/Users/imashio/Electronics/ARM/_Library/u8x8_d_ssd1306_64x48.c ****   U8X8_CA(0x0d3, 0x000),		/* display offset, 0.66 OLED  */
  51:/Users/imashio/Electronics/ARM/_Library/u8x8_d_ssd1306_64x48.c ****   U8X8_C(0x040),		                /* set display start line to 0, 0.66 OLED */
  52:/Users/imashio/Electronics/ARM/_Library/u8x8_d_ssd1306_64x48.c ****   U8X8_CA(0x08d, 0x014),		/* [2] charge pump setting (p62): 0x014 enable, 0x010 disable, 0.66 OLED 
  53:/Users/imashio/Electronics/ARM/_Library/u8x8_d_ssd1306_64x48.c ****   U8X8_CA(0x020, 0x000),		/* page addressing mode */
  54:/Users/imashio/Electronics/ARM/_Library/u8x8_d_ssd1306_64x48.c ****   
  55:/Users/imashio/Electronics/ARM/_Library/u8x8_d_ssd1306_64x48.c ****   U8X8_C(0x0a1),				/* segment remap a0/a1, 0.66 OLED  */
  56:/Users/imashio/Electronics/ARM/_Library/u8x8_d_ssd1306_64x48.c ****   U8X8_C(0x0c8),				/* c0: scan dir normal, c8: reverse, 0.66 OLED  */
  57:/Users/imashio/Electronics/ARM/_Library/u8x8_d_ssd1306_64x48.c ****   // Flipmode
  58:/Users/imashio/Electronics/ARM/_Library/u8x8_d_ssd1306_64x48.c ****   // U8X8_C(0x0a0),				/* segment remap a0/a1*/
  59:/Users/imashio/Electronics/ARM/_Library/u8x8_d_ssd1306_64x48.c ****   // U8X8_C(0x0c0),				/* c0: scan dir normal, c8: reverse */
  60:/Users/imashio/Electronics/ARM/_Library/u8x8_d_ssd1306_64x48.c ****   
  61:/Users/imashio/Electronics/ARM/_Library/u8x8_d_ssd1306_64x48.c ****   U8X8_CA(0x0da, 0x012),		/* com pin HW config, sequential com pin config (bit 4), disable left/rig
  62:/Users/imashio/Electronics/ARM/_Library/u8x8_d_ssd1306_64x48.c ****   U8X8_CA(0x081, 0x0cf),		/* [2] set contrast control, 0.66 OLED datasheet: 0xcf */
  63:/Users/imashio/Electronics/ARM/_Library/u8x8_d_ssd1306_64x48.c ****   U8X8_CA(0x0d9, 0x022),		/* [2] pre-charge period 0x022/f1, 0.66 OLED datasheet: 0x22 */
  64:/Users/imashio/Electronics/ARM/_Library/u8x8_d_ssd1306_64x48.c ****   U8X8_CA(0x0db, 0x000),		/* vcomh deselect level, 0.66 OLED datasheet: 0x00 */
  65:/Users/imashio/Electronics/ARM/_Library/u8x8_d_ssd1306_64x48.c ****   
  66:/Users/imashio/Electronics/ARM/_Library/u8x8_d_ssd1306_64x48.c ****   U8X8_C(0x02e),				/* Deactivate scroll */ 
  67:/Users/imashio/Electronics/ARM/_Library/u8x8_d_ssd1306_64x48.c ****   U8X8_C(0x0a4),				/* output ram to display */
  68:/Users/imashio/Electronics/ARM/_Library/u8x8_d_ssd1306_64x48.c ****   U8X8_C(0x0a6),				/* none inverted normal display mode */
  69:/Users/imashio/Electronics/ARM/_Library/u8x8_d_ssd1306_64x48.c ****     
  70:/Users/imashio/Electronics/ARM/_Library/u8x8_d_ssd1306_64x48.c ****   U8X8_END_TRANSFER(),             	/* disable chip */
  71:/Users/imashio/Electronics/ARM/_Library/u8x8_d_ssd1306_64x48.c ****   U8X8_END()             			/* end of sequence */
  72:/Users/imashio/Electronics/ARM/_Library/u8x8_d_ssd1306_64x48.c **** };
  73:/Users/imashio/Electronics/ARM/_Library/u8x8_d_ssd1306_64x48.c **** 
  74:/Users/imashio/Electronics/ARM/_Library/u8x8_d_ssd1306_64x48.c **** static const uint8_t u8x8_d_ssd1306_64x48_powersave0_seq[] = {
  75:/Users/imashio/Electronics/ARM/_Library/u8x8_d_ssd1306_64x48.c ****   U8X8_START_TRANSFER(),             	/* enable chip, delay is part of the transfer start */
  76:/Users/imashio/Electronics/ARM/_Library/u8x8_d_ssd1306_64x48.c ****   U8X8_C(0x0af),		                /* display on */
  77:/Users/imashio/Electronics/ARM/_Library/u8x8_d_ssd1306_64x48.c ****   U8X8_END_TRANSFER(),             	/* disable chip */
  78:/Users/imashio/Electronics/ARM/_Library/u8x8_d_ssd1306_64x48.c ****   U8X8_END()             			/* end of sequence */
  79:/Users/imashio/Electronics/ARM/_Library/u8x8_d_ssd1306_64x48.c **** };
  80:/Users/imashio/Electronics/ARM/_Library/u8x8_d_ssd1306_64x48.c **** 
  81:/Users/imashio/Electronics/ARM/_Library/u8x8_d_ssd1306_64x48.c **** static const uint8_t u8x8_d_ssd1306_64x48_powersave1_seq[] = {
  82:/Users/imashio/Electronics/ARM/_Library/u8x8_d_ssd1306_64x48.c ****   U8X8_START_TRANSFER(),             	/* enable chip, delay is part of the transfer start */
  83:/Users/imashio/Electronics/ARM/_Library/u8x8_d_ssd1306_64x48.c ****   U8X8_C(0x0ae),		                /* display off */
  84:/Users/imashio/Electronics/ARM/_Library/u8x8_d_ssd1306_64x48.c ****   U8X8_END_TRANSFER(),             	/* disable chip */
  85:/Users/imashio/Electronics/ARM/_Library/u8x8_d_ssd1306_64x48.c ****   U8X8_END()             			/* end of sequence */
  86:/Users/imashio/Electronics/ARM/_Library/u8x8_d_ssd1306_64x48.c **** };
  87:/Users/imashio/Electronics/ARM/_Library/u8x8_d_ssd1306_64x48.c **** 
ARM GAS  /var/folders/v3/wysfpd052nz8jkbx04pk0ym80000gn/T//ccPSmOY8.s 			page 3


  88:/Users/imashio/Electronics/ARM/_Library/u8x8_d_ssd1306_64x48.c **** static const uint8_t u8x8_d_ssd1306_64x48_flip0_seq[] = {
  89:/Users/imashio/Electronics/ARM/_Library/u8x8_d_ssd1306_64x48.c ****   U8X8_START_TRANSFER(),             	/* enable chip, delay is part of the transfer start */
  90:/Users/imashio/Electronics/ARM/_Library/u8x8_d_ssd1306_64x48.c ****   U8X8_C(0x0a1),				/* segment remap a0/a1*/
  91:/Users/imashio/Electronics/ARM/_Library/u8x8_d_ssd1306_64x48.c ****   U8X8_C(0x0c8),				/* c0: scan dir normal, c8: reverse */
  92:/Users/imashio/Electronics/ARM/_Library/u8x8_d_ssd1306_64x48.c ****   U8X8_END_TRANSFER(),             	/* disable chip */
  93:/Users/imashio/Electronics/ARM/_Library/u8x8_d_ssd1306_64x48.c ****   U8X8_END()             			/* end of sequence */
  94:/Users/imashio/Electronics/ARM/_Library/u8x8_d_ssd1306_64x48.c **** };
  95:/Users/imashio/Electronics/ARM/_Library/u8x8_d_ssd1306_64x48.c **** 
  96:/Users/imashio/Electronics/ARM/_Library/u8x8_d_ssd1306_64x48.c **** static const uint8_t u8x8_d_ssd1306_64x48_flip1_seq[] = {
  97:/Users/imashio/Electronics/ARM/_Library/u8x8_d_ssd1306_64x48.c ****   U8X8_START_TRANSFER(),             	/* enable chip, delay is part of the transfer start */
  98:/Users/imashio/Electronics/ARM/_Library/u8x8_d_ssd1306_64x48.c ****   U8X8_C(0x0a0),				/* segment remap a0/a1*/
  99:/Users/imashio/Electronics/ARM/_Library/u8x8_d_ssd1306_64x48.c ****   U8X8_C(0x0c0),				/* c0: scan dir normal, c8: reverse */
 100:/Users/imashio/Electronics/ARM/_Library/u8x8_d_ssd1306_64x48.c ****   U8X8_END_TRANSFER(),             	/* disable chip */
 101:/Users/imashio/Electronics/ARM/_Library/u8x8_d_ssd1306_64x48.c ****   U8X8_END()             			/* end of sequence */
 102:/Users/imashio/Electronics/ARM/_Library/u8x8_d_ssd1306_64x48.c **** };
 103:/Users/imashio/Electronics/ARM/_Library/u8x8_d_ssd1306_64x48.c **** 
 104:/Users/imashio/Electronics/ARM/_Library/u8x8_d_ssd1306_64x48.c **** 
 105:/Users/imashio/Electronics/ARM/_Library/u8x8_d_ssd1306_64x48.c **** static uint8_t u8x8_d_ssd1306_64x48_generic(u8x8_t *u8x8, uint8_t msg, uint8_t arg_int, void *arg_p
 106:/Users/imashio/Electronics/ARM/_Library/u8x8_d_ssd1306_64x48.c **** {
 107:/Users/imashio/Electronics/ARM/_Library/u8x8_d_ssd1306_64x48.c ****   uint8_t x, c;
 108:/Users/imashio/Electronics/ARM/_Library/u8x8_d_ssd1306_64x48.c ****   uint8_t *ptr;
 109:/Users/imashio/Electronics/ARM/_Library/u8x8_d_ssd1306_64x48.c ****   switch(msg)
 110:/Users/imashio/Electronics/ARM/_Library/u8x8_d_ssd1306_64x48.c ****   {
 111:/Users/imashio/Electronics/ARM/_Library/u8x8_d_ssd1306_64x48.c ****     /* handled by the calling function
 112:/Users/imashio/Electronics/ARM/_Library/u8x8_d_ssd1306_64x48.c ****     case U8X8_MSG_DISPLAY_SETUP_MEMORY:
 113:/Users/imashio/Electronics/ARM/_Library/u8x8_d_ssd1306_64x48.c ****       u8x8_d_helper_display_setup_memory(u8x8, &u8x8_ssd1306_64x48_display_info);
 114:/Users/imashio/Electronics/ARM/_Library/u8x8_d_ssd1306_64x48.c ****       break;
 115:/Users/imashio/Electronics/ARM/_Library/u8x8_d_ssd1306_64x48.c ****     case U8X8_MSG_DISPLAY_INIT:
 116:/Users/imashio/Electronics/ARM/_Library/u8x8_d_ssd1306_64x48.c ****       u8x8_d_helper_display_init(u8x8);
 117:/Users/imashio/Electronics/ARM/_Library/u8x8_d_ssd1306_64x48.c ****       u8x8_cad_SendSequence(u8x8, u8x8_d_ssd1306_64x48_er_init_seq);    
 118:/Users/imashio/Electronics/ARM/_Library/u8x8_d_ssd1306_64x48.c ****       break;
 119:/Users/imashio/Electronics/ARM/_Library/u8x8_d_ssd1306_64x48.c ****     */
 120:/Users/imashio/Electronics/ARM/_Library/u8x8_d_ssd1306_64x48.c ****     case U8X8_MSG_DISPLAY_SET_POWER_SAVE:
 121:/Users/imashio/Electronics/ARM/_Library/u8x8_d_ssd1306_64x48.c ****       if ( arg_int == 0 )
 122:/Users/imashio/Electronics/ARM/_Library/u8x8_d_ssd1306_64x48.c **** 	u8x8_cad_SendSequence(u8x8, u8x8_d_ssd1306_64x48_powersave0_seq);
 123:/Users/imashio/Electronics/ARM/_Library/u8x8_d_ssd1306_64x48.c ****       else
 124:/Users/imashio/Electronics/ARM/_Library/u8x8_d_ssd1306_64x48.c **** 	u8x8_cad_SendSequence(u8x8, u8x8_d_ssd1306_64x48_powersave1_seq);
 125:/Users/imashio/Electronics/ARM/_Library/u8x8_d_ssd1306_64x48.c ****       break;
 126:/Users/imashio/Electronics/ARM/_Library/u8x8_d_ssd1306_64x48.c ****     case U8X8_MSG_DISPLAY_SET_FLIP_MODE:
 127:/Users/imashio/Electronics/ARM/_Library/u8x8_d_ssd1306_64x48.c ****       if ( arg_int == 0 )
 128:/Users/imashio/Electronics/ARM/_Library/u8x8_d_ssd1306_64x48.c ****       {
 129:/Users/imashio/Electronics/ARM/_Library/u8x8_d_ssd1306_64x48.c **** 	u8x8_cad_SendSequence(u8x8, u8x8_d_ssd1306_64x48_flip0_seq);
 130:/Users/imashio/Electronics/ARM/_Library/u8x8_d_ssd1306_64x48.c **** 	u8x8->x_offset = u8x8->display_info->default_x_offset;
 131:/Users/imashio/Electronics/ARM/_Library/u8x8_d_ssd1306_64x48.c ****       }
 132:/Users/imashio/Electronics/ARM/_Library/u8x8_d_ssd1306_64x48.c ****       else
 133:/Users/imashio/Electronics/ARM/_Library/u8x8_d_ssd1306_64x48.c ****       {
 134:/Users/imashio/Electronics/ARM/_Library/u8x8_d_ssd1306_64x48.c **** 	u8x8_cad_SendSequence(u8x8, u8x8_d_ssd1306_64x48_flip1_seq);
 135:/Users/imashio/Electronics/ARM/_Library/u8x8_d_ssd1306_64x48.c **** 	u8x8->x_offset = u8x8->display_info->flipmode_x_offset;
 136:/Users/imashio/Electronics/ARM/_Library/u8x8_d_ssd1306_64x48.c ****       }
 137:/Users/imashio/Electronics/ARM/_Library/u8x8_d_ssd1306_64x48.c ****       break;
 138:/Users/imashio/Electronics/ARM/_Library/u8x8_d_ssd1306_64x48.c **** #ifdef U8X8_WITH_SET_CONTRAST
 139:/Users/imashio/Electronics/ARM/_Library/u8x8_d_ssd1306_64x48.c ****     case U8X8_MSG_DISPLAY_SET_CONTRAST:
 140:/Users/imashio/Electronics/ARM/_Library/u8x8_d_ssd1306_64x48.c ****       u8x8_cad_StartTransfer(u8x8);
 141:/Users/imashio/Electronics/ARM/_Library/u8x8_d_ssd1306_64x48.c ****       u8x8_cad_SendCmd(u8x8, 0x081 );
 142:/Users/imashio/Electronics/ARM/_Library/u8x8_d_ssd1306_64x48.c ****       u8x8_cad_SendArg(u8x8, arg_int );	/* ssd1306 has range from 0 to 255 */
 143:/Users/imashio/Electronics/ARM/_Library/u8x8_d_ssd1306_64x48.c ****       u8x8_cad_EndTransfer(u8x8);
 144:/Users/imashio/Electronics/ARM/_Library/u8x8_d_ssd1306_64x48.c ****       break;
ARM GAS  /var/folders/v3/wysfpd052nz8jkbx04pk0ym80000gn/T//ccPSmOY8.s 			page 4


 145:/Users/imashio/Electronics/ARM/_Library/u8x8_d_ssd1306_64x48.c **** #endif
 146:/Users/imashio/Electronics/ARM/_Library/u8x8_d_ssd1306_64x48.c ****     case U8X8_MSG_DISPLAY_DRAW_TILE:
 147:/Users/imashio/Electronics/ARM/_Library/u8x8_d_ssd1306_64x48.c ****       u8x8_cad_StartTransfer(u8x8);
 148:/Users/imashio/Electronics/ARM/_Library/u8x8_d_ssd1306_64x48.c ****       x = ((u8x8_tile_t *)arg_ptr)->x_pos;    
 149:/Users/imashio/Electronics/ARM/_Library/u8x8_d_ssd1306_64x48.c ****       x *= 8;
 150:/Users/imashio/Electronics/ARM/_Library/u8x8_d_ssd1306_64x48.c ****       x += u8x8->x_offset;
 151:/Users/imashio/Electronics/ARM/_Library/u8x8_d_ssd1306_64x48.c ****       u8x8_cad_SendCmd(u8x8, 0x010 | (x>>4) );
 152:/Users/imashio/Electronics/ARM/_Library/u8x8_d_ssd1306_64x48.c ****       u8x8_cad_SendCmd(u8x8, 0x000 | ((x&15)));
 153:/Users/imashio/Electronics/ARM/_Library/u8x8_d_ssd1306_64x48.c ****       u8x8_cad_SendCmd(u8x8, 0x0b0 | (((u8x8_tile_t *)arg_ptr)->y_pos));
 154:/Users/imashio/Electronics/ARM/_Library/u8x8_d_ssd1306_64x48.c ****       
 155:/Users/imashio/Electronics/ARM/_Library/u8x8_d_ssd1306_64x48.c ****       do
 156:/Users/imashio/Electronics/ARM/_Library/u8x8_d_ssd1306_64x48.c ****       {
 157:/Users/imashio/Electronics/ARM/_Library/u8x8_d_ssd1306_64x48.c **** 	c = ((u8x8_tile_t *)arg_ptr)->cnt;
 158:/Users/imashio/Electronics/ARM/_Library/u8x8_d_ssd1306_64x48.c **** 	ptr = ((u8x8_tile_t *)arg_ptr)->tile_ptr;
 159:/Users/imashio/Electronics/ARM/_Library/u8x8_d_ssd1306_64x48.c **** 	u8x8_cad_SendData(u8x8, c*8, ptr); 	/* note: SendData can not handle more than 255 bytes */
 160:/Users/imashio/Electronics/ARM/_Library/u8x8_d_ssd1306_64x48.c **** 	arg_int--;
 161:/Users/imashio/Electronics/ARM/_Library/u8x8_d_ssd1306_64x48.c ****       } while( arg_int > 0 );
 162:/Users/imashio/Electronics/ARM/_Library/u8x8_d_ssd1306_64x48.c ****       
 163:/Users/imashio/Electronics/ARM/_Library/u8x8_d_ssd1306_64x48.c ****       u8x8_cad_EndTransfer(u8x8);
 164:/Users/imashio/Electronics/ARM/_Library/u8x8_d_ssd1306_64x48.c ****       break;
 165:/Users/imashio/Electronics/ARM/_Library/u8x8_d_ssd1306_64x48.c ****     default:
 166:/Users/imashio/Electronics/ARM/_Library/u8x8_d_ssd1306_64x48.c ****       return 0;
 167:/Users/imashio/Electronics/ARM/_Library/u8x8_d_ssd1306_64x48.c ****   }
 168:/Users/imashio/Electronics/ARM/_Library/u8x8_d_ssd1306_64x48.c ****   return 1;
 169:/Users/imashio/Electronics/ARM/_Library/u8x8_d_ssd1306_64x48.c **** }
 170:/Users/imashio/Electronics/ARM/_Library/u8x8_d_ssd1306_64x48.c **** 
 171:/Users/imashio/Electronics/ARM/_Library/u8x8_d_ssd1306_64x48.c **** 
 172:/Users/imashio/Electronics/ARM/_Library/u8x8_d_ssd1306_64x48.c **** static const u8x8_display_info_t u8x8_ssd1306_64x48_display_info =
 173:/Users/imashio/Electronics/ARM/_Library/u8x8_d_ssd1306_64x48.c **** {
 174:/Users/imashio/Electronics/ARM/_Library/u8x8_d_ssd1306_64x48.c ****   /* chip_enable_level = */ 0,
 175:/Users/imashio/Electronics/ARM/_Library/u8x8_d_ssd1306_64x48.c ****   /* chip_disable_level = */ 1,
 176:/Users/imashio/Electronics/ARM/_Library/u8x8_d_ssd1306_64x48.c ****   
 177:/Users/imashio/Electronics/ARM/_Library/u8x8_d_ssd1306_64x48.c ****   /* post_chip_enable_wait_ns = */ 20,
 178:/Users/imashio/Electronics/ARM/_Library/u8x8_d_ssd1306_64x48.c ****   /* pre_chip_disable_wait_ns = */ 10,
 179:/Users/imashio/Electronics/ARM/_Library/u8x8_d_ssd1306_64x48.c ****   /* reset_pulse_width_ms = */ 100, 	/* SSD1306: 3 us */
 180:/Users/imashio/Electronics/ARM/_Library/u8x8_d_ssd1306_64x48.c ****   /* post_reset_wait_ms = */ 100, /* far east OLEDs need much longer setup time */
 181:/Users/imashio/Electronics/ARM/_Library/u8x8_d_ssd1306_64x48.c ****   /* sda_setup_time_ns = */ 50,		/* SSD1306: 15ns, but cycle time is 100ns, so use 100/2 */
 182:/Users/imashio/Electronics/ARM/_Library/u8x8_d_ssd1306_64x48.c ****   /* sck_pulse_width_ns = */ 50,	/* SSD1306: 20ns, but cycle time is 100ns, so use 100/2, AVR: belo
 183:/Users/imashio/Electronics/ARM/_Library/u8x8_d_ssd1306_64x48.c ****   /* sck_clock_hz = */ 8000000UL,	/* since Arduino 1.6.0, the SPI bus speed in Hz. Should be  10000
 184:/Users/imashio/Electronics/ARM/_Library/u8x8_d_ssd1306_64x48.c ****   /* spi_mode = */ 0,		/* active high, rising edge */
 185:/Users/imashio/Electronics/ARM/_Library/u8x8_d_ssd1306_64x48.c ****   /* i2c_bus_clock_100kHz = */ 4,
 186:/Users/imashio/Electronics/ARM/_Library/u8x8_d_ssd1306_64x48.c ****   /* data_setup_time_ns = */ 40,
 187:/Users/imashio/Electronics/ARM/_Library/u8x8_d_ssd1306_64x48.c ****   /* write_pulse_width_ns = */ 150,	/* SSD1306: cycle time is 300ns, so use 300/2 = 150 */
 188:/Users/imashio/Electronics/ARM/_Library/u8x8_d_ssd1306_64x48.c ****   /* tile_width = */ 8,
 189:/Users/imashio/Electronics/ARM/_Library/u8x8_d_ssd1306_64x48.c ****   /* tile_hight = */ 6,
 190:/Users/imashio/Electronics/ARM/_Library/u8x8_d_ssd1306_64x48.c ****   /* default_x_offset = */ 32,
 191:/Users/imashio/Electronics/ARM/_Library/u8x8_d_ssd1306_64x48.c ****   /* flipmode_x_offset = */ 32,
 192:/Users/imashio/Electronics/ARM/_Library/u8x8_d_ssd1306_64x48.c ****   /* pixel_width = */ 64,
 193:/Users/imashio/Electronics/ARM/_Library/u8x8_d_ssd1306_64x48.c ****   /* pixel_height = */ 48
 194:/Users/imashio/Electronics/ARM/_Library/u8x8_d_ssd1306_64x48.c **** };
 195:/Users/imashio/Electronics/ARM/_Library/u8x8_d_ssd1306_64x48.c **** 
 196:/Users/imashio/Electronics/ARM/_Library/u8x8_d_ssd1306_64x48.c **** /* East Rising 0.66" OLED */
 197:/Users/imashio/Electronics/ARM/_Library/u8x8_d_ssd1306_64x48.c **** uint8_t u8x8_d_ssd1306_64x48_er(u8x8_t *u8x8, uint8_t msg, uint8_t arg_int, void *arg_ptr)
 198:/Users/imashio/Electronics/ARM/_Library/u8x8_d_ssd1306_64x48.c **** {
  29              		.loc 1 198 0
  30              		.cfi_startproc
  31              		@ args = 0, pretend = 0, frame = 0
ARM GAS  /var/folders/v3/wysfpd052nz8jkbx04pk0ym80000gn/T//ccPSmOY8.s 			page 5


  32              		@ frame_needed = 0, uses_anonymous_args = 0
  33              	.LVL0:
 199:/Users/imashio/Electronics/ARM/_Library/u8x8_d_ssd1306_64x48.c ****     if ( msg == U8X8_MSG_DISPLAY_SETUP_MEMORY )
  34              		.loc 1 199 0
  35 0000 0929     		cmp	r1, #9
 198:/Users/imashio/Electronics/ARM/_Library/u8x8_d_ssd1306_64x48.c ****     if ( msg == U8X8_MSG_DISPLAY_SETUP_MEMORY )
  36              		.loc 1 198 0
  37 0002 F8B5     		push	{r3, r4, r5, r6, r7, lr}
  38              	.LCFI0:
  39              		.cfi_def_cfa_offset 24
  40              		.cfi_offset 3, -24
  41              		.cfi_offset 4, -20
  42              		.cfi_offset 5, -16
  43              		.cfi_offset 6, -12
  44              		.cfi_offset 7, -8
  45              		.cfi_offset 14, -4
  46              		.loc 1 199 0
  47 0004 5ED0     		beq	.L17
 200:/Users/imashio/Electronics/ARM/_Library/u8x8_d_ssd1306_64x48.c ****     {
 201:/Users/imashio/Electronics/ARM/_Library/u8x8_d_ssd1306_64x48.c ****       u8x8_d_helper_display_setup_memory(u8x8, &u8x8_ssd1306_64x48_display_info);
 202:/Users/imashio/Electronics/ARM/_Library/u8x8_d_ssd1306_64x48.c ****       return 1;
 203:/Users/imashio/Electronics/ARM/_Library/u8x8_d_ssd1306_64x48.c ****     }
 204:/Users/imashio/Electronics/ARM/_Library/u8x8_d_ssd1306_64x48.c ****     else if ( msg == U8X8_MSG_DISPLAY_INIT )
  48              		.loc 1 204 0
  49 0006 0A29     		cmp	r1, #10
  50 0008 0646     		mov	r6, r0
  51 000a 09D0     		beq	.L18
  52              	.LBB4:
  53              	.LBB5:
 109:/Users/imashio/Electronics/ARM/_Library/u8x8_d_ssd1306_64x48.c ****   {
  54              		.loc 1 109 0
  55 000c 0B39     		subs	r1, r1, #11
  56              	.LVL1:
  57 000e 1446     		mov	r4, r2
  58 0010 1D46     		mov	r5, r3
  59              	.LVL2:
  60 0012 0429     		cmp	r1, #4
  61 0014 54D8     		bhi	.L13
  62 0016 DFE801F0 		tbb	[pc, r1]
  63              	.LVL3:
  64              	.L6:
  65 001a 35       		.byte	(.L5-.L6)/2
  66 001b 53       		.byte	(.L13-.L6)/2
  67 001c 3B       		.byte	(.L7-.L6)/2
  68 001d 44       		.byte	(.L8-.L6)/2
  69 001e 0B       		.byte	(.L9-.L6)/2
  70 001f 00       		.p2align 1
  71              	.L18:
  72              	.LBE5:
  73              	.LBE4:
 205:/Users/imashio/Electronics/ARM/_Library/u8x8_d_ssd1306_64x48.c ****     {
 206:/Users/imashio/Electronics/ARM/_Library/u8x8_d_ssd1306_64x48.c ****       u8x8_d_helper_display_init(u8x8);
  74              		.loc 1 206 0
  75 0020 FFF7FEFF 		bl	u8x8_d_helper_display_init
  76              	.LVL4:
 207:/Users/imashio/Electronics/ARM/_Library/u8x8_d_ssd1306_64x48.c ****       u8x8_cad_SendSequence(u8x8, u8x8_d_ssd1306_64x48_er_init_seq);    
  77              		.loc 1 207 0
ARM GAS  /var/folders/v3/wysfpd052nz8jkbx04pk0ym80000gn/T//ccPSmOY8.s 			page 6


  78 0024 3046     		mov	r0, r6
  79 0026 3049     		ldr	r1, .L19
  80 0028 FFF7FEFF 		bl	u8x8_cad_SendSequence
  81              	.LVL5:
 208:/Users/imashio/Electronics/ARM/_Library/u8x8_d_ssd1306_64x48.c ****       return 1;
  82              		.loc 1 208 0
  83 002c 0120     		movs	r0, #1
 209:/Users/imashio/Electronics/ARM/_Library/u8x8_d_ssd1306_64x48.c ****     }
 210:/Users/imashio/Electronics/ARM/_Library/u8x8_d_ssd1306_64x48.c ****     return u8x8_d_ssd1306_64x48_generic(u8x8, msg, arg_int, arg_ptr);
 211:/Users/imashio/Electronics/ARM/_Library/u8x8_d_ssd1306_64x48.c **** }
  84              		.loc 1 211 0
  85 002e F8BD     		pop	{r3, r4, r5, r6, r7, pc}
  86              	.LVL6:
  87              	.L9:
  88              	.LBB13:
  89              	.LBB6:
 147:/Users/imashio/Electronics/ARM/_Library/u8x8_d_ssd1306_64x48.c ****       x = ((u8x8_tile_t *)arg_ptr)->x_pos;    
  90              		.loc 1 147 0
  91 0030 FFF7FEFF 		bl	u8x8_cad_StartTransfer
  92              	.LVL7:
 148:/Users/imashio/Electronics/ARM/_Library/u8x8_d_ssd1306_64x48.c ****       x *= 8;
  93              		.loc 1 148 0
  94 0034 6B79     		ldrb	r3, [r5, #5]	@ zero_extendqisi2
  95              	.LVL8:
 150:/Users/imashio/Electronics/ARM/_Library/u8x8_d_ssd1306_64x48.c ****       u8x8_cad_SendCmd(u8x8, 0x010 | (x>>4) );
  96              		.loc 1 150 0
  97 0036 B77F     		ldrb	r7, [r6, #30]	@ zero_extendqisi2
  98 0038 07EBC307 		add	r7, r7, r3, lsl #3
  99 003c 07F0FF07 		and	r7, r7, #255
 100              	.LVL9:
 151:/Users/imashio/Electronics/ARM/_Library/u8x8_d_ssd1306_64x48.c ****       u8x8_cad_SendCmd(u8x8, 0x000 | ((x&15)));
 101              		.loc 1 151 0
 102 0040 3909     		lsrs	r1, r7, #4
 103 0042 41F01001 		orr	r1, r1, #16
 104 0046 3046     		mov	r0, r6
 105 0048 FFF7FEFF 		bl	u8x8_cad_SendCmd
 106              	.LVL10:
 152:/Users/imashio/Electronics/ARM/_Library/u8x8_d_ssd1306_64x48.c ****       u8x8_cad_SendCmd(u8x8, 0x0b0 | (((u8x8_tile_t *)arg_ptr)->y_pos));
 107              		.loc 1 152 0
 108 004c 07F00F01 		and	r1, r7, #15
 109 0050 3046     		mov	r0, r6
 110 0052 FFF7FEFF 		bl	u8x8_cad_SendCmd
 111              	.LVL11:
 153:/Users/imashio/Electronics/ARM/_Library/u8x8_d_ssd1306_64x48.c ****       
 112              		.loc 1 153 0
 113 0056 A979     		ldrb	r1, [r5, #6]	@ zero_extendqisi2
 114 0058 3046     		mov	r0, r6
 115 005a 41F0B001 		orr	r1, r1, #176
 116 005e FFF7FEFF 		bl	u8x8_cad_SendCmd
 117              	.LVL12:
 118              	.L12:
 159:/Users/imashio/Electronics/ARM/_Library/u8x8_d_ssd1306_64x48.c **** 	arg_int--;
 119              		.loc 1 159 0
 120 0062 2979     		ldrb	r1, [r5, #4]	@ zero_extendqisi2
 121 0064 2A68     		ldr	r2, [r5]
 122 0066 C900     		lsls	r1, r1, #3
 123 0068 01F0F801 		and	r1, r1, #248
ARM GAS  /var/folders/v3/wysfpd052nz8jkbx04pk0ym80000gn/T//ccPSmOY8.s 			page 7


 124 006c 3046     		mov	r0, r6
 160:/Users/imashio/Electronics/ARM/_Library/u8x8_d_ssd1306_64x48.c ****       } while( arg_int > 0 );
 125              		.loc 1 160 0
 126 006e 013C     		subs	r4, r4, #1
 127              	.LVL13:
 159:/Users/imashio/Electronics/ARM/_Library/u8x8_d_ssd1306_64x48.c **** 	arg_int--;
 128              		.loc 1 159 0
 129 0070 FFF7FEFF 		bl	u8x8_cad_SendData
 130              	.LVL14:
 161:/Users/imashio/Electronics/ARM/_Library/u8x8_d_ssd1306_64x48.c ****       
 131              		.loc 1 161 0
 132 0074 14F0FF04 		ands	r4, r4, #255
 133              	.LVL15:
 134 0078 F3D1     		bne	.L12
 163:/Users/imashio/Electronics/ARM/_Library/u8x8_d_ssd1306_64x48.c ****       break;
 135              		.loc 1 163 0
 136 007a 3046     		mov	r0, r6
 137 007c FFF7FEFF 		bl	u8x8_cad_EndTransfer
 138              	.LVL16:
 168:/Users/imashio/Electronics/ARM/_Library/u8x8_d_ssd1306_64x48.c **** }
 139              		.loc 1 168 0
 140 0080 0120     		movs	r0, #1
 141              	.LBE6:
 142              	.LBE13:
 143              		.loc 1 211 0
 144 0082 F8BD     		pop	{r3, r4, r5, r6, r7, pc}
 145              	.LVL17:
 146              	.L5:
 147              	.LBB14:
 148              	.LBB7:
 121:/Users/imashio/Electronics/ARM/_Library/u8x8_d_ssd1306_64x48.c **** 	u8x8_cad_SendSequence(u8x8, u8x8_d_ssd1306_64x48_powersave0_seq);
 149              		.loc 1 121 0
 150 0084 1ABB     		cbnz	r2, .L10
 122:/Users/imashio/Electronics/ARM/_Library/u8x8_d_ssd1306_64x48.c ****       else
 151              		.loc 1 122 0
 152 0086 1949     		ldr	r1, .L19+4
 153 0088 FFF7FEFF 		bl	u8x8_cad_SendSequence
 154              	.LVL18:
 168:/Users/imashio/Electronics/ARM/_Library/u8x8_d_ssd1306_64x48.c **** }
 155              		.loc 1 168 0
 156 008c 0120     		movs	r0, #1
 157              	.LBE7:
 158              	.LBE14:
 159              		.loc 1 211 0
 160 008e F8BD     		pop	{r3, r4, r5, r6, r7, pc}
 161              	.LVL19:
 162              	.L7:
 163              	.LBB15:
 164              	.LBB8:
 127:/Users/imashio/Electronics/ARM/_Library/u8x8_d_ssd1306_64x48.c ****       {
 165              		.loc 1 127 0
 166 0090 12BB     		cbnz	r2, .L11
 129:/Users/imashio/Electronics/ARM/_Library/u8x8_d_ssd1306_64x48.c **** 	u8x8->x_offset = u8x8->display_info->default_x_offset;
 167              		.loc 1 129 0
 168 0092 1749     		ldr	r1, .L19+8
 169 0094 FFF7FEFF 		bl	u8x8_cad_SendSequence
 170              	.LVL20:
ARM GAS  /var/folders/v3/wysfpd052nz8jkbx04pk0ym80000gn/T//ccPSmOY8.s 			page 8


 130:/Users/imashio/Electronics/ARM/_Library/u8x8_d_ssd1306_64x48.c ****       }
 171              		.loc 1 130 0
 172 0098 3368     		ldr	r3, [r6]
 173 009a 9B7C     		ldrb	r3, [r3, #18]	@ zero_extendqisi2
 174 009c B377     		strb	r3, [r6, #30]
 168:/Users/imashio/Electronics/ARM/_Library/u8x8_d_ssd1306_64x48.c **** }
 175              		.loc 1 168 0
 176 009e 0120     		movs	r0, #1
 177              	.LBE8:
 178              	.LBE15:
 179              		.loc 1 211 0
 180 00a0 F8BD     		pop	{r3, r4, r5, r6, r7, pc}
 181              	.LVL21:
 182              	.L8:
 183              	.LBB16:
 184              	.LBB9:
 140:/Users/imashio/Electronics/ARM/_Library/u8x8_d_ssd1306_64x48.c ****       u8x8_cad_SendCmd(u8x8, 0x081 );
 185              		.loc 1 140 0
 186 00a2 FFF7FEFF 		bl	u8x8_cad_StartTransfer
 187              	.LVL22:
 141:/Users/imashio/Electronics/ARM/_Library/u8x8_d_ssd1306_64x48.c ****       u8x8_cad_SendArg(u8x8, arg_int );	/* ssd1306 has range from 0 to 255 */
 188              		.loc 1 141 0
 189 00a6 8121     		movs	r1, #129
 190 00a8 3046     		mov	r0, r6
 191 00aa FFF7FEFF 		bl	u8x8_cad_SendCmd
 192              	.LVL23:
 142:/Users/imashio/Electronics/ARM/_Library/u8x8_d_ssd1306_64x48.c ****       u8x8_cad_EndTransfer(u8x8);
 193              		.loc 1 142 0
 194 00ae 2146     		mov	r1, r4
 195 00b0 3046     		mov	r0, r6
 196 00b2 FFF7FEFF 		bl	u8x8_cad_SendArg
 197              	.LVL24:
 143:/Users/imashio/Electronics/ARM/_Library/u8x8_d_ssd1306_64x48.c ****       break;
 198              		.loc 1 143 0
 199 00b6 3046     		mov	r0, r6
 200 00b8 FFF7FEFF 		bl	u8x8_cad_EndTransfer
 201              	.LVL25:
 168:/Users/imashio/Electronics/ARM/_Library/u8x8_d_ssd1306_64x48.c **** }
 202              		.loc 1 168 0
 203 00bc 0120     		movs	r0, #1
 204              	.LBE9:
 205              	.LBE16:
 206              		.loc 1 211 0
 207 00be F8BD     		pop	{r3, r4, r5, r6, r7, pc}
 208              	.LVL26:
 209              	.L13:
 210              	.LBB17:
 211              	.LBB10:
 166:/Users/imashio/Electronics/ARM/_Library/u8x8_d_ssd1306_64x48.c ****   }
 212              		.loc 1 166 0
 213 00c0 0020     		movs	r0, #0
 214              	.LVL27:
 215              	.LBE10:
 216              	.LBE17:
 217              		.loc 1 211 0
 218 00c2 F8BD     		pop	{r3, r4, r5, r6, r7, pc}
 219              	.LVL28:
ARM GAS  /var/folders/v3/wysfpd052nz8jkbx04pk0ym80000gn/T//ccPSmOY8.s 			page 9


 220              	.L17:
 201:/Users/imashio/Electronics/ARM/_Library/u8x8_d_ssd1306_64x48.c ****       return 1;
 221              		.loc 1 201 0
 222 00c4 0B49     		ldr	r1, .L19+12
 223              	.LVL29:
 224 00c6 FFF7FEFF 		bl	u8x8_d_helper_display_setup_memory
 225              	.LVL30:
 202:/Users/imashio/Electronics/ARM/_Library/u8x8_d_ssd1306_64x48.c ****     }
 226              		.loc 1 202 0
 227 00ca 0120     		movs	r0, #1
 228              		.loc 1 211 0
 229 00cc F8BD     		pop	{r3, r4, r5, r6, r7, pc}
 230              	.LVL31:
 231              	.L10:
 232              	.LBB18:
 233              	.LBB11:
 124:/Users/imashio/Electronics/ARM/_Library/u8x8_d_ssd1306_64x48.c ****       break;
 234              		.loc 1 124 0
 235 00ce 0A49     		ldr	r1, .L19+16
 236 00d0 FFF7FEFF 		bl	u8x8_cad_SendSequence
 237              	.LVL32:
 168:/Users/imashio/Electronics/ARM/_Library/u8x8_d_ssd1306_64x48.c **** }
 238              		.loc 1 168 0
 239 00d4 0120     		movs	r0, #1
 240              	.LBE11:
 241              	.LBE18:
 242              		.loc 1 211 0
 243 00d6 F8BD     		pop	{r3, r4, r5, r6, r7, pc}
 244              	.LVL33:
 245              	.L11:
 246              	.LBB19:
 247              	.LBB12:
 134:/Users/imashio/Electronics/ARM/_Library/u8x8_d_ssd1306_64x48.c **** 	u8x8->x_offset = u8x8->display_info->flipmode_x_offset;
 248              		.loc 1 134 0
 249 00d8 0849     		ldr	r1, .L19+20
 250 00da FFF7FEFF 		bl	u8x8_cad_SendSequence
 251              	.LVL34:
 135:/Users/imashio/Electronics/ARM/_Library/u8x8_d_ssd1306_64x48.c ****       }
 252              		.loc 1 135 0
 253 00de 3368     		ldr	r3, [r6]
 254 00e0 DB7C     		ldrb	r3, [r3, #19]	@ zero_extendqisi2
 255 00e2 B377     		strb	r3, [r6, #30]
 168:/Users/imashio/Electronics/ARM/_Library/u8x8_d_ssd1306_64x48.c **** }
 256              		.loc 1 168 0
 257 00e4 0120     		movs	r0, #1
 258              	.LBE12:
 259              	.LBE19:
 260              		.loc 1 211 0
 261 00e6 F8BD     		pop	{r3, r4, r5, r6, r7, pc}
 262              	.LVL35:
 263              	.L20:
 264              		.align	2
 265              	.L19:
 266 00e8 00000000 		.word	.LANCHOR1
 267 00ec 00000000 		.word	.LANCHOR2
 268 00f0 00000000 		.word	.LANCHOR4
 269 00f4 00000000 		.word	.LANCHOR0
ARM GAS  /var/folders/v3/wysfpd052nz8jkbx04pk0ym80000gn/T//ccPSmOY8.s 			page 10


 270 00f8 00000000 		.word	.LANCHOR3
 271 00fc 00000000 		.word	.LANCHOR5
 272              		.cfi_endproc
 273              	.LFE1:
 275              		.section	.rodata.u8x8_d_ssd1306_64x48_er_init_seq,"a",%progbits
 276              		.align	2
 277              		.set	.LANCHOR1,. + 0
 280              	u8x8_d_ssd1306_64x48_er_init_seq:
 281 0000 18       		.byte	24
 282 0001 15       		.byte	21
 283 0002 AE       		.byte	-82
 284 0003 15       		.byte	21
 285 0004 D5       		.byte	-43
 286 0005 16       		.byte	22
 287 0006 80       		.byte	-128
 288 0007 15       		.byte	21
 289 0008 A8       		.byte	-88
 290 0009 16       		.byte	22
 291 000a 2F       		.byte	47
 292 000b 15       		.byte	21
 293 000c D3       		.byte	-45
 294 000d 16       		.byte	22
 295 000e 00       		.byte	0
 296 000f 15       		.byte	21
 297 0010 40       		.byte	64
 298 0011 15       		.byte	21
 299 0012 8D       		.byte	-115
 300 0013 16       		.byte	22
 301 0014 14       		.byte	20
 302 0015 15       		.byte	21
 303 0016 20       		.byte	32
 304 0017 16       		.byte	22
 305 0018 00       		.byte	0
 306 0019 15       		.byte	21
 307 001a A1       		.byte	-95
 308 001b 15       		.byte	21
 309 001c C8       		.byte	-56
 310 001d 15       		.byte	21
 311 001e DA       		.byte	-38
 312 001f 16       		.byte	22
 313 0020 12       		.byte	18
 314 0021 15       		.byte	21
 315 0022 81       		.byte	-127
 316 0023 16       		.byte	22
 317 0024 CF       		.byte	-49
 318 0025 15       		.byte	21
 319 0026 D9       		.byte	-39
 320 0027 16       		.byte	22
 321 0028 22       		.byte	34
 322 0029 15       		.byte	21
 323 002a DB       		.byte	-37
 324 002b 16       		.byte	22
 325 002c 00       		.byte	0
 326 002d 15       		.byte	21
 327 002e 2E       		.byte	46
 328 002f 15       		.byte	21
 329 0030 A4       		.byte	-92
ARM GAS  /var/folders/v3/wysfpd052nz8jkbx04pk0ym80000gn/T//ccPSmOY8.s 			page 11


 330 0031 15       		.byte	21
 331 0032 A6       		.byte	-90
 332 0033 19       		.byte	25
 333 0034 FF       		.byte	-1
 334              		.section	.rodata.u8x8_d_ssd1306_64x48_flip0_seq,"a",%progbits
 335              		.align	2
 336              		.set	.LANCHOR4,. + 0
 339              	u8x8_d_ssd1306_64x48_flip0_seq:
 340 0000 18       		.byte	24
 341 0001 15       		.byte	21
 342 0002 A1       		.byte	-95
 343 0003 15       		.byte	21
 344 0004 C8       		.byte	-56
 345 0005 19       		.byte	25
 346 0006 FF       		.byte	-1
 347              		.section	.rodata.u8x8_d_ssd1306_64x48_flip1_seq,"a",%progbits
 348              		.align	2
 349              		.set	.LANCHOR5,. + 0
 352              	u8x8_d_ssd1306_64x48_flip1_seq:
 353 0000 18       		.byte	24
 354 0001 15       		.byte	21
 355 0002 A0       		.byte	-96
 356 0003 15       		.byte	21
 357 0004 C0       		.byte	-64
 358 0005 19       		.byte	25
 359 0006 FF       		.byte	-1
 360              		.section	.rodata.u8x8_d_ssd1306_64x48_powersave0_seq,"a",%progbits
 361              		.align	2
 362              		.set	.LANCHOR2,. + 0
 365              	u8x8_d_ssd1306_64x48_powersave0_seq:
 366 0000 18       		.byte	24
 367 0001 15       		.byte	21
 368 0002 AF       		.byte	-81
 369 0003 19       		.byte	25
 370 0004 FF       		.byte	-1
 371              		.section	.rodata.u8x8_d_ssd1306_64x48_powersave1_seq,"a",%progbits
 372              		.align	2
 373              		.set	.LANCHOR3,. + 0
 376              	u8x8_d_ssd1306_64x48_powersave1_seq:
 377 0000 18       		.byte	24
 378 0001 15       		.byte	21
 379 0002 AE       		.byte	-82
 380 0003 19       		.byte	25
 381 0004 FF       		.byte	-1
 382              		.section	.rodata.u8x8_ssd1306_64x48_display_info,"a",%progbits
 383              		.align	2
 384              		.set	.LANCHOR0,. + 0
 387              	u8x8_ssd1306_64x48_display_info:
 388 0000 00       		.byte	0
 389 0001 01       		.byte	1
 390 0002 14       		.byte	20
 391 0003 0A       		.byte	10
 392 0004 64       		.byte	100
 393 0005 64       		.byte	100
 394 0006 32       		.byte	50
 395 0007 32       		.byte	50
 396 0008 00127A00 		.word	8000000
ARM GAS  /var/folders/v3/wysfpd052nz8jkbx04pk0ym80000gn/T//ccPSmOY8.s 			page 12


 397 000c 00       		.byte	0
 398 000d 04       		.byte	4
 399 000e 28       		.byte	40
 400 000f 96       		.byte	-106
 401 0010 08       		.byte	8
 402 0011 06       		.byte	6
 403 0012 20       		.byte	32
 404 0013 20       		.byte	32
 405 0014 4000     		.short	64
 406 0016 3000     		.short	48
 407              		.text
 408              	.Letext0:
 409              		.file 2 "/usr/local/gcc-arm-none-eabi-7-2018-q2-update/arm-none-eabi/include/machine/_default_type
 410              		.file 3 "/usr/local/gcc-arm-none-eabi-7-2018-q2-update/arm-none-eabi/include/sys/_stdint.h"
 411              		.file 4 "/Users/imashio/Electronics/ARM/_Library/u8x8.h"
ARM GAS  /var/folders/v3/wysfpd052nz8jkbx04pk0ym80000gn/T//ccPSmOY8.s 			page 13


DEFINED SYMBOLS
                            *ABS*:0000000000000000 u8x8_d_ssd1306_64x48.c
/var/folders/v3/wysfpd052nz8jkbx04pk0ym80000gn/T//ccPSmOY8.s:18     .text.u8x8_d_ssd1306_64x48_er:0000000000000000 $t
/var/folders/v3/wysfpd052nz8jkbx04pk0ym80000gn/T//ccPSmOY8.s:26     .text.u8x8_d_ssd1306_64x48_er:0000000000000000 u8x8_d_ssd1306_64x48_er
/var/folders/v3/wysfpd052nz8jkbx04pk0ym80000gn/T//ccPSmOY8.s:65     .text.u8x8_d_ssd1306_64x48_er:000000000000001a $d
/var/folders/v3/wysfpd052nz8jkbx04pk0ym80000gn/T//ccPSmOY8.s:266    .text.u8x8_d_ssd1306_64x48_er:00000000000000e8 $d
/var/folders/v3/wysfpd052nz8jkbx04pk0ym80000gn/T//ccPSmOY8.s:276    .rodata.u8x8_d_ssd1306_64x48_er_init_seq:0000000000000000 $d
/var/folders/v3/wysfpd052nz8jkbx04pk0ym80000gn/T//ccPSmOY8.s:280    .rodata.u8x8_d_ssd1306_64x48_er_init_seq:0000000000000000 u8x8_d_ssd1306_64x48_er_init_seq
/var/folders/v3/wysfpd052nz8jkbx04pk0ym80000gn/T//ccPSmOY8.s:335    .rodata.u8x8_d_ssd1306_64x48_flip0_seq:0000000000000000 $d
/var/folders/v3/wysfpd052nz8jkbx04pk0ym80000gn/T//ccPSmOY8.s:339    .rodata.u8x8_d_ssd1306_64x48_flip0_seq:0000000000000000 u8x8_d_ssd1306_64x48_flip0_seq
/var/folders/v3/wysfpd052nz8jkbx04pk0ym80000gn/T//ccPSmOY8.s:348    .rodata.u8x8_d_ssd1306_64x48_flip1_seq:0000000000000000 $d
/var/folders/v3/wysfpd052nz8jkbx04pk0ym80000gn/T//ccPSmOY8.s:352    .rodata.u8x8_d_ssd1306_64x48_flip1_seq:0000000000000000 u8x8_d_ssd1306_64x48_flip1_seq
/var/folders/v3/wysfpd052nz8jkbx04pk0ym80000gn/T//ccPSmOY8.s:361    .rodata.u8x8_d_ssd1306_64x48_powersave0_seq:0000000000000000 $d
/var/folders/v3/wysfpd052nz8jkbx04pk0ym80000gn/T//ccPSmOY8.s:365    .rodata.u8x8_d_ssd1306_64x48_powersave0_seq:0000000000000000 u8x8_d_ssd1306_64x48_powersave0_seq
/var/folders/v3/wysfpd052nz8jkbx04pk0ym80000gn/T//ccPSmOY8.s:372    .rodata.u8x8_d_ssd1306_64x48_powersave1_seq:0000000000000000 $d
/var/folders/v3/wysfpd052nz8jkbx04pk0ym80000gn/T//ccPSmOY8.s:376    .rodata.u8x8_d_ssd1306_64x48_powersave1_seq:0000000000000000 u8x8_d_ssd1306_64x48_powersave1_seq
/var/folders/v3/wysfpd052nz8jkbx04pk0ym80000gn/T//ccPSmOY8.s:383    .rodata.u8x8_ssd1306_64x48_display_info:0000000000000000 $d
/var/folders/v3/wysfpd052nz8jkbx04pk0ym80000gn/T//ccPSmOY8.s:387    .rodata.u8x8_ssd1306_64x48_display_info:0000000000000000 u8x8_ssd1306_64x48_display_info
/var/folders/v3/wysfpd052nz8jkbx04pk0ym80000gn/T//ccPSmOY8.s:70     .text.u8x8_d_ssd1306_64x48_er:000000000000001f $d
/var/folders/v3/wysfpd052nz8jkbx04pk0ym80000gn/T//ccPSmOY8.s:70     .text.u8x8_d_ssd1306_64x48_er:0000000000000020 $t

UNDEFINED SYMBOLS
u8x8_d_helper_display_init
u8x8_cad_SendSequence
u8x8_cad_StartTransfer
u8x8_cad_SendCmd
u8x8_cad_SendData
u8x8_cad_EndTransfer
u8x8_cad_SendArg
u8x8_d_helper_display_setup_memory
