ARM GAS  /var/folders/v3/wysfpd052nz8jkbx04pk0ym80000gn/T//cceC8XTT.s 			page 1


   1              		.cpu cortex-m4
   2              		.eabi_attribute 27, 1
   3              		.eabi_attribute 28, 1
   4              		.eabi_attribute 20, 1
   5              		.eabi_attribute 21, 1
   6              		.eabi_attribute 23, 3
   7              		.eabi_attribute 24, 1
   8              		.eabi_attribute 25, 1
   9              		.eabi_attribute 26, 1
  10              		.eabi_attribute 30, 2
  11              		.eabi_attribute 34, 1
  12              		.eabi_attribute 18, 4
  13              		.file	"u8x8_d_ssd1607_200x200.c"
  14              		.text
  15              	.Ltext0:
  16              		.cfi_sections	.debug_frame
  17              		.section	.text.u8x8_d_ssd1607_200x200_first_init,"ax",%progbits
  18              		.align	1
  19              		.p2align 2,,3
  20              		.syntax unified
  21              		.thumb
  22              		.thumb_func
  23              		.fpu fpv4-sp-d16
  25              	u8x8_d_ssd1607_200x200_first_init:
  26              	.LFB0:
  27              		.file 1 "/Users/imashio/Electronics/ARM/_Library/u8x8_d_ssd1607_200x200.c"
   1:/Users/imashio/Electronics/ARM/_Library/u8x8_d_ssd1607_200x200.c **** /*
   2:/Users/imashio/Electronics/ARM/_Library/u8x8_d_ssd1607_200x200.c **** 
   3:/Users/imashio/Electronics/ARM/_Library/u8x8_d_ssd1607_200x200.c ****   u8x8_d_ssd1607_200x200.c
   4:/Users/imashio/Electronics/ARM/_Library/u8x8_d_ssd1607_200x200.c **** 
   5:/Users/imashio/Electronics/ARM/_Library/u8x8_d_ssd1607_200x200.c ****   Universal 8bit Graphics Library (https://github.com/olikraus/u8g2/)
   6:/Users/imashio/Electronics/ARM/_Library/u8x8_d_ssd1607_200x200.c **** 
   7:/Users/imashio/Electronics/ARM/_Library/u8x8_d_ssd1607_200x200.c ****   Copyright (c) 2016, olikraus@gmail.com
   8:/Users/imashio/Electronics/ARM/_Library/u8x8_d_ssd1607_200x200.c ****   All rights reserved.
   9:/Users/imashio/Electronics/ARM/_Library/u8x8_d_ssd1607_200x200.c **** 
  10:/Users/imashio/Electronics/ARM/_Library/u8x8_d_ssd1607_200x200.c ****   Redistribution and use in source and binary forms, with or without modification, 
  11:/Users/imashio/Electronics/ARM/_Library/u8x8_d_ssd1607_200x200.c ****   are permitted provided that the following conditions are met:
  12:/Users/imashio/Electronics/ARM/_Library/u8x8_d_ssd1607_200x200.c **** 
  13:/Users/imashio/Electronics/ARM/_Library/u8x8_d_ssd1607_200x200.c ****   * Redistributions of source code must retain the above copyright notice, this list 
  14:/Users/imashio/Electronics/ARM/_Library/u8x8_d_ssd1607_200x200.c ****     of conditions and the following disclaimer.
  15:/Users/imashio/Electronics/ARM/_Library/u8x8_d_ssd1607_200x200.c ****     
  16:/Users/imashio/Electronics/ARM/_Library/u8x8_d_ssd1607_200x200.c ****   * Redistributions in binary form must reproduce the above copyright notice, this 
  17:/Users/imashio/Electronics/ARM/_Library/u8x8_d_ssd1607_200x200.c ****     list of conditions and the following disclaimer in the documentation and/or other 
  18:/Users/imashio/Electronics/ARM/_Library/u8x8_d_ssd1607_200x200.c ****     materials provided with the distribution.
  19:/Users/imashio/Electronics/ARM/_Library/u8x8_d_ssd1607_200x200.c **** 
  20:/Users/imashio/Electronics/ARM/_Library/u8x8_d_ssd1607_200x200.c ****   THIS SOFTWARE IS PROVIDED BY THE COPYRIGHT HOLDERS AND 
  21:/Users/imashio/Electronics/ARM/_Library/u8x8_d_ssd1607_200x200.c ****   CONTRIBUTORS "AS IS" AND ANY EXPRESS OR IMPLIED WARRANTIES, 
  22:/Users/imashio/Electronics/ARM/_Library/u8x8_d_ssd1607_200x200.c ****   INCLUDING, BUT NOT LIMITED TO, THE IMPLIED WARRANTIES OF 
  23:/Users/imashio/Electronics/ARM/_Library/u8x8_d_ssd1607_200x200.c ****   MERCHANTABILITY AND FITNESS FOR A PARTICULAR PURPOSE ARE 
  24:/Users/imashio/Electronics/ARM/_Library/u8x8_d_ssd1607_200x200.c ****   DISCLAIMED. IN NO EVENT SHALL THE COPYRIGHT HOLDER OR 
  25:/Users/imashio/Electronics/ARM/_Library/u8x8_d_ssd1607_200x200.c ****   CONTRIBUTORS BE LIABLE FOR ANY DIRECT, INDIRECT, INCIDENTAL, 
  26:/Users/imashio/Electronics/ARM/_Library/u8x8_d_ssd1607_200x200.c ****   SPECIAL, EXEMPLARY, OR CONSEQUENTIAL DAMAGES (INCLUDING, BUT 
  27:/Users/imashio/Electronics/ARM/_Library/u8x8_d_ssd1607_200x200.c ****   NOT LIMITED TO, PROCUREMENT OF SUBSTITUTE GOODS OR SERVICES; 
  28:/Users/imashio/Electronics/ARM/_Library/u8x8_d_ssd1607_200x200.c ****   LOSS OF USE, DATA, OR PROFITS; OR BUSINESS INTERRUPTION) HOWEVER 
  29:/Users/imashio/Electronics/ARM/_Library/u8x8_d_ssd1607_200x200.c ****   CAUSED AND ON ANY THEORY OF LIABILITY, WHETHER IN CONTRACT, 
  30:/Users/imashio/Electronics/ARM/_Library/u8x8_d_ssd1607_200x200.c ****   STRICT LIABILITY, OR TORT (INCLUDING NEGLIGENCE OR OTHERWISE) 
  31:/Users/imashio/Electronics/ARM/_Library/u8x8_d_ssd1607_200x200.c ****   ARISING IN ANY WAY OUT OF THE USE OF THIS SOFTWARE, EVEN IF 
ARM GAS  /var/folders/v3/wysfpd052nz8jkbx04pk0ym80000gn/T//cceC8XTT.s 			page 2


  32:/Users/imashio/Electronics/ARM/_Library/u8x8_d_ssd1607_200x200.c ****   ADVISED OF THE POSSIBILITY OF SUCH DAMAGE.  
  33:/Users/imashio/Electronics/ARM/_Library/u8x8_d_ssd1607_200x200.c ****   
  34:/Users/imashio/Electronics/ARM/_Library/u8x8_d_ssd1607_200x200.c ****   SSD1607: 200x300x1
  35:/Users/imashio/Electronics/ARM/_Library/u8x8_d_ssd1607_200x200.c ****   
  36:/Users/imashio/Electronics/ARM/_Library/u8x8_d_ssd1607_200x200.c ****   command 
  37:/Users/imashio/Electronics/ARM/_Library/u8x8_d_ssd1607_200x200.c ****     0x22: assign actions
  38:/Users/imashio/Electronics/ARM/_Library/u8x8_d_ssd1607_200x200.c ****     0x20: execute actions
  39:/Users/imashio/Electronics/ARM/_Library/u8x8_d_ssd1607_200x200.c ****   
  40:/Users/imashio/Electronics/ARM/_Library/u8x8_d_ssd1607_200x200.c ****   action for command 0x022 are (more or less guessed)
  41:/Users/imashio/Electronics/ARM/_Library/u8x8_d_ssd1607_200x200.c ****     bit 7:	Enable Clock
  42:/Users/imashio/Electronics/ARM/_Library/u8x8_d_ssd1607_200x200.c ****     bit 6:	Enable Charge Pump
  43:/Users/imashio/Electronics/ARM/_Library/u8x8_d_ssd1607_200x200.c ****     bit 5:	Load Temparture Value (???)
  44:/Users/imashio/Electronics/ARM/_Library/u8x8_d_ssd1607_200x200.c ****     bit 4:	Load LUT (???)
  45:/Users/imashio/Electronics/ARM/_Library/u8x8_d_ssd1607_200x200.c ****     bit 3:	Initial Display (???)
  46:/Users/imashio/Electronics/ARM/_Library/u8x8_d_ssd1607_200x200.c ****     bit 2:	Pattern Display --> Requires about 945ms with the LUT from below
  47:/Users/imashio/Electronics/ARM/_Library/u8x8_d_ssd1607_200x200.c ****     bit 1:	Disable Charge Pump
  48:/Users/imashio/Electronics/ARM/_Library/u8x8_d_ssd1607_200x200.c ****     bit 0:	Disable Clock
  49:/Users/imashio/Electronics/ARM/_Library/u8x8_d_ssd1607_200x200.c ****     
  50:/Users/imashio/Electronics/ARM/_Library/u8x8_d_ssd1607_200x200.c ****     Disable Charge Pump and Clock require about 267ms
  51:/Users/imashio/Electronics/ARM/_Library/u8x8_d_ssd1607_200x200.c ****     Enable Charge Pump and Clock require about 10ms
  52:/Users/imashio/Electronics/ARM/_Library/u8x8_d_ssd1607_200x200.c **** 
  53:/Users/imashio/Electronics/ARM/_Library/u8x8_d_ssd1607_200x200.c ****   Notes:
  54:/Users/imashio/Electronics/ARM/_Library/u8x8_d_ssd1607_200x200.c ****     - Introduced a refresh display message, which copies RAM to display
  55:/Users/imashio/Electronics/ARM/_Library/u8x8_d_ssd1607_200x200.c ****     - Charge pump and clock are only enabled for the transfer RAM to display
  56:/Users/imashio/Electronics/ARM/_Library/u8x8_d_ssd1607_200x200.c ****     - U8x8 will not really work because of the two buffers in the SSD1606, however U8g2 should be o
  57:/Users/imashio/Electronics/ARM/_Library/u8x8_d_ssd1607_200x200.c **** 
  58:/Users/imashio/Electronics/ARM/_Library/u8x8_d_ssd1607_200x200.c **** */
  59:/Users/imashio/Electronics/ARM/_Library/u8x8_d_ssd1607_200x200.c **** 
  60:/Users/imashio/Electronics/ARM/_Library/u8x8_d_ssd1607_200x200.c **** 
  61:/Users/imashio/Electronics/ARM/_Library/u8x8_d_ssd1607_200x200.c **** #include "u8x8.h"
  62:/Users/imashio/Electronics/ARM/_Library/u8x8_d_ssd1607_200x200.c **** 
  63:/Users/imashio/Electronics/ARM/_Library/u8x8_d_ssd1607_200x200.c **** /*=================================================*/
  64:/Users/imashio/Electronics/ARM/_Library/u8x8_d_ssd1607_200x200.c **** 
  65:/Users/imashio/Electronics/ARM/_Library/u8x8_d_ssd1607_200x200.c **** static const u8x8_display_info_t u8x8_ssd1607_200x200_display_info =
  66:/Users/imashio/Electronics/ARM/_Library/u8x8_d_ssd1607_200x200.c **** {
  67:/Users/imashio/Electronics/ARM/_Library/u8x8_d_ssd1607_200x200.c ****   /* chip_enable_level = */ 0,
  68:/Users/imashio/Electronics/ARM/_Library/u8x8_d_ssd1607_200x200.c ****   /* chip_disable_level = */ 1,
  69:/Users/imashio/Electronics/ARM/_Library/u8x8_d_ssd1607_200x200.c ****   
  70:/Users/imashio/Electronics/ARM/_Library/u8x8_d_ssd1607_200x200.c ****   /* values from SSD1606 */
  71:/Users/imashio/Electronics/ARM/_Library/u8x8_d_ssd1607_200x200.c ****   /* post_chip_enable_wait_ns = */ 120,
  72:/Users/imashio/Electronics/ARM/_Library/u8x8_d_ssd1607_200x200.c ****   /* pre_chip_disable_wait_ns = */ 60,
  73:/Users/imashio/Electronics/ARM/_Library/u8x8_d_ssd1607_200x200.c ****   /* reset_pulse_width_ms = */ 100, 	
  74:/Users/imashio/Electronics/ARM/_Library/u8x8_d_ssd1607_200x200.c ****   /* post_reset_wait_ms = */ 100, 
  75:/Users/imashio/Electronics/ARM/_Library/u8x8_d_ssd1607_200x200.c ****   /* sda_setup_time_ns = */ 50,		/* SSD1606: */
  76:/Users/imashio/Electronics/ARM/_Library/u8x8_d_ssd1607_200x200.c ****   /* sck_pulse_width_ns = */ 100,	/* SSD1606: 100ns */
  77:/Users/imashio/Electronics/ARM/_Library/u8x8_d_ssd1607_200x200.c ****   /* sck_clock_hz = */ 4000000UL,	/* since Arduino 1.6.0, the SPI bus speed in Hz. Should be  10000
  78:/Users/imashio/Electronics/ARM/_Library/u8x8_d_ssd1607_200x200.c ****   /* spi_mode = */ 2,		/* active high, rising edge */
  79:/Users/imashio/Electronics/ARM/_Library/u8x8_d_ssd1607_200x200.c ****   /* i2c_bus_clock_100kHz = */ 4,
  80:/Users/imashio/Electronics/ARM/_Library/u8x8_d_ssd1607_200x200.c ****   /* data_setup_time_ns = */ 40,
  81:/Users/imashio/Electronics/ARM/_Library/u8x8_d_ssd1607_200x200.c ****   /* write_pulse_width_ns = */ 150,	
  82:/Users/imashio/Electronics/ARM/_Library/u8x8_d_ssd1607_200x200.c ****   /* tile_width = */ 25,		/* 25*8 = 200 */
  83:/Users/imashio/Electronics/ARM/_Library/u8x8_d_ssd1607_200x200.c ****   /* tile_hight = */ 25,		
  84:/Users/imashio/Electronics/ARM/_Library/u8x8_d_ssd1607_200x200.c ****   /* default_x_offset = */ 0,
  85:/Users/imashio/Electronics/ARM/_Library/u8x8_d_ssd1607_200x200.c ****   /* flipmode_x_offset = */ 0,
  86:/Users/imashio/Electronics/ARM/_Library/u8x8_d_ssd1607_200x200.c ****   /* pixel_width = */ 200,
  87:/Users/imashio/Electronics/ARM/_Library/u8x8_d_ssd1607_200x200.c ****   /* pixel_height = */ 200		
  88:/Users/imashio/Electronics/ARM/_Library/u8x8_d_ssd1607_200x200.c **** };
ARM GAS  /var/folders/v3/wysfpd052nz8jkbx04pk0ym80000gn/T//cceC8XTT.s 			page 3


  89:/Users/imashio/Electronics/ARM/_Library/u8x8_d_ssd1607_200x200.c **** 
  90:/Users/imashio/Electronics/ARM/_Library/u8x8_d_ssd1607_200x200.c **** 
  91:/Users/imashio/Electronics/ARM/_Library/u8x8_d_ssd1607_200x200.c **** static const uint8_t u8x8_d_ssd1607_200x200_powersave0_seq[] = {
  92:/Users/imashio/Electronics/ARM/_Library/u8x8_d_ssd1607_200x200.c ****   U8X8_START_TRANSFER(),             	/* enable chip, delay is part of the transfer start */
  93:/Users/imashio/Electronics/ARM/_Library/u8x8_d_ssd1607_200x200.c ****   U8X8_CA(0x22, 0xc0),			/* enable clock and charge pump */
  94:/Users/imashio/Electronics/ARM/_Library/u8x8_d_ssd1607_200x200.c ****   U8X8_C(0x20),				/* execute sequence */  
  95:/Users/imashio/Electronics/ARM/_Library/u8x8_d_ssd1607_200x200.c ****   U8X8_DLY(200),				/* according to my measures it may take up to 150ms */
  96:/Users/imashio/Electronics/ARM/_Library/u8x8_d_ssd1607_200x200.c ****   U8X8_DLY(100),				/* but it might take longer */
  97:/Users/imashio/Electronics/ARM/_Library/u8x8_d_ssd1607_200x200.c ****   U8X8_END_TRANSFER(),             	/* disable chip */
  98:/Users/imashio/Electronics/ARM/_Library/u8x8_d_ssd1607_200x200.c ****   U8X8_END()             			/* end of sequence */
  99:/Users/imashio/Electronics/ARM/_Library/u8x8_d_ssd1607_200x200.c **** };
 100:/Users/imashio/Electronics/ARM/_Library/u8x8_d_ssd1607_200x200.c **** 
 101:/Users/imashio/Electronics/ARM/_Library/u8x8_d_ssd1607_200x200.c **** static const uint8_t u8x8_d_ssd1607_200x200_powersave1_seq[] = {
 102:/Users/imashio/Electronics/ARM/_Library/u8x8_d_ssd1607_200x200.c ****   U8X8_START_TRANSFER(),             	/* enable chip, delay is part of the transfer start */  
 103:/Users/imashio/Electronics/ARM/_Library/u8x8_d_ssd1607_200x200.c ****   /* disable clock and charge pump only, deep sleep is not entered, because we will loose RAM conte
 104:/Users/imashio/Electronics/ARM/_Library/u8x8_d_ssd1607_200x200.c ****   U8X8_CA(0x22, 0x02),			/* only disable charge pump, HW reset seems to be required if the clock is
 105:/Users/imashio/Electronics/ARM/_Library/u8x8_d_ssd1607_200x200.c ****   U8X8_C(0x20),				/* execute sequence */  
 106:/Users/imashio/Electronics/ARM/_Library/u8x8_d_ssd1607_200x200.c ****   U8X8_DLY(20),
 107:/Users/imashio/Electronics/ARM/_Library/u8x8_d_ssd1607_200x200.c ****   U8X8_END_TRANSFER(),             	/* disable chip */
 108:/Users/imashio/Electronics/ARM/_Library/u8x8_d_ssd1607_200x200.c ****   U8X8_END()             			/* end of sequence */
 109:/Users/imashio/Electronics/ARM/_Library/u8x8_d_ssd1607_200x200.c **** };
 110:/Users/imashio/Electronics/ARM/_Library/u8x8_d_ssd1607_200x200.c **** 
 111:/Users/imashio/Electronics/ARM/_Library/u8x8_d_ssd1607_200x200.c **** 
 112:/Users/imashio/Electronics/ARM/_Library/u8x8_d_ssd1607_200x200.c **** static const uint8_t u8x8_d_ssd1607_200x200_exec_1000dly_seq[] = {
 113:/Users/imashio/Electronics/ARM/_Library/u8x8_d_ssd1607_200x200.c ****   // assumes, that the start transfer has happend
 114:/Users/imashio/Electronics/ARM/_Library/u8x8_d_ssd1607_200x200.c ****   U8X8_CA(0x22, 0x04),	/* display update seq. option: pattern display */
 115:/Users/imashio/Electronics/ARM/_Library/u8x8_d_ssd1607_200x200.c ****   U8X8_C(0x20),	/* execute sequence */
 116:/Users/imashio/Electronics/ARM/_Library/u8x8_d_ssd1607_200x200.c ****   U8X8_DLY(250),
 117:/Users/imashio/Electronics/ARM/_Library/u8x8_d_ssd1607_200x200.c ****   U8X8_DLY(250),
 118:/Users/imashio/Electronics/ARM/_Library/u8x8_d_ssd1607_200x200.c ****   U8X8_DLY(250),
 119:/Users/imashio/Electronics/ARM/_Library/u8x8_d_ssd1607_200x200.c ****   U8X8_DLY(250),
 120:/Users/imashio/Electronics/ARM/_Library/u8x8_d_ssd1607_200x200.c ****   U8X8_END_TRANSFER(),             	/* disable chip */
 121:/Users/imashio/Electronics/ARM/_Library/u8x8_d_ssd1607_200x200.c ****   U8X8_END()             			/* end of sequence */
 122:/Users/imashio/Electronics/ARM/_Library/u8x8_d_ssd1607_200x200.c **** };
 123:/Users/imashio/Electronics/ARM/_Library/u8x8_d_ssd1607_200x200.c **** 
 124:/Users/imashio/Electronics/ARM/_Library/u8x8_d_ssd1607_200x200.c **** 
 125:/Users/imashio/Electronics/ARM/_Library/u8x8_d_ssd1607_200x200.c **** static void u8x8_d_ssd1607_200x200_first_init(u8x8_t *u8x8)
 126:/Users/imashio/Electronics/ARM/_Library/u8x8_d_ssd1607_200x200.c **** {
  28              		.loc 1 126 0
  29              		.cfi_startproc
  30              		@ args = 0, pretend = 0, frame = 0
  31              		@ frame_needed = 0, uses_anonymous_args = 0
  32              	.LVL0:
  33 0000 10B5     		push	{r4, lr}
  34              	.LCFI0:
  35              		.cfi_def_cfa_offset 8
  36              		.cfi_offset 4, -8
  37              		.cfi_offset 14, -4
  38              		.loc 1 126 0
  39 0002 0446     		mov	r4, r0
 127:/Users/imashio/Electronics/ARM/_Library/u8x8_d_ssd1607_200x200.c ****       u8x8_ClearDisplay(u8x8);
  40              		.loc 1 127 0
  41 0004 FFF7FEFF 		bl	u8x8_ClearDisplay
  42              	.LVL1:
 128:/Users/imashio/Electronics/ARM/_Library/u8x8_d_ssd1607_200x200.c ****   
 129:/Users/imashio/Electronics/ARM/_Library/u8x8_d_ssd1607_200x200.c ****       u8x8_cad_StartTransfer(u8x8);
  43              		.loc 1 129 0
ARM GAS  /var/folders/v3/wysfpd052nz8jkbx04pk0ym80000gn/T//cceC8XTT.s 			page 4


  44 0008 2046     		mov	r0, r4
  45 000a FFF7FEFF 		bl	u8x8_cad_StartTransfer
  46              	.LVL2:
 130:/Users/imashio/Electronics/ARM/_Library/u8x8_d_ssd1607_200x200.c ****       u8x8_cad_SendCmd(u8x8, 0x032);		// program update sequence
  47              		.loc 1 130 0
  48 000e 2046     		mov	r0, r4
  49 0010 3221     		movs	r1, #50
  50 0012 FFF7FEFF 		bl	u8x8_cad_SendCmd
  51              	.LVL3:
 131:/Users/imashio/Electronics/ARM/_Library/u8x8_d_ssd1607_200x200.c ****       u8x8_cad_SendMultipleArg(u8x8, 8, 0x055);		// all black
  52              		.loc 1 131 0
  53 0016 2046     		mov	r0, r4
  54 0018 5522     		movs	r2, #85
  55 001a 0821     		movs	r1, #8
  56 001c FFF7FEFF 		bl	u8x8_cad_SendMultipleArg
  57              	.LVL4:
 132:/Users/imashio/Electronics/ARM/_Library/u8x8_d_ssd1607_200x200.c ****       u8x8_cad_SendMultipleArg(u8x8, 12, 0x0aa);		// all white
  58              		.loc 1 132 0
  59 0020 2046     		mov	r0, r4
  60 0022 AA22     		movs	r2, #170
  61 0024 0C21     		movs	r1, #12
  62 0026 FFF7FEFF 		bl	u8x8_cad_SendMultipleArg
  63              	.LVL5:
 133:/Users/imashio/Electronics/ARM/_Library/u8x8_d_ssd1607_200x200.c ****       u8x8_cad_SendMultipleArg(u8x8, 10, 0x022);		// 830ms
  64              		.loc 1 133 0
  65 002a 2046     		mov	r0, r4
  66 002c 0A21     		movs	r1, #10
  67 002e 2222     		movs	r2, #34
  68 0030 FFF7FEFF 		bl	u8x8_cad_SendMultipleArg
  69              	.LVL6:
 134:/Users/imashio/Electronics/ARM/_Library/u8x8_d_ssd1607_200x200.c ****       u8x8_cad_SendSequence(u8x8, u8x8_d_ssd1607_200x200_exec_1000dly_seq);
  70              		.loc 1 134 0
  71 0034 2046     		mov	r0, r4
  72 0036 0249     		ldr	r1, .L4
 135:/Users/imashio/Electronics/ARM/_Library/u8x8_d_ssd1607_200x200.c ****   
 136:/Users/imashio/Electronics/ARM/_Library/u8x8_d_ssd1607_200x200.c **** }
  73              		.loc 1 136 0
  74 0038 BDE81040 		pop	{r4, lr}
  75              	.LCFI1:
  76              		.cfi_restore 14
  77              		.cfi_restore 4
  78              		.cfi_def_cfa_offset 0
  79              	.LVL7:
 134:/Users/imashio/Electronics/ARM/_Library/u8x8_d_ssd1607_200x200.c ****       u8x8_cad_SendSequence(u8x8, u8x8_d_ssd1607_200x200_exec_1000dly_seq);
  80              		.loc 1 134 0
  81 003c FFF7FEBF 		b	u8x8_cad_SendSequence
  82              	.LVL8:
  83              	.L5:
  84              		.align	2
  85              	.L4:
  86 0040 00000000 		.word	.LANCHOR0
  87              		.cfi_endproc
  88              	.LFE0:
  90              		.section	.text.u8x8_d_ssd1607_draw_tile,"ax",%progbits
  91              		.align	1
  92              		.p2align 2,,3
  93              		.syntax unified
ARM GAS  /var/folders/v3/wysfpd052nz8jkbx04pk0ym80000gn/T//cceC8XTT.s 			page 5


  94              		.thumb
  95              		.thumb_func
  96              		.fpu fpv4-sp-d16
  98              	u8x8_d_ssd1607_draw_tile:
  99              	.LFB2:
 137:/Users/imashio/Electronics/ARM/_Library/u8x8_d_ssd1607_200x200.c **** 
 138:/Users/imashio/Electronics/ARM/_Library/u8x8_d_ssd1607_200x200.c **** static uint8_t *u8x8_convert_tile_for_ssd1607(uint8_t *t)
 139:/Users/imashio/Electronics/ARM/_Library/u8x8_d_ssd1607_200x200.c **** {
 140:/Users/imashio/Electronics/ARM/_Library/u8x8_d_ssd1607_200x200.c ****   uint8_t i;
 141:/Users/imashio/Electronics/ARM/_Library/u8x8_d_ssd1607_200x200.c ****   static uint8_t buf[8];
 142:/Users/imashio/Electronics/ARM/_Library/u8x8_d_ssd1607_200x200.c ****   uint8_t *pbuf = buf;
 143:/Users/imashio/Electronics/ARM/_Library/u8x8_d_ssd1607_200x200.c **** 
 144:/Users/imashio/Electronics/ARM/_Library/u8x8_d_ssd1607_200x200.c ****   for( i = 0; i < 8; i++ )
 145:/Users/imashio/Electronics/ARM/_Library/u8x8_d_ssd1607_200x200.c ****   {
 146:/Users/imashio/Electronics/ARM/_Library/u8x8_d_ssd1607_200x200.c ****     *pbuf++ = ~(*t++);
 147:/Users/imashio/Electronics/ARM/_Library/u8x8_d_ssd1607_200x200.c ****   }
 148:/Users/imashio/Electronics/ARM/_Library/u8x8_d_ssd1607_200x200.c ****   return buf;
 149:/Users/imashio/Electronics/ARM/_Library/u8x8_d_ssd1607_200x200.c **** }
 150:/Users/imashio/Electronics/ARM/_Library/u8x8_d_ssd1607_200x200.c **** 
 151:/Users/imashio/Electronics/ARM/_Library/u8x8_d_ssd1607_200x200.c **** static void u8x8_d_ssd1607_draw_tile(u8x8_t *u8x8, uint8_t arg_int, void *arg_ptr) U8X8_NOINLINE;
 152:/Users/imashio/Electronics/ARM/_Library/u8x8_d_ssd1607_200x200.c **** static void u8x8_d_ssd1607_draw_tile(u8x8_t *u8x8, uint8_t arg_int, void *arg_ptr)
 153:/Users/imashio/Electronics/ARM/_Library/u8x8_d_ssd1607_200x200.c **** {
 100              		.loc 1 153 0
 101              		.cfi_startproc
 102              		@ args = 0, pretend = 0, frame = 0
 103              		@ frame_needed = 0, uses_anonymous_args = 0
 104              	.LVL9:
 105 0000 2DE9F843 		push	{r3, r4, r5, r6, r7, r8, r9, lr}
 106              	.LCFI2:
 107              		.cfi_def_cfa_offset 32
 108              		.cfi_offset 3, -32
 109              		.cfi_offset 4, -28
 110              		.cfi_offset 5, -24
 111              		.cfi_offset 6, -20
 112              		.cfi_offset 7, -16
 113              		.cfi_offset 8, -12
 114              		.cfi_offset 9, -8
 115              		.cfi_offset 14, -4
 116              		.loc 1 153 0
 117 0004 0646     		mov	r6, r0
 118 0006 9146     		mov	r9, r2
 119 0008 8846     		mov	r8, r1
 154:/Users/imashio/Electronics/ARM/_Library/u8x8_d_ssd1607_200x200.c ****   uint16_t x;
 155:/Users/imashio/Electronics/ARM/_Library/u8x8_d_ssd1607_200x200.c ****   uint8_t c, page;
 156:/Users/imashio/Electronics/ARM/_Library/u8x8_d_ssd1607_200x200.c ****   uint8_t *ptr;
 157:/Users/imashio/Electronics/ARM/_Library/u8x8_d_ssd1607_200x200.c ****   u8x8_cad_StartTransfer(u8x8);
 120              		.loc 1 157 0
 121 000a FFF7FEFF 		bl	u8x8_cad_StartTransfer
 122              	.LVL10:
 158:/Users/imashio/Electronics/ARM/_Library/u8x8_d_ssd1607_200x200.c **** 
 159:/Users/imashio/Electronics/ARM/_Library/u8x8_d_ssd1607_200x200.c ****   page = u8x8->display_info->tile_height;
 123              		.loc 1 159 0
 124 000e 3268     		ldr	r2, [r6]
 160:/Users/imashio/Electronics/ARM/_Library/u8x8_d_ssd1607_200x200.c ****   page --;
 161:/Users/imashio/Electronics/ARM/_Library/u8x8_d_ssd1607_200x200.c ****   page -= (((u8x8_tile_t *)arg_ptr)->y_pos);
 125              		.loc 1 161 0
 126 0010 99F80630 		ldrb	r3, [r9, #6]	@ zero_extendqisi2
ARM GAS  /var/folders/v3/wysfpd052nz8jkbx04pk0ym80000gn/T//cceC8XTT.s 			page 6


 159:/Users/imashio/Electronics/ARM/_Library/u8x8_d_ssd1607_200x200.c ****   page --;
 127              		.loc 1 159 0
 128 0014 547C     		ldrb	r4, [r2, #17]	@ zero_extendqisi2
 129              	.LVL11:
 162:/Users/imashio/Electronics/ARM/_Library/u8x8_d_ssd1607_200x200.c ****   
 163:/Users/imashio/Electronics/ARM/_Library/u8x8_d_ssd1607_200x200.c ****   x = ((u8x8_tile_t *)arg_ptr)->x_pos;
 164:/Users/imashio/Electronics/ARM/_Library/u8x8_d_ssd1607_200x200.c ****   x *= 8;
 165:/Users/imashio/Electronics/ARM/_Library/u8x8_d_ssd1607_200x200.c ****   x += u8x8->x_offset;
 130              		.loc 1 165 0
 131 0016 B57F     		ldrb	r5, [r6, #30]	@ zero_extendqisi2
 163:/Users/imashio/Electronics/ARM/_Library/u8x8_d_ssd1607_200x200.c ****   x *= 8;
 132              		.loc 1 163 0
 133 0018 99F80520 		ldrb	r2, [r9, #5]	@ zero_extendqisi2
 166:/Users/imashio/Electronics/ARM/_Library/u8x8_d_ssd1607_200x200.c **** 
 167:/Users/imashio/Electronics/ARM/_Library/u8x8_d_ssd1607_200x200.c ****   u8x8_cad_SendCmd(u8x8, 0x045 );	/* window start column */
 168:/Users/imashio/Electronics/ARM/_Library/u8x8_d_ssd1607_200x200.c ****   u8x8_cad_SendArg(u8x8, 0);
 169:/Users/imashio/Electronics/ARM/_Library/u8x8_d_ssd1607_200x200.c ****   u8x8_cad_SendArg(u8x8, 0);
 170:/Users/imashio/Electronics/ARM/_Library/u8x8_d_ssd1607_200x200.c ****   u8x8_cad_SendArg(u8x8, 199);		/* end of display */
 171:/Users/imashio/Electronics/ARM/_Library/u8x8_d_ssd1607_200x200.c ****   u8x8_cad_SendArg(u8x8, 0);
 172:/Users/imashio/Electronics/ARM/_Library/u8x8_d_ssd1607_200x200.c **** 
 173:/Users/imashio/Electronics/ARM/_Library/u8x8_d_ssd1607_200x200.c ****   u8x8_cad_SendCmd(u8x8, 0x044 );	/* window end page */
 174:/Users/imashio/Electronics/ARM/_Library/u8x8_d_ssd1607_200x200.c ****   u8x8_cad_SendArg(u8x8, page);
 175:/Users/imashio/Electronics/ARM/_Library/u8x8_d_ssd1607_200x200.c ****   u8x8_cad_SendArg(u8x8, page);
 176:/Users/imashio/Electronics/ARM/_Library/u8x8_d_ssd1607_200x200.c **** 
 177:/Users/imashio/Electronics/ARM/_Library/u8x8_d_ssd1607_200x200.c ****   u8x8_cad_SendCmd(u8x8, 0x04f );	/* window column */
 178:/Users/imashio/Electronics/ARM/_Library/u8x8_d_ssd1607_200x200.c ****   u8x8_cad_SendArg(u8x8, x&255);
 179:/Users/imashio/Electronics/ARM/_Library/u8x8_d_ssd1607_200x200.c ****   u8x8_cad_SendArg(u8x8, x>>8);
 180:/Users/imashio/Electronics/ARM/_Library/u8x8_d_ssd1607_200x200.c **** 
 181:/Users/imashio/Electronics/ARM/_Library/u8x8_d_ssd1607_200x200.c ****   u8x8_cad_SendCmd(u8x8, 0x04e );	/* window row */
 182:/Users/imashio/Electronics/ARM/_Library/u8x8_d_ssd1607_200x200.c ****   u8x8_cad_SendArg(u8x8, page);
 183:/Users/imashio/Electronics/ARM/_Library/u8x8_d_ssd1607_200x200.c **** 
 184:/Users/imashio/Electronics/ARM/_Library/u8x8_d_ssd1607_200x200.c ****   u8x8_cad_SendCmd(u8x8, 0x024 );
 185:/Users/imashio/Electronics/ARM/_Library/u8x8_d_ssd1607_200x200.c ****   
 186:/Users/imashio/Electronics/ARM/_Library/u8x8_d_ssd1607_200x200.c ****   do
 187:/Users/imashio/Electronics/ARM/_Library/u8x8_d_ssd1607_200x200.c ****   {
 188:/Users/imashio/Electronics/ARM/_Library/u8x8_d_ssd1607_200x200.c ****     c = ((u8x8_tile_t *)arg_ptr)->cnt;
 189:/Users/imashio/Electronics/ARM/_Library/u8x8_d_ssd1607_200x200.c ****     ptr = ((u8x8_tile_t *)arg_ptr)->tile_ptr;
 190:/Users/imashio/Electronics/ARM/_Library/u8x8_d_ssd1607_200x200.c ****     do
 191:/Users/imashio/Electronics/ARM/_Library/u8x8_d_ssd1607_200x200.c ****     {
 192:/Users/imashio/Electronics/ARM/_Library/u8x8_d_ssd1607_200x200.c ****       u8x8_cad_SendData(u8x8, 8, u8x8_convert_tile_for_ssd1607(ptr));
 134              		.loc 1 192 0
 135 001c 304F     		ldr	r7, .L14
 161:/Users/imashio/Electronics/ARM/_Library/u8x8_d_ssd1607_200x200.c ****   
 136              		.loc 1 161 0
 137 001e DB43     		mvns	r3, r3
 167:/Users/imashio/Electronics/ARM/_Library/u8x8_d_ssd1607_200x200.c ****   u8x8_cad_SendArg(u8x8, 0);
 138              		.loc 1 167 0
 139 0020 4521     		movs	r1, #69
 140 0022 3046     		mov	r0, r6
 165:/Users/imashio/Electronics/ARM/_Library/u8x8_d_ssd1607_200x200.c **** 
 141              		.loc 1 165 0
 142 0024 05EBC205 		add	r5, r5, r2, lsl #3
 161:/Users/imashio/Electronics/ARM/_Library/u8x8_d_ssd1607_200x200.c ****   
 143              		.loc 1 161 0
 144 0028 1C44     		add	r4, r4, r3
 145              	.LVL12:
 167:/Users/imashio/Electronics/ARM/_Library/u8x8_d_ssd1607_200x200.c ****   u8x8_cad_SendArg(u8x8, 0);
ARM GAS  /var/folders/v3/wysfpd052nz8jkbx04pk0ym80000gn/T//cceC8XTT.s 			page 7


 146              		.loc 1 167 0
 147 002a FFF7FEFF 		bl	u8x8_cad_SendCmd
 148              	.LVL13:
 168:/Users/imashio/Electronics/ARM/_Library/u8x8_d_ssd1607_200x200.c ****   u8x8_cad_SendArg(u8x8, 0);
 149              		.loc 1 168 0
 150 002e 0021     		movs	r1, #0
 151 0030 3046     		mov	r0, r6
 152 0032 FFF7FEFF 		bl	u8x8_cad_SendArg
 153              	.LVL14:
 169:/Users/imashio/Electronics/ARM/_Library/u8x8_d_ssd1607_200x200.c ****   u8x8_cad_SendArg(u8x8, 199);		/* end of display */
 154              		.loc 1 169 0
 155 0036 0021     		movs	r1, #0
 156 0038 3046     		mov	r0, r6
 157 003a FFF7FEFF 		bl	u8x8_cad_SendArg
 158              	.LVL15:
 170:/Users/imashio/Electronics/ARM/_Library/u8x8_d_ssd1607_200x200.c ****   u8x8_cad_SendArg(u8x8, 0);
 159              		.loc 1 170 0
 160 003e C721     		movs	r1, #199
 161 0040 3046     		mov	r0, r6
 162 0042 FFF7FEFF 		bl	u8x8_cad_SendArg
 163              	.LVL16:
 171:/Users/imashio/Electronics/ARM/_Library/u8x8_d_ssd1607_200x200.c **** 
 164              		.loc 1 171 0
 165 0046 0021     		movs	r1, #0
 166 0048 3046     		mov	r0, r6
 161:/Users/imashio/Electronics/ARM/_Library/u8x8_d_ssd1607_200x200.c ****   
 167              		.loc 1 161 0
 168 004a E4B2     		uxtb	r4, r4
 169              	.LVL17:
 171:/Users/imashio/Electronics/ARM/_Library/u8x8_d_ssd1607_200x200.c **** 
 170              		.loc 1 171 0
 171 004c FFF7FEFF 		bl	u8x8_cad_SendArg
 172              	.LVL18:
 173:/Users/imashio/Electronics/ARM/_Library/u8x8_d_ssd1607_200x200.c ****   u8x8_cad_SendArg(u8x8, page);
 173              		.loc 1 173 0
 174 0050 4421     		movs	r1, #68
 175 0052 3046     		mov	r0, r6
 176 0054 FFF7FEFF 		bl	u8x8_cad_SendCmd
 177              	.LVL19:
 174:/Users/imashio/Electronics/ARM/_Library/u8x8_d_ssd1607_200x200.c ****   u8x8_cad_SendArg(u8x8, page);
 178              		.loc 1 174 0
 179 0058 2146     		mov	r1, r4
 180 005a 3046     		mov	r0, r6
 181 005c FFF7FEFF 		bl	u8x8_cad_SendArg
 182              	.LVL20:
 175:/Users/imashio/Electronics/ARM/_Library/u8x8_d_ssd1607_200x200.c **** 
 183              		.loc 1 175 0
 184 0060 2146     		mov	r1, r4
 185 0062 3046     		mov	r0, r6
 186 0064 FFF7FEFF 		bl	u8x8_cad_SendArg
 187              	.LVL21:
 177:/Users/imashio/Electronics/ARM/_Library/u8x8_d_ssd1607_200x200.c ****   u8x8_cad_SendArg(u8x8, x&255);
 188              		.loc 1 177 0
 189 0068 4F21     		movs	r1, #79
 190 006a 3046     		mov	r0, r6
 191 006c FFF7FEFF 		bl	u8x8_cad_SendCmd
 192              	.LVL22:
ARM GAS  /var/folders/v3/wysfpd052nz8jkbx04pk0ym80000gn/T//cceC8XTT.s 			page 8


 178:/Users/imashio/Electronics/ARM/_Library/u8x8_d_ssd1607_200x200.c ****   u8x8_cad_SendArg(u8x8, x>>8);
 193              		.loc 1 178 0
 194 0070 E9B2     		uxtb	r1, r5
 195 0072 3046     		mov	r0, r6
 196 0074 FFF7FEFF 		bl	u8x8_cad_SendArg
 197              	.LVL23:
 179:/Users/imashio/Electronics/ARM/_Library/u8x8_d_ssd1607_200x200.c **** 
 198              		.loc 1 179 0
 199 0078 290A     		lsrs	r1, r5, #8
 200 007a 3046     		mov	r0, r6
 201 007c FFF7FEFF 		bl	u8x8_cad_SendArg
 202              	.LVL24:
 181:/Users/imashio/Electronics/ARM/_Library/u8x8_d_ssd1607_200x200.c ****   u8x8_cad_SendArg(u8x8, page);
 203              		.loc 1 181 0
 204 0080 4E21     		movs	r1, #78
 205 0082 3046     		mov	r0, r6
 206 0084 FFF7FEFF 		bl	u8x8_cad_SendCmd
 207              	.LVL25:
 182:/Users/imashio/Electronics/ARM/_Library/u8x8_d_ssd1607_200x200.c **** 
 208              		.loc 1 182 0
 209 0088 2146     		mov	r1, r4
 210 008a 3046     		mov	r0, r6
 211 008c FFF7FEFF 		bl	u8x8_cad_SendArg
 212              	.LVL26:
 184:/Users/imashio/Electronics/ARM/_Library/u8x8_d_ssd1607_200x200.c ****   
 213              		.loc 1 184 0
 214 0090 3046     		mov	r0, r6
 215 0092 2421     		movs	r1, #36
 216 0094 FFF7FEFF 		bl	u8x8_cad_SendCmd
 217              	.LVL27:
 218              	.L9:
 219 0098 99F80450 		ldrb	r5, [r9, #4]	@ zero_extendqisi2
 189:/Users/imashio/Electronics/ARM/_Library/u8x8_d_ssd1607_200x200.c ****     do
 220              		.loc 1 189 0
 221 009c D9F80040 		ldr	r4, [r9]
 222              	.LVL28:
 223 00a0 013D     		subs	r5, r5, #1
 224 00a2 EDB2     		uxtb	r5, r5
 225 00a4 0135     		adds	r5, r5, #1
 226 00a6 04EBC505 		add	r5, r4, r5, lsl #3
 227              	.LVL29:
 228              	.L8:
 229              	.LBB4:
 230              	.LBB5:
 142:/Users/imashio/Electronics/ARM/_Library/u8x8_d_ssd1607_200x200.c **** 
 231              		.loc 1 142 0 discriminator 1
 232 00aa 0D4A     		ldr	r2, .L14
 233 00ac 04F10801 		add	r1, r4, #8
 234              	.LVL30:
 235              	.L7:
 146:/Users/imashio/Electronics/ARM/_Library/u8x8_d_ssd1607_200x200.c ****   }
 236              		.loc 1 146 0
 237 00b0 14F8013B 		ldrb	r3, [r4], #1	@ zero_extendqisi2
 238              	.LVL31:
 239 00b4 DB43     		mvns	r3, r3
 144:/Users/imashio/Electronics/ARM/_Library/u8x8_d_ssd1607_200x200.c ****   {
 240              		.loc 1 144 0
ARM GAS  /var/folders/v3/wysfpd052nz8jkbx04pk0ym80000gn/T//cceC8XTT.s 			page 9


 241 00b6 8C42     		cmp	r4, r1
 146:/Users/imashio/Electronics/ARM/_Library/u8x8_d_ssd1607_200x200.c ****   }
 242              		.loc 1 146 0
 243 00b8 02F8013B 		strb	r3, [r2], #1
 244              	.LVL32:
 144:/Users/imashio/Electronics/ARM/_Library/u8x8_d_ssd1607_200x200.c ****   {
 245              		.loc 1 144 0
 246 00bc F8D1     		bne	.L7
 247              	.LVL33:
 248              	.LBE5:
 249              	.LBE4:
 250              		.loc 1 192 0
 251 00be 3A46     		mov	r2, r7
 252 00c0 0821     		movs	r1, #8
 253              	.LVL34:
 254 00c2 3046     		mov	r0, r6
 255 00c4 FFF7FEFF 		bl	u8x8_cad_SendData
 256              	.LVL35:
 193:/Users/imashio/Electronics/ARM/_Library/u8x8_d_ssd1607_200x200.c ****       ptr += 8;
 194:/Users/imashio/Electronics/ARM/_Library/u8x8_d_ssd1607_200x200.c ****       x += 8;
 195:/Users/imashio/Electronics/ARM/_Library/u8x8_d_ssd1607_200x200.c ****       c--;
 196:/Users/imashio/Electronics/ARM/_Library/u8x8_d_ssd1607_200x200.c ****     } while( c > 0 );
 257              		.loc 1 196 0
 258 00c8 AC42     		cmp	r4, r5
 259 00ca EED1     		bne	.L8
 197:/Users/imashio/Electronics/ARM/_Library/u8x8_d_ssd1607_200x200.c ****     
 198:/Users/imashio/Electronics/ARM/_Library/u8x8_d_ssd1607_200x200.c ****     arg_int--;
 260              		.loc 1 198 0
 261 00cc 08F1FF38 		add	r8, r8, #-1
 262              	.LVL36:
 199:/Users/imashio/Electronics/ARM/_Library/u8x8_d_ssd1607_200x200.c ****   } while( arg_int > 0 );
 263              		.loc 1 199 0
 264 00d0 18F0FF08 		ands	r8, r8, #255
 265              	.LVL37:
 266 00d4 E0D1     		bne	.L9
 200:/Users/imashio/Electronics/ARM/_Library/u8x8_d_ssd1607_200x200.c ****   
 201:/Users/imashio/Electronics/ARM/_Library/u8x8_d_ssd1607_200x200.c ****   u8x8_cad_EndTransfer(u8x8);
 267              		.loc 1 201 0
 268 00d6 3046     		mov	r0, r6
 202:/Users/imashio/Electronics/ARM/_Library/u8x8_d_ssd1607_200x200.c **** }
 269              		.loc 1 202 0
 270 00d8 BDE8F843 		pop	{r3, r4, r5, r6, r7, r8, r9, lr}
 271              	.LCFI3:
 272              		.cfi_restore 14
 273              		.cfi_restore 9
 274              		.cfi_restore 8
 275              		.cfi_restore 7
 276              		.cfi_restore 6
 277              		.cfi_restore 5
 278              		.cfi_restore 4
 279              		.cfi_restore 3
 280              		.cfi_def_cfa_offset 0
 281              	.LVL38:
 201:/Users/imashio/Electronics/ARM/_Library/u8x8_d_ssd1607_200x200.c **** }
 282              		.loc 1 201 0
 283 00dc FFF7FEBF 		b	u8x8_cad_EndTransfer
 284              	.LVL39:
ARM GAS  /var/folders/v3/wysfpd052nz8jkbx04pk0ym80000gn/T//cceC8XTT.s 			page 10


 285              	.L15:
 286              		.align	2
 287              	.L14:
 288 00e0 00000000 		.word	.LANCHOR1
 289              		.cfi_endproc
 290              	.LFE2:
 292              		.section	.text.u8x8_d_ssd1607_200x200,"ax",%progbits
 293              		.align	1
 294              		.p2align 2,,3
 295              		.global	u8x8_d_ssd1607_200x200
 296              		.syntax unified
 297              		.thumb
 298              		.thumb_func
 299              		.fpu fpv4-sp-d16
 301              	u8x8_d_ssd1607_200x200:
 302              	.LFB3:
 203:/Users/imashio/Electronics/ARM/_Library/u8x8_d_ssd1607_200x200.c **** 
 204:/Users/imashio/Electronics/ARM/_Library/u8x8_d_ssd1607_200x200.c **** 
 205:/Users/imashio/Electronics/ARM/_Library/u8x8_d_ssd1607_200x200.c **** 
 206:/Users/imashio/Electronics/ARM/_Library/u8x8_d_ssd1607_200x200.c **** /*=================================================*/
 207:/Users/imashio/Electronics/ARM/_Library/u8x8_d_ssd1607_200x200.c **** 
 208:/Users/imashio/Electronics/ARM/_Library/u8x8_d_ssd1607_200x200.c **** 
 209:/Users/imashio/Electronics/ARM/_Library/u8x8_d_ssd1607_200x200.c **** #define L(a,b,c,d) (((a)<<6)|((b)<<4)|((c)<<2)|(d))
 210:/Users/imashio/Electronics/ARM/_Library/u8x8_d_ssd1607_200x200.c **** 
 211:/Users/imashio/Electronics/ARM/_Library/u8x8_d_ssd1607_200x200.c **** 
 212:/Users/imashio/Electronics/ARM/_Library/u8x8_d_ssd1607_200x200.c **** /* https://github.com/embeddedadventures/SSD1607/blob/master/SSD1607.cpp */
 213:/Users/imashio/Electronics/ARM/_Library/u8x8_d_ssd1607_200x200.c **** static const uint8_t u8x8_d_ssd1607_200x200_init_seq[] = {    
 214:/Users/imashio/Electronics/ARM/_Library/u8x8_d_ssd1607_200x200.c ****   U8X8_START_TRANSFER(),             	/* enable chip, delay is part of the transfer start */
 215:/Users/imashio/Electronics/ARM/_Library/u8x8_d_ssd1607_200x200.c **** 
 216:/Users/imashio/Electronics/ARM/_Library/u8x8_d_ssd1607_200x200.c ****   //U8X8_CA(0x10, 0x00),	/* Deep Sleep mode Control: Disable */
 217:/Users/imashio/Electronics/ARM/_Library/u8x8_d_ssd1607_200x200.c ****   U8X8_C(0x01),
 218:/Users/imashio/Electronics/ARM/_Library/u8x8_d_ssd1607_200x200.c ****   U8X8_A(199),U8X8_A(0),U8X8_A(0),
 219:/Users/imashio/Electronics/ARM/_Library/u8x8_d_ssd1607_200x200.c ****   
 220:/Users/imashio/Electronics/ARM/_Library/u8x8_d_ssd1607_200x200.c ****   
 221:/Users/imashio/Electronics/ARM/_Library/u8x8_d_ssd1607_200x200.c ****   U8X8_CA(0x03, 0x00), 	/* Gate Driving voltage: 15V (lowest value)*/
 222:/Users/imashio/Electronics/ARM/_Library/u8x8_d_ssd1607_200x200.c ****   U8X8_CA(0x04, 0x0a), 	/* Source Driving voltage: 15V (mid value and POR)*/
 223:/Users/imashio/Electronics/ARM/_Library/u8x8_d_ssd1607_200x200.c ****   
 224:/Users/imashio/Electronics/ARM/_Library/u8x8_d_ssd1607_200x200.c ****   U8X8_CA(0x0f, 0x00),		/* scan start ? */
 225:/Users/imashio/Electronics/ARM/_Library/u8x8_d_ssd1607_200x200.c ****   
 226:/Users/imashio/Electronics/ARM/_Library/u8x8_d_ssd1607_200x200.c ****   U8X8_CA(0xf0, 0x1f),	/* set booster feedback to internal */
 227:/Users/imashio/Electronics/ARM/_Library/u8x8_d_ssd1607_200x200.c **** 
 228:/Users/imashio/Electronics/ARM/_Library/u8x8_d_ssd1607_200x200.c ****   U8X8_CA(0x2c, 0xa8),	/* write vcom value*/
 229:/Users/imashio/Electronics/ARM/_Library/u8x8_d_ssd1607_200x200.c ****   U8X8_CA(0x3a, 0x1a),	/* dummy lines */
 230:/Users/imashio/Electronics/ARM/_Library/u8x8_d_ssd1607_200x200.c ****   U8X8_CA(0x3b, 0x08),	/* gate time */
 231:/Users/imashio/Electronics/ARM/_Library/u8x8_d_ssd1607_200x200.c ****   U8X8_CA(0x3c, 0x33),	/* select boarder waveform */
 232:/Users/imashio/Electronics/ARM/_Library/u8x8_d_ssd1607_200x200.c ****   
 233:/Users/imashio/Electronics/ARM/_Library/u8x8_d_ssd1607_200x200.c ****   U8X8_CA(0x11, 0x03),		/* cursor increment mode */
 234:/Users/imashio/Electronics/ARM/_Library/u8x8_d_ssd1607_200x200.c ****   U8X8_CAA(0x44, 0, 24),	/* RAM x start & end, each byte has 8 pixel, 25*4=200 */
 235:/Users/imashio/Electronics/ARM/_Library/u8x8_d_ssd1607_200x200.c ****   U8X8_CAAAA(0x45, 0, 0, 299&255, 299>>8),	/* RAM y start & end, 0..299 */
 236:/Users/imashio/Electronics/ARM/_Library/u8x8_d_ssd1607_200x200.c ****   
 237:/Users/imashio/Electronics/ARM/_Library/u8x8_d_ssd1607_200x200.c ****   U8X8_END_TRANSFER(),             	/* disable chip */
 238:/Users/imashio/Electronics/ARM/_Library/u8x8_d_ssd1607_200x200.c ****   U8X8_END()             			/* end of sequence */
 239:/Users/imashio/Electronics/ARM/_Library/u8x8_d_ssd1607_200x200.c **** };
 240:/Users/imashio/Electronics/ARM/_Library/u8x8_d_ssd1607_200x200.c **** 
 241:/Users/imashio/Electronics/ARM/_Library/u8x8_d_ssd1607_200x200.c **** static const uint8_t u8x8_d_ssd1607_to_display_seq[] = {
 242:/Users/imashio/Electronics/ARM/_Library/u8x8_d_ssd1607_200x200.c ****   U8X8_START_TRANSFER(),             	/* enable chip, delay is part of the transfer start */
 243:/Users/imashio/Electronics/ARM/_Library/u8x8_d_ssd1607_200x200.c **** 
ARM GAS  /var/folders/v3/wysfpd052nz8jkbx04pk0ym80000gn/T//cceC8XTT.s 			page 11


 244:/Users/imashio/Electronics/ARM/_Library/u8x8_d_ssd1607_200x200.c ****   U8X8_C(0x32),	/* write LUT register*/
 245:/Users/imashio/Electronics/ARM/_Library/u8x8_d_ssd1607_200x200.c **** 
 246:/Users/imashio/Electronics/ARM/_Library/u8x8_d_ssd1607_200x200.c ****   
 247:/Users/imashio/Electronics/ARM/_Library/u8x8_d_ssd1607_200x200.c ****   /* according to the command table, the lut has 240 bits (=30 bytes * 8 bits) */
 248:/Users/imashio/Electronics/ARM/_Library/u8x8_d_ssd1607_200x200.c ****   
 249:/Users/imashio/Electronics/ARM/_Library/u8x8_d_ssd1607_200x200.c ****   /* Waveform part of the LUT (20 bytes) */
 250:/Users/imashio/Electronics/ARM/_Library/u8x8_d_ssd1607_200x200.c ****   /* bit 7/6: 1 - 1 transition */
 251:/Users/imashio/Electronics/ARM/_Library/u8x8_d_ssd1607_200x200.c ****   /* bit 5/4: 1 - 0 transition */
 252:/Users/imashio/Electronics/ARM/_Library/u8x8_d_ssd1607_200x200.c ****   /* bit 3/2: 0 - 1 transition */
 253:/Users/imashio/Electronics/ARM/_Library/u8x8_d_ssd1607_200x200.c ****   /* bit 1/0: 0 - 0 transition */
 254:/Users/imashio/Electronics/ARM/_Library/u8x8_d_ssd1607_200x200.c ****   /* 	00 – VSS */
 255:/Users/imashio/Electronics/ARM/_Library/u8x8_d_ssd1607_200x200.c ****   /* 	01 – VSH */
 256:/Users/imashio/Electronics/ARM/_Library/u8x8_d_ssd1607_200x200.c ****   /* 	10 – VSL */
 257:/Users/imashio/Electronics/ARM/_Library/u8x8_d_ssd1607_200x200.c ****   /* 	11 – NA */
 258:/Users/imashio/Electronics/ARM/_Library/u8x8_d_ssd1607_200x200.c ****   
 259:/Users/imashio/Electronics/ARM/_Library/u8x8_d_ssd1607_200x200.c ****   /* original values */
 260:/Users/imashio/Electronics/ARM/_Library/u8x8_d_ssd1607_200x200.c ****   /*
 261:/Users/imashio/Electronics/ARM/_Library/u8x8_d_ssd1607_200x200.c ****   U8X8_A(0x02),
 262:/Users/imashio/Electronics/ARM/_Library/u8x8_d_ssd1607_200x200.c ****   U8X8_A(0x02),
 263:/Users/imashio/Electronics/ARM/_Library/u8x8_d_ssd1607_200x200.c ****   U8X8_A(0x01),
 264:/Users/imashio/Electronics/ARM/_Library/u8x8_d_ssd1607_200x200.c ****   U8X8_A(0x11),
 265:/Users/imashio/Electronics/ARM/_Library/u8x8_d_ssd1607_200x200.c ****   U8X8_A(0x12),
 266:/Users/imashio/Electronics/ARM/_Library/u8x8_d_ssd1607_200x200.c ****   U8X8_A(0x12),
 267:/Users/imashio/Electronics/ARM/_Library/u8x8_d_ssd1607_200x200.c ****   U8X8_A(0x22),
 268:/Users/imashio/Electronics/ARM/_Library/u8x8_d_ssd1607_200x200.c ****   U8X8_A(0x22),
 269:/Users/imashio/Electronics/ARM/_Library/u8x8_d_ssd1607_200x200.c ****   U8X8_A(0x66),
 270:/Users/imashio/Electronics/ARM/_Library/u8x8_d_ssd1607_200x200.c ****   U8X8_A(0x69),
 271:/Users/imashio/Electronics/ARM/_Library/u8x8_d_ssd1607_200x200.c ****   U8X8_A(0x69),
 272:/Users/imashio/Electronics/ARM/_Library/u8x8_d_ssd1607_200x200.c ****   U8X8_A(0x59),
 273:/Users/imashio/Electronics/ARM/_Library/u8x8_d_ssd1607_200x200.c ****   U8X8_A(0x58),
 274:/Users/imashio/Electronics/ARM/_Library/u8x8_d_ssd1607_200x200.c ****   U8X8_A(0x99),
 275:/Users/imashio/Electronics/ARM/_Library/u8x8_d_ssd1607_200x200.c ****   U8X8_A(0x99),
 276:/Users/imashio/Electronics/ARM/_Library/u8x8_d_ssd1607_200x200.c ****   U8X8_A(0x88),
 277:/Users/imashio/Electronics/ARM/_Library/u8x8_d_ssd1607_200x200.c ****   U8X8_A(0x00),
 278:/Users/imashio/Electronics/ARM/_Library/u8x8_d_ssd1607_200x200.c ****   U8X8_A(0x00),
 279:/Users/imashio/Electronics/ARM/_Library/u8x8_d_ssd1607_200x200.c ****   U8X8_A(0x00),
 280:/Users/imashio/Electronics/ARM/_Library/u8x8_d_ssd1607_200x200.c ****   U8X8_A(0x00),
 281:/Users/imashio/Electronics/ARM/_Library/u8x8_d_ssd1607_200x200.c ****   */
 282:/Users/imashio/Electronics/ARM/_Library/u8x8_d_ssd1607_200x200.c ****   
 283:/Users/imashio/Electronics/ARM/_Library/u8x8_d_ssd1607_200x200.c ****   /* original values, L-macro */
 284:/Users/imashio/Electronics/ARM/_Library/u8x8_d_ssd1607_200x200.c ****   U8X8_A(L(0,0,0,2)), // 0x02
 285:/Users/imashio/Electronics/ARM/_Library/u8x8_d_ssd1607_200x200.c ****   U8X8_A(L(0,0,0,2)), // 0x02
 286:/Users/imashio/Electronics/ARM/_Library/u8x8_d_ssd1607_200x200.c ****   U8X8_A(L(0,0,0,1)), // 0x01
 287:/Users/imashio/Electronics/ARM/_Library/u8x8_d_ssd1607_200x200.c ****   U8X8_A(L(0,1,0,1)), // 0x11
 288:/Users/imashio/Electronics/ARM/_Library/u8x8_d_ssd1607_200x200.c ****   U8X8_A(L(0,1,0,2)), // 0x12
 289:/Users/imashio/Electronics/ARM/_Library/u8x8_d_ssd1607_200x200.c ****   U8X8_A(L(0,1,0,2)), // 0x12
 290:/Users/imashio/Electronics/ARM/_Library/u8x8_d_ssd1607_200x200.c ****   U8X8_A(L(0,2,0,2)), // 0x22
 291:/Users/imashio/Electronics/ARM/_Library/u8x8_d_ssd1607_200x200.c ****   U8X8_A(L(0,2,0,2)), // 0x22
 292:/Users/imashio/Electronics/ARM/_Library/u8x8_d_ssd1607_200x200.c ****   U8X8_A(L(1,2,1,2)), // 0x66
 293:/Users/imashio/Electronics/ARM/_Library/u8x8_d_ssd1607_200x200.c ****   U8X8_A(L(1,2,2,1)), // 0x69
 294:/Users/imashio/Electronics/ARM/_Library/u8x8_d_ssd1607_200x200.c ****   U8X8_A(L(1,2,2,1)), // 0x69
 295:/Users/imashio/Electronics/ARM/_Library/u8x8_d_ssd1607_200x200.c ****   U8X8_A(L(1,1,2,1)), // 0x59
 296:/Users/imashio/Electronics/ARM/_Library/u8x8_d_ssd1607_200x200.c ****   U8X8_A(L(1,1,2,0)), // 0x58
 297:/Users/imashio/Electronics/ARM/_Library/u8x8_d_ssd1607_200x200.c ****   U8X8_A(L(2,1,2,1)), // 0x99
 298:/Users/imashio/Electronics/ARM/_Library/u8x8_d_ssd1607_200x200.c ****   U8X8_A(L(2,1,2,1)), // 0x99
 299:/Users/imashio/Electronics/ARM/_Library/u8x8_d_ssd1607_200x200.c ****   U8X8_A(L(2,0,2,0)), // 0x88
 300:/Users/imashio/Electronics/ARM/_Library/u8x8_d_ssd1607_200x200.c ****   U8X8_A(L(0,0,0,0)), // 0x00
ARM GAS  /var/folders/v3/wysfpd052nz8jkbx04pk0ym80000gn/T//cceC8XTT.s 			page 12


 301:/Users/imashio/Electronics/ARM/_Library/u8x8_d_ssd1607_200x200.c ****   U8X8_A(L(0,0,0,0)), // 0x00
 302:/Users/imashio/Electronics/ARM/_Library/u8x8_d_ssd1607_200x200.c ****   U8X8_A(L(0,0,0,0)), // 0x00
 303:/Users/imashio/Electronics/ARM/_Library/u8x8_d_ssd1607_200x200.c ****   U8X8_A(L(0,0,0,0)), // 0x00
 304:/Users/imashio/Electronics/ARM/_Library/u8x8_d_ssd1607_200x200.c **** 
 305:/Users/imashio/Electronics/ARM/_Library/u8x8_d_ssd1607_200x200.c **** 
 306:/Users/imashio/Electronics/ARM/_Library/u8x8_d_ssd1607_200x200.c ****   /* orginal values without 0-0 and 1-1 transition */
 307:/Users/imashio/Electronics/ARM/_Library/u8x8_d_ssd1607_200x200.c ****   /*
 308:/Users/imashio/Electronics/ARM/_Library/u8x8_d_ssd1607_200x200.c ****   U8X8_A(L(3,0,0,3)), // 0x02
 309:/Users/imashio/Electronics/ARM/_Library/u8x8_d_ssd1607_200x200.c ****   U8X8_A(L(3,0,0,3)), // 0x02
 310:/Users/imashio/Electronics/ARM/_Library/u8x8_d_ssd1607_200x200.c ****   U8X8_A(L(3,0,0,3)), // 0x01
 311:/Users/imashio/Electronics/ARM/_Library/u8x8_d_ssd1607_200x200.c ****   U8X8_A(L(3,1,0,3)), // 0x11
 312:/Users/imashio/Electronics/ARM/_Library/u8x8_d_ssd1607_200x200.c ****   U8X8_A(L(3,1,0,3)), // 0x12
 313:/Users/imashio/Electronics/ARM/_Library/u8x8_d_ssd1607_200x200.c ****   U8X8_A(L(3,1,0,3)), // 0x12
 314:/Users/imashio/Electronics/ARM/_Library/u8x8_d_ssd1607_200x200.c ****   U8X8_A(L(3,2,0,3)), // 0x22
 315:/Users/imashio/Electronics/ARM/_Library/u8x8_d_ssd1607_200x200.c ****   U8X8_A(L(3,2,0,3)), // 0x22
 316:/Users/imashio/Electronics/ARM/_Library/u8x8_d_ssd1607_200x200.c ****   U8X8_A(L(3,2,1,3)), // 0x66
 317:/Users/imashio/Electronics/ARM/_Library/u8x8_d_ssd1607_200x200.c ****   U8X8_A(L(3,2,2,3)), // 0x69
 318:/Users/imashio/Electronics/ARM/_Library/u8x8_d_ssd1607_200x200.c ****   U8X8_A(L(3,2,2,3)), // 0x69
 319:/Users/imashio/Electronics/ARM/_Library/u8x8_d_ssd1607_200x200.c ****   U8X8_A(L(3,1,2,3)), // 0x59
 320:/Users/imashio/Electronics/ARM/_Library/u8x8_d_ssd1607_200x200.c ****   U8X8_A(L(3,1,2,3)), // 0x58
 321:/Users/imashio/Electronics/ARM/_Library/u8x8_d_ssd1607_200x200.c ****   U8X8_A(L(3,1,2,3)), // 0x99
 322:/Users/imashio/Electronics/ARM/_Library/u8x8_d_ssd1607_200x200.c ****   U8X8_A(L(3,1,2,3)), // 0x99
 323:/Users/imashio/Electronics/ARM/_Library/u8x8_d_ssd1607_200x200.c ****   U8X8_A(L(3,0,2,3)), // 0x88
 324:/Users/imashio/Electronics/ARM/_Library/u8x8_d_ssd1607_200x200.c ****   U8X8_A(L(3,0,0,3)), // 0x00
 325:/Users/imashio/Electronics/ARM/_Library/u8x8_d_ssd1607_200x200.c ****   U8X8_A(L(3,0,0,3)), // 0x00
 326:/Users/imashio/Electronics/ARM/_Library/u8x8_d_ssd1607_200x200.c ****   U8X8_A(L(3,0,0,3)), // 0x00
 327:/Users/imashio/Electronics/ARM/_Library/u8x8_d_ssd1607_200x200.c ****   U8X8_A(L(3,0,0,3)), // 0x00
 328:/Users/imashio/Electronics/ARM/_Library/u8x8_d_ssd1607_200x200.c ****   */
 329:/Users/imashio/Electronics/ARM/_Library/u8x8_d_ssd1607_200x200.c ****   
 330:/Users/imashio/Electronics/ARM/_Library/u8x8_d_ssd1607_200x200.c ****   
 331:/Users/imashio/Electronics/ARM/_Library/u8x8_d_ssd1607_200x200.c ****   /* Timing part of the LUT, 20 Phases with 4 bit each: 10 bytes */
 332:/Users/imashio/Electronics/ARM/_Library/u8x8_d_ssd1607_200x200.c ****   U8X8_A(0xF8),
 333:/Users/imashio/Electronics/ARM/_Library/u8x8_d_ssd1607_200x200.c ****   U8X8_A(0xB4),
 334:/Users/imashio/Electronics/ARM/_Library/u8x8_d_ssd1607_200x200.c ****   U8X8_A(0x13),
 335:/Users/imashio/Electronics/ARM/_Library/u8x8_d_ssd1607_200x200.c ****   U8X8_A(0x51),
 336:/Users/imashio/Electronics/ARM/_Library/u8x8_d_ssd1607_200x200.c ****   U8X8_A(0x35),
 337:/Users/imashio/Electronics/ARM/_Library/u8x8_d_ssd1607_200x200.c ****   U8X8_A(0x51),
 338:/Users/imashio/Electronics/ARM/_Library/u8x8_d_ssd1607_200x200.c ****   U8X8_A(0x51),
 339:/Users/imashio/Electronics/ARM/_Library/u8x8_d_ssd1607_200x200.c ****   U8X8_A(0x19),
 340:/Users/imashio/Electronics/ARM/_Library/u8x8_d_ssd1607_200x200.c ****   U8X8_A(0x01),
 341:/Users/imashio/Electronics/ARM/_Library/u8x8_d_ssd1607_200x200.c ****   U8X8_A(0x00),
 342:/Users/imashio/Electronics/ARM/_Library/u8x8_d_ssd1607_200x200.c ****   
 343:/Users/imashio/Electronics/ARM/_Library/u8x8_d_ssd1607_200x200.c ****   
 344:/Users/imashio/Electronics/ARM/_Library/u8x8_d_ssd1607_200x200.c ****   U8X8_CA(0x22, 0x04),	/* display update seq. option: clk -> CP -> LUT -> initial display -> patter
 345:/Users/imashio/Electronics/ARM/_Library/u8x8_d_ssd1607_200x200.c ****   U8X8_C(0x20),	/* execute sequence */
 346:/Users/imashio/Electronics/ARM/_Library/u8x8_d_ssd1607_200x200.c ****   U8X8_DLY(250),	/* the sequence above requires about 1200ms for the 200x200 display*/
 347:/Users/imashio/Electronics/ARM/_Library/u8x8_d_ssd1607_200x200.c ****   U8X8_DLY(250),
 348:/Users/imashio/Electronics/ARM/_Library/u8x8_d_ssd1607_200x200.c ****   U8X8_DLY(250),
 349:/Users/imashio/Electronics/ARM/_Library/u8x8_d_ssd1607_200x200.c ****   U8X8_DLY(250),
 350:/Users/imashio/Electronics/ARM/_Library/u8x8_d_ssd1607_200x200.c ****   U8X8_DLY(250),
 351:/Users/imashio/Electronics/ARM/_Library/u8x8_d_ssd1607_200x200.c ****   U8X8_DLY(250),
 352:/Users/imashio/Electronics/ARM/_Library/u8x8_d_ssd1607_200x200.c ****   U8X8_DLY(250),
 353:/Users/imashio/Electronics/ARM/_Library/u8x8_d_ssd1607_200x200.c ****   
 354:/Users/imashio/Electronics/ARM/_Library/u8x8_d_ssd1607_200x200.c ****   U8X8_END_TRANSFER(),             	/* disable chip */
 355:/Users/imashio/Electronics/ARM/_Library/u8x8_d_ssd1607_200x200.c ****   U8X8_END()             			/* end of sequence */
 356:/Users/imashio/Electronics/ARM/_Library/u8x8_d_ssd1607_200x200.c **** };
 357:/Users/imashio/Electronics/ARM/_Library/u8x8_d_ssd1607_200x200.c **** 
ARM GAS  /var/folders/v3/wysfpd052nz8jkbx04pk0ym80000gn/T//cceC8XTT.s 			page 13


 358:/Users/imashio/Electronics/ARM/_Library/u8x8_d_ssd1607_200x200.c **** 
 359:/Users/imashio/Electronics/ARM/_Library/u8x8_d_ssd1607_200x200.c **** uint8_t u8x8_d_ssd1607_200x200(u8x8_t *u8x8, uint8_t msg, uint8_t arg_int, void *arg_ptr)
 360:/Users/imashio/Electronics/ARM/_Library/u8x8_d_ssd1607_200x200.c **** {
 303              		.loc 1 360 0
 304              		.cfi_startproc
 305              		@ args = 0, pretend = 0, frame = 0
 306              		@ frame_needed = 0, uses_anonymous_args = 0
 307              	.LVL40:
 308 0000 38B5     		push	{r3, r4, r5, lr}
 309              	.LCFI4:
 310              		.cfi_def_cfa_offset 16
 311              		.cfi_offset 3, -16
 312              		.cfi_offset 4, -12
 313              		.cfi_offset 5, -8
 314              		.cfi_offset 14, -4
 361:/Users/imashio/Electronics/ARM/_Library/u8x8_d_ssd1607_200x200.c ****   switch(msg)
 315              		.loc 1 361 0
 316 0002 A1F10904 		sub	r4, r1, #9
 360:/Users/imashio/Electronics/ARM/_Library/u8x8_d_ssd1607_200x200.c ****   switch(msg)
 317              		.loc 1 360 0
 318 0006 0546     		mov	r5, r0
 319 0008 1146     		mov	r1, r2
 320              	.LVL41:
 321              		.loc 1 361 0
 322 000a 072C     		cmp	r4, #7
 323 000c 29D8     		bhi	.L26
 324 000e DFE804F0 		tbb	[pc, r4]
 325              	.LVL42:
 326              	.L19:
 327 0012 04       		.byte	(.L18-.L19)/2
 328 0013 14       		.byte	(.L20-.L19)/2
 329 0014 09       		.byte	(.L21-.L19)/2
 330 0015 28       		.byte	(.L26-.L19)/2
 331 0016 07       		.byte	(.L28-.L19)/2
 332 0017 28       		.byte	(.L26-.L19)/2
 333 0018 0F       		.byte	(.L23-.L19)/2
 334 0019 23       		.byte	(.L24-.L19)/2
 335              		.p2align 1
 336              	.L18:
 362:/Users/imashio/Electronics/ARM/_Library/u8x8_d_ssd1607_200x200.c ****   {
 363:/Users/imashio/Electronics/ARM/_Library/u8x8_d_ssd1607_200x200.c ****     case U8X8_MSG_DISPLAY_SETUP_MEMORY:
 364:/Users/imashio/Electronics/ARM/_Library/u8x8_d_ssd1607_200x200.c ****       u8x8_d_helper_display_setup_memory(u8x8, &u8x8_ssd1607_200x200_display_info);
 337              		.loc 1 364 0
 338 001a 1549     		ldr	r1, .L29
 339 001c FFF7FEFF 		bl	u8x8_d_helper_display_setup_memory
 340              	.LVL43:
 341              	.L28:
 365:/Users/imashio/Electronics/ARM/_Library/u8x8_d_ssd1607_200x200.c ****       break;
 366:/Users/imashio/Electronics/ARM/_Library/u8x8_d_ssd1607_200x200.c ****     case U8X8_MSG_DISPLAY_INIT:
 367:/Users/imashio/Electronics/ARM/_Library/u8x8_d_ssd1607_200x200.c ****       u8x8_d_helper_display_init(u8x8);
 368:/Users/imashio/Electronics/ARM/_Library/u8x8_d_ssd1607_200x200.c ****       u8x8_cad_SendSequence(u8x8, u8x8_d_ssd1607_200x200_init_seq);    
 369:/Users/imashio/Electronics/ARM/_Library/u8x8_d_ssd1607_200x200.c ****       u8x8_cad_SendSequence(u8x8, u8x8_d_ssd1607_200x200_powersave0_seq);
 370:/Users/imashio/Electronics/ARM/_Library/u8x8_d_ssd1607_200x200.c ****       u8x8_d_ssd1607_200x200_first_init(u8x8);
 371:/Users/imashio/Electronics/ARM/_Library/u8x8_d_ssd1607_200x200.c ****       break;
 372:/Users/imashio/Electronics/ARM/_Library/u8x8_d_ssd1607_200x200.c ****     case U8X8_MSG_DISPLAY_SET_POWER_SAVE:
 373:/Users/imashio/Electronics/ARM/_Library/u8x8_d_ssd1607_200x200.c ****       if ( arg_int == 0 )
 374:/Users/imashio/Electronics/ARM/_Library/u8x8_d_ssd1607_200x200.c **** 	u8x8_cad_SendSequence(u8x8, u8x8_d_ssd1607_200x200_powersave0_seq);
ARM GAS  /var/folders/v3/wysfpd052nz8jkbx04pk0ym80000gn/T//cceC8XTT.s 			page 14


 375:/Users/imashio/Electronics/ARM/_Library/u8x8_d_ssd1607_200x200.c ****       else
 376:/Users/imashio/Electronics/ARM/_Library/u8x8_d_ssd1607_200x200.c **** 	u8x8_cad_SendSequence(u8x8, u8x8_d_ssd1607_200x200_powersave1_seq);
 377:/Users/imashio/Electronics/ARM/_Library/u8x8_d_ssd1607_200x200.c ****       break;
 378:/Users/imashio/Electronics/ARM/_Library/u8x8_d_ssd1607_200x200.c ****     case U8X8_MSG_DISPLAY_SET_FLIP_MODE:
 379:/Users/imashio/Electronics/ARM/_Library/u8x8_d_ssd1607_200x200.c ****       break;
 380:/Users/imashio/Electronics/ARM/_Library/u8x8_d_ssd1607_200x200.c ****     case U8X8_MSG_DISPLAY_DRAW_TILE:
 381:/Users/imashio/Electronics/ARM/_Library/u8x8_d_ssd1607_200x200.c ****       u8x8_d_ssd1607_draw_tile(u8x8, arg_int, arg_ptr);
 382:/Users/imashio/Electronics/ARM/_Library/u8x8_d_ssd1607_200x200.c ****       break;
 383:/Users/imashio/Electronics/ARM/_Library/u8x8_d_ssd1607_200x200.c ****     case U8X8_MSG_DISPLAY_REFRESH:
 384:/Users/imashio/Electronics/ARM/_Library/u8x8_d_ssd1607_200x200.c ****       u8x8_cad_SendSequence(u8x8, u8x8_d_ssd1607_to_display_seq);
 385:/Users/imashio/Electronics/ARM/_Library/u8x8_d_ssd1607_200x200.c ****       break;
 386:/Users/imashio/Electronics/ARM/_Library/u8x8_d_ssd1607_200x200.c ****     default:
 387:/Users/imashio/Electronics/ARM/_Library/u8x8_d_ssd1607_200x200.c ****       return 0;
 388:/Users/imashio/Electronics/ARM/_Library/u8x8_d_ssd1607_200x200.c ****   }
 389:/Users/imashio/Electronics/ARM/_Library/u8x8_d_ssd1607_200x200.c ****   return 1;
 342              		.loc 1 389 0
 343 0020 0120     		movs	r0, #1
 390:/Users/imashio/Electronics/ARM/_Library/u8x8_d_ssd1607_200x200.c **** }
 344              		.loc 1 390 0
 345 0022 38BD     		pop	{r3, r4, r5, pc}
 346              	.LVL44:
 347              	.L21:
 373:/Users/imashio/Electronics/ARM/_Library/u8x8_d_ssd1607_200x200.c **** 	u8x8_cad_SendSequence(u8x8, u8x8_d_ssd1607_200x200_powersave0_seq);
 348              		.loc 1 373 0
 349 0024 F9B9     		cbnz	r1, .L25
 374:/Users/imashio/Electronics/ARM/_Library/u8x8_d_ssd1607_200x200.c ****       else
 350              		.loc 1 374 0
 351 0026 1349     		ldr	r1, .L29+4
 352 0028 FFF7FEFF 		bl	u8x8_cad_SendSequence
 353              	.LVL45:
 389:/Users/imashio/Electronics/ARM/_Library/u8x8_d_ssd1607_200x200.c **** }
 354              		.loc 1 389 0
 355 002c 0120     		movs	r0, #1
 356              		.loc 1 390 0
 357 002e 38BD     		pop	{r3, r4, r5, pc}
 358              	.LVL46:
 359              	.L23:
 381:/Users/imashio/Electronics/ARM/_Library/u8x8_d_ssd1607_200x200.c ****       break;
 360              		.loc 1 381 0
 361 0030 1A46     		mov	r2, r3
 362 0032 FFF7FEFF 		bl	u8x8_d_ssd1607_draw_tile
 363              	.LVL47:
 389:/Users/imashio/Electronics/ARM/_Library/u8x8_d_ssd1607_200x200.c **** }
 364              		.loc 1 389 0
 365 0036 0120     		movs	r0, #1
 366              		.loc 1 390 0
 367 0038 38BD     		pop	{r3, r4, r5, pc}
 368              	.LVL48:
 369              	.L20:
 367:/Users/imashio/Electronics/ARM/_Library/u8x8_d_ssd1607_200x200.c ****       u8x8_cad_SendSequence(u8x8, u8x8_d_ssd1607_200x200_init_seq);    
 370              		.loc 1 367 0
 371 003a FFF7FEFF 		bl	u8x8_d_helper_display_init
 372              	.LVL49:
 368:/Users/imashio/Electronics/ARM/_Library/u8x8_d_ssd1607_200x200.c ****       u8x8_cad_SendSequence(u8x8, u8x8_d_ssd1607_200x200_powersave0_seq);
 373              		.loc 1 368 0
 374 003e 2846     		mov	r0, r5
 375 0040 0D49     		ldr	r1, .L29+8
ARM GAS  /var/folders/v3/wysfpd052nz8jkbx04pk0ym80000gn/T//cceC8XTT.s 			page 15


 376 0042 FFF7FEFF 		bl	u8x8_cad_SendSequence
 377              	.LVL50:
 369:/Users/imashio/Electronics/ARM/_Library/u8x8_d_ssd1607_200x200.c ****       u8x8_d_ssd1607_200x200_first_init(u8x8);
 378              		.loc 1 369 0
 379 0046 0B49     		ldr	r1, .L29+4
 380 0048 2846     		mov	r0, r5
 381 004a FFF7FEFF 		bl	u8x8_cad_SendSequence
 382              	.LVL51:
 370:/Users/imashio/Electronics/ARM/_Library/u8x8_d_ssd1607_200x200.c ****       break;
 383              		.loc 1 370 0
 384 004e 2846     		mov	r0, r5
 385 0050 FFF7FEFF 		bl	u8x8_d_ssd1607_200x200_first_init
 386              	.LVL52:
 389:/Users/imashio/Electronics/ARM/_Library/u8x8_d_ssd1607_200x200.c **** }
 387              		.loc 1 389 0
 388 0054 0120     		movs	r0, #1
 389              		.loc 1 390 0
 390 0056 38BD     		pop	{r3, r4, r5, pc}
 391              	.LVL53:
 392              	.L24:
 384:/Users/imashio/Electronics/ARM/_Library/u8x8_d_ssd1607_200x200.c ****       break;
 393              		.loc 1 384 0
 394 0058 0849     		ldr	r1, .L29+12
 395 005a FFF7FEFF 		bl	u8x8_cad_SendSequence
 396              	.LVL54:
 389:/Users/imashio/Electronics/ARM/_Library/u8x8_d_ssd1607_200x200.c **** }
 397              		.loc 1 389 0
 398 005e 0120     		movs	r0, #1
 399              		.loc 1 390 0
 400 0060 38BD     		pop	{r3, r4, r5, pc}
 401              	.LVL55:
 402              	.L26:
 387:/Users/imashio/Electronics/ARM/_Library/u8x8_d_ssd1607_200x200.c ****   }
 403              		.loc 1 387 0
 404 0062 0020     		movs	r0, #0
 405              	.LVL56:
 406              		.loc 1 390 0
 407 0064 38BD     		pop	{r3, r4, r5, pc}
 408              	.LVL57:
 409              	.L25:
 376:/Users/imashio/Electronics/ARM/_Library/u8x8_d_ssd1607_200x200.c ****       break;
 410              		.loc 1 376 0
 411 0066 0649     		ldr	r1, .L29+16
 412 0068 FFF7FEFF 		bl	u8x8_cad_SendSequence
 413              	.LVL58:
 389:/Users/imashio/Electronics/ARM/_Library/u8x8_d_ssd1607_200x200.c **** }
 414              		.loc 1 389 0
 415 006c 0120     		movs	r0, #1
 416              		.loc 1 390 0
 417 006e 38BD     		pop	{r3, r4, r5, pc}
 418              	.LVL59:
 419              	.L30:
 420              		.align	2
 421              	.L29:
 422 0070 00000000 		.word	.LANCHOR2
 423 0074 00000000 		.word	.LANCHOR4
 424 0078 00000000 		.word	.LANCHOR3
ARM GAS  /var/folders/v3/wysfpd052nz8jkbx04pk0ym80000gn/T//cceC8XTT.s 			page 16


 425 007c 00000000 		.word	.LANCHOR6
 426 0080 00000000 		.word	.LANCHOR5
 427              		.cfi_endproc
 428              	.LFE3:
 430              		.section	.text.u8x8_d_ssd1607_v2_200x200,"ax",%progbits
 431              		.align	1
 432              		.p2align 2,,3
 433              		.global	u8x8_d_ssd1607_v2_200x200
 434              		.syntax unified
 435              		.thumb
 436              		.thumb_func
 437              		.fpu fpv4-sp-d16
 439              	u8x8_d_ssd1607_v2_200x200:
 440              	.LFB4:
 391:/Users/imashio/Electronics/ARM/_Library/u8x8_d_ssd1607_200x200.c **** 
 392:/Users/imashio/Electronics/ARM/_Library/u8x8_d_ssd1607_200x200.c **** 
 393:/Users/imashio/Electronics/ARM/_Library/u8x8_d_ssd1607_200x200.c **** /*=================================================*/
 394:/Users/imashio/Electronics/ARM/_Library/u8x8_d_ssd1607_200x200.c **** /* there is no improvement possible... so i consider the v2 version as obsolete */
 395:/Users/imashio/Electronics/ARM/_Library/u8x8_d_ssd1607_200x200.c **** 
 396:/Users/imashio/Electronics/ARM/_Library/u8x8_d_ssd1607_200x200.c **** 
 397:/Users/imashio/Electronics/ARM/_Library/u8x8_d_ssd1607_200x200.c **** static const uint8_t u8x8_d_ssd1607_v2_to_display_seq[] = {
 398:/Users/imashio/Electronics/ARM/_Library/u8x8_d_ssd1607_200x200.c ****   U8X8_START_TRANSFER(),             	/* enable chip, delay is part of the transfer start */
 399:/Users/imashio/Electronics/ARM/_Library/u8x8_d_ssd1607_200x200.c **** 
 400:/Users/imashio/Electronics/ARM/_Library/u8x8_d_ssd1607_200x200.c ****   /*
 401:/Users/imashio/Electronics/ARM/_Library/u8x8_d_ssd1607_200x200.c **** 0xaa, 0x09, 0x09, 0x19, 0x19, 
 402:/Users/imashio/Electronics/ARM/_Library/u8x8_d_ssd1607_200x200.c **** 0x11, 0x11, 0x11, 0x11, 0x00, 
 403:/Users/imashio/Electronics/ARM/_Library/u8x8_d_ssd1607_200x200.c **** 0x00, 0x00, 0x00, 0x00, 0x00, 
 404:/Users/imashio/Electronics/ARM/_Library/u8x8_d_ssd1607_200x200.c **** 0x00, 0x00, 0x00, 0x00, 0x00, 
 405:/Users/imashio/Electronics/ARM/_Library/u8x8_d_ssd1607_200x200.c **** 
 406:/Users/imashio/Electronics/ARM/_Library/u8x8_d_ssd1607_200x200.c **** 0x75, 0x77, 0x77, 0x77, 0x07, 
 407:/Users/imashio/Electronics/ARM/_Library/u8x8_d_ssd1607_200x200.c **** 0x00, 0x00, 0x00, 0x00, 0x00
 408:/Users/imashio/Electronics/ARM/_Library/u8x8_d_ssd1607_200x200.c **** measured 1240 ms with IL3830 196x128
 409:/Users/imashio/Electronics/ARM/_Library/u8x8_d_ssd1607_200x200.c ****   
 410:/Users/imashio/Electronics/ARM/_Library/u8x8_d_ssd1607_200x200.c ****   
 411:/Users/imashio/Electronics/ARM/_Library/u8x8_d_ssd1607_200x200.c **** 0x02, 0x02, 0x01, 0x11, 0x12, 
 412:/Users/imashio/Electronics/ARM/_Library/u8x8_d_ssd1607_200x200.c **** 0x12, 0x12, 0x22, 0x22, 0x66, 
 413:/Users/imashio/Electronics/ARM/_Library/u8x8_d_ssd1607_200x200.c **** 0x69, 0x59, 0x58, 0x99, 0x99, 
 414:/Users/imashio/Electronics/ARM/_Library/u8x8_d_ssd1607_200x200.c **** 0x88, 0x00, 0x00, 0x00, 0x00, 
 415:/Users/imashio/Electronics/ARM/_Library/u8x8_d_ssd1607_200x200.c **** 
 416:/Users/imashio/Electronics/ARM/_Library/u8x8_d_ssd1607_200x200.c **** 0xf8, 0xb4, 0x13, 0x51, 0x35, 
 417:/Users/imashio/Electronics/ARM/_Library/u8x8_d_ssd1607_200x200.c **** 0x51, 0x51, 0xe9, 0x04, 0x00
 418:/Users/imashio/Electronics/ARM/_Library/u8x8_d_ssd1607_200x200.c ****   
 419:/Users/imashio/Electronics/ARM/_Library/u8x8_d_ssd1607_200x200.c **** */
 420:/Users/imashio/Electronics/ARM/_Library/u8x8_d_ssd1607_200x200.c **** 
 421:/Users/imashio/Electronics/ARM/_Library/u8x8_d_ssd1607_200x200.c ****   U8X8_C(0x32),	/* write LUT register*/
 422:/Users/imashio/Electronics/ARM/_Library/u8x8_d_ssd1607_200x200.c **** 
 423:/Users/imashio/Electronics/ARM/_Library/u8x8_d_ssd1607_200x200.c ****   /* https://github.com/olikraus/u8g2/issues/347 */
 424:/Users/imashio/Electronics/ARM/_Library/u8x8_d_ssd1607_200x200.c ****   U8X8_A(0x02),
 425:/Users/imashio/Electronics/ARM/_Library/u8x8_d_ssd1607_200x200.c ****   U8X8_A(0x02),
 426:/Users/imashio/Electronics/ARM/_Library/u8x8_d_ssd1607_200x200.c ****   U8X8_A(0x01),
 427:/Users/imashio/Electronics/ARM/_Library/u8x8_d_ssd1607_200x200.c ****   U8X8_A(0x11),
 428:/Users/imashio/Electronics/ARM/_Library/u8x8_d_ssd1607_200x200.c ****   U8X8_A(0x12),
 429:/Users/imashio/Electronics/ARM/_Library/u8x8_d_ssd1607_200x200.c ****   U8X8_A(0x12),
 430:/Users/imashio/Electronics/ARM/_Library/u8x8_d_ssd1607_200x200.c ****   U8X8_A(0x22),
 431:/Users/imashio/Electronics/ARM/_Library/u8x8_d_ssd1607_200x200.c ****   U8X8_A(0x22),
 432:/Users/imashio/Electronics/ARM/_Library/u8x8_d_ssd1607_200x200.c ****   U8X8_A(0x66),
 433:/Users/imashio/Electronics/ARM/_Library/u8x8_d_ssd1607_200x200.c ****   U8X8_A(0x69),
ARM GAS  /var/folders/v3/wysfpd052nz8jkbx04pk0ym80000gn/T//cceC8XTT.s 			page 17


 434:/Users/imashio/Electronics/ARM/_Library/u8x8_d_ssd1607_200x200.c ****   U8X8_A(0x69),
 435:/Users/imashio/Electronics/ARM/_Library/u8x8_d_ssd1607_200x200.c ****   U8X8_A(0x59),
 436:/Users/imashio/Electronics/ARM/_Library/u8x8_d_ssd1607_200x200.c ****   U8X8_A(0x58),
 437:/Users/imashio/Electronics/ARM/_Library/u8x8_d_ssd1607_200x200.c ****   U8X8_A(0x99),
 438:/Users/imashio/Electronics/ARM/_Library/u8x8_d_ssd1607_200x200.c ****   U8X8_A(0x99),
 439:/Users/imashio/Electronics/ARM/_Library/u8x8_d_ssd1607_200x200.c ****   
 440:/Users/imashio/Electronics/ARM/_Library/u8x8_d_ssd1607_200x200.c ****   U8X8_A(0x88),
 441:/Users/imashio/Electronics/ARM/_Library/u8x8_d_ssd1607_200x200.c ****   U8X8_A(0x00),
 442:/Users/imashio/Electronics/ARM/_Library/u8x8_d_ssd1607_200x200.c ****   U8X8_A(0x00),
 443:/Users/imashio/Electronics/ARM/_Library/u8x8_d_ssd1607_200x200.c ****   U8X8_A(0x00),
 444:/Users/imashio/Electronics/ARM/_Library/u8x8_d_ssd1607_200x200.c ****   U8X8_A(0x00),
 445:/Users/imashio/Electronics/ARM/_Library/u8x8_d_ssd1607_200x200.c ****   
 446:/Users/imashio/Electronics/ARM/_Library/u8x8_d_ssd1607_200x200.c ****   /* Timing part of the LUT, 20 Phases with 4 bit each: 10 bytes */
 447:/Users/imashio/Electronics/ARM/_Library/u8x8_d_ssd1607_200x200.c ****   U8X8_A(0xF8),
 448:/Users/imashio/Electronics/ARM/_Library/u8x8_d_ssd1607_200x200.c ****   U8X8_A(0xB4),
 449:/Users/imashio/Electronics/ARM/_Library/u8x8_d_ssd1607_200x200.c ****   U8X8_A(0x13),
 450:/Users/imashio/Electronics/ARM/_Library/u8x8_d_ssd1607_200x200.c ****   U8X8_A(0x51),
 451:/Users/imashio/Electronics/ARM/_Library/u8x8_d_ssd1607_200x200.c ****   U8X8_A(0x35),
 452:/Users/imashio/Electronics/ARM/_Library/u8x8_d_ssd1607_200x200.c ****   
 453:/Users/imashio/Electronics/ARM/_Library/u8x8_d_ssd1607_200x200.c ****   U8X8_A(0x51),
 454:/Users/imashio/Electronics/ARM/_Library/u8x8_d_ssd1607_200x200.c ****   U8X8_A(0x51),
 455:/Users/imashio/Electronics/ARM/_Library/u8x8_d_ssd1607_200x200.c ****   U8X8_A(0xe9),
 456:/Users/imashio/Electronics/ARM/_Library/u8x8_d_ssd1607_200x200.c ****   U8X8_A(0x04),
 457:/Users/imashio/Electronics/ARM/_Library/u8x8_d_ssd1607_200x200.c ****   U8X8_A(0x00),
 458:/Users/imashio/Electronics/ARM/_Library/u8x8_d_ssd1607_200x200.c ****   
 459:/Users/imashio/Electronics/ARM/_Library/u8x8_d_ssd1607_200x200.c ****   U8X8_CA(0x22, 0x04),	/* display update seq. option: clk -> CP -> LUT -> initial display -> patter
 460:/Users/imashio/Electronics/ARM/_Library/u8x8_d_ssd1607_200x200.c ****   U8X8_C(0x20),	/* execute sequence */
 461:/Users/imashio/Electronics/ARM/_Library/u8x8_d_ssd1607_200x200.c ****   
 462:/Users/imashio/Electronics/ARM/_Library/u8x8_d_ssd1607_200x200.c ****   U8X8_DLY(250),	/* delay for 1500ms. The current sequence takes 1300ms */
 463:/Users/imashio/Electronics/ARM/_Library/u8x8_d_ssd1607_200x200.c ****   U8X8_DLY(250),
 464:/Users/imashio/Electronics/ARM/_Library/u8x8_d_ssd1607_200x200.c ****   U8X8_DLY(250),
 465:/Users/imashio/Electronics/ARM/_Library/u8x8_d_ssd1607_200x200.c ****   U8X8_DLY(250),
 466:/Users/imashio/Electronics/ARM/_Library/u8x8_d_ssd1607_200x200.c ****   
 467:/Users/imashio/Electronics/ARM/_Library/u8x8_d_ssd1607_200x200.c ****   U8X8_DLY(250),
 468:/Users/imashio/Electronics/ARM/_Library/u8x8_d_ssd1607_200x200.c ****   U8X8_DLY(250),
 469:/Users/imashio/Electronics/ARM/_Library/u8x8_d_ssd1607_200x200.c ****   
 470:/Users/imashio/Electronics/ARM/_Library/u8x8_d_ssd1607_200x200.c ****   
 471:/Users/imashio/Electronics/ARM/_Library/u8x8_d_ssd1607_200x200.c ****   U8X8_END_TRANSFER(),             	/* disable chip */
 472:/Users/imashio/Electronics/ARM/_Library/u8x8_d_ssd1607_200x200.c ****   U8X8_END()             			/* end of sequence */
 473:/Users/imashio/Electronics/ARM/_Library/u8x8_d_ssd1607_200x200.c **** };
 474:/Users/imashio/Electronics/ARM/_Library/u8x8_d_ssd1607_200x200.c **** 
 475:/Users/imashio/Electronics/ARM/_Library/u8x8_d_ssd1607_200x200.c **** 
 476:/Users/imashio/Electronics/ARM/_Library/u8x8_d_ssd1607_200x200.c **** uint8_t u8x8_d_ssd1607_v2_200x200(u8x8_t *u8x8, uint8_t msg, uint8_t arg_int, void *arg_ptr)
 477:/Users/imashio/Electronics/ARM/_Library/u8x8_d_ssd1607_200x200.c **** {
 441              		.loc 1 477 0
 442              		.cfi_startproc
 443              		@ args = 0, pretend = 0, frame = 0
 444              		@ frame_needed = 0, uses_anonymous_args = 0
 445              	.LVL60:
 446 0000 38B5     		push	{r3, r4, r5, lr}
 447              	.LCFI5:
 448              		.cfi_def_cfa_offset 16
 449              		.cfi_offset 3, -16
 450              		.cfi_offset 4, -12
 451              		.cfi_offset 5, -8
 452              		.cfi_offset 14, -4
 478:/Users/imashio/Electronics/ARM/_Library/u8x8_d_ssd1607_200x200.c ****   switch(msg)
ARM GAS  /var/folders/v3/wysfpd052nz8jkbx04pk0ym80000gn/T//cceC8XTT.s 			page 18


 453              		.loc 1 478 0
 454 0002 A1F10904 		sub	r4, r1, #9
 477:/Users/imashio/Electronics/ARM/_Library/u8x8_d_ssd1607_200x200.c ****   switch(msg)
 455              		.loc 1 477 0
 456 0006 0546     		mov	r5, r0
 457 0008 1146     		mov	r1, r2
 458              	.LVL61:
 459              		.loc 1 478 0
 460 000a 072C     		cmp	r4, #7
 461 000c 29D8     		bhi	.L41
 462 000e DFE804F0 		tbb	[pc, r4]
 463              	.LVL62:
 464              	.L34:
 465 0012 04       		.byte	(.L33-.L34)/2
 466 0013 14       		.byte	(.L35-.L34)/2
 467 0014 09       		.byte	(.L36-.L34)/2
 468 0015 28       		.byte	(.L41-.L34)/2
 469 0016 07       		.byte	(.L43-.L34)/2
 470 0017 28       		.byte	(.L41-.L34)/2
 471 0018 0F       		.byte	(.L38-.L34)/2
 472 0019 23       		.byte	(.L39-.L34)/2
 473              		.p2align 1
 474              	.L33:
 479:/Users/imashio/Electronics/ARM/_Library/u8x8_d_ssd1607_200x200.c ****   {
 480:/Users/imashio/Electronics/ARM/_Library/u8x8_d_ssd1607_200x200.c ****     case U8X8_MSG_DISPLAY_SETUP_MEMORY:
 481:/Users/imashio/Electronics/ARM/_Library/u8x8_d_ssd1607_200x200.c ****       u8x8_d_helper_display_setup_memory(u8x8, &u8x8_ssd1607_200x200_display_info);
 475              		.loc 1 481 0
 476 001a 1549     		ldr	r1, .L44
 477 001c FFF7FEFF 		bl	u8x8_d_helper_display_setup_memory
 478              	.LVL63:
 479              	.L43:
 482:/Users/imashio/Electronics/ARM/_Library/u8x8_d_ssd1607_200x200.c ****       break;
 483:/Users/imashio/Electronics/ARM/_Library/u8x8_d_ssd1607_200x200.c ****     case U8X8_MSG_DISPLAY_INIT:
 484:/Users/imashio/Electronics/ARM/_Library/u8x8_d_ssd1607_200x200.c ****       u8x8_d_helper_display_init(u8x8);
 485:/Users/imashio/Electronics/ARM/_Library/u8x8_d_ssd1607_200x200.c ****       u8x8_cad_SendSequence(u8x8, u8x8_d_ssd1607_200x200_init_seq);    
 486:/Users/imashio/Electronics/ARM/_Library/u8x8_d_ssd1607_200x200.c ****       u8x8_cad_SendSequence(u8x8, u8x8_d_ssd1607_200x200_powersave0_seq);
 487:/Users/imashio/Electronics/ARM/_Library/u8x8_d_ssd1607_200x200.c ****       u8x8_d_ssd1607_200x200_first_init(u8x8);
 488:/Users/imashio/Electronics/ARM/_Library/u8x8_d_ssd1607_200x200.c ****       break;
 489:/Users/imashio/Electronics/ARM/_Library/u8x8_d_ssd1607_200x200.c ****     case U8X8_MSG_DISPLAY_SET_POWER_SAVE:
 490:/Users/imashio/Electronics/ARM/_Library/u8x8_d_ssd1607_200x200.c ****       if ( arg_int == 0 )
 491:/Users/imashio/Electronics/ARM/_Library/u8x8_d_ssd1607_200x200.c **** 	u8x8_cad_SendSequence(u8x8, u8x8_d_ssd1607_200x200_powersave0_seq);
 492:/Users/imashio/Electronics/ARM/_Library/u8x8_d_ssd1607_200x200.c ****       else
 493:/Users/imashio/Electronics/ARM/_Library/u8x8_d_ssd1607_200x200.c **** 	u8x8_cad_SendSequence(u8x8, u8x8_d_ssd1607_200x200_powersave1_seq);
 494:/Users/imashio/Electronics/ARM/_Library/u8x8_d_ssd1607_200x200.c ****       break;
 495:/Users/imashio/Electronics/ARM/_Library/u8x8_d_ssd1607_200x200.c ****     case U8X8_MSG_DISPLAY_SET_FLIP_MODE:
 496:/Users/imashio/Electronics/ARM/_Library/u8x8_d_ssd1607_200x200.c ****       break;
 497:/Users/imashio/Electronics/ARM/_Library/u8x8_d_ssd1607_200x200.c ****     case U8X8_MSG_DISPLAY_DRAW_TILE:
 498:/Users/imashio/Electronics/ARM/_Library/u8x8_d_ssd1607_200x200.c ****       u8x8_d_ssd1607_draw_tile(u8x8, arg_int, arg_ptr);
 499:/Users/imashio/Electronics/ARM/_Library/u8x8_d_ssd1607_200x200.c ****       break;
 500:/Users/imashio/Electronics/ARM/_Library/u8x8_d_ssd1607_200x200.c ****     case U8X8_MSG_DISPLAY_REFRESH:
 501:/Users/imashio/Electronics/ARM/_Library/u8x8_d_ssd1607_200x200.c ****       u8x8_cad_SendSequence(u8x8, u8x8_d_ssd1607_v2_to_display_seq);
 502:/Users/imashio/Electronics/ARM/_Library/u8x8_d_ssd1607_200x200.c ****       break;
 503:/Users/imashio/Electronics/ARM/_Library/u8x8_d_ssd1607_200x200.c ****     default:
 504:/Users/imashio/Electronics/ARM/_Library/u8x8_d_ssd1607_200x200.c ****       return 0;
 505:/Users/imashio/Electronics/ARM/_Library/u8x8_d_ssd1607_200x200.c ****   }
 506:/Users/imashio/Electronics/ARM/_Library/u8x8_d_ssd1607_200x200.c ****   return 1;
 480              		.loc 1 506 0
ARM GAS  /var/folders/v3/wysfpd052nz8jkbx04pk0ym80000gn/T//cceC8XTT.s 			page 19


 481 0020 0120     		movs	r0, #1
 507:/Users/imashio/Electronics/ARM/_Library/u8x8_d_ssd1607_200x200.c **** }
 482              		.loc 1 507 0
 483 0022 38BD     		pop	{r3, r4, r5, pc}
 484              	.LVL64:
 485              	.L36:
 490:/Users/imashio/Electronics/ARM/_Library/u8x8_d_ssd1607_200x200.c **** 	u8x8_cad_SendSequence(u8x8, u8x8_d_ssd1607_200x200_powersave0_seq);
 486              		.loc 1 490 0
 487 0024 F9B9     		cbnz	r1, .L40
 491:/Users/imashio/Electronics/ARM/_Library/u8x8_d_ssd1607_200x200.c ****       else
 488              		.loc 1 491 0
 489 0026 1349     		ldr	r1, .L44+4
 490 0028 FFF7FEFF 		bl	u8x8_cad_SendSequence
 491              	.LVL65:
 506:/Users/imashio/Electronics/ARM/_Library/u8x8_d_ssd1607_200x200.c **** }
 492              		.loc 1 506 0
 493 002c 0120     		movs	r0, #1
 494              		.loc 1 507 0
 495 002e 38BD     		pop	{r3, r4, r5, pc}
 496              	.LVL66:
 497              	.L38:
 498:/Users/imashio/Electronics/ARM/_Library/u8x8_d_ssd1607_200x200.c ****       break;
 498              		.loc 1 498 0
 499 0030 1A46     		mov	r2, r3
 500 0032 FFF7FEFF 		bl	u8x8_d_ssd1607_draw_tile
 501              	.LVL67:
 506:/Users/imashio/Electronics/ARM/_Library/u8x8_d_ssd1607_200x200.c **** }
 502              		.loc 1 506 0
 503 0036 0120     		movs	r0, #1
 504              		.loc 1 507 0
 505 0038 38BD     		pop	{r3, r4, r5, pc}
 506              	.LVL68:
 507              	.L35:
 484:/Users/imashio/Electronics/ARM/_Library/u8x8_d_ssd1607_200x200.c ****       u8x8_cad_SendSequence(u8x8, u8x8_d_ssd1607_200x200_init_seq);    
 508              		.loc 1 484 0
 509 003a FFF7FEFF 		bl	u8x8_d_helper_display_init
 510              	.LVL69:
 485:/Users/imashio/Electronics/ARM/_Library/u8x8_d_ssd1607_200x200.c ****       u8x8_cad_SendSequence(u8x8, u8x8_d_ssd1607_200x200_powersave0_seq);
 511              		.loc 1 485 0
 512 003e 2846     		mov	r0, r5
 513 0040 0D49     		ldr	r1, .L44+8
 514 0042 FFF7FEFF 		bl	u8x8_cad_SendSequence
 515              	.LVL70:
 486:/Users/imashio/Electronics/ARM/_Library/u8x8_d_ssd1607_200x200.c ****       u8x8_d_ssd1607_200x200_first_init(u8x8);
 516              		.loc 1 486 0
 517 0046 0B49     		ldr	r1, .L44+4
 518 0048 2846     		mov	r0, r5
 519 004a FFF7FEFF 		bl	u8x8_cad_SendSequence
 520              	.LVL71:
 487:/Users/imashio/Electronics/ARM/_Library/u8x8_d_ssd1607_200x200.c ****       break;
 521              		.loc 1 487 0
 522 004e 2846     		mov	r0, r5
 523 0050 FFF7FEFF 		bl	u8x8_d_ssd1607_200x200_first_init
 524              	.LVL72:
 506:/Users/imashio/Electronics/ARM/_Library/u8x8_d_ssd1607_200x200.c **** }
 525              		.loc 1 506 0
 526 0054 0120     		movs	r0, #1
ARM GAS  /var/folders/v3/wysfpd052nz8jkbx04pk0ym80000gn/T//cceC8XTT.s 			page 20


 527              		.loc 1 507 0
 528 0056 38BD     		pop	{r3, r4, r5, pc}
 529              	.LVL73:
 530              	.L39:
 501:/Users/imashio/Electronics/ARM/_Library/u8x8_d_ssd1607_200x200.c ****       break;
 531              		.loc 1 501 0
 532 0058 0849     		ldr	r1, .L44+12
 533 005a FFF7FEFF 		bl	u8x8_cad_SendSequence
 534              	.LVL74:
 506:/Users/imashio/Electronics/ARM/_Library/u8x8_d_ssd1607_200x200.c **** }
 535              		.loc 1 506 0
 536 005e 0120     		movs	r0, #1
 537              		.loc 1 507 0
 538 0060 38BD     		pop	{r3, r4, r5, pc}
 539              	.LVL75:
 540              	.L41:
 504:/Users/imashio/Electronics/ARM/_Library/u8x8_d_ssd1607_200x200.c ****   }
 541              		.loc 1 504 0
 542 0062 0020     		movs	r0, #0
 543              	.LVL76:
 544              		.loc 1 507 0
 545 0064 38BD     		pop	{r3, r4, r5, pc}
 546              	.LVL77:
 547              	.L40:
 493:/Users/imashio/Electronics/ARM/_Library/u8x8_d_ssd1607_200x200.c ****       break;
 548              		.loc 1 493 0
 549 0066 0649     		ldr	r1, .L44+16
 550 0068 FFF7FEFF 		bl	u8x8_cad_SendSequence
 551              	.LVL78:
 506:/Users/imashio/Electronics/ARM/_Library/u8x8_d_ssd1607_200x200.c **** }
 552              		.loc 1 506 0
 553 006c 0120     		movs	r0, #1
 554              		.loc 1 507 0
 555 006e 38BD     		pop	{r3, r4, r5, pc}
 556              	.LVL79:
 557              	.L45:
 558              		.align	2
 559              	.L44:
 560 0070 00000000 		.word	.LANCHOR2
 561 0074 00000000 		.word	.LANCHOR4
 562 0078 00000000 		.word	.LANCHOR3
 563 007c 00000000 		.word	.LANCHOR7
 564 0080 00000000 		.word	.LANCHOR5
 565              		.cfi_endproc
 566              	.LFE4:
 568              		.section	.text.u8x8_d_ssd1607_gd_200x200,"ax",%progbits
 569              		.align	1
 570              		.p2align 2,,3
 571              		.global	u8x8_d_ssd1607_gd_200x200
 572              		.syntax unified
 573              		.thumb
 574              		.thumb_func
 575              		.fpu fpv4-sp-d16
 577              	u8x8_d_ssd1607_gd_200x200:
 578              	.LFB5:
 508:/Users/imashio/Electronics/ARM/_Library/u8x8_d_ssd1607_200x200.c **** 
 509:/Users/imashio/Electronics/ARM/_Library/u8x8_d_ssd1607_200x200.c **** 
ARM GAS  /var/folders/v3/wysfpd052nz8jkbx04pk0ym80000gn/T//cceC8XTT.s 			page 21


 510:/Users/imashio/Electronics/ARM/_Library/u8x8_d_ssd1607_200x200.c **** /*=================================================*/
 511:/Users/imashio/Electronics/ARM/_Library/u8x8_d_ssd1607_200x200.c **** /* GDEP015OC1 */
 512:/Users/imashio/Electronics/ARM/_Library/u8x8_d_ssd1607_200x200.c **** /* https://github.com/olikraus/u8g2/issues/454 */
 513:/Users/imashio/Electronics/ARM/_Library/u8x8_d_ssd1607_200x200.c **** 
 514:/Users/imashio/Electronics/ARM/_Library/u8x8_d_ssd1607_200x200.c **** 
 515:/Users/imashio/Electronics/ARM/_Library/u8x8_d_ssd1607_200x200.c **** static const uint8_t u8x8_d_ssd1607_gd_to_display_seq[] = {
 516:/Users/imashio/Electronics/ARM/_Library/u8x8_d_ssd1607_200x200.c ****   U8X8_START_TRANSFER(),             	/* enable chip, delay is part of the transfer start */
 517:/Users/imashio/Electronics/ARM/_Library/u8x8_d_ssd1607_200x200.c **** 
 518:/Users/imashio/Electronics/ARM/_Library/u8x8_d_ssd1607_200x200.c ****   /*
 519:/Users/imashio/Electronics/ARM/_Library/u8x8_d_ssd1607_200x200.c **** 0xaa, 0x09, 0x09, 0x19, 0x19, 
 520:/Users/imashio/Electronics/ARM/_Library/u8x8_d_ssd1607_200x200.c **** 0x11, 0x11, 0x11, 0x11, 0x00, 
 521:/Users/imashio/Electronics/ARM/_Library/u8x8_d_ssd1607_200x200.c **** 0x00, 0x00, 0x00, 0x00, 0x00, 
 522:/Users/imashio/Electronics/ARM/_Library/u8x8_d_ssd1607_200x200.c **** 0x00, 0x00, 0x00, 0x00, 0x00, 
 523:/Users/imashio/Electronics/ARM/_Library/u8x8_d_ssd1607_200x200.c **** 
 524:/Users/imashio/Electronics/ARM/_Library/u8x8_d_ssd1607_200x200.c **** 0x75, 0x77, 0x77, 0x77, 0x07, 
 525:/Users/imashio/Electronics/ARM/_Library/u8x8_d_ssd1607_200x200.c **** 0x00, 0x00, 0x00, 0x00, 0x00
 526:/Users/imashio/Electronics/ARM/_Library/u8x8_d_ssd1607_200x200.c **** measured 1240 ms with IL3830 196x128
 527:/Users/imashio/Electronics/ARM/_Library/u8x8_d_ssd1607_200x200.c ****   
 528:/Users/imashio/Electronics/ARM/_Library/u8x8_d_ssd1607_200x200.c ****   
 529:/Users/imashio/Electronics/ARM/_Library/u8x8_d_ssd1607_200x200.c **** 0x02, 0x02, 0x01, 0x11, 0x12, 
 530:/Users/imashio/Electronics/ARM/_Library/u8x8_d_ssd1607_200x200.c **** 0x12, 0x12, 0x22, 0x22, 0x66, 
 531:/Users/imashio/Electronics/ARM/_Library/u8x8_d_ssd1607_200x200.c **** 0x69, 0x59, 0x58, 0x99, 0x99, 
 532:/Users/imashio/Electronics/ARM/_Library/u8x8_d_ssd1607_200x200.c **** 0x88, 0x00, 0x00, 0x00, 0x00, 
 533:/Users/imashio/Electronics/ARM/_Library/u8x8_d_ssd1607_200x200.c **** 
 534:/Users/imashio/Electronics/ARM/_Library/u8x8_d_ssd1607_200x200.c **** 0xf8, 0xb4, 0x13, 0x51, 0x35, 
 535:/Users/imashio/Electronics/ARM/_Library/u8x8_d_ssd1607_200x200.c **** 0x51, 0x51, 0xe9, 0x04, 0x00
 536:/Users/imashio/Electronics/ARM/_Library/u8x8_d_ssd1607_200x200.c ****   
 537:/Users/imashio/Electronics/ARM/_Library/u8x8_d_ssd1607_200x200.c **** */
 538:/Users/imashio/Electronics/ARM/_Library/u8x8_d_ssd1607_200x200.c **** 
 539:/Users/imashio/Electronics/ARM/_Library/u8x8_d_ssd1607_200x200.c ****   U8X8_C(0x32),	/* write LUT register*/
 540:/Users/imashio/Electronics/ARM/_Library/u8x8_d_ssd1607_200x200.c **** 
 541:/Users/imashio/Electronics/ARM/_Library/u8x8_d_ssd1607_200x200.c ****   U8X8_A(0x50), U8X8_A(0xAA), U8X8_A(0x55), U8X8_A(0xAA), U8X8_A(0x11), 
 542:/Users/imashio/Electronics/ARM/_Library/u8x8_d_ssd1607_200x200.c ****   U8X8_A(0x00), U8X8_A(0x00), U8X8_A(0x00), U8X8_A(0x00), U8X8_A(0x00), 
 543:/Users/imashio/Electronics/ARM/_Library/u8x8_d_ssd1607_200x200.c ****   U8X8_A(0x00), U8X8_A(0x00), U8X8_A(0x00), U8X8_A(0x00), U8X8_A(0x00), 
 544:/Users/imashio/Electronics/ARM/_Library/u8x8_d_ssd1607_200x200.c ****   U8X8_A(0x00), U8X8_A(0x00), U8X8_A(0x00), U8X8_A(0x00), U8X8_A(0x00), 
 545:/Users/imashio/Electronics/ARM/_Library/u8x8_d_ssd1607_200x200.c ****   
 546:/Users/imashio/Electronics/ARM/_Library/u8x8_d_ssd1607_200x200.c ****   U8X8_A(0xFF), U8X8_A(0xFF), U8X8_A(0x1F), U8X8_A(0x00), U8X8_A(0x00), 
 547:/Users/imashio/Electronics/ARM/_Library/u8x8_d_ssd1607_200x200.c ****   U8X8_A(0x00), U8X8_A(0x00), U8X8_A(0x00), U8X8_A(0x00), U8X8_A(0x00),
 548:/Users/imashio/Electronics/ARM/_Library/u8x8_d_ssd1607_200x200.c **** 
 549:/Users/imashio/Electronics/ARM/_Library/u8x8_d_ssd1607_200x200.c ****   U8X8_CA(0x22, 0x04),	/* display update seq. option: clk -> CP -> LUT -> initial display -> patter
 550:/Users/imashio/Electronics/ARM/_Library/u8x8_d_ssd1607_200x200.c ****   U8X8_C(0x20),	/* execute sequence */
 551:/Users/imashio/Electronics/ARM/_Library/u8x8_d_ssd1607_200x200.c ****   
 552:/Users/imashio/Electronics/ARM/_Library/u8x8_d_ssd1607_200x200.c ****   U8X8_DLY(250),	/* delay for 1500ms. The current sequence takes 1300ms */
 553:/Users/imashio/Electronics/ARM/_Library/u8x8_d_ssd1607_200x200.c ****   U8X8_DLY(250),
 554:/Users/imashio/Electronics/ARM/_Library/u8x8_d_ssd1607_200x200.c ****   U8X8_DLY(250),
 555:/Users/imashio/Electronics/ARM/_Library/u8x8_d_ssd1607_200x200.c ****   U8X8_DLY(250),
 556:/Users/imashio/Electronics/ARM/_Library/u8x8_d_ssd1607_200x200.c ****   
 557:/Users/imashio/Electronics/ARM/_Library/u8x8_d_ssd1607_200x200.c ****   U8X8_DLY(250),
 558:/Users/imashio/Electronics/ARM/_Library/u8x8_d_ssd1607_200x200.c ****   U8X8_DLY(250),
 559:/Users/imashio/Electronics/ARM/_Library/u8x8_d_ssd1607_200x200.c ****   
 560:/Users/imashio/Electronics/ARM/_Library/u8x8_d_ssd1607_200x200.c ****   
 561:/Users/imashio/Electronics/ARM/_Library/u8x8_d_ssd1607_200x200.c ****   U8X8_END_TRANSFER(),             	/* disable chip */
 562:/Users/imashio/Electronics/ARM/_Library/u8x8_d_ssd1607_200x200.c ****   U8X8_END()             			/* end of sequence */
 563:/Users/imashio/Electronics/ARM/_Library/u8x8_d_ssd1607_200x200.c **** };
 564:/Users/imashio/Electronics/ARM/_Library/u8x8_d_ssd1607_200x200.c **** 
 565:/Users/imashio/Electronics/ARM/_Library/u8x8_d_ssd1607_200x200.c **** 
 566:/Users/imashio/Electronics/ARM/_Library/u8x8_d_ssd1607_200x200.c **** uint8_t u8x8_d_ssd1607_gd_200x200(u8x8_t *u8x8, uint8_t msg, uint8_t arg_int, void *arg_ptr)
ARM GAS  /var/folders/v3/wysfpd052nz8jkbx04pk0ym80000gn/T//cceC8XTT.s 			page 22


 567:/Users/imashio/Electronics/ARM/_Library/u8x8_d_ssd1607_200x200.c **** {
 579              		.loc 1 567 0
 580              		.cfi_startproc
 581              		@ args = 0, pretend = 0, frame = 0
 582              		@ frame_needed = 0, uses_anonymous_args = 0
 583              	.LVL80:
 584 0000 38B5     		push	{r3, r4, r5, lr}
 585              	.LCFI6:
 586              		.cfi_def_cfa_offset 16
 587              		.cfi_offset 3, -16
 588              		.cfi_offset 4, -12
 589              		.cfi_offset 5, -8
 590              		.cfi_offset 14, -4
 568:/Users/imashio/Electronics/ARM/_Library/u8x8_d_ssd1607_200x200.c ****   switch(msg)
 591              		.loc 1 568 0
 592 0002 A1F10904 		sub	r4, r1, #9
 567:/Users/imashio/Electronics/ARM/_Library/u8x8_d_ssd1607_200x200.c ****   switch(msg)
 593              		.loc 1 567 0
 594 0006 0546     		mov	r5, r0
 595 0008 1146     		mov	r1, r2
 596              	.LVL81:
 597              		.loc 1 568 0
 598 000a 072C     		cmp	r4, #7
 599 000c 29D8     		bhi	.L56
 600 000e DFE804F0 		tbb	[pc, r4]
 601              	.LVL82:
 602              	.L49:
 603 0012 04       		.byte	(.L48-.L49)/2
 604 0013 14       		.byte	(.L50-.L49)/2
 605 0014 09       		.byte	(.L51-.L49)/2
 606 0015 28       		.byte	(.L56-.L49)/2
 607 0016 07       		.byte	(.L58-.L49)/2
 608 0017 28       		.byte	(.L56-.L49)/2
 609 0018 0F       		.byte	(.L53-.L49)/2
 610 0019 23       		.byte	(.L54-.L49)/2
 611              		.p2align 1
 612              	.L48:
 569:/Users/imashio/Electronics/ARM/_Library/u8x8_d_ssd1607_200x200.c ****   {
 570:/Users/imashio/Electronics/ARM/_Library/u8x8_d_ssd1607_200x200.c ****     case U8X8_MSG_DISPLAY_SETUP_MEMORY:
 571:/Users/imashio/Electronics/ARM/_Library/u8x8_d_ssd1607_200x200.c ****       u8x8_d_helper_display_setup_memory(u8x8, &u8x8_ssd1607_200x200_display_info);
 613              		.loc 1 571 0
 614 001a 1549     		ldr	r1, .L59
 615 001c FFF7FEFF 		bl	u8x8_d_helper_display_setup_memory
 616              	.LVL83:
 617              	.L58:
 572:/Users/imashio/Electronics/ARM/_Library/u8x8_d_ssd1607_200x200.c ****       break;
 573:/Users/imashio/Electronics/ARM/_Library/u8x8_d_ssd1607_200x200.c ****     case U8X8_MSG_DISPLAY_INIT:
 574:/Users/imashio/Electronics/ARM/_Library/u8x8_d_ssd1607_200x200.c ****       u8x8_d_helper_display_init(u8x8);
 575:/Users/imashio/Electronics/ARM/_Library/u8x8_d_ssd1607_200x200.c ****       u8x8_cad_SendSequence(u8x8, u8x8_d_ssd1607_200x200_init_seq);    
 576:/Users/imashio/Electronics/ARM/_Library/u8x8_d_ssd1607_200x200.c ****       u8x8_cad_SendSequence(u8x8, u8x8_d_ssd1607_200x200_powersave0_seq);
 577:/Users/imashio/Electronics/ARM/_Library/u8x8_d_ssd1607_200x200.c ****       u8x8_d_ssd1607_200x200_first_init(u8x8);
 578:/Users/imashio/Electronics/ARM/_Library/u8x8_d_ssd1607_200x200.c ****       break;
 579:/Users/imashio/Electronics/ARM/_Library/u8x8_d_ssd1607_200x200.c ****     case U8X8_MSG_DISPLAY_SET_POWER_SAVE:
 580:/Users/imashio/Electronics/ARM/_Library/u8x8_d_ssd1607_200x200.c ****       if ( arg_int == 0 )
 581:/Users/imashio/Electronics/ARM/_Library/u8x8_d_ssd1607_200x200.c **** 	u8x8_cad_SendSequence(u8x8, u8x8_d_ssd1607_200x200_powersave0_seq);
 582:/Users/imashio/Electronics/ARM/_Library/u8x8_d_ssd1607_200x200.c ****       else
 583:/Users/imashio/Electronics/ARM/_Library/u8x8_d_ssd1607_200x200.c **** 	u8x8_cad_SendSequence(u8x8, u8x8_d_ssd1607_200x200_powersave1_seq);
ARM GAS  /var/folders/v3/wysfpd052nz8jkbx04pk0ym80000gn/T//cceC8XTT.s 			page 23


 584:/Users/imashio/Electronics/ARM/_Library/u8x8_d_ssd1607_200x200.c ****       break;
 585:/Users/imashio/Electronics/ARM/_Library/u8x8_d_ssd1607_200x200.c ****     case U8X8_MSG_DISPLAY_SET_FLIP_MODE:
 586:/Users/imashio/Electronics/ARM/_Library/u8x8_d_ssd1607_200x200.c ****       break;
 587:/Users/imashio/Electronics/ARM/_Library/u8x8_d_ssd1607_200x200.c ****     case U8X8_MSG_DISPLAY_DRAW_TILE:
 588:/Users/imashio/Electronics/ARM/_Library/u8x8_d_ssd1607_200x200.c ****       u8x8_d_ssd1607_draw_tile(u8x8, arg_int, arg_ptr);
 589:/Users/imashio/Electronics/ARM/_Library/u8x8_d_ssd1607_200x200.c ****       break;
 590:/Users/imashio/Electronics/ARM/_Library/u8x8_d_ssd1607_200x200.c ****     case U8X8_MSG_DISPLAY_REFRESH:
 591:/Users/imashio/Electronics/ARM/_Library/u8x8_d_ssd1607_200x200.c ****       u8x8_cad_SendSequence(u8x8, u8x8_d_ssd1607_gd_to_display_seq);
 592:/Users/imashio/Electronics/ARM/_Library/u8x8_d_ssd1607_200x200.c ****       break;
 593:/Users/imashio/Electronics/ARM/_Library/u8x8_d_ssd1607_200x200.c ****     default:
 594:/Users/imashio/Electronics/ARM/_Library/u8x8_d_ssd1607_200x200.c ****       return 0;
 595:/Users/imashio/Electronics/ARM/_Library/u8x8_d_ssd1607_200x200.c ****   }
 596:/Users/imashio/Electronics/ARM/_Library/u8x8_d_ssd1607_200x200.c ****   return 1;
 618              		.loc 1 596 0
 619 0020 0120     		movs	r0, #1
 597:/Users/imashio/Electronics/ARM/_Library/u8x8_d_ssd1607_200x200.c **** }
 620              		.loc 1 597 0
 621 0022 38BD     		pop	{r3, r4, r5, pc}
 622              	.LVL84:
 623              	.L51:
 580:/Users/imashio/Electronics/ARM/_Library/u8x8_d_ssd1607_200x200.c **** 	u8x8_cad_SendSequence(u8x8, u8x8_d_ssd1607_200x200_powersave0_seq);
 624              		.loc 1 580 0
 625 0024 F9B9     		cbnz	r1, .L55
 581:/Users/imashio/Electronics/ARM/_Library/u8x8_d_ssd1607_200x200.c ****       else
 626              		.loc 1 581 0
 627 0026 1349     		ldr	r1, .L59+4
 628 0028 FFF7FEFF 		bl	u8x8_cad_SendSequence
 629              	.LVL85:
 596:/Users/imashio/Electronics/ARM/_Library/u8x8_d_ssd1607_200x200.c **** }
 630              		.loc 1 596 0
 631 002c 0120     		movs	r0, #1
 632              		.loc 1 597 0
 633 002e 38BD     		pop	{r3, r4, r5, pc}
 634              	.LVL86:
 635              	.L53:
 588:/Users/imashio/Electronics/ARM/_Library/u8x8_d_ssd1607_200x200.c ****       break;
 636              		.loc 1 588 0
 637 0030 1A46     		mov	r2, r3
 638 0032 FFF7FEFF 		bl	u8x8_d_ssd1607_draw_tile
 639              	.LVL87:
 596:/Users/imashio/Electronics/ARM/_Library/u8x8_d_ssd1607_200x200.c **** }
 640              		.loc 1 596 0
 641 0036 0120     		movs	r0, #1
 642              		.loc 1 597 0
 643 0038 38BD     		pop	{r3, r4, r5, pc}
 644              	.LVL88:
 645              	.L50:
 574:/Users/imashio/Electronics/ARM/_Library/u8x8_d_ssd1607_200x200.c ****       u8x8_cad_SendSequence(u8x8, u8x8_d_ssd1607_200x200_init_seq);    
 646              		.loc 1 574 0
 647 003a FFF7FEFF 		bl	u8x8_d_helper_display_init
 648              	.LVL89:
 575:/Users/imashio/Electronics/ARM/_Library/u8x8_d_ssd1607_200x200.c ****       u8x8_cad_SendSequence(u8x8, u8x8_d_ssd1607_200x200_powersave0_seq);
 649              		.loc 1 575 0
 650 003e 2846     		mov	r0, r5
 651 0040 0D49     		ldr	r1, .L59+8
 652 0042 FFF7FEFF 		bl	u8x8_cad_SendSequence
 653              	.LVL90:
ARM GAS  /var/folders/v3/wysfpd052nz8jkbx04pk0ym80000gn/T//cceC8XTT.s 			page 24


 576:/Users/imashio/Electronics/ARM/_Library/u8x8_d_ssd1607_200x200.c ****       u8x8_d_ssd1607_200x200_first_init(u8x8);
 654              		.loc 1 576 0
 655 0046 0B49     		ldr	r1, .L59+4
 656 0048 2846     		mov	r0, r5
 657 004a FFF7FEFF 		bl	u8x8_cad_SendSequence
 658              	.LVL91:
 577:/Users/imashio/Electronics/ARM/_Library/u8x8_d_ssd1607_200x200.c ****       break;
 659              		.loc 1 577 0
 660 004e 2846     		mov	r0, r5
 661 0050 FFF7FEFF 		bl	u8x8_d_ssd1607_200x200_first_init
 662              	.LVL92:
 596:/Users/imashio/Electronics/ARM/_Library/u8x8_d_ssd1607_200x200.c **** }
 663              		.loc 1 596 0
 664 0054 0120     		movs	r0, #1
 665              		.loc 1 597 0
 666 0056 38BD     		pop	{r3, r4, r5, pc}
 667              	.LVL93:
 668              	.L54:
 591:/Users/imashio/Electronics/ARM/_Library/u8x8_d_ssd1607_200x200.c ****       break;
 669              		.loc 1 591 0
 670 0058 0849     		ldr	r1, .L59+12
 671 005a FFF7FEFF 		bl	u8x8_cad_SendSequence
 672              	.LVL94:
 596:/Users/imashio/Electronics/ARM/_Library/u8x8_d_ssd1607_200x200.c **** }
 673              		.loc 1 596 0
 674 005e 0120     		movs	r0, #1
 675              		.loc 1 597 0
 676 0060 38BD     		pop	{r3, r4, r5, pc}
 677              	.LVL95:
 678              	.L56:
 594:/Users/imashio/Electronics/ARM/_Library/u8x8_d_ssd1607_200x200.c ****   }
 679              		.loc 1 594 0
 680 0062 0020     		movs	r0, #0
 681              	.LVL96:
 682              		.loc 1 597 0
 683 0064 38BD     		pop	{r3, r4, r5, pc}
 684              	.LVL97:
 685              	.L55:
 583:/Users/imashio/Electronics/ARM/_Library/u8x8_d_ssd1607_200x200.c ****       break;
 686              		.loc 1 583 0
 687 0066 0649     		ldr	r1, .L59+16
 688 0068 FFF7FEFF 		bl	u8x8_cad_SendSequence
 689              	.LVL98:
 596:/Users/imashio/Electronics/ARM/_Library/u8x8_d_ssd1607_200x200.c **** }
 690              		.loc 1 596 0
 691 006c 0120     		movs	r0, #1
 692              		.loc 1 597 0
 693 006e 38BD     		pop	{r3, r4, r5, pc}
 694              	.LVL99:
 695              	.L60:
 696              		.align	2
 697              	.L59:
 698 0070 00000000 		.word	.LANCHOR2
 699 0074 00000000 		.word	.LANCHOR4
 700 0078 00000000 		.word	.LANCHOR3
 701 007c 00000000 		.word	.LANCHOR8
 702 0080 00000000 		.word	.LANCHOR5
ARM GAS  /var/folders/v3/wysfpd052nz8jkbx04pk0ym80000gn/T//cceC8XTT.s 			page 25


 703              		.cfi_endproc
 704              	.LFE5:
 706              		.section	.bss.buf.6264,"aw",%nobits
 707              		.align	2
 708              		.set	.LANCHOR1,. + 0
 711              	buf.6264:
 712 0000 00000000 		.space	8
 712      00000000 
 713              		.section	.rodata.u8x8_d_ssd1607_200x200_exec_1000dly_seq,"a",%progbits
 714              		.align	2
 715              		.set	.LANCHOR0,. + 0
 718              	u8x8_d_ssd1607_200x200_exec_1000dly_seq:
 719 0000 15       		.byte	21
 720 0001 22       		.byte	34
 721 0002 16       		.byte	22
 722 0003 04       		.byte	4
 723 0004 15       		.byte	21
 724 0005 20       		.byte	32
 725 0006 FE       		.byte	-2
 726 0007 FA       		.byte	-6
 727 0008 FE       		.byte	-2
 728 0009 FA       		.byte	-6
 729 000a FE       		.byte	-2
 730 000b FA       		.byte	-6
 731 000c FE       		.byte	-2
 732 000d FA       		.byte	-6
 733 000e 19       		.byte	25
 734 000f FF       		.byte	-1
 735              		.section	.rodata.u8x8_d_ssd1607_200x200_init_seq,"a",%progbits
 736              		.align	2
 737              		.set	.LANCHOR3,. + 0
 740              	u8x8_d_ssd1607_200x200_init_seq:
 741 0000 18       		.byte	24
 742 0001 15       		.byte	21
 743 0002 01       		.byte	1
 744 0003 16       		.byte	22
 745 0004 C7       		.byte	-57
 746 0005 16       		.byte	22
 747 0006 00       		.byte	0
 748 0007 16       		.byte	22
 749 0008 00       		.byte	0
 750 0009 15       		.byte	21
 751 000a 03       		.byte	3
 752 000b 16       		.byte	22
 753 000c 00       		.byte	0
 754 000d 15       		.byte	21
 755 000e 04       		.byte	4
 756 000f 16       		.byte	22
 757 0010 0A       		.byte	10
 758 0011 15       		.byte	21
 759 0012 0F       		.byte	15
 760 0013 16       		.byte	22
 761 0014 00       		.byte	0
 762 0015 15       		.byte	21
 763 0016 F0       		.byte	-16
 764 0017 16       		.byte	22
 765 0018 1F       		.byte	31
ARM GAS  /var/folders/v3/wysfpd052nz8jkbx04pk0ym80000gn/T//cceC8XTT.s 			page 26


 766 0019 15       		.byte	21
 767 001a 2C       		.byte	44
 768 001b 16       		.byte	22
 769 001c A8       		.byte	-88
 770 001d 15       		.byte	21
 771 001e 3A       		.byte	58
 772 001f 16       		.byte	22
 773 0020 1A       		.byte	26
 774 0021 15       		.byte	21
 775 0022 3B       		.byte	59
 776 0023 16       		.byte	22
 777 0024 08       		.byte	8
 778 0025 15       		.byte	21
 779 0026 3C       		.byte	60
 780 0027 16       		.byte	22
 781 0028 33       		.byte	51
 782 0029 15       		.byte	21
 783 002a 11       		.byte	17
 784 002b 16       		.byte	22
 785 002c 03       		.byte	3
 786 002d 15       		.byte	21
 787 002e 44       		.byte	68
 788 002f 16       		.byte	22
 789 0030 00       		.byte	0
 790 0031 16       		.byte	22
 791 0032 18       		.byte	24
 792 0033 15       		.byte	21
 793 0034 45       		.byte	69
 794 0035 16       		.byte	22
 795 0036 00       		.byte	0
 796 0037 16       		.byte	22
 797 0038 00       		.byte	0
 798 0039 16       		.byte	22
 799 003a 2B       		.byte	43
 800 003b 16       		.byte	22
 801 003c 01       		.byte	1
 802 003d 19       		.byte	25
 803 003e FF       		.byte	-1
 804              		.section	.rodata.u8x8_d_ssd1607_200x200_powersave0_seq,"a",%progbits
 805              		.align	2
 806              		.set	.LANCHOR4,. + 0
 809              	u8x8_d_ssd1607_200x200_powersave0_seq:
 810 0000 18       		.byte	24
 811 0001 15       		.byte	21
 812 0002 22       		.byte	34
 813 0003 16       		.byte	22
 814 0004 C0       		.byte	-64
 815 0005 15       		.byte	21
 816 0006 20       		.byte	32
 817 0007 FE       		.byte	-2
 818 0008 C8       		.byte	-56
 819 0009 FE       		.byte	-2
 820 000a 64       		.byte	100
 821 000b 19       		.byte	25
 822 000c FF       		.byte	-1
 823              		.section	.rodata.u8x8_d_ssd1607_200x200_powersave1_seq,"a",%progbits
 824              		.align	2
ARM GAS  /var/folders/v3/wysfpd052nz8jkbx04pk0ym80000gn/T//cceC8XTT.s 			page 27


 825              		.set	.LANCHOR5,. + 0
 828              	u8x8_d_ssd1607_200x200_powersave1_seq:
 829 0000 18       		.byte	24
 830 0001 15       		.byte	21
 831 0002 22       		.byte	34
 832 0003 16       		.byte	22
 833 0004 02       		.byte	2
 834 0005 15       		.byte	21
 835 0006 20       		.byte	32
 836 0007 FE       		.byte	-2
 837 0008 14       		.byte	20
 838 0009 19       		.byte	25
 839 000a FF       		.byte	-1
 840              		.section	.rodata.u8x8_d_ssd1607_gd_to_display_seq,"a",%progbits
 841              		.align	2
 842              		.set	.LANCHOR8,. + 0
 845              	u8x8_d_ssd1607_gd_to_display_seq:
 846 0000 18       		.byte	24
 847 0001 15       		.byte	21
 848 0002 32       		.byte	50
 849 0003 16       		.byte	22
 850 0004 50       		.byte	80
 851 0005 16       		.byte	22
 852 0006 AA       		.byte	-86
 853 0007 16       		.byte	22
 854 0008 55       		.byte	85
 855 0009 16       		.byte	22
 856 000a AA       		.byte	-86
 857 000b 16       		.byte	22
 858 000c 11       		.byte	17
 859 000d 16       		.byte	22
 860 000e 00       		.byte	0
 861 000f 16       		.byte	22
 862 0010 00       		.byte	0
 863 0011 16       		.byte	22
 864 0012 00       		.byte	0
 865 0013 16       		.byte	22
 866 0014 00       		.byte	0
 867 0015 16       		.byte	22
 868 0016 00       		.byte	0
 869 0017 16       		.byte	22
 870 0018 00       		.byte	0
 871 0019 16       		.byte	22
 872 001a 00       		.byte	0
 873 001b 16       		.byte	22
 874 001c 00       		.byte	0
 875 001d 16       		.byte	22
 876 001e 00       		.byte	0
 877 001f 16       		.byte	22
 878 0020 00       		.byte	0
 879 0021 16       		.byte	22
 880 0022 00       		.byte	0
 881 0023 16       		.byte	22
 882 0024 00       		.byte	0
 883 0025 16       		.byte	22
 884 0026 00       		.byte	0
 885 0027 16       		.byte	22
ARM GAS  /var/folders/v3/wysfpd052nz8jkbx04pk0ym80000gn/T//cceC8XTT.s 			page 28


 886 0028 00       		.byte	0
 887 0029 16       		.byte	22
 888 002a 00       		.byte	0
 889 002b 16       		.byte	22
 890 002c FF       		.byte	-1
 891 002d 16       		.byte	22
 892 002e FF       		.byte	-1
 893 002f 16       		.byte	22
 894 0030 1F       		.byte	31
 895 0031 16       		.byte	22
 896 0032 00       		.byte	0
 897 0033 16       		.byte	22
 898 0034 00       		.byte	0
 899 0035 16       		.byte	22
 900 0036 00       		.byte	0
 901 0037 16       		.byte	22
 902 0038 00       		.byte	0
 903 0039 16       		.byte	22
 904 003a 00       		.byte	0
 905 003b 16       		.byte	22
 906 003c 00       		.byte	0
 907 003d 16       		.byte	22
 908 003e 00       		.byte	0
 909 003f 15       		.byte	21
 910 0040 22       		.byte	34
 911 0041 16       		.byte	22
 912 0042 04       		.byte	4
 913 0043 15       		.byte	21
 914 0044 20       		.byte	32
 915 0045 FE       		.byte	-2
 916 0046 FA       		.byte	-6
 917 0047 FE       		.byte	-2
 918 0048 FA       		.byte	-6
 919 0049 FE       		.byte	-2
 920 004a FA       		.byte	-6
 921 004b FE       		.byte	-2
 922 004c FA       		.byte	-6
 923 004d FE       		.byte	-2
 924 004e FA       		.byte	-6
 925 004f FE       		.byte	-2
 926 0050 FA       		.byte	-6
 927 0051 19       		.byte	25
 928 0052 FF       		.byte	-1
 929              		.section	.rodata.u8x8_d_ssd1607_to_display_seq,"a",%progbits
 930              		.align	2
 931              		.set	.LANCHOR6,. + 0
 934              	u8x8_d_ssd1607_to_display_seq:
 935 0000 18       		.byte	24
 936 0001 15       		.byte	21
 937 0002 32       		.byte	50
 938 0003 16       		.byte	22
 939 0004 02       		.byte	2
 940 0005 16       		.byte	22
 941 0006 02       		.byte	2
 942 0007 16       		.byte	22
 943 0008 01       		.byte	1
 944 0009 16       		.byte	22
ARM GAS  /var/folders/v3/wysfpd052nz8jkbx04pk0ym80000gn/T//cceC8XTT.s 			page 29


 945 000a 11       		.byte	17
 946 000b 16       		.byte	22
 947 000c 12       		.byte	18
 948 000d 16       		.byte	22
 949 000e 12       		.byte	18
 950 000f 16       		.byte	22
 951 0010 22       		.byte	34
 952 0011 16       		.byte	22
 953 0012 22       		.byte	34
 954 0013 16       		.byte	22
 955 0014 66       		.byte	102
 956 0015 16       		.byte	22
 957 0016 69       		.byte	105
 958 0017 16       		.byte	22
 959 0018 69       		.byte	105
 960 0019 16       		.byte	22
 961 001a 59       		.byte	89
 962 001b 16       		.byte	22
 963 001c 58       		.byte	88
 964 001d 16       		.byte	22
 965 001e 99       		.byte	-103
 966 001f 16       		.byte	22
 967 0020 99       		.byte	-103
 968 0021 16       		.byte	22
 969 0022 88       		.byte	-120
 970 0023 16       		.byte	22
 971 0024 00       		.byte	0
 972 0025 16       		.byte	22
 973 0026 00       		.byte	0
 974 0027 16       		.byte	22
 975 0028 00       		.byte	0
 976 0029 16       		.byte	22
 977 002a 00       		.byte	0
 978 002b 16       		.byte	22
 979 002c F8       		.byte	-8
 980 002d 16       		.byte	22
 981 002e B4       		.byte	-76
 982 002f 16       		.byte	22
 983 0030 13       		.byte	19
 984 0031 16       		.byte	22
 985 0032 51       		.byte	81
 986 0033 16       		.byte	22
 987 0034 35       		.byte	53
 988 0035 16       		.byte	22
 989 0036 51       		.byte	81
 990 0037 16       		.byte	22
 991 0038 51       		.byte	81
 992 0039 16       		.byte	22
 993 003a 19       		.byte	25
 994 003b 16       		.byte	22
 995 003c 01       		.byte	1
 996 003d 16       		.byte	22
 997 003e 00       		.byte	0
 998 003f 15       		.byte	21
 999 0040 22       		.byte	34
 1000 0041 16       		.byte	22
 1001 0042 04       		.byte	4
ARM GAS  /var/folders/v3/wysfpd052nz8jkbx04pk0ym80000gn/T//cceC8XTT.s 			page 30


 1002 0043 15       		.byte	21
 1003 0044 20       		.byte	32
 1004 0045 FE       		.byte	-2
 1005 0046 FA       		.byte	-6
 1006 0047 FE       		.byte	-2
 1007 0048 FA       		.byte	-6
 1008 0049 FE       		.byte	-2
 1009 004a FA       		.byte	-6
 1010 004b FE       		.byte	-2
 1011 004c FA       		.byte	-6
 1012 004d FE       		.byte	-2
 1013 004e FA       		.byte	-6
 1014 004f FE       		.byte	-2
 1015 0050 FA       		.byte	-6
 1016 0051 FE       		.byte	-2
 1017 0052 FA       		.byte	-6
 1018 0053 19       		.byte	25
 1019 0054 FF       		.byte	-1
 1020              		.section	.rodata.u8x8_d_ssd1607_v2_to_display_seq,"a",%progbits
 1021              		.align	2
 1022              		.set	.LANCHOR7,. + 0
 1025              	u8x8_d_ssd1607_v2_to_display_seq:
 1026 0000 18       		.byte	24
 1027 0001 15       		.byte	21
 1028 0002 32       		.byte	50
 1029 0003 16       		.byte	22
 1030 0004 02       		.byte	2
 1031 0005 16       		.byte	22
 1032 0006 02       		.byte	2
 1033 0007 16       		.byte	22
 1034 0008 01       		.byte	1
 1035 0009 16       		.byte	22
 1036 000a 11       		.byte	17
 1037 000b 16       		.byte	22
 1038 000c 12       		.byte	18
 1039 000d 16       		.byte	22
 1040 000e 12       		.byte	18
 1041 000f 16       		.byte	22
 1042 0010 22       		.byte	34
 1043 0011 16       		.byte	22
 1044 0012 22       		.byte	34
 1045 0013 16       		.byte	22
 1046 0014 66       		.byte	102
 1047 0015 16       		.byte	22
 1048 0016 69       		.byte	105
 1049 0017 16       		.byte	22
 1050 0018 69       		.byte	105
 1051 0019 16       		.byte	22
 1052 001a 59       		.byte	89
 1053 001b 16       		.byte	22
 1054 001c 58       		.byte	88
 1055 001d 16       		.byte	22
 1056 001e 99       		.byte	-103
 1057 001f 16       		.byte	22
 1058 0020 99       		.byte	-103
 1059 0021 16       		.byte	22
 1060 0022 88       		.byte	-120
ARM GAS  /var/folders/v3/wysfpd052nz8jkbx04pk0ym80000gn/T//cceC8XTT.s 			page 31


 1061 0023 16       		.byte	22
 1062 0024 00       		.byte	0
 1063 0025 16       		.byte	22
 1064 0026 00       		.byte	0
 1065 0027 16       		.byte	22
 1066 0028 00       		.byte	0
 1067 0029 16       		.byte	22
 1068 002a 00       		.byte	0
 1069 002b 16       		.byte	22
 1070 002c F8       		.byte	-8
 1071 002d 16       		.byte	22
 1072 002e B4       		.byte	-76
 1073 002f 16       		.byte	22
 1074 0030 13       		.byte	19
 1075 0031 16       		.byte	22
 1076 0032 51       		.byte	81
 1077 0033 16       		.byte	22
 1078 0034 35       		.byte	53
 1079 0035 16       		.byte	22
 1080 0036 51       		.byte	81
 1081 0037 16       		.byte	22
 1082 0038 51       		.byte	81
 1083 0039 16       		.byte	22
 1084 003a E9       		.byte	-23
 1085 003b 16       		.byte	22
 1086 003c 04       		.byte	4
 1087 003d 16       		.byte	22
 1088 003e 00       		.byte	0
 1089 003f 15       		.byte	21
 1090 0040 22       		.byte	34
 1091 0041 16       		.byte	22
 1092 0042 04       		.byte	4
 1093 0043 15       		.byte	21
 1094 0044 20       		.byte	32
 1095 0045 FE       		.byte	-2
 1096 0046 FA       		.byte	-6
 1097 0047 FE       		.byte	-2
 1098 0048 FA       		.byte	-6
 1099 0049 FE       		.byte	-2
 1100 004a FA       		.byte	-6
 1101 004b FE       		.byte	-2
 1102 004c FA       		.byte	-6
 1103 004d FE       		.byte	-2
 1104 004e FA       		.byte	-6
 1105 004f FE       		.byte	-2
 1106 0050 FA       		.byte	-6
 1107 0051 19       		.byte	25
 1108 0052 FF       		.byte	-1
 1109              		.section	.rodata.u8x8_ssd1607_200x200_display_info,"a",%progbits
 1110              		.align	2
 1111              		.set	.LANCHOR2,. + 0
 1114              	u8x8_ssd1607_200x200_display_info:
 1115 0000 00       		.byte	0
 1116 0001 01       		.byte	1
 1117 0002 78       		.byte	120
 1118 0003 3C       		.byte	60
 1119 0004 64       		.byte	100
ARM GAS  /var/folders/v3/wysfpd052nz8jkbx04pk0ym80000gn/T//cceC8XTT.s 			page 32


 1120 0005 64       		.byte	100
 1121 0006 32       		.byte	50
 1122 0007 64       		.byte	100
 1123 0008 00093D00 		.word	4000000
 1124 000c 02       		.byte	2
 1125 000d 04       		.byte	4
 1126 000e 28       		.byte	40
 1127 000f 96       		.byte	-106
 1128 0010 19       		.byte	25
 1129 0011 19       		.byte	25
 1130 0012 00       		.byte	0
 1131 0013 00       		.byte	0
 1132 0014 C800     		.short	200
 1133 0016 C800     		.short	200
 1134              		.text
 1135              	.Letext0:
 1136              		.file 2 "/usr/local/gcc-arm-none-eabi-7-2018-q2-update/arm-none-eabi/include/machine/_default_type
 1137              		.file 3 "/usr/local/gcc-arm-none-eabi-7-2018-q2-update/arm-none-eabi/include/sys/_stdint.h"
 1138              		.file 4 "/Users/imashio/Electronics/ARM/_Library/u8x8.h"
ARM GAS  /var/folders/v3/wysfpd052nz8jkbx04pk0ym80000gn/T//cceC8XTT.s 			page 33


DEFINED SYMBOLS
                            *ABS*:0000000000000000 u8x8_d_ssd1607_200x200.c
/var/folders/v3/wysfpd052nz8jkbx04pk0ym80000gn/T//cceC8XTT.s:18     .text.u8x8_d_ssd1607_200x200_first_init:0000000000000000 $t
/var/folders/v3/wysfpd052nz8jkbx04pk0ym80000gn/T//cceC8XTT.s:25     .text.u8x8_d_ssd1607_200x200_first_init:0000000000000000 u8x8_d_ssd1607_200x200_first_init
/var/folders/v3/wysfpd052nz8jkbx04pk0ym80000gn/T//cceC8XTT.s:86     .text.u8x8_d_ssd1607_200x200_first_init:0000000000000040 $d
/var/folders/v3/wysfpd052nz8jkbx04pk0ym80000gn/T//cceC8XTT.s:91     .text.u8x8_d_ssd1607_draw_tile:0000000000000000 $t
/var/folders/v3/wysfpd052nz8jkbx04pk0ym80000gn/T//cceC8XTT.s:98     .text.u8x8_d_ssd1607_draw_tile:0000000000000000 u8x8_d_ssd1607_draw_tile
/var/folders/v3/wysfpd052nz8jkbx04pk0ym80000gn/T//cceC8XTT.s:288    .text.u8x8_d_ssd1607_draw_tile:00000000000000e0 $d
/var/folders/v3/wysfpd052nz8jkbx04pk0ym80000gn/T//cceC8XTT.s:293    .text.u8x8_d_ssd1607_200x200:0000000000000000 $t
/var/folders/v3/wysfpd052nz8jkbx04pk0ym80000gn/T//cceC8XTT.s:301    .text.u8x8_d_ssd1607_200x200:0000000000000000 u8x8_d_ssd1607_200x200
/var/folders/v3/wysfpd052nz8jkbx04pk0ym80000gn/T//cceC8XTT.s:327    .text.u8x8_d_ssd1607_200x200:0000000000000012 $d
/var/folders/v3/wysfpd052nz8jkbx04pk0ym80000gn/T//cceC8XTT.s:335    .text.u8x8_d_ssd1607_200x200:000000000000001a $t
/var/folders/v3/wysfpd052nz8jkbx04pk0ym80000gn/T//cceC8XTT.s:422    .text.u8x8_d_ssd1607_200x200:0000000000000070 $d
/var/folders/v3/wysfpd052nz8jkbx04pk0ym80000gn/T//cceC8XTT.s:431    .text.u8x8_d_ssd1607_v2_200x200:0000000000000000 $t
/var/folders/v3/wysfpd052nz8jkbx04pk0ym80000gn/T//cceC8XTT.s:439    .text.u8x8_d_ssd1607_v2_200x200:0000000000000000 u8x8_d_ssd1607_v2_200x200
/var/folders/v3/wysfpd052nz8jkbx04pk0ym80000gn/T//cceC8XTT.s:465    .text.u8x8_d_ssd1607_v2_200x200:0000000000000012 $d
/var/folders/v3/wysfpd052nz8jkbx04pk0ym80000gn/T//cceC8XTT.s:473    .text.u8x8_d_ssd1607_v2_200x200:000000000000001a $t
/var/folders/v3/wysfpd052nz8jkbx04pk0ym80000gn/T//cceC8XTT.s:560    .text.u8x8_d_ssd1607_v2_200x200:0000000000000070 $d
/var/folders/v3/wysfpd052nz8jkbx04pk0ym80000gn/T//cceC8XTT.s:569    .text.u8x8_d_ssd1607_gd_200x200:0000000000000000 $t
/var/folders/v3/wysfpd052nz8jkbx04pk0ym80000gn/T//cceC8XTT.s:577    .text.u8x8_d_ssd1607_gd_200x200:0000000000000000 u8x8_d_ssd1607_gd_200x200
/var/folders/v3/wysfpd052nz8jkbx04pk0ym80000gn/T//cceC8XTT.s:603    .text.u8x8_d_ssd1607_gd_200x200:0000000000000012 $d
/var/folders/v3/wysfpd052nz8jkbx04pk0ym80000gn/T//cceC8XTT.s:611    .text.u8x8_d_ssd1607_gd_200x200:000000000000001a $t
/var/folders/v3/wysfpd052nz8jkbx04pk0ym80000gn/T//cceC8XTT.s:698    .text.u8x8_d_ssd1607_gd_200x200:0000000000000070 $d
/var/folders/v3/wysfpd052nz8jkbx04pk0ym80000gn/T//cceC8XTT.s:707    .bss.buf.6264:0000000000000000 $d
/var/folders/v3/wysfpd052nz8jkbx04pk0ym80000gn/T//cceC8XTT.s:711    .bss.buf.6264:0000000000000000 buf.6264
/var/folders/v3/wysfpd052nz8jkbx04pk0ym80000gn/T//cceC8XTT.s:714    .rodata.u8x8_d_ssd1607_200x200_exec_1000dly_seq:0000000000000000 $d
/var/folders/v3/wysfpd052nz8jkbx04pk0ym80000gn/T//cceC8XTT.s:718    .rodata.u8x8_d_ssd1607_200x200_exec_1000dly_seq:0000000000000000 u8x8_d_ssd1607_200x200_exec_1000dly_seq
/var/folders/v3/wysfpd052nz8jkbx04pk0ym80000gn/T//cceC8XTT.s:736    .rodata.u8x8_d_ssd1607_200x200_init_seq:0000000000000000 $d
/var/folders/v3/wysfpd052nz8jkbx04pk0ym80000gn/T//cceC8XTT.s:740    .rodata.u8x8_d_ssd1607_200x200_init_seq:0000000000000000 u8x8_d_ssd1607_200x200_init_seq
/var/folders/v3/wysfpd052nz8jkbx04pk0ym80000gn/T//cceC8XTT.s:805    .rodata.u8x8_d_ssd1607_200x200_powersave0_seq:0000000000000000 $d
/var/folders/v3/wysfpd052nz8jkbx04pk0ym80000gn/T//cceC8XTT.s:809    .rodata.u8x8_d_ssd1607_200x200_powersave0_seq:0000000000000000 u8x8_d_ssd1607_200x200_powersave0_seq
/var/folders/v3/wysfpd052nz8jkbx04pk0ym80000gn/T//cceC8XTT.s:824    .rodata.u8x8_d_ssd1607_200x200_powersave1_seq:0000000000000000 $d
/var/folders/v3/wysfpd052nz8jkbx04pk0ym80000gn/T//cceC8XTT.s:828    .rodata.u8x8_d_ssd1607_200x200_powersave1_seq:0000000000000000 u8x8_d_ssd1607_200x200_powersave1_seq
/var/folders/v3/wysfpd052nz8jkbx04pk0ym80000gn/T//cceC8XTT.s:841    .rodata.u8x8_d_ssd1607_gd_to_display_seq:0000000000000000 $d
/var/folders/v3/wysfpd052nz8jkbx04pk0ym80000gn/T//cceC8XTT.s:845    .rodata.u8x8_d_ssd1607_gd_to_display_seq:0000000000000000 u8x8_d_ssd1607_gd_to_display_seq
/var/folders/v3/wysfpd052nz8jkbx04pk0ym80000gn/T//cceC8XTT.s:930    .rodata.u8x8_d_ssd1607_to_display_seq:0000000000000000 $d
/var/folders/v3/wysfpd052nz8jkbx04pk0ym80000gn/T//cceC8XTT.s:934    .rodata.u8x8_d_ssd1607_to_display_seq:0000000000000000 u8x8_d_ssd1607_to_display_seq
/var/folders/v3/wysfpd052nz8jkbx04pk0ym80000gn/T//cceC8XTT.s:1021   .rodata.u8x8_d_ssd1607_v2_to_display_seq:0000000000000000 $d
/var/folders/v3/wysfpd052nz8jkbx04pk0ym80000gn/T//cceC8XTT.s:1025   .rodata.u8x8_d_ssd1607_v2_to_display_seq:0000000000000000 u8x8_d_ssd1607_v2_to_display_seq
/var/folders/v3/wysfpd052nz8jkbx04pk0ym80000gn/T//cceC8XTT.s:1110   .rodata.u8x8_ssd1607_200x200_display_info:0000000000000000 $d
/var/folders/v3/wysfpd052nz8jkbx04pk0ym80000gn/T//cceC8XTT.s:1114   .rodata.u8x8_ssd1607_200x200_display_info:0000000000000000 u8x8_ssd1607_200x200_display_info

UNDEFINED SYMBOLS
u8x8_ClearDisplay
u8x8_cad_StartTransfer
u8x8_cad_SendCmd
u8x8_cad_SendMultipleArg
u8x8_cad_SendSequence
u8x8_cad_SendArg
u8x8_cad_SendData
u8x8_cad_EndTransfer
u8x8_d_helper_display_setup_memory
u8x8_d_helper_display_init
