ARM GAS  /var/folders/v3/wysfpd052nz8jkbx04pk0ym80000gn/T//cczwxW0F.s 			page 1


   1              		.cpu cortex-m4
   2              		.eabi_attribute 27, 1
   3              		.eabi_attribute 28, 1
   4              		.eabi_attribute 20, 1
   5              		.eabi_attribute 21, 1
   6              		.eabi_attribute 23, 3
   7              		.eabi_attribute 24, 1
   8              		.eabi_attribute 25, 1
   9              		.eabi_attribute 26, 1
  10              		.eabi_attribute 30, 2
  11              		.eabi_attribute 34, 1
  12              		.eabi_attribute 18, 4
  13              		.file	"u8x8_d_st7588.c"
  14              		.text
  15              	.Ltext0:
  16              		.cfi_sections	.debug_frame
  17              		.section	.text.u8x8_d_st7588_jlx12864,"ax",%progbits
  18              		.align	1
  19              		.p2align 2,,3
  20              		.global	u8x8_d_st7588_jlx12864
  21              		.syntax unified
  22              		.thumb
  23              		.thumb_func
  24              		.fpu fpv4-sp-d16
  26              	u8x8_d_st7588_jlx12864:
  27              	.LFB1:
  28              		.file 1 "/Users/imashio/Electronics/ARM/_Library/u8x8_d_st7588.c"
   1:/Users/imashio/Electronics/ARM/_Library/u8x8_d_st7588.c **** /*
   2:/Users/imashio/Electronics/ARM/_Library/u8x8_d_st7588.c **** 
   3:/Users/imashio/Electronics/ARM/_Library/u8x8_d_st7588.c ****   u8x8_d_st7588.c
   4:/Users/imashio/Electronics/ARM/_Library/u8x8_d_st7588.c **** 
   5:/Users/imashio/Electronics/ARM/_Library/u8x8_d_st7588.c ****   Universal 8bit Graphics Library (https://github.com/olikraus/u8g2/)
   6:/Users/imashio/Electronics/ARM/_Library/u8x8_d_st7588.c **** 
   7:/Users/imashio/Electronics/ARM/_Library/u8x8_d_st7588.c ****   Copyright (c) 2017, olikraus@gmail.com
   8:/Users/imashio/Electronics/ARM/_Library/u8x8_d_st7588.c ****   All rights reserved.
   9:/Users/imashio/Electronics/ARM/_Library/u8x8_d_st7588.c **** 
  10:/Users/imashio/Electronics/ARM/_Library/u8x8_d_st7588.c ****   Redistribution and use in source and binary forms, with or without modification, 
  11:/Users/imashio/Electronics/ARM/_Library/u8x8_d_st7588.c ****   are permitted provided that the following conditions are met:
  12:/Users/imashio/Electronics/ARM/_Library/u8x8_d_st7588.c **** 
  13:/Users/imashio/Electronics/ARM/_Library/u8x8_d_st7588.c ****   * Redistributions of source code must retain the above copyright notice, this list 
  14:/Users/imashio/Electronics/ARM/_Library/u8x8_d_st7588.c ****     of conditions and the following disclaimer.
  15:/Users/imashio/Electronics/ARM/_Library/u8x8_d_st7588.c ****     
  16:/Users/imashio/Electronics/ARM/_Library/u8x8_d_st7588.c ****   * Redistributions in binary form must reproduce the above copyright notice, this 
  17:/Users/imashio/Electronics/ARM/_Library/u8x8_d_st7588.c ****     list of conditions and the following disclaimer in the documentation and/or other 
  18:/Users/imashio/Electronics/ARM/_Library/u8x8_d_st7588.c ****     materials provided with the distribution.
  19:/Users/imashio/Electronics/ARM/_Library/u8x8_d_st7588.c **** 
  20:/Users/imashio/Electronics/ARM/_Library/u8x8_d_st7588.c ****   THIS SOFTWARE IS PROVIDED BY THE COPYRIGHT HOLDERS AND 
  21:/Users/imashio/Electronics/ARM/_Library/u8x8_d_st7588.c ****   CONTRIBUTORS "AS IS" AND ANY EXPRESS OR IMPLIED WARRANTIES, 
  22:/Users/imashio/Electronics/ARM/_Library/u8x8_d_st7588.c ****   INCLUDING, BUT NOT LIMITED TO, THE IMPLIED WARRANTIES OF 
  23:/Users/imashio/Electronics/ARM/_Library/u8x8_d_st7588.c ****   MERCHANTABILITY AND FITNESS FOR A PARTICULAR PURPOSE ARE 
  24:/Users/imashio/Electronics/ARM/_Library/u8x8_d_st7588.c ****   DISCLAIMED. IN NO EVENT SHALL THE COPYRIGHT HOLDER OR 
  25:/Users/imashio/Electronics/ARM/_Library/u8x8_d_st7588.c ****   CONTRIBUTORS BE LIABLE FOR ANY DIRECT, INDIRECT, INCIDENTAL, 
  26:/Users/imashio/Electronics/ARM/_Library/u8x8_d_st7588.c ****   SPECIAL, EXEMPLARY, OR CONSEQUENTIAL DAMAGES (INCLUDING, BUT 
  27:/Users/imashio/Electronics/ARM/_Library/u8x8_d_st7588.c ****   NOT LIMITED TO, PROCUREMENT OF SUBSTITUTE GOODS OR SERVICES; 
  28:/Users/imashio/Electronics/ARM/_Library/u8x8_d_st7588.c ****   LOSS OF USE, DATA, OR PROFITS; OR BUSINESS INTERRUPTION) HOWEVER 
  29:/Users/imashio/Electronics/ARM/_Library/u8x8_d_st7588.c ****   CAUSED AND ON ANY THEORY OF LIABILITY, WHETHER IN CONTRACT, 
  30:/Users/imashio/Electronics/ARM/_Library/u8x8_d_st7588.c ****   STRICT LIABILITY, OR TORT (INCLUDING NEGLIGENCE OR OTHERWISE) 
ARM GAS  /var/folders/v3/wysfpd052nz8jkbx04pk0ym80000gn/T//cczwxW0F.s 			page 2


  31:/Users/imashio/Electronics/ARM/_Library/u8x8_d_st7588.c ****   ARISING IN ANY WAY OUT OF THE USE OF THIS SOFTWARE, EVEN IF 
  32:/Users/imashio/Electronics/ARM/_Library/u8x8_d_st7588.c ****   ADVISED OF THE POSSIBILITY OF SUCH DAMAGE.  
  33:/Users/imashio/Electronics/ARM/_Library/u8x8_d_st7588.c ****   
  34:/Users/imashio/Electronics/ARM/_Library/u8x8_d_st7588.c ****   ST7588
  35:/Users/imashio/Electronics/ARM/_Library/u8x8_d_st7588.c ****     - has 4 different I2C addresses 
  36:/Users/imashio/Electronics/ARM/_Library/u8x8_d_st7588.c ****     - I2C protocol is identical to SSD13xx
  37:/Users/imashio/Electronics/ARM/_Library/u8x8_d_st7588.c ****   
  38:/Users/imashio/Electronics/ARM/_Library/u8x8_d_st7588.c **** */
  39:/Users/imashio/Electronics/ARM/_Library/u8x8_d_st7588.c **** 
  40:/Users/imashio/Electronics/ARM/_Library/u8x8_d_st7588.c **** 
  41:/Users/imashio/Electronics/ARM/_Library/u8x8_d_st7588.c **** #include "u8x8.h"
  42:/Users/imashio/Electronics/ARM/_Library/u8x8_d_st7588.c **** 
  43:/Users/imashio/Electronics/ARM/_Library/u8x8_d_st7588.c **** /* function set, bit 2: power down, bit 3: MY, bit 4: MX, bit 5: must be 1 */
  44:/Users/imashio/Electronics/ARM/_Library/u8x8_d_st7588.c **** #define FS (0x020)
  45:/Users/imashio/Electronics/ARM/_Library/u8x8_d_st7588.c **** 
  46:/Users/imashio/Electronics/ARM/_Library/u8x8_d_st7588.c **** /* not a real power down for the ST7588... just a display off */
  47:/Users/imashio/Electronics/ARM/_Library/u8x8_d_st7588.c **** static const uint8_t u8x8_d_st7588_128x64_powersave0_seq[] = {
  48:/Users/imashio/Electronics/ARM/_Library/u8x8_d_st7588.c ****   U8X8_START_TRANSFER(),             	/* enable chip, delay is part of the transfer start */
  49:/Users/imashio/Electronics/ARM/_Library/u8x8_d_st7588.c ****   U8X8_C( FS | 0x00 ),			/* select 00 commands */
  50:/Users/imashio/Electronics/ARM/_Library/u8x8_d_st7588.c ****   //U8X8_C( 0x08 ),				/* display off */
  51:/Users/imashio/Electronics/ARM/_Library/u8x8_d_st7588.c ****   U8X8_C( 0x0c ),				/* display on */
  52:/Users/imashio/Electronics/ARM/_Library/u8x8_d_st7588.c ****   U8X8_END_TRANSFER(),             	/* disable chip */
  53:/Users/imashio/Electronics/ARM/_Library/u8x8_d_st7588.c ****   U8X8_END()             			/* end of sequence */
  54:/Users/imashio/Electronics/ARM/_Library/u8x8_d_st7588.c **** };
  55:/Users/imashio/Electronics/ARM/_Library/u8x8_d_st7588.c **** 
  56:/Users/imashio/Electronics/ARM/_Library/u8x8_d_st7588.c **** static const uint8_t u8x8_d_st7588_128x64_powersave1_seq[] = {
  57:/Users/imashio/Electronics/ARM/_Library/u8x8_d_st7588.c ****   U8X8_START_TRANSFER(),             	/* enable chip, delay is part of the transfer start */
  58:/Users/imashio/Electronics/ARM/_Library/u8x8_d_st7588.c ****   U8X8_C( FS | 0x00 ),			/* select 00 commands */
  59:/Users/imashio/Electronics/ARM/_Library/u8x8_d_st7588.c ****   U8X8_C( 0x08 ),				/* display off */
  60:/Users/imashio/Electronics/ARM/_Library/u8x8_d_st7588.c ****   //U8X8_C( 0x0c ),				/* display on */
  61:/Users/imashio/Electronics/ARM/_Library/u8x8_d_st7588.c ****   U8X8_END_TRANSFER(),             	/* disable chip */
  62:/Users/imashio/Electronics/ARM/_Library/u8x8_d_st7588.c ****   U8X8_END()             			/* end of sequence */
  63:/Users/imashio/Electronics/ARM/_Library/u8x8_d_st7588.c **** };
  64:/Users/imashio/Electronics/ARM/_Library/u8x8_d_st7588.c **** 
  65:/Users/imashio/Electronics/ARM/_Library/u8x8_d_st7588.c **** 
  66:/Users/imashio/Electronics/ARM/_Library/u8x8_d_st7588.c **** 
  67:/Users/imashio/Electronics/ARM/_Library/u8x8_d_st7588.c **** 
  68:/Users/imashio/Electronics/ARM/_Library/u8x8_d_st7588.c **** static uint8_t u8x8_d_st7588_128x64_generic(u8x8_t *u8x8, uint8_t msg, uint8_t arg_int, void *arg_p
  69:/Users/imashio/Electronics/ARM/_Library/u8x8_d_st7588.c **** {
  70:/Users/imashio/Electronics/ARM/_Library/u8x8_d_st7588.c ****   uint8_t x, c;
  71:/Users/imashio/Electronics/ARM/_Library/u8x8_d_st7588.c ****   uint8_t *ptr;
  72:/Users/imashio/Electronics/ARM/_Library/u8x8_d_st7588.c ****   switch(msg)
  73:/Users/imashio/Electronics/ARM/_Library/u8x8_d_st7588.c ****   {
  74:/Users/imashio/Electronics/ARM/_Library/u8x8_d_st7588.c ****     /* handled by the calling function
  75:/Users/imashio/Electronics/ARM/_Library/u8x8_d_st7588.c ****     case U8X8_MSG_DISPLAY_SETUP_MEMORY:
  76:/Users/imashio/Electronics/ARM/_Library/u8x8_d_st7588.c ****       u8x8_d_helper_display_setup_memory(u8x8, &u8x8_st7588_128x64_display_info);
  77:/Users/imashio/Electronics/ARM/_Library/u8x8_d_st7588.c ****       break;
  78:/Users/imashio/Electronics/ARM/_Library/u8x8_d_st7588.c ****     */
  79:/Users/imashio/Electronics/ARM/_Library/u8x8_d_st7588.c ****     /* handled by the calling function
  80:/Users/imashio/Electronics/ARM/_Library/u8x8_d_st7588.c ****     case U8X8_MSG_DISPLAY_INIT:
  81:/Users/imashio/Electronics/ARM/_Library/u8x8_d_st7588.c ****       u8x8_d_helper_display_init(u8x8);
  82:/Users/imashio/Electronics/ARM/_Library/u8x8_d_st7588.c ****       u8x8_cad_SendSequence(u8x8, u8x8_d_st7588_128x64_init_seq);    
  83:/Users/imashio/Electronics/ARM/_Library/u8x8_d_st7588.c ****       break;
  84:/Users/imashio/Electronics/ARM/_Library/u8x8_d_st7588.c ****     */
  85:/Users/imashio/Electronics/ARM/_Library/u8x8_d_st7588.c ****     case U8X8_MSG_DISPLAY_SET_POWER_SAVE:
  86:/Users/imashio/Electronics/ARM/_Library/u8x8_d_st7588.c ****       if ( arg_int == 0 )
  87:/Users/imashio/Electronics/ARM/_Library/u8x8_d_st7588.c **** 	u8x8_cad_SendSequence(u8x8, u8x8_d_st7588_128x64_powersave0_seq);
ARM GAS  /var/folders/v3/wysfpd052nz8jkbx04pk0ym80000gn/T//cczwxW0F.s 			page 3


  88:/Users/imashio/Electronics/ARM/_Library/u8x8_d_st7588.c ****       else
  89:/Users/imashio/Electronics/ARM/_Library/u8x8_d_st7588.c **** 	u8x8_cad_SendSequence(u8x8, u8x8_d_st7588_128x64_powersave1_seq);
  90:/Users/imashio/Electronics/ARM/_Library/u8x8_d_st7588.c **** 
  91:/Users/imashio/Electronics/ARM/_Library/u8x8_d_st7588.c ****       /* restore orientation */
  92:/Users/imashio/Electronics/ARM/_Library/u8x8_d_st7588.c ****       if ( u8x8->x_offset == 0 )
  93:/Users/imashio/Electronics/ARM/_Library/u8x8_d_st7588.c **** 	u8x8_cad_SendCmd(u8x8, FS );	/* select 00 commands */
  94:/Users/imashio/Electronics/ARM/_Library/u8x8_d_st7588.c ****       else
  95:/Users/imashio/Electronics/ARM/_Library/u8x8_d_st7588.c **** 	u8x8_cad_SendCmd(u8x8, FS ^ 0x018 );	/* select 00 commands */
  96:/Users/imashio/Electronics/ARM/_Library/u8x8_d_st7588.c ****       
  97:/Users/imashio/Electronics/ARM/_Library/u8x8_d_st7588.c ****       break;
  98:/Users/imashio/Electronics/ARM/_Library/u8x8_d_st7588.c **** #ifdef U8X8_WITH_SET_CONTRAST
  99:/Users/imashio/Electronics/ARM/_Library/u8x8_d_st7588.c ****     case U8X8_MSG_DISPLAY_SET_CONTRAST:
 100:/Users/imashio/Electronics/ARM/_Library/u8x8_d_st7588.c **** 
 101:/Users/imashio/Electronics/ARM/_Library/u8x8_d_st7588.c ****       u8x8_cad_StartTransfer(u8x8);
 102:/Users/imashio/Electronics/ARM/_Library/u8x8_d_st7588.c ****       
 103:/Users/imashio/Electronics/ARM/_Library/u8x8_d_st7588.c ****       u8x8_cad_SendCmd(u8x8, FS );
 104:/Users/imashio/Electronics/ARM/_Library/u8x8_d_st7588.c ****       u8x8_cad_SendArg(u8x8, 4 | (arg_int>>7) );
 105:/Users/imashio/Electronics/ARM/_Library/u8x8_d_st7588.c ****       u8x8_cad_SendCmd(u8x8, FS | 1);
 106:/Users/imashio/Electronics/ARM/_Library/u8x8_d_st7588.c ****       u8x8_cad_SendArg(u8x8, 0x080 | arg_int );
 107:/Users/imashio/Electronics/ARM/_Library/u8x8_d_st7588.c ****       
 108:/Users/imashio/Electronics/ARM/_Library/u8x8_d_st7588.c ****       /* restore orientation */
 109:/Users/imashio/Electronics/ARM/_Library/u8x8_d_st7588.c ****       if ( u8x8->x_offset == 0 )
 110:/Users/imashio/Electronics/ARM/_Library/u8x8_d_st7588.c **** 	u8x8_cad_SendCmd(u8x8, FS );	/* select 00 commands */
 111:/Users/imashio/Electronics/ARM/_Library/u8x8_d_st7588.c ****       else
 112:/Users/imashio/Electronics/ARM/_Library/u8x8_d_st7588.c **** 	u8x8_cad_SendCmd(u8x8, FS ^ 0x018 );	/* select 00 commands */
 113:/Users/imashio/Electronics/ARM/_Library/u8x8_d_st7588.c ****       u8x8_cad_EndTransfer(u8x8);
 114:/Users/imashio/Electronics/ARM/_Library/u8x8_d_st7588.c ****       break;
 115:/Users/imashio/Electronics/ARM/_Library/u8x8_d_st7588.c **** #endif
 116:/Users/imashio/Electronics/ARM/_Library/u8x8_d_st7588.c ****     case U8X8_MSG_DISPLAY_DRAW_TILE:
 117:/Users/imashio/Electronics/ARM/_Library/u8x8_d_st7588.c ****       
 118:/Users/imashio/Electronics/ARM/_Library/u8x8_d_st7588.c ****       u8x8_cad_StartTransfer(u8x8);
 119:/Users/imashio/Electronics/ARM/_Library/u8x8_d_st7588.c ****       x = ((u8x8_tile_t *)arg_ptr)->x_pos;    
 120:/Users/imashio/Electronics/ARM/_Library/u8x8_d_st7588.c ****       x *= 8;
 121:/Users/imashio/Electronics/ARM/_Library/u8x8_d_st7588.c ****       
 122:/Users/imashio/Electronics/ARM/_Library/u8x8_d_st7588.c ****       x += u8x8->x_offset;
 123:/Users/imashio/Electronics/ARM/_Library/u8x8_d_st7588.c ****     
 124:/Users/imashio/Electronics/ARM/_Library/u8x8_d_st7588.c ****       if ( u8x8->x_offset == 0 )
 125:/Users/imashio/Electronics/ARM/_Library/u8x8_d_st7588.c **** 	u8x8_cad_SendCmd(u8x8, FS );	/* select 00 commands */
 126:/Users/imashio/Electronics/ARM/_Library/u8x8_d_st7588.c ****       else
 127:/Users/imashio/Electronics/ARM/_Library/u8x8_d_st7588.c **** 	u8x8_cad_SendCmd(u8x8, FS ^ 0x018 );	/* select 00 commands */
 128:/Users/imashio/Electronics/ARM/_Library/u8x8_d_st7588.c **** 	
 129:/Users/imashio/Electronics/ARM/_Library/u8x8_d_st7588.c ****       u8x8_cad_SendCmd(u8x8, 0x040 | (((u8x8_tile_t *)arg_ptr)->y_pos));
 130:/Users/imashio/Electronics/ARM/_Library/u8x8_d_st7588.c ****       u8x8_cad_SendCmd(u8x8, 0x0e0 | ((x&15)));
 131:/Users/imashio/Electronics/ARM/_Library/u8x8_d_st7588.c ****       u8x8_cad_SendCmd(u8x8, 0x0f0 | (x>>4) );
 132:/Users/imashio/Electronics/ARM/_Library/u8x8_d_st7588.c ****     
 133:/Users/imashio/Electronics/ARM/_Library/u8x8_d_st7588.c ****       
 134:/Users/imashio/Electronics/ARM/_Library/u8x8_d_st7588.c ****       do
 135:/Users/imashio/Electronics/ARM/_Library/u8x8_d_st7588.c ****       {
 136:/Users/imashio/Electronics/ARM/_Library/u8x8_d_st7588.c **** 	c = ((u8x8_tile_t *)arg_ptr)->cnt;
 137:/Users/imashio/Electronics/ARM/_Library/u8x8_d_st7588.c **** 	ptr = ((u8x8_tile_t *)arg_ptr)->tile_ptr;
 138:/Users/imashio/Electronics/ARM/_Library/u8x8_d_st7588.c **** 	u8x8_cad_SendData(u8x8, c*8, ptr); 	/* note: SendData can not handle more than 255 bytes */
 139:/Users/imashio/Electronics/ARM/_Library/u8x8_d_st7588.c **** 	arg_int--;
 140:/Users/imashio/Electronics/ARM/_Library/u8x8_d_st7588.c ****       } while( arg_int > 0 );
 141:/Users/imashio/Electronics/ARM/_Library/u8x8_d_st7588.c ****       
 142:/Users/imashio/Electronics/ARM/_Library/u8x8_d_st7588.c ****       u8x8_cad_EndTransfer(u8x8);
 143:/Users/imashio/Electronics/ARM/_Library/u8x8_d_st7588.c ****       break;
 144:/Users/imashio/Electronics/ARM/_Library/u8x8_d_st7588.c ****     default:
ARM GAS  /var/folders/v3/wysfpd052nz8jkbx04pk0ym80000gn/T//cczwxW0F.s 			page 4


 145:/Users/imashio/Electronics/ARM/_Library/u8x8_d_st7588.c ****       return 0;
 146:/Users/imashio/Electronics/ARM/_Library/u8x8_d_st7588.c ****   }
 147:/Users/imashio/Electronics/ARM/_Library/u8x8_d_st7588.c ****   return 1;
 148:/Users/imashio/Electronics/ARM/_Library/u8x8_d_st7588.c **** }
 149:/Users/imashio/Electronics/ARM/_Library/u8x8_d_st7588.c **** 
 150:/Users/imashio/Electronics/ARM/_Library/u8x8_d_st7588.c **** /*=============================================*/
 151:/Users/imashio/Electronics/ARM/_Library/u8x8_d_st7588.c **** 
 152:/Users/imashio/Electronics/ARM/_Library/u8x8_d_st7588.c **** static const u8x8_display_info_t u8x8_st7588_128x64_display_info =
 153:/Users/imashio/Electronics/ARM/_Library/u8x8_d_st7588.c **** {
 154:/Users/imashio/Electronics/ARM/_Library/u8x8_d_st7588.c ****   /* chip_enable_level = */ 0,
 155:/Users/imashio/Electronics/ARM/_Library/u8x8_d_st7588.c ****   /* chip_disable_level = */ 1,
 156:/Users/imashio/Electronics/ARM/_Library/u8x8_d_st7588.c ****   
 157:/Users/imashio/Electronics/ARM/_Library/u8x8_d_st7588.c ****   /* post_chip_enable_wait_ns = */ 150,
 158:/Users/imashio/Electronics/ARM/_Library/u8x8_d_st7588.c ****   /* pre_chip_disable_wait_ns = */ 30,
 159:/Users/imashio/Electronics/ARM/_Library/u8x8_d_st7588.c ****   /* reset_pulse_width_ms = */ 5, 	
 160:/Users/imashio/Electronics/ARM/_Library/u8x8_d_st7588.c ****   /* post_reset_wait_ms = */ 5, 		/**/
 161:/Users/imashio/Electronics/ARM/_Library/u8x8_d_st7588.c ****   /* sda_setup_time_ns = */ 60,		/* */
 162:/Users/imashio/Electronics/ARM/_Library/u8x8_d_st7588.c ****   /* sck_pulse_width_ns = */ 60,	/*  */
 163:/Users/imashio/Electronics/ARM/_Library/u8x8_d_st7588.c ****   /* sck_clock_hz = */ 4000000UL,	/* since Arduino 1.6.0, the SPI bus speed in Hz. Should be  10000
 164:/Users/imashio/Electronics/ARM/_Library/u8x8_d_st7588.c ****   /* spi_mode = */ 0,		/* active high, rising edge */
 165:/Users/imashio/Electronics/ARM/_Library/u8x8_d_st7588.c ****   /* i2c_bus_clock_100kHz = */ 4,	/* 400KHz */
 166:/Users/imashio/Electronics/ARM/_Library/u8x8_d_st7588.c ****   /* data_setup_time_ns = */ 80,
 167:/Users/imashio/Electronics/ARM/_Library/u8x8_d_st7588.c ****   /* write_pulse_width_ns = */ 50,	
 168:/Users/imashio/Electronics/ARM/_Library/u8x8_d_st7588.c ****   /* tile_width = */ 16,
 169:/Users/imashio/Electronics/ARM/_Library/u8x8_d_st7588.c ****   /* tile_hight = */ 8,
 170:/Users/imashio/Electronics/ARM/_Library/u8x8_d_st7588.c ****   /* default_x_offset = */ 0,	/* must be 0, because this is checked also for normal mode */
 171:/Users/imashio/Electronics/ARM/_Library/u8x8_d_st7588.c ****   /* flipmode_x_offset = */ 4,		
 172:/Users/imashio/Electronics/ARM/_Library/u8x8_d_st7588.c ****   /* pixel_width = */ 128,
 173:/Users/imashio/Electronics/ARM/_Library/u8x8_d_st7588.c ****   /* pixel_height = */ 64
 174:/Users/imashio/Electronics/ARM/_Library/u8x8_d_st7588.c **** };
 175:/Users/imashio/Electronics/ARM/_Library/u8x8_d_st7588.c **** 
 176:/Users/imashio/Electronics/ARM/_Library/u8x8_d_st7588.c **** 
 177:/Users/imashio/Electronics/ARM/_Library/u8x8_d_st7588.c **** 
 178:/Users/imashio/Electronics/ARM/_Library/u8x8_d_st7588.c **** static const uint8_t u8x8_d_st7588_128x64_init_seq[] = {
 179:/Users/imashio/Electronics/ARM/_Library/u8x8_d_st7588.c ****     
 180:/Users/imashio/Electronics/ARM/_Library/u8x8_d_st7588.c ****   U8X8_START_TRANSFER(),             	/* enable chip, delay is part of the transfer start */
 181:/Users/imashio/Electronics/ARM/_Library/u8x8_d_st7588.c **** 
 182:/Users/imashio/Electronics/ARM/_Library/u8x8_d_st7588.c ****   U8X8_C( FS | 0x03 ),			/* select 11 commands */
 183:/Users/imashio/Electronics/ARM/_Library/u8x8_d_st7588.c ****   U8X8_C( 0x03 ),				/* software reset */
 184:/Users/imashio/Electronics/ARM/_Library/u8x8_d_st7588.c **** 
 185:/Users/imashio/Electronics/ARM/_Library/u8x8_d_st7588.c ****   U8X8_C( FS | 0x00 ),			/* select 00 commands */
 186:/Users/imashio/Electronics/ARM/_Library/u8x8_d_st7588.c ****   U8X8_C( 0x08 ),				/* display off */
 187:/Users/imashio/Electronics/ARM/_Library/u8x8_d_st7588.c ****   //U8X8_C( 0x0c ),				/* display on */
 188:/Users/imashio/Electronics/ARM/_Library/u8x8_d_st7588.c ****   
 189:/Users/imashio/Electronics/ARM/_Library/u8x8_d_st7588.c ****   U8X8_C( FS | 0x01 ),			/* select 01 commands */
 190:/Users/imashio/Electronics/ARM/_Library/u8x8_d_st7588.c ****   U8X8_C( 0x08 ),				/* display confguration */
 191:/Users/imashio/Electronics/ARM/_Library/u8x8_d_st7588.c ****   U8X8_C( 0x12 ),				/* bias 1/9 */
 192:/Users/imashio/Electronics/ARM/_Library/u8x8_d_st7588.c ****   U8X8_C( 0x8f ),				/* Vop, lower 7 bits */
 193:/Users/imashio/Electronics/ARM/_Library/u8x8_d_st7588.c ****   
 194:/Users/imashio/Electronics/ARM/_Library/u8x8_d_st7588.c ****   U8X8_C( FS | 0x00 ),			/* select 00 commands */
 195:/Users/imashio/Electronics/ARM/_Library/u8x8_d_st7588.c ****   U8X8_C( 0x05),				/* Bit 0 contains high/low range for Vop */
 196:/Users/imashio/Electronics/ARM/_Library/u8x8_d_st7588.c ****   
 197:/Users/imashio/Electronics/ARM/_Library/u8x8_d_st7588.c ****   
 198:/Users/imashio/Electronics/ARM/_Library/u8x8_d_st7588.c ****   U8X8_C( FS | 0x03 ),			/* select 11 commands */
 199:/Users/imashio/Electronics/ARM/_Library/u8x8_d_st7588.c ****   U8X8_C( 0x0b),				/* Frame Rate: 73 Hz */
 200:/Users/imashio/Electronics/ARM/_Library/u8x8_d_st7588.c ****   
 201:/Users/imashio/Electronics/ARM/_Library/u8x8_d_st7588.c ****   
ARM GAS  /var/folders/v3/wysfpd052nz8jkbx04pk0ym80000gn/T//cczwxW0F.s 			page 5


 202:/Users/imashio/Electronics/ARM/_Library/u8x8_d_st7588.c ****     
 203:/Users/imashio/Electronics/ARM/_Library/u8x8_d_st7588.c ****   U8X8_END_TRANSFER(),             	/* disable chip */
 204:/Users/imashio/Electronics/ARM/_Library/u8x8_d_st7588.c ****   U8X8_END()             			/* end of sequence */
 205:/Users/imashio/Electronics/ARM/_Library/u8x8_d_st7588.c **** };
 206:/Users/imashio/Electronics/ARM/_Library/u8x8_d_st7588.c **** 
 207:/Users/imashio/Electronics/ARM/_Library/u8x8_d_st7588.c **** 
 208:/Users/imashio/Electronics/ARM/_Library/u8x8_d_st7588.c **** static const uint8_t u8x8_d_st7588_jlx12864_flip0_seq[] = {
 209:/Users/imashio/Electronics/ARM/_Library/u8x8_d_st7588.c ****   U8X8_START_TRANSFER(),             	/* enable chip, delay is part of the transfer start */
 210:/Users/imashio/Electronics/ARM/_Library/u8x8_d_st7588.c ****   U8X8_C( FS ),					/* normal mode */
 211:/Users/imashio/Electronics/ARM/_Library/u8x8_d_st7588.c ****   U8X8_END_TRANSFER(),             	/* disable chip */
 212:/Users/imashio/Electronics/ARM/_Library/u8x8_d_st7588.c ****   U8X8_END()             			/* end of sequence */
 213:/Users/imashio/Electronics/ARM/_Library/u8x8_d_st7588.c **** };
 214:/Users/imashio/Electronics/ARM/_Library/u8x8_d_st7588.c **** 
 215:/Users/imashio/Electronics/ARM/_Library/u8x8_d_st7588.c **** static const uint8_t u8x8_d_st7588_jlx12864_flip1_seq[] = {
 216:/Users/imashio/Electronics/ARM/_Library/u8x8_d_st7588.c ****   U8X8_START_TRANSFER(),             	/* enable chip, delay is part of the transfer start */
 217:/Users/imashio/Electronics/ARM/_Library/u8x8_d_st7588.c ****   U8X8_C( FS ^ 0x018 ),					/* normal mode */
 218:/Users/imashio/Electronics/ARM/_Library/u8x8_d_st7588.c ****   U8X8_END_TRANSFER(),             	/* disable chip */
 219:/Users/imashio/Electronics/ARM/_Library/u8x8_d_st7588.c ****   U8X8_END()             			/* end of sequence */
 220:/Users/imashio/Electronics/ARM/_Library/u8x8_d_st7588.c **** };
 221:/Users/imashio/Electronics/ARM/_Library/u8x8_d_st7588.c **** 
 222:/Users/imashio/Electronics/ARM/_Library/u8x8_d_st7588.c **** 
 223:/Users/imashio/Electronics/ARM/_Library/u8x8_d_st7588.c **** uint8_t u8x8_d_st7588_jlx12864(u8x8_t *u8x8, uint8_t msg, uint8_t arg_int, void *arg_ptr)
 224:/Users/imashio/Electronics/ARM/_Library/u8x8_d_st7588.c **** {
  29              		.loc 1 224 0
  30              		.cfi_startproc
  31              		@ args = 0, pretend = 0, frame = 0
  32              		@ frame_needed = 0, uses_anonymous_args = 0
  33              	.LVL0:
  34              	.LBB4:
  35              	.LBB5:
  72:/Users/imashio/Electronics/ARM/_Library/u8x8_d_st7588.c ****   {
  36              		.loc 1 72 0
  37 0000 0E29     		cmp	r1, #14
  38              	.LBE5:
  39              	.LBE4:
  40              		.loc 1 224 0
  41 0002 F8B5     		push	{r3, r4, r5, r6, r7, lr}
  42              	.LCFI0:
  43              		.cfi_def_cfa_offset 24
  44              		.cfi_offset 3, -24
  45              		.cfi_offset 4, -20
  46              		.cfi_offset 5, -16
  47              		.cfi_offset 6, -12
  48              		.cfi_offset 7, -8
  49              		.cfi_offset 14, -4
  50              		.loc 1 224 0
  51 0004 1446     		mov	r4, r2
  52 0006 0546     		mov	r5, r0
  53              	.LVL1:
  54              	.LBB10:
  55              	.LBB6:
  72:/Users/imashio/Electronics/ARM/_Library/u8x8_d_st7588.c ****   {
  56              		.loc 1 72 0
  57 0008 4AD0     		beq	.L3
  58 000a 0F29     		cmp	r1, #15
  59 000c 19D0     		beq	.L4
  60 000e 0B29     		cmp	r1, #11
ARM GAS  /var/folders/v3/wysfpd052nz8jkbx04pk0ym80000gn/T//cczwxW0F.s 			page 6


  61 0010 09D0     		beq	.L5
  62              	.LVL2:
  63              	.LBE6:
  64              	.LBE10:
 225:/Users/imashio/Electronics/ARM/_Library/u8x8_d_st7588.c ****   if ( u8x8_d_st7588_128x64_generic(u8x8, msg, arg_int, arg_ptr) != 0 )
 226:/Users/imashio/Electronics/ARM/_Library/u8x8_d_st7588.c ****     return 1;
 227:/Users/imashio/Electronics/ARM/_Library/u8x8_d_st7588.c ****   if ( msg == U8X8_MSG_DISPLAY_SETUP_MEMORY )
  65              		.loc 1 227 0
  66 0012 0929     		cmp	r1, #9
  67 0014 00F08380 		beq	.L24
 228:/Users/imashio/Electronics/ARM/_Library/u8x8_d_st7588.c ****   {
 229:/Users/imashio/Electronics/ARM/_Library/u8x8_d_st7588.c ****     u8x8_SetI2CAddress(u8x8, 0x07e);		/* the JLX12864 has 0x07e as a default address for I2C */
 230:/Users/imashio/Electronics/ARM/_Library/u8x8_d_st7588.c ****     u8x8_d_helper_display_setup_memory(u8x8, &u8x8_st7588_128x64_display_info);
 231:/Users/imashio/Electronics/ARM/_Library/u8x8_d_st7588.c ****     return 1;
 232:/Users/imashio/Electronics/ARM/_Library/u8x8_d_st7588.c ****   }
 233:/Users/imashio/Electronics/ARM/_Library/u8x8_d_st7588.c ****   else if ( msg == U8X8_MSG_DISPLAY_INIT )
  68              		.loc 1 233 0
  69 0018 0A29     		cmp	r1, #10
  70 001a 00F08880 		beq	.L25
 234:/Users/imashio/Electronics/ARM/_Library/u8x8_d_st7588.c ****   {
 235:/Users/imashio/Electronics/ARM/_Library/u8x8_d_st7588.c ****     u8x8_d_helper_display_init(u8x8);
 236:/Users/imashio/Electronics/ARM/_Library/u8x8_d_st7588.c ****     u8x8_cad_SendSequence(u8x8, u8x8_d_st7588_128x64_init_seq);    
 237:/Users/imashio/Electronics/ARM/_Library/u8x8_d_st7588.c ****     return 1;
 238:/Users/imashio/Electronics/ARM/_Library/u8x8_d_st7588.c ****   }
 239:/Users/imashio/Electronics/ARM/_Library/u8x8_d_st7588.c ****   else if  ( msg == U8X8_MSG_DISPLAY_SET_FLIP_MODE )
  71              		.loc 1 239 0
  72 001e 0D29     		cmp	r1, #13
  73 0020 74D0     		beq	.L26
 240:/Users/imashio/Electronics/ARM/_Library/u8x8_d_st7588.c ****   {
 241:/Users/imashio/Electronics/ARM/_Library/u8x8_d_st7588.c ****     if ( arg_int == 0 )
 242:/Users/imashio/Electronics/ARM/_Library/u8x8_d_st7588.c ****     {
 243:/Users/imashio/Electronics/ARM/_Library/u8x8_d_st7588.c ****       u8x8_cad_SendSequence(u8x8, u8x8_d_st7588_jlx12864_flip0_seq);
 244:/Users/imashio/Electronics/ARM/_Library/u8x8_d_st7588.c ****       u8x8->x_offset = u8x8->display_info->default_x_offset;
 245:/Users/imashio/Electronics/ARM/_Library/u8x8_d_st7588.c ****     }
 246:/Users/imashio/Electronics/ARM/_Library/u8x8_d_st7588.c ****     else
 247:/Users/imashio/Electronics/ARM/_Library/u8x8_d_st7588.c ****     {
 248:/Users/imashio/Electronics/ARM/_Library/u8x8_d_st7588.c ****       u8x8_cad_SendSequence(u8x8, u8x8_d_st7588_jlx12864_flip1_seq);
 249:/Users/imashio/Electronics/ARM/_Library/u8x8_d_st7588.c ****       u8x8->x_offset = u8x8->display_info->flipmode_x_offset;
 250:/Users/imashio/Electronics/ARM/_Library/u8x8_d_st7588.c ****     }
 251:/Users/imashio/Electronics/ARM/_Library/u8x8_d_st7588.c ****     return 1;
 252:/Users/imashio/Electronics/ARM/_Library/u8x8_d_st7588.c ****   }
 253:/Users/imashio/Electronics/ARM/_Library/u8x8_d_st7588.c ****   return 0;
  74              		.loc 1 253 0
  75 0022 0020     		movs	r0, #0
  76              	.LVL3:
 254:/Users/imashio/Electronics/ARM/_Library/u8x8_d_st7588.c **** }
  77              		.loc 1 254 0
  78 0024 F8BD     		pop	{r3, r4, r5, r6, r7, pc}
  79              	.LVL4:
  80              	.L5:
  81              	.LBB11:
  82              	.LBB7:
  86:/Users/imashio/Electronics/ARM/_Library/u8x8_d_st7588.c **** 	u8x8_cad_SendSequence(u8x8, u8x8_d_st7588_128x64_powersave0_seq);
  83              		.loc 1 86 0
  84 0026 002A     		cmp	r2, #0
  85 0028 64D0     		beq	.L27
  89:/Users/imashio/Electronics/ARM/_Library/u8x8_d_st7588.c **** 
ARM GAS  /var/folders/v3/wysfpd052nz8jkbx04pk0ym80000gn/T//cczwxW0F.s 			page 7


  86              		.loc 1 89 0
  87 002a 4949     		ldr	r1, .L32
  88              	.LVL5:
  89 002c FFF7FEFF 		bl	u8x8_cad_SendSequence
  90              	.LVL6:
  92:/Users/imashio/Electronics/ARM/_Library/u8x8_d_st7588.c **** 	u8x8_cad_SendCmd(u8x8, FS );	/* select 00 commands */
  91              		.loc 1 92 0
  92 0030 AB7F     		ldrb	r3, [r5, #30]	@ zero_extendqisi2
  93:/Users/imashio/Electronics/ARM/_Library/u8x8_d_st7588.c ****       else
  93              		.loc 1 93 0
  94 0032 2846     		mov	r0, r5
  92:/Users/imashio/Electronics/ARM/_Library/u8x8_d_st7588.c **** 	u8x8_cad_SendCmd(u8x8, FS );	/* select 00 commands */
  95              		.loc 1 92 0
  96 0034 002B     		cmp	r3, #0
  97 0036 64D1     		bne	.L10
  98              	.LVL7:
  99              	.L30:
  93:/Users/imashio/Electronics/ARM/_Library/u8x8_d_st7588.c ****       else
 100              		.loc 1 93 0
 101 0038 2021     		movs	r1, #32
 102 003a FFF7FEFF 		bl	u8x8_cad_SendCmd
 103              	.LVL8:
 104              	.LBE7:
 105              	.LBE11:
 226:/Users/imashio/Electronics/ARM/_Library/u8x8_d_st7588.c ****   if ( msg == U8X8_MSG_DISPLAY_SETUP_MEMORY )
 106              		.loc 1 226 0
 107 003e 0120     		movs	r0, #1
 108              		.loc 1 254 0
 109 0040 F8BD     		pop	{r3, r4, r5, r6, r7, pc}
 110              	.LVL9:
 111              	.L4:
 112 0042 1E46     		mov	r6, r3
 113              	.LBB12:
 114              	.LBB8:
 118:/Users/imashio/Electronics/ARM/_Library/u8x8_d_st7588.c ****       x = ((u8x8_tile_t *)arg_ptr)->x_pos;    
 115              		.loc 1 118 0
 116 0044 FFF7FEFF 		bl	u8x8_cad_StartTransfer
 117              	.LVL10:
 119:/Users/imashio/Electronics/ARM/_Library/u8x8_d_st7588.c ****       x *= 8;
 118              		.loc 1 119 0
 119 0048 7779     		ldrb	r7, [r6, #5]	@ zero_extendqisi2
 120              	.LVL11:
 122:/Users/imashio/Electronics/ARM/_Library/u8x8_d_st7588.c ****     
 121              		.loc 1 122 0
 122 004a AB7F     		ldrb	r3, [r5, #30]	@ zero_extendqisi2
 123 004c 03EBC707 		add	r7, r3, r7, lsl #3
 124              	.LVL12:
 125 0050 07F0FF07 		and	r7, r7, #255
 126              	.LVL13:
 124:/Users/imashio/Electronics/ARM/_Library/u8x8_d_st7588.c **** 	u8x8_cad_SendCmd(u8x8, FS );	/* select 00 commands */
 127              		.loc 1 124 0
 128 0054 002B     		cmp	r3, #0
 129 0056 48D0     		beq	.L28
 127:/Users/imashio/Electronics/ARM/_Library/u8x8_d_st7588.c **** 	
 130              		.loc 1 127 0
 131 0058 3821     		movs	r1, #56
 132 005a 2846     		mov	r0, r5
ARM GAS  /var/folders/v3/wysfpd052nz8jkbx04pk0ym80000gn/T//cczwxW0F.s 			page 8


 133 005c FFF7FEFF 		bl	u8x8_cad_SendCmd
 134              	.LVL14:
 135              	.L15:
 129:/Users/imashio/Electronics/ARM/_Library/u8x8_d_st7588.c ****       u8x8_cad_SendCmd(u8x8, 0x0e0 | ((x&15)));
 136              		.loc 1 129 0
 137 0060 B179     		ldrb	r1, [r6, #6]	@ zero_extendqisi2
 138 0062 2846     		mov	r0, r5
 139 0064 41F04001 		orr	r1, r1, #64
 140 0068 FFF7FEFF 		bl	u8x8_cad_SendCmd
 141              	.LVL15:
 130:/Users/imashio/Electronics/ARM/_Library/u8x8_d_st7588.c ****       u8x8_cad_SendCmd(u8x8, 0x0f0 | (x>>4) );
 142              		.loc 1 130 0
 143 006c 07F00F01 		and	r1, r7, #15
 144 0070 41F0E001 		orr	r1, r1, #224
 145 0074 2846     		mov	r0, r5
 146 0076 FFF7FEFF 		bl	u8x8_cad_SendCmd
 147              	.LVL16:
 131:/Users/imashio/Electronics/ARM/_Library/u8x8_d_st7588.c ****     
 148              		.loc 1 131 0
 149 007a 3909     		lsrs	r1, r7, #4
 150 007c 41F0F001 		orr	r1, r1, #240
 151 0080 2846     		mov	r0, r5
 152 0082 FFF7FEFF 		bl	u8x8_cad_SendCmd
 153              	.LVL17:
 154              	.L16:
 138:/Users/imashio/Electronics/ARM/_Library/u8x8_d_st7588.c **** 	arg_int--;
 155              		.loc 1 138 0
 156 0086 3179     		ldrb	r1, [r6, #4]	@ zero_extendqisi2
 157 0088 3268     		ldr	r2, [r6]
 158 008a C900     		lsls	r1, r1, #3
 159 008c 01F0F801 		and	r1, r1, #248
 160 0090 2846     		mov	r0, r5
 139:/Users/imashio/Electronics/ARM/_Library/u8x8_d_st7588.c ****       } while( arg_int > 0 );
 161              		.loc 1 139 0
 162 0092 013C     		subs	r4, r4, #1
 163              	.LVL18:
 138:/Users/imashio/Electronics/ARM/_Library/u8x8_d_st7588.c **** 	arg_int--;
 164              		.loc 1 138 0
 165 0094 FFF7FEFF 		bl	u8x8_cad_SendData
 166              	.LVL19:
 140:/Users/imashio/Electronics/ARM/_Library/u8x8_d_st7588.c ****       
 167              		.loc 1 140 0
 168 0098 14F0FF04 		ands	r4, r4, #255
 169              	.LVL20:
 170 009c F3D1     		bne	.L16
 171 009e 1AE0     		b	.L13
 172              	.LVL21:
 173              	.L3:
 101:/Users/imashio/Electronics/ARM/_Library/u8x8_d_st7588.c ****       
 174              		.loc 1 101 0
 175 00a0 FFF7FEFF 		bl	u8x8_cad_StartTransfer
 176              	.LVL22:
 103:/Users/imashio/Electronics/ARM/_Library/u8x8_d_st7588.c ****       u8x8_cad_SendArg(u8x8, 4 | (arg_int>>7) );
 177              		.loc 1 103 0
 178 00a4 2021     		movs	r1, #32
 179 00a6 2846     		mov	r0, r5
 180 00a8 FFF7FEFF 		bl	u8x8_cad_SendCmd
ARM GAS  /var/folders/v3/wysfpd052nz8jkbx04pk0ym80000gn/T//cczwxW0F.s 			page 9


 181              	.LVL23:
 104:/Users/imashio/Electronics/ARM/_Library/u8x8_d_st7588.c ****       u8x8_cad_SendCmd(u8x8, FS | 1);
 182              		.loc 1 104 0
 183 00ac E109     		lsrs	r1, r4, #7
 184 00ae 41F00401 		orr	r1, r1, #4
 185 00b2 2846     		mov	r0, r5
 186 00b4 FFF7FEFF 		bl	u8x8_cad_SendArg
 187              	.LVL24:
 105:/Users/imashio/Electronics/ARM/_Library/u8x8_d_st7588.c ****       u8x8_cad_SendArg(u8x8, 0x080 | arg_int );
 188              		.loc 1 105 0
 189 00b8 2121     		movs	r1, #33
 190 00ba 2846     		mov	r0, r5
 191 00bc FFF7FEFF 		bl	u8x8_cad_SendCmd
 192              	.LVL25:
 106:/Users/imashio/Electronics/ARM/_Library/u8x8_d_st7588.c ****       
 193              		.loc 1 106 0
 194 00c0 44F08001 		orr	r1, r4, #128
 195 00c4 2846     		mov	r0, r5
 196 00c6 FFF7FEFF 		bl	u8x8_cad_SendArg
 197              	.LVL26:
 109:/Users/imashio/Electronics/ARM/_Library/u8x8_d_st7588.c **** 	u8x8_cad_SendCmd(u8x8, FS );	/* select 00 commands */
 198              		.loc 1 109 0
 199 00ca AB7F     		ldrb	r3, [r5, #30]	@ zero_extendqisi2
 200 00cc 43B1     		cbz	r3, .L29
 112:/Users/imashio/Electronics/ARM/_Library/u8x8_d_st7588.c ****       u8x8_cad_EndTransfer(u8x8);
 201              		.loc 1 112 0
 202 00ce 3821     		movs	r1, #56
 203 00d0 2846     		mov	r0, r5
 204 00d2 FFF7FEFF 		bl	u8x8_cad_SendCmd
 205              	.LVL27:
 206              	.L13:
 113:/Users/imashio/Electronics/ARM/_Library/u8x8_d_st7588.c ****       break;
 207              		.loc 1 113 0
 208 00d6 2846     		mov	r0, r5
 209 00d8 FFF7FEFF 		bl	u8x8_cad_EndTransfer
 210              	.LVL28:
 211              	.LBE8:
 212              	.LBE12:
 226:/Users/imashio/Electronics/ARM/_Library/u8x8_d_st7588.c ****   if ( msg == U8X8_MSG_DISPLAY_SETUP_MEMORY )
 213              		.loc 1 226 0
 214 00dc 0120     		movs	r0, #1
 215              		.loc 1 254 0
 216 00de F8BD     		pop	{r3, r4, r5, r6, r7, pc}
 217              	.LVL29:
 218              	.L29:
 219              	.LBB13:
 220              	.LBB9:
 110:/Users/imashio/Electronics/ARM/_Library/u8x8_d_st7588.c ****       else
 221              		.loc 1 110 0
 222 00e0 2021     		movs	r1, #32
 223 00e2 2846     		mov	r0, r5
 224 00e4 FFF7FEFF 		bl	u8x8_cad_SendCmd
 225              	.LVL30:
 226 00e8 F5E7     		b	.L13
 227              	.LVL31:
 228              	.L28:
 125:/Users/imashio/Electronics/ARM/_Library/u8x8_d_st7588.c ****       else
ARM GAS  /var/folders/v3/wysfpd052nz8jkbx04pk0ym80000gn/T//cczwxW0F.s 			page 10


 229              		.loc 1 125 0
 230 00ea 2021     		movs	r1, #32
 231 00ec 2846     		mov	r0, r5
 232 00ee FFF7FEFF 		bl	u8x8_cad_SendCmd
 233              	.LVL32:
 234 00f2 B5E7     		b	.L15
 235              	.LVL33:
 236              	.L27:
  87:/Users/imashio/Electronics/ARM/_Library/u8x8_d_st7588.c ****       else
 237              		.loc 1 87 0
 238 00f4 1749     		ldr	r1, .L32+4
 239              	.LVL34:
 240 00f6 FFF7FEFF 		bl	u8x8_cad_SendSequence
 241              	.LVL35:
  92:/Users/imashio/Electronics/ARM/_Library/u8x8_d_st7588.c **** 	u8x8_cad_SendCmd(u8x8, FS );	/* select 00 commands */
 242              		.loc 1 92 0
 243 00fa AB7F     		ldrb	r3, [r5, #30]	@ zero_extendqisi2
  93:/Users/imashio/Electronics/ARM/_Library/u8x8_d_st7588.c ****       else
 244              		.loc 1 93 0
 245 00fc 2846     		mov	r0, r5
  92:/Users/imashio/Electronics/ARM/_Library/u8x8_d_st7588.c **** 	u8x8_cad_SendCmd(u8x8, FS );	/* select 00 commands */
 246              		.loc 1 92 0
 247 00fe 002B     		cmp	r3, #0
 248 0100 9AD0     		beq	.L30
 249              	.LVL36:
 250              	.L10:
  95:/Users/imashio/Electronics/ARM/_Library/u8x8_d_st7588.c ****       
 251              		.loc 1 95 0
 252 0102 3821     		movs	r1, #56
 253 0104 FFF7FEFF 		bl	u8x8_cad_SendCmd
 254              	.LVL37:
 255              	.LBE9:
 256              	.LBE13:
 226:/Users/imashio/Electronics/ARM/_Library/u8x8_d_st7588.c ****   if ( msg == U8X8_MSG_DISPLAY_SETUP_MEMORY )
 257              		.loc 1 226 0
 258 0108 0120     		movs	r0, #1
 259              		.loc 1 254 0
 260 010a F8BD     		pop	{r3, r4, r5, r6, r7, pc}
 261              	.LVL38:
 262              	.L26:
 241:/Users/imashio/Electronics/ARM/_Library/u8x8_d_st7588.c ****     {
 263              		.loc 1 241 0
 264 010c BAB1     		cbz	r2, .L31
 248:/Users/imashio/Electronics/ARM/_Library/u8x8_d_st7588.c ****       u8x8->x_offset = u8x8->display_info->flipmode_x_offset;
 265              		.loc 1 248 0
 266 010e 1249     		ldr	r1, .L32+8
 267              	.LVL39:
 268 0110 FFF7FEFF 		bl	u8x8_cad_SendSequence
 269              	.LVL40:
 249:/Users/imashio/Electronics/ARM/_Library/u8x8_d_st7588.c ****     }
 270              		.loc 1 249 0
 271 0114 2B68     		ldr	r3, [r5]
 272 0116 DB7C     		ldrb	r3, [r3, #19]	@ zero_extendqisi2
 273 0118 AB77     		strb	r3, [r5, #30]
 251:/Users/imashio/Electronics/ARM/_Library/u8x8_d_st7588.c ****   }
 274              		.loc 1 251 0
 275 011a 0120     		movs	r0, #1
ARM GAS  /var/folders/v3/wysfpd052nz8jkbx04pk0ym80000gn/T//cczwxW0F.s 			page 11


 276              		.loc 1 254 0
 277 011c F8BD     		pop	{r3, r4, r5, r6, r7, pc}
 278              	.LVL41:
 279              	.L24:
 229:/Users/imashio/Electronics/ARM/_Library/u8x8_d_st7588.c ****     u8x8_d_helper_display_setup_memory(u8x8, &u8x8_st7588_128x64_display_info);
 280              		.loc 1 229 0
 281 011e 7E23     		movs	r3, #126
 282              	.LVL42:
 283 0120 80F82030 		strb	r3, [r0, #32]
 230:/Users/imashio/Electronics/ARM/_Library/u8x8_d_st7588.c ****     return 1;
 284              		.loc 1 230 0
 285 0124 0D49     		ldr	r1, .L32+12
 286              	.LVL43:
 287 0126 FFF7FEFF 		bl	u8x8_d_helper_display_setup_memory
 288              	.LVL44:
 231:/Users/imashio/Electronics/ARM/_Library/u8x8_d_st7588.c ****   }
 289              		.loc 1 231 0
 290 012a 0120     		movs	r0, #1
 291              		.loc 1 254 0
 292 012c F8BD     		pop	{r3, r4, r5, r6, r7, pc}
 293              	.LVL45:
 294              	.L25:
 235:/Users/imashio/Electronics/ARM/_Library/u8x8_d_st7588.c ****     u8x8_cad_SendSequence(u8x8, u8x8_d_st7588_128x64_init_seq);    
 295              		.loc 1 235 0
 296 012e FFF7FEFF 		bl	u8x8_d_helper_display_init
 297              	.LVL46:
 236:/Users/imashio/Electronics/ARM/_Library/u8x8_d_st7588.c ****     return 1;
 298              		.loc 1 236 0
 299 0132 2846     		mov	r0, r5
 300 0134 0A49     		ldr	r1, .L32+16
 301 0136 FFF7FEFF 		bl	u8x8_cad_SendSequence
 302              	.LVL47:
 237:/Users/imashio/Electronics/ARM/_Library/u8x8_d_st7588.c ****   }
 303              		.loc 1 237 0
 304 013a 0120     		movs	r0, #1
 305              		.loc 1 254 0
 306 013c F8BD     		pop	{r3, r4, r5, r6, r7, pc}
 307              	.LVL48:
 308              	.L31:
 243:/Users/imashio/Electronics/ARM/_Library/u8x8_d_st7588.c ****       u8x8->x_offset = u8x8->display_info->default_x_offset;
 309              		.loc 1 243 0
 310 013e 0949     		ldr	r1, .L32+20
 311              	.LVL49:
 312 0140 FFF7FEFF 		bl	u8x8_cad_SendSequence
 313              	.LVL50:
 244:/Users/imashio/Electronics/ARM/_Library/u8x8_d_st7588.c ****     }
 314              		.loc 1 244 0
 315 0144 2B68     		ldr	r3, [r5]
 316 0146 9B7C     		ldrb	r3, [r3, #18]	@ zero_extendqisi2
 317 0148 AB77     		strb	r3, [r5, #30]
 251:/Users/imashio/Electronics/ARM/_Library/u8x8_d_st7588.c ****   }
 318              		.loc 1 251 0
 319 014a 0120     		movs	r0, #1
 320              		.loc 1 254 0
 321 014c F8BD     		pop	{r3, r4, r5, r6, r7, pc}
 322              	.LVL51:
 323              	.L33:
ARM GAS  /var/folders/v3/wysfpd052nz8jkbx04pk0ym80000gn/T//cczwxW0F.s 			page 12


 324 014e 00BF     		.align	2
 325              	.L32:
 326 0150 00000000 		.word	.LANCHOR1
 327 0154 00000000 		.word	.LANCHOR0
 328 0158 00000000 		.word	.LANCHOR5
 329 015c 00000000 		.word	.LANCHOR2
 330 0160 00000000 		.word	.LANCHOR3
 331 0164 00000000 		.word	.LANCHOR4
 332              		.cfi_endproc
 333              	.LFE1:
 335              		.section	.rodata.u8x8_d_st7588_128x64_init_seq,"a",%progbits
 336              		.align	2
 337              		.set	.LANCHOR3,. + 0
 340              	u8x8_d_st7588_128x64_init_seq:
 341 0000 18       		.byte	24
 342 0001 15       		.byte	21
 343 0002 23       		.byte	35
 344 0003 15       		.byte	21
 345 0004 03       		.byte	3
 346 0005 15       		.byte	21
 347 0006 20       		.byte	32
 348 0007 15       		.byte	21
 349 0008 08       		.byte	8
 350 0009 15       		.byte	21
 351 000a 21       		.byte	33
 352 000b 15       		.byte	21
 353 000c 08       		.byte	8
 354 000d 15       		.byte	21
 355 000e 12       		.byte	18
 356 000f 15       		.byte	21
 357 0010 8F       		.byte	-113
 358 0011 15       		.byte	21
 359 0012 20       		.byte	32
 360 0013 15       		.byte	21
 361 0014 05       		.byte	5
 362 0015 15       		.byte	21
 363 0016 23       		.byte	35
 364 0017 15       		.byte	21
 365 0018 0B       		.byte	11
 366 0019 19       		.byte	25
 367 001a FF       		.byte	-1
 368              		.section	.rodata.u8x8_d_st7588_128x64_powersave0_seq,"a",%progbits
 369              		.align	2
 370              		.set	.LANCHOR0,. + 0
 373              	u8x8_d_st7588_128x64_powersave0_seq:
 374 0000 18       		.byte	24
 375 0001 15       		.byte	21
 376 0002 20       		.byte	32
 377 0003 15       		.byte	21
 378 0004 0C       		.byte	12
 379 0005 19       		.byte	25
 380 0006 FF       		.byte	-1
 381              		.section	.rodata.u8x8_d_st7588_128x64_powersave1_seq,"a",%progbits
 382              		.align	2
 383              		.set	.LANCHOR1,. + 0
 386              	u8x8_d_st7588_128x64_powersave1_seq:
 387 0000 18       		.byte	24
ARM GAS  /var/folders/v3/wysfpd052nz8jkbx04pk0ym80000gn/T//cczwxW0F.s 			page 13


 388 0001 15       		.byte	21
 389 0002 20       		.byte	32
 390 0003 15       		.byte	21
 391 0004 08       		.byte	8
 392 0005 19       		.byte	25
 393 0006 FF       		.byte	-1
 394              		.section	.rodata.u8x8_d_st7588_jlx12864_flip0_seq,"a",%progbits
 395              		.align	2
 396              		.set	.LANCHOR4,. + 0
 399              	u8x8_d_st7588_jlx12864_flip0_seq:
 400 0000 18       		.byte	24
 401 0001 15       		.byte	21
 402 0002 20       		.byte	32
 403 0003 19       		.byte	25
 404 0004 FF       		.byte	-1
 405              		.section	.rodata.u8x8_d_st7588_jlx12864_flip1_seq,"a",%progbits
 406              		.align	2
 407              		.set	.LANCHOR5,. + 0
 410              	u8x8_d_st7588_jlx12864_flip1_seq:
 411 0000 18       		.byte	24
 412 0001 15       		.byte	21
 413 0002 38       		.byte	56
 414 0003 19       		.byte	25
 415 0004 FF       		.byte	-1
 416              		.section	.rodata.u8x8_st7588_128x64_display_info,"a",%progbits
 417              		.align	2
 418              		.set	.LANCHOR2,. + 0
 421              	u8x8_st7588_128x64_display_info:
 422 0000 00       		.byte	0
 423 0001 01       		.byte	1
 424 0002 96       		.byte	-106
 425 0003 1E       		.byte	30
 426 0004 05       		.byte	5
 427 0005 05       		.byte	5
 428 0006 3C       		.byte	60
 429 0007 3C       		.byte	60
 430 0008 00093D00 		.word	4000000
 431 000c 00       		.byte	0
 432 000d 04       		.byte	4
 433 000e 50       		.byte	80
 434 000f 32       		.byte	50
 435 0010 10       		.byte	16
 436 0011 08       		.byte	8
 437 0012 00       		.byte	0
 438 0013 04       		.byte	4
 439 0014 8000     		.short	128
 440 0016 4000     		.short	64
 441              		.text
 442              	.Letext0:
 443              		.file 2 "/usr/local/gcc-arm-none-eabi-7-2018-q2-update/arm-none-eabi/include/machine/_default_type
 444              		.file 3 "/usr/local/gcc-arm-none-eabi-7-2018-q2-update/arm-none-eabi/include/sys/_stdint.h"
 445              		.file 4 "/Users/imashio/Electronics/ARM/_Library/u8x8.h"
ARM GAS  /var/folders/v3/wysfpd052nz8jkbx04pk0ym80000gn/T//cczwxW0F.s 			page 14


DEFINED SYMBOLS
                            *ABS*:0000000000000000 u8x8_d_st7588.c
/var/folders/v3/wysfpd052nz8jkbx04pk0ym80000gn/T//cczwxW0F.s:18     .text.u8x8_d_st7588_jlx12864:0000000000000000 $t
/var/folders/v3/wysfpd052nz8jkbx04pk0ym80000gn/T//cczwxW0F.s:26     .text.u8x8_d_st7588_jlx12864:0000000000000000 u8x8_d_st7588_jlx12864
/var/folders/v3/wysfpd052nz8jkbx04pk0ym80000gn/T//cczwxW0F.s:326    .text.u8x8_d_st7588_jlx12864:0000000000000150 $d
/var/folders/v3/wysfpd052nz8jkbx04pk0ym80000gn/T//cczwxW0F.s:336    .rodata.u8x8_d_st7588_128x64_init_seq:0000000000000000 $d
/var/folders/v3/wysfpd052nz8jkbx04pk0ym80000gn/T//cczwxW0F.s:340    .rodata.u8x8_d_st7588_128x64_init_seq:0000000000000000 u8x8_d_st7588_128x64_init_seq
/var/folders/v3/wysfpd052nz8jkbx04pk0ym80000gn/T//cczwxW0F.s:369    .rodata.u8x8_d_st7588_128x64_powersave0_seq:0000000000000000 $d
/var/folders/v3/wysfpd052nz8jkbx04pk0ym80000gn/T//cczwxW0F.s:373    .rodata.u8x8_d_st7588_128x64_powersave0_seq:0000000000000000 u8x8_d_st7588_128x64_powersave0_seq
/var/folders/v3/wysfpd052nz8jkbx04pk0ym80000gn/T//cczwxW0F.s:382    .rodata.u8x8_d_st7588_128x64_powersave1_seq:0000000000000000 $d
/var/folders/v3/wysfpd052nz8jkbx04pk0ym80000gn/T//cczwxW0F.s:386    .rodata.u8x8_d_st7588_128x64_powersave1_seq:0000000000000000 u8x8_d_st7588_128x64_powersave1_seq
/var/folders/v3/wysfpd052nz8jkbx04pk0ym80000gn/T//cczwxW0F.s:395    .rodata.u8x8_d_st7588_jlx12864_flip0_seq:0000000000000000 $d
/var/folders/v3/wysfpd052nz8jkbx04pk0ym80000gn/T//cczwxW0F.s:399    .rodata.u8x8_d_st7588_jlx12864_flip0_seq:0000000000000000 u8x8_d_st7588_jlx12864_flip0_seq
/var/folders/v3/wysfpd052nz8jkbx04pk0ym80000gn/T//cczwxW0F.s:406    .rodata.u8x8_d_st7588_jlx12864_flip1_seq:0000000000000000 $d
/var/folders/v3/wysfpd052nz8jkbx04pk0ym80000gn/T//cczwxW0F.s:410    .rodata.u8x8_d_st7588_jlx12864_flip1_seq:0000000000000000 u8x8_d_st7588_jlx12864_flip1_seq
/var/folders/v3/wysfpd052nz8jkbx04pk0ym80000gn/T//cczwxW0F.s:417    .rodata.u8x8_st7588_128x64_display_info:0000000000000000 $d
/var/folders/v3/wysfpd052nz8jkbx04pk0ym80000gn/T//cczwxW0F.s:421    .rodata.u8x8_st7588_128x64_display_info:0000000000000000 u8x8_st7588_128x64_display_info

UNDEFINED SYMBOLS
u8x8_cad_SendSequence
u8x8_cad_SendCmd
u8x8_cad_StartTransfer
u8x8_cad_SendData
u8x8_cad_SendArg
u8x8_cad_EndTransfer
u8x8_d_helper_display_setup_memory
u8x8_d_helper_display_init
