ARM GAS  /var/folders/v3/wysfpd052nz8jkbx04pk0ym80000gn/T//cciMXFmK.s 			page 1


   1              		.cpu cortex-m4
   2              		.eabi_attribute 27, 1
   3              		.eabi_attribute 28, 1
   4              		.eabi_attribute 20, 1
   5              		.eabi_attribute 21, 1
   6              		.eabi_attribute 23, 3
   7              		.eabi_attribute 24, 1
   8              		.eabi_attribute 25, 1
   9              		.eabi_attribute 26, 1
  10              		.eabi_attribute 30, 2
  11              		.eabi_attribute 34, 1
  12              		.eabi_attribute 18, 4
  13              		.file	"u8x8_d_ssd1306_64x32.c"
  14              		.text
  15              	.Ltext0:
  16              		.cfi_sections	.debug_frame
  17              		.section	.text.u8x8_d_ssd1306_64x32_generic,"ax",%progbits
  18              		.align	1
  19              		.p2align 2,,3
  20              		.syntax unified
  21              		.thumb
  22              		.thumb_func
  23              		.fpu fpv4-sp-d16
  25              	u8x8_d_ssd1306_64x32_generic:
  26              	.LFB0:
  27              		.file 1 "/Users/imashio/Electronics/ARM/_Library/u8x8_d_ssd1306_64x32.c"
   1:/Users/imashio/Electronics/ARM/_Library/u8x8_d_ssd1306_64x32.c **** /*
   2:/Users/imashio/Electronics/ARM/_Library/u8x8_d_ssd1306_64x32.c **** 
   3:/Users/imashio/Electronics/ARM/_Library/u8x8_d_ssd1306_64x32.c ****   u8x8_d_ssd1306_64x32.c
   4:/Users/imashio/Electronics/ARM/_Library/u8x8_d_ssd1306_64x32.c **** 
   5:/Users/imashio/Electronics/ARM/_Library/u8x8_d_ssd1306_64x32.c ****   Universal 8bit Graphics Library (https://github.com/olikraus/u8g2/)
   6:/Users/imashio/Electronics/ARM/_Library/u8x8_d_ssd1306_64x32.c **** 
   7:/Users/imashio/Electronics/ARM/_Library/u8x8_d_ssd1306_64x32.c ****   Copyright (c) 2016, olikraus@gmail.com
   8:/Users/imashio/Electronics/ARM/_Library/u8x8_d_ssd1306_64x32.c ****   All rights reserved.
   9:/Users/imashio/Electronics/ARM/_Library/u8x8_d_ssd1306_64x32.c **** 
  10:/Users/imashio/Electronics/ARM/_Library/u8x8_d_ssd1306_64x32.c ****   Redistribution and use in source and binary forms, with or without modification, 
  11:/Users/imashio/Electronics/ARM/_Library/u8x8_d_ssd1306_64x32.c ****   are permitted provided that the following conditions are met:
  12:/Users/imashio/Electronics/ARM/_Library/u8x8_d_ssd1306_64x32.c **** 
  13:/Users/imashio/Electronics/ARM/_Library/u8x8_d_ssd1306_64x32.c ****   * Redistributions of source code must retain the above copyright notice, this list 
  14:/Users/imashio/Electronics/ARM/_Library/u8x8_d_ssd1306_64x32.c ****     of conditions and the following disclaimer.
  15:/Users/imashio/Electronics/ARM/_Library/u8x8_d_ssd1306_64x32.c ****     
  16:/Users/imashio/Electronics/ARM/_Library/u8x8_d_ssd1306_64x32.c ****   * Redistributions in binary form must reproduce the above copyright notice, this 
  17:/Users/imashio/Electronics/ARM/_Library/u8x8_d_ssd1306_64x32.c ****     list of conditions and the following disclaimer in the documentation and/or other 
  18:/Users/imashio/Electronics/ARM/_Library/u8x8_d_ssd1306_64x32.c ****     materials provided with the distribution.
  19:/Users/imashio/Electronics/ARM/_Library/u8x8_d_ssd1306_64x32.c **** 
  20:/Users/imashio/Electronics/ARM/_Library/u8x8_d_ssd1306_64x32.c ****   THIS SOFTWARE IS PROVIDED BY THE COPYRIGHT HOLDERS AND 
  21:/Users/imashio/Electronics/ARM/_Library/u8x8_d_ssd1306_64x32.c ****   CONTRIBUTORS "AS IS" AND ANY EXPRESS OR IMPLIED WARRANTIES, 
  22:/Users/imashio/Electronics/ARM/_Library/u8x8_d_ssd1306_64x32.c ****   INCLUDING, BUT NOT LIMITED TO, THE IMPLIED WARRANTIES OF 
  23:/Users/imashio/Electronics/ARM/_Library/u8x8_d_ssd1306_64x32.c ****   MERCHANTABILITY AND FITNESS FOR A PARTICULAR PURPOSE ARE 
  24:/Users/imashio/Electronics/ARM/_Library/u8x8_d_ssd1306_64x32.c ****   DISCLAIMED. IN NO EVENT SHALL THE COPYRIGHT HOLDER OR 
  25:/Users/imashio/Electronics/ARM/_Library/u8x8_d_ssd1306_64x32.c ****   CONTRIBUTORS BE LIABLE FOR ANY DIRECT, INDIRECT, INCIDENTAL, 
  26:/Users/imashio/Electronics/ARM/_Library/u8x8_d_ssd1306_64x32.c ****   SPECIAL, EXEMPLARY, OR CONSEQUENTIAL DAMAGES (INCLUDING, BUT 
  27:/Users/imashio/Electronics/ARM/_Library/u8x8_d_ssd1306_64x32.c ****   NOT LIMITED TO, PROCUREMENT OF SUBSTITUTE GOODS OR SERVICES; 
  28:/Users/imashio/Electronics/ARM/_Library/u8x8_d_ssd1306_64x32.c ****   LOSS OF USE, DATA, OR PROFITS; OR BUSINESS INTERRUPTION) HOWEVER 
  29:/Users/imashio/Electronics/ARM/_Library/u8x8_d_ssd1306_64x32.c ****   CAUSED AND ON ANY THEORY OF LIABILITY, WHETHER IN CONTRACT, 
  30:/Users/imashio/Electronics/ARM/_Library/u8x8_d_ssd1306_64x32.c ****   STRICT LIABILITY, OR TORT (INCLUDING NEGLIGENCE OR OTHERWISE) 
  31:/Users/imashio/Electronics/ARM/_Library/u8x8_d_ssd1306_64x32.c ****   ARISING IN ANY WAY OUT OF THE USE OF THIS SOFTWARE, EVEN IF 
ARM GAS  /var/folders/v3/wysfpd052nz8jkbx04pk0ym80000gn/T//cciMXFmK.s 			page 2


  32:/Users/imashio/Electronics/ARM/_Library/u8x8_d_ssd1306_64x32.c ****   ADVISED OF THE POSSIBILITY OF SUCH DAMAGE.  
  33:/Users/imashio/Electronics/ARM/_Library/u8x8_d_ssd1306_64x32.c ****   
  34:/Users/imashio/Electronics/ARM/_Library/u8x8_d_ssd1306_64x32.c **** */
  35:/Users/imashio/Electronics/ARM/_Library/u8x8_d_ssd1306_64x32.c **** 
  36:/Users/imashio/Electronics/ARM/_Library/u8x8_d_ssd1306_64x32.c **** 
  37:/Users/imashio/Electronics/ARM/_Library/u8x8_d_ssd1306_64x32.c **** #include "u8x8.h"
  38:/Users/imashio/Electronics/ARM/_Library/u8x8_d_ssd1306_64x32.c **** 
  39:/Users/imashio/Electronics/ARM/_Library/u8x8_d_ssd1306_64x32.c **** 
  40:/Users/imashio/Electronics/ARM/_Library/u8x8_d_ssd1306_64x32.c **** 
  41:/Users/imashio/Electronics/ARM/_Library/u8x8_d_ssd1306_64x32.c **** 
  42:/Users/imashio/Electronics/ARM/_Library/u8x8_d_ssd1306_64x32.c **** static const uint8_t u8x8_d_ssd1306_64x32_powersave0_seq[] = {
  43:/Users/imashio/Electronics/ARM/_Library/u8x8_d_ssd1306_64x32.c ****   U8X8_START_TRANSFER(),             	/* enable chip, delay is part of the transfer start */
  44:/Users/imashio/Electronics/ARM/_Library/u8x8_d_ssd1306_64x32.c ****   U8X8_C(0x0af),		                /* display on */
  45:/Users/imashio/Electronics/ARM/_Library/u8x8_d_ssd1306_64x32.c ****   U8X8_END_TRANSFER(),             	/* disable chip */
  46:/Users/imashio/Electronics/ARM/_Library/u8x8_d_ssd1306_64x32.c ****   U8X8_END()             			/* end of sequence */
  47:/Users/imashio/Electronics/ARM/_Library/u8x8_d_ssd1306_64x32.c **** };
  48:/Users/imashio/Electronics/ARM/_Library/u8x8_d_ssd1306_64x32.c **** 
  49:/Users/imashio/Electronics/ARM/_Library/u8x8_d_ssd1306_64x32.c **** static const uint8_t u8x8_d_ssd1306_64x32_powersave1_seq[] = {
  50:/Users/imashio/Electronics/ARM/_Library/u8x8_d_ssd1306_64x32.c ****   U8X8_START_TRANSFER(),             	/* enable chip, delay is part of the transfer start */
  51:/Users/imashio/Electronics/ARM/_Library/u8x8_d_ssd1306_64x32.c ****   U8X8_C(0x0ae),		                /* display off */
  52:/Users/imashio/Electronics/ARM/_Library/u8x8_d_ssd1306_64x32.c ****   U8X8_END_TRANSFER(),             	/* disable chip */
  53:/Users/imashio/Electronics/ARM/_Library/u8x8_d_ssd1306_64x32.c ****   U8X8_END()             			/* end of sequence */
  54:/Users/imashio/Electronics/ARM/_Library/u8x8_d_ssd1306_64x32.c **** };
  55:/Users/imashio/Electronics/ARM/_Library/u8x8_d_ssd1306_64x32.c **** 
  56:/Users/imashio/Electronics/ARM/_Library/u8x8_d_ssd1306_64x32.c **** static const uint8_t u8x8_d_ssd1306_64x32_flip0_seq[] = {
  57:/Users/imashio/Electronics/ARM/_Library/u8x8_d_ssd1306_64x32.c ****   U8X8_START_TRANSFER(),             	/* enable chip, delay is part of the transfer start */
  58:/Users/imashio/Electronics/ARM/_Library/u8x8_d_ssd1306_64x32.c ****   U8X8_C(0x0a1),				/* segment remap a0/a1*/
  59:/Users/imashio/Electronics/ARM/_Library/u8x8_d_ssd1306_64x32.c ****   U8X8_C(0x0c8),				/* c0: scan dir normal, c8: reverse */
  60:/Users/imashio/Electronics/ARM/_Library/u8x8_d_ssd1306_64x32.c ****   U8X8_END_TRANSFER(),             	/* disable chip */
  61:/Users/imashio/Electronics/ARM/_Library/u8x8_d_ssd1306_64x32.c ****   U8X8_END()             			/* end of sequence */
  62:/Users/imashio/Electronics/ARM/_Library/u8x8_d_ssd1306_64x32.c **** };
  63:/Users/imashio/Electronics/ARM/_Library/u8x8_d_ssd1306_64x32.c **** 
  64:/Users/imashio/Electronics/ARM/_Library/u8x8_d_ssd1306_64x32.c **** static const uint8_t u8x8_d_ssd1306_64x32_flip1_seq[] = {
  65:/Users/imashio/Electronics/ARM/_Library/u8x8_d_ssd1306_64x32.c ****   U8X8_START_TRANSFER(),             	/* enable chip, delay is part of the transfer start */
  66:/Users/imashio/Electronics/ARM/_Library/u8x8_d_ssd1306_64x32.c ****   U8X8_C(0x0a0),				/* segment remap a0/a1*/
  67:/Users/imashio/Electronics/ARM/_Library/u8x8_d_ssd1306_64x32.c ****   U8X8_C(0x0c0),				/* c0: scan dir normal, c8: reverse */
  68:/Users/imashio/Electronics/ARM/_Library/u8x8_d_ssd1306_64x32.c ****   U8X8_END_TRANSFER(),             	/* disable chip */
  69:/Users/imashio/Electronics/ARM/_Library/u8x8_d_ssd1306_64x32.c ****   U8X8_END()             			/* end of sequence */
  70:/Users/imashio/Electronics/ARM/_Library/u8x8_d_ssd1306_64x32.c **** };
  71:/Users/imashio/Electronics/ARM/_Library/u8x8_d_ssd1306_64x32.c **** 
  72:/Users/imashio/Electronics/ARM/_Library/u8x8_d_ssd1306_64x32.c **** 
  73:/Users/imashio/Electronics/ARM/_Library/u8x8_d_ssd1306_64x32.c **** static uint8_t u8x8_d_ssd1306_64x32_generic(u8x8_t *u8x8, uint8_t msg, uint8_t arg_int, void *arg_p
  74:/Users/imashio/Electronics/ARM/_Library/u8x8_d_ssd1306_64x32.c **** {
  28              		.loc 1 74 0
  29              		.cfi_startproc
  30              		@ args = 0, pretend = 0, frame = 0
  31              		@ frame_needed = 0, uses_anonymous_args = 0
  32              	.LVL0:
  75:/Users/imashio/Electronics/ARM/_Library/u8x8_d_ssd1306_64x32.c ****   uint8_t x, c;
  76:/Users/imashio/Electronics/ARM/_Library/u8x8_d_ssd1306_64x32.c ****   uint8_t *ptr;
  77:/Users/imashio/Electronics/ARM/_Library/u8x8_d_ssd1306_64x32.c ****   switch(msg)
  33              		.loc 1 77 0
  34 0000 0B39     		subs	r1, r1, #11
  35              	.LVL1:
  74:/Users/imashio/Electronics/ARM/_Library/u8x8_d_ssd1306_64x32.c ****   uint8_t x, c;
  36              		.loc 1 74 0
  37 0002 F8B5     		push	{r3, r4, r5, r6, r7, lr}
ARM GAS  /var/folders/v3/wysfpd052nz8jkbx04pk0ym80000gn/T//cciMXFmK.s 			page 3


  38              	.LCFI0:
  39              		.cfi_def_cfa_offset 24
  40              		.cfi_offset 3, -24
  41              		.cfi_offset 4, -20
  42              		.cfi_offset 5, -16
  43              		.cfi_offset 6, -12
  44              		.cfi_offset 7, -8
  45              		.cfi_offset 14, -4
  74:/Users/imashio/Electronics/ARM/_Library/u8x8_d_ssd1306_64x32.c ****   uint8_t x, c;
  46              		.loc 1 74 0
  47 0004 0646     		mov	r6, r0
  48 0006 1446     		mov	r4, r2
  49 0008 1D46     		mov	r5, r3
  50              		.loc 1 77 0
  51 000a 0429     		cmp	r1, #4
  52 000c 4CD8     		bhi	.L11
  53 000e DFE801F0 		tbb	[pc, r1]
  54              	.LVL2:
  55              	.L4:
  56 0012 3C       		.byte	(.L3-.L4)/2
  57 0013 4B       		.byte	(.L11-.L4)/2
  58 0014 42       		.byte	(.L5-.L4)/2
  59 0015 2D       		.byte	(.L6-.L4)/2
  60 0016 03       		.byte	(.L7-.L4)/2
  61 0017 00       		.p2align 1
  62              	.L7:
  78:/Users/imashio/Electronics/ARM/_Library/u8x8_d_ssd1306_64x32.c ****   {
  79:/Users/imashio/Electronics/ARM/_Library/u8x8_d_ssd1306_64x32.c ****     /* handled by the calling function
  80:/Users/imashio/Electronics/ARM/_Library/u8x8_d_ssd1306_64x32.c ****     case U8X8_MSG_DISPLAY_SETUP_MEMORY:
  81:/Users/imashio/Electronics/ARM/_Library/u8x8_d_ssd1306_64x32.c ****       u8x8_d_helper_display_setup_memory(u8x8, &u8x8_ssd1306_64x32_display_info);
  82:/Users/imashio/Electronics/ARM/_Library/u8x8_d_ssd1306_64x32.c ****       break;
  83:/Users/imashio/Electronics/ARM/_Library/u8x8_d_ssd1306_64x32.c ****     case U8X8_MSG_DISPLAY_INIT:
  84:/Users/imashio/Electronics/ARM/_Library/u8x8_d_ssd1306_64x32.c ****       u8x8_d_helper_display_init(u8x8);
  85:/Users/imashio/Electronics/ARM/_Library/u8x8_d_ssd1306_64x32.c ****       u8x8_cad_SendSequence(u8x8, u8x8_d_ssd1306_64x32_noname_init_seq);    
  86:/Users/imashio/Electronics/ARM/_Library/u8x8_d_ssd1306_64x32.c ****       break;
  87:/Users/imashio/Electronics/ARM/_Library/u8x8_d_ssd1306_64x32.c ****     */
  88:/Users/imashio/Electronics/ARM/_Library/u8x8_d_ssd1306_64x32.c ****     case U8X8_MSG_DISPLAY_SET_POWER_SAVE:
  89:/Users/imashio/Electronics/ARM/_Library/u8x8_d_ssd1306_64x32.c ****       if ( arg_int == 0 )
  90:/Users/imashio/Electronics/ARM/_Library/u8x8_d_ssd1306_64x32.c **** 	u8x8_cad_SendSequence(u8x8, u8x8_d_ssd1306_64x32_powersave0_seq);
  91:/Users/imashio/Electronics/ARM/_Library/u8x8_d_ssd1306_64x32.c ****       else
  92:/Users/imashio/Electronics/ARM/_Library/u8x8_d_ssd1306_64x32.c **** 	u8x8_cad_SendSequence(u8x8, u8x8_d_ssd1306_64x32_powersave1_seq);
  93:/Users/imashio/Electronics/ARM/_Library/u8x8_d_ssd1306_64x32.c ****       break;
  94:/Users/imashio/Electronics/ARM/_Library/u8x8_d_ssd1306_64x32.c ****     case U8X8_MSG_DISPLAY_SET_FLIP_MODE:
  95:/Users/imashio/Electronics/ARM/_Library/u8x8_d_ssd1306_64x32.c ****       if ( arg_int == 0 )
  96:/Users/imashio/Electronics/ARM/_Library/u8x8_d_ssd1306_64x32.c ****       {
  97:/Users/imashio/Electronics/ARM/_Library/u8x8_d_ssd1306_64x32.c **** 	u8x8_cad_SendSequence(u8x8, u8x8_d_ssd1306_64x32_flip0_seq);
  98:/Users/imashio/Electronics/ARM/_Library/u8x8_d_ssd1306_64x32.c **** 	u8x8->x_offset = u8x8->display_info->default_x_offset;
  99:/Users/imashio/Electronics/ARM/_Library/u8x8_d_ssd1306_64x32.c ****       }
 100:/Users/imashio/Electronics/ARM/_Library/u8x8_d_ssd1306_64x32.c ****       else
 101:/Users/imashio/Electronics/ARM/_Library/u8x8_d_ssd1306_64x32.c ****       {
 102:/Users/imashio/Electronics/ARM/_Library/u8x8_d_ssd1306_64x32.c **** 	u8x8_cad_SendSequence(u8x8, u8x8_d_ssd1306_64x32_flip1_seq);
 103:/Users/imashio/Electronics/ARM/_Library/u8x8_d_ssd1306_64x32.c **** 	u8x8->x_offset = u8x8->display_info->flipmode_x_offset;
 104:/Users/imashio/Electronics/ARM/_Library/u8x8_d_ssd1306_64x32.c ****       }
 105:/Users/imashio/Electronics/ARM/_Library/u8x8_d_ssd1306_64x32.c ****       break;
 106:/Users/imashio/Electronics/ARM/_Library/u8x8_d_ssd1306_64x32.c **** #ifdef U8X8_WITH_SET_CONTRAST
 107:/Users/imashio/Electronics/ARM/_Library/u8x8_d_ssd1306_64x32.c ****     case U8X8_MSG_DISPLAY_SET_CONTRAST:
 108:/Users/imashio/Electronics/ARM/_Library/u8x8_d_ssd1306_64x32.c ****       u8x8_cad_StartTransfer(u8x8);
ARM GAS  /var/folders/v3/wysfpd052nz8jkbx04pk0ym80000gn/T//cciMXFmK.s 			page 4


 109:/Users/imashio/Electronics/ARM/_Library/u8x8_d_ssd1306_64x32.c ****       u8x8_cad_SendCmd(u8x8, 0x081 );
 110:/Users/imashio/Electronics/ARM/_Library/u8x8_d_ssd1306_64x32.c ****       u8x8_cad_SendArg(u8x8, arg_int );	/* ssd1306 has range from 0 to 255 */
 111:/Users/imashio/Electronics/ARM/_Library/u8x8_d_ssd1306_64x32.c ****       u8x8_cad_EndTransfer(u8x8);
 112:/Users/imashio/Electronics/ARM/_Library/u8x8_d_ssd1306_64x32.c ****       break;
 113:/Users/imashio/Electronics/ARM/_Library/u8x8_d_ssd1306_64x32.c **** #endif
 114:/Users/imashio/Electronics/ARM/_Library/u8x8_d_ssd1306_64x32.c ****     case U8X8_MSG_DISPLAY_DRAW_TILE:
 115:/Users/imashio/Electronics/ARM/_Library/u8x8_d_ssd1306_64x32.c ****       u8x8_cad_StartTransfer(u8x8);
  63              		.loc 1 115 0
  64 0018 FFF7FEFF 		bl	u8x8_cad_StartTransfer
  65              	.LVL3:
 116:/Users/imashio/Electronics/ARM/_Library/u8x8_d_ssd1306_64x32.c ****       x = ((u8x8_tile_t *)arg_ptr)->x_pos;    
  66              		.loc 1 116 0
  67 001c 6B79     		ldrb	r3, [r5, #5]	@ zero_extendqisi2
  68              	.LVL4:
 117:/Users/imashio/Electronics/ARM/_Library/u8x8_d_ssd1306_64x32.c ****       x *= 8;
 118:/Users/imashio/Electronics/ARM/_Library/u8x8_d_ssd1306_64x32.c ****       x += u8x8->x_offset;
  69              		.loc 1 118 0
  70 001e B77F     		ldrb	r7, [r6, #30]	@ zero_extendqisi2
  71 0020 07EBC307 		add	r7, r7, r3, lsl #3
  72 0024 07F0FF07 		and	r7, r7, #255
  73              	.LVL5:
 119:/Users/imashio/Electronics/ARM/_Library/u8x8_d_ssd1306_64x32.c ****       u8x8_cad_SendCmd(u8x8, 0x010 | (x>>4) );
  74              		.loc 1 119 0
  75 0028 3909     		lsrs	r1, r7, #4
  76 002a 41F01001 		orr	r1, r1, #16
  77 002e 3046     		mov	r0, r6
  78 0030 FFF7FEFF 		bl	u8x8_cad_SendCmd
  79              	.LVL6:
 120:/Users/imashio/Electronics/ARM/_Library/u8x8_d_ssd1306_64x32.c ****       u8x8_cad_SendCmd(u8x8, 0x000 | ((x&15)));
  80              		.loc 1 120 0
  81 0034 07F00F01 		and	r1, r7, #15
  82 0038 3046     		mov	r0, r6
  83 003a FFF7FEFF 		bl	u8x8_cad_SendCmd
  84              	.LVL7:
 121:/Users/imashio/Electronics/ARM/_Library/u8x8_d_ssd1306_64x32.c ****       u8x8_cad_SendCmd(u8x8, 0x0b0 | (((u8x8_tile_t *)arg_ptr)->y_pos));
  85              		.loc 1 121 0
  86 003e A979     		ldrb	r1, [r5, #6]	@ zero_extendqisi2
  87 0040 3046     		mov	r0, r6
  88 0042 41F0B001 		orr	r1, r1, #176
  89 0046 FFF7FEFF 		bl	u8x8_cad_SendCmd
  90              	.LVL8:
  91              	.L10:
 122:/Users/imashio/Electronics/ARM/_Library/u8x8_d_ssd1306_64x32.c ****       
 123:/Users/imashio/Electronics/ARM/_Library/u8x8_d_ssd1306_64x32.c ****       do
 124:/Users/imashio/Electronics/ARM/_Library/u8x8_d_ssd1306_64x32.c ****       {
 125:/Users/imashio/Electronics/ARM/_Library/u8x8_d_ssd1306_64x32.c **** 	c = ((u8x8_tile_t *)arg_ptr)->cnt;
 126:/Users/imashio/Electronics/ARM/_Library/u8x8_d_ssd1306_64x32.c **** 	ptr = ((u8x8_tile_t *)arg_ptr)->tile_ptr;
 127:/Users/imashio/Electronics/ARM/_Library/u8x8_d_ssd1306_64x32.c **** 	u8x8_cad_SendData(u8x8, c*8, ptr); 	/* note: SendData can not handle more than 255 bytes */
  92              		.loc 1 127 0 discriminator 1
  93 004a 2979     		ldrb	r1, [r5, #4]	@ zero_extendqisi2
  94 004c 2A68     		ldr	r2, [r5]
  95 004e C900     		lsls	r1, r1, #3
  96 0050 01F0F801 		and	r1, r1, #248
  97 0054 3046     		mov	r0, r6
 128:/Users/imashio/Electronics/ARM/_Library/u8x8_d_ssd1306_64x32.c **** 	arg_int--;
  98              		.loc 1 128 0 discriminator 1
  99 0056 013C     		subs	r4, r4, #1
ARM GAS  /var/folders/v3/wysfpd052nz8jkbx04pk0ym80000gn/T//cciMXFmK.s 			page 5


 100              	.LVL9:
 127:/Users/imashio/Electronics/ARM/_Library/u8x8_d_ssd1306_64x32.c **** 	arg_int--;
 101              		.loc 1 127 0 discriminator 1
 102 0058 FFF7FEFF 		bl	u8x8_cad_SendData
 103              	.LVL10:
 129:/Users/imashio/Electronics/ARM/_Library/u8x8_d_ssd1306_64x32.c ****       } while( arg_int > 0 );
 104              		.loc 1 129 0 discriminator 1
 105 005c 14F0FF04 		ands	r4, r4, #255
 106              	.LVL11:
 107 0060 F3D1     		bne	.L10
 130:/Users/imashio/Electronics/ARM/_Library/u8x8_d_ssd1306_64x32.c ****       
 131:/Users/imashio/Electronics/ARM/_Library/u8x8_d_ssd1306_64x32.c ****       u8x8_cad_EndTransfer(u8x8);
 108              		.loc 1 131 0
 109 0062 3046     		mov	r0, r6
 110 0064 FFF7FEFF 		bl	u8x8_cad_EndTransfer
 111              	.LVL12:
 132:/Users/imashio/Electronics/ARM/_Library/u8x8_d_ssd1306_64x32.c ****       break;
 133:/Users/imashio/Electronics/ARM/_Library/u8x8_d_ssd1306_64x32.c ****     default:
 134:/Users/imashio/Electronics/ARM/_Library/u8x8_d_ssd1306_64x32.c ****       return 0;
 135:/Users/imashio/Electronics/ARM/_Library/u8x8_d_ssd1306_64x32.c ****   }
 136:/Users/imashio/Electronics/ARM/_Library/u8x8_d_ssd1306_64x32.c ****   return 1;
 112              		.loc 1 136 0
 113 0068 0120     		movs	r0, #1
 137:/Users/imashio/Electronics/ARM/_Library/u8x8_d_ssd1306_64x32.c **** }
 114              		.loc 1 137 0
 115 006a F8BD     		pop	{r3, r4, r5, r6, r7, pc}
 116              	.LVL13:
 117              	.L6:
 108:/Users/imashio/Electronics/ARM/_Library/u8x8_d_ssd1306_64x32.c ****       u8x8_cad_SendCmd(u8x8, 0x081 );
 118              		.loc 1 108 0
 119 006c FFF7FEFF 		bl	u8x8_cad_StartTransfer
 120              	.LVL14:
 109:/Users/imashio/Electronics/ARM/_Library/u8x8_d_ssd1306_64x32.c ****       u8x8_cad_SendArg(u8x8, arg_int );	/* ssd1306 has range from 0 to 255 */
 121              		.loc 1 109 0
 122 0070 8121     		movs	r1, #129
 123 0072 3046     		mov	r0, r6
 124 0074 FFF7FEFF 		bl	u8x8_cad_SendCmd
 125              	.LVL15:
 110:/Users/imashio/Electronics/ARM/_Library/u8x8_d_ssd1306_64x32.c ****       u8x8_cad_EndTransfer(u8x8);
 126              		.loc 1 110 0
 127 0078 2146     		mov	r1, r4
 128 007a 3046     		mov	r0, r6
 129 007c FFF7FEFF 		bl	u8x8_cad_SendArg
 130              	.LVL16:
 111:/Users/imashio/Electronics/ARM/_Library/u8x8_d_ssd1306_64x32.c ****       break;
 131              		.loc 1 111 0
 132 0080 3046     		mov	r0, r6
 133 0082 FFF7FEFF 		bl	u8x8_cad_EndTransfer
 134              	.LVL17:
 136:/Users/imashio/Electronics/ARM/_Library/u8x8_d_ssd1306_64x32.c **** }
 135              		.loc 1 136 0
 136 0086 0120     		movs	r0, #1
 137              		.loc 1 137 0
 138 0088 F8BD     		pop	{r3, r4, r5, r6, r7, pc}
 139              	.LVL18:
 140              	.L3:
  89:/Users/imashio/Electronics/ARM/_Library/u8x8_d_ssd1306_64x32.c **** 	u8x8_cad_SendSequence(u8x8, u8x8_d_ssd1306_64x32_powersave0_seq);
ARM GAS  /var/folders/v3/wysfpd052nz8jkbx04pk0ym80000gn/T//cciMXFmK.s 			page 6


 141              		.loc 1 89 0
 142 008a BAB9     		cbnz	r2, .L8
  90:/Users/imashio/Electronics/ARM/_Library/u8x8_d_ssd1306_64x32.c ****       else
 143              		.loc 1 90 0
 144 008c 0E49     		ldr	r1, .L15
 145 008e FFF7FEFF 		bl	u8x8_cad_SendSequence
 146              	.LVL19:
 136:/Users/imashio/Electronics/ARM/_Library/u8x8_d_ssd1306_64x32.c **** }
 147              		.loc 1 136 0
 148 0092 0120     		movs	r0, #1
 149              		.loc 1 137 0
 150 0094 F8BD     		pop	{r3, r4, r5, r6, r7, pc}
 151              	.LVL20:
 152              	.L5:
  95:/Users/imashio/Electronics/ARM/_Library/u8x8_d_ssd1306_64x32.c ****       {
 153              		.loc 1 95 0
 154 0096 4AB9     		cbnz	r2, .L9
  97:/Users/imashio/Electronics/ARM/_Library/u8x8_d_ssd1306_64x32.c **** 	u8x8->x_offset = u8x8->display_info->default_x_offset;
 155              		.loc 1 97 0
 156 0098 0C49     		ldr	r1, .L15+4
 157 009a FFF7FEFF 		bl	u8x8_cad_SendSequence
 158              	.LVL21:
  98:/Users/imashio/Electronics/ARM/_Library/u8x8_d_ssd1306_64x32.c ****       }
 159              		.loc 1 98 0
 160 009e 3368     		ldr	r3, [r6]
 161 00a0 9B7C     		ldrb	r3, [r3, #18]	@ zero_extendqisi2
 162 00a2 B377     		strb	r3, [r6, #30]
 136:/Users/imashio/Electronics/ARM/_Library/u8x8_d_ssd1306_64x32.c **** }
 163              		.loc 1 136 0
 164 00a4 0120     		movs	r0, #1
 165              		.loc 1 137 0
 166 00a6 F8BD     		pop	{r3, r4, r5, r6, r7, pc}
 167              	.LVL22:
 168              	.L11:
 134:/Users/imashio/Electronics/ARM/_Library/u8x8_d_ssd1306_64x32.c ****   }
 169              		.loc 1 134 0
 170 00a8 0020     		movs	r0, #0
 171              	.LVL23:
 172              		.loc 1 137 0
 173 00aa F8BD     		pop	{r3, r4, r5, r6, r7, pc}
 174              	.LVL24:
 175              	.L9:
 102:/Users/imashio/Electronics/ARM/_Library/u8x8_d_ssd1306_64x32.c **** 	u8x8->x_offset = u8x8->display_info->flipmode_x_offset;
 176              		.loc 1 102 0
 177 00ac 0849     		ldr	r1, .L15+8
 178 00ae FFF7FEFF 		bl	u8x8_cad_SendSequence
 179              	.LVL25:
 103:/Users/imashio/Electronics/ARM/_Library/u8x8_d_ssd1306_64x32.c ****       }
 180              		.loc 1 103 0
 181 00b2 3368     		ldr	r3, [r6]
 182 00b4 DB7C     		ldrb	r3, [r3, #19]	@ zero_extendqisi2
 183 00b6 B377     		strb	r3, [r6, #30]
 136:/Users/imashio/Electronics/ARM/_Library/u8x8_d_ssd1306_64x32.c **** }
 184              		.loc 1 136 0
 185 00b8 0120     		movs	r0, #1
 186              		.loc 1 137 0
 187 00ba F8BD     		pop	{r3, r4, r5, r6, r7, pc}
ARM GAS  /var/folders/v3/wysfpd052nz8jkbx04pk0ym80000gn/T//cciMXFmK.s 			page 7


 188              	.LVL26:
 189              	.L8:
  92:/Users/imashio/Electronics/ARM/_Library/u8x8_d_ssd1306_64x32.c ****       break;
 190              		.loc 1 92 0
 191 00bc 0549     		ldr	r1, .L15+12
 192 00be FFF7FEFF 		bl	u8x8_cad_SendSequence
 193              	.LVL27:
 136:/Users/imashio/Electronics/ARM/_Library/u8x8_d_ssd1306_64x32.c **** }
 194              		.loc 1 136 0
 195 00c2 0120     		movs	r0, #1
 196              		.loc 1 137 0
 197 00c4 F8BD     		pop	{r3, r4, r5, r6, r7, pc}
 198              	.LVL28:
 199              	.L16:
 200 00c6 00BF     		.align	2
 201              	.L15:
 202 00c8 00000000 		.word	.LANCHOR0
 203 00cc 00000000 		.word	.LANCHOR2
 204 00d0 00000000 		.word	.LANCHOR3
 205 00d4 00000000 		.word	.LANCHOR1
 206              		.cfi_endproc
 207              	.LFE0:
 209              		.section	.text.u8x8_d_ssd1306_64x32_noname,"ax",%progbits
 210              		.align	1
 211              		.p2align 2,,3
 212              		.global	u8x8_d_ssd1306_64x32_noname
 213              		.syntax unified
 214              		.thumb
 215              		.thumb_func
 216              		.fpu fpv4-sp-d16
 218              	u8x8_d_ssd1306_64x32_noname:
 219              	.LFB1:
 138:/Users/imashio/Electronics/ARM/_Library/u8x8_d_ssd1306_64x32.c **** 
 139:/Users/imashio/Electronics/ARM/_Library/u8x8_d_ssd1306_64x32.c **** /*======================================================*/
 140:/Users/imashio/Electronics/ARM/_Library/u8x8_d_ssd1306_64x32.c **** 
 141:/Users/imashio/Electronics/ARM/_Library/u8x8_d_ssd1306_64x32.c **** static const u8x8_display_info_t u8x8_ssd1306_64x32_display_info =
 142:/Users/imashio/Electronics/ARM/_Library/u8x8_d_ssd1306_64x32.c **** {
 143:/Users/imashio/Electronics/ARM/_Library/u8x8_d_ssd1306_64x32.c ****   /* chip_enable_level = */ 0,
 144:/Users/imashio/Electronics/ARM/_Library/u8x8_d_ssd1306_64x32.c ****   /* chip_disable_level = */ 1,
 145:/Users/imashio/Electronics/ARM/_Library/u8x8_d_ssd1306_64x32.c ****   
 146:/Users/imashio/Electronics/ARM/_Library/u8x8_d_ssd1306_64x32.c ****   /* post_chip_enable_wait_ns = */ 20,
 147:/Users/imashio/Electronics/ARM/_Library/u8x8_d_ssd1306_64x32.c ****   /* pre_chip_disable_wait_ns = */ 10,
 148:/Users/imashio/Electronics/ARM/_Library/u8x8_d_ssd1306_64x32.c ****   /* reset_pulse_width_ms = */ 100, 	/* SSD1306: 3 us */
 149:/Users/imashio/Electronics/ARM/_Library/u8x8_d_ssd1306_64x32.c ****   /* post_reset_wait_ms = */ 100, /* far east OLEDs need much longer setup time */
 150:/Users/imashio/Electronics/ARM/_Library/u8x8_d_ssd1306_64x32.c ****   /* sda_setup_time_ns = */ 50,		/* SSD1306: 15ns, but cycle time is 100ns, so use 100/2 */
 151:/Users/imashio/Electronics/ARM/_Library/u8x8_d_ssd1306_64x32.c ****   /* sck_pulse_width_ns = */ 50,	/* SSD1306: 20ns, but cycle time is 100ns, so use 100/2, AVR: belo
 152:/Users/imashio/Electronics/ARM/_Library/u8x8_d_ssd1306_64x32.c ****   /* sck_clock_hz = */ 8000000UL,	/* since Arduino 1.6.0, the SPI bus speed in Hz. Should be  10000
 153:/Users/imashio/Electronics/ARM/_Library/u8x8_d_ssd1306_64x32.c ****   /* spi_mode = */ 0,		/* active high, rising edge */
 154:/Users/imashio/Electronics/ARM/_Library/u8x8_d_ssd1306_64x32.c ****   /* i2c_bus_clock_100kHz = */ 4,
 155:/Users/imashio/Electronics/ARM/_Library/u8x8_d_ssd1306_64x32.c ****   /* data_setup_time_ns = */ 40,
 156:/Users/imashio/Electronics/ARM/_Library/u8x8_d_ssd1306_64x32.c ****   /* write_pulse_width_ns = */ 150,	/* SSD1306: cycle time is 300ns, so use 300/2 = 150 */
 157:/Users/imashio/Electronics/ARM/_Library/u8x8_d_ssd1306_64x32.c ****   /* tile_width = */ 8,
 158:/Users/imashio/Electronics/ARM/_Library/u8x8_d_ssd1306_64x32.c ****   /* tile_hight = */ 4,
 159:/Users/imashio/Electronics/ARM/_Library/u8x8_d_ssd1306_64x32.c ****   /* default_x_offset = */ 32,
 160:/Users/imashio/Electronics/ARM/_Library/u8x8_d_ssd1306_64x32.c ****   /* flipmode_x_offset = */ 32,
 161:/Users/imashio/Electronics/ARM/_Library/u8x8_d_ssd1306_64x32.c ****   /* pixel_width = */ 64,
 162:/Users/imashio/Electronics/ARM/_Library/u8x8_d_ssd1306_64x32.c ****   /* pixel_height = */ 32
ARM GAS  /var/folders/v3/wysfpd052nz8jkbx04pk0ym80000gn/T//cciMXFmK.s 			page 8


 163:/Users/imashio/Electronics/ARM/_Library/u8x8_d_ssd1306_64x32.c **** };
 164:/Users/imashio/Electronics/ARM/_Library/u8x8_d_ssd1306_64x32.c **** 
 165:/Users/imashio/Electronics/ARM/_Library/u8x8_d_ssd1306_64x32.c **** 
 166:/Users/imashio/Electronics/ARM/_Library/u8x8_d_ssd1306_64x32.c **** /*======================================================*/
 167:/Users/imashio/Electronics/ARM/_Library/u8x8_d_ssd1306_64x32.c **** 
 168:/Users/imashio/Electronics/ARM/_Library/u8x8_d_ssd1306_64x32.c **** static const uint8_t u8x8_d_ssd1306_64x32_noname_init_seq[] = {
 169:/Users/imashio/Electronics/ARM/_Library/u8x8_d_ssd1306_64x32.c ****   U8X8_START_TRANSFER(),             	/* enable chip, delay is part of the transfer start */
 170:/Users/imashio/Electronics/ARM/_Library/u8x8_d_ssd1306_64x32.c **** 
 171:/Users/imashio/Electronics/ARM/_Library/u8x8_d_ssd1306_64x32.c ****   U8X8_C(0x0ae),		                /* display off */
 172:/Users/imashio/Electronics/ARM/_Library/u8x8_d_ssd1306_64x32.c ****   U8X8_CA(0x0d5, 0x080),		/* clock divide ratio (0x00=1) and oscillator frequency (0x8) */
 173:/Users/imashio/Electronics/ARM/_Library/u8x8_d_ssd1306_64x32.c ****   U8X8_CA(0x0a8, 0x02f),		/* multiplex ratio: changed from 0x1f to 0x2f */
 174:/Users/imashio/Electronics/ARM/_Library/u8x8_d_ssd1306_64x32.c ****   U8X8_CA(0x0d3, 0x000),		/* display offset */
 175:/Users/imashio/Electronics/ARM/_Library/u8x8_d_ssd1306_64x32.c ****   U8X8_C(0x040),		                /* set display start line to 0 */
 176:/Users/imashio/Electronics/ARM/_Library/u8x8_d_ssd1306_64x32.c ****   U8X8_CA(0x08d, 0x014),		/* [2] charge pump setting (p62): 0x014 enable, 0x010 disable */
 177:/Users/imashio/Electronics/ARM/_Library/u8x8_d_ssd1306_64x32.c ****   U8X8_CA(0x020, 0x000),		/* page addressing mode */
 178:/Users/imashio/Electronics/ARM/_Library/u8x8_d_ssd1306_64x32.c ****   
 179:/Users/imashio/Electronics/ARM/_Library/u8x8_d_ssd1306_64x32.c ****   U8X8_C(0x0a1),				/* segment remap a0/a1 */
 180:/Users/imashio/Electronics/ARM/_Library/u8x8_d_ssd1306_64x32.c ****   U8X8_C(0x0c8),				/* c0: scan dir normal, c8: reverse */
 181:/Users/imashio/Electronics/ARM/_Library/u8x8_d_ssd1306_64x32.c ****   // Flipmode
 182:/Users/imashio/Electronics/ARM/_Library/u8x8_d_ssd1306_64x32.c ****   // U8X8_C(0x0a0),				/* segment remap a0/a1*/
 183:/Users/imashio/Electronics/ARM/_Library/u8x8_d_ssd1306_64x32.c ****   // U8X8_C(0x0c0),				/* c0: scan dir normal, c8: reverse */
 184:/Users/imashio/Electronics/ARM/_Library/u8x8_d_ssd1306_64x32.c ****   
 185:/Users/imashio/Electronics/ARM/_Library/u8x8_d_ssd1306_64x32.c ****   U8X8_CA(0x0da, 0x012),		/* com pin HW config, sequential com pin config (bit 4), disable left/rig
 186:/Users/imashio/Electronics/ARM/_Library/u8x8_d_ssd1306_64x32.c ****   U8X8_CA(0x081, 0x0cf),		/* [2] set contrast control datasheet: 0xcf */
 187:/Users/imashio/Electronics/ARM/_Library/u8x8_d_ssd1306_64x32.c ****   U8X8_CA(0x0d9, 0x022),		/* [2] pre-charge period 0x022/f1 */
 188:/Users/imashio/Electronics/ARM/_Library/u8x8_d_ssd1306_64x32.c ****   U8X8_CA(0x0db, 0x000),		/* vcomh deselect level */
 189:/Users/imashio/Electronics/ARM/_Library/u8x8_d_ssd1306_64x32.c ****   
 190:/Users/imashio/Electronics/ARM/_Library/u8x8_d_ssd1306_64x32.c ****   U8X8_C(0x02e),				/* Deactivate scroll */ 
 191:/Users/imashio/Electronics/ARM/_Library/u8x8_d_ssd1306_64x32.c ****   U8X8_C(0x0a4),				/* output ram to display */
 192:/Users/imashio/Electronics/ARM/_Library/u8x8_d_ssd1306_64x32.c ****   U8X8_C(0x0a6),				/* none inverted normal display mode */
 193:/Users/imashio/Electronics/ARM/_Library/u8x8_d_ssd1306_64x32.c ****     
 194:/Users/imashio/Electronics/ARM/_Library/u8x8_d_ssd1306_64x32.c ****   U8X8_END_TRANSFER(),             	/* disable chip */
 195:/Users/imashio/Electronics/ARM/_Library/u8x8_d_ssd1306_64x32.c ****   U8X8_END()             			/* end of sequence */
 196:/Users/imashio/Electronics/ARM/_Library/u8x8_d_ssd1306_64x32.c **** };
 197:/Users/imashio/Electronics/ARM/_Library/u8x8_d_ssd1306_64x32.c **** 
 198:/Users/imashio/Electronics/ARM/_Library/u8x8_d_ssd1306_64x32.c **** uint8_t u8x8_d_ssd1306_64x32_noname(u8x8_t *u8x8, uint8_t msg, uint8_t arg_int, void *arg_ptr)
 199:/Users/imashio/Electronics/ARM/_Library/u8x8_d_ssd1306_64x32.c **** {
 220              		.loc 1 199 0
 221              		.cfi_startproc
 222              		@ args = 0, pretend = 0, frame = 0
 223              		@ frame_needed = 0, uses_anonymous_args = 0
 224              	.LVL29:
 200:/Users/imashio/Electronics/ARM/_Library/u8x8_d_ssd1306_64x32.c ****     if ( msg == U8X8_MSG_DISPLAY_SETUP_MEMORY )
 225              		.loc 1 200 0
 226 0000 0929     		cmp	r1, #9
 199:/Users/imashio/Electronics/ARM/_Library/u8x8_d_ssd1306_64x32.c ****     if ( msg == U8X8_MSG_DISPLAY_SETUP_MEMORY )
 227              		.loc 1 199 0
 228 0002 70B5     		push	{r4, r5, r6, lr}
 229              	.LCFI1:
 230              		.cfi_def_cfa_offset 16
 231              		.cfi_offset 4, -16
 232              		.cfi_offset 5, -12
 233              		.cfi_offset 6, -8
 234              		.cfi_offset 14, -4
 235              		.loc 1 200 0
 236 0004 0ED0     		beq	.L22
 201:/Users/imashio/Electronics/ARM/_Library/u8x8_d_ssd1306_64x32.c ****     {
ARM GAS  /var/folders/v3/wysfpd052nz8jkbx04pk0ym80000gn/T//cciMXFmK.s 			page 9


 202:/Users/imashio/Electronics/ARM/_Library/u8x8_d_ssd1306_64x32.c ****       u8x8_d_helper_display_setup_memory(u8x8, &u8x8_ssd1306_64x32_display_info);
 203:/Users/imashio/Electronics/ARM/_Library/u8x8_d_ssd1306_64x32.c ****       return 1;
 204:/Users/imashio/Electronics/ARM/_Library/u8x8_d_ssd1306_64x32.c ****     }
 205:/Users/imashio/Electronics/ARM/_Library/u8x8_d_ssd1306_64x32.c ****     else if ( msg == U8X8_MSG_DISPLAY_INIT )
 237              		.loc 1 205 0
 238 0006 0A29     		cmp	r1, #10
 239 0008 03D0     		beq	.L23
 206:/Users/imashio/Electronics/ARM/_Library/u8x8_d_ssd1306_64x32.c ****     {
 207:/Users/imashio/Electronics/ARM/_Library/u8x8_d_ssd1306_64x32.c ****       u8x8_d_helper_display_init(u8x8);
 208:/Users/imashio/Electronics/ARM/_Library/u8x8_d_ssd1306_64x32.c ****       u8x8_cad_SendSequence(u8x8, u8x8_d_ssd1306_64x32_noname_init_seq);    
 209:/Users/imashio/Electronics/ARM/_Library/u8x8_d_ssd1306_64x32.c ****       return 1;
 210:/Users/imashio/Electronics/ARM/_Library/u8x8_d_ssd1306_64x32.c ****     }
 211:/Users/imashio/Electronics/ARM/_Library/u8x8_d_ssd1306_64x32.c ****     return u8x8_d_ssd1306_64x32_generic(u8x8, msg, arg_int, arg_ptr);
 212:/Users/imashio/Electronics/ARM/_Library/u8x8_d_ssd1306_64x32.c **** }
 240              		.loc 1 212 0
 241 000a BDE87040 		pop	{r4, r5, r6, lr}
 242              	.LCFI2:
 243              		.cfi_remember_state
 244              		.cfi_restore 14
 245              		.cfi_restore 6
 246              		.cfi_restore 5
 247              		.cfi_restore 4
 248              		.cfi_def_cfa_offset 0
 211:/Users/imashio/Electronics/ARM/_Library/u8x8_d_ssd1306_64x32.c **** }
 249              		.loc 1 211 0
 250 000e FFF7FEBF 		b	u8x8_d_ssd1306_64x32_generic
 251              	.LVL30:
 252              	.L23:
 253              	.LCFI3:
 254              		.cfi_restore_state
 255 0012 0546     		mov	r5, r0
 207:/Users/imashio/Electronics/ARM/_Library/u8x8_d_ssd1306_64x32.c ****       u8x8_cad_SendSequence(u8x8, u8x8_d_ssd1306_64x32_noname_init_seq);    
 256              		.loc 1 207 0
 257 0014 FFF7FEFF 		bl	u8x8_d_helper_display_init
 258              	.LVL31:
 208:/Users/imashio/Electronics/ARM/_Library/u8x8_d_ssd1306_64x32.c ****       return 1;
 259              		.loc 1 208 0
 260 0018 2846     		mov	r0, r5
 261 001a 0549     		ldr	r1, .L24
 262 001c FFF7FEFF 		bl	u8x8_cad_SendSequence
 263              	.LVL32:
 264              		.loc 1 212 0
 265 0020 0120     		movs	r0, #1
 266 0022 70BD     		pop	{r4, r5, r6, pc}
 267              	.LVL33:
 268              	.L22:
 202:/Users/imashio/Electronics/ARM/_Library/u8x8_d_ssd1306_64x32.c ****       return 1;
 269              		.loc 1 202 0
 270 0024 0349     		ldr	r1, .L24+4
 271              	.LVL34:
 272 0026 FFF7FEFF 		bl	u8x8_d_helper_display_setup_memory
 273              	.LVL35:
 274              		.loc 1 212 0
 275 002a 0120     		movs	r0, #1
 276 002c 70BD     		pop	{r4, r5, r6, pc}
 277              	.L25:
 278 002e 00BF     		.align	2
ARM GAS  /var/folders/v3/wysfpd052nz8jkbx04pk0ym80000gn/T//cciMXFmK.s 			page 10


 279              	.L24:
 280 0030 00000000 		.word	.LANCHOR5
 281 0034 00000000 		.word	.LANCHOR4
 282              		.cfi_endproc
 283              	.LFE1:
 285              		.section	.text.u8x8_d_ssd1306_64x32_1f,"ax",%progbits
 286              		.align	1
 287              		.p2align 2,,3
 288              		.global	u8x8_d_ssd1306_64x32_1f
 289              		.syntax unified
 290              		.thumb
 291              		.thumb_func
 292              		.fpu fpv4-sp-d16
 294              	u8x8_d_ssd1306_64x32_1f:
 295              	.LFB2:
 213:/Users/imashio/Electronics/ARM/_Library/u8x8_d_ssd1306_64x32.c **** 
 214:/Users/imashio/Electronics/ARM/_Library/u8x8_d_ssd1306_64x32.c **** 
 215:/Users/imashio/Electronics/ARM/_Library/u8x8_d_ssd1306_64x32.c **** /*======================================================*/
 216:/Users/imashio/Electronics/ARM/_Library/u8x8_d_ssd1306_64x32.c **** 
 217:/Users/imashio/Electronics/ARM/_Library/u8x8_d_ssd1306_64x32.c **** static const uint8_t u8x8_d_ssd1306_64x32_1f_init_seq[] = {
 218:/Users/imashio/Electronics/ARM/_Library/u8x8_d_ssd1306_64x32.c ****   U8X8_START_TRANSFER(),             	/* enable chip, delay is part of the transfer start */
 219:/Users/imashio/Electronics/ARM/_Library/u8x8_d_ssd1306_64x32.c ****     
 220:/Users/imashio/Electronics/ARM/_Library/u8x8_d_ssd1306_64x32.c ****   U8X8_C(0x0ae),		                /* display off */
 221:/Users/imashio/Electronics/ARM/_Library/u8x8_d_ssd1306_64x32.c ****   U8X8_CA(0x0d5, 0x080),		/* clock divide ratio (0x00=1) and oscillator frequency (0x8) */
 222:/Users/imashio/Electronics/ARM/_Library/u8x8_d_ssd1306_64x32.c ****   U8X8_CA(0x0a8, 0x01f),		/* multiplex ratio: changed from 0x1f to 0x2f, 23 Sep 17: changed back to
 223:/Users/imashio/Electronics/ARM/_Library/u8x8_d_ssd1306_64x32.c ****   U8X8_CA(0x0d3, 0x000),		/* display offset */
 224:/Users/imashio/Electronics/ARM/_Library/u8x8_d_ssd1306_64x32.c ****   U8X8_C(0x040),		                /* set display start line to 0 */
 225:/Users/imashio/Electronics/ARM/_Library/u8x8_d_ssd1306_64x32.c ****   U8X8_CA(0x08d, 0x014),		/* [2] charge pump setting (p62): 0x014 enable, 0x010 disable */
 226:/Users/imashio/Electronics/ARM/_Library/u8x8_d_ssd1306_64x32.c ****   U8X8_CA(0x020, 0x000),		/* page addressing mode */
 227:/Users/imashio/Electronics/ARM/_Library/u8x8_d_ssd1306_64x32.c ****   
 228:/Users/imashio/Electronics/ARM/_Library/u8x8_d_ssd1306_64x32.c ****   U8X8_C(0x0a1),				/* segment remap a0/a1 */
 229:/Users/imashio/Electronics/ARM/_Library/u8x8_d_ssd1306_64x32.c ****   U8X8_C(0x0c8),				/* c0: scan dir normal, c8: reverse */
 230:/Users/imashio/Electronics/ARM/_Library/u8x8_d_ssd1306_64x32.c ****   
 231:/Users/imashio/Electronics/ARM/_Library/u8x8_d_ssd1306_64x32.c ****   U8X8_CA(0x0da, 0x012),		/* com pin HW config, sequential com pin config (bit 4), disable left/rig
 232:/Users/imashio/Electronics/ARM/_Library/u8x8_d_ssd1306_64x32.c ****   U8X8_CA(0x081, 0x0cf),		/* [2] set contrast control datasheet: 0xcf */
 233:/Users/imashio/Electronics/ARM/_Library/u8x8_d_ssd1306_64x32.c ****   U8X8_CA(0x0d9, 0x022),		/* [2] pre-charge period 0x022/f1 */
 234:/Users/imashio/Electronics/ARM/_Library/u8x8_d_ssd1306_64x32.c ****   U8X8_CA(0x0db, 0x000),		/* vcomh deselect level */
 235:/Users/imashio/Electronics/ARM/_Library/u8x8_d_ssd1306_64x32.c ****   
 236:/Users/imashio/Electronics/ARM/_Library/u8x8_d_ssd1306_64x32.c ****   U8X8_C(0x02e),				/* Deactivate scroll */ 
 237:/Users/imashio/Electronics/ARM/_Library/u8x8_d_ssd1306_64x32.c ****   U8X8_C(0x0a4),				/* output ram to display */
 238:/Users/imashio/Electronics/ARM/_Library/u8x8_d_ssd1306_64x32.c ****   U8X8_C(0x0a6),				/* none inverted normal display mode */
 239:/Users/imashio/Electronics/ARM/_Library/u8x8_d_ssd1306_64x32.c ****     
 240:/Users/imashio/Electronics/ARM/_Library/u8x8_d_ssd1306_64x32.c ****   U8X8_END_TRANSFER(),             	/* disable chip */
 241:/Users/imashio/Electronics/ARM/_Library/u8x8_d_ssd1306_64x32.c ****   U8X8_END()             			/* end of sequence */
 242:/Users/imashio/Electronics/ARM/_Library/u8x8_d_ssd1306_64x32.c **** };
 243:/Users/imashio/Electronics/ARM/_Library/u8x8_d_ssd1306_64x32.c **** 
 244:/Users/imashio/Electronics/ARM/_Library/u8x8_d_ssd1306_64x32.c **** uint8_t u8x8_d_ssd1306_64x32_1f(u8x8_t *u8x8, uint8_t msg, uint8_t arg_int, void *arg_ptr)
 245:/Users/imashio/Electronics/ARM/_Library/u8x8_d_ssd1306_64x32.c **** {
 296              		.loc 1 245 0
 297              		.cfi_startproc
 298              		@ args = 0, pretend = 0, frame = 0
 299              		@ frame_needed = 0, uses_anonymous_args = 0
 300              	.LVL36:
 246:/Users/imashio/Electronics/ARM/_Library/u8x8_d_ssd1306_64x32.c ****     if ( msg == U8X8_MSG_DISPLAY_SETUP_MEMORY )
 301              		.loc 1 246 0
 302 0000 0929     		cmp	r1, #9
 245:/Users/imashio/Electronics/ARM/_Library/u8x8_d_ssd1306_64x32.c ****     if ( msg == U8X8_MSG_DISPLAY_SETUP_MEMORY )
ARM GAS  /var/folders/v3/wysfpd052nz8jkbx04pk0ym80000gn/T//cciMXFmK.s 			page 11


 303              		.loc 1 245 0
 304 0002 70B5     		push	{r4, r5, r6, lr}
 305              	.LCFI4:
 306              		.cfi_def_cfa_offset 16
 307              		.cfi_offset 4, -16
 308              		.cfi_offset 5, -12
 309              		.cfi_offset 6, -8
 310              		.cfi_offset 14, -4
 311              		.loc 1 246 0
 312 0004 0ED0     		beq	.L31
 247:/Users/imashio/Electronics/ARM/_Library/u8x8_d_ssd1306_64x32.c ****     {
 248:/Users/imashio/Electronics/ARM/_Library/u8x8_d_ssd1306_64x32.c ****       u8x8_d_helper_display_setup_memory(u8x8, &u8x8_ssd1306_64x32_display_info);
 249:/Users/imashio/Electronics/ARM/_Library/u8x8_d_ssd1306_64x32.c ****       return 1;
 250:/Users/imashio/Electronics/ARM/_Library/u8x8_d_ssd1306_64x32.c ****     }
 251:/Users/imashio/Electronics/ARM/_Library/u8x8_d_ssd1306_64x32.c ****     else if ( msg == U8X8_MSG_DISPLAY_INIT )
 313              		.loc 1 251 0
 314 0006 0A29     		cmp	r1, #10
 315 0008 03D0     		beq	.L32
 252:/Users/imashio/Electronics/ARM/_Library/u8x8_d_ssd1306_64x32.c ****     {
 253:/Users/imashio/Electronics/ARM/_Library/u8x8_d_ssd1306_64x32.c ****       u8x8_d_helper_display_init(u8x8);
 254:/Users/imashio/Electronics/ARM/_Library/u8x8_d_ssd1306_64x32.c ****       u8x8_cad_SendSequence(u8x8, u8x8_d_ssd1306_64x32_1f_init_seq);    
 255:/Users/imashio/Electronics/ARM/_Library/u8x8_d_ssd1306_64x32.c ****       return 1;
 256:/Users/imashio/Electronics/ARM/_Library/u8x8_d_ssd1306_64x32.c ****     }
 257:/Users/imashio/Electronics/ARM/_Library/u8x8_d_ssd1306_64x32.c ****     return u8x8_d_ssd1306_64x32_generic(u8x8, msg, arg_int, arg_ptr);
 258:/Users/imashio/Electronics/ARM/_Library/u8x8_d_ssd1306_64x32.c **** }
 316              		.loc 1 258 0
 317 000a BDE87040 		pop	{r4, r5, r6, lr}
 318              	.LCFI5:
 319              		.cfi_remember_state
 320              		.cfi_restore 14
 321              		.cfi_restore 6
 322              		.cfi_restore 5
 323              		.cfi_restore 4
 324              		.cfi_def_cfa_offset 0
 257:/Users/imashio/Electronics/ARM/_Library/u8x8_d_ssd1306_64x32.c **** }
 325              		.loc 1 257 0
 326 000e FFF7FEBF 		b	u8x8_d_ssd1306_64x32_generic
 327              	.LVL37:
 328              	.L32:
 329              	.LCFI6:
 330              		.cfi_restore_state
 331 0012 0546     		mov	r5, r0
 253:/Users/imashio/Electronics/ARM/_Library/u8x8_d_ssd1306_64x32.c ****       u8x8_cad_SendSequence(u8x8, u8x8_d_ssd1306_64x32_1f_init_seq);    
 332              		.loc 1 253 0
 333 0014 FFF7FEFF 		bl	u8x8_d_helper_display_init
 334              	.LVL38:
 254:/Users/imashio/Electronics/ARM/_Library/u8x8_d_ssd1306_64x32.c ****       return 1;
 335              		.loc 1 254 0
 336 0018 2846     		mov	r0, r5
 337 001a 0549     		ldr	r1, .L33
 338 001c FFF7FEFF 		bl	u8x8_cad_SendSequence
 339              	.LVL39:
 340              		.loc 1 258 0
 341 0020 0120     		movs	r0, #1
 342 0022 70BD     		pop	{r4, r5, r6, pc}
 343              	.LVL40:
 344              	.L31:
ARM GAS  /var/folders/v3/wysfpd052nz8jkbx04pk0ym80000gn/T//cciMXFmK.s 			page 12


 248:/Users/imashio/Electronics/ARM/_Library/u8x8_d_ssd1306_64x32.c ****       return 1;
 345              		.loc 1 248 0
 346 0024 0349     		ldr	r1, .L33+4
 347              	.LVL41:
 348 0026 FFF7FEFF 		bl	u8x8_d_helper_display_setup_memory
 349              	.LVL42:
 350              		.loc 1 258 0
 351 002a 0120     		movs	r0, #1
 352 002c 70BD     		pop	{r4, r5, r6, pc}
 353              	.L34:
 354 002e 00BF     		.align	2
 355              	.L33:
 356 0030 00000000 		.word	.LANCHOR6
 357 0034 00000000 		.word	.LANCHOR4
 358              		.cfi_endproc
 359              	.LFE2:
 361              		.section	.rodata.u8x8_d_ssd1306_64x32_1f_init_seq,"a",%progbits
 362              		.align	2
 363              		.set	.LANCHOR6,. + 0
 366              	u8x8_d_ssd1306_64x32_1f_init_seq:
 367 0000 18       		.byte	24
 368 0001 15       		.byte	21
 369 0002 AE       		.byte	-82
 370 0003 15       		.byte	21
 371 0004 D5       		.byte	-43
 372 0005 16       		.byte	22
 373 0006 80       		.byte	-128
 374 0007 15       		.byte	21
 375 0008 A8       		.byte	-88
 376 0009 16       		.byte	22
 377 000a 1F       		.byte	31
 378 000b 15       		.byte	21
 379 000c D3       		.byte	-45
 380 000d 16       		.byte	22
 381 000e 00       		.byte	0
 382 000f 15       		.byte	21
 383 0010 40       		.byte	64
 384 0011 15       		.byte	21
 385 0012 8D       		.byte	-115
 386 0013 16       		.byte	22
 387 0014 14       		.byte	20
 388 0015 15       		.byte	21
 389 0016 20       		.byte	32
 390 0017 16       		.byte	22
 391 0018 00       		.byte	0
 392 0019 15       		.byte	21
 393 001a A1       		.byte	-95
 394 001b 15       		.byte	21
 395 001c C8       		.byte	-56
 396 001d 15       		.byte	21
 397 001e DA       		.byte	-38
 398 001f 16       		.byte	22
 399 0020 12       		.byte	18
 400 0021 15       		.byte	21
 401 0022 81       		.byte	-127
 402 0023 16       		.byte	22
 403 0024 CF       		.byte	-49
ARM GAS  /var/folders/v3/wysfpd052nz8jkbx04pk0ym80000gn/T//cciMXFmK.s 			page 13


 404 0025 15       		.byte	21
 405 0026 D9       		.byte	-39
 406 0027 16       		.byte	22
 407 0028 22       		.byte	34
 408 0029 15       		.byte	21
 409 002a DB       		.byte	-37
 410 002b 16       		.byte	22
 411 002c 00       		.byte	0
 412 002d 15       		.byte	21
 413 002e 2E       		.byte	46
 414 002f 15       		.byte	21
 415 0030 A4       		.byte	-92
 416 0031 15       		.byte	21
 417 0032 A6       		.byte	-90
 418 0033 19       		.byte	25
 419 0034 FF       		.byte	-1
 420              		.section	.rodata.u8x8_d_ssd1306_64x32_flip0_seq,"a",%progbits
 421              		.align	2
 422              		.set	.LANCHOR2,. + 0
 425              	u8x8_d_ssd1306_64x32_flip0_seq:
 426 0000 18       		.byte	24
 427 0001 15       		.byte	21
 428 0002 A1       		.byte	-95
 429 0003 15       		.byte	21
 430 0004 C8       		.byte	-56
 431 0005 19       		.byte	25
 432 0006 FF       		.byte	-1
 433              		.section	.rodata.u8x8_d_ssd1306_64x32_flip1_seq,"a",%progbits
 434              		.align	2
 435              		.set	.LANCHOR3,. + 0
 438              	u8x8_d_ssd1306_64x32_flip1_seq:
 439 0000 18       		.byte	24
 440 0001 15       		.byte	21
 441 0002 A0       		.byte	-96
 442 0003 15       		.byte	21
 443 0004 C0       		.byte	-64
 444 0005 19       		.byte	25
 445 0006 FF       		.byte	-1
 446              		.section	.rodata.u8x8_d_ssd1306_64x32_noname_init_seq,"a",%progbits
 447              		.align	2
 448              		.set	.LANCHOR5,. + 0
 451              	u8x8_d_ssd1306_64x32_noname_init_seq:
 452 0000 18       		.byte	24
 453 0001 15       		.byte	21
 454 0002 AE       		.byte	-82
 455 0003 15       		.byte	21
 456 0004 D5       		.byte	-43
 457 0005 16       		.byte	22
 458 0006 80       		.byte	-128
 459 0007 15       		.byte	21
 460 0008 A8       		.byte	-88
 461 0009 16       		.byte	22
 462 000a 2F       		.byte	47
 463 000b 15       		.byte	21
 464 000c D3       		.byte	-45
 465 000d 16       		.byte	22
 466 000e 00       		.byte	0
ARM GAS  /var/folders/v3/wysfpd052nz8jkbx04pk0ym80000gn/T//cciMXFmK.s 			page 14


 467 000f 15       		.byte	21
 468 0010 40       		.byte	64
 469 0011 15       		.byte	21
 470 0012 8D       		.byte	-115
 471 0013 16       		.byte	22
 472 0014 14       		.byte	20
 473 0015 15       		.byte	21
 474 0016 20       		.byte	32
 475 0017 16       		.byte	22
 476 0018 00       		.byte	0
 477 0019 15       		.byte	21
 478 001a A1       		.byte	-95
 479 001b 15       		.byte	21
 480 001c C8       		.byte	-56
 481 001d 15       		.byte	21
 482 001e DA       		.byte	-38
 483 001f 16       		.byte	22
 484 0020 12       		.byte	18
 485 0021 15       		.byte	21
 486 0022 81       		.byte	-127
 487 0023 16       		.byte	22
 488 0024 CF       		.byte	-49
 489 0025 15       		.byte	21
 490 0026 D9       		.byte	-39
 491 0027 16       		.byte	22
 492 0028 22       		.byte	34
 493 0029 15       		.byte	21
 494 002a DB       		.byte	-37
 495 002b 16       		.byte	22
 496 002c 00       		.byte	0
 497 002d 15       		.byte	21
 498 002e 2E       		.byte	46
 499 002f 15       		.byte	21
 500 0030 A4       		.byte	-92
 501 0031 15       		.byte	21
 502 0032 A6       		.byte	-90
 503 0033 19       		.byte	25
 504 0034 FF       		.byte	-1
 505              		.section	.rodata.u8x8_d_ssd1306_64x32_powersave0_seq,"a",%progbits
 506              		.align	2
 507              		.set	.LANCHOR0,. + 0
 510              	u8x8_d_ssd1306_64x32_powersave0_seq:
 511 0000 18       		.byte	24
 512 0001 15       		.byte	21
 513 0002 AF       		.byte	-81
 514 0003 19       		.byte	25
 515 0004 FF       		.byte	-1
 516              		.section	.rodata.u8x8_d_ssd1306_64x32_powersave1_seq,"a",%progbits
 517              		.align	2
 518              		.set	.LANCHOR1,. + 0
 521              	u8x8_d_ssd1306_64x32_powersave1_seq:
 522 0000 18       		.byte	24
 523 0001 15       		.byte	21
 524 0002 AE       		.byte	-82
 525 0003 19       		.byte	25
 526 0004 FF       		.byte	-1
 527              		.section	.rodata.u8x8_ssd1306_64x32_display_info,"a",%progbits
ARM GAS  /var/folders/v3/wysfpd052nz8jkbx04pk0ym80000gn/T//cciMXFmK.s 			page 15


 528              		.align	2
 529              		.set	.LANCHOR4,. + 0
 532              	u8x8_ssd1306_64x32_display_info:
 533 0000 00       		.byte	0
 534 0001 01       		.byte	1
 535 0002 14       		.byte	20
 536 0003 0A       		.byte	10
 537 0004 64       		.byte	100
 538 0005 64       		.byte	100
 539 0006 32       		.byte	50
 540 0007 32       		.byte	50
 541 0008 00127A00 		.word	8000000
 542 000c 00       		.byte	0
 543 000d 04       		.byte	4
 544 000e 28       		.byte	40
 545 000f 96       		.byte	-106
 546 0010 08       		.byte	8
 547 0011 04       		.byte	4
 548 0012 20       		.byte	32
 549 0013 20       		.byte	32
 550 0014 4000     		.short	64
 551 0016 2000     		.short	32
 552              		.text
 553              	.Letext0:
 554              		.file 2 "/usr/local/gcc-arm-none-eabi-7-2018-q2-update/arm-none-eabi/include/machine/_default_type
 555              		.file 3 "/usr/local/gcc-arm-none-eabi-7-2018-q2-update/arm-none-eabi/include/sys/_stdint.h"
 556              		.file 4 "/Users/imashio/Electronics/ARM/_Library/u8x8.h"
ARM GAS  /var/folders/v3/wysfpd052nz8jkbx04pk0ym80000gn/T//cciMXFmK.s 			page 16

