ARM GAS  /var/folders/v3/wysfpd052nz8jkbx04pk0ym80000gn/T//cclLoxDJ.s 			page 1


   1              		.cpu cortex-m4
   2              		.eabi_attribute 27, 1
   3              		.eabi_attribute 28, 1
   4              		.eabi_attribute 20, 1
   5              		.eabi_attribute 21, 1
   6              		.eabi_attribute 23, 3
   7              		.eabi_attribute 24, 1
   8              		.eabi_attribute 25, 1
   9              		.eabi_attribute 26, 1
  10              		.eabi_attribute 30, 2
  11              		.eabi_attribute 34, 1
  12              		.eabi_attribute 18, 4
  13              		.file	"u8x8_byte.c"
  14              		.text
  15              	.Ltext0:
  16              		.cfi_sections	.debug_frame
  17              		.section	.text.i2c_delay,"ax",%progbits
  18              		.align	1
  19              		.p2align 2,,3
  20              		.syntax unified
  21              		.thumb
  22              		.thumb_func
  23              		.fpu fpv4-sp-d16
  25              	i2c_delay:
  26              	.LFB12:
  27              		.file 1 "/Users/imashio/Electronics/ARM/_Library/u8x8_byte.c"
   1:/Users/imashio/Electronics/ARM/_Library/u8x8_byte.c **** /*
   2:/Users/imashio/Electronics/ARM/_Library/u8x8_byte.c **** 
   3:/Users/imashio/Electronics/ARM/_Library/u8x8_byte.c ****   u8x8_byte.c 
   4:/Users/imashio/Electronics/ARM/_Library/u8x8_byte.c ****   
   5:/Users/imashio/Electronics/ARM/_Library/u8x8_byte.c ****   Universal 8bit Graphics Library (https://github.com/olikraus/u8g2/)
   6:/Users/imashio/Electronics/ARM/_Library/u8x8_byte.c **** 
   7:/Users/imashio/Electronics/ARM/_Library/u8x8_byte.c ****   Copyright (c) 2016, olikraus@gmail.com
   8:/Users/imashio/Electronics/ARM/_Library/u8x8_byte.c ****   All rights reserved.
   9:/Users/imashio/Electronics/ARM/_Library/u8x8_byte.c **** 
  10:/Users/imashio/Electronics/ARM/_Library/u8x8_byte.c ****   Redistribution and use in source and binary forms, with or without modification, 
  11:/Users/imashio/Electronics/ARM/_Library/u8x8_byte.c ****   are permitted provided that the following conditions are met:
  12:/Users/imashio/Electronics/ARM/_Library/u8x8_byte.c **** 
  13:/Users/imashio/Electronics/ARM/_Library/u8x8_byte.c ****   * Redistributions of source code must retain the above copyright notice, this list 
  14:/Users/imashio/Electronics/ARM/_Library/u8x8_byte.c ****     of conditions and the following disclaimer.
  15:/Users/imashio/Electronics/ARM/_Library/u8x8_byte.c ****     
  16:/Users/imashio/Electronics/ARM/_Library/u8x8_byte.c ****   * Redistributions in binary form must reproduce the above copyright notice, this 
  17:/Users/imashio/Electronics/ARM/_Library/u8x8_byte.c ****     list of conditions and the following disclaimer in the documentation and/or other 
  18:/Users/imashio/Electronics/ARM/_Library/u8x8_byte.c ****     materials provided with the distribution.
  19:/Users/imashio/Electronics/ARM/_Library/u8x8_byte.c **** 
  20:/Users/imashio/Electronics/ARM/_Library/u8x8_byte.c ****   THIS SOFTWARE IS PROVIDED BY THE COPYRIGHT HOLDERS AND 
  21:/Users/imashio/Electronics/ARM/_Library/u8x8_byte.c ****   CONTRIBUTORS "AS IS" AND ANY EXPRESS OR IMPLIED WARRANTIES, 
  22:/Users/imashio/Electronics/ARM/_Library/u8x8_byte.c ****   INCLUDING, BUT NOT LIMITED TO, THE IMPLIED WARRANTIES OF 
  23:/Users/imashio/Electronics/ARM/_Library/u8x8_byte.c ****   MERCHANTABILITY AND FITNESS FOR A PARTICULAR PURPOSE ARE 
  24:/Users/imashio/Electronics/ARM/_Library/u8x8_byte.c ****   DISCLAIMED. IN NO EVENT SHALL THE COPYRIGHT HOLDER OR 
  25:/Users/imashio/Electronics/ARM/_Library/u8x8_byte.c ****   CONTRIBUTORS BE LIABLE FOR ANY DIRECT, INDIRECT, INCIDENTAL, 
  26:/Users/imashio/Electronics/ARM/_Library/u8x8_byte.c ****   SPECIAL, EXEMPLARY, OR CONSEQUENTIAL DAMAGES (INCLUDING, BUT 
  27:/Users/imashio/Electronics/ARM/_Library/u8x8_byte.c ****   NOT LIMITED TO, PROCUREMENT OF SUBSTITUTE GOODS OR SERVICES; 
  28:/Users/imashio/Electronics/ARM/_Library/u8x8_byte.c ****   LOSS OF USE, DATA, OR PROFITS; OR BUSINESS INTERRUPTION) HOWEVER 
  29:/Users/imashio/Electronics/ARM/_Library/u8x8_byte.c ****   CAUSED AND ON ANY THEORY OF LIABILITY, WHETHER IN CONTRACT, 
  30:/Users/imashio/Electronics/ARM/_Library/u8x8_byte.c ****   STRICT LIABILITY, OR TORT (INCLUDING NEGLIGENCE OR OTHERWISE) 
  31:/Users/imashio/Electronics/ARM/_Library/u8x8_byte.c ****   ARISING IN ANY WAY OUT OF THE USE OF THIS SOFTWARE, EVEN IF 
ARM GAS  /var/folders/v3/wysfpd052nz8jkbx04pk0ym80000gn/T//cclLoxDJ.s 			page 2


  32:/Users/imashio/Electronics/ARM/_Library/u8x8_byte.c ****   ADVISED OF THE POSSIBILITY OF SUCH DAMAGE.  
  33:/Users/imashio/Electronics/ARM/_Library/u8x8_byte.c ****   
  34:/Users/imashio/Electronics/ARM/_Library/u8x8_byte.c ****   
  35:/Users/imashio/Electronics/ARM/_Library/u8x8_byte.c **** */
  36:/Users/imashio/Electronics/ARM/_Library/u8x8_byte.c **** 
  37:/Users/imashio/Electronics/ARM/_Library/u8x8_byte.c **** #include "u8x8.h"
  38:/Users/imashio/Electronics/ARM/_Library/u8x8_byte.c **** 
  39:/Users/imashio/Electronics/ARM/_Library/u8x8_byte.c **** uint8_t u8x8_byte_SetDC(u8x8_t *u8x8, uint8_t dc)
  40:/Users/imashio/Electronics/ARM/_Library/u8x8_byte.c **** {
  41:/Users/imashio/Electronics/ARM/_Library/u8x8_byte.c ****   return u8x8->byte_cb(u8x8, U8X8_MSG_BYTE_SET_DC, dc, NULL);
  42:/Users/imashio/Electronics/ARM/_Library/u8x8_byte.c **** }
  43:/Users/imashio/Electronics/ARM/_Library/u8x8_byte.c **** 
  44:/Users/imashio/Electronics/ARM/_Library/u8x8_byte.c **** uint8_t u8x8_byte_SendBytes(u8x8_t *u8x8, uint8_t cnt, uint8_t *data)
  45:/Users/imashio/Electronics/ARM/_Library/u8x8_byte.c **** {
  46:/Users/imashio/Electronics/ARM/_Library/u8x8_byte.c ****   return u8x8->byte_cb(u8x8, U8X8_MSG_BYTE_SEND, cnt, (void *)data);
  47:/Users/imashio/Electronics/ARM/_Library/u8x8_byte.c **** }
  48:/Users/imashio/Electronics/ARM/_Library/u8x8_byte.c **** 
  49:/Users/imashio/Electronics/ARM/_Library/u8x8_byte.c **** uint8_t u8x8_byte_SendByte(u8x8_t *u8x8, uint8_t byte)
  50:/Users/imashio/Electronics/ARM/_Library/u8x8_byte.c **** {
  51:/Users/imashio/Electronics/ARM/_Library/u8x8_byte.c ****   return u8x8_byte_SendBytes(u8x8, 1, &byte);
  52:/Users/imashio/Electronics/ARM/_Library/u8x8_byte.c **** }
  53:/Users/imashio/Electronics/ARM/_Library/u8x8_byte.c **** 
  54:/Users/imashio/Electronics/ARM/_Library/u8x8_byte.c **** uint8_t u8x8_byte_StartTransfer(u8x8_t *u8x8)
  55:/Users/imashio/Electronics/ARM/_Library/u8x8_byte.c **** {
  56:/Users/imashio/Electronics/ARM/_Library/u8x8_byte.c ****   return u8x8->byte_cb(u8x8, U8X8_MSG_BYTE_START_TRANSFER, 0, NULL);
  57:/Users/imashio/Electronics/ARM/_Library/u8x8_byte.c **** }
  58:/Users/imashio/Electronics/ARM/_Library/u8x8_byte.c **** 
  59:/Users/imashio/Electronics/ARM/_Library/u8x8_byte.c **** uint8_t u8x8_byte_EndTransfer(u8x8_t *u8x8)
  60:/Users/imashio/Electronics/ARM/_Library/u8x8_byte.c **** {
  61:/Users/imashio/Electronics/ARM/_Library/u8x8_byte.c ****   return u8x8->byte_cb(u8x8, U8X8_MSG_BYTE_END_TRANSFER, 0, NULL);
  62:/Users/imashio/Electronics/ARM/_Library/u8x8_byte.c **** }
  63:/Users/imashio/Electronics/ARM/_Library/u8x8_byte.c **** 
  64:/Users/imashio/Electronics/ARM/_Library/u8x8_byte.c **** 
  65:/Users/imashio/Electronics/ARM/_Library/u8x8_byte.c **** /*
  66:/Users/imashio/Electronics/ARM/_Library/u8x8_byte.c ****   Uses:
  67:/Users/imashio/Electronics/ARM/_Library/u8x8_byte.c ****     u8x8->display_info->sda_setup_time_ns
  68:/Users/imashio/Electronics/ARM/_Library/u8x8_byte.c ****     u8x8->display_info->sck_pulse_width_ns
  69:/Users/imashio/Electronics/ARM/_Library/u8x8_byte.c ****     u8x8->display_info->spi_mode
  70:/Users/imashio/Electronics/ARM/_Library/u8x8_byte.c ****     u8x8->display_info->chip_disable_level
  71:/Users/imashio/Electronics/ARM/_Library/u8x8_byte.c ****     u8x8->display_info->chip_enable_level
  72:/Users/imashio/Electronics/ARM/_Library/u8x8_byte.c ****     u8x8->display_info->post_chip_enable_wait_ns
  73:/Users/imashio/Electronics/ARM/_Library/u8x8_byte.c ****     u8x8->display_info->pre_chip_disable_wait_ns
  74:/Users/imashio/Electronics/ARM/_Library/u8x8_byte.c ****   Calls to GPIO and DELAY:
  75:/Users/imashio/Electronics/ARM/_Library/u8x8_byte.c ****     U8X8_MSG_DELAY_NANO
  76:/Users/imashio/Electronics/ARM/_Library/u8x8_byte.c ****     U8X8_MSG_GPIO_DC
  77:/Users/imashio/Electronics/ARM/_Library/u8x8_byte.c ****     U8X8_MSG_GPIO_CS
  78:/Users/imashio/Electronics/ARM/_Library/u8x8_byte.c ****     U8X8_MSG_GPIO_CLOCK
  79:/Users/imashio/Electronics/ARM/_Library/u8x8_byte.c ****     U8X8_MSG_GPIO_DATA
  80:/Users/imashio/Electronics/ARM/_Library/u8x8_byte.c ****   Handles:
  81:/Users/imashio/Electronics/ARM/_Library/u8x8_byte.c ****     U8X8_MSG_BYTE_INIT
  82:/Users/imashio/Electronics/ARM/_Library/u8x8_byte.c ****     U8X8_MSG_BYTE_SEND
  83:/Users/imashio/Electronics/ARM/_Library/u8x8_byte.c ****     U8X8_MSG_BYTE_SET_DC
  84:/Users/imashio/Electronics/ARM/_Library/u8x8_byte.c ****     U8X8_MSG_BYTE_START_TRANSFER
  85:/Users/imashio/Electronics/ARM/_Library/u8x8_byte.c ****     U8X8_MSG_BYTE_END_TRANSFER
  86:/Users/imashio/Electronics/ARM/_Library/u8x8_byte.c **** */
  87:/Users/imashio/Electronics/ARM/_Library/u8x8_byte.c **** 
  88:/Users/imashio/Electronics/ARM/_Library/u8x8_byte.c **** uint8_t u8x8_byte_4wire_sw_spi(u8x8_t *u8x8, uint8_t msg, uint8_t arg_int, void *arg_ptr)
ARM GAS  /var/folders/v3/wysfpd052nz8jkbx04pk0ym80000gn/T//cclLoxDJ.s 			page 3


  89:/Users/imashio/Electronics/ARM/_Library/u8x8_byte.c **** {
  90:/Users/imashio/Electronics/ARM/_Library/u8x8_byte.c ****   uint8_t i, b;
  91:/Users/imashio/Electronics/ARM/_Library/u8x8_byte.c ****   uint8_t *data;
  92:/Users/imashio/Electronics/ARM/_Library/u8x8_byte.c ****   uint8_t takeover_edge = u8x8_GetSPIClockPhase(u8x8);
  93:/Users/imashio/Electronics/ARM/_Library/u8x8_byte.c ****   uint8_t not_takeover_edge = 1 - takeover_edge;
  94:/Users/imashio/Electronics/ARM/_Library/u8x8_byte.c ****  
  95:/Users/imashio/Electronics/ARM/_Library/u8x8_byte.c ****   switch(msg)
  96:/Users/imashio/Electronics/ARM/_Library/u8x8_byte.c ****   {
  97:/Users/imashio/Electronics/ARM/_Library/u8x8_byte.c ****     case U8X8_MSG_BYTE_SEND:
  98:/Users/imashio/Electronics/ARM/_Library/u8x8_byte.c ****       data = (uint8_t *)arg_ptr;
  99:/Users/imashio/Electronics/ARM/_Library/u8x8_byte.c ****       while( arg_int > 0 )
 100:/Users/imashio/Electronics/ARM/_Library/u8x8_byte.c ****       {
 101:/Users/imashio/Electronics/ARM/_Library/u8x8_byte.c **** 	b = *data;
 102:/Users/imashio/Electronics/ARM/_Library/u8x8_byte.c **** 	data++;
 103:/Users/imashio/Electronics/ARM/_Library/u8x8_byte.c **** 	arg_int--;
 104:/Users/imashio/Electronics/ARM/_Library/u8x8_byte.c **** 	for( i = 0; i < 8; i++ )
 105:/Users/imashio/Electronics/ARM/_Library/u8x8_byte.c **** 	{
 106:/Users/imashio/Electronics/ARM/_Library/u8x8_byte.c **** 	  if ( b & 128 )
 107:/Users/imashio/Electronics/ARM/_Library/u8x8_byte.c **** 	    u8x8_gpio_SetSPIData(u8x8, 1);
 108:/Users/imashio/Electronics/ARM/_Library/u8x8_byte.c **** 	  else
 109:/Users/imashio/Electronics/ARM/_Library/u8x8_byte.c **** 	    u8x8_gpio_SetSPIData(u8x8, 0);
 110:/Users/imashio/Electronics/ARM/_Library/u8x8_byte.c **** 	  b <<= 1;
 111:/Users/imashio/Electronics/ARM/_Library/u8x8_byte.c **** 	  
 112:/Users/imashio/Electronics/ARM/_Library/u8x8_byte.c **** 	  u8x8_gpio_SetSPIClock(u8x8, not_takeover_edge);
 113:/Users/imashio/Electronics/ARM/_Library/u8x8_byte.c **** 	  u8x8_gpio_Delay(u8x8, U8X8_MSG_DELAY_NANO, u8x8->display_info->sda_setup_time_ns);
 114:/Users/imashio/Electronics/ARM/_Library/u8x8_byte.c **** 	  u8x8_gpio_SetSPIClock(u8x8, takeover_edge);
 115:/Users/imashio/Electronics/ARM/_Library/u8x8_byte.c **** 	  u8x8_gpio_Delay(u8x8, U8X8_MSG_DELAY_NANO, u8x8->display_info->sck_pulse_width_ns);
 116:/Users/imashio/Electronics/ARM/_Library/u8x8_byte.c **** 	}    
 117:/Users/imashio/Electronics/ARM/_Library/u8x8_byte.c ****       }
 118:/Users/imashio/Electronics/ARM/_Library/u8x8_byte.c ****       break;
 119:/Users/imashio/Electronics/ARM/_Library/u8x8_byte.c ****       
 120:/Users/imashio/Electronics/ARM/_Library/u8x8_byte.c ****     case U8X8_MSG_BYTE_INIT:
 121:/Users/imashio/Electronics/ARM/_Library/u8x8_byte.c ****       /* disable chipselect */
 122:/Users/imashio/Electronics/ARM/_Library/u8x8_byte.c ****       u8x8_gpio_SetCS(u8x8, u8x8->display_info->chip_disable_level);
 123:/Users/imashio/Electronics/ARM/_Library/u8x8_byte.c ****       /* no wait required here */
 124:/Users/imashio/Electronics/ARM/_Library/u8x8_byte.c ****       
 125:/Users/imashio/Electronics/ARM/_Library/u8x8_byte.c ****       /* for SPI: setup correct level of the clock signal */
 126:/Users/imashio/Electronics/ARM/_Library/u8x8_byte.c ****       u8x8_gpio_SetSPIClock(u8x8, u8x8_GetSPIClockPhase(u8x8));
 127:/Users/imashio/Electronics/ARM/_Library/u8x8_byte.c ****       break;
 128:/Users/imashio/Electronics/ARM/_Library/u8x8_byte.c ****     case U8X8_MSG_BYTE_SET_DC:
 129:/Users/imashio/Electronics/ARM/_Library/u8x8_byte.c ****       u8x8_gpio_SetDC(u8x8, arg_int);
 130:/Users/imashio/Electronics/ARM/_Library/u8x8_byte.c ****       break;
 131:/Users/imashio/Electronics/ARM/_Library/u8x8_byte.c ****     case U8X8_MSG_BYTE_START_TRANSFER:
 132:/Users/imashio/Electronics/ARM/_Library/u8x8_byte.c ****       u8x8_gpio_SetCS(u8x8, u8x8->display_info->chip_enable_level);  
 133:/Users/imashio/Electronics/ARM/_Library/u8x8_byte.c ****       u8x8->gpio_and_delay_cb(u8x8, U8X8_MSG_DELAY_NANO, u8x8->display_info->post_chip_enable_wait_
 134:/Users/imashio/Electronics/ARM/_Library/u8x8_byte.c ****       break;
 135:/Users/imashio/Electronics/ARM/_Library/u8x8_byte.c ****     case U8X8_MSG_BYTE_END_TRANSFER:
 136:/Users/imashio/Electronics/ARM/_Library/u8x8_byte.c ****       u8x8->gpio_and_delay_cb(u8x8, U8X8_MSG_DELAY_NANO, u8x8->display_info->pre_chip_disable_wait_
 137:/Users/imashio/Electronics/ARM/_Library/u8x8_byte.c ****       u8x8_gpio_SetCS(u8x8, u8x8->display_info->chip_disable_level);
 138:/Users/imashio/Electronics/ARM/_Library/u8x8_byte.c ****       break;
 139:/Users/imashio/Electronics/ARM/_Library/u8x8_byte.c ****     default:
 140:/Users/imashio/Electronics/ARM/_Library/u8x8_byte.c ****       return 0;
 141:/Users/imashio/Electronics/ARM/_Library/u8x8_byte.c ****   }
 142:/Users/imashio/Electronics/ARM/_Library/u8x8_byte.c ****   return 1;
 143:/Users/imashio/Electronics/ARM/_Library/u8x8_byte.c **** }
 144:/Users/imashio/Electronics/ARM/_Library/u8x8_byte.c **** 
 145:/Users/imashio/Electronics/ARM/_Library/u8x8_byte.c **** /*=========================================*/
ARM GAS  /var/folders/v3/wysfpd052nz8jkbx04pk0ym80000gn/T//cclLoxDJ.s 			page 4


 146:/Users/imashio/Electronics/ARM/_Library/u8x8_byte.c **** 
 147:/Users/imashio/Electronics/ARM/_Library/u8x8_byte.c **** uint8_t u8x8_byte_8bit_6800mode(u8x8_t *u8x8, uint8_t msg, uint8_t arg_int, void *arg_ptr)
 148:/Users/imashio/Electronics/ARM/_Library/u8x8_byte.c **** {
 149:/Users/imashio/Electronics/ARM/_Library/u8x8_byte.c ****   uint8_t i, b;
 150:/Users/imashio/Electronics/ARM/_Library/u8x8_byte.c ****   uint8_t *data;
 151:/Users/imashio/Electronics/ARM/_Library/u8x8_byte.c ****  
 152:/Users/imashio/Electronics/ARM/_Library/u8x8_byte.c ****   switch(msg)
 153:/Users/imashio/Electronics/ARM/_Library/u8x8_byte.c ****   {
 154:/Users/imashio/Electronics/ARM/_Library/u8x8_byte.c ****     case U8X8_MSG_BYTE_SEND:
 155:/Users/imashio/Electronics/ARM/_Library/u8x8_byte.c ****       data = (uint8_t *)arg_ptr;
 156:/Users/imashio/Electronics/ARM/_Library/u8x8_byte.c ****       while( arg_int > 0 )
 157:/Users/imashio/Electronics/ARM/_Library/u8x8_byte.c ****       {
 158:/Users/imashio/Electronics/ARM/_Library/u8x8_byte.c **** 	b = *data;
 159:/Users/imashio/Electronics/ARM/_Library/u8x8_byte.c **** 	data++;
 160:/Users/imashio/Electronics/ARM/_Library/u8x8_byte.c **** 	arg_int--;
 161:/Users/imashio/Electronics/ARM/_Library/u8x8_byte.c **** 	for( i = U8X8_MSG_GPIO_D0; i <= U8X8_MSG_GPIO_D7; i++ )
 162:/Users/imashio/Electronics/ARM/_Library/u8x8_byte.c **** 	{
 163:/Users/imashio/Electronics/ARM/_Library/u8x8_byte.c **** 	  u8x8_gpio_call(u8x8, i, b&1);
 164:/Users/imashio/Electronics/ARM/_Library/u8x8_byte.c **** 	  b >>= 1;
 165:/Users/imashio/Electronics/ARM/_Library/u8x8_byte.c **** 	}    
 166:/Users/imashio/Electronics/ARM/_Library/u8x8_byte.c **** 	
 167:/Users/imashio/Electronics/ARM/_Library/u8x8_byte.c **** 	u8x8_gpio_Delay(u8x8, U8X8_MSG_DELAY_NANO, u8x8->display_info->data_setup_time_ns);
 168:/Users/imashio/Electronics/ARM/_Library/u8x8_byte.c **** 	u8x8_gpio_call(u8x8, U8X8_MSG_GPIO_E, 1);
 169:/Users/imashio/Electronics/ARM/_Library/u8x8_byte.c **** 	u8x8_gpio_Delay(u8x8, U8X8_MSG_DELAY_NANO, u8x8->display_info->write_pulse_width_ns);
 170:/Users/imashio/Electronics/ARM/_Library/u8x8_byte.c **** 	u8x8_gpio_call(u8x8, U8X8_MSG_GPIO_E, 0);
 171:/Users/imashio/Electronics/ARM/_Library/u8x8_byte.c ****       }
 172:/Users/imashio/Electronics/ARM/_Library/u8x8_byte.c ****       break;
 173:/Users/imashio/Electronics/ARM/_Library/u8x8_byte.c ****       
 174:/Users/imashio/Electronics/ARM/_Library/u8x8_byte.c ****     case U8X8_MSG_BYTE_INIT:
 175:/Users/imashio/Electronics/ARM/_Library/u8x8_byte.c ****       /* disable chipselect */
 176:/Users/imashio/Electronics/ARM/_Library/u8x8_byte.c ****       u8x8_gpio_SetCS(u8x8, u8x8->display_info->chip_disable_level);    
 177:/Users/imashio/Electronics/ARM/_Library/u8x8_byte.c ****       /* ensure that the enable signal is high */
 178:/Users/imashio/Electronics/ARM/_Library/u8x8_byte.c ****       u8x8_gpio_call(u8x8, U8X8_MSG_GPIO_E, 0);
 179:/Users/imashio/Electronics/ARM/_Library/u8x8_byte.c ****       break;
 180:/Users/imashio/Electronics/ARM/_Library/u8x8_byte.c ****     case U8X8_MSG_BYTE_SET_DC:
 181:/Users/imashio/Electronics/ARM/_Library/u8x8_byte.c ****       u8x8_gpio_SetDC(u8x8, arg_int);
 182:/Users/imashio/Electronics/ARM/_Library/u8x8_byte.c ****       break;
 183:/Users/imashio/Electronics/ARM/_Library/u8x8_byte.c ****     case U8X8_MSG_BYTE_START_TRANSFER:
 184:/Users/imashio/Electronics/ARM/_Library/u8x8_byte.c ****       u8x8_gpio_SetCS(u8x8, u8x8->display_info->chip_enable_level);  
 185:/Users/imashio/Electronics/ARM/_Library/u8x8_byte.c ****       u8x8->gpio_and_delay_cb(u8x8, U8X8_MSG_DELAY_NANO, u8x8->display_info->post_chip_enable_wait_
 186:/Users/imashio/Electronics/ARM/_Library/u8x8_byte.c ****       break;
 187:/Users/imashio/Electronics/ARM/_Library/u8x8_byte.c ****     case U8X8_MSG_BYTE_END_TRANSFER:
 188:/Users/imashio/Electronics/ARM/_Library/u8x8_byte.c ****       u8x8->gpio_and_delay_cb(u8x8, U8X8_MSG_DELAY_NANO, u8x8->display_info->pre_chip_disable_wait_
 189:/Users/imashio/Electronics/ARM/_Library/u8x8_byte.c ****       u8x8_gpio_SetCS(u8x8, u8x8->display_info->chip_disable_level);
 190:/Users/imashio/Electronics/ARM/_Library/u8x8_byte.c ****       break;
 191:/Users/imashio/Electronics/ARM/_Library/u8x8_byte.c ****     default:
 192:/Users/imashio/Electronics/ARM/_Library/u8x8_byte.c ****       return 0;
 193:/Users/imashio/Electronics/ARM/_Library/u8x8_byte.c ****   }
 194:/Users/imashio/Electronics/ARM/_Library/u8x8_byte.c ****   return 1;
 195:/Users/imashio/Electronics/ARM/_Library/u8x8_byte.c **** }
 196:/Users/imashio/Electronics/ARM/_Library/u8x8_byte.c **** 
 197:/Users/imashio/Electronics/ARM/_Library/u8x8_byte.c **** uint8_t u8x8_byte_8bit_8080mode(u8x8_t *u8x8, uint8_t msg, uint8_t arg_int, void *arg_ptr)
 198:/Users/imashio/Electronics/ARM/_Library/u8x8_byte.c **** {
 199:/Users/imashio/Electronics/ARM/_Library/u8x8_byte.c ****   uint8_t i, b;
 200:/Users/imashio/Electronics/ARM/_Library/u8x8_byte.c ****   uint8_t *data;
 201:/Users/imashio/Electronics/ARM/_Library/u8x8_byte.c ****  
 202:/Users/imashio/Electronics/ARM/_Library/u8x8_byte.c ****   switch(msg)
ARM GAS  /var/folders/v3/wysfpd052nz8jkbx04pk0ym80000gn/T//cclLoxDJ.s 			page 5


 203:/Users/imashio/Electronics/ARM/_Library/u8x8_byte.c ****   {
 204:/Users/imashio/Electronics/ARM/_Library/u8x8_byte.c ****     case U8X8_MSG_BYTE_SEND:
 205:/Users/imashio/Electronics/ARM/_Library/u8x8_byte.c ****       data = (uint8_t *)arg_ptr;
 206:/Users/imashio/Electronics/ARM/_Library/u8x8_byte.c ****       while( arg_int > 0 )
 207:/Users/imashio/Electronics/ARM/_Library/u8x8_byte.c ****       {
 208:/Users/imashio/Electronics/ARM/_Library/u8x8_byte.c **** 	b = *data;
 209:/Users/imashio/Electronics/ARM/_Library/u8x8_byte.c **** 	data++;
 210:/Users/imashio/Electronics/ARM/_Library/u8x8_byte.c **** 	arg_int--;
 211:/Users/imashio/Electronics/ARM/_Library/u8x8_byte.c **** 	for( i = U8X8_MSG_GPIO_D0; i <= U8X8_MSG_GPIO_D7; i++ )
 212:/Users/imashio/Electronics/ARM/_Library/u8x8_byte.c **** 	{
 213:/Users/imashio/Electronics/ARM/_Library/u8x8_byte.c **** 	  u8x8_gpio_call(u8x8, i, b&1);
 214:/Users/imashio/Electronics/ARM/_Library/u8x8_byte.c **** 	  b >>= 1;
 215:/Users/imashio/Electronics/ARM/_Library/u8x8_byte.c **** 	}    
 216:/Users/imashio/Electronics/ARM/_Library/u8x8_byte.c **** 	
 217:/Users/imashio/Electronics/ARM/_Library/u8x8_byte.c **** 	u8x8_gpio_Delay(u8x8, U8X8_MSG_DELAY_NANO, u8x8->display_info->data_setup_time_ns);
 218:/Users/imashio/Electronics/ARM/_Library/u8x8_byte.c **** 	u8x8_gpio_call(u8x8, U8X8_MSG_GPIO_E, 0);
 219:/Users/imashio/Electronics/ARM/_Library/u8x8_byte.c **** 	u8x8_gpio_Delay(u8x8, U8X8_MSG_DELAY_NANO, u8x8->display_info->write_pulse_width_ns);
 220:/Users/imashio/Electronics/ARM/_Library/u8x8_byte.c **** 	u8x8_gpio_call(u8x8, U8X8_MSG_GPIO_E, 1);
 221:/Users/imashio/Electronics/ARM/_Library/u8x8_byte.c ****       }
 222:/Users/imashio/Electronics/ARM/_Library/u8x8_byte.c ****       break;
 223:/Users/imashio/Electronics/ARM/_Library/u8x8_byte.c ****       
 224:/Users/imashio/Electronics/ARM/_Library/u8x8_byte.c ****     case U8X8_MSG_BYTE_INIT:
 225:/Users/imashio/Electronics/ARM/_Library/u8x8_byte.c ****       /* disable chipselect */
 226:/Users/imashio/Electronics/ARM/_Library/u8x8_byte.c ****       u8x8_gpio_SetCS(u8x8, u8x8->display_info->chip_disable_level);    
 227:/Users/imashio/Electronics/ARM/_Library/u8x8_byte.c ****       /* ensure that the enable signal is high */
 228:/Users/imashio/Electronics/ARM/_Library/u8x8_byte.c ****       u8x8_gpio_call(u8x8, U8X8_MSG_GPIO_E, 1);
 229:/Users/imashio/Electronics/ARM/_Library/u8x8_byte.c ****       break;
 230:/Users/imashio/Electronics/ARM/_Library/u8x8_byte.c ****     case U8X8_MSG_BYTE_SET_DC:
 231:/Users/imashio/Electronics/ARM/_Library/u8x8_byte.c ****       u8x8_gpio_SetDC(u8x8, arg_int);
 232:/Users/imashio/Electronics/ARM/_Library/u8x8_byte.c ****       break;
 233:/Users/imashio/Electronics/ARM/_Library/u8x8_byte.c ****     case U8X8_MSG_BYTE_START_TRANSFER:
 234:/Users/imashio/Electronics/ARM/_Library/u8x8_byte.c ****       u8x8_gpio_SetCS(u8x8, u8x8->display_info->chip_enable_level);  
 235:/Users/imashio/Electronics/ARM/_Library/u8x8_byte.c ****       u8x8->gpio_and_delay_cb(u8x8, U8X8_MSG_DELAY_NANO, u8x8->display_info->post_chip_enable_wait_
 236:/Users/imashio/Electronics/ARM/_Library/u8x8_byte.c ****       break;
 237:/Users/imashio/Electronics/ARM/_Library/u8x8_byte.c ****     case U8X8_MSG_BYTE_END_TRANSFER:
 238:/Users/imashio/Electronics/ARM/_Library/u8x8_byte.c ****       u8x8->gpio_and_delay_cb(u8x8, U8X8_MSG_DELAY_NANO, u8x8->display_info->pre_chip_disable_wait_
 239:/Users/imashio/Electronics/ARM/_Library/u8x8_byte.c ****       u8x8_gpio_SetCS(u8x8, u8x8->display_info->chip_disable_level);
 240:/Users/imashio/Electronics/ARM/_Library/u8x8_byte.c ****       break;
 241:/Users/imashio/Electronics/ARM/_Library/u8x8_byte.c ****     default:
 242:/Users/imashio/Electronics/ARM/_Library/u8x8_byte.c ****       return 0;
 243:/Users/imashio/Electronics/ARM/_Library/u8x8_byte.c ****   }
 244:/Users/imashio/Electronics/ARM/_Library/u8x8_byte.c ****   return 1;
 245:/Users/imashio/Electronics/ARM/_Library/u8x8_byte.c **** }
 246:/Users/imashio/Electronics/ARM/_Library/u8x8_byte.c **** 
 247:/Users/imashio/Electronics/ARM/_Library/u8x8_byte.c **** /*=========================================*/
 248:/Users/imashio/Electronics/ARM/_Library/u8x8_byte.c **** 
 249:/Users/imashio/Electronics/ARM/_Library/u8x8_byte.c **** uint8_t u8x8_byte_3wire_sw_spi(u8x8_t *u8x8, uint8_t msg, uint8_t arg_int, void *arg_ptr)
 250:/Users/imashio/Electronics/ARM/_Library/u8x8_byte.c **** {
 251:/Users/imashio/Electronics/ARM/_Library/u8x8_byte.c ****   uint8_t i;
 252:/Users/imashio/Electronics/ARM/_Library/u8x8_byte.c ****   uint8_t *data;
 253:/Users/imashio/Electronics/ARM/_Library/u8x8_byte.c ****   uint8_t takeover_edge = u8x8_GetSPIClockPhase(u8x8);
 254:/Users/imashio/Electronics/ARM/_Library/u8x8_byte.c ****   uint8_t not_takeover_edge = 1 - takeover_edge;
 255:/Users/imashio/Electronics/ARM/_Library/u8x8_byte.c ****   uint16_t b;
 256:/Users/imashio/Electronics/ARM/_Library/u8x8_byte.c ****   static uint8_t last_dc;
 257:/Users/imashio/Electronics/ARM/_Library/u8x8_byte.c ****  
 258:/Users/imashio/Electronics/ARM/_Library/u8x8_byte.c ****   switch(msg)
 259:/Users/imashio/Electronics/ARM/_Library/u8x8_byte.c ****   {
ARM GAS  /var/folders/v3/wysfpd052nz8jkbx04pk0ym80000gn/T//cclLoxDJ.s 			page 6


 260:/Users/imashio/Electronics/ARM/_Library/u8x8_byte.c ****     case U8X8_MSG_BYTE_SEND:
 261:/Users/imashio/Electronics/ARM/_Library/u8x8_byte.c ****       data = (uint8_t *)arg_ptr;
 262:/Users/imashio/Electronics/ARM/_Library/u8x8_byte.c ****       while( arg_int > 0 )
 263:/Users/imashio/Electronics/ARM/_Library/u8x8_byte.c ****       {
 264:/Users/imashio/Electronics/ARM/_Library/u8x8_byte.c **** 	b = *data;
 265:/Users/imashio/Electronics/ARM/_Library/u8x8_byte.c **** 	if ( last_dc != 0 )
 266:/Users/imashio/Electronics/ARM/_Library/u8x8_byte.c **** 	  b |= 256;
 267:/Users/imashio/Electronics/ARM/_Library/u8x8_byte.c **** 	data++;
 268:/Users/imashio/Electronics/ARM/_Library/u8x8_byte.c **** 	arg_int--;
 269:/Users/imashio/Electronics/ARM/_Library/u8x8_byte.c **** 	for( i = 0; i < 9; i++ )
 270:/Users/imashio/Electronics/ARM/_Library/u8x8_byte.c **** 	{
 271:/Users/imashio/Electronics/ARM/_Library/u8x8_byte.c **** 	  if ( b & 256 )
 272:/Users/imashio/Electronics/ARM/_Library/u8x8_byte.c **** 	    u8x8_gpio_SetSPIData(u8x8, 1);
 273:/Users/imashio/Electronics/ARM/_Library/u8x8_byte.c **** 	  else
 274:/Users/imashio/Electronics/ARM/_Library/u8x8_byte.c **** 	    u8x8_gpio_SetSPIData(u8x8, 0);
 275:/Users/imashio/Electronics/ARM/_Library/u8x8_byte.c **** 	  b <<= 1;
 276:/Users/imashio/Electronics/ARM/_Library/u8x8_byte.c **** 	  
 277:/Users/imashio/Electronics/ARM/_Library/u8x8_byte.c **** 	  u8x8_gpio_SetSPIClock(u8x8, not_takeover_edge);
 278:/Users/imashio/Electronics/ARM/_Library/u8x8_byte.c **** 	  u8x8_gpio_Delay(u8x8, U8X8_MSG_DELAY_NANO, u8x8->display_info->sda_setup_time_ns);
 279:/Users/imashio/Electronics/ARM/_Library/u8x8_byte.c **** 	  u8x8_gpio_SetSPIClock(u8x8, takeover_edge);
 280:/Users/imashio/Electronics/ARM/_Library/u8x8_byte.c **** 	  u8x8_gpio_Delay(u8x8, U8X8_MSG_DELAY_NANO, u8x8->display_info->sck_pulse_width_ns);
 281:/Users/imashio/Electronics/ARM/_Library/u8x8_byte.c **** 	}    
 282:/Users/imashio/Electronics/ARM/_Library/u8x8_byte.c ****       }
 283:/Users/imashio/Electronics/ARM/_Library/u8x8_byte.c ****       break;
 284:/Users/imashio/Electronics/ARM/_Library/u8x8_byte.c ****       
 285:/Users/imashio/Electronics/ARM/_Library/u8x8_byte.c ****     case U8X8_MSG_BYTE_INIT:
 286:/Users/imashio/Electronics/ARM/_Library/u8x8_byte.c ****       /* disable chipselect */
 287:/Users/imashio/Electronics/ARM/_Library/u8x8_byte.c ****       u8x8_gpio_SetCS(u8x8, u8x8->display_info->chip_disable_level);
 288:/Users/imashio/Electronics/ARM/_Library/u8x8_byte.c ****       /* no wait required here */
 289:/Users/imashio/Electronics/ARM/_Library/u8x8_byte.c ****       
 290:/Users/imashio/Electronics/ARM/_Library/u8x8_byte.c ****       /* for SPI: setup correct level of the clock signal */
 291:/Users/imashio/Electronics/ARM/_Library/u8x8_byte.c ****       u8x8_gpio_SetSPIClock(u8x8, u8x8_GetSPIClockPhase(u8x8));
 292:/Users/imashio/Electronics/ARM/_Library/u8x8_byte.c ****       break;
 293:/Users/imashio/Electronics/ARM/_Library/u8x8_byte.c ****     case U8X8_MSG_BYTE_SET_DC:
 294:/Users/imashio/Electronics/ARM/_Library/u8x8_byte.c ****       last_dc = arg_int;
 295:/Users/imashio/Electronics/ARM/_Library/u8x8_byte.c ****       break;
 296:/Users/imashio/Electronics/ARM/_Library/u8x8_byte.c ****     case U8X8_MSG_BYTE_START_TRANSFER:
 297:/Users/imashio/Electronics/ARM/_Library/u8x8_byte.c ****       u8x8_gpio_SetCS(u8x8, u8x8->display_info->chip_enable_level);  
 298:/Users/imashio/Electronics/ARM/_Library/u8x8_byte.c ****       u8x8->gpio_and_delay_cb(u8x8, U8X8_MSG_DELAY_NANO, u8x8->display_info->post_chip_enable_wait_
 299:/Users/imashio/Electronics/ARM/_Library/u8x8_byte.c ****       break;
 300:/Users/imashio/Electronics/ARM/_Library/u8x8_byte.c ****     case U8X8_MSG_BYTE_END_TRANSFER:
 301:/Users/imashio/Electronics/ARM/_Library/u8x8_byte.c ****       u8x8->gpio_and_delay_cb(u8x8, U8X8_MSG_DELAY_NANO, u8x8->display_info->pre_chip_disable_wait_
 302:/Users/imashio/Electronics/ARM/_Library/u8x8_byte.c ****       u8x8_gpio_SetCS(u8x8, u8x8->display_info->chip_disable_level);
 303:/Users/imashio/Electronics/ARM/_Library/u8x8_byte.c ****       break;
 304:/Users/imashio/Electronics/ARM/_Library/u8x8_byte.c ****     default:
 305:/Users/imashio/Electronics/ARM/_Library/u8x8_byte.c ****       return 0;
 306:/Users/imashio/Electronics/ARM/_Library/u8x8_byte.c ****   }
 307:/Users/imashio/Electronics/ARM/_Library/u8x8_byte.c ****   return 1;
 308:/Users/imashio/Electronics/ARM/_Library/u8x8_byte.c **** }
 309:/Users/imashio/Electronics/ARM/_Library/u8x8_byte.c **** 
 310:/Users/imashio/Electronics/ARM/_Library/u8x8_byte.c **** /*=========================================*/
 311:/Users/imashio/Electronics/ARM/_Library/u8x8_byte.c **** 
 312:/Users/imashio/Electronics/ARM/_Library/u8x8_byte.c **** void u8x8_byte_set_ks0108_cs(u8x8_t *u8x8, uint8_t arg)
 313:/Users/imashio/Electronics/ARM/_Library/u8x8_byte.c **** {
 314:/Users/imashio/Electronics/ARM/_Library/u8x8_byte.c ****   u8x8_gpio_SetCS(u8x8, arg&1);
 315:/Users/imashio/Electronics/ARM/_Library/u8x8_byte.c ****   arg = arg >> 1;
 316:/Users/imashio/Electronics/ARM/_Library/u8x8_byte.c ****   u8x8_gpio_call(u8x8, U8X8_MSG_GPIO_CS1, arg&1);
ARM GAS  /var/folders/v3/wysfpd052nz8jkbx04pk0ym80000gn/T//cclLoxDJ.s 			page 7


 317:/Users/imashio/Electronics/ARM/_Library/u8x8_byte.c ****   arg = arg >> 2;
 318:/Users/imashio/Electronics/ARM/_Library/u8x8_byte.c ****   u8x8_gpio_call(u8x8, U8X8_MSG_GPIO_CS2, arg&1);
 319:/Users/imashio/Electronics/ARM/_Library/u8x8_byte.c **** }
 320:/Users/imashio/Electronics/ARM/_Library/u8x8_byte.c **** 
 321:/Users/imashio/Electronics/ARM/_Library/u8x8_byte.c **** /* 6800 mode */
 322:/Users/imashio/Electronics/ARM/_Library/u8x8_byte.c **** uint8_t u8x8_byte_ks0108(u8x8_t *u8x8, uint8_t msg, uint8_t arg_int, void *arg_ptr)
 323:/Users/imashio/Electronics/ARM/_Library/u8x8_byte.c **** {
 324:/Users/imashio/Electronics/ARM/_Library/u8x8_byte.c ****   uint8_t i, b;
 325:/Users/imashio/Electronics/ARM/_Library/u8x8_byte.c ****   uint8_t *data;
 326:/Users/imashio/Electronics/ARM/_Library/u8x8_byte.c ****  
 327:/Users/imashio/Electronics/ARM/_Library/u8x8_byte.c ****   switch(msg)
 328:/Users/imashio/Electronics/ARM/_Library/u8x8_byte.c ****   {
 329:/Users/imashio/Electronics/ARM/_Library/u8x8_byte.c ****     case U8X8_MSG_BYTE_SEND:
 330:/Users/imashio/Electronics/ARM/_Library/u8x8_byte.c ****       data = (uint8_t *)arg_ptr;
 331:/Users/imashio/Electronics/ARM/_Library/u8x8_byte.c ****       while( arg_int > 0 )
 332:/Users/imashio/Electronics/ARM/_Library/u8x8_byte.c ****       {
 333:/Users/imashio/Electronics/ARM/_Library/u8x8_byte.c **** 	b = *data;
 334:/Users/imashio/Electronics/ARM/_Library/u8x8_byte.c **** 	data++;
 335:/Users/imashio/Electronics/ARM/_Library/u8x8_byte.c **** 	arg_int--;
 336:/Users/imashio/Electronics/ARM/_Library/u8x8_byte.c **** 	for( i = U8X8_MSG_GPIO_D0; i <= U8X8_MSG_GPIO_D7; i++ )
 337:/Users/imashio/Electronics/ARM/_Library/u8x8_byte.c **** 	{
 338:/Users/imashio/Electronics/ARM/_Library/u8x8_byte.c **** 	  u8x8_gpio_call(u8x8, i, b&1);
 339:/Users/imashio/Electronics/ARM/_Library/u8x8_byte.c **** 	  b >>= 1;
 340:/Users/imashio/Electronics/ARM/_Library/u8x8_byte.c **** 	}    
 341:/Users/imashio/Electronics/ARM/_Library/u8x8_byte.c **** 	
 342:/Users/imashio/Electronics/ARM/_Library/u8x8_byte.c **** 	u8x8_gpio_Delay(u8x8, U8X8_MSG_DELAY_NANO, u8x8->display_info->data_setup_time_ns);
 343:/Users/imashio/Electronics/ARM/_Library/u8x8_byte.c **** 	u8x8_gpio_call(u8x8, U8X8_MSG_GPIO_E, 1);
 344:/Users/imashio/Electronics/ARM/_Library/u8x8_byte.c **** 	u8x8_gpio_Delay(u8x8, U8X8_MSG_DELAY_NANO, u8x8->display_info->write_pulse_width_ns);
 345:/Users/imashio/Electronics/ARM/_Library/u8x8_byte.c **** 	u8x8_gpio_call(u8x8, U8X8_MSG_GPIO_E, 0);
 346:/Users/imashio/Electronics/ARM/_Library/u8x8_byte.c ****       }
 347:/Users/imashio/Electronics/ARM/_Library/u8x8_byte.c ****       break;
 348:/Users/imashio/Electronics/ARM/_Library/u8x8_byte.c ****       
 349:/Users/imashio/Electronics/ARM/_Library/u8x8_byte.c ****     case U8X8_MSG_BYTE_INIT:
 350:/Users/imashio/Electronics/ARM/_Library/u8x8_byte.c ****       /* disable chipselect */
 351:/Users/imashio/Electronics/ARM/_Library/u8x8_byte.c ****       u8x8_gpio_SetCS(u8x8, u8x8->display_info->chip_disable_level);    
 352:/Users/imashio/Electronics/ARM/_Library/u8x8_byte.c ****       /* ensure that the enable signal is low */
 353:/Users/imashio/Electronics/ARM/_Library/u8x8_byte.c ****       u8x8_gpio_call(u8x8, U8X8_MSG_GPIO_E, 0);
 354:/Users/imashio/Electronics/ARM/_Library/u8x8_byte.c ****       break;
 355:/Users/imashio/Electronics/ARM/_Library/u8x8_byte.c ****     case U8X8_MSG_BYTE_SET_DC:
 356:/Users/imashio/Electronics/ARM/_Library/u8x8_byte.c ****       u8x8_gpio_SetDC(u8x8, arg_int);
 357:/Users/imashio/Electronics/ARM/_Library/u8x8_byte.c ****       break;
 358:/Users/imashio/Electronics/ARM/_Library/u8x8_byte.c ****     case U8X8_MSG_BYTE_START_TRANSFER:
 359:/Users/imashio/Electronics/ARM/_Library/u8x8_byte.c ****       /* expects 3 bits in arg_int for the chip select lines */ 
 360:/Users/imashio/Electronics/ARM/_Library/u8x8_byte.c ****       u8x8_byte_set_ks0108_cs(u8x8, arg_int);
 361:/Users/imashio/Electronics/ARM/_Library/u8x8_byte.c ****       u8x8->gpio_and_delay_cb(u8x8, U8X8_MSG_DELAY_NANO, u8x8->display_info->post_chip_enable_wait_
 362:/Users/imashio/Electronics/ARM/_Library/u8x8_byte.c ****       break;
 363:/Users/imashio/Electronics/ARM/_Library/u8x8_byte.c ****     case U8X8_MSG_BYTE_END_TRANSFER:
 364:/Users/imashio/Electronics/ARM/_Library/u8x8_byte.c ****       u8x8->gpio_and_delay_cb(u8x8, U8X8_MSG_DELAY_NANO, u8x8->display_info->pre_chip_disable_wait_
 365:/Users/imashio/Electronics/ARM/_Library/u8x8_byte.c ****       u8x8_byte_set_ks0108_cs(u8x8, arg_int);
 366:/Users/imashio/Electronics/ARM/_Library/u8x8_byte.c ****       break;
 367:/Users/imashio/Electronics/ARM/_Library/u8x8_byte.c ****     default:
 368:/Users/imashio/Electronics/ARM/_Library/u8x8_byte.c ****       return 0;
 369:/Users/imashio/Electronics/ARM/_Library/u8x8_byte.c ****   }
 370:/Users/imashio/Electronics/ARM/_Library/u8x8_byte.c ****   return 1;
 371:/Users/imashio/Electronics/ARM/_Library/u8x8_byte.c **** }
 372:/Users/imashio/Electronics/ARM/_Library/u8x8_byte.c **** 
 373:/Users/imashio/Electronics/ARM/_Library/u8x8_byte.c **** 
ARM GAS  /var/folders/v3/wysfpd052nz8jkbx04pk0ym80000gn/T//cclLoxDJ.s 			page 8


 374:/Users/imashio/Electronics/ARM/_Library/u8x8_byte.c **** /* sed1520 or sbn1661 
 375:/Users/imashio/Electronics/ARM/_Library/u8x8_byte.c ****   U8X8_MSG_GPIO_E --> E1
 376:/Users/imashio/Electronics/ARM/_Library/u8x8_byte.c ****   U8X8_MSG_GPIO_CS --> E2
 377:/Users/imashio/Electronics/ARM/_Library/u8x8_byte.c **** */
 378:/Users/imashio/Electronics/ARM/_Library/u8x8_byte.c **** uint8_t u8x8_byte_sed1520(u8x8_t *u8x8, uint8_t msg, uint8_t arg_int, void *arg_ptr)
 379:/Users/imashio/Electronics/ARM/_Library/u8x8_byte.c **** {
 380:/Users/imashio/Electronics/ARM/_Library/u8x8_byte.c ****   uint8_t i, b;
 381:/Users/imashio/Electronics/ARM/_Library/u8x8_byte.c ****   uint8_t *data;
 382:/Users/imashio/Electronics/ARM/_Library/u8x8_byte.c ****   static uint8_t enable_pin;
 383:/Users/imashio/Electronics/ARM/_Library/u8x8_byte.c ****  
 384:/Users/imashio/Electronics/ARM/_Library/u8x8_byte.c ****   switch(msg)
 385:/Users/imashio/Electronics/ARM/_Library/u8x8_byte.c ****   {
 386:/Users/imashio/Electronics/ARM/_Library/u8x8_byte.c ****     case U8X8_MSG_BYTE_SEND:
 387:/Users/imashio/Electronics/ARM/_Library/u8x8_byte.c ****       data = (uint8_t *)arg_ptr;
 388:/Users/imashio/Electronics/ARM/_Library/u8x8_byte.c ****       while( arg_int > 0 )
 389:/Users/imashio/Electronics/ARM/_Library/u8x8_byte.c ****       {
 390:/Users/imashio/Electronics/ARM/_Library/u8x8_byte.c **** 	b = *data;
 391:/Users/imashio/Electronics/ARM/_Library/u8x8_byte.c **** 	data++;
 392:/Users/imashio/Electronics/ARM/_Library/u8x8_byte.c **** 	arg_int--;
 393:/Users/imashio/Electronics/ARM/_Library/u8x8_byte.c **** 	for( i = U8X8_MSG_GPIO_D0; i <= U8X8_MSG_GPIO_D7; i++ )
 394:/Users/imashio/Electronics/ARM/_Library/u8x8_byte.c **** 	{
 395:/Users/imashio/Electronics/ARM/_Library/u8x8_byte.c **** 	  u8x8_gpio_call(u8x8, i, b&1);
 396:/Users/imashio/Electronics/ARM/_Library/u8x8_byte.c **** 	  b >>= 1;
 397:/Users/imashio/Electronics/ARM/_Library/u8x8_byte.c **** 	}    
 398:/Users/imashio/Electronics/ARM/_Library/u8x8_byte.c **** 	
 399:/Users/imashio/Electronics/ARM/_Library/u8x8_byte.c **** 	u8x8_gpio_Delay(u8x8, U8X8_MSG_DELAY_NANO, u8x8->display_info->data_setup_time_ns);
 400:/Users/imashio/Electronics/ARM/_Library/u8x8_byte.c **** 	u8x8_gpio_call(u8x8, enable_pin, 1);
 401:/Users/imashio/Electronics/ARM/_Library/u8x8_byte.c **** 	u8x8_gpio_Delay(u8x8, U8X8_MSG_DELAY_NANO, u8x8->display_info->write_pulse_width_ns);
 402:/Users/imashio/Electronics/ARM/_Library/u8x8_byte.c **** 	u8x8_gpio_call(u8x8, enable_pin, 0);
 403:/Users/imashio/Electronics/ARM/_Library/u8x8_byte.c ****       }
 404:/Users/imashio/Electronics/ARM/_Library/u8x8_byte.c ****       break;
 405:/Users/imashio/Electronics/ARM/_Library/u8x8_byte.c ****       
 406:/Users/imashio/Electronics/ARM/_Library/u8x8_byte.c ****     case U8X8_MSG_BYTE_INIT:
 407:/Users/imashio/Electronics/ARM/_Library/u8x8_byte.c ****       /* disable chipselect */
 408:/Users/imashio/Electronics/ARM/_Library/u8x8_byte.c ****       u8x8_gpio_SetCS(u8x8, u8x8->display_info->chip_disable_level);    
 409:/Users/imashio/Electronics/ARM/_Library/u8x8_byte.c ****       /* ensure that the enable signals are low */
 410:/Users/imashio/Electronics/ARM/_Library/u8x8_byte.c ****       u8x8_gpio_call(u8x8, U8X8_MSG_GPIO_E, 0);
 411:/Users/imashio/Electronics/ARM/_Library/u8x8_byte.c ****       u8x8_gpio_call(u8x8, U8X8_MSG_GPIO_CS, 0);
 412:/Users/imashio/Electronics/ARM/_Library/u8x8_byte.c ****       enable_pin = U8X8_MSG_GPIO_E;
 413:/Users/imashio/Electronics/ARM/_Library/u8x8_byte.c ****       break;
 414:/Users/imashio/Electronics/ARM/_Library/u8x8_byte.c ****     case U8X8_MSG_BYTE_SET_DC:
 415:/Users/imashio/Electronics/ARM/_Library/u8x8_byte.c ****       u8x8_gpio_SetDC(u8x8, arg_int);
 416:/Users/imashio/Electronics/ARM/_Library/u8x8_byte.c ****       break;
 417:/Users/imashio/Electronics/ARM/_Library/u8x8_byte.c ****     case U8X8_MSG_BYTE_START_TRANSFER:
 418:/Users/imashio/Electronics/ARM/_Library/u8x8_byte.c ****       /* cs lines are not supported for the SED1520/SBN1661 */
 419:/Users/imashio/Electronics/ARM/_Library/u8x8_byte.c ****       /* instead, this will select the E1 or E2 line */ 
 420:/Users/imashio/Electronics/ARM/_Library/u8x8_byte.c ****       enable_pin = U8X8_MSG_GPIO_E;
 421:/Users/imashio/Electronics/ARM/_Library/u8x8_byte.c ****       if ( arg_int != 0 )
 422:/Users/imashio/Electronics/ARM/_Library/u8x8_byte.c **** 	enable_pin = U8X8_MSG_GPIO_CS;
 423:/Users/imashio/Electronics/ARM/_Library/u8x8_byte.c ****       break;
 424:/Users/imashio/Electronics/ARM/_Library/u8x8_byte.c ****     case U8X8_MSG_BYTE_END_TRANSFER:
 425:/Users/imashio/Electronics/ARM/_Library/u8x8_byte.c ****       break;
 426:/Users/imashio/Electronics/ARM/_Library/u8x8_byte.c ****     default:
 427:/Users/imashio/Electronics/ARM/_Library/u8x8_byte.c ****       return 0;
 428:/Users/imashio/Electronics/ARM/_Library/u8x8_byte.c ****   }
 429:/Users/imashio/Electronics/ARM/_Library/u8x8_byte.c ****   return 1;
 430:/Users/imashio/Electronics/ARM/_Library/u8x8_byte.c **** }
ARM GAS  /var/folders/v3/wysfpd052nz8jkbx04pk0ym80000gn/T//cclLoxDJ.s 			page 9


 431:/Users/imashio/Electronics/ARM/_Library/u8x8_byte.c **** 
 432:/Users/imashio/Electronics/ARM/_Library/u8x8_byte.c **** /*=========================================*/
 433:/Users/imashio/Electronics/ARM/_Library/u8x8_byte.c **** 
 434:/Users/imashio/Electronics/ARM/_Library/u8x8_byte.c **** 
 435:/Users/imashio/Electronics/ARM/_Library/u8x8_byte.c **** /*
 436:/Users/imashio/Electronics/ARM/_Library/u8x8_byte.c ****   software i2c,
 437:/Users/imashio/Electronics/ARM/_Library/u8x8_byte.c ****   ignores ACK response (which is anyway not provided by some displays)
 438:/Users/imashio/Electronics/ARM/_Library/u8x8_byte.c ****   also does not allow reading from the device
 439:/Users/imashio/Electronics/ARM/_Library/u8x8_byte.c **** */
 440:/Users/imashio/Electronics/ARM/_Library/u8x8_byte.c **** static void i2c_delay(u8x8_t *u8x8) U8X8_NOINLINE;
 441:/Users/imashio/Electronics/ARM/_Library/u8x8_byte.c **** static void i2c_delay(u8x8_t *u8x8)
 442:/Users/imashio/Electronics/ARM/_Library/u8x8_byte.c **** {
  28              		.loc 1 442 0
  29              		.cfi_startproc
  30              		@ args = 0, pretend = 0, frame = 0
  31              		@ frame_needed = 0, uses_anonymous_args = 0
  32              		@ link register save eliminated.
  33              	.LVL0:
 443:/Users/imashio/Electronics/ARM/_Library/u8x8_byte.c ****   //u8x8_gpio_Delay(u8x8, U8X8_MSG_DELAY_10MICRO, u8x8->display_info->i2c_bus_clock_100kHz);
 444:/Users/imashio/Electronics/ARM/_Library/u8x8_byte.c ****   u8x8_gpio_Delay(u8x8, U8X8_MSG_DELAY_I2C, u8x8->display_info->i2c_bus_clock_100kHz);
  34              		.loc 1 444 0
  35 0000 0368     		ldr	r3, [r0]
  36 0002 2D21     		movs	r1, #45
  37 0004 5A7B     		ldrb	r2, [r3, #13]	@ zero_extendqisi2
  38 0006 FFF7FEBF 		b	u8x8_gpio_call
  39              	.LVL1:
  40              		.cfi_endproc
  41              	.LFE12:
  43 000a 00BF     		.section	.text.i2c_write_bit,"ax",%progbits
  44              		.align	1
  45              		.p2align 2,,3
  46              		.syntax unified
  47              		.thumb
  48              		.thumb_func
  49              		.fpu fpv4-sp-d16
  51              	i2c_write_bit:
  52              	.LFB20:
 445:/Users/imashio/Electronics/ARM/_Library/u8x8_byte.c **** }
 446:/Users/imashio/Electronics/ARM/_Library/u8x8_byte.c **** 
 447:/Users/imashio/Electronics/ARM/_Library/u8x8_byte.c **** static void i2c_init(u8x8_t *u8x8)
 448:/Users/imashio/Electronics/ARM/_Library/u8x8_byte.c **** {
 449:/Users/imashio/Electronics/ARM/_Library/u8x8_byte.c ****   u8x8_gpio_SetI2CClock(u8x8, 1);
 450:/Users/imashio/Electronics/ARM/_Library/u8x8_byte.c ****   u8x8_gpio_SetI2CData(u8x8, 1);
 451:/Users/imashio/Electronics/ARM/_Library/u8x8_byte.c ****   
 452:/Users/imashio/Electronics/ARM/_Library/u8x8_byte.c ****   i2c_delay(u8x8);
 453:/Users/imashio/Electronics/ARM/_Library/u8x8_byte.c **** }
 454:/Users/imashio/Electronics/ARM/_Library/u8x8_byte.c **** 
 455:/Users/imashio/Electronics/ARM/_Library/u8x8_byte.c **** /* actually, the scl line is not observed, so this procedure does not return a value */
 456:/Users/imashio/Electronics/ARM/_Library/u8x8_byte.c **** 
 457:/Users/imashio/Electronics/ARM/_Library/u8x8_byte.c **** static void i2c_read_scl_and_delay(u8x8_t *u8x8)
 458:/Users/imashio/Electronics/ARM/_Library/u8x8_byte.c **** {
 459:/Users/imashio/Electronics/ARM/_Library/u8x8_byte.c ****   /* set as input (line will be high) */
 460:/Users/imashio/Electronics/ARM/_Library/u8x8_byte.c ****   u8x8_gpio_SetI2CClock(u8x8, 1);
 461:/Users/imashio/Electronics/ARM/_Library/u8x8_byte.c **** 
 462:/Users/imashio/Electronics/ARM/_Library/u8x8_byte.c ****   i2c_delay(u8x8);
 463:/Users/imashio/Electronics/ARM/_Library/u8x8_byte.c **** }
 464:/Users/imashio/Electronics/ARM/_Library/u8x8_byte.c **** 
ARM GAS  /var/folders/v3/wysfpd052nz8jkbx04pk0ym80000gn/T//cclLoxDJ.s 			page 10


 465:/Users/imashio/Electronics/ARM/_Library/u8x8_byte.c **** static void i2c_clear_scl(u8x8_t *u8x8)
 466:/Users/imashio/Electronics/ARM/_Library/u8x8_byte.c **** {
 467:/Users/imashio/Electronics/ARM/_Library/u8x8_byte.c ****   u8x8_gpio_SetI2CClock(u8x8, 0);
 468:/Users/imashio/Electronics/ARM/_Library/u8x8_byte.c **** }
 469:/Users/imashio/Electronics/ARM/_Library/u8x8_byte.c **** 
 470:/Users/imashio/Electronics/ARM/_Library/u8x8_byte.c **** static void i2c_read_sda(u8x8_t *u8x8)
 471:/Users/imashio/Electronics/ARM/_Library/u8x8_byte.c **** {
 472:/Users/imashio/Electronics/ARM/_Library/u8x8_byte.c ****   /* set as input (line will be high) */
 473:/Users/imashio/Electronics/ARM/_Library/u8x8_byte.c ****   u8x8_gpio_SetI2CData(u8x8, 1);
 474:/Users/imashio/Electronics/ARM/_Library/u8x8_byte.c **** }
 475:/Users/imashio/Electronics/ARM/_Library/u8x8_byte.c **** 
 476:/Users/imashio/Electronics/ARM/_Library/u8x8_byte.c **** static void i2c_clear_sda(u8x8_t *u8x8)
 477:/Users/imashio/Electronics/ARM/_Library/u8x8_byte.c **** {
 478:/Users/imashio/Electronics/ARM/_Library/u8x8_byte.c ****   /* set open collector and drive low */
 479:/Users/imashio/Electronics/ARM/_Library/u8x8_byte.c ****   u8x8_gpio_SetI2CData(u8x8, 0);
 480:/Users/imashio/Electronics/ARM/_Library/u8x8_byte.c **** }
 481:/Users/imashio/Electronics/ARM/_Library/u8x8_byte.c **** 
 482:/Users/imashio/Electronics/ARM/_Library/u8x8_byte.c **** static void i2c_start(u8x8_t *u8x8)
 483:/Users/imashio/Electronics/ARM/_Library/u8x8_byte.c **** {
 484:/Users/imashio/Electronics/ARM/_Library/u8x8_byte.c ****   if ( u8x8->i2c_started != 0 )
 485:/Users/imashio/Electronics/ARM/_Library/u8x8_byte.c ****   {
 486:/Users/imashio/Electronics/ARM/_Library/u8x8_byte.c ****     /* if already started: do restart */
 487:/Users/imashio/Electronics/ARM/_Library/u8x8_byte.c ****     i2c_read_sda(u8x8);     /* SDA = 1 */
 488:/Users/imashio/Electronics/ARM/_Library/u8x8_byte.c ****     i2c_delay(u8x8);
 489:/Users/imashio/Electronics/ARM/_Library/u8x8_byte.c ****     i2c_read_scl_and_delay(u8x8);
 490:/Users/imashio/Electronics/ARM/_Library/u8x8_byte.c ****   }
 491:/Users/imashio/Electronics/ARM/_Library/u8x8_byte.c ****   i2c_read_sda(u8x8);
 492:/Users/imashio/Electronics/ARM/_Library/u8x8_byte.c ****   /* send the start condition, both lines go from 1 to 0 */
 493:/Users/imashio/Electronics/ARM/_Library/u8x8_byte.c ****   i2c_clear_sda(u8x8);
 494:/Users/imashio/Electronics/ARM/_Library/u8x8_byte.c ****   i2c_delay(u8x8);
 495:/Users/imashio/Electronics/ARM/_Library/u8x8_byte.c ****   i2c_clear_scl(u8x8);
 496:/Users/imashio/Electronics/ARM/_Library/u8x8_byte.c ****   u8x8->i2c_started = 1;
 497:/Users/imashio/Electronics/ARM/_Library/u8x8_byte.c **** }
 498:/Users/imashio/Electronics/ARM/_Library/u8x8_byte.c **** 
 499:/Users/imashio/Electronics/ARM/_Library/u8x8_byte.c **** 
 500:/Users/imashio/Electronics/ARM/_Library/u8x8_byte.c **** static void i2c_stop(u8x8_t *u8x8)
 501:/Users/imashio/Electronics/ARM/_Library/u8x8_byte.c **** {
 502:/Users/imashio/Electronics/ARM/_Library/u8x8_byte.c ****   /* set SDA to 0 */
 503:/Users/imashio/Electronics/ARM/_Library/u8x8_byte.c ****   i2c_clear_sda(u8x8);  
 504:/Users/imashio/Electronics/ARM/_Library/u8x8_byte.c ****   i2c_delay(u8x8);
 505:/Users/imashio/Electronics/ARM/_Library/u8x8_byte.c ****  
 506:/Users/imashio/Electronics/ARM/_Library/u8x8_byte.c ****   /* now release all lines */
 507:/Users/imashio/Electronics/ARM/_Library/u8x8_byte.c ****   i2c_read_scl_and_delay(u8x8);
 508:/Users/imashio/Electronics/ARM/_Library/u8x8_byte.c ****  
 509:/Users/imashio/Electronics/ARM/_Library/u8x8_byte.c ****   /* set SDA to 1 */
 510:/Users/imashio/Electronics/ARM/_Library/u8x8_byte.c ****   i2c_read_sda(u8x8);
 511:/Users/imashio/Electronics/ARM/_Library/u8x8_byte.c ****   i2c_delay(u8x8);
 512:/Users/imashio/Electronics/ARM/_Library/u8x8_byte.c ****   u8x8->i2c_started = 0;
 513:/Users/imashio/Electronics/ARM/_Library/u8x8_byte.c **** }
 514:/Users/imashio/Electronics/ARM/_Library/u8x8_byte.c **** 
 515:/Users/imashio/Electronics/ARM/_Library/u8x8_byte.c **** static void i2c_write_bit(u8x8_t *u8x8, uint8_t val)
 516:/Users/imashio/Electronics/ARM/_Library/u8x8_byte.c **** {
  53              		.loc 1 516 0
  54              		.cfi_startproc
  55              		@ args = 0, pretend = 0, frame = 0
  56              		@ frame_needed = 0, uses_anonymous_args = 0
  57              	.LVL2:
ARM GAS  /var/folders/v3/wysfpd052nz8jkbx04pk0ym80000gn/T//cclLoxDJ.s 			page 11


  58 0000 10B5     		push	{r4, lr}
  59              	.LCFI0:
  60              		.cfi_def_cfa_offset 8
  61              		.cfi_offset 4, -8
  62              		.cfi_offset 14, -4
  63              		.loc 1 516 0
  64 0002 0446     		mov	r4, r0
 517:/Users/imashio/Electronics/ARM/_Library/u8x8_byte.c ****   if (val)
  65              		.loc 1 517 0
  66 0004 A9B9     		cbnz	r1, .L7
  67              	.LVL3:
  68              	.LBB34:
  69              	.LBB35:
 479:/Users/imashio/Electronics/ARM/_Library/u8x8_byte.c **** }
  70              		.loc 1 479 0
  71 0006 0A46     		mov	r2, r1
  72 0008 4D21     		movs	r1, #77
  73              	.LVL4:
  74 000a FFF7FEFF 		bl	u8x8_gpio_call
  75              	.LVL5:
  76              	.L5:
  77              	.LBE35:
  78              	.LBE34:
 518:/Users/imashio/Electronics/ARM/_Library/u8x8_byte.c ****     i2c_read_sda(u8x8);
 519:/Users/imashio/Electronics/ARM/_Library/u8x8_byte.c ****   else
 520:/Users/imashio/Electronics/ARM/_Library/u8x8_byte.c ****     i2c_clear_sda(u8x8);
 521:/Users/imashio/Electronics/ARM/_Library/u8x8_byte.c ****  
 522:/Users/imashio/Electronics/ARM/_Library/u8x8_byte.c ****   i2c_delay(u8x8);
  79              		.loc 1 522 0
  80 000e 2046     		mov	r0, r4
  81 0010 FFF7FEFF 		bl	i2c_delay
  82              	.LVL6:
  83              	.LBB36:
  84              	.LBB37:
 460:/Users/imashio/Electronics/ARM/_Library/u8x8_byte.c **** 
  85              		.loc 1 460 0
  86 0014 0122     		movs	r2, #1
  87 0016 4C21     		movs	r1, #76
  88 0018 2046     		mov	r0, r4
  89 001a FFF7FEFF 		bl	u8x8_gpio_call
  90              	.LVL7:
 462:/Users/imashio/Electronics/ARM/_Library/u8x8_byte.c **** }
  91              		.loc 1 462 0
  92 001e 2046     		mov	r0, r4
  93 0020 FFF7FEFF 		bl	i2c_delay
  94              	.LVL8:
  95              	.LBE37:
  96              	.LBE36:
  97              	.LBB38:
  98              	.LBB39:
 467:/Users/imashio/Electronics/ARM/_Library/u8x8_byte.c **** }
  99              		.loc 1 467 0
 100 0024 2046     		mov	r0, r4
 101 0026 0022     		movs	r2, #0
 102 0028 4C21     		movs	r1, #76
 103              	.LBE39:
 104              	.LBE38:
ARM GAS  /var/folders/v3/wysfpd052nz8jkbx04pk0ym80000gn/T//cclLoxDJ.s 			page 12


 523:/Users/imashio/Electronics/ARM/_Library/u8x8_byte.c ****   i2c_read_scl_and_delay(u8x8);
 524:/Users/imashio/Electronics/ARM/_Library/u8x8_byte.c ****   i2c_clear_scl(u8x8);
 525:/Users/imashio/Electronics/ARM/_Library/u8x8_byte.c **** }
 105              		.loc 1 525 0
 106 002a BDE81040 		pop	{r4, lr}
 107              	.LCFI1:
 108              		.cfi_remember_state
 109              		.cfi_restore 14
 110              		.cfi_restore 4
 111              		.cfi_def_cfa_offset 0
 112              	.LVL9:
 113              	.LBB41:
 114              	.LBB40:
 467:/Users/imashio/Electronics/ARM/_Library/u8x8_byte.c **** }
 115              		.loc 1 467 0
 116 002e FFF7FEBF 		b	u8x8_gpio_call
 117              	.LVL10:
 118              	.L7:
 119              	.LCFI2:
 120              		.cfi_restore_state
 121              	.LBE40:
 122              	.LBE41:
 123              	.LBB42:
 124              	.LBB43:
 473:/Users/imashio/Electronics/ARM/_Library/u8x8_byte.c **** }
 125              		.loc 1 473 0
 126 0032 0122     		movs	r2, #1
 127 0034 4D21     		movs	r1, #77
 128              	.LVL11:
 129 0036 FFF7FEFF 		bl	u8x8_gpio_call
 130              	.LVL12:
 131 003a E8E7     		b	.L5
 132              	.LBE43:
 133              	.LBE42:
 134              		.cfi_endproc
 135              	.LFE20:
 137              		.section	.text.i2c_write_byte,"ax",%progbits
 138              		.align	1
 139              		.p2align 2,,3
 140              		.syntax unified
 141              		.thumb
 142              		.thumb_func
 143              		.fpu fpv4-sp-d16
 145              	i2c_write_byte:
 146              	.LFB22:
 526:/Users/imashio/Electronics/ARM/_Library/u8x8_byte.c **** 
 527:/Users/imashio/Electronics/ARM/_Library/u8x8_byte.c **** static void i2c_read_bit(u8x8_t *u8x8)
 528:/Users/imashio/Electronics/ARM/_Library/u8x8_byte.c **** {
 529:/Users/imashio/Electronics/ARM/_Library/u8x8_byte.c ****   //uint8_t val;
 530:/Users/imashio/Electronics/ARM/_Library/u8x8_byte.c ****   /* do not drive SDA */
 531:/Users/imashio/Electronics/ARM/_Library/u8x8_byte.c ****   i2c_read_sda(u8x8);
 532:/Users/imashio/Electronics/ARM/_Library/u8x8_byte.c ****   i2c_delay(u8x8);
 533:/Users/imashio/Electronics/ARM/_Library/u8x8_byte.c ****   i2c_read_scl_and_delay(u8x8);
 534:/Users/imashio/Electronics/ARM/_Library/u8x8_byte.c ****   i2c_read_sda(u8x8);
 535:/Users/imashio/Electronics/ARM/_Library/u8x8_byte.c ****   i2c_delay(u8x8);
 536:/Users/imashio/Electronics/ARM/_Library/u8x8_byte.c ****   i2c_clear_scl(u8x8);
 537:/Users/imashio/Electronics/ARM/_Library/u8x8_byte.c ****   //return val;
ARM GAS  /var/folders/v3/wysfpd052nz8jkbx04pk0ym80000gn/T//cclLoxDJ.s 			page 13


 538:/Users/imashio/Electronics/ARM/_Library/u8x8_byte.c **** }
 539:/Users/imashio/Electronics/ARM/_Library/u8x8_byte.c **** 
 540:/Users/imashio/Electronics/ARM/_Library/u8x8_byte.c **** static void i2c_write_byte(u8x8_t *u8x8, uint8_t b)
 541:/Users/imashio/Electronics/ARM/_Library/u8x8_byte.c **** {
 147              		.loc 1 541 0
 148              		.cfi_startproc
 149              		@ args = 0, pretend = 0, frame = 0
 150              		@ frame_needed = 0, uses_anonymous_args = 0
 151              	.LVL13:
 152 0000 38B5     		push	{r3, r4, r5, lr}
 153              	.LCFI3:
 154              		.cfi_def_cfa_offset 16
 155              		.cfi_offset 3, -16
 156              		.cfi_offset 4, -12
 157              		.cfi_offset 5, -8
 158              		.cfi_offset 14, -4
 159              		.loc 1 541 0
 160 0002 0446     		mov	r4, r0
 161 0004 0D46     		mov	r5, r1
 542:/Users/imashio/Electronics/ARM/_Library/u8x8_byte.c ****   i2c_write_bit(u8x8, b & 128);
 162              		.loc 1 542 0
 163 0006 01F08001 		and	r1, r1, #128
 164              	.LVL14:
 165 000a FFF7FEFF 		bl	i2c_write_bit
 166              	.LVL15:
 543:/Users/imashio/Electronics/ARM/_Library/u8x8_byte.c ****   i2c_write_bit(u8x8, b & 64);
 167              		.loc 1 543 0
 168 000e 05F04001 		and	r1, r5, #64
 169 0012 2046     		mov	r0, r4
 170 0014 FFF7FEFF 		bl	i2c_write_bit
 171              	.LVL16:
 544:/Users/imashio/Electronics/ARM/_Library/u8x8_byte.c ****   i2c_write_bit(u8x8, b & 32);
 172              		.loc 1 544 0
 173 0018 05F02001 		and	r1, r5, #32
 174 001c 2046     		mov	r0, r4
 175 001e FFF7FEFF 		bl	i2c_write_bit
 176              	.LVL17:
 545:/Users/imashio/Electronics/ARM/_Library/u8x8_byte.c ****   i2c_write_bit(u8x8, b & 16);
 177              		.loc 1 545 0
 178 0022 05F01001 		and	r1, r5, #16
 179 0026 2046     		mov	r0, r4
 180 0028 FFF7FEFF 		bl	i2c_write_bit
 181              	.LVL18:
 546:/Users/imashio/Electronics/ARM/_Library/u8x8_byte.c ****   i2c_write_bit(u8x8, b & 8);
 182              		.loc 1 546 0
 183 002c 05F00801 		and	r1, r5, #8
 184 0030 2046     		mov	r0, r4
 185 0032 FFF7FEFF 		bl	i2c_write_bit
 186              	.LVL19:
 547:/Users/imashio/Electronics/ARM/_Library/u8x8_byte.c ****   i2c_write_bit(u8x8, b & 4);
 187              		.loc 1 547 0
 188 0036 05F00401 		and	r1, r5, #4
 189 003a 2046     		mov	r0, r4
 190 003c FFF7FEFF 		bl	i2c_write_bit
 191              	.LVL20:
 548:/Users/imashio/Electronics/ARM/_Library/u8x8_byte.c ****   i2c_write_bit(u8x8, b & 2);
 192              		.loc 1 548 0
ARM GAS  /var/folders/v3/wysfpd052nz8jkbx04pk0ym80000gn/T//cclLoxDJ.s 			page 14


 193 0040 05F00201 		and	r1, r5, #2
 194 0044 2046     		mov	r0, r4
 195 0046 FFF7FEFF 		bl	i2c_write_bit
 196              	.LVL21:
 549:/Users/imashio/Electronics/ARM/_Library/u8x8_byte.c ****   i2c_write_bit(u8x8, b & 1);
 197              		.loc 1 549 0
 198 004a 05F00101 		and	r1, r5, #1
 199 004e 2046     		mov	r0, r4
 200 0050 FFF7FEFF 		bl	i2c_write_bit
 201              	.LVL22:
 202              	.LBB54:
 203              	.LBB55:
 204              	.LBB56:
 205              	.LBB57:
 473:/Users/imashio/Electronics/ARM/_Library/u8x8_byte.c **** }
 206              		.loc 1 473 0
 207 0054 2046     		mov	r0, r4
 208 0056 0122     		movs	r2, #1
 209 0058 4D21     		movs	r1, #77
 210 005a FFF7FEFF 		bl	u8x8_gpio_call
 211              	.LVL23:
 212              	.LBE57:
 213              	.LBE56:
 532:/Users/imashio/Electronics/ARM/_Library/u8x8_byte.c ****   i2c_read_scl_and_delay(u8x8);
 214              		.loc 1 532 0
 215 005e 2046     		mov	r0, r4
 216 0060 FFF7FEFF 		bl	i2c_delay
 217              	.LVL24:
 218              	.LBB58:
 219              	.LBB59:
 460:/Users/imashio/Electronics/ARM/_Library/u8x8_byte.c **** 
 220              		.loc 1 460 0
 221 0064 2046     		mov	r0, r4
 222 0066 0122     		movs	r2, #1
 223 0068 4C21     		movs	r1, #76
 224 006a FFF7FEFF 		bl	u8x8_gpio_call
 225              	.LVL25:
 462:/Users/imashio/Electronics/ARM/_Library/u8x8_byte.c **** }
 226              		.loc 1 462 0
 227 006e 2046     		mov	r0, r4
 228 0070 FFF7FEFF 		bl	i2c_delay
 229              	.LVL26:
 230              	.LBE59:
 231              	.LBE58:
 232              	.LBB60:
 233              	.LBB61:
 473:/Users/imashio/Electronics/ARM/_Library/u8x8_byte.c **** }
 234              		.loc 1 473 0
 235 0074 2046     		mov	r0, r4
 236 0076 0122     		movs	r2, #1
 237 0078 4D21     		movs	r1, #77
 238 007a FFF7FEFF 		bl	u8x8_gpio_call
 239              	.LVL27:
 240              	.LBE61:
 241              	.LBE60:
 535:/Users/imashio/Electronics/ARM/_Library/u8x8_byte.c ****   i2c_clear_scl(u8x8);
 242              		.loc 1 535 0
ARM GAS  /var/folders/v3/wysfpd052nz8jkbx04pk0ym80000gn/T//cclLoxDJ.s 			page 15


 243 007e 2046     		mov	r0, r4
 244 0080 FFF7FEFF 		bl	i2c_delay
 245              	.LVL28:
 246              	.LBB62:
 247              	.LBB63:
 467:/Users/imashio/Electronics/ARM/_Library/u8x8_byte.c **** }
 248              		.loc 1 467 0
 249 0084 2046     		mov	r0, r4
 250 0086 0022     		movs	r2, #0
 251 0088 4C21     		movs	r1, #76
 252              	.LBE63:
 253              	.LBE62:
 254              	.LBE55:
 255              	.LBE54:
 550:/Users/imashio/Electronics/ARM/_Library/u8x8_byte.c ****     
 551:/Users/imashio/Electronics/ARM/_Library/u8x8_byte.c ****   /* read ack from client */
 552:/Users/imashio/Electronics/ARM/_Library/u8x8_byte.c ****   /* 0: ack was given by client */
 553:/Users/imashio/Electronics/ARM/_Library/u8x8_byte.c ****   /* 1: nothing happend during ack cycle */  
 554:/Users/imashio/Electronics/ARM/_Library/u8x8_byte.c ****   i2c_read_bit(u8x8);
 555:/Users/imashio/Electronics/ARM/_Library/u8x8_byte.c **** }
 256              		.loc 1 555 0
 257 008a BDE83840 		pop	{r3, r4, r5, lr}
 258              	.LCFI4:
 259              		.cfi_restore 14
 260              		.cfi_restore 5
 261              		.cfi_restore 4
 262              		.cfi_restore 3
 263              		.cfi_def_cfa_offset 0
 264              	.LVL29:
 265              	.LBB67:
 266              	.LBB66:
 267              	.LBB65:
 268              	.LBB64:
 467:/Users/imashio/Electronics/ARM/_Library/u8x8_byte.c **** }
 269              		.loc 1 467 0
 270 008e FFF7FEBF 		b	u8x8_gpio_call
 271              	.LVL30:
 272              	.LBE64:
 273              	.LBE65:
 274              	.LBE66:
 275              	.LBE67:
 276              		.cfi_endproc
 277              	.LFE22:
 279 0092 00BF     		.section	.text.u8x8_byte_SetDC,"ax",%progbits
 280              		.align	1
 281              		.p2align 2,,3
 282              		.global	u8x8_byte_SetDC
 283              		.syntax unified
 284              		.thumb
 285              		.thumb_func
 286              		.fpu fpv4-sp-d16
 288              	u8x8_byte_SetDC:
 289              	.LFB0:
  40:/Users/imashio/Electronics/ARM/_Library/u8x8_byte.c ****   return u8x8->byte_cb(u8x8, U8X8_MSG_BYTE_SET_DC, dc, NULL);
 290              		.loc 1 40 0
 291              		.cfi_startproc
 292              		@ args = 0, pretend = 0, frame = 0
ARM GAS  /var/folders/v3/wysfpd052nz8jkbx04pk0ym80000gn/T//cclLoxDJ.s 			page 16


 293              		@ frame_needed = 0, uses_anonymous_args = 0
 294              		@ link register save eliminated.
 295              	.LVL31:
 296 0000 10B4     		push	{r4}
 297              	.LCFI5:
 298              		.cfi_def_cfa_offset 4
 299              		.cfi_offset 4, -4
  41:/Users/imashio/Electronics/ARM/_Library/u8x8_byte.c **** }
 300              		.loc 1 41 0
 301 0002 0469     		ldr	r4, [r0, #16]
 302 0004 0A46     		mov	r2, r1
 303 0006 A446     		mov	ip, r4
 304 0008 0023     		movs	r3, #0
 305 000a 2021     		movs	r1, #32
 306              	.LVL32:
  42:/Users/imashio/Electronics/ARM/_Library/u8x8_byte.c **** 
 307              		.loc 1 42 0
 308 000c 5DF8044B 		ldr	r4, [sp], #4
 309              	.LCFI6:
 310              		.cfi_restore 4
 311              		.cfi_def_cfa_offset 0
  41:/Users/imashio/Electronics/ARM/_Library/u8x8_byte.c **** }
 312              		.loc 1 41 0
 313 0010 6047     		bx	ip
 314              	.LVL33:
 315              		.cfi_endproc
 316              	.LFE0:
 318 0012 00BF     		.section	.text.u8x8_byte_SendBytes,"ax",%progbits
 319              		.align	1
 320              		.p2align 2,,3
 321              		.global	u8x8_byte_SendBytes
 322              		.syntax unified
 323              		.thumb
 324              		.thumb_func
 325              		.fpu fpv4-sp-d16
 327              	u8x8_byte_SendBytes:
 328              	.LFB1:
  45:/Users/imashio/Electronics/ARM/_Library/u8x8_byte.c ****   return u8x8->byte_cb(u8x8, U8X8_MSG_BYTE_SEND, cnt, (void *)data);
 329              		.loc 1 45 0
 330              		.cfi_startproc
 331              		@ args = 0, pretend = 0, frame = 0
 332              		@ frame_needed = 0, uses_anonymous_args = 0
 333              		@ link register save eliminated.
 334              	.LVL34:
 335 0000 10B4     		push	{r4}
 336              	.LCFI7:
 337              		.cfi_def_cfa_offset 4
 338              		.cfi_offset 4, -4
  46:/Users/imashio/Electronics/ARM/_Library/u8x8_byte.c **** }
 339              		.loc 1 46 0
 340 0002 0469     		ldr	r4, [r0, #16]
 341 0004 1346     		mov	r3, r2
 342 0006 A446     		mov	ip, r4
 343 0008 0A46     		mov	r2, r1
 344              	.LVL35:
  47:/Users/imashio/Electronics/ARM/_Library/u8x8_byte.c **** 
 345              		.loc 1 47 0
ARM GAS  /var/folders/v3/wysfpd052nz8jkbx04pk0ym80000gn/T//cclLoxDJ.s 			page 17


 346 000a 5DF8044B 		ldr	r4, [sp], #4
 347              	.LCFI8:
 348              		.cfi_restore 4
 349              		.cfi_def_cfa_offset 0
  46:/Users/imashio/Electronics/ARM/_Library/u8x8_byte.c **** }
 350              		.loc 1 46 0
 351 000e 1721     		movs	r1, #23
 352              	.LVL36:
 353 0010 6047     		bx	ip
 354              	.LVL37:
 355              		.cfi_endproc
 356              	.LFE1:
 358 0012 00BF     		.section	.text.u8x8_byte_SendByte,"ax",%progbits
 359              		.align	1
 360              		.p2align 2,,3
 361              		.global	u8x8_byte_SendByte
 362              		.syntax unified
 363              		.thumb
 364              		.thumb_func
 365              		.fpu fpv4-sp-d16
 367              	u8x8_byte_SendByte:
 368              	.LFB2:
  50:/Users/imashio/Electronics/ARM/_Library/u8x8_byte.c ****   return u8x8_byte_SendBytes(u8x8, 1, &byte);
 369              		.loc 1 50 0
 370              		.cfi_startproc
 371              		@ args = 0, pretend = 0, frame = 8
 372              		@ frame_needed = 0, uses_anonymous_args = 0
 373              	.LVL38:
 374 0000 00B5     		push	{lr}
 375              	.LCFI9:
 376              		.cfi_def_cfa_offset 4
 377              		.cfi_offset 14, -4
 378 0002 83B0     		sub	sp, sp, #12
 379              	.LCFI10:
 380              		.cfi_def_cfa_offset 16
  50:/Users/imashio/Electronics/ARM/_Library/u8x8_byte.c ****   return u8x8_byte_SendBytes(u8x8, 1, &byte);
 381              		.loc 1 50 0
 382 0004 02AA     		add	r2, sp, #8
 383 0006 02F8011D 		strb	r1, [r2, #-1]!
  51:/Users/imashio/Electronics/ARM/_Library/u8x8_byte.c **** }
 384              		.loc 1 51 0
 385 000a 0121     		movs	r1, #1
 386              	.LVL39:
 387 000c FFF7FEFF 		bl	u8x8_byte_SendBytes
 388              	.LVL40:
  52:/Users/imashio/Electronics/ARM/_Library/u8x8_byte.c **** 
 389              		.loc 1 52 0
 390 0010 03B0     		add	sp, sp, #12
 391              	.LCFI11:
 392              		.cfi_def_cfa_offset 4
 393              		@ sp needed
 394 0012 5DF804FB 		ldr	pc, [sp], #4
 395              		.cfi_endproc
 396              	.LFE2:
 398 0016 00BF     		.section	.text.u8x8_byte_StartTransfer,"ax",%progbits
 399              		.align	1
 400              		.p2align 2,,3
ARM GAS  /var/folders/v3/wysfpd052nz8jkbx04pk0ym80000gn/T//cclLoxDJ.s 			page 18


 401              		.global	u8x8_byte_StartTransfer
 402              		.syntax unified
 403              		.thumb
 404              		.thumb_func
 405              		.fpu fpv4-sp-d16
 407              	u8x8_byte_StartTransfer:
 408              	.LFB3:
  55:/Users/imashio/Electronics/ARM/_Library/u8x8_byte.c ****   return u8x8->byte_cb(u8x8, U8X8_MSG_BYTE_START_TRANSFER, 0, NULL);
 409              		.loc 1 55 0
 410              		.cfi_startproc
 411              		@ args = 0, pretend = 0, frame = 0
 412              		@ frame_needed = 0, uses_anonymous_args = 0
 413              		@ link register save eliminated.
 414              	.LVL41:
 415 0000 10B4     		push	{r4}
 416              	.LCFI12:
 417              		.cfi_def_cfa_offset 4
 418              		.cfi_offset 4, -4
  56:/Users/imashio/Electronics/ARM/_Library/u8x8_byte.c **** }
 419              		.loc 1 56 0
 420 0002 0469     		ldr	r4, [r0, #16]
 421 0004 0023     		movs	r3, #0
 422 0006 A446     		mov	ip, r4
 423 0008 1A46     		mov	r2, r3
 424 000a 1821     		movs	r1, #24
  57:/Users/imashio/Electronics/ARM/_Library/u8x8_byte.c **** 
 425              		.loc 1 57 0
 426 000c 5DF8044B 		ldr	r4, [sp], #4
 427              	.LCFI13:
 428              		.cfi_restore 4
 429              		.cfi_def_cfa_offset 0
  56:/Users/imashio/Electronics/ARM/_Library/u8x8_byte.c **** }
 430              		.loc 1 56 0
 431 0010 6047     		bx	ip
 432              	.LVL42:
 433              		.cfi_endproc
 434              	.LFE3:
 436 0012 00BF     		.section	.text.u8x8_byte_EndTransfer,"ax",%progbits
 437              		.align	1
 438              		.p2align 2,,3
 439              		.global	u8x8_byte_EndTransfer
 440              		.syntax unified
 441              		.thumb
 442              		.thumb_func
 443              		.fpu fpv4-sp-d16
 445              	u8x8_byte_EndTransfer:
 446              	.LFB4:
  60:/Users/imashio/Electronics/ARM/_Library/u8x8_byte.c ****   return u8x8->byte_cb(u8x8, U8X8_MSG_BYTE_END_TRANSFER, 0, NULL);
 447              		.loc 1 60 0
 448              		.cfi_startproc
 449              		@ args = 0, pretend = 0, frame = 0
 450              		@ frame_needed = 0, uses_anonymous_args = 0
 451              		@ link register save eliminated.
 452              	.LVL43:
 453 0000 10B4     		push	{r4}
 454              	.LCFI14:
 455              		.cfi_def_cfa_offset 4
ARM GAS  /var/folders/v3/wysfpd052nz8jkbx04pk0ym80000gn/T//cclLoxDJ.s 			page 19


 456              		.cfi_offset 4, -4
  61:/Users/imashio/Electronics/ARM/_Library/u8x8_byte.c **** }
 457              		.loc 1 61 0
 458 0002 0469     		ldr	r4, [r0, #16]
 459 0004 0023     		movs	r3, #0
 460 0006 A446     		mov	ip, r4
 461 0008 1A46     		mov	r2, r3
 462 000a 1921     		movs	r1, #25
  62:/Users/imashio/Electronics/ARM/_Library/u8x8_byte.c **** 
 463              		.loc 1 62 0
 464 000c 5DF8044B 		ldr	r4, [sp], #4
 465              	.LCFI15:
 466              		.cfi_restore 4
 467              		.cfi_def_cfa_offset 0
  61:/Users/imashio/Electronics/ARM/_Library/u8x8_byte.c **** }
 468              		.loc 1 61 0
 469 0010 6047     		bx	ip
 470              	.LVL44:
 471              		.cfi_endproc
 472              	.LFE4:
 474 0012 00BF     		.section	.text.u8x8_byte_4wire_sw_spi,"ax",%progbits
 475              		.align	1
 476              		.p2align 2,,3
 477              		.global	u8x8_byte_4wire_sw_spi
 478              		.syntax unified
 479              		.thumb
 480              		.thumb_func
 481              		.fpu fpv4-sp-d16
 483              	u8x8_byte_4wire_sw_spi:
 484              	.LFB5:
  89:/Users/imashio/Electronics/ARM/_Library/u8x8_byte.c ****   uint8_t i, b;
 485              		.loc 1 89 0
 486              		.cfi_startproc
 487              		@ args = 0, pretend = 0, frame = 0
 488              		@ frame_needed = 0, uses_anonymous_args = 0
 489              	.LVL45:
  95:/Users/imashio/Electronics/ARM/_Library/u8x8_byte.c ****   {
 490              		.loc 1 95 0
 491 0000 1439     		subs	r1, r1, #20
 492              	.LVL46:
  89:/Users/imashio/Electronics/ARM/_Library/u8x8_byte.c ****   uint8_t i, b;
 493              		.loc 1 89 0
 494 0002 2DE9F047 		push	{r4, r5, r6, r7, r8, r9, r10, lr}
 495              	.LCFI16:
 496              		.cfi_def_cfa_offset 32
 497              		.cfi_offset 4, -32
 498              		.cfi_offset 5, -28
 499              		.cfi_offset 6, -24
 500              		.cfi_offset 7, -20
 501              		.cfi_offset 8, -16
 502              		.cfi_offset 9, -12
 503              		.cfi_offset 10, -8
 504              		.cfi_offset 14, -4
  89:/Users/imashio/Electronics/ARM/_Library/u8x8_byte.c ****   uint8_t i, b;
 505              		.loc 1 89 0
 506 0006 9946     		mov	r9, r3
 507 0008 0446     		mov	r4, r0
ARM GAS  /var/folders/v3/wysfpd052nz8jkbx04pk0ym80000gn/T//cclLoxDJ.s 			page 20


  92:/Users/imashio/Electronics/ARM/_Library/u8x8_byte.c ****   uint8_t not_takeover_edge = 1 - takeover_edge;
 508              		.loc 1 92 0
 509 000a 0368     		ldr	r3, [r0]
 510              	.LVL47:
  95:/Users/imashio/Electronics/ARM/_Library/u8x8_byte.c ****   {
 511              		.loc 1 95 0
 512 000c 0C29     		cmp	r1, #12
 513 000e 78D8     		bhi	.L34
 514 0010 DFE801F0 		tbb	[pc, r1]
 515              	.LVL48:
 516              	.L23:
 517 0014 0E       		.byte	(.L22-.L23)/2
 518 0015 77       		.byte	(.L34-.L23)/2
 519 0016 77       		.byte	(.L34-.L23)/2
 520 0017 1E       		.byte	(.L24-.L23)/2
 521 0018 5B       		.byte	(.L25-.L23)/2
 522 0019 68       		.byte	(.L26-.L23)/2
 523 001a 77       		.byte	(.L34-.L23)/2
 524 001b 77       		.byte	(.L34-.L23)/2
 525 001c 77       		.byte	(.L34-.L23)/2
 526 001d 77       		.byte	(.L34-.L23)/2
 527 001e 77       		.byte	(.L34-.L23)/2
 528 001f 77       		.byte	(.L34-.L23)/2
 529 0020 07       		.byte	(.L27-.L23)/2
 530 0021 00       		.p2align 1
 531              	.L27:
 129:/Users/imashio/Electronics/ARM/_Library/u8x8_byte.c ****       break;
 532              		.loc 1 129 0
 533 0022 2046     		mov	r0, r4
 534 0024 4A21     		movs	r1, #74
 535 0026 FFF7FEFF 		bl	u8x8_gpio_call
 536              	.LVL49:
 142:/Users/imashio/Electronics/ARM/_Library/u8x8_byte.c **** }
 537              		.loc 1 142 0
 538 002a 0120     		movs	r0, #1
 539              	.L21:
 143:/Users/imashio/Electronics/ARM/_Library/u8x8_byte.c **** 
 540              		.loc 1 143 0
 541 002c BDE8F087 		pop	{r4, r5, r6, r7, r8, r9, r10, pc}
 542              	.LVL50:
 543              	.L22:
 122:/Users/imashio/Electronics/ARM/_Library/u8x8_byte.c ****       /* no wait required here */
 544              		.loc 1 122 0
 545 0030 5A78     		ldrb	r2, [r3, #1]	@ zero_extendqisi2
 546              	.LVL51:
 547 0032 2046     		mov	r0, r4
 548 0034 4921     		movs	r1, #73
 549 0036 FFF7FEFF 		bl	u8x8_gpio_call
 550              	.LVL52:
 126:/Users/imashio/Electronics/ARM/_Library/u8x8_byte.c ****       break;
 551              		.loc 1 126 0
 552 003a 2368     		ldr	r3, [r4]
 553 003c 1A7B     		ldrb	r2, [r3, #12]	@ zero_extendqisi2
 554 003e 2046     		mov	r0, r4
 555 0040 02F00102 		and	r2, r2, #1
 556 0044 4021     		movs	r1, #64
 557 0046 FFF7FEFF 		bl	u8x8_gpio_call
ARM GAS  /var/folders/v3/wysfpd052nz8jkbx04pk0ym80000gn/T//cclLoxDJ.s 			page 21


 558              	.LVL53:
 142:/Users/imashio/Electronics/ARM/_Library/u8x8_byte.c **** }
 559              		.loc 1 142 0
 560 004a 0120     		movs	r0, #1
 143:/Users/imashio/Electronics/ARM/_Library/u8x8_byte.c **** 
 561              		.loc 1 143 0
 562 004c BDE8F087 		pop	{r4, r5, r6, r7, r8, r9, r10, pc}
 563              	.LVL54:
 564              	.L24:
  99:/Users/imashio/Electronics/ARM/_Library/u8x8_byte.c ****       {
 565              		.loc 1 99 0
 566 0050 C2B3     		cbz	r2, .L38
 567 0052 02F1FF3A 		add	r10, r2, #-1
  92:/Users/imashio/Electronics/ARM/_Library/u8x8_byte.c ****   uint8_t not_takeover_edge = 1 - takeover_edge;
 568              		.loc 1 92 0
 569 0056 1F7B     		ldrb	r7, [r3, #12]	@ zero_extendqisi2
 570 0058 5FFA8AFA 		uxtb	r10, r10
 571 005c 0AF1010A 		add	r10, r10, #1
 572 0060 07F00107 		and	r7, r7, #1
 573 0064 CA44     		add	r10, r10, r9
 574 0066 C7F10108 		rsb	r8, r7, #1
 575              	.LVL55:
 576              	.L32:
 101:/Users/imashio/Electronics/ARM/_Library/u8x8_byte.c **** 	data++;
 577              		.loc 1 101 0
 578 006a 19F8016B 		ldrb	r6, [r9], #1	@ zero_extendqisi2
 579              	.LVL56:
 102:/Users/imashio/Electronics/ARM/_Library/u8x8_byte.c **** 	arg_int--;
 580              		.loc 1 102 0
 581 006e 0825     		movs	r5, #8
 582              	.LVL57:
 583              	.L31:
 106:/Users/imashio/Electronics/ARM/_Library/u8x8_byte.c **** 	    u8x8_gpio_SetSPIData(u8x8, 1);
 584              		.loc 1 106 0
 585 0070 16F0800F 		tst	r6, #128
 109:/Users/imashio/Electronics/ARM/_Library/u8x8_byte.c **** 	  b <<= 1;
 586              		.loc 1 109 0
 587 0074 4FF00002 		mov	r2, #0
 588 0078 4FF04101 		mov	r1, #65
 107:/Users/imashio/Electronics/ARM/_Library/u8x8_byte.c **** 	  else
 589              		.loc 1 107 0
 590 007c 18BF     		it	ne
 591 007e 0122     		movne	r2, #1
 109:/Users/imashio/Electronics/ARM/_Library/u8x8_byte.c **** 	  b <<= 1;
 592              		.loc 1 109 0
 593 0080 2046     		mov	r0, r4
 594 0082 FFF7FEFF 		bl	u8x8_gpio_call
 595              	.LVL58:
 112:/Users/imashio/Electronics/ARM/_Library/u8x8_byte.c **** 	  u8x8_gpio_Delay(u8x8, U8X8_MSG_DELAY_NANO, u8x8->display_info->sda_setup_time_ns);
 596              		.loc 1 112 0
 597 0086 5FFA88F2 		uxtb	r2, r8
 598 008a 4021     		movs	r1, #64
 599 008c 2046     		mov	r0, r4
 600 008e FFF7FEFF 		bl	u8x8_gpio_call
 601              	.LVL59:
 113:/Users/imashio/Electronics/ARM/_Library/u8x8_byte.c **** 	  u8x8_gpio_SetSPIClock(u8x8, takeover_edge);
 602              		.loc 1 113 0
ARM GAS  /var/folders/v3/wysfpd052nz8jkbx04pk0ym80000gn/T//cclLoxDJ.s 			page 22


 603 0092 2368     		ldr	r3, [r4]
 604 0094 2C21     		movs	r1, #44
 605 0096 9A79     		ldrb	r2, [r3, #6]	@ zero_extendqisi2
 606 0098 2046     		mov	r0, r4
 607 009a FFF7FEFF 		bl	u8x8_gpio_call
 608              	.LVL60:
 114:/Users/imashio/Electronics/ARM/_Library/u8x8_byte.c **** 	  u8x8_gpio_Delay(u8x8, U8X8_MSG_DELAY_NANO, u8x8->display_info->sck_pulse_width_ns);
 609              		.loc 1 114 0
 610 009e 3A46     		mov	r2, r7
 611 00a0 4021     		movs	r1, #64
 612 00a2 2046     		mov	r0, r4
 613 00a4 FFF7FEFF 		bl	u8x8_gpio_call
 614              	.LVL61:
 115:/Users/imashio/Electronics/ARM/_Library/u8x8_byte.c **** 	}    
 615              		.loc 1 115 0
 616 00a8 2368     		ldr	r3, [r4]
 617 00aa 2C21     		movs	r1, #44
 618 00ac DA79     		ldrb	r2, [r3, #7]	@ zero_extendqisi2
 619 00ae 2046     		mov	r0, r4
 620 00b0 FFF7FEFF 		bl	u8x8_gpio_call
 621              	.LVL62:
 622 00b4 6B1E     		subs	r3, r5, #1
 110:/Users/imashio/Electronics/ARM/_Library/u8x8_byte.c **** 	  
 623              		.loc 1 110 0
 624 00b6 7600     		lsls	r6, r6, #1
 625              	.LVL63:
 104:/Users/imashio/Electronics/ARM/_Library/u8x8_byte.c **** 	{
 626              		.loc 1 104 0
 627 00b8 13F0FF05 		ands	r5, r3, #255
 628              	.LVL64:
 110:/Users/imashio/Electronics/ARM/_Library/u8x8_byte.c **** 	  
 629              		.loc 1 110 0
 630 00bc F6B2     		uxtb	r6, r6
 631              	.LVL65:
 104:/Users/imashio/Electronics/ARM/_Library/u8x8_byte.c **** 	{
 632              		.loc 1 104 0
 633 00be D7D1     		bne	.L31
  99:/Users/imashio/Electronics/ARM/_Library/u8x8_byte.c ****       {
 634              		.loc 1 99 0
 635 00c0 D145     		cmp	r9, r10
 636 00c2 D2D1     		bne	.L32
 637              	.LVL66:
 638              	.L38:
 142:/Users/imashio/Electronics/ARM/_Library/u8x8_byte.c **** }
 639              		.loc 1 142 0
 640 00c4 0120     		movs	r0, #1
 143:/Users/imashio/Electronics/ARM/_Library/u8x8_byte.c **** 
 641              		.loc 1 143 0
 642 00c6 BDE8F087 		pop	{r4, r5, r6, r7, r8, r9, r10, pc}
 643              	.LVL67:
 644              	.L25:
 132:/Users/imashio/Electronics/ARM/_Library/u8x8_byte.c ****       u8x8->gpio_and_delay_cb(u8x8, U8X8_MSG_DELAY_NANO, u8x8->display_info->post_chip_enable_wait_
 645              		.loc 1 132 0
 646 00ca 1A78     		ldrb	r2, [r3]	@ zero_extendqisi2
 647              	.LVL68:
 648 00cc 2046     		mov	r0, r4
 649 00ce 4921     		movs	r1, #73
ARM GAS  /var/folders/v3/wysfpd052nz8jkbx04pk0ym80000gn/T//cclLoxDJ.s 			page 23


 650 00d0 FFF7FEFF 		bl	u8x8_gpio_call
 651              	.LVL69:
 133:/Users/imashio/Electronics/ARM/_Library/u8x8_byte.c ****       break;
 652              		.loc 1 133 0
 653 00d4 2368     		ldr	r3, [r4]
 654 00d6 6569     		ldr	r5, [r4, #20]
 655 00d8 9A78     		ldrb	r2, [r3, #2]	@ zero_extendqisi2
 656 00da 2046     		mov	r0, r4
 657 00dc 0023     		movs	r3, #0
 658 00de 2C21     		movs	r1, #44
 659 00e0 A847     		blx	r5
 660              	.LVL70:
 661 00e2 EFE7     		b	.L38
 662              	.LVL71:
 663              	.L26:
 136:/Users/imashio/Electronics/ARM/_Library/u8x8_byte.c ****       u8x8_gpio_SetCS(u8x8, u8x8->display_info->chip_disable_level);
 664              		.loc 1 136 0
 665 00e4 DA78     		ldrb	r2, [r3, #3]	@ zero_extendqisi2
 666              	.LVL72:
 667 00e6 6569     		ldr	r5, [r4, #20]
 668 00e8 0023     		movs	r3, #0
 669              	.LVL73:
 670 00ea 2C21     		movs	r1, #44
 671 00ec 2046     		mov	r0, r4
 672 00ee A847     		blx	r5
 673              	.LVL74:
 137:/Users/imashio/Electronics/ARM/_Library/u8x8_byte.c ****       break;
 674              		.loc 1 137 0
 675 00f0 2368     		ldr	r3, [r4]
 676 00f2 2046     		mov	r0, r4
 677 00f4 5A78     		ldrb	r2, [r3, #1]	@ zero_extendqisi2
 678 00f6 4921     		movs	r1, #73
 679 00f8 FFF7FEFF 		bl	u8x8_gpio_call
 680              	.LVL75:
 142:/Users/imashio/Electronics/ARM/_Library/u8x8_byte.c **** }
 681              		.loc 1 142 0
 682 00fc 0120     		movs	r0, #1
 143:/Users/imashio/Electronics/ARM/_Library/u8x8_byte.c **** 
 683              		.loc 1 143 0
 684 00fe BDE8F087 		pop	{r4, r5, r6, r7, r8, r9, r10, pc}
 685              	.LVL76:
 686              	.L34:
 140:/Users/imashio/Electronics/ARM/_Library/u8x8_byte.c ****   }
 687              		.loc 1 140 0
 688 0102 0020     		movs	r0, #0
 689 0104 92E7     		b	.L21
 690              		.cfi_endproc
 691              	.LFE5:
 693 0106 00BF     		.section	.text.u8x8_byte_8bit_6800mode,"ax",%progbits
 694              		.align	1
 695              		.p2align 2,,3
 696              		.global	u8x8_byte_8bit_6800mode
 697              		.syntax unified
 698              		.thumb
 699              		.thumb_func
 700              		.fpu fpv4-sp-d16
 702              	u8x8_byte_8bit_6800mode:
ARM GAS  /var/folders/v3/wysfpd052nz8jkbx04pk0ym80000gn/T//cclLoxDJ.s 			page 24


 703              	.LFB6:
 148:/Users/imashio/Electronics/ARM/_Library/u8x8_byte.c ****   uint8_t i, b;
 704              		.loc 1 148 0
 705              		.cfi_startproc
 706              		@ args = 0, pretend = 0, frame = 0
 707              		@ frame_needed = 0, uses_anonymous_args = 0
 708              	.LVL77:
 152:/Users/imashio/Electronics/ARM/_Library/u8x8_byte.c ****   {
 709              		.loc 1 152 0
 710 0000 1439     		subs	r1, r1, #20
 711              	.LVL78:
 148:/Users/imashio/Electronics/ARM/_Library/u8x8_byte.c ****   uint8_t i, b;
 712              		.loc 1 148 0
 713 0002 2DE9F041 		push	{r4, r5, r6, r7, r8, lr}
 714              	.LCFI17:
 715              		.cfi_def_cfa_offset 24
 716              		.cfi_offset 4, -24
 717              		.cfi_offset 5, -20
 718              		.cfi_offset 6, -16
 719              		.cfi_offset 7, -12
 720              		.cfi_offset 8, -8
 721              		.cfi_offset 14, -4
 148:/Users/imashio/Electronics/ARM/_Library/u8x8_byte.c ****   uint8_t i, b;
 722              		.loc 1 148 0
 723 0006 0646     		mov	r6, r0
 724 0008 1F46     		mov	r7, r3
 152:/Users/imashio/Electronics/ARM/_Library/u8x8_byte.c ****   {
 725              		.loc 1 152 0
 726 000a 0C29     		cmp	r1, #12
 727 000c 69D8     		bhi	.L51
 728 000e DFE801F0 		tbb	[pc, r1]
 729              	.LVL79:
 730              	.L42:
 731 0012 0D       		.byte	(.L41-.L42)/2
 732 0013 68       		.byte	(.L51-.L42)/2
 733 0014 68       		.byte	(.L51-.L42)/2
 734 0015 1A       		.byte	(.L43-.L42)/2
 735 0016 4C       		.byte	(.L44-.L42)/2
 736 0017 59       		.byte	(.L45-.L42)/2
 737 0018 68       		.byte	(.L51-.L42)/2
 738 0019 68       		.byte	(.L51-.L42)/2
 739 001a 68       		.byte	(.L51-.L42)/2
 740 001b 68       		.byte	(.L51-.L42)/2
 741 001c 68       		.byte	(.L51-.L42)/2
 742 001d 68       		.byte	(.L51-.L42)/2
 743 001e 07       		.byte	(.L46-.L42)/2
 744 001f 00       		.p2align 1
 745              	.L46:
 181:/Users/imashio/Electronics/ARM/_Library/u8x8_byte.c ****       break;
 746              		.loc 1 181 0
 747 0020 4A21     		movs	r1, #74
 748 0022 FFF7FEFF 		bl	u8x8_gpio_call
 749              	.LVL80:
 194:/Users/imashio/Electronics/ARM/_Library/u8x8_byte.c **** }
 750              		.loc 1 194 0
 751 0026 0120     		movs	r0, #1
 752              	.L40:
ARM GAS  /var/folders/v3/wysfpd052nz8jkbx04pk0ym80000gn/T//cclLoxDJ.s 			page 25


 195:/Users/imashio/Electronics/ARM/_Library/u8x8_byte.c **** 
 753              		.loc 1 195 0
 754 0028 BDE8F081 		pop	{r4, r5, r6, r7, r8, pc}
 755              	.LVL81:
 756              	.L41:
 176:/Users/imashio/Electronics/ARM/_Library/u8x8_byte.c ****       /* ensure that the enable signal is high */
 757              		.loc 1 176 0
 758 002c 0368     		ldr	r3, [r0]
 759 002e 4921     		movs	r1, #73
 760 0030 5A78     		ldrb	r2, [r3, #1]	@ zero_extendqisi2
 761              	.LVL82:
 762 0032 FFF7FEFF 		bl	u8x8_gpio_call
 763              	.LVL83:
 178:/Users/imashio/Electronics/ARM/_Library/u8x8_byte.c ****       break;
 764              		.loc 1 178 0
 765 0036 3046     		mov	r0, r6
 766 0038 0022     		movs	r2, #0
 767 003a 4821     		movs	r1, #72
 768 003c FFF7FEFF 		bl	u8x8_gpio_call
 769              	.LVL84:
 194:/Users/imashio/Electronics/ARM/_Library/u8x8_byte.c **** }
 770              		.loc 1 194 0
 771 0040 0120     		movs	r0, #1
 195:/Users/imashio/Electronics/ARM/_Library/u8x8_byte.c **** 
 772              		.loc 1 195 0
 773 0042 BDE8F081 		pop	{r4, r5, r6, r7, r8, pc}
 774              	.LVL85:
 775              	.L43:
 156:/Users/imashio/Electronics/ARM/_Library/u8x8_byte.c ****       {
 776              		.loc 1 156 0
 777 0046 6AB3     		cbz	r2, .L55
 778 0048 02F1FF38 		add	r8, r2, #-1
 779 004c 5FFA88F8 		uxtb	r8, r8
 780 0050 08F10108 		add	r8, r8, #1
 781 0054 B844     		add	r8, r8, r7
 782              	.LVL86:
 783              	.L49:
 158:/Users/imashio/Electronics/ARM/_Library/u8x8_byte.c **** 	data++;
 784              		.loc 1 158 0
 785 0056 17F8015B 		ldrb	r5, [r7], #1	@ zero_extendqisi2
 786              	.LVL87:
 161:/Users/imashio/Electronics/ARM/_Library/u8x8_byte.c **** 	{
 787              		.loc 1 161 0
 788 005a 4024     		movs	r4, #64
 789              	.LVL88:
 790              	.L48:
 163:/Users/imashio/Electronics/ARM/_Library/u8x8_byte.c **** 	  b >>= 1;
 791              		.loc 1 163 0 discriminator 3
 792 005c 2146     		mov	r1, r4
 161:/Users/imashio/Electronics/ARM/_Library/u8x8_byte.c **** 	{
 793              		.loc 1 161 0 discriminator 3
 794 005e 0134     		adds	r4, r4, #1
 795              	.LVL89:
 163:/Users/imashio/Electronics/ARM/_Library/u8x8_byte.c **** 	  b >>= 1;
 796              		.loc 1 163 0 discriminator 3
 797 0060 05F00102 		and	r2, r5, #1
 798 0064 3046     		mov	r0, r6
ARM GAS  /var/folders/v3/wysfpd052nz8jkbx04pk0ym80000gn/T//cclLoxDJ.s 			page 26


 161:/Users/imashio/Electronics/ARM/_Library/u8x8_byte.c **** 	{
 799              		.loc 1 161 0 discriminator 3
 800 0066 E4B2     		uxtb	r4, r4
 163:/Users/imashio/Electronics/ARM/_Library/u8x8_byte.c **** 	  b >>= 1;
 801              		.loc 1 163 0 discriminator 3
 802 0068 FFF7FEFF 		bl	u8x8_gpio_call
 803              	.LVL90:
 161:/Users/imashio/Electronics/ARM/_Library/u8x8_byte.c **** 	{
 804              		.loc 1 161 0 discriminator 3
 805 006c 482C     		cmp	r4, #72
 164:/Users/imashio/Electronics/ARM/_Library/u8x8_byte.c **** 	}    
 806              		.loc 1 164 0 discriminator 3
 807 006e 4FEA5505 		lsr	r5, r5, #1
 808              	.LVL91:
 161:/Users/imashio/Electronics/ARM/_Library/u8x8_byte.c **** 	{
 809              		.loc 1 161 0 discriminator 3
 810 0072 F3D1     		bne	.L48
 167:/Users/imashio/Electronics/ARM/_Library/u8x8_byte.c **** 	u8x8_gpio_call(u8x8, U8X8_MSG_GPIO_E, 1);
 811              		.loc 1 167 0
 812 0074 3368     		ldr	r3, [r6]
 813 0076 2C21     		movs	r1, #44
 814 0078 9A7B     		ldrb	r2, [r3, #14]	@ zero_extendqisi2
 815 007a 3046     		mov	r0, r6
 816 007c FFF7FEFF 		bl	u8x8_gpio_call
 817              	.LVL92:
 168:/Users/imashio/Electronics/ARM/_Library/u8x8_byte.c **** 	u8x8_gpio_Delay(u8x8, U8X8_MSG_DELAY_NANO, u8x8->display_info->write_pulse_width_ns);
 818              		.loc 1 168 0
 819 0080 0122     		movs	r2, #1
 820 0082 2146     		mov	r1, r4
 821 0084 3046     		mov	r0, r6
 822 0086 FFF7FEFF 		bl	u8x8_gpio_call
 823              	.LVL93:
 169:/Users/imashio/Electronics/ARM/_Library/u8x8_byte.c **** 	u8x8_gpio_call(u8x8, U8X8_MSG_GPIO_E, 0);
 824              		.loc 1 169 0
 825 008a 3368     		ldr	r3, [r6]
 826 008c 2C21     		movs	r1, #44
 827 008e DA7B     		ldrb	r2, [r3, #15]	@ zero_extendqisi2
 828 0090 3046     		mov	r0, r6
 829 0092 FFF7FEFF 		bl	u8x8_gpio_call
 830              	.LVL94:
 170:/Users/imashio/Electronics/ARM/_Library/u8x8_byte.c ****       }
 831              		.loc 1 170 0
 832 0096 2146     		mov	r1, r4
 833 0098 0022     		movs	r2, #0
 834 009a 3046     		mov	r0, r6
 835 009c FFF7FEFF 		bl	u8x8_gpio_call
 836              	.LVL95:
 156:/Users/imashio/Electronics/ARM/_Library/u8x8_byte.c ****       {
 837              		.loc 1 156 0
 838 00a0 4745     		cmp	r7, r8
 839 00a2 D8D1     		bne	.L49
 840              	.LVL96:
 841              	.L55:
 194:/Users/imashio/Electronics/ARM/_Library/u8x8_byte.c **** }
 842              		.loc 1 194 0
 843 00a4 0120     		movs	r0, #1
 195:/Users/imashio/Electronics/ARM/_Library/u8x8_byte.c **** 
ARM GAS  /var/folders/v3/wysfpd052nz8jkbx04pk0ym80000gn/T//cclLoxDJ.s 			page 27


 844              		.loc 1 195 0
 845 00a6 BDE8F081 		pop	{r4, r5, r6, r7, r8, pc}
 846              	.LVL97:
 847              	.L44:
 184:/Users/imashio/Electronics/ARM/_Library/u8x8_byte.c ****       u8x8->gpio_and_delay_cb(u8x8, U8X8_MSG_DELAY_NANO, u8x8->display_info->post_chip_enable_wait_
 848              		.loc 1 184 0
 849 00aa 0368     		ldr	r3, [r0]
 850 00ac 4921     		movs	r1, #73
 851 00ae 1A78     		ldrb	r2, [r3]	@ zero_extendqisi2
 852              	.LVL98:
 853 00b0 FFF7FEFF 		bl	u8x8_gpio_call
 854              	.LVL99:
 185:/Users/imashio/Electronics/ARM/_Library/u8x8_byte.c ****       break;
 855              		.loc 1 185 0
 856 00b4 3368     		ldr	r3, [r6]
 857 00b6 7469     		ldr	r4, [r6, #20]
 858 00b8 9A78     		ldrb	r2, [r3, #2]	@ zero_extendqisi2
 859 00ba 3046     		mov	r0, r6
 860 00bc 0023     		movs	r3, #0
 861 00be 2C21     		movs	r1, #44
 862 00c0 A047     		blx	r4
 863              	.LVL100:
 864 00c2 EFE7     		b	.L55
 865              	.LVL101:
 866              	.L45:
 188:/Users/imashio/Electronics/ARM/_Library/u8x8_byte.c ****       u8x8_gpio_SetCS(u8x8, u8x8->display_info->chip_disable_level);
 867              		.loc 1 188 0
 868 00c4 0368     		ldr	r3, [r0]
 869 00c6 4469     		ldr	r4, [r0, #20]
 870 00c8 DA78     		ldrb	r2, [r3, #3]	@ zero_extendqisi2
 871              	.LVL102:
 872 00ca 2C21     		movs	r1, #44
 873 00cc 0023     		movs	r3, #0
 874 00ce A047     		blx	r4
 875              	.LVL103:
 189:/Users/imashio/Electronics/ARM/_Library/u8x8_byte.c ****       break;
 876              		.loc 1 189 0
 877 00d0 3368     		ldr	r3, [r6]
 878 00d2 3046     		mov	r0, r6
 879 00d4 5A78     		ldrb	r2, [r3, #1]	@ zero_extendqisi2
 880 00d6 4921     		movs	r1, #73
 881 00d8 FFF7FEFF 		bl	u8x8_gpio_call
 882              	.LVL104:
 194:/Users/imashio/Electronics/ARM/_Library/u8x8_byte.c **** }
 883              		.loc 1 194 0
 884 00dc 0120     		movs	r0, #1
 195:/Users/imashio/Electronics/ARM/_Library/u8x8_byte.c **** 
 885              		.loc 1 195 0
 886 00de BDE8F081 		pop	{r4, r5, r6, r7, r8, pc}
 887              	.LVL105:
 888              	.L51:
 192:/Users/imashio/Electronics/ARM/_Library/u8x8_byte.c ****   }
 889              		.loc 1 192 0
 890 00e2 0020     		movs	r0, #0
 891              	.LVL106:
 892 00e4 A0E7     		b	.L40
 893              		.cfi_endproc
ARM GAS  /var/folders/v3/wysfpd052nz8jkbx04pk0ym80000gn/T//cclLoxDJ.s 			page 28


 894              	.LFE6:
 896 00e6 00BF     		.section	.text.u8x8_byte_8bit_8080mode,"ax",%progbits
 897              		.align	1
 898              		.p2align 2,,3
 899              		.global	u8x8_byte_8bit_8080mode
 900              		.syntax unified
 901              		.thumb
 902              		.thumb_func
 903              		.fpu fpv4-sp-d16
 905              	u8x8_byte_8bit_8080mode:
 906              	.LFB7:
 198:/Users/imashio/Electronics/ARM/_Library/u8x8_byte.c ****   uint8_t i, b;
 907              		.loc 1 198 0
 908              		.cfi_startproc
 909              		@ args = 0, pretend = 0, frame = 0
 910              		@ frame_needed = 0, uses_anonymous_args = 0
 911              	.LVL107:
 202:/Users/imashio/Electronics/ARM/_Library/u8x8_byte.c ****   {
 912              		.loc 1 202 0
 913 0000 1439     		subs	r1, r1, #20
 914              	.LVL108:
 198:/Users/imashio/Electronics/ARM/_Library/u8x8_byte.c ****   uint8_t i, b;
 915              		.loc 1 198 0
 916 0002 2DE9F041 		push	{r4, r5, r6, r7, r8, lr}
 917              	.LCFI18:
 918              		.cfi_def_cfa_offset 24
 919              		.cfi_offset 4, -24
 920              		.cfi_offset 5, -20
 921              		.cfi_offset 6, -16
 922              		.cfi_offset 7, -12
 923              		.cfi_offset 8, -8
 924              		.cfi_offset 14, -4
 198:/Users/imashio/Electronics/ARM/_Library/u8x8_byte.c ****   uint8_t i, b;
 925              		.loc 1 198 0
 926 0006 0646     		mov	r6, r0
 927 0008 1F46     		mov	r7, r3
 202:/Users/imashio/Electronics/ARM/_Library/u8x8_byte.c ****   {
 928              		.loc 1 202 0
 929 000a 0C29     		cmp	r1, #12
 930 000c 69D8     		bhi	.L68
 931 000e DFE801F0 		tbb	[pc, r1]
 932              	.LVL109:
 933              	.L59:
 934 0012 0D       		.byte	(.L58-.L59)/2
 935 0013 68       		.byte	(.L68-.L59)/2
 936 0014 68       		.byte	(.L68-.L59)/2
 937 0015 1A       		.byte	(.L60-.L59)/2
 938 0016 4C       		.byte	(.L61-.L59)/2
 939 0017 59       		.byte	(.L62-.L59)/2
 940 0018 68       		.byte	(.L68-.L59)/2
 941 0019 68       		.byte	(.L68-.L59)/2
 942 001a 68       		.byte	(.L68-.L59)/2
 943 001b 68       		.byte	(.L68-.L59)/2
 944 001c 68       		.byte	(.L68-.L59)/2
 945 001d 68       		.byte	(.L68-.L59)/2
 946 001e 07       		.byte	(.L63-.L59)/2
 947 001f 00       		.p2align 1
ARM GAS  /var/folders/v3/wysfpd052nz8jkbx04pk0ym80000gn/T//cclLoxDJ.s 			page 29


 948              	.L63:
 231:/Users/imashio/Electronics/ARM/_Library/u8x8_byte.c ****       break;
 949              		.loc 1 231 0
 950 0020 4A21     		movs	r1, #74
 951 0022 FFF7FEFF 		bl	u8x8_gpio_call
 952              	.LVL110:
 244:/Users/imashio/Electronics/ARM/_Library/u8x8_byte.c **** }
 953              		.loc 1 244 0
 954 0026 0120     		movs	r0, #1
 955              	.L57:
 245:/Users/imashio/Electronics/ARM/_Library/u8x8_byte.c **** 
 956              		.loc 1 245 0
 957 0028 BDE8F081 		pop	{r4, r5, r6, r7, r8, pc}
 958              	.LVL111:
 959              	.L58:
 226:/Users/imashio/Electronics/ARM/_Library/u8x8_byte.c ****       /* ensure that the enable signal is high */
 960              		.loc 1 226 0
 961 002c 0368     		ldr	r3, [r0]
 962 002e 4921     		movs	r1, #73
 963 0030 5A78     		ldrb	r2, [r3, #1]	@ zero_extendqisi2
 964              	.LVL112:
 965 0032 FFF7FEFF 		bl	u8x8_gpio_call
 966              	.LVL113:
 228:/Users/imashio/Electronics/ARM/_Library/u8x8_byte.c ****       break;
 967              		.loc 1 228 0
 968 0036 3046     		mov	r0, r6
 969 0038 0122     		movs	r2, #1
 970 003a 4821     		movs	r1, #72
 971 003c FFF7FEFF 		bl	u8x8_gpio_call
 972              	.LVL114:
 244:/Users/imashio/Electronics/ARM/_Library/u8x8_byte.c **** }
 973              		.loc 1 244 0
 974 0040 0120     		movs	r0, #1
 245:/Users/imashio/Electronics/ARM/_Library/u8x8_byte.c **** 
 975              		.loc 1 245 0
 976 0042 BDE8F081 		pop	{r4, r5, r6, r7, r8, pc}
 977              	.LVL115:
 978              	.L60:
 206:/Users/imashio/Electronics/ARM/_Library/u8x8_byte.c ****       {
 979              		.loc 1 206 0
 980 0046 6AB3     		cbz	r2, .L72
 981 0048 02F1FF38 		add	r8, r2, #-1
 982 004c 5FFA88F8 		uxtb	r8, r8
 983 0050 08F10108 		add	r8, r8, #1
 984 0054 B844     		add	r8, r8, r7
 985              	.LVL116:
 986              	.L66:
 208:/Users/imashio/Electronics/ARM/_Library/u8x8_byte.c **** 	data++;
 987              		.loc 1 208 0
 988 0056 17F8015B 		ldrb	r5, [r7], #1	@ zero_extendqisi2
 989              	.LVL117:
 211:/Users/imashio/Electronics/ARM/_Library/u8x8_byte.c **** 	{
 990              		.loc 1 211 0
 991 005a 4024     		movs	r4, #64
 992              	.LVL118:
 993              	.L65:
 213:/Users/imashio/Electronics/ARM/_Library/u8x8_byte.c **** 	  b >>= 1;
ARM GAS  /var/folders/v3/wysfpd052nz8jkbx04pk0ym80000gn/T//cclLoxDJ.s 			page 30


 994              		.loc 1 213 0 discriminator 3
 995 005c 2146     		mov	r1, r4
 211:/Users/imashio/Electronics/ARM/_Library/u8x8_byte.c **** 	{
 996              		.loc 1 211 0 discriminator 3
 997 005e 0134     		adds	r4, r4, #1
 998              	.LVL119:
 213:/Users/imashio/Electronics/ARM/_Library/u8x8_byte.c **** 	  b >>= 1;
 999              		.loc 1 213 0 discriminator 3
 1000 0060 05F00102 		and	r2, r5, #1
 1001 0064 3046     		mov	r0, r6
 211:/Users/imashio/Electronics/ARM/_Library/u8x8_byte.c **** 	{
 1002              		.loc 1 211 0 discriminator 3
 1003 0066 E4B2     		uxtb	r4, r4
 213:/Users/imashio/Electronics/ARM/_Library/u8x8_byte.c **** 	  b >>= 1;
 1004              		.loc 1 213 0 discriminator 3
 1005 0068 FFF7FEFF 		bl	u8x8_gpio_call
 1006              	.LVL120:
 211:/Users/imashio/Electronics/ARM/_Library/u8x8_byte.c **** 	{
 1007              		.loc 1 211 0 discriminator 3
 1008 006c 482C     		cmp	r4, #72
 214:/Users/imashio/Electronics/ARM/_Library/u8x8_byte.c **** 	}    
 1009              		.loc 1 214 0 discriminator 3
 1010 006e 4FEA5505 		lsr	r5, r5, #1
 1011              	.LVL121:
 211:/Users/imashio/Electronics/ARM/_Library/u8x8_byte.c **** 	{
 1012              		.loc 1 211 0 discriminator 3
 1013 0072 F3D1     		bne	.L65
 217:/Users/imashio/Electronics/ARM/_Library/u8x8_byte.c **** 	u8x8_gpio_call(u8x8, U8X8_MSG_GPIO_E, 0);
 1014              		.loc 1 217 0
 1015 0074 3368     		ldr	r3, [r6]
 1016 0076 2C21     		movs	r1, #44
 1017 0078 9A7B     		ldrb	r2, [r3, #14]	@ zero_extendqisi2
 1018 007a 3046     		mov	r0, r6
 1019 007c FFF7FEFF 		bl	u8x8_gpio_call
 1020              	.LVL122:
 218:/Users/imashio/Electronics/ARM/_Library/u8x8_byte.c **** 	u8x8_gpio_Delay(u8x8, U8X8_MSG_DELAY_NANO, u8x8->display_info->write_pulse_width_ns);
 1021              		.loc 1 218 0
 1022 0080 0022     		movs	r2, #0
 1023 0082 2146     		mov	r1, r4
 1024 0084 3046     		mov	r0, r6
 1025 0086 FFF7FEFF 		bl	u8x8_gpio_call
 1026              	.LVL123:
 219:/Users/imashio/Electronics/ARM/_Library/u8x8_byte.c **** 	u8x8_gpio_call(u8x8, U8X8_MSG_GPIO_E, 1);
 1027              		.loc 1 219 0
 1028 008a 3368     		ldr	r3, [r6]
 1029 008c 2C21     		movs	r1, #44
 1030 008e DA7B     		ldrb	r2, [r3, #15]	@ zero_extendqisi2
 1031 0090 3046     		mov	r0, r6
 1032 0092 FFF7FEFF 		bl	u8x8_gpio_call
 1033              	.LVL124:
 220:/Users/imashio/Electronics/ARM/_Library/u8x8_byte.c ****       }
 1034              		.loc 1 220 0
 1035 0096 2146     		mov	r1, r4
 1036 0098 0122     		movs	r2, #1
 1037 009a 3046     		mov	r0, r6
 1038 009c FFF7FEFF 		bl	u8x8_gpio_call
 1039              	.LVL125:
ARM GAS  /var/folders/v3/wysfpd052nz8jkbx04pk0ym80000gn/T//cclLoxDJ.s 			page 31


 206:/Users/imashio/Electronics/ARM/_Library/u8x8_byte.c ****       {
 1040              		.loc 1 206 0
 1041 00a0 4745     		cmp	r7, r8
 1042 00a2 D8D1     		bne	.L66
 1043              	.LVL126:
 1044              	.L72:
 244:/Users/imashio/Electronics/ARM/_Library/u8x8_byte.c **** }
 1045              		.loc 1 244 0
 1046 00a4 0120     		movs	r0, #1
 245:/Users/imashio/Electronics/ARM/_Library/u8x8_byte.c **** 
 1047              		.loc 1 245 0
 1048 00a6 BDE8F081 		pop	{r4, r5, r6, r7, r8, pc}
 1049              	.LVL127:
 1050              	.L61:
 234:/Users/imashio/Electronics/ARM/_Library/u8x8_byte.c ****       u8x8->gpio_and_delay_cb(u8x8, U8X8_MSG_DELAY_NANO, u8x8->display_info->post_chip_enable_wait_
 1051              		.loc 1 234 0
 1052 00aa 0368     		ldr	r3, [r0]
 1053 00ac 4921     		movs	r1, #73
 1054 00ae 1A78     		ldrb	r2, [r3]	@ zero_extendqisi2
 1055              	.LVL128:
 1056 00b0 FFF7FEFF 		bl	u8x8_gpio_call
 1057              	.LVL129:
 235:/Users/imashio/Electronics/ARM/_Library/u8x8_byte.c ****       break;
 1058              		.loc 1 235 0
 1059 00b4 3368     		ldr	r3, [r6]
 1060 00b6 7469     		ldr	r4, [r6, #20]
 1061 00b8 9A78     		ldrb	r2, [r3, #2]	@ zero_extendqisi2
 1062 00ba 3046     		mov	r0, r6
 1063 00bc 0023     		movs	r3, #0
 1064 00be 2C21     		movs	r1, #44
 1065 00c0 A047     		blx	r4
 1066              	.LVL130:
 1067 00c2 EFE7     		b	.L72
 1068              	.LVL131:
 1069              	.L62:
 238:/Users/imashio/Electronics/ARM/_Library/u8x8_byte.c ****       u8x8_gpio_SetCS(u8x8, u8x8->display_info->chip_disable_level);
 1070              		.loc 1 238 0
 1071 00c4 0368     		ldr	r3, [r0]
 1072 00c6 4469     		ldr	r4, [r0, #20]
 1073 00c8 DA78     		ldrb	r2, [r3, #3]	@ zero_extendqisi2
 1074              	.LVL132:
 1075 00ca 2C21     		movs	r1, #44
 1076 00cc 0023     		movs	r3, #0
 1077 00ce A047     		blx	r4
 1078              	.LVL133:
 239:/Users/imashio/Electronics/ARM/_Library/u8x8_byte.c ****       break;
 1079              		.loc 1 239 0
 1080 00d0 3368     		ldr	r3, [r6]
 1081 00d2 3046     		mov	r0, r6
 1082 00d4 5A78     		ldrb	r2, [r3, #1]	@ zero_extendqisi2
 1083 00d6 4921     		movs	r1, #73
 1084 00d8 FFF7FEFF 		bl	u8x8_gpio_call
 1085              	.LVL134:
 244:/Users/imashio/Electronics/ARM/_Library/u8x8_byte.c **** }
 1086              		.loc 1 244 0
 1087 00dc 0120     		movs	r0, #1
 245:/Users/imashio/Electronics/ARM/_Library/u8x8_byte.c **** 
ARM GAS  /var/folders/v3/wysfpd052nz8jkbx04pk0ym80000gn/T//cclLoxDJ.s 			page 32


 1088              		.loc 1 245 0
 1089 00de BDE8F081 		pop	{r4, r5, r6, r7, r8, pc}
 1090              	.LVL135:
 1091              	.L68:
 242:/Users/imashio/Electronics/ARM/_Library/u8x8_byte.c ****   }
 1092              		.loc 1 242 0
 1093 00e2 0020     		movs	r0, #0
 1094              	.LVL136:
 1095 00e4 A0E7     		b	.L57
 1096              		.cfi_endproc
 1097              	.LFE7:
 1099 00e6 00BF     		.section	.text.u8x8_byte_3wire_sw_spi,"ax",%progbits
 1100              		.align	1
 1101              		.p2align 2,,3
 1102              		.global	u8x8_byte_3wire_sw_spi
 1103              		.syntax unified
 1104              		.thumb
 1105              		.thumb_func
 1106              		.fpu fpv4-sp-d16
 1108              	u8x8_byte_3wire_sw_spi:
 1109              	.LFB8:
 250:/Users/imashio/Electronics/ARM/_Library/u8x8_byte.c ****   uint8_t i;
 1110              		.loc 1 250 0
 1111              		.cfi_startproc
 1112              		@ args = 0, pretend = 0, frame = 0
 1113              		@ frame_needed = 0, uses_anonymous_args = 0
 1114              	.LVL137:
 258:/Users/imashio/Electronics/ARM/_Library/u8x8_byte.c ****   {
 1115              		.loc 1 258 0
 1116 0000 1439     		subs	r1, r1, #20
 1117              	.LVL138:
 250:/Users/imashio/Electronics/ARM/_Library/u8x8_byte.c ****   uint8_t i;
 1118              		.loc 1 250 0
 1119 0002 2DE9F84F 		push	{r3, r4, r5, r6, r7, r8, r9, r10, fp, lr}
 1120              	.LCFI19:
 1121              		.cfi_def_cfa_offset 40
 1122              		.cfi_offset 3, -40
 1123              		.cfi_offset 4, -36
 1124              		.cfi_offset 5, -32
 1125              		.cfi_offset 6, -28
 1126              		.cfi_offset 7, -24
 1127              		.cfi_offset 8, -20
 1128              		.cfi_offset 9, -16
 1129              		.cfi_offset 10, -12
 1130              		.cfi_offset 11, -8
 1131              		.cfi_offset 14, -4
 250:/Users/imashio/Electronics/ARM/_Library/u8x8_byte.c ****   uint8_t i;
 1132              		.loc 1 250 0
 1133 0006 0446     		mov	r4, r0
 253:/Users/imashio/Electronics/ARM/_Library/u8x8_byte.c ****   uint8_t not_takeover_edge = 1 - takeover_edge;
 1134              		.loc 1 253 0
 1135 0008 0068     		ldr	r0, [r0]
 1136              	.LVL139:
 258:/Users/imashio/Electronics/ARM/_Library/u8x8_byte.c ****   {
 1137              		.loc 1 258 0
 1138 000a 0C29     		cmp	r1, #12
 1139 000c 00F28180 		bhi	.L88
ARM GAS  /var/folders/v3/wysfpd052nz8jkbx04pk0ym80000gn/T//cclLoxDJ.s 			page 33


 1140 0010 DFE801F0 		tbb	[pc, r1]
 1141              	.L76:
 1142 0014 6F       		.byte	(.L75-.L76)/2
 1143 0015 7F       		.byte	(.L88-.L76)/2
 1144 0016 7F       		.byte	(.L88-.L76)/2
 1145 0017 07       		.byte	(.L77-.L76)/2
 1146 0018 4E       		.byte	(.L78-.L76)/2
 1147 0019 5B       		.byte	(.L79-.L76)/2
 1148 001a 7F       		.byte	(.L88-.L76)/2
 1149 001b 7F       		.byte	(.L88-.L76)/2
 1150 001c 7F       		.byte	(.L88-.L76)/2
 1151 001d 7F       		.byte	(.L88-.L76)/2
 1152 001e 7F       		.byte	(.L88-.L76)/2
 1153 001f 7F       		.byte	(.L88-.L76)/2
 1154 0020 6A       		.byte	(.L80-.L76)/2
 1155 0021 00       		.p2align 1
 1156              	.L77:
 1157              	.LVL140:
 262:/Users/imashio/Electronics/ARM/_Library/u8x8_byte.c ****       {
 1158              		.loc 1 262 0
 1159 0022 002A     		cmp	r2, #0
 1160 0024 41D0     		beq	.L96
 253:/Users/imashio/Electronics/ARM/_Library/u8x8_byte.c ****   uint8_t not_takeover_edge = 1 - takeover_edge;
 1161              		.loc 1 253 0
 1162 0026 067B     		ldrb	r6, [r0, #12]	@ zero_extendqisi2
 1163 0028 DFF8ECA0 		ldr	r10, .L97
 1164 002c 06F00106 		and	r6, r6, #1
 1165 0030 013A     		subs	r2, r2, #1
 1166              	.LVL141:
 1167 0032 53FA82F9 		uxtab	r9, r3, r2
 1168 0036 03F1FF38 		add	r8, r3, #-1
 1169 003a C6F10107 		rsb	r7, r6, #1
 1170              	.LVL142:
 1171              	.L86:
 265:/Users/imashio/Electronics/ARM/_Library/u8x8_byte.c **** 	  b |= 256;
 1172              		.loc 1 265 0
 1173 003e 9AF80030 		ldrb	r3, [r10]	@ zero_extendqisi2
 264:/Users/imashio/Electronics/ARM/_Library/u8x8_byte.c **** 	if ( last_dc != 0 )
 1174              		.loc 1 264 0
 1175 0042 18F8015F 		ldrb	r5, [r8, #1]!	@ zero_extendqisi2
 1176              	.LVL143:
 265:/Users/imashio/Electronics/ARM/_Library/u8x8_byte.c **** 	  b |= 256;
 1177              		.loc 1 265 0
 1178 0046 0BB1     		cbz	r3, .L82
 266:/Users/imashio/Electronics/ARM/_Library/u8x8_byte.c **** 	data++;
 1179              		.loc 1 266 0
 1180 0048 45F48075 		orr	r5, r5, #256
 1181              	.LVL144:
 1182              	.L82:
 250:/Users/imashio/Electronics/ARM/_Library/u8x8_byte.c ****   uint8_t i;
 1183              		.loc 1 250 0
 1184 004c 4FF0090B 		mov	fp, #9
 1185              	.LVL145:
 1186              	.L85:
 271:/Users/imashio/Electronics/ARM/_Library/u8x8_byte.c **** 	    u8x8_gpio_SetSPIData(u8x8, 1);
 1187              		.loc 1 271 0
 1188 0050 15F48073 		ands	r3, r5, #256
ARM GAS  /var/folders/v3/wysfpd052nz8jkbx04pk0ym80000gn/T//cclLoxDJ.s 			page 34


 272:/Users/imashio/Electronics/ARM/_Library/u8x8_byte.c **** 	  else
 1189              		.loc 1 272 0
 1190 0054 4FF00102 		mov	r2, #1
 1191 0058 4FF04101 		mov	r1, #65
 274:/Users/imashio/Electronics/ARM/_Library/u8x8_byte.c **** 	  b <<= 1;
 1192              		.loc 1 274 0
 1193 005c 04BF     		itt	eq
 1194 005e 1A46     		moveq	r2, r3
 1195 0060 4121     		moveq	r1, #65
 272:/Users/imashio/Electronics/ARM/_Library/u8x8_byte.c **** 	  else
 1196              		.loc 1 272 0
 1197 0062 2046     		mov	r0, r4
 274:/Users/imashio/Electronics/ARM/_Library/u8x8_byte.c **** 	  b <<= 1;
 1198              		.loc 1 274 0
 1199 0064 08BF     		it	eq
 1200 0066 2046     		moveq	r0, r4
 1201 0068 FFF7FEFF 		bl	u8x8_gpio_call
 1202              	.LVL146:
 277:/Users/imashio/Electronics/ARM/_Library/u8x8_byte.c **** 	  u8x8_gpio_Delay(u8x8, U8X8_MSG_DELAY_NANO, u8x8->display_info->sda_setup_time_ns);
 1203              		.loc 1 277 0
 1204 006c FAB2     		uxtb	r2, r7
 1205 006e 4021     		movs	r1, #64
 1206 0070 2046     		mov	r0, r4
 1207 0072 FFF7FEFF 		bl	u8x8_gpio_call
 1208              	.LVL147:
 278:/Users/imashio/Electronics/ARM/_Library/u8x8_byte.c **** 	  u8x8_gpio_SetSPIClock(u8x8, takeover_edge);
 1209              		.loc 1 278 0
 1210 0076 2368     		ldr	r3, [r4]
 1211 0078 2C21     		movs	r1, #44
 1212 007a 9A79     		ldrb	r2, [r3, #6]	@ zero_extendqisi2
 1213 007c 2046     		mov	r0, r4
 1214 007e FFF7FEFF 		bl	u8x8_gpio_call
 1215              	.LVL148:
 279:/Users/imashio/Electronics/ARM/_Library/u8x8_byte.c **** 	  u8x8_gpio_Delay(u8x8, U8X8_MSG_DELAY_NANO, u8x8->display_info->sck_pulse_width_ns);
 1216              		.loc 1 279 0
 1217 0082 3246     		mov	r2, r6
 1218 0084 4021     		movs	r1, #64
 1219 0086 2046     		mov	r0, r4
 1220 0088 FFF7FEFF 		bl	u8x8_gpio_call
 1221              	.LVL149:
 280:/Users/imashio/Electronics/ARM/_Library/u8x8_byte.c **** 	}    
 1222              		.loc 1 280 0
 1223 008c 2368     		ldr	r3, [r4]
 1224 008e 2C21     		movs	r1, #44
 1225 0090 DA79     		ldrb	r2, [r3, #7]	@ zero_extendqisi2
 1226 0092 2046     		mov	r0, r4
 1227 0094 FFF7FEFF 		bl	u8x8_gpio_call
 1228              	.LVL150:
 1229 0098 0BF1FF33 		add	r3, fp, #-1
 275:/Users/imashio/Electronics/ARM/_Library/u8x8_byte.c **** 	  
 1230              		.loc 1 275 0
 1231 009c 6D00     		lsls	r5, r5, #1
 1232              	.LVL151:
 269:/Users/imashio/Electronics/ARM/_Library/u8x8_byte.c **** 	{
 1233              		.loc 1 269 0
 1234 009e 13F0FF0B 		ands	fp, r3, #255
 1235              	.LVL152:
ARM GAS  /var/folders/v3/wysfpd052nz8jkbx04pk0ym80000gn/T//cclLoxDJ.s 			page 35


 275:/Users/imashio/Electronics/ARM/_Library/u8x8_byte.c **** 	  
 1236              		.loc 1 275 0
 1237 00a2 ADB2     		uxth	r5, r5
 1238              	.LVL153:
 269:/Users/imashio/Electronics/ARM/_Library/u8x8_byte.c **** 	{
 1239              		.loc 1 269 0
 1240 00a4 D4D1     		bne	.L85
 262:/Users/imashio/Electronics/ARM/_Library/u8x8_byte.c ****       {
 1241              		.loc 1 262 0
 1242 00a6 C145     		cmp	r9, r8
 1243 00a8 C9D1     		bne	.L86
 1244              	.LVL154:
 1245              	.L96:
 307:/Users/imashio/Electronics/ARM/_Library/u8x8_byte.c **** }
 1246              		.loc 1 307 0
 1247 00aa 0120     		movs	r0, #1
 1248              	.L74:
 308:/Users/imashio/Electronics/ARM/_Library/u8x8_byte.c **** 
 1249              		.loc 1 308 0
 1250 00ac BDE8F88F 		pop	{r3, r4, r5, r6, r7, r8, r9, r10, fp, pc}
 1251              	.LVL155:
 1252              	.L78:
 297:/Users/imashio/Electronics/ARM/_Library/u8x8_byte.c ****       u8x8->gpio_and_delay_cb(u8x8, U8X8_MSG_DELAY_NANO, u8x8->display_info->post_chip_enable_wait_
 1253              		.loc 1 297 0
 1254 00b0 0278     		ldrb	r2, [r0]	@ zero_extendqisi2
 1255              	.LVL156:
 1256 00b2 4921     		movs	r1, #73
 1257 00b4 2046     		mov	r0, r4
 1258              	.LVL157:
 1259 00b6 FFF7FEFF 		bl	u8x8_gpio_call
 1260              	.LVL158:
 298:/Users/imashio/Electronics/ARM/_Library/u8x8_byte.c ****       break;
 1261              		.loc 1 298 0
 1262 00ba 2368     		ldr	r3, [r4]
 1263 00bc 6569     		ldr	r5, [r4, #20]
 1264 00be 9A78     		ldrb	r2, [r3, #2]	@ zero_extendqisi2
 1265 00c0 2046     		mov	r0, r4
 1266 00c2 0023     		movs	r3, #0
 1267 00c4 2C21     		movs	r1, #44
 1268 00c6 A847     		blx	r5
 1269              	.LVL159:
 1270 00c8 EFE7     		b	.L96
 1271              	.LVL160:
 1272              	.L79:
 301:/Users/imashio/Electronics/ARM/_Library/u8x8_byte.c ****       u8x8_gpio_SetCS(u8x8, u8x8->display_info->chip_disable_level);
 1273              		.loc 1 301 0
 1274 00ca C278     		ldrb	r2, [r0, #3]	@ zero_extendqisi2
 1275              	.LVL161:
 1276 00cc 6569     		ldr	r5, [r4, #20]
 1277 00ce 0023     		movs	r3, #0
 1278              	.LVL162:
 1279 00d0 2C21     		movs	r1, #44
 1280 00d2 2046     		mov	r0, r4
 1281              	.LVL163:
 1282 00d4 A847     		blx	r5
 1283              	.LVL164:
 302:/Users/imashio/Electronics/ARM/_Library/u8x8_byte.c ****       break;
ARM GAS  /var/folders/v3/wysfpd052nz8jkbx04pk0ym80000gn/T//cclLoxDJ.s 			page 36


 1284              		.loc 1 302 0
 1285 00d6 2368     		ldr	r3, [r4]
 1286 00d8 2046     		mov	r0, r4
 1287 00da 5A78     		ldrb	r2, [r3, #1]	@ zero_extendqisi2
 1288 00dc 4921     		movs	r1, #73
 1289 00de FFF7FEFF 		bl	u8x8_gpio_call
 1290              	.LVL165:
 307:/Users/imashio/Electronics/ARM/_Library/u8x8_byte.c **** }
 1291              		.loc 1 307 0
 1292 00e2 0120     		movs	r0, #1
 308:/Users/imashio/Electronics/ARM/_Library/u8x8_byte.c **** 
 1293              		.loc 1 308 0
 1294 00e4 BDE8F88F 		pop	{r3, r4, r5, r6, r7, r8, r9, r10, fp, pc}
 1295              	.LVL166:
 1296              	.L80:
 294:/Users/imashio/Electronics/ARM/_Library/u8x8_byte.c ****       break;
 1297              		.loc 1 294 0
 1298 00e8 0B4B     		ldr	r3, .L97
 1299              	.LVL167:
 1300 00ea 1A70     		strb	r2, [r3]
 307:/Users/imashio/Electronics/ARM/_Library/u8x8_byte.c **** }
 1301              		.loc 1 307 0
 1302 00ec 0120     		movs	r0, #1
 1303              	.LVL168:
 308:/Users/imashio/Electronics/ARM/_Library/u8x8_byte.c **** 
 1304              		.loc 1 308 0
 1305 00ee BDE8F88F 		pop	{r3, r4, r5, r6, r7, r8, r9, r10, fp, pc}
 1306              	.LVL169:
 1307              	.L75:
 287:/Users/imashio/Electronics/ARM/_Library/u8x8_byte.c ****       /* no wait required here */
 1308              		.loc 1 287 0
 1309 00f2 4278     		ldrb	r2, [r0, #1]	@ zero_extendqisi2
 1310              	.LVL170:
 1311 00f4 4921     		movs	r1, #73
 1312 00f6 2046     		mov	r0, r4
 1313              	.LVL171:
 1314 00f8 FFF7FEFF 		bl	u8x8_gpio_call
 1315              	.LVL172:
 291:/Users/imashio/Electronics/ARM/_Library/u8x8_byte.c ****       break;
 1316              		.loc 1 291 0
 1317 00fc 2368     		ldr	r3, [r4]
 1318 00fe 1A7B     		ldrb	r2, [r3, #12]	@ zero_extendqisi2
 1319 0100 2046     		mov	r0, r4
 1320 0102 02F00102 		and	r2, r2, #1
 1321 0106 4021     		movs	r1, #64
 1322 0108 FFF7FEFF 		bl	u8x8_gpio_call
 1323              	.LVL173:
 307:/Users/imashio/Electronics/ARM/_Library/u8x8_byte.c **** }
 1324              		.loc 1 307 0
 1325 010c 0120     		movs	r0, #1
 308:/Users/imashio/Electronics/ARM/_Library/u8x8_byte.c **** 
 1326              		.loc 1 308 0
 1327 010e BDE8F88F 		pop	{r3, r4, r5, r6, r7, r8, r9, r10, fp, pc}
 1328              	.LVL174:
 1329              	.L88:
 305:/Users/imashio/Electronics/ARM/_Library/u8x8_byte.c ****   }
 1330              		.loc 1 305 0
ARM GAS  /var/folders/v3/wysfpd052nz8jkbx04pk0ym80000gn/T//cclLoxDJ.s 			page 37


 1331 0112 0020     		movs	r0, #0
 1332              	.LVL175:
 1333 0114 CAE7     		b	.L74
 1334              	.L98:
 1335 0116 00BF     		.align	2
 1336              	.L97:
 1337 0118 00000000 		.word	.LANCHOR0
 1338              		.cfi_endproc
 1339              	.LFE8:
 1341              		.section	.text.u8x8_byte_set_ks0108_cs,"ax",%progbits
 1342              		.align	1
 1343              		.p2align 2,,3
 1344              		.global	u8x8_byte_set_ks0108_cs
 1345              		.syntax unified
 1346              		.thumb
 1347              		.thumb_func
 1348              		.fpu fpv4-sp-d16
 1350              	u8x8_byte_set_ks0108_cs:
 1351              	.LFB9:
 313:/Users/imashio/Electronics/ARM/_Library/u8x8_byte.c ****   u8x8_gpio_SetCS(u8x8, arg&1);
 1352              		.loc 1 313 0
 1353              		.cfi_startproc
 1354              		@ args = 0, pretend = 0, frame = 0
 1355              		@ frame_needed = 0, uses_anonymous_args = 0
 1356              	.LVL176:
 1357 0000 38B5     		push	{r3, r4, r5, lr}
 1358              	.LCFI20:
 1359              		.cfi_def_cfa_offset 16
 1360              		.cfi_offset 3, -16
 1361              		.cfi_offset 4, -12
 1362              		.cfi_offset 5, -8
 1363              		.cfi_offset 14, -4
 314:/Users/imashio/Electronics/ARM/_Library/u8x8_byte.c ****   arg = arg >> 1;
 1364              		.loc 1 314 0
 1365 0002 01F00102 		and	r2, r1, #1
 313:/Users/imashio/Electronics/ARM/_Library/u8x8_byte.c ****   u8x8_gpio_SetCS(u8x8, arg&1);
 1366              		.loc 1 313 0
 1367 0006 0C46     		mov	r4, r1
 1368 0008 0546     		mov	r5, r0
 314:/Users/imashio/Electronics/ARM/_Library/u8x8_byte.c ****   arg = arg >> 1;
 1369              		.loc 1 314 0
 1370 000a 4921     		movs	r1, #73
 1371              	.LVL177:
 1372 000c FFF7FEFF 		bl	u8x8_gpio_call
 1373              	.LVL178:
 316:/Users/imashio/Electronics/ARM/_Library/u8x8_byte.c ****   arg = arg >> 2;
 1374              		.loc 1 316 0
 1375 0010 C4F34002 		ubfx	r2, r4, #1, #1
 1376 0014 2846     		mov	r0, r5
 1377 0016 4E21     		movs	r1, #78
 1378 0018 FFF7FEFF 		bl	u8x8_gpio_call
 1379              	.LVL179:
 318:/Users/imashio/Electronics/ARM/_Library/u8x8_byte.c **** }
 1380              		.loc 1 318 0
 1381 001c C4F3C002 		ubfx	r2, r4, #3, #1
 1382 0020 2846     		mov	r0, r5
 1383 0022 4F21     		movs	r1, #79
ARM GAS  /var/folders/v3/wysfpd052nz8jkbx04pk0ym80000gn/T//cclLoxDJ.s 			page 38


 319:/Users/imashio/Electronics/ARM/_Library/u8x8_byte.c **** 
 1384              		.loc 1 319 0
 1385 0024 BDE83840 		pop	{r3, r4, r5, lr}
 1386              	.LCFI21:
 1387              		.cfi_restore 14
 1388              		.cfi_restore 5
 1389              		.cfi_restore 4
 1390              		.cfi_restore 3
 1391              		.cfi_def_cfa_offset 0
 1392              	.LVL180:
 318:/Users/imashio/Electronics/ARM/_Library/u8x8_byte.c **** }
 1393              		.loc 1 318 0
 1394 0028 FFF7FEBF 		b	u8x8_gpio_call
 1395              	.LVL181:
 1396              		.cfi_endproc
 1397              	.LFE9:
 1399              		.section	.text.u8x8_byte_ks0108,"ax",%progbits
 1400              		.align	1
 1401              		.p2align 2,,3
 1402              		.global	u8x8_byte_ks0108
 1403              		.syntax unified
 1404              		.thumb
 1405              		.thumb_func
 1406              		.fpu fpv4-sp-d16
 1408              	u8x8_byte_ks0108:
 1409              	.LFB10:
 323:/Users/imashio/Electronics/ARM/_Library/u8x8_byte.c ****   uint8_t i, b;
 1410              		.loc 1 323 0
 1411              		.cfi_startproc
 1412              		@ args = 0, pretend = 0, frame = 0
 1413              		@ frame_needed = 0, uses_anonymous_args = 0
 1414              	.LVL182:
 327:/Users/imashio/Electronics/ARM/_Library/u8x8_byte.c ****   {
 1415              		.loc 1 327 0
 1416 0000 1439     		subs	r1, r1, #20
 1417              	.LVL183:
 323:/Users/imashio/Electronics/ARM/_Library/u8x8_byte.c ****   uint8_t i, b;
 1418              		.loc 1 323 0
 1419 0002 2DE9F041 		push	{r4, r5, r6, r7, r8, lr}
 1420              	.LCFI22:
 1421              		.cfi_def_cfa_offset 24
 1422              		.cfi_offset 4, -24
 1423              		.cfi_offset 5, -20
 1424              		.cfi_offset 6, -16
 1425              		.cfi_offset 7, -12
 1426              		.cfi_offset 8, -8
 1427              		.cfi_offset 14, -4
 323:/Users/imashio/Electronics/ARM/_Library/u8x8_byte.c ****   uint8_t i, b;
 1428              		.loc 1 323 0
 1429 0006 0646     		mov	r6, r0
 1430 0008 1446     		mov	r4, r2
 1431 000a 1F46     		mov	r7, r3
 327:/Users/imashio/Electronics/ARM/_Library/u8x8_byte.c ****   {
 1432              		.loc 1 327 0
 1433 000c 0C29     		cmp	r1, #12
 1434 000e 65D8     		bhi	.L113
 1435 0010 DFE801F0 		tbb	[pc, r1]
ARM GAS  /var/folders/v3/wysfpd052nz8jkbx04pk0ym80000gn/T//cclLoxDJ.s 			page 39


 1436              	.LVL184:
 1437              	.L104:
 1438 0014 0D       		.byte	(.L103-.L104)/2
 1439 0015 64       		.byte	(.L113-.L104)/2
 1440 0016 64       		.byte	(.L113-.L104)/2
 1441 0017 1A       		.byte	(.L105-.L104)/2
 1442 0018 4C       		.byte	(.L106-.L104)/2
 1443 0019 57       		.byte	(.L107-.L104)/2
 1444 001a 64       		.byte	(.L113-.L104)/2
 1445 001b 64       		.byte	(.L113-.L104)/2
 1446 001c 64       		.byte	(.L113-.L104)/2
 1447 001d 64       		.byte	(.L113-.L104)/2
 1448 001e 64       		.byte	(.L113-.L104)/2
 1449 001f 64       		.byte	(.L113-.L104)/2
 1450 0020 07       		.byte	(.L108-.L104)/2
 1451 0021 00       		.p2align 1
 1452              	.L108:
 356:/Users/imashio/Electronics/ARM/_Library/u8x8_byte.c ****       break;
 1453              		.loc 1 356 0
 1454 0022 4A21     		movs	r1, #74
 1455 0024 FFF7FEFF 		bl	u8x8_gpio_call
 1456              	.LVL185:
 370:/Users/imashio/Electronics/ARM/_Library/u8x8_byte.c **** }
 1457              		.loc 1 370 0
 1458 0028 0120     		movs	r0, #1
 1459              	.L102:
 371:/Users/imashio/Electronics/ARM/_Library/u8x8_byte.c **** 
 1460              		.loc 1 371 0
 1461 002a BDE8F081 		pop	{r4, r5, r6, r7, r8, pc}
 1462              	.LVL186:
 1463              	.L103:
 351:/Users/imashio/Electronics/ARM/_Library/u8x8_byte.c ****       /* ensure that the enable signal is low */
 1464              		.loc 1 351 0
 1465 002e 0368     		ldr	r3, [r0]
 1466 0030 4921     		movs	r1, #73
 1467 0032 5A78     		ldrb	r2, [r3, #1]	@ zero_extendqisi2
 1468              	.LVL187:
 1469 0034 FFF7FEFF 		bl	u8x8_gpio_call
 1470              	.LVL188:
 353:/Users/imashio/Electronics/ARM/_Library/u8x8_byte.c ****       break;
 1471              		.loc 1 353 0
 1472 0038 3046     		mov	r0, r6
 1473 003a 0022     		movs	r2, #0
 1474 003c 4821     		movs	r1, #72
 1475 003e FFF7FEFF 		bl	u8x8_gpio_call
 1476              	.LVL189:
 370:/Users/imashio/Electronics/ARM/_Library/u8x8_byte.c **** }
 1477              		.loc 1 370 0
 1478 0042 0120     		movs	r0, #1
 371:/Users/imashio/Electronics/ARM/_Library/u8x8_byte.c **** 
 1479              		.loc 1 371 0
 1480 0044 BDE8F081 		pop	{r4, r5, r6, r7, r8, pc}
 1481              	.LVL190:
 1482              	.L105:
 331:/Users/imashio/Electronics/ARM/_Library/u8x8_byte.c ****       {
 1483              		.loc 1 331 0
 1484 0048 6AB3     		cbz	r2, .L117
ARM GAS  /var/folders/v3/wysfpd052nz8jkbx04pk0ym80000gn/T//cclLoxDJ.s 			page 40


 1485 004a 02F1FF38 		add	r8, r2, #-1
 1486 004e 5FFA88F8 		uxtb	r8, r8
 1487 0052 08F10108 		add	r8, r8, #1
 1488 0056 B844     		add	r8, r8, r7
 1489              	.LVL191:
 1490              	.L111:
 333:/Users/imashio/Electronics/ARM/_Library/u8x8_byte.c **** 	data++;
 1491              		.loc 1 333 0
 1492 0058 17F8015B 		ldrb	r5, [r7], #1	@ zero_extendqisi2
 1493              	.LVL192:
 336:/Users/imashio/Electronics/ARM/_Library/u8x8_byte.c **** 	{
 1494              		.loc 1 336 0
 1495 005c 4024     		movs	r4, #64
 1496              	.LVL193:
 1497              	.L110:
 338:/Users/imashio/Electronics/ARM/_Library/u8x8_byte.c **** 	  b >>= 1;
 1498              		.loc 1 338 0 discriminator 3
 1499 005e 2146     		mov	r1, r4
 336:/Users/imashio/Electronics/ARM/_Library/u8x8_byte.c **** 	{
 1500              		.loc 1 336 0 discriminator 3
 1501 0060 0134     		adds	r4, r4, #1
 1502              	.LVL194:
 338:/Users/imashio/Electronics/ARM/_Library/u8x8_byte.c **** 	  b >>= 1;
 1503              		.loc 1 338 0 discriminator 3
 1504 0062 05F00102 		and	r2, r5, #1
 1505 0066 3046     		mov	r0, r6
 336:/Users/imashio/Electronics/ARM/_Library/u8x8_byte.c **** 	{
 1506              		.loc 1 336 0 discriminator 3
 1507 0068 E4B2     		uxtb	r4, r4
 338:/Users/imashio/Electronics/ARM/_Library/u8x8_byte.c **** 	  b >>= 1;
 1508              		.loc 1 338 0 discriminator 3
 1509 006a FFF7FEFF 		bl	u8x8_gpio_call
 1510              	.LVL195:
 336:/Users/imashio/Electronics/ARM/_Library/u8x8_byte.c **** 	{
 1511              		.loc 1 336 0 discriminator 3
 1512 006e 482C     		cmp	r4, #72
 339:/Users/imashio/Electronics/ARM/_Library/u8x8_byte.c **** 	}    
 1513              		.loc 1 339 0 discriminator 3
 1514 0070 4FEA5505 		lsr	r5, r5, #1
 1515              	.LVL196:
 336:/Users/imashio/Electronics/ARM/_Library/u8x8_byte.c **** 	{
 1516              		.loc 1 336 0 discriminator 3
 1517 0074 F3D1     		bne	.L110
 342:/Users/imashio/Electronics/ARM/_Library/u8x8_byte.c **** 	u8x8_gpio_call(u8x8, U8X8_MSG_GPIO_E, 1);
 1518              		.loc 1 342 0
 1519 0076 3368     		ldr	r3, [r6]
 1520 0078 2C21     		movs	r1, #44
 1521 007a 9A7B     		ldrb	r2, [r3, #14]	@ zero_extendqisi2
 1522 007c 3046     		mov	r0, r6
 1523 007e FFF7FEFF 		bl	u8x8_gpio_call
 1524              	.LVL197:
 343:/Users/imashio/Electronics/ARM/_Library/u8x8_byte.c **** 	u8x8_gpio_Delay(u8x8, U8X8_MSG_DELAY_NANO, u8x8->display_info->write_pulse_width_ns);
 1525              		.loc 1 343 0
 1526 0082 0122     		movs	r2, #1
 1527 0084 2146     		mov	r1, r4
 1528 0086 3046     		mov	r0, r6
 1529 0088 FFF7FEFF 		bl	u8x8_gpio_call
ARM GAS  /var/folders/v3/wysfpd052nz8jkbx04pk0ym80000gn/T//cclLoxDJ.s 			page 41


 1530              	.LVL198:
 344:/Users/imashio/Electronics/ARM/_Library/u8x8_byte.c **** 	u8x8_gpio_call(u8x8, U8X8_MSG_GPIO_E, 0);
 1531              		.loc 1 344 0
 1532 008c 3368     		ldr	r3, [r6]
 1533 008e 2C21     		movs	r1, #44
 1534 0090 DA7B     		ldrb	r2, [r3, #15]	@ zero_extendqisi2
 1535 0092 3046     		mov	r0, r6
 1536 0094 FFF7FEFF 		bl	u8x8_gpio_call
 1537              	.LVL199:
 345:/Users/imashio/Electronics/ARM/_Library/u8x8_byte.c ****       }
 1538              		.loc 1 345 0
 1539 0098 2146     		mov	r1, r4
 1540 009a 0022     		movs	r2, #0
 1541 009c 3046     		mov	r0, r6
 1542 009e FFF7FEFF 		bl	u8x8_gpio_call
 1543              	.LVL200:
 331:/Users/imashio/Electronics/ARM/_Library/u8x8_byte.c ****       {
 1544              		.loc 1 331 0
 1545 00a2 4745     		cmp	r7, r8
 1546 00a4 D8D1     		bne	.L111
 1547              	.LVL201:
 1548              	.L117:
 370:/Users/imashio/Electronics/ARM/_Library/u8x8_byte.c **** }
 1549              		.loc 1 370 0
 1550 00a6 0120     		movs	r0, #1
 371:/Users/imashio/Electronics/ARM/_Library/u8x8_byte.c **** 
 1551              		.loc 1 371 0
 1552 00a8 BDE8F081 		pop	{r4, r5, r6, r7, r8, pc}
 1553              	.LVL202:
 1554              	.L106:
 360:/Users/imashio/Electronics/ARM/_Library/u8x8_byte.c ****       u8x8->gpio_and_delay_cb(u8x8, U8X8_MSG_DELAY_NANO, u8x8->display_info->post_chip_enable_wait_
 1555              		.loc 1 360 0
 1556 00ac 1146     		mov	r1, r2
 1557 00ae FFF7FEFF 		bl	u8x8_byte_set_ks0108_cs
 1558              	.LVL203:
 361:/Users/imashio/Electronics/ARM/_Library/u8x8_byte.c ****       break;
 1559              		.loc 1 361 0
 1560 00b2 3368     		ldr	r3, [r6]
 1561 00b4 7469     		ldr	r4, [r6, #20]
 1562 00b6 9A78     		ldrb	r2, [r3, #2]	@ zero_extendqisi2
 1563 00b8 3046     		mov	r0, r6
 1564 00ba 0023     		movs	r3, #0
 1565 00bc 2C21     		movs	r1, #44
 1566 00be A047     		blx	r4
 1567              	.LVL204:
 1568 00c0 F1E7     		b	.L117
 1569              	.LVL205:
 1570              	.L107:
 364:/Users/imashio/Electronics/ARM/_Library/u8x8_byte.c ****       u8x8_byte_set_ks0108_cs(u8x8, arg_int);
 1571              		.loc 1 364 0
 1572 00c2 0368     		ldr	r3, [r0]
 1573 00c4 4569     		ldr	r5, [r0, #20]
 1574 00c6 DA78     		ldrb	r2, [r3, #3]	@ zero_extendqisi2
 1575              	.LVL206:
 1576 00c8 2C21     		movs	r1, #44
 1577 00ca 0023     		movs	r3, #0
 1578 00cc A847     		blx	r5
ARM GAS  /var/folders/v3/wysfpd052nz8jkbx04pk0ym80000gn/T//cclLoxDJ.s 			page 42


 1579              	.LVL207:
 365:/Users/imashio/Electronics/ARM/_Library/u8x8_byte.c ****       break;
 1580              		.loc 1 365 0
 1581 00ce 3046     		mov	r0, r6
 1582 00d0 2146     		mov	r1, r4
 1583 00d2 FFF7FEFF 		bl	u8x8_byte_set_ks0108_cs
 1584              	.LVL208:
 370:/Users/imashio/Electronics/ARM/_Library/u8x8_byte.c **** }
 1585              		.loc 1 370 0
 1586 00d6 0120     		movs	r0, #1
 371:/Users/imashio/Electronics/ARM/_Library/u8x8_byte.c **** 
 1587              		.loc 1 371 0
 1588 00d8 BDE8F081 		pop	{r4, r5, r6, r7, r8, pc}
 1589              	.LVL209:
 1590              	.L113:
 368:/Users/imashio/Electronics/ARM/_Library/u8x8_byte.c ****   }
 1591              		.loc 1 368 0
 1592 00dc 0020     		movs	r0, #0
 1593              	.LVL210:
 1594 00de A4E7     		b	.L102
 1595              		.cfi_endproc
 1596              	.LFE10:
 1598              		.section	.text.u8x8_byte_sed1520,"ax",%progbits
 1599              		.align	1
 1600              		.p2align 2,,3
 1601              		.global	u8x8_byte_sed1520
 1602              		.syntax unified
 1603              		.thumb
 1604              		.thumb_func
 1605              		.fpu fpv4-sp-d16
 1607              	u8x8_byte_sed1520:
 1608              	.LFB11:
 379:/Users/imashio/Electronics/ARM/_Library/u8x8_byte.c ****   uint8_t i, b;
 1609              		.loc 1 379 0
 1610              		.cfi_startproc
 1611              		@ args = 0, pretend = 0, frame = 0
 1612              		@ frame_needed = 0, uses_anonymous_args = 0
 1613              	.LVL211:
 384:/Users/imashio/Electronics/ARM/_Library/u8x8_byte.c ****   {
 1614              		.loc 1 384 0
 1615 0000 1439     		subs	r1, r1, #20
 1616              	.LVL212:
 379:/Users/imashio/Electronics/ARM/_Library/u8x8_byte.c ****   uint8_t i, b;
 1617              		.loc 1 379 0
 1618 0002 2DE9F843 		push	{r3, r4, r5, r6, r7, r8, r9, lr}
 1619              	.LCFI23:
 1620              		.cfi_def_cfa_offset 32
 1621              		.cfi_offset 3, -32
 1622              		.cfi_offset 4, -28
 1623              		.cfi_offset 5, -24
 1624              		.cfi_offset 6, -20
 1625              		.cfi_offset 7, -16
 1626              		.cfi_offset 8, -12
 1627              		.cfi_offset 9, -8
 1628              		.cfi_offset 14, -4
 379:/Users/imashio/Electronics/ARM/_Library/u8x8_byte.c ****   uint8_t i, b;
 1629              		.loc 1 379 0
ARM GAS  /var/folders/v3/wysfpd052nz8jkbx04pk0ym80000gn/T//cclLoxDJ.s 			page 43


 1630 0006 0646     		mov	r6, r0
 1631 0008 1F46     		mov	r7, r3
 384:/Users/imashio/Electronics/ARM/_Library/u8x8_byte.c ****   {
 1632              		.loc 1 384 0
 1633 000a 0C29     		cmp	r1, #12
 1634 000c 5ED8     		bhi	.L131
 1635 000e DFE801F0 		tbb	[pc, r1]
 1636              	.LVL213:
 1637              	.L121:
 1638 0012 15       		.byte	(.L120-.L121)/2
 1639 0013 5D       		.byte	(.L131-.L121)/2
 1640 0014 5D       		.byte	(.L131-.L121)/2
 1641 0015 28       		.byte	(.L122-.L121)/2
 1642 0016 07       		.byte	(.L123-.L121)/2
 1643 0017 0C       		.byte	(.L136-.L121)/2
 1644 0018 5D       		.byte	(.L131-.L121)/2
 1645 0019 5D       		.byte	(.L131-.L121)/2
 1646 001a 5D       		.byte	(.L131-.L121)/2
 1647 001b 5D       		.byte	(.L131-.L121)/2
 1648 001c 5D       		.byte	(.L131-.L121)/2
 1649 001d 5D       		.byte	(.L131-.L121)/2
 1650 001e 0F       		.byte	(.L125-.L121)/2
 1651 001f 00       		.p2align 1
 1652              	.L123:
 422:/Users/imashio/Electronics/ARM/_Library/u8x8_byte.c ****       break;
 1653              		.loc 1 422 0
 1654 0020 2D4B     		ldr	r3, .L138
 421:/Users/imashio/Electronics/ARM/_Library/u8x8_byte.c **** 	enable_pin = U8X8_MSG_GPIO_CS;
 1655              		.loc 1 421 0
 1656 0022 002A     		cmp	r2, #0
 1657 0024 54D0     		beq	.L137
 422:/Users/imashio/Electronics/ARM/_Library/u8x8_byte.c ****       break;
 1658              		.loc 1 422 0
 1659 0026 4922     		movs	r2, #73
 1660              	.LVL214:
 1661 0028 1A70     		strb	r2, [r3]
 1662              	.LVL215:
 1663              	.L136:
 429:/Users/imashio/Electronics/ARM/_Library/u8x8_byte.c **** }
 1664              		.loc 1 429 0
 1665 002a 0120     		movs	r0, #1
 1666              	.L119:
 430:/Users/imashio/Electronics/ARM/_Library/u8x8_byte.c **** 
 1667              		.loc 1 430 0
 1668 002c BDE8F883 		pop	{r3, r4, r5, r6, r7, r8, r9, pc}
 1669              	.LVL216:
 1670              	.L125:
 415:/Users/imashio/Electronics/ARM/_Library/u8x8_byte.c ****       break;
 1671              		.loc 1 415 0
 1672 0030 4A21     		movs	r1, #74
 1673 0032 FFF7FEFF 		bl	u8x8_gpio_call
 1674              	.LVL217:
 429:/Users/imashio/Electronics/ARM/_Library/u8x8_byte.c **** }
 1675              		.loc 1 429 0
 1676 0036 0120     		movs	r0, #1
 430:/Users/imashio/Electronics/ARM/_Library/u8x8_byte.c **** 
 1677              		.loc 1 430 0
ARM GAS  /var/folders/v3/wysfpd052nz8jkbx04pk0ym80000gn/T//cclLoxDJ.s 			page 44


 1678 0038 BDE8F883 		pop	{r3, r4, r5, r6, r7, r8, r9, pc}
 1679              	.LVL218:
 1680              	.L120:
 408:/Users/imashio/Electronics/ARM/_Library/u8x8_byte.c ****       /* ensure that the enable signals are low */
 1681              		.loc 1 408 0
 1682 003c 0368     		ldr	r3, [r0]
 1683 003e 4921     		movs	r1, #73
 1684 0040 5A78     		ldrb	r2, [r3, #1]	@ zero_extendqisi2
 1685              	.LVL219:
 1686 0042 FFF7FEFF 		bl	u8x8_gpio_call
 1687              	.LVL220:
 410:/Users/imashio/Electronics/ARM/_Library/u8x8_byte.c ****       u8x8_gpio_call(u8x8, U8X8_MSG_GPIO_CS, 0);
 1688              		.loc 1 410 0
 1689 0046 0022     		movs	r2, #0
 1690 0048 4821     		movs	r1, #72
 1691 004a 3046     		mov	r0, r6
 1692 004c FFF7FEFF 		bl	u8x8_gpio_call
 1693              	.LVL221:
 411:/Users/imashio/Electronics/ARM/_Library/u8x8_byte.c ****       enable_pin = U8X8_MSG_GPIO_E;
 1694              		.loc 1 411 0
 1695 0050 0022     		movs	r2, #0
 1696 0052 3046     		mov	r0, r6
 1697 0054 4921     		movs	r1, #73
 1698 0056 FFF7FEFF 		bl	u8x8_gpio_call
 1699              	.LVL222:
 412:/Users/imashio/Electronics/ARM/_Library/u8x8_byte.c ****       break;
 1700              		.loc 1 412 0
 1701 005a 1F4B     		ldr	r3, .L138
 1702 005c 4822     		movs	r2, #72
 1703 005e 1A70     		strb	r2, [r3]
 1704 0060 E3E7     		b	.L136
 1705              	.LVL223:
 1706              	.L122:
 388:/Users/imashio/Electronics/ARM/_Library/u8x8_byte.c ****       {
 1707              		.loc 1 388 0
 1708 0062 002A     		cmp	r2, #0
 1709 0064 E1D0     		beq	.L136
 1710 0066 02F1FF38 		add	r8, r2, #-1
 1711 006a 5FFA88F8 		uxtb	r8, r8
 1712 006e 08F10108 		add	r8, r8, #1
 1713 0072 DFF86490 		ldr	r9, .L138
 1714 0076 B844     		add	r8, r8, r7
 1715              	.LVL224:
 1716              	.L128:
 390:/Users/imashio/Electronics/ARM/_Library/u8x8_byte.c **** 	data++;
 1717              		.loc 1 390 0
 1718 0078 17F8015B 		ldrb	r5, [r7], #1	@ zero_extendqisi2
 1719              	.LVL225:
 393:/Users/imashio/Electronics/ARM/_Library/u8x8_byte.c **** 	{
 1720              		.loc 1 393 0
 1721 007c 4024     		movs	r4, #64
 1722              	.LVL226:
 1723              	.L127:
 395:/Users/imashio/Electronics/ARM/_Library/u8x8_byte.c **** 	  b >>= 1;
 1724              		.loc 1 395 0 discriminator 3
 1725 007e 2146     		mov	r1, r4
 393:/Users/imashio/Electronics/ARM/_Library/u8x8_byte.c **** 	{
ARM GAS  /var/folders/v3/wysfpd052nz8jkbx04pk0ym80000gn/T//cclLoxDJ.s 			page 45


 1726              		.loc 1 393 0 discriminator 3
 1727 0080 0134     		adds	r4, r4, #1
 1728              	.LVL227:
 395:/Users/imashio/Electronics/ARM/_Library/u8x8_byte.c **** 	  b >>= 1;
 1729              		.loc 1 395 0 discriminator 3
 1730 0082 05F00102 		and	r2, r5, #1
 1731 0086 3046     		mov	r0, r6
 393:/Users/imashio/Electronics/ARM/_Library/u8x8_byte.c **** 	{
 1732              		.loc 1 393 0 discriminator 3
 1733 0088 E4B2     		uxtb	r4, r4
 395:/Users/imashio/Electronics/ARM/_Library/u8x8_byte.c **** 	  b >>= 1;
 1734              		.loc 1 395 0 discriminator 3
 1735 008a FFF7FEFF 		bl	u8x8_gpio_call
 1736              	.LVL228:
 393:/Users/imashio/Electronics/ARM/_Library/u8x8_byte.c **** 	{
 1737              		.loc 1 393 0 discriminator 3
 1738 008e 482C     		cmp	r4, #72
 396:/Users/imashio/Electronics/ARM/_Library/u8x8_byte.c **** 	}    
 1739              		.loc 1 396 0 discriminator 3
 1740 0090 4FEA5505 		lsr	r5, r5, #1
 1741              	.LVL229:
 393:/Users/imashio/Electronics/ARM/_Library/u8x8_byte.c **** 	{
 1742              		.loc 1 393 0 discriminator 3
 1743 0094 F3D1     		bne	.L127
 399:/Users/imashio/Electronics/ARM/_Library/u8x8_byte.c **** 	u8x8_gpio_call(u8x8, enable_pin, 1);
 1744              		.loc 1 399 0
 1745 0096 3368     		ldr	r3, [r6]
 1746 0098 2C21     		movs	r1, #44
 1747 009a 9A7B     		ldrb	r2, [r3, #14]	@ zero_extendqisi2
 1748 009c 3046     		mov	r0, r6
 1749 009e FFF7FEFF 		bl	u8x8_gpio_call
 1750              	.LVL230:
 400:/Users/imashio/Electronics/ARM/_Library/u8x8_byte.c **** 	u8x8_gpio_Delay(u8x8, U8X8_MSG_DELAY_NANO, u8x8->display_info->write_pulse_width_ns);
 1751              		.loc 1 400 0
 1752 00a2 0122     		movs	r2, #1
 1753 00a4 99F80010 		ldrb	r1, [r9]	@ zero_extendqisi2
 1754 00a8 3046     		mov	r0, r6
 1755 00aa FFF7FEFF 		bl	u8x8_gpio_call
 1756              	.LVL231:
 401:/Users/imashio/Electronics/ARM/_Library/u8x8_byte.c **** 	u8x8_gpio_call(u8x8, enable_pin, 0);
 1757              		.loc 1 401 0
 1758 00ae 3368     		ldr	r3, [r6]
 1759 00b0 2C21     		movs	r1, #44
 1760 00b2 DA7B     		ldrb	r2, [r3, #15]	@ zero_extendqisi2
 1761 00b4 3046     		mov	r0, r6
 1762 00b6 FFF7FEFF 		bl	u8x8_gpio_call
 1763              	.LVL232:
 402:/Users/imashio/Electronics/ARM/_Library/u8x8_byte.c ****       }
 1764              		.loc 1 402 0
 1765 00ba 0022     		movs	r2, #0
 1766 00bc 99F80010 		ldrb	r1, [r9]	@ zero_extendqisi2
 1767 00c0 3046     		mov	r0, r6
 1768 00c2 FFF7FEFF 		bl	u8x8_gpio_call
 1769              	.LVL233:
 388:/Users/imashio/Electronics/ARM/_Library/u8x8_byte.c ****       {
 1770              		.loc 1 388 0
 1771 00c6 4745     		cmp	r7, r8
ARM GAS  /var/folders/v3/wysfpd052nz8jkbx04pk0ym80000gn/T//cclLoxDJ.s 			page 46


 1772 00c8 D6D1     		bne	.L128
 1773 00ca AEE7     		b	.L136
 1774              	.LVL234:
 1775              	.L131:
 427:/Users/imashio/Electronics/ARM/_Library/u8x8_byte.c ****   }
 1776              		.loc 1 427 0
 1777 00cc 0020     		movs	r0, #0
 1778              	.LVL235:
 1779 00ce ADE7     		b	.L119
 1780              	.LVL236:
 1781              	.L137:
 420:/Users/imashio/Electronics/ARM/_Library/u8x8_byte.c ****       if ( arg_int != 0 )
 1782              		.loc 1 420 0
 1783 00d0 4822     		movs	r2, #72
 1784              	.LVL237:
 1785 00d2 1A70     		strb	r2, [r3]
 1786 00d4 A9E7     		b	.L136
 1787              	.L139:
 1788 00d6 00BF     		.align	2
 1789              	.L138:
 1790 00d8 00000000 		.word	.LANCHOR1
 1791              		.cfi_endproc
 1792              	.LFE11:
 1794              		.section	.text.u8x8_byte_sw_i2c,"ax",%progbits
 1795              		.align	1
 1796              		.p2align 2,,3
 1797              		.global	u8x8_byte_sw_i2c
 1798              		.syntax unified
 1799              		.thumb
 1800              		.thumb_func
 1801              		.fpu fpv4-sp-d16
 1803              	u8x8_byte_sw_i2c:
 1804              	.LFB23:
 556:/Users/imashio/Electronics/ARM/_Library/u8x8_byte.c **** 
 557:/Users/imashio/Electronics/ARM/_Library/u8x8_byte.c **** 
 558:/Users/imashio/Electronics/ARM/_Library/u8x8_byte.c **** 
 559:/Users/imashio/Electronics/ARM/_Library/u8x8_byte.c **** #ifdef OBSOLETE_HANDLED_BY_CAD_PROCEDURE
 560:/Users/imashio/Electronics/ARM/_Library/u8x8_byte.c **** uint8_t u8x8_byte_ssd13xx_sw_i2c(u8x8_t *u8x8, uint8_t msg, uint8_t arg_int, void *arg_ptr)
 561:/Users/imashio/Electronics/ARM/_Library/u8x8_byte.c **** {
 562:/Users/imashio/Electronics/ARM/_Library/u8x8_byte.c ****   uint8_t *data;
 563:/Users/imashio/Electronics/ARM/_Library/u8x8_byte.c ****   static uint8_t last_dc = 0;
 564:/Users/imashio/Electronics/ARM/_Library/u8x8_byte.c ****   static uint8_t is_send_dc = 0;	/* instruction, whether i2c-start including dc has to be sent */
 565:/Users/imashio/Electronics/ARM/_Library/u8x8_byte.c ****  
 566:/Users/imashio/Electronics/ARM/_Library/u8x8_byte.c ****   switch(msg)
 567:/Users/imashio/Electronics/ARM/_Library/u8x8_byte.c ****   {
 568:/Users/imashio/Electronics/ARM/_Library/u8x8_byte.c ****     case U8X8_MSG_BYTE_SEND:
 569:/Users/imashio/Electronics/ARM/_Library/u8x8_byte.c ****       data = (uint8_t *)arg_ptr;
 570:/Users/imashio/Electronics/ARM/_Library/u8x8_byte.c ****     
 571:/Users/imashio/Electronics/ARM/_Library/u8x8_byte.c ****       if ( is_send_dc != 0 )
 572:/Users/imashio/Electronics/ARM/_Library/u8x8_byte.c ****       {
 573:/Users/imashio/Electronics/ARM/_Library/u8x8_byte.c **** 	
 574:/Users/imashio/Electronics/ARM/_Library/u8x8_byte.c **** 	i2c_start(u8x8);
 575:/Users/imashio/Electronics/ARM/_Library/u8x8_byte.c **** 	i2c_write_byte(u8x8, 0x078);		/* write slave adr and read/write bit */
 576:/Users/imashio/Electronics/ARM/_Library/u8x8_byte.c **** 	
 577:/Users/imashio/Electronics/ARM/_Library/u8x8_byte.c **** 	if ( last_dc == 0 )
 578:/Users/imashio/Electronics/ARM/_Library/u8x8_byte.c **** 	  i2c_write_byte(u8x8, 0);
 579:/Users/imashio/Electronics/ARM/_Library/u8x8_byte.c **** 	else
ARM GAS  /var/folders/v3/wysfpd052nz8jkbx04pk0ym80000gn/T//cclLoxDJ.s 			page 47


 580:/Users/imashio/Electronics/ARM/_Library/u8x8_byte.c **** 	  i2c_write_byte(u8x8, 0x040);
 581:/Users/imashio/Electronics/ARM/_Library/u8x8_byte.c **** 	is_send_dc = 0;
 582:/Users/imashio/Electronics/ARM/_Library/u8x8_byte.c ****       }
 583:/Users/imashio/Electronics/ARM/_Library/u8x8_byte.c ****     
 584:/Users/imashio/Electronics/ARM/_Library/u8x8_byte.c ****       while( arg_int > 0 )
 585:/Users/imashio/Electronics/ARM/_Library/u8x8_byte.c ****       {
 586:/Users/imashio/Electronics/ARM/_Library/u8x8_byte.c **** 	i2c_write_byte(u8x8, *data);
 587:/Users/imashio/Electronics/ARM/_Library/u8x8_byte.c **** 	data++;
 588:/Users/imashio/Electronics/ARM/_Library/u8x8_byte.c **** 	arg_int--;
 589:/Users/imashio/Electronics/ARM/_Library/u8x8_byte.c ****       }
 590:/Users/imashio/Electronics/ARM/_Library/u8x8_byte.c ****       
 591:/Users/imashio/Electronics/ARM/_Library/u8x8_byte.c ****       break;
 592:/Users/imashio/Electronics/ARM/_Library/u8x8_byte.c ****       
 593:/Users/imashio/Electronics/ARM/_Library/u8x8_byte.c ****     case U8X8_MSG_BYTE_INIT:
 594:/Users/imashio/Electronics/ARM/_Library/u8x8_byte.c ****       i2c_init(u8x8);
 595:/Users/imashio/Electronics/ARM/_Library/u8x8_byte.c ****       break;
 596:/Users/imashio/Electronics/ARM/_Library/u8x8_byte.c ****     case U8X8_MSG_BYTE_SET_DC:
 597:/Users/imashio/Electronics/ARM/_Library/u8x8_byte.c ****       if ( last_dc != arg_int )
 598:/Users/imashio/Electronics/ARM/_Library/u8x8_byte.c ****       {
 599:/Users/imashio/Electronics/ARM/_Library/u8x8_byte.c **** 	last_dc = arg_int;
 600:/Users/imashio/Electronics/ARM/_Library/u8x8_byte.c **** 	is_send_dc = 1;
 601:/Users/imashio/Electronics/ARM/_Library/u8x8_byte.c ****       }
 602:/Users/imashio/Electronics/ARM/_Library/u8x8_byte.c ****       break;
 603:/Users/imashio/Electronics/ARM/_Library/u8x8_byte.c ****     case U8X8_MSG_BYTE_START_TRANSFER:
 604:/Users/imashio/Electronics/ARM/_Library/u8x8_byte.c ****       last_dc = 0;
 605:/Users/imashio/Electronics/ARM/_Library/u8x8_byte.c ****       is_send_dc = 1;
 606:/Users/imashio/Electronics/ARM/_Library/u8x8_byte.c ****       break;
 607:/Users/imashio/Electronics/ARM/_Library/u8x8_byte.c ****     case U8X8_MSG_BYTE_END_TRANSFER:
 608:/Users/imashio/Electronics/ARM/_Library/u8x8_byte.c ****       i2c_stop(u8x8);
 609:/Users/imashio/Electronics/ARM/_Library/u8x8_byte.c ****       break;
 610:/Users/imashio/Electronics/ARM/_Library/u8x8_byte.c ****     default:
 611:/Users/imashio/Electronics/ARM/_Library/u8x8_byte.c ****       return 0;
 612:/Users/imashio/Electronics/ARM/_Library/u8x8_byte.c ****   }
 613:/Users/imashio/Electronics/ARM/_Library/u8x8_byte.c ****   return 1;
 614:/Users/imashio/Electronics/ARM/_Library/u8x8_byte.c **** }
 615:/Users/imashio/Electronics/ARM/_Library/u8x8_byte.c **** #endif
 616:/Users/imashio/Electronics/ARM/_Library/u8x8_byte.c **** 
 617:/Users/imashio/Electronics/ARM/_Library/u8x8_byte.c **** uint8_t u8x8_byte_sw_i2c(u8x8_t *u8x8, uint8_t msg, uint8_t arg_int, void *arg_ptr)
 618:/Users/imashio/Electronics/ARM/_Library/u8x8_byte.c **** {
 1805              		.loc 1 618 0
 1806              		.cfi_startproc
 1807              		@ args = 0, pretend = 0, frame = 0
 1808              		@ frame_needed = 0, uses_anonymous_args = 0
 1809              	.LVL238:
 619:/Users/imashio/Electronics/ARM/_Library/u8x8_byte.c ****   uint8_t *data;
 620:/Users/imashio/Electronics/ARM/_Library/u8x8_byte.c ****  
 621:/Users/imashio/Electronics/ARM/_Library/u8x8_byte.c ****   switch(msg)
 1810              		.loc 1 621 0
 1811 0000 1439     		subs	r1, r1, #20
 1812              	.LVL239:
 618:/Users/imashio/Electronics/ARM/_Library/u8x8_byte.c ****   uint8_t *data;
 1813              		.loc 1 618 0
 1814 0002 70B5     		push	{r4, r5, r6, lr}
 1815              	.LCFI24:
 1816              		.cfi_def_cfa_offset 16
 1817              		.cfi_offset 4, -16
 1818              		.cfi_offset 5, -12
ARM GAS  /var/folders/v3/wysfpd052nz8jkbx04pk0ym80000gn/T//cclLoxDJ.s 			page 48


 1819              		.cfi_offset 6, -8
 1820              		.cfi_offset 14, -4
 618:/Users/imashio/Electronics/ARM/_Library/u8x8_byte.c ****   uint8_t *data;
 1821              		.loc 1 618 0
 1822 0004 0446     		mov	r4, r0
 1823 0006 1D46     		mov	r5, r3
 1824              		.loc 1 621 0
 1825 0008 0C29     		cmp	r1, #12
 1826 000a 6FD8     		bhi	.L152
 1827 000c DFE801F0 		tbb	[pc, r1]
 1828              	.LVL240:
 1829              	.L143:
 1830 0010 23       		.byte	(.L142-.L143)/2
 1831 0011 6E       		.byte	(.L152-.L143)/2
 1832 0012 6E       		.byte	(.L152-.L143)/2
 1833 0013 31       		.byte	(.L144-.L143)/2
 1834 0014 40       		.byte	(.L145-.L143)/2
 1835 0015 07       		.byte	(.L146-.L143)/2
 1836 0016 6E       		.byte	(.L152-.L143)/2
 1837 0017 6E       		.byte	(.L152-.L143)/2
 1838 0018 6E       		.byte	(.L152-.L143)/2
 1839 0019 6E       		.byte	(.L152-.L143)/2
 1840 001a 6E       		.byte	(.L152-.L143)/2
 1841 001b 6E       		.byte	(.L152-.L143)/2
 1842 001c 21       		.byte	(.L159-.L143)/2
 1843 001d 00       		.p2align 1
 1844              	.L146:
 1845              	.LBB90:
 1846              	.LBB91:
 1847              	.LBB92:
 1848              	.LBB93:
 479:/Users/imashio/Electronics/ARM/_Library/u8x8_byte.c **** }
 1849              		.loc 1 479 0
 1850 001e 0022     		movs	r2, #0
 1851              	.LVL241:
 1852 0020 4D21     		movs	r1, #77
 1853 0022 FFF7FEFF 		bl	u8x8_gpio_call
 1854              	.LVL242:
 1855              	.LBE93:
 1856              	.LBE92:
 504:/Users/imashio/Electronics/ARM/_Library/u8x8_byte.c ****  
 1857              		.loc 1 504 0
 1858 0026 2046     		mov	r0, r4
 1859 0028 FFF7FEFF 		bl	i2c_delay
 1860              	.LVL243:
 1861              	.LBB94:
 1862              	.LBB95:
 460:/Users/imashio/Electronics/ARM/_Library/u8x8_byte.c **** 
 1863              		.loc 1 460 0
 1864 002c 0122     		movs	r2, #1
 1865 002e 4C21     		movs	r1, #76
 1866 0030 2046     		mov	r0, r4
 1867 0032 FFF7FEFF 		bl	u8x8_gpio_call
 1868              	.LVL244:
 462:/Users/imashio/Electronics/ARM/_Library/u8x8_byte.c **** }
 1869              		.loc 1 462 0
 1870 0036 2046     		mov	r0, r4
ARM GAS  /var/folders/v3/wysfpd052nz8jkbx04pk0ym80000gn/T//cclLoxDJ.s 			page 49


 1871 0038 FFF7FEFF 		bl	i2c_delay
 1872              	.LVL245:
 1873              	.LBE95:
 1874              	.LBE94:
 1875              	.LBB96:
 1876              	.LBB97:
 473:/Users/imashio/Electronics/ARM/_Library/u8x8_byte.c **** }
 1877              		.loc 1 473 0
 1878 003c 0122     		movs	r2, #1
 1879 003e 4D21     		movs	r1, #77
 1880 0040 2046     		mov	r0, r4
 1881 0042 FFF7FEFF 		bl	u8x8_gpio_call
 1882              	.LVL246:
 1883              	.LBE97:
 1884              	.LBE96:
 511:/Users/imashio/Electronics/ARM/_Library/u8x8_byte.c ****   u8x8->i2c_started = 0;
 1885              		.loc 1 511 0
 1886 0046 2046     		mov	r0, r4
 1887 0048 FFF7FEFF 		bl	i2c_delay
 1888              	.LVL247:
 512:/Users/imashio/Electronics/ARM/_Library/u8x8_byte.c **** }
 1889              		.loc 1 512 0
 1890 004c 0023     		movs	r3, #0
 1891 004e 84F82130 		strb	r3, [r4, #33]
 1892              	.LVL248:
 1893              	.L159:
 1894              	.LBE91:
 1895              	.LBE90:
 622:/Users/imashio/Electronics/ARM/_Library/u8x8_byte.c ****   {
 623:/Users/imashio/Electronics/ARM/_Library/u8x8_byte.c ****     case U8X8_MSG_BYTE_SEND:
 624:/Users/imashio/Electronics/ARM/_Library/u8x8_byte.c ****       data = (uint8_t *)arg_ptr;
 625:/Users/imashio/Electronics/ARM/_Library/u8x8_byte.c ****       
 626:/Users/imashio/Electronics/ARM/_Library/u8x8_byte.c ****       while( arg_int > 0 )
 627:/Users/imashio/Electronics/ARM/_Library/u8x8_byte.c ****       {
 628:/Users/imashio/Electronics/ARM/_Library/u8x8_byte.c **** 	i2c_write_byte(u8x8, *data);
 629:/Users/imashio/Electronics/ARM/_Library/u8x8_byte.c **** 	data++;
 630:/Users/imashio/Electronics/ARM/_Library/u8x8_byte.c **** 	arg_int--;
 631:/Users/imashio/Electronics/ARM/_Library/u8x8_byte.c ****       }
 632:/Users/imashio/Electronics/ARM/_Library/u8x8_byte.c ****       
 633:/Users/imashio/Electronics/ARM/_Library/u8x8_byte.c ****       break;
 634:/Users/imashio/Electronics/ARM/_Library/u8x8_byte.c ****       
 635:/Users/imashio/Electronics/ARM/_Library/u8x8_byte.c ****     case U8X8_MSG_BYTE_INIT:
 636:/Users/imashio/Electronics/ARM/_Library/u8x8_byte.c ****       i2c_init(u8x8);
 637:/Users/imashio/Electronics/ARM/_Library/u8x8_byte.c ****       break;
 638:/Users/imashio/Electronics/ARM/_Library/u8x8_byte.c ****     case U8X8_MSG_BYTE_SET_DC:
 639:/Users/imashio/Electronics/ARM/_Library/u8x8_byte.c ****       break;
 640:/Users/imashio/Electronics/ARM/_Library/u8x8_byte.c ****     case U8X8_MSG_BYTE_START_TRANSFER:
 641:/Users/imashio/Electronics/ARM/_Library/u8x8_byte.c ****       i2c_start(u8x8);
 642:/Users/imashio/Electronics/ARM/_Library/u8x8_byte.c ****       i2c_write_byte(u8x8, u8x8_GetI2CAddress(u8x8));
 643:/Users/imashio/Electronics/ARM/_Library/u8x8_byte.c ****       //i2c_write_byte(u8x8, 0x078);
 644:/Users/imashio/Electronics/ARM/_Library/u8x8_byte.c ****       break;
 645:/Users/imashio/Electronics/ARM/_Library/u8x8_byte.c ****     case U8X8_MSG_BYTE_END_TRANSFER:
 646:/Users/imashio/Electronics/ARM/_Library/u8x8_byte.c ****       i2c_stop(u8x8);
 647:/Users/imashio/Electronics/ARM/_Library/u8x8_byte.c ****       break;
 648:/Users/imashio/Electronics/ARM/_Library/u8x8_byte.c ****     default:
 649:/Users/imashio/Electronics/ARM/_Library/u8x8_byte.c ****       return 0;
 650:/Users/imashio/Electronics/ARM/_Library/u8x8_byte.c ****   }
ARM GAS  /var/folders/v3/wysfpd052nz8jkbx04pk0ym80000gn/T//cclLoxDJ.s 			page 50


 651:/Users/imashio/Electronics/ARM/_Library/u8x8_byte.c ****   return 1;
 1896              		.loc 1 651 0
 1897 0052 0120     		movs	r0, #1
 1898              	.LVL249:
 1899              	.L141:
 652:/Users/imashio/Electronics/ARM/_Library/u8x8_byte.c **** }
 1900              		.loc 1 652 0
 1901 0054 70BD     		pop	{r4, r5, r6, pc}
 1902              	.LVL250:
 1903              	.L142:
 1904              	.LBB98:
 1905              	.LBB99:
 449:/Users/imashio/Electronics/ARM/_Library/u8x8_byte.c ****   u8x8_gpio_SetI2CData(u8x8, 1);
 1906              		.loc 1 449 0
 1907 0056 0122     		movs	r2, #1
 1908              	.LVL251:
 1909 0058 4C21     		movs	r1, #76
 1910 005a FFF7FEFF 		bl	u8x8_gpio_call
 1911              	.LVL252:
 450:/Users/imashio/Electronics/ARM/_Library/u8x8_byte.c ****   
 1912              		.loc 1 450 0
 1913 005e 0122     		movs	r2, #1
 1914 0060 4D21     		movs	r1, #77
 1915 0062 2046     		mov	r0, r4
 1916 0064 FFF7FEFF 		bl	u8x8_gpio_call
 1917              	.LVL253:
 452:/Users/imashio/Electronics/ARM/_Library/u8x8_byte.c **** }
 1918              		.loc 1 452 0
 1919 0068 2046     		mov	r0, r4
 1920 006a FFF7FEFF 		bl	i2c_delay
 1921              	.LVL254:
 1922              	.LBE99:
 1923              	.LBE98:
 651:/Users/imashio/Electronics/ARM/_Library/u8x8_byte.c **** }
 1924              		.loc 1 651 0
 1925 006e 0120     		movs	r0, #1
 1926 0070 F0E7     		b	.L141
 1927              	.LVL255:
 1928              	.L144:
 626:/Users/imashio/Electronics/ARM/_Library/u8x8_byte.c ****       {
 1929              		.loc 1 626 0
 1930 0072 002A     		cmp	r2, #0
 1931 0074 EDD0     		beq	.L159
 1932 0076 561E     		subs	r6, r2, #1
 1933 0078 F6B2     		uxtb	r6, r6
 1934 007a 0136     		adds	r6, r6, #1
 1935 007c 2E44     		add	r6, r6, r5
 1936              	.LVL256:
 1937              	.L149:
 628:/Users/imashio/Electronics/ARM/_Library/u8x8_byte.c **** 	data++;
 1938              		.loc 1 628 0
 1939 007e 15F8011B 		ldrb	r1, [r5], #1	@ zero_extendqisi2
 1940              	.LVL257:
 1941 0082 2046     		mov	r0, r4
 1942 0084 FFF7FEFF 		bl	i2c_write_byte
 1943              	.LVL258:
 626:/Users/imashio/Electronics/ARM/_Library/u8x8_byte.c ****       {
ARM GAS  /var/folders/v3/wysfpd052nz8jkbx04pk0ym80000gn/T//cclLoxDJ.s 			page 51


 1944              		.loc 1 626 0
 1945 0088 AE42     		cmp	r6, r5
 1946 008a F8D1     		bne	.L149
 651:/Users/imashio/Electronics/ARM/_Library/u8x8_byte.c **** }
 1947              		.loc 1 651 0
 1948 008c 0120     		movs	r0, #1
 1949 008e E1E7     		b	.L141
 1950              	.LVL259:
 1951              	.L145:
 1952              	.LBB100:
 1953              	.LBB101:
 484:/Users/imashio/Electronics/ARM/_Library/u8x8_byte.c ****   {
 1954              		.loc 1 484 0
 1955 0090 90F82130 		ldrb	r3, [r0, #33]	@ zero_extendqisi2
 1956 0094 73B1     		cbz	r3, .L151
 1957              	.LVL260:
 1958              	.LBB102:
 1959              	.LBB103:
 473:/Users/imashio/Electronics/ARM/_Library/u8x8_byte.c **** }
 1960              		.loc 1 473 0
 1961 0096 0122     		movs	r2, #1
 1962              	.LVL261:
 1963 0098 4D21     		movs	r1, #77
 1964 009a FFF7FEFF 		bl	u8x8_gpio_call
 1965              	.LVL262:
 1966              	.LBE103:
 1967              	.LBE102:
 488:/Users/imashio/Electronics/ARM/_Library/u8x8_byte.c ****     i2c_read_scl_and_delay(u8x8);
 1968              		.loc 1 488 0
 1969 009e 2046     		mov	r0, r4
 1970 00a0 FFF7FEFF 		bl	i2c_delay
 1971              	.LVL263:
 1972              	.LBB104:
 1973              	.LBB105:
 460:/Users/imashio/Electronics/ARM/_Library/u8x8_byte.c **** 
 1974              		.loc 1 460 0
 1975 00a4 2046     		mov	r0, r4
 1976 00a6 0122     		movs	r2, #1
 1977 00a8 4C21     		movs	r1, #76
 1978 00aa FFF7FEFF 		bl	u8x8_gpio_call
 1979              	.LVL264:
 462:/Users/imashio/Electronics/ARM/_Library/u8x8_byte.c **** }
 1980              		.loc 1 462 0
 1981 00ae 2046     		mov	r0, r4
 1982 00b0 FFF7FEFF 		bl	i2c_delay
 1983              	.LVL265:
 1984              	.L151:
 1985              	.LBE105:
 1986              	.LBE104:
 1987              	.LBB106:
 1988              	.LBB107:
 473:/Users/imashio/Electronics/ARM/_Library/u8x8_byte.c **** }
 1989              		.loc 1 473 0
 1990 00b4 2046     		mov	r0, r4
 1991 00b6 0122     		movs	r2, #1
 1992 00b8 4D21     		movs	r1, #77
 1993 00ba FFF7FEFF 		bl	u8x8_gpio_call
ARM GAS  /var/folders/v3/wysfpd052nz8jkbx04pk0ym80000gn/T//cclLoxDJ.s 			page 52


 1994              	.LVL266:
 1995              	.LBE107:
 1996              	.LBE106:
 1997              	.LBB108:
 1998              	.LBB109:
 479:/Users/imashio/Electronics/ARM/_Library/u8x8_byte.c **** }
 1999              		.loc 1 479 0
 2000 00be 0022     		movs	r2, #0
 2001 00c0 4D21     		movs	r1, #77
 2002 00c2 2046     		mov	r0, r4
 2003 00c4 FFF7FEFF 		bl	u8x8_gpio_call
 2004              	.LVL267:
 2005              	.LBE109:
 2006              	.LBE108:
 494:/Users/imashio/Electronics/ARM/_Library/u8x8_byte.c ****   i2c_clear_scl(u8x8);
 2007              		.loc 1 494 0
 2008 00c8 2046     		mov	r0, r4
 2009 00ca FFF7FEFF 		bl	i2c_delay
 2010              	.LVL268:
 496:/Users/imashio/Electronics/ARM/_Library/u8x8_byte.c **** }
 2011              		.loc 1 496 0
 2012 00ce 0125     		movs	r5, #1
 2013              	.LVL269:
 2014              	.LBB110:
 2015              	.LBB111:
 467:/Users/imashio/Electronics/ARM/_Library/u8x8_byte.c **** }
 2016              		.loc 1 467 0
 2017 00d0 0022     		movs	r2, #0
 2018 00d2 2046     		mov	r0, r4
 2019 00d4 4C21     		movs	r1, #76
 2020 00d6 FFF7FEFF 		bl	u8x8_gpio_call
 2021              	.LVL270:
 2022              	.LBE111:
 2023              	.LBE110:
 2024              	.LBE101:
 2025              	.LBE100:
 642:/Users/imashio/Electronics/ARM/_Library/u8x8_byte.c ****       //i2c_write_byte(u8x8, 0x078);
 2026              		.loc 1 642 0
 2027 00da 2046     		mov	r0, r4
 2028              	.LBB113:
 2029              	.LBB112:
 496:/Users/imashio/Electronics/ARM/_Library/u8x8_byte.c **** }
 2030              		.loc 1 496 0
 2031 00dc 84F82150 		strb	r5, [r4, #33]
 2032              	.LVL271:
 2033              	.LBE112:
 2034              	.LBE113:
 642:/Users/imashio/Electronics/ARM/_Library/u8x8_byte.c ****       //i2c_write_byte(u8x8, 0x078);
 2035              		.loc 1 642 0
 2036 00e0 94F82010 		ldrb	r1, [r4, #32]	@ zero_extendqisi2
 2037 00e4 FFF7FEFF 		bl	i2c_write_byte
 2038              	.LVL272:
 651:/Users/imashio/Electronics/ARM/_Library/u8x8_byte.c **** }
 2039              		.loc 1 651 0
 2040 00e8 2846     		mov	r0, r5
 2041              		.loc 1 652 0
 2042 00ea 70BD     		pop	{r4, r5, r6, pc}
ARM GAS  /var/folders/v3/wysfpd052nz8jkbx04pk0ym80000gn/T//cclLoxDJ.s 			page 53


 2043              	.LVL273:
 2044              	.L152:
 649:/Users/imashio/Electronics/ARM/_Library/u8x8_byte.c ****   }
 2045              		.loc 1 649 0
 2046 00ec 0020     		movs	r0, #0
 2047              	.LVL274:
 2048              		.loc 1 652 0
 2049 00ee 70BD     		pop	{r4, r5, r6, pc}
 2050              		.cfi_endproc
 2051              	.LFE23:
 2053              		.section	.bss.enable_pin.6400,"aw",%nobits
 2054              		.set	.LANCHOR1,. + 0
 2057              	enable_pin.6400:
 2058 0000 00       		.space	1
 2059              		.section	.bss.last_dc.6351,"aw",%nobits
 2060              		.set	.LANCHOR0,. + 0
 2063              	last_dc.6351:
 2064 0000 00       		.space	1
 2065              		.text
 2066              	.Letext0:
 2067              		.file 2 "/usr/local/gcc-arm-none-eabi-7-2018-q2-update/arm-none-eabi/include/machine/_default_type
 2068              		.file 3 "/usr/local/gcc-arm-none-eabi-7-2018-q2-update/arm-none-eabi/include/sys/_stdint.h"
 2069              		.file 4 "/Users/imashio/Electronics/ARM/_Library/u8x8.h"
ARM GAS  /var/folders/v3/wysfpd052nz8jkbx04pk0ym80000gn/T//cclLoxDJ.s 			page 54

