ARM GAS  /var/folders/v3/wysfpd052nz8jkbx04pk0ym80000gn/T//ccL3mjI4.s 			page 1


   1              		.cpu cortex-m4
   2              		.eabi_attribute 27, 1
   3              		.eabi_attribute 28, 1
   4              		.eabi_attribute 20, 1
   5              		.eabi_attribute 21, 1
   6              		.eabi_attribute 23, 3
   7              		.eabi_attribute 24, 1
   8              		.eabi_attribute 25, 1
   9              		.eabi_attribute 26, 1
  10              		.eabi_attribute 30, 1
  11              		.eabi_attribute 34, 1
  12              		.eabi_attribute 18, 4
  13              		.file	"usart.c"
  14              		.text
  15              	.Ltext0:
  16              		.cfi_sections	.debug_frame
  17              		.section	.text.MX_USART1_UART_Init,"ax",%progbits
  18              		.align	1
  19              		.global	MX_USART1_UART_Init
  20              		.syntax unified
  21              		.thumb
  22              		.thumb_func
  23              		.fpu fpv4-sp-d16
  25              	MX_USART1_UART_Init:
  26              	.LFB126:
  27              		.file 1 "Src/usart.c"
   1:Src/usart.c   **** /**
   2:Src/usart.c   ****   ******************************************************************************
   3:Src/usart.c   ****   * File Name          : USART.c
   4:Src/usart.c   ****   * Description        : This file provides code for the configuration
   5:Src/usart.c   ****   *                      of the USART instances.
   6:Src/usart.c   ****   ******************************************************************************
   7:Src/usart.c   ****   ** This notice applies to any and all portions of this file
   8:Src/usart.c   ****   * that are not between comment pairs USER CODE BEGIN and
   9:Src/usart.c   ****   * USER CODE END. Other portions of this file, whether 
  10:Src/usart.c   ****   * inserted by the user or by software development tools
  11:Src/usart.c   ****   * are owned by their respective copyright owners.
  12:Src/usart.c   ****   *
  13:Src/usart.c   ****   * COPYRIGHT(c) 2019 STMicroelectronics
  14:Src/usart.c   ****   *
  15:Src/usart.c   ****   * Redistribution and use in source and binary forms, with or without modification,
  16:Src/usart.c   ****   * are permitted provided that the following conditions are met:
  17:Src/usart.c   ****   *   1. Redistributions of source code must retain the above copyright notice,
  18:Src/usart.c   ****   *      this list of conditions and the following disclaimer.
  19:Src/usart.c   ****   *   2. Redistributions in binary form must reproduce the above copyright notice,
  20:Src/usart.c   ****   *      this list of conditions and the following disclaimer in the documentation
  21:Src/usart.c   ****   *      and/or other materials provided with the distribution.
  22:Src/usart.c   ****   *   3. Neither the name of STMicroelectronics nor the names of its contributors
  23:Src/usart.c   ****   *      may be used to endorse or promote products derived from this software
  24:Src/usart.c   ****   *      without specific prior written permission.
  25:Src/usart.c   ****   *
  26:Src/usart.c   ****   * THIS SOFTWARE IS PROVIDED BY THE COPYRIGHT HOLDERS AND CONTRIBUTORS "AS IS"
  27:Src/usart.c   ****   * AND ANY EXPRESS OR IMPLIED WARRANTIES, INCLUDING, BUT NOT LIMITED TO, THE
  28:Src/usart.c   ****   * IMPLIED WARRANTIES OF MERCHANTABILITY AND FITNESS FOR A PARTICULAR PURPOSE ARE
  29:Src/usart.c   ****   * DISCLAIMED. IN NO EVENT SHALL THE COPYRIGHT HOLDER OR CONTRIBUTORS BE LIABLE
  30:Src/usart.c   ****   * FOR ANY DIRECT, INDIRECT, INCIDENTAL, SPECIAL, EXEMPLARY, OR CONSEQUENTIAL
  31:Src/usart.c   ****   * DAMAGES (INCLUDING, BUT NOT LIMITED TO, PROCUREMENT OF SUBSTITUTE GOODS OR
ARM GAS  /var/folders/v3/wysfpd052nz8jkbx04pk0ym80000gn/T//ccL3mjI4.s 			page 2


  32:Src/usart.c   ****   * SERVICES; LOSS OF USE, DATA, OR PROFITS; OR BUSINESS INTERRUPTION) HOWEVER
  33:Src/usart.c   ****   * CAUSED AND ON ANY THEORY OF LIABILITY, WHETHER IN CONTRACT, STRICT LIABILITY,
  34:Src/usart.c   ****   * OR TORT (INCLUDING NEGLIGENCE OR OTHERWISE) ARISING IN ANY WAY OUT OF THE USE
  35:Src/usart.c   ****   * OF THIS SOFTWARE, EVEN IF ADVISED OF THE POSSIBILITY OF SUCH DAMAGE.
  36:Src/usart.c   ****   *
  37:Src/usart.c   ****   ******************************************************************************
  38:Src/usart.c   ****   */
  39:Src/usart.c   **** 
  40:Src/usart.c   **** /* Includes ------------------------------------------------------------------*/
  41:Src/usart.c   **** #include "usart.h"
  42:Src/usart.c   **** 
  43:Src/usart.c   **** #include "gpio.h"
  44:Src/usart.c   **** 
  45:Src/usart.c   **** /* USER CODE BEGIN 0 */
  46:Src/usart.c   **** 
  47:Src/usart.c   **** /* USER CODE END 0 */
  48:Src/usart.c   **** 
  49:Src/usart.c   **** UART_HandleTypeDef huart1;
  50:Src/usart.c   **** UART_HandleTypeDef huart2;
  51:Src/usart.c   **** 
  52:Src/usart.c   **** /* USART1 init function */
  53:Src/usart.c   **** 
  54:Src/usart.c   **** void MX_USART1_UART_Init(void)
  55:Src/usart.c   **** {
  28              		.loc 1 55 0
  29              		.cfi_startproc
  30              		@ args = 0, pretend = 0, frame = 0
  31              		@ frame_needed = 0, uses_anonymous_args = 0
  32 0000 08B5     		push	{r3, lr}
  33              	.LCFI0:
  34              		.cfi_def_cfa_offset 8
  35              		.cfi_offset 3, -8
  36              		.cfi_offset 14, -4
  56:Src/usart.c   **** 
  57:Src/usart.c   ****   huart1.Instance = USART1;
  37              		.loc 1 57 0
  38 0002 0E48     		ldr	r0, .L5
  39 0004 0E4B     		ldr	r3, .L5+4
  40 0006 0360     		str	r3, [r0]
  58:Src/usart.c   ****   huart1.Init.BaudRate = 19200;
  41              		.loc 1 58 0
  42 0008 4FF49643 		mov	r3, #19200
  43 000c 4360     		str	r3, [r0, #4]
  59:Src/usart.c   ****   huart1.Init.WordLength = UART_WORDLENGTH_9B;
  44              		.loc 1 59 0
  45 000e 4FF48053 		mov	r3, #4096
  46 0012 8360     		str	r3, [r0, #8]
  60:Src/usart.c   ****   huart1.Init.StopBits = UART_STOPBITS_1;
  47              		.loc 1 60 0
  48 0014 0023     		movs	r3, #0
  49 0016 C360     		str	r3, [r0, #12]
  61:Src/usart.c   ****   huart1.Init.Parity = UART_PARITY_EVEN;
  50              		.loc 1 61 0
  51 0018 4FF48062 		mov	r2, #1024
  52 001c 0261     		str	r2, [r0, #16]
  62:Src/usart.c   ****   huart1.Init.Mode = UART_MODE_TX_RX;
  53              		.loc 1 62 0
ARM GAS  /var/folders/v3/wysfpd052nz8jkbx04pk0ym80000gn/T//ccL3mjI4.s 			page 3


  54 001e 0C22     		movs	r2, #12
  55 0020 4261     		str	r2, [r0, #20]
  63:Src/usart.c   ****   huart1.Init.HwFlowCtl = UART_HWCONTROL_NONE;
  56              		.loc 1 63 0
  57 0022 8361     		str	r3, [r0, #24]
  64:Src/usart.c   ****   huart1.Init.OverSampling = UART_OVERSAMPLING_16;
  58              		.loc 1 64 0
  59 0024 C361     		str	r3, [r0, #28]
  65:Src/usart.c   ****   huart1.Init.OneBitSampling = UART_ONE_BIT_SAMPLE_DISABLE;
  60              		.loc 1 65 0
  61 0026 0362     		str	r3, [r0, #32]
  66:Src/usart.c   ****   huart1.AdvancedInit.AdvFeatureInit = UART_ADVFEATURE_NO_INIT;
  62              		.loc 1 66 0
  63 0028 4362     		str	r3, [r0, #36]
  67:Src/usart.c   ****   if (HAL_UART_Init(&huart1) != HAL_OK)
  64              		.loc 1 67 0
  65 002a FFF7FEFF 		bl	HAL_UART_Init
  66              	.LVL0:
  67 002e 00B9     		cbnz	r0, .L4
  68              	.L1:
  68:Src/usart.c   ****   {
  69:Src/usart.c   ****     _Error_Handler(__FILE__, __LINE__);
  70:Src/usart.c   ****   }
  71:Src/usart.c   **** 
  72:Src/usart.c   **** }
  69              		.loc 1 72 0
  70 0030 08BD     		pop	{r3, pc}
  71              	.L4:
  69:Src/usart.c   ****   }
  72              		.loc 1 69 0
  73 0032 4521     		movs	r1, #69
  74 0034 0348     		ldr	r0, .L5+8
  75 0036 FFF7FEFF 		bl	_Error_Handler
  76              	.LVL1:
  77              		.loc 1 72 0
  78 003a F9E7     		b	.L1
  79              	.L6:
  80              		.align	2
  81              	.L5:
  82 003c 00000000 		.word	huart1
  83 0040 00380140 		.word	1073821696
  84 0044 00000000 		.word	.LC0
  85              		.cfi_endproc
  86              	.LFE126:
  88              		.section	.text.MX_USART2_UART_Init,"ax",%progbits
  89              		.align	1
  90              		.global	MX_USART2_UART_Init
  91              		.syntax unified
  92              		.thumb
  93              		.thumb_func
  94              		.fpu fpv4-sp-d16
  96              	MX_USART2_UART_Init:
  97              	.LFB127:
  73:Src/usart.c   **** /* USART2 init function */
  74:Src/usart.c   **** 
  75:Src/usart.c   **** void MX_USART2_UART_Init(void)
  76:Src/usart.c   **** {
ARM GAS  /var/folders/v3/wysfpd052nz8jkbx04pk0ym80000gn/T//ccL3mjI4.s 			page 4


  98              		.loc 1 76 0
  99              		.cfi_startproc
 100              		@ args = 0, pretend = 0, frame = 0
 101              		@ frame_needed = 0, uses_anonymous_args = 0
 102 0000 08B5     		push	{r3, lr}
 103              	.LCFI1:
 104              		.cfi_def_cfa_offset 8
 105              		.cfi_offset 3, -8
 106              		.cfi_offset 14, -4
  77:Src/usart.c   **** 
  78:Src/usart.c   ****   huart2.Instance = USART2;
 107              		.loc 1 78 0
 108 0002 0E48     		ldr	r0, .L11
 109 0004 0E4B     		ldr	r3, .L11+4
 110 0006 0360     		str	r3, [r0]
  79:Src/usart.c   ****   huart2.Init.BaudRate = 19200;
 111              		.loc 1 79 0
 112 0008 4FF49643 		mov	r3, #19200
 113 000c 4360     		str	r3, [r0, #4]
  80:Src/usart.c   ****   huart2.Init.WordLength = UART_WORDLENGTH_9B;
 114              		.loc 1 80 0
 115 000e 4FF48053 		mov	r3, #4096
 116 0012 8360     		str	r3, [r0, #8]
  81:Src/usart.c   ****   huart2.Init.StopBits = UART_STOPBITS_1;
 117              		.loc 1 81 0
 118 0014 0023     		movs	r3, #0
 119 0016 C360     		str	r3, [r0, #12]
  82:Src/usart.c   ****   huart2.Init.Parity = UART_PARITY_EVEN;
 120              		.loc 1 82 0
 121 0018 4FF48062 		mov	r2, #1024
 122 001c 0261     		str	r2, [r0, #16]
  83:Src/usart.c   ****   huart2.Init.Mode = UART_MODE_TX_RX;
 123              		.loc 1 83 0
 124 001e 0C22     		movs	r2, #12
 125 0020 4261     		str	r2, [r0, #20]
  84:Src/usart.c   ****   huart2.Init.HwFlowCtl = UART_HWCONTROL_NONE;
 126              		.loc 1 84 0
 127 0022 8361     		str	r3, [r0, #24]
  85:Src/usart.c   ****   huart2.Init.OverSampling = UART_OVERSAMPLING_16;
 128              		.loc 1 85 0
 129 0024 C361     		str	r3, [r0, #28]
  86:Src/usart.c   ****   huart2.Init.OneBitSampling = UART_ONE_BIT_SAMPLE_DISABLE;
 130              		.loc 1 86 0
 131 0026 0362     		str	r3, [r0, #32]
  87:Src/usart.c   ****   huart2.AdvancedInit.AdvFeatureInit = UART_ADVFEATURE_NO_INIT;
 132              		.loc 1 87 0
 133 0028 4362     		str	r3, [r0, #36]
  88:Src/usart.c   ****   if (HAL_UART_Init(&huart2) != HAL_OK)
 134              		.loc 1 88 0
 135 002a FFF7FEFF 		bl	HAL_UART_Init
 136              	.LVL2:
 137 002e 00B9     		cbnz	r0, .L10
 138              	.L7:
  89:Src/usart.c   ****   {
  90:Src/usart.c   ****     _Error_Handler(__FILE__, __LINE__);
  91:Src/usart.c   ****   }
  92:Src/usart.c   **** 
ARM GAS  /var/folders/v3/wysfpd052nz8jkbx04pk0ym80000gn/T//ccL3mjI4.s 			page 5


  93:Src/usart.c   **** }
 139              		.loc 1 93 0
 140 0030 08BD     		pop	{r3, pc}
 141              	.L10:
  90:Src/usart.c   ****   }
 142              		.loc 1 90 0
 143 0032 5A21     		movs	r1, #90
 144 0034 0348     		ldr	r0, .L11+8
 145 0036 FFF7FEFF 		bl	_Error_Handler
 146              	.LVL3:
 147              		.loc 1 93 0
 148 003a F9E7     		b	.L7
 149              	.L12:
 150              		.align	2
 151              	.L11:
 152 003c 00000000 		.word	huart2
 153 0040 00440040 		.word	1073759232
 154 0044 00000000 		.word	.LC0
 155              		.cfi_endproc
 156              	.LFE127:
 158              		.section	.text.HAL_UART_MspInit,"ax",%progbits
 159              		.align	1
 160              		.global	HAL_UART_MspInit
 161              		.syntax unified
 162              		.thumb
 163              		.thumb_func
 164              		.fpu fpv4-sp-d16
 166              	HAL_UART_MspInit:
 167              	.LFB128:
  94:Src/usart.c   **** 
  95:Src/usart.c   **** void HAL_UART_MspInit(UART_HandleTypeDef* uartHandle)
  96:Src/usart.c   **** {
 168              		.loc 1 96 0
 169              		.cfi_startproc
 170              		@ args = 0, pretend = 0, frame = 32
 171              		@ frame_needed = 0, uses_anonymous_args = 0
 172              	.LVL4:
 173 0000 00B5     		push	{lr}
 174              	.LCFI2:
 175              		.cfi_def_cfa_offset 4
 176              		.cfi_offset 14, -4
 177 0002 89B0     		sub	sp, sp, #36
 178              	.LCFI3:
 179              		.cfi_def_cfa_offset 40
  97:Src/usart.c   **** 
  98:Src/usart.c   ****   GPIO_InitTypeDef GPIO_InitStruct;
  99:Src/usart.c   ****   if(uartHandle->Instance==USART1)
 180              		.loc 1 99 0
 181 0004 0368     		ldr	r3, [r0]
 182 0006 274A     		ldr	r2, .L19
 183 0008 9342     		cmp	r3, r2
 184 000a 05D0     		beq	.L17
 100:Src/usart.c   ****   {
 101:Src/usart.c   ****   /* USER CODE BEGIN USART1_MspInit 0 */
 102:Src/usart.c   **** 
 103:Src/usart.c   ****   /* USER CODE END USART1_MspInit 0 */
 104:Src/usart.c   ****     /* USART1 clock enable */
ARM GAS  /var/folders/v3/wysfpd052nz8jkbx04pk0ym80000gn/T//ccL3mjI4.s 			page 6


 105:Src/usart.c   ****     __HAL_RCC_USART1_CLK_ENABLE();
 106:Src/usart.c   ****   
 107:Src/usart.c   ****     /**USART1 GPIO Configuration    
 108:Src/usart.c   ****     PA9     ------> USART1_TX
 109:Src/usart.c   ****     PA10     ------> USART1_RX 
 110:Src/usart.c   ****     */
 111:Src/usart.c   ****     GPIO_InitStruct.Pin = USART1__Defi_TX_Pin|USART1__Defi_RX_Pin;
 112:Src/usart.c   ****     GPIO_InitStruct.Mode = GPIO_MODE_AF_PP;
 113:Src/usart.c   ****     GPIO_InitStruct.Pull = GPIO_PULLUP;
 114:Src/usart.c   ****     GPIO_InitStruct.Speed = GPIO_SPEED_FREQ_HIGH;
 115:Src/usart.c   ****     GPIO_InitStruct.Alternate = GPIO_AF7_USART1;
 116:Src/usart.c   ****     HAL_GPIO_Init(GPIOA, &GPIO_InitStruct);
 117:Src/usart.c   **** 
 118:Src/usart.c   ****     /* USART1 interrupt Init */
 119:Src/usart.c   ****     HAL_NVIC_SetPriority(USART1_IRQn, 5, 0);
 120:Src/usart.c   ****     HAL_NVIC_EnableIRQ(USART1_IRQn);
 121:Src/usart.c   ****   /* USER CODE BEGIN USART1_MspInit 1 */
 122:Src/usart.c   **** 
 123:Src/usart.c   ****   /* USER CODE END USART1_MspInit 1 */
 124:Src/usart.c   ****   }
 125:Src/usart.c   ****   else if(uartHandle->Instance==USART2)
 185              		.loc 1 125 0
 186 000c 264A     		ldr	r2, .L19+4
 187 000e 9342     		cmp	r3, r2
 188 0010 25D0     		beq	.L18
 189              	.LVL5:
 190              	.L13:
 126:Src/usart.c   ****   {
 127:Src/usart.c   ****   /* USER CODE BEGIN USART2_MspInit 0 */
 128:Src/usart.c   **** 
 129:Src/usart.c   ****   /* USER CODE END USART2_MspInit 0 */
 130:Src/usart.c   ****     /* USART2 clock enable */
 131:Src/usart.c   ****     __HAL_RCC_USART2_CLK_ENABLE();
 132:Src/usart.c   ****   
 133:Src/usart.c   ****     /**USART2 GPIO Configuration    
 134:Src/usart.c   ****     PA2     ------> USART2_TX
 135:Src/usart.c   ****     PA15     ------> USART2_RX 
 136:Src/usart.c   ****     */
 137:Src/usart.c   ****     GPIO_InitStruct.Pin = USART2__USB_TX_Pin|USART2__USB_RX_Pin;
 138:Src/usart.c   ****     GPIO_InitStruct.Mode = GPIO_MODE_AF_PP;
 139:Src/usart.c   ****     GPIO_InitStruct.Pull = GPIO_PULLUP;
 140:Src/usart.c   ****     GPIO_InitStruct.Speed = GPIO_SPEED_FREQ_HIGH;
 141:Src/usart.c   ****     GPIO_InitStruct.Alternate = GPIO_AF7_USART2;
 142:Src/usart.c   ****     HAL_GPIO_Init(GPIOA, &GPIO_InitStruct);
 143:Src/usart.c   **** 
 144:Src/usart.c   ****     /* USART2 interrupt Init */
 145:Src/usart.c   ****     HAL_NVIC_SetPriority(USART2_IRQn, 15, 0);
 146:Src/usart.c   ****     HAL_NVIC_EnableIRQ(USART2_IRQn);
 147:Src/usart.c   ****   /* USER CODE BEGIN USART2_MspInit 1 */
 148:Src/usart.c   **** 
 149:Src/usart.c   ****   /* USER CODE END USART2_MspInit 1 */
 150:Src/usart.c   ****   }
 151:Src/usart.c   **** }
 191              		.loc 1 151 0
 192 0012 09B0     		add	sp, sp, #36
 193              	.LCFI4:
 194              		.cfi_remember_state
ARM GAS  /var/folders/v3/wysfpd052nz8jkbx04pk0ym80000gn/T//ccL3mjI4.s 			page 7


 195              		.cfi_def_cfa_offset 4
 196              		@ sp needed
 197 0014 5DF804FB 		ldr	pc, [sp], #4
 198              	.LVL6:
 199              	.L17:
 200              	.LCFI5:
 201              		.cfi_restore_state
 202              	.LBB2:
 105:Src/usart.c   ****   
 203              		.loc 1 105 0
 204 0018 244B     		ldr	r3, .L19+8
 205 001a 9A69     		ldr	r2, [r3, #24]
 206 001c 42F48042 		orr	r2, r2, #16384
 207 0020 9A61     		str	r2, [r3, #24]
 208 0022 9B69     		ldr	r3, [r3, #24]
 209 0024 03F48043 		and	r3, r3, #16384
 210 0028 0193     		str	r3, [sp, #4]
 211 002a 019B     		ldr	r3, [sp, #4]
 212              	.LBE2:
 111:Src/usart.c   ****     GPIO_InitStruct.Mode = GPIO_MODE_AF_PP;
 213              		.loc 1 111 0
 214 002c 4FF4C063 		mov	r3, #1536
 215 0030 0393     		str	r3, [sp, #12]
 112:Src/usart.c   ****     GPIO_InitStruct.Pull = GPIO_PULLUP;
 216              		.loc 1 112 0
 217 0032 0223     		movs	r3, #2
 218 0034 0493     		str	r3, [sp, #16]
 113:Src/usart.c   ****     GPIO_InitStruct.Speed = GPIO_SPEED_FREQ_HIGH;
 219              		.loc 1 113 0
 220 0036 0123     		movs	r3, #1
 221 0038 0593     		str	r3, [sp, #20]
 114:Src/usart.c   ****     GPIO_InitStruct.Alternate = GPIO_AF7_USART1;
 222              		.loc 1 114 0
 223 003a 0323     		movs	r3, #3
 224 003c 0693     		str	r3, [sp, #24]
 115:Src/usart.c   ****     HAL_GPIO_Init(GPIOA, &GPIO_InitStruct);
 225              		.loc 1 115 0
 226 003e 0723     		movs	r3, #7
 227 0040 0793     		str	r3, [sp, #28]
 116:Src/usart.c   **** 
 228              		.loc 1 116 0
 229 0042 03A9     		add	r1, sp, #12
 230 0044 4FF09040 		mov	r0, #1207959552
 231              	.LVL7:
 232 0048 FFF7FEFF 		bl	HAL_GPIO_Init
 233              	.LVL8:
 119:Src/usart.c   ****     HAL_NVIC_EnableIRQ(USART1_IRQn);
 234              		.loc 1 119 0
 235 004c 0022     		movs	r2, #0
 236 004e 0521     		movs	r1, #5
 237 0050 2520     		movs	r0, #37
 238 0052 FFF7FEFF 		bl	HAL_NVIC_SetPriority
 239              	.LVL9:
 120:Src/usart.c   ****   /* USER CODE BEGIN USART1_MspInit 1 */
 240              		.loc 1 120 0
 241 0056 2520     		movs	r0, #37
 242 0058 FFF7FEFF 		bl	HAL_NVIC_EnableIRQ
ARM GAS  /var/folders/v3/wysfpd052nz8jkbx04pk0ym80000gn/T//ccL3mjI4.s 			page 8


 243              	.LVL10:
 244 005c D9E7     		b	.L13
 245              	.LVL11:
 246              	.L18:
 247              	.LBB3:
 131:Src/usart.c   ****   
 248              		.loc 1 131 0
 249 005e 134B     		ldr	r3, .L19+8
 250 0060 DA69     		ldr	r2, [r3, #28]
 251 0062 42F40032 		orr	r2, r2, #131072
 252 0066 DA61     		str	r2, [r3, #28]
 253 0068 DB69     		ldr	r3, [r3, #28]
 254 006a 03F40033 		and	r3, r3, #131072
 255 006e 0293     		str	r3, [sp, #8]
 256 0070 029B     		ldr	r3, [sp, #8]
 257              	.LBE3:
 137:Src/usart.c   ****     GPIO_InitStruct.Mode = GPIO_MODE_AF_PP;
 258              		.loc 1 137 0
 259 0072 48F20403 		movw	r3, #32772
 260 0076 0393     		str	r3, [sp, #12]
 138:Src/usart.c   ****     GPIO_InitStruct.Pull = GPIO_PULLUP;
 261              		.loc 1 138 0
 262 0078 0223     		movs	r3, #2
 263 007a 0493     		str	r3, [sp, #16]
 139:Src/usart.c   ****     GPIO_InitStruct.Speed = GPIO_SPEED_FREQ_HIGH;
 264              		.loc 1 139 0
 265 007c 0123     		movs	r3, #1
 266 007e 0593     		str	r3, [sp, #20]
 140:Src/usart.c   ****     GPIO_InitStruct.Alternate = GPIO_AF7_USART2;
 267              		.loc 1 140 0
 268 0080 0323     		movs	r3, #3
 269 0082 0693     		str	r3, [sp, #24]
 141:Src/usart.c   ****     HAL_GPIO_Init(GPIOA, &GPIO_InitStruct);
 270              		.loc 1 141 0
 271 0084 0723     		movs	r3, #7
 272 0086 0793     		str	r3, [sp, #28]
 142:Src/usart.c   **** 
 273              		.loc 1 142 0
 274 0088 03A9     		add	r1, sp, #12
 275 008a 4FF09040 		mov	r0, #1207959552
 276              	.LVL12:
 277 008e FFF7FEFF 		bl	HAL_GPIO_Init
 278              	.LVL13:
 145:Src/usart.c   ****     HAL_NVIC_EnableIRQ(USART2_IRQn);
 279              		.loc 1 145 0
 280 0092 0022     		movs	r2, #0
 281 0094 0F21     		movs	r1, #15
 282 0096 2620     		movs	r0, #38
 283 0098 FFF7FEFF 		bl	HAL_NVIC_SetPriority
 284              	.LVL14:
 146:Src/usart.c   ****   /* USER CODE BEGIN USART2_MspInit 1 */
 285              		.loc 1 146 0
 286 009c 2620     		movs	r0, #38
 287 009e FFF7FEFF 		bl	HAL_NVIC_EnableIRQ
 288              	.LVL15:
 289              		.loc 1 151 0
 290 00a2 B6E7     		b	.L13
ARM GAS  /var/folders/v3/wysfpd052nz8jkbx04pk0ym80000gn/T//ccL3mjI4.s 			page 9


 291              	.L20:
 292              		.align	2
 293              	.L19:
 294 00a4 00380140 		.word	1073821696
 295 00a8 00440040 		.word	1073759232
 296 00ac 00100240 		.word	1073876992
 297              		.cfi_endproc
 298              	.LFE128:
 300              		.section	.text.HAL_UART_MspDeInit,"ax",%progbits
 301              		.align	1
 302              		.global	HAL_UART_MspDeInit
 303              		.syntax unified
 304              		.thumb
 305              		.thumb_func
 306              		.fpu fpv4-sp-d16
 308              	HAL_UART_MspDeInit:
 309              	.LFB129:
 152:Src/usart.c   **** 
 153:Src/usart.c   **** void HAL_UART_MspDeInit(UART_HandleTypeDef* uartHandle)
 154:Src/usart.c   **** {
 310              		.loc 1 154 0
 311              		.cfi_startproc
 312              		@ args = 0, pretend = 0, frame = 0
 313              		@ frame_needed = 0, uses_anonymous_args = 0
 314              	.LVL16:
 315 0000 08B5     		push	{r3, lr}
 316              	.LCFI6:
 317              		.cfi_def_cfa_offset 8
 318              		.cfi_offset 3, -8
 319              		.cfi_offset 14, -4
 155:Src/usart.c   **** 
 156:Src/usart.c   ****   if(uartHandle->Instance==USART1)
 320              		.loc 1 156 0
 321 0002 0368     		ldr	r3, [r0]
 322 0004 134A     		ldr	r2, .L27
 323 0006 9342     		cmp	r3, r2
 324 0008 03D0     		beq	.L25
 157:Src/usart.c   ****   {
 158:Src/usart.c   ****   /* USER CODE BEGIN USART1_MspDeInit 0 */
 159:Src/usart.c   **** 
 160:Src/usart.c   ****   /* USER CODE END USART1_MspDeInit 0 */
 161:Src/usart.c   ****     /* Peripheral clock disable */
 162:Src/usart.c   ****     __HAL_RCC_USART1_CLK_DISABLE();
 163:Src/usart.c   ****   
 164:Src/usart.c   ****     /**USART1 GPIO Configuration    
 165:Src/usart.c   ****     PA9     ------> USART1_TX
 166:Src/usart.c   ****     PA10     ------> USART1_RX 
 167:Src/usart.c   ****     */
 168:Src/usart.c   ****     HAL_GPIO_DeInit(GPIOA, USART1__Defi_TX_Pin|USART1__Defi_RX_Pin);
 169:Src/usart.c   **** 
 170:Src/usart.c   ****     /* USART1 interrupt Deinit */
 171:Src/usart.c   ****     HAL_NVIC_DisableIRQ(USART1_IRQn);
 172:Src/usart.c   ****   /* USER CODE BEGIN USART1_MspDeInit 1 */
 173:Src/usart.c   **** 
 174:Src/usart.c   ****   /* USER CODE END USART1_MspDeInit 1 */
 175:Src/usart.c   ****   }
 176:Src/usart.c   ****   else if(uartHandle->Instance==USART2)
ARM GAS  /var/folders/v3/wysfpd052nz8jkbx04pk0ym80000gn/T//ccL3mjI4.s 			page 10


 325              		.loc 1 176 0
 326 000a 134A     		ldr	r2, .L27+4
 327 000c 9342     		cmp	r3, r2
 328 000e 10D0     		beq	.L26
 329              	.LVL17:
 330              	.L21:
 177:Src/usart.c   ****   {
 178:Src/usart.c   ****   /* USER CODE BEGIN USART2_MspDeInit 0 */
 179:Src/usart.c   **** 
 180:Src/usart.c   ****   /* USER CODE END USART2_MspDeInit 0 */
 181:Src/usart.c   ****     /* Peripheral clock disable */
 182:Src/usart.c   ****     __HAL_RCC_USART2_CLK_DISABLE();
 183:Src/usart.c   ****   
 184:Src/usart.c   ****     /**USART2 GPIO Configuration    
 185:Src/usart.c   ****     PA2     ------> USART2_TX
 186:Src/usart.c   ****     PA15     ------> USART2_RX 
 187:Src/usart.c   ****     */
 188:Src/usart.c   ****     HAL_GPIO_DeInit(GPIOA, USART2__USB_TX_Pin|USART2__USB_RX_Pin);
 189:Src/usart.c   **** 
 190:Src/usart.c   ****     /* USART2 interrupt Deinit */
 191:Src/usart.c   ****     HAL_NVIC_DisableIRQ(USART2_IRQn);
 192:Src/usart.c   ****   /* USER CODE BEGIN USART2_MspDeInit 1 */
 193:Src/usart.c   **** 
 194:Src/usart.c   ****   /* USER CODE END USART2_MspDeInit 1 */
 195:Src/usart.c   ****   }
 196:Src/usart.c   **** } 
 331              		.loc 1 196 0
 332 0010 08BD     		pop	{r3, pc}
 333              	.LVL18:
 334              	.L25:
 162:Src/usart.c   ****   
 335              		.loc 1 162 0
 336 0012 02F55842 		add	r2, r2, #55296
 337 0016 9369     		ldr	r3, [r2, #24]
 338 0018 23F48043 		bic	r3, r3, #16384
 339 001c 9361     		str	r3, [r2, #24]
 168:Src/usart.c   **** 
 340              		.loc 1 168 0
 341 001e 4FF4C061 		mov	r1, #1536
 342 0022 4FF09040 		mov	r0, #1207959552
 343              	.LVL19:
 344 0026 FFF7FEFF 		bl	HAL_GPIO_DeInit
 345              	.LVL20:
 171:Src/usart.c   ****   /* USER CODE BEGIN USART1_MspDeInit 1 */
 346              		.loc 1 171 0
 347 002a 2520     		movs	r0, #37
 348 002c FFF7FEFF 		bl	HAL_NVIC_DisableIRQ
 349              	.LVL21:
 350 0030 EEE7     		b	.L21
 351              	.LVL22:
 352              	.L26:
 182:Src/usart.c   ****   
 353              		.loc 1 182 0
 354 0032 02F5E632 		add	r2, r2, #117760
 355 0036 D369     		ldr	r3, [r2, #28]
 356 0038 23F40033 		bic	r3, r3, #131072
 357 003c D361     		str	r3, [r2, #28]
ARM GAS  /var/folders/v3/wysfpd052nz8jkbx04pk0ym80000gn/T//ccL3mjI4.s 			page 11


 188:Src/usart.c   **** 
 358              		.loc 1 188 0
 359 003e 48F20401 		movw	r1, #32772
 360 0042 4FF09040 		mov	r0, #1207959552
 361              	.LVL23:
 362 0046 FFF7FEFF 		bl	HAL_GPIO_DeInit
 363              	.LVL24:
 191:Src/usart.c   ****   /* USER CODE BEGIN USART2_MspDeInit 1 */
 364              		.loc 1 191 0
 365 004a 2620     		movs	r0, #38
 366 004c FFF7FEFF 		bl	HAL_NVIC_DisableIRQ
 367              	.LVL25:
 368              		.loc 1 196 0
 369 0050 DEE7     		b	.L21
 370              	.L28:
 371 0052 00BF     		.align	2
 372              	.L27:
 373 0054 00380140 		.word	1073821696
 374 0058 00440040 		.word	1073759232
 375              		.cfi_endproc
 376              	.LFE129:
 378              		.comm	huart2,112,4
 379              		.comm	huart1,112,4
 380              		.section	.rodata.MX_USART1_UART_Init.str1.4,"aMS",%progbits,1
 381              		.align	2
 382              	.LC0:
 383 0000 5372632F 		.ascii	"Src/usart.c\000"
 383      75736172 
 383      742E6300 
 384              		.text
 385              	.Letext0:
 386              		.file 2 "/usr/local/gcc-arm-none-eabi-7-2018-q2-update/arm-none-eabi/include/machine/_default_type
 387              		.file 3 "/usr/local/gcc-arm-none-eabi-7-2018-q2-update/arm-none-eabi/include/sys/_stdint.h"
 388              		.file 4 "Drivers/CMSIS/Include/core_cm4.h"
 389              		.file 5 "Drivers/CMSIS/Device/ST/STM32F3xx/Include/system_stm32f3xx.h"
 390              		.file 6 "Drivers/CMSIS/Device/ST/STM32F3xx/Include/stm32f303x8.h"
 391              		.file 7 "/usr/local/gcc-arm-none-eabi-7-2018-q2-update/arm-none-eabi/include/sys/lock.h"
 392              		.file 8 "/usr/local/gcc-arm-none-eabi-7-2018-q2-update/arm-none-eabi/include/sys/_types.h"
 393              		.file 9 "/usr/local/gcc-arm-none-eabi-7-2018-q2-update/lib/gcc/arm-none-eabi/7.3.1/include/stddef.
 394              		.file 10 "/usr/local/gcc-arm-none-eabi-7-2018-q2-update/arm-none-eabi/include/sys/reent.h"
 395              		.file 11 "Drivers/STM32F3xx_HAL_Driver/Inc/stm32f3xx_hal_def.h"
 396              		.file 12 "Drivers/STM32F3xx_HAL_Driver/Inc/stm32f3xx_hal_gpio.h"
 397              		.file 13 "Drivers/STM32F3xx_HAL_Driver/Inc/stm32f3xx_hal_dma.h"
 398              		.file 14 "Drivers/STM32F3xx_HAL_Driver/Inc/stm32f3xx_hal_uart.h"
 399              		.file 15 "Inc/usart.h"
 400              		.file 16 "Drivers/STM32F3xx_HAL_Driver/Inc/stm32f3xx_hal_cortex.h"
ARM GAS  /var/folders/v3/wysfpd052nz8jkbx04pk0ym80000gn/T//ccL3mjI4.s 			page 12

